(lp0
(lp1
S'EVELYN'
p2
a(lp3
S'Another'
p4
aS'thing'
p5
aS'I'
p6
aS'thought'
p7
aS'was'
p8
aS'interesting'
p9
aaa(lp10
g2
a(lp11
S'was'
p12
aS'the'
p13
aaa(lp14
g2
a(lp15
S'this'
p16
aS'uh'
p17
aaa(lp18
g2
a(lp19
S'the'
p20
aS'emphasis'
p21
aS'on'
p22
aS'transportation'
p23
aaa(lp24
g2
a(lp25
S'Do'
p26
aS'you'
p27
aS'remember'
p28
aS'the'
p29
aS'automobile'
p30
aaa(lp31
g2
a(lp32
S'This'
p33
aS'was'
p34
aS'the'
p35
aS'beginning'
p36
aS'of'
p37
aS'the'
p38
aS'uh'
p39
aS'change'
p40
aaa(lp41
S'LINDA'
p42
a(lp43
S'Mhm'
p44
aaa(lp45
S'PATTY'
p46
a(lp47
S'P'
p48
aS'XXXXX'
p49
aS'X'
p50
ag48
aaa(lp51
S'EVELYN'
p52
a(lp53
aa(lp54
S'EVELYN'
p55
a(lp56
S'uh'
p57
aS'trains'
p58
aaa(lp59
g55
a(lp60
S'and'
p61
aS'uh'
p62
aaa(lp63
S'PATTY'
p64
a(lp65
S'carriages'
p66
aaa(lp67
S'EVELYN'
p68
a(lp69
S'automobiles'
p70
aaa(lp71
S'LINDA'
p72
a(lp73
S'Unhunh'
p74
aaa(lp75
S'EVELYN'
p76
a(lp77
S'and'
p78
aS'uh'
p79
aaa(lp80
S'X'
p81
a(lp82
S'Hm'
p83
aaa(lp84
S'PATTY'
p85
a(lp86
g6
aS'think'
p87
aS'Margaret'
p88
aS'though'
p89
aaa(lp90
S'LINDA'
p91
a(lp92
S'Mhm'
p93
aaa(lp94
S'PATTY'
p95
a(lp96
g6
aaa(lp97
g95
a(lp98
g6
aS'dont'
p99
aS'think'
p100
aS'we'
p101
aS'can'
p102
aS'underestimate'
p103
aS'her'
p104
aaa(lp105
g95
a(lp106
g6
aS'mean'
p107
aaa(lp108
g95
a(lp109
g6
aS'think'
p110
aS'shes'
p111
aS'a'
p112
aS'like'
p113
ag112
aS'lot'
p114
aS'of'
p115
aS'women'
p116
aaa(lp117
g95
a(lp118
S'that'
p119
ag6
aS'have'
p120
aS'known'
p121
aaa(lp122
g95
a(lp123
g6
aS'mean'
p124
aS'shes'
p125
aS'in'
p126
aS'control'
p127
aaa(lp128
S'X'
p129
a(lp130
aa(lp131
S'PATTY'
p132
a(lp133
S'there'
p134
aS'is'
p135
aS'no'
p136
aS'doubt'
p137
aaa(lp138
g132
a(lp139
g6
aS'mean'
p140
aaa(lp141
g132
a(lp142
S'Henry'
p143
aS'Wilcox'
p144
aS'may'
p145
aS'think'
p146
aS'hes'
p147
aS'in'
p148
aS'control'
p149
aaa(lp150
g132
a(lp151
S'but'
p152
aS'he'
p153
aS'isnt'
p154
aaa(lp155
S'X'
p156
a(lp157
S'Hm'
p158
aaa(lp159
S'PATTY'
p160
a(lp161
S'And'
p162
aS'there'
p163
aS'would'
p164
aS'never'
p165
aS'be'
p166
ag112
aS'Jacky'
p167
aS'Bast'
p168
aaa(lp169
S'X'
p170
a(lp171
aa(lp172
S'PATTY'
p173
a(lp174
S'While'
p175
aS'she'
p176
aS'is'
p177
aS'uh'
p178
aS'the'
p179
aS'head'
p180
aS'of'
p181
aS'of'
p182
aS'that'
p183
aS'h'
p184
aS'household'
p185
aaa(lp186
g173
a(lp187
S'Whereas'
p188
ag6
aS'thought'
p189
aS'Missis'
p190
aS'Wilc'
p191
aaa(lp192
g173
a(lp193
S'the'
p194
aS'first'
p195
aS'Missis'
p196
aS'Wilcox'
p197
aaa(lp198
g173
a(lp199
S'Ruth'
p200
aaa(lp201
S'LINDA'
p202
a(lp203
S'Mhm'
p204
aaa(lp205
S'PATTY'
p206
a(lp207
S'Was'
p208
aS'so'
p209
aS'other'
p210
aS'worldly'
p211
aaa(lp212
g206
a(lp213
S'and'
p214
aS'everything'
p215
aS'else'
p216
aaa(lp217
S'LINDA'
p218
a(lp219
S'mhm'
p220
aaa(lp221
S'PATTY'
p222
a(lp223
S'She'
p224
aS'didnt'
p225
aS'even'
p226
aS'have'
p227
ag112
aS'clue'
p228
aaa(lp229
g222
a(lp230
S'as'
p231
aS'to'
p232
aS'what'
p233
aS'was'
p234
aS'going'
p235
aS'on'
p236
aaa(lp237
S'X'
p238
a(lp239
S'Mhm'
p240
aaa(lp241
S'PATTY'
p242
a(lp243
S'So'
p244
ag6
aS'felt'
p245
aS'that'
p246
aaa(lp247
g242
a(lp248
S'that'
p249
aS'uh'
p250
aS'Margaret'
p251
aS'is'
p252
aaa(lp253
S'JANICE'
p254
a(lp255
aa(lp256
S'PATTY'
p257
a(lp258
S'is'
p259
aaa(lp260
g257
a(lp261
S'and'
p262
ag6
aS'thought'
p263
aS'for'
p264
aS'this'
p265
aS'time'
p266
aaa(lp267
g257
a(lp268
S'she'
p269
aS'was'
p270
aS'tremendously'
p271
aaa(lp272
g257
a(lp273
S'uh'
p274
aaa(lp275
g257
a(lp276
S'just'
p277
aS'in'
p278
aS'charge'
p279
aaa(lp280
S'LINDA'
p281
a(lp282
S'Shes'
p283
aS'very'
p284
aS'practical'
p285
aaa(lp286
S'PATTY'
p287
a(lp288
S'Yeah'
p289
aaa(lp290
S'DIANE'
p291
a(lp292
S'Mhm'
p293
aaa(lp294
S'PATTY'
p295
a(lp296
S'and'
p297
aS'she'
p298
aS'didnt'
p299
aS'care'
p300
aaa(lp301
g295
a(lp302
S'the'
p303
aS'to'
p304
aS'b'
p305
aaa(lp306
g295
a(lp307
S'to'
p308
aaa(lp309
g295
a(lp310
S'she'
p311
aS'didnt'
p312
aS'care'
p313
aS'about'
p314
aS'emancipation'
p315
aaa(lp316
S'LINDA'
p317
a(lp318
S'Mhm'
p319
aaa(lp320
S'PATTY'
p321
a(lp322
g6
aS'mean'
p323
aaa(lp324
S'LINDA'
p325
a(lp326
S'Mhm'
p327
aaa(lp328
S'PATTY'
p329
a(lp330
S'she'
p331
aS'was'
p332
aaa(lp333
S'LINDA'
p334
a(lp335
S'Mhm'
p336
aaa(lp337
S'PATTY'
p338
a(lp339
S'So'
p340
aS'she'
p341
aaa(lp342
g338
a(lp343
S'when'
p344
aS'you'
p345
aS'really'
p346
aS'are'
p347
aS'already'
p348
aS'that'
p349
aS'way'
p350
aaa(lp351
g338
a(lp352
S'you'
p353
aS'dont'
p354
aS'have'
p355
aS'to'
p356
aS'make'
p357
ag112
aS'big'
p358
aS'todo'
p359
aS'about'
p360
aS'it'
p361
aaa(lp362
S'EVELYN'
p363
a(lp364
S'Mhm'
p365
aaa(lp366
S'LINDA'
p367
a(lp368
S'Mhm'
p369
aaa(lp370
S'X'
p371
a(lp372
S'Mhm'
p373
aaa(lp374
S'DIANE'
p375
a(lp376
g50
aS'but'
p377
aS'she'
p378
aS'also'
p379
ag50
aaa(lp380
S'LOIS'
p381
a(lp382
g6
aS'thought'
p383
aS'also'
p384
aaa(lp385
g381
a(lp386
S'in'
p387
aS'the'
p388
aS'movie'
p389
aaa(lp390
g381
a(lp391
S'she'
p392
aS'had'
p393
ag112
aS'very'
p394
aS'strong'
p395
aS'personality'
p396
aaa(lp397
g381
a(lp398
S'A'
p399
aS'lot'
p400
aS'of'
p401
aS'charisma'
p402
aaa(lp403
S'LINDA'
p404
a(lp405
S'Mhm'
p406
aaa(lp407
S'LOIS'
p408
a(lp409
S'And'
p410
aS'very'
p411
aS'positive'
p412
aaa(lp413
S'DEBORAH'
p414
a(lp415
S'Did'
p416
aS'you'
p417
aS'see'
p418
aS'the'
p419
aS'movie'
p420
aS'Diane'
p421
aaa(lp422
S'DIANE'
p423
a(lp424
S'Hmm'
p425
aaa(lp426
S'LOIS'
p427
a(lp428
S'which'
p429
aS'is'
p430
aS'also'
p431
aS'what'
p432
aS'youre'
p433
aS'saying'
p434
aaa(lp435
g427
a(lp436
S'But'
p437
aaa(lp438
S'LINDA'
p439
a(lp440
S'Mhm'
p441
aaa(lp442
S'LOIS'
p443
a(lp444
S'but'
p445
aS'she'
p446
aS'just'
p447
aS'radiated'
p448
aS'something'
p449
aS'which'
p450
aS'was'
p451
aS'personality'
p452
aaa(lp453
S'LINDA'
p454
a(lp455
S'Mhm'
p456
aaa(lp457
S'EVELYN'
p458
a(lp459
S'You'
p460
aS'know'
p461
aaa(lp462
g458
a(lp463
g112
aS'funny'
p464
aaa(lp465
g458
a(lp466
S'there'
p467
aS'are'
p468
aS'two'
p469
aS'young'
p470
aS'people'
p471
aS'that'
p472
ag6
aS'have'
p473
aS'talked'
p474
aS'to'
p475
aS'about'
p476
aS'the'
p477
aS'movie'
p478
aaa(lp479
g458
a(lp480
S'and'
p481
ag6
aS'havent'
p482
aS'seen'
p483
aS'it'
p484
aS'but'
p485
aaa(lp486
g458
a(lp487
S'one'
p488
aS'of'
p489
aS'them'
p490
aaa(lp491
g458
a(lp492
S'uh'
p493
aS'was'
p494
aS'my'
p495
aS'niece'
p496
aaa(lp497
g458
a(lp498
S'and'
p499
ag6
aS'said'
p500
aS'something'
p501
aS'about'
p502
aS'Margaret'
p503
aS'talking'
p504
aS'about'
p505
aS'her'
p506
aaa(lp507
g458
a(lp508
S'feeling'
p509
aS'that'
p510
aS'she'
p511
aS'was'
p512
aS'the'
p513
aaa(lp514
g458
a(lp515
g6
aS'think'
p516
ag6
aS'used'
p517
aS'the'
p518
aS'word'
p519
aS'heroine'
p520
aaa(lp521
g458
a(lp522
S'And'
p523
aS'she'
p524
aS'said'
p525
aS'Q'
p526
aS'heroine'
p527
ag526
aaa(lp528
g458
a(lp529
S'And'
p530
aS'she'
p531
aS'couldnt'
p532
aS'see'
p533
aS'Margaret'
p534
aS'as'
p535
ag112
aS'heroine'
p536
aaa(lp537
g458
a(lp538
g6
aS'think'
p539
aS'Margaret'
p540
aaa(lp541
S'X'
p542
a(lp543
S'XX'
p544
aaa(lp545
S'EVELYN'
p546
a(lp547
S'and'
p548
aS'then'
p549
aS'she'
p550
aS'went'
p551
aS'on'
p552
aaa(lp553
g546
a(lp554
S'to'
p555
aS'explain'
p556
aaa(lp557
g546
a(lp558
S'she'
p559
aS'said'
p560
aaa(lp561
g546
a(lp562
S'maybe'
p563
aS'she'
p564
aS'was'
p565
aS'too'
p566
aS'strong'
p567
aaa(lp568
g546
a(lp569
S'Uh'
p570
aaa(lp571
g546
a(lp572
S'were'
p573
aS'used'
p574
aS'to'
p575
aS'seeing'
p576
aS'someone'
p577
aS'as'
p578
aS'the'
p579
aS'uh'
p580
aaa(lp581
g546
a(lp582
S'you'
p583
aS'know'
p584
aaa(lp585
g546
a(lp586
S'the'
p587
aS'protagonist'
p588
aaa(lp589
g546
a(lp590
S'or'
p591
aS'the'
p592
aaa(lp593
g546
a(lp594
S'the'
p595
aS'woman'
p596
aS'on'
p597
aS'the'
p598
aS'screen'
p599
aaa(lp600
g546
a(lp601
S'as'
p602
ag112
aS'romantic'
p603
aaa(lp604
g546
a(lp605
S'as'
p606
aS'uh'
p607
aS'all'
p608
aS'of'
p609
aS'that'
p610
aaa(lp611
g546
a(lp612
S'And'
p613
ag6
aaa(lp614
g546
a(lp615
g6
aS'havent'
p616
aS'seen'
p617
aS'the'
p618
aS'movie'
p619
aaa(lp620
g546
a(lp621
S'but'
p622
aS'that'
p623
aS'was'
p624
aS'her'
p625
aS'feeling'
p626
aS'about'
p627
aS'it'
p628
aaa(lp629
S'X'
p630
a(lp631
S'Hm'
p632
aaa(lp633
S'LINDA'
p634
a(lp635
S'Hunh'
p636
aaa(lp637
S'SUE'
p638
a(lp639
S'Had'
p640
aS'she'
p641
aS'read'
p642
aS'the'
p643
aS'book'
p644
aS'also'
p645
aaa(lp646
g638
a(lp647
S'You'
p648
aaa(lp649
S'EVELYN'
p650
a(lp651
S'No'
p652
aaa(lp653
g650
a(lp654
S'no'
p655
aaa(lp656
S'SUE'
p657
a(lp658
S't'
p659
aaa(lp660
S'LINDA'
p661
a(lp662
S'Just'
p663
aS'the'
p664
aaa(lp665
S'EVELYN'
p666
a(lp667
S'No'
p668
aaa(lp669
S'SUE'
p670
a(lp671
S'because'
p672
aaa(lp673
S'EVELYN'
p674
a(lp675
S'XX'
p676
aS'goes'
p677
aS'to'
p678
aS'movies'
p679
aaa(lp680
S'SUE'
p681
a(lp682
S'Okay'
p683
aaa(lp684
S'DIANE'
p685
a(lp686
aa(lp687
S'EVELYN'
p688
a(lp689
S'And'
p690
aS'an'
p691
aaa(lp692
S'SUE'
p693
a(lp694
S'be'
p695
aaa(lp696
g693
a(lp697
S'Because'
p698
aaa(lp699
g693
a(lp700
S'the'
p701
aS'other'
p702
aS'thing'
p703
aS'about'
p704
aS'Margaret'
p705
aS'that'
p706
aS'would'
p707
aS'be'
p708
aS'uh'
p709
ag112
aS'heroine'
p710
aaa(lp711
g693
a(lp712
S'is'
p713
aS'that'
p714
aS'she'
p715
aaa(lp716
S'LINDA'
p717
a(lp718
aa(lp719
S'SUE'
p720
a(lp721
S'marries'
p722
aS'Henry'
p723
aS'even'
p724
aS'though'
p725
aS'all'
p726
aS'this'
p727
aS'has'
p728
aS'happened'
p729
aaa(lp730
g720
a(lp731
S'and'
p732
aS'then'
p733
aS'she'
p734
aaa(lp735
g720
a(lp736
S'she'
p737
aS'sticks'
p738
aS'with'
p739
aS'Henry'
p740
aaa(lp741
S'EVELYN'
p742
a(lp743
S'mhm'
p744
aaa(lp745
S'SUE'
p746
a(lp747
S'even'
p748
aS'though'
p749
aaa(lp750
g746
a(lp751
S'all'
p752
aaa(lp753
g746
a(lp754
S'You'
p755
aS'know'
p756
aaa(lp757
S'LINDA'
p758
a(lp759
aa(lp760
S'EVELYN'
p761
a(lp762
S'Mhm'
p763
aaa(lp764
S'SUE'
p765
a(lp766
S'The'
p767
aS'son'
p768
aS'ends'
p769
aS'up'
p770
aS'killing'
p771
aaa(lp772
S'LINDA'
p773
a(lp774
aa(lp775
S'SUE'
p776
a(lp777
S'You'
p778
aS'know'
p779
aaa(lp780
S'LINDA'
p781
a(lp782
aa(lp783
S'SUE'
p784
a(lp785
S'all'
p786
aS'this'
p787
aS'happens'
p788
aaa(lp789
g784
a(lp790
S'and'
p791
aS'she'
p792
aS'sticks'
p793
aS'it'
p794
aS'out'
p795
aS'with'
p796
aS'Henry'
p797
aaa(lp798
S'LINDA'
p799
a(lp800
aa(lp801
S'EVELYN'
p802
a(lp803
S'Yeah'
p804
aaa(lp805
S'SUE'
p806
a(lp807
S'And'
p808
aS'that'
p809
aaa(lp810
g806
a(lp811
S'maybe'
p812
aaa(lp813
g806
a(lp814
S'young'
p815
aS'people'
p816
aS'nowadays'
p817
aS'wouldnt'
p818
aS'have'
p819
aS'done'
p820
aaa(lp821
S'EVELYN'
p822
a(lp823
S'XX'
p824
aaa(lp825
S'LINDA'
p826
a(lp827
aa(lp828
S'SUE'
p829
a(lp830
S'They'
p831
aS'wouldnt'
p832
aS'have'
p833
aS'thought'
p834
aS'that'
p835
aS'heroic'
p836
aaa(lp837
g829
a(lp838
S'They'
p839
aS'would'
p840
aS'have'
p841
aS'thought'
p842
aS'that'
p843
aaa(lp844
g829
a(lp845
S'marching'
p846
aS'out'
p847
aS'and'
p848
aS'saying'
p849
aS'VOX'
p850
ag6
aS'wont'
p851
aS'stay'
p852
aS'VOX'
p853
aaa(lp854
g829
a(lp855
S'you'
p856
aS'know'
p857
aS'or'
p858
aaa(lp859
S'EVELYN'
p860
a(lp861
S'Mhm'
p862
aaa(lp863
S'SUE'
p864
a(lp865
S'VOX'
p866
ag6
aS'wont'
p867
aS'marry'
p868
aS'you'
p869
aS'VOX'
p870
aS'or'
p871
aaa(lp872
S'LINDA'
p873
a(lp874
aa(lp875
S'SUE'
p876
a(lp877
S'whatever'
p878
aaa(lp879
S'EVELYN'
p880
a(lp881
S'MM'
p882
aaa(lp883
S'LINDA'
p884
a(lp885
g6
ag6
aS'wanted'
p886
aS'to'
p887
aS'know'
p888
aaa(lp889
g884
a(lp890
S'excuse'
p891
aS'me'
p892
aaa(lp893
g884
a(lp894
g6
aS'wanted'
p895
aS'to'
p896
aS'know'
p897
aS'what'
p898
aS'you'
p899
aS'thought'
p900
aS'about'
p901
aaa(lp902
g884
a(lp903
S'why'
p904
aS'she'
p905
aS'agreed'
p906
aS'to'
p907
aS'marry'
p908
aS'him'
p909
aS'to'
p910
aS'begin'
p911
aS'with'
p912
aaa(lp913
g884
a(lp914
S'Because'
p915
aS'although'
p916
ag6
aS'understand'
p917
aS'the'
p918
aS'reasons'
p919
aS'that'
p920
aS'are'
p921
aS'given'
p922
aS'in'
p923
aS'the'
p924
aS'book'
p925
aaa(lp926
g884
a(lp927
g6
aS'still'
p928
aS'couldnt'
p929
aS'quite'
p930
aS'decide'
p931
aS'that'
p932
aaa(lp933
g884
a(lp934
S'thats'
p935
aS'something'
p936
aS'she'
p937
aS'would'
p938
aS'have'
p939
aS'decided'
p940
aS'to'
p941
aS'do'
p942
aaa(lp943
S'EVELYN'
p944
a(lp945
S'Uh'
p946
ag50
aS'but'
p947
ag50
ag6
aS'n'
p948
aaa(lp949
g944
a(lp950
g6
aS'know'
p951
aS'what'
p952
aS'you'
p953
aS'mean'
p954
aaa(lp955
g944
a(lp956
S'The'
p957
aS'only'
p958
aS'thing'
p959
ag6
aS'was'
p960
aS'thinking'
p961
aaa(lp962
g944
a(lp963
S'maybe'
p964
aS'she'
p965
aS'was'
p966
aS'older'
p967
aaa(lp968
g944
a(lp969
S'Her'
p970
aS'chances'
p971
aS'were'
p972
aaa(lp973
g944
a(lp974
S'You'
p975
aS'know'
p976
aaa(lp977
g944
a(lp978
S'it'
p979
aS'was'
p980
aS'changing'
p981
aaa(lp982
S'LINDA'
p983
a(lp984
S'Mm'
p985
aaa(lp986
S'EVELYN'
p987
a(lp988
S'And'
p989
aS'uh'
p990
aaa(lp991
g987
a(lp992
S'because'
p993
aS'she'
p994
aS'was'
p995
aS'very'
p996
aS'pleased'
p997
aS'when'
p998
aS'he'
p999
aS'asked'
p1000
aS'her'
p1001
aaa(lp1002
S'JANICE'
p1003
a(lp1004
S'Ha'
p1005
aaa(lp1006
S'LINDA'
p1007
a(lp1008
S'and'
p1009
aS'she'
p1010
aS'admired'
p1011
aS'him'
p1012
aaa(lp1013
g1007
a(lp1014
S'according'
p1015
aS'to'
p1016
aS'the'
p1017
ag305
aaa(lp1018
S'EVELYN'
p1019
a(lp1020
S'mm'
p1021
aaa(lp1022
S'JANICE'
p1023
a(lp1024
S'well'
p1025
ag6
aS'dont'
p1026
aS'think'
p1027
aS'Henry'
p1028
aS'was'
p1029
aS'the'
p1030
aS'horrible'
p1031
aS'person'
p1032
aS'that'
p1033
aaa(lp1034
S'LINDA'
p1035
a(lp1036
S'but'
p1037
aaa(lp1038
S'JANICE'
p1039
a(lp1040
S'uh'
p1041
aaa(lp1042
g1039
a(lp1043
g112
aS'lot'
p1044
aS'of'
p1045
aS'critics'
p1046
aS'felt'
p1047
aS'that'
p1048
aS'he'
p1049
aS'was'
p1050
aaa(lp1051
g1039
a(lp1052
g6
aS'think'
p1053
aS'maybe'
p1054
aS'Forster'
p1055
aS'wanted'
p1056
aS'him'
p1057
aS'to'
p1058
aS'be'
p1059
aS'that'
p1060
aS'way'
p1061
aaa(lp1062
g1039
a(lp1063
S'and'
p1064
ag6
aS'just'
p1065
aS'didnt'
p1066
aS'look'
p1067
aS'at'
p1068
aS'it'
p1069
aS'that'
p1070
aS'way'
p1071
aaa(lp1072
S'LINDA'
p1073
a(lp1074
S'Mhm'
p1075
aaa(lp1076
S'JANICE'
p1077
a(lp1078
S'when'
p1079
ag6
aS'read'
p1080
aS'about'
p1081
aS'him'
p1082
aaa(lp1083
g1077
a(lp1084
S'But'
p1085
ag6
aS'thought'
p1086
aS'he'
p1087
aS'had'
p1088
ag112
aS'lot'
p1089
aS'of'
p1090
aS'good'
p1091
aS'qualities'
p1092
aaa(lp1093
S'LINDA'
p1094
a(lp1095
S'Did'
p1096
aS'you'
p1097
aS'see'
p1098
aS'some'
p1099
aS'charm'
p1100
aS'there'
p1101
aaa(lp1102
S'JANICE'
p1103
a(lp1104
S'Mhm'
p1105
aaa(lp1106
S'SUE'
p1107
a(lp1108
S'Hm'
p1109
aaa(lp1110
S'X'
p1111
a(lp1112
aa(lp1113
S'LINDA'
p1114
a(lp1115
S'Okay'
p1116
aaa(lp1117
S'JANICE'
p1118
a(lp1119
S'Mhm'
p1120
aaa(lp1121
S'LINDA'
p1122
a(lp1123
S'Hm'
p1124
aaa(lp1125
g1122
a(lp1126
S'This'
p1127
aS'is'
p1128
aS'for'
p1129
aS'the'
p1130
aS'movie'
p1131
aaa(lp1132
g1122
a(lp1133
S'She'
p1134
aS'evidently'
p1135
aS'did'
p1136
aaa(lp1137
g1122
a(lp1138
S'Uhuh'
p1139
aaa(lp1140
S'JANICE'
p1141
a(lp1142
S'Mhm'
p1143
aaa(lp1144
S'LORI'
p1145
a(lp1146
S'Well'
p1147
aS'the'
p1148
aS'book'
p1149
aS'she'
p1150
aS'kept'
p1151
aS'saying'
p1152
aS'he'
p1153
aS'was'
p1154
aS'charming'
p1155
aaa(lp1156
S'DIANE'
p1157
a(lp1158
S'Mhm'
p1159
aaa(lp1160
S'JANICE'
p1161
a(lp1162
S'Well'
p1163
ag6
aS'read'
p1164
aS'the'
p1165
aS'book'
p1166
aS'too'
p1167
aaa(lp1168
S'LORI'
p1169
a(lp1170
g50
ag6
aS'mean'
p1171
aS'he'
p1172
ag50
aaa(lp1173
S'JANICE'
p1174
a(lp1175
S'and'
p1176
ag6
aaa(lp1177
S'LORI'
p1178
a(lp1179
S'he'
p1180
aS'r'
p1181
aaa(lp1182
g1178
a(lp1183
S'he'
p1184
aS'uh'
p1185
aaa(lp1186
g1178
a(lp1187
S'she'
p1188
aS'described'
p1189
aS'him'
p1190
aS'as'
p1191
ag112
aS'charming'
p1192
aaa(lp1193
S'EVELYN'
p1194
a(lp1195
S'mhm'
p1196
aaa(lp1197
S'LORI'
p1198
a(lp1199
S'when'
p1200
aS'she'
p1201
aS'was'
p1202
aS'talking'
p1203
aS'about'
p1204
aS'him'
p1205
aS'to'
p1206
aS'somebody'
p1207
aaa(lp1208
g1198
a(lp1209
S'Helen'
p1210
aS'or'
p1211
aS'th'
p1212
aaa(lp1213
g1198
a(lp1214
S'in'
p1215
aS'her'
p1216
aS'thoughts'
p1217
aS'or'
p1218
aS'something'
p1219
aaa(lp1220
g1198
a(lp1221
S'Margaret'
p1222
aS'said'
p1223
aaa(lp1224
g1198
a(lp1225
S'you'
p1226
aS'know'
p1227
aS'he'
p1228
aaa(lp1229
g1198
a(lp1230
g6
aS'mean'
p1231
aS'Mister'
p1232
aS'Wilcox'
p1233
aS'is'
p1234
ag112
aS'charming'
p1235
aS'man'
p1236
aaa(lp1237
S'EVELYN'
p1238
a(lp1239
S'Hm'
p1240
aaa(lp1241
S'LINDA'
p1242
a(lp1243
S'Yeah'
p1244
aaa(lp1245
S'JANICE'
p1246
a(lp1247
S'Hm'
p1248
aaa(lp1249
g1246
a(lp1250
S'Well'
p1251
aS'as'
p1252
aS'long'
p1253
aS'as'
p1254
aS'things'
p1255
aS'are'
p1256
aS'going'
p1257
aS'his'
p1258
aS'way'
p1259
aaa(lp1260
S'LINDA'
p1261
a(lp1262
g6
aS'guess'
p1263
ag6
aS'couldnt'
p1264
aS'see'
p1265
aS'any'
p1266
aS'charm'
p1267
aaa(lp1268
g1261
a(lp1269
S'Either'
p1270
aS'place'
p1271
aaa(lp1272
S'DIANE'
p1273
a(lp1274
aa(lp1275
S'LINDA'
p1276
a(lp1277
S'and'
p1278
aaa(lp1279
g1276
a(lp1280
S'and'
p1281
ag6
aaa(lp1282
g1276
a(lp1283
g6
aS'guess'
p1284
aS'thats'
p1285
aS'what'
p1286
aS'kept'
p1287
aS'kinda'
p1288
aS's'
p1289
aS'bringing'
p1290
aS'me'
p1291
aS'up'
p1292
aS'short'
p1293
aS'on'
p1294
aaa(lp1295
S'DIANE'
p1296
a(lp1297
aa(lp1298
S'LINDA'
p1299
a(lp1300
S'believing'
p1301
aS'this'
p1302
aS'marriage'
p1303
aaa(lp1304
S'EVELYN'
p1305
a(lp1306
S'after'
p1307
aS'all'
p1308
aaa(lp1309
g1305
a(lp1310
g50
aS'or'
p1311
ag50
aaa(lp1312
g1305
a(lp1313
S'and'
p1314
aS'the'
p1315
aS'times'
p1316
aS'too'
p1317
aaa(lp1318
g1305
a(lp1319
S'Linda'
p1320
aaa(lp1321
g1305
a(lp1322
S'you'
p1323
aS'know'
p1324
aS'nineteen'
p1325
aS'ten'
p1326
aaa(lp1327
S'DIANE'
p1328
a(lp1329
S'Mhm'
p1330
aaa(lp1331
S'EVELYN'
p1332
a(lp1333
S'there'
p1334
aS'wasnt'
p1335
ag112
aS'great'
p1336
aS'deal'
p1337
aS'of'
p1338
aS'opportunity'
p1339
aaa(lp1340
g1332
a(lp1341
S'for'
p1342
ag112
aS'uh'
p1343
aaa(lp1344
S'DIANE'
p1345
a(lp1346
g6
aS'was'
p1347
aS'gonna'
p1348
aS'say'
p1349
aaa(lp1350
g1345
a(lp1351
S'didnt'
p1352
aS'she'
p1353
aS'think'
p1354
aS'she'
p1355
aS'really'
p1356
aS'had'
p1357
aS'to'
p1358
aS'be'
p1359
aS'married'
p1360
aaa(lp1361
S'EVELYN'
p1362
a(lp1363
g6
aS'dont'
p1364
aS'know'
p1365
aaa(lp1366
S'JANICE'
p1367
a(lp1368
aa(lp1369
S'EVELYN'
p1370
a(lp1371
S'but'
p1372
aS'she'
p1373
aaa(lp1374
S'JANICD'
p1375
a(lp1376
S'well'
p1377
aS'the'
p1378
aaa(lp1379
S'LINDA'
p1380
a(lp1381
g6
aS'dont'
p1382
aS'know'
p1383
aaa(lp1384
S'JANICE'
p1385
a(lp1386
S'The'
p1387
aS'thing'
p1388
ag6
aS'didnt'
p1389
aS'understand'
p1390
aS'is'
p1391
aaa(lp1392
S'LINDA'
p1393
a(lp1394
g6
aS'dont'
p1395
aS'know'
p1396
aaa(lp1397
S'JANICE'
p1398
a(lp1399
S'why'
p1400
aS'both'
p1401
aS'families'
p1402
aS'were'
p1403
aS'so'
p1404
aS'against'
p1405
aS'Paul'
p1406
aS'and'
p1407
aS'Helen'
p1408
aaa(lp1409
S'LORI'
p1410
a(lp1411
aa(lp1412
g1410
a(lp1413
S'and'
p1414
aS'then'
p1415
aS'the'
p1416
aS'rest'
p1417
aS'of'
p1418
aS'em'
p1419
ag50
aaa(lp1420
S'JANICE'
p1421
a(lp1422
S'and'
p1423
aS'yen'
p1424
aaa(lp1425
g1421
a(lp1426
S'then'
p1427
aS'Hen'
p1428
aS'Henry'
p1429
aS'and'
p1430
aS'Margaret'
p1431
aS'got'
p1432
aS'married'
p1433
aaa(lp1434
g1421
a(lp1435
S'and'
p1436
aS'there'
p1437
aS'didnt'
p1438
aS'seem'
p1439
aS'to'
p1440
aS'be'
p1441
aS'any'
p1442
aS'dissension'
p1443
aS'there'
p1444
aaa(lp1445
S'LINDA'
p1446
a(lp1447
S'Well'
p1448
aS'the'
p1449
aS'her'
p1450
aaa(lp1451
S'JANICE'
p1452
a(lp1453
S'you'
p1454
aS'know'
p1455
aaa(lp1456
S'LINDA'
p1457
a(lp1458
S'his'
p1459
aS'kids'
p1460
aS'didnt'
p1461
aS'like'
p1462
aS'that'
p1463
aaa(lp1464
S'JANICE'
p1465
a(lp1466
S'No'
p1467
aaa(lp1468
g1465
a(lp1469
S'his'
p1470
aS'kids'
p1471
aS'didnt'
p1472
aS'like'
p1473
aS'it'
p1474
aaa(lp1475
g1465
a(lp1476
S'but'
p1477
aS'Henry'
p1478
aS'was'
p1479
aS'against'
p1480
aaa(lp1481
g1465
a(lp1482
S'XbutX'
p1483
aaa(lp1484
S'SUE'
p1485
a(lp1486
S'But'
p1487
aS'the'
p1488
aaa(lp1489
S'EVELYN'
p1490
a(lp1491
S'well'
p1492
aS'Paul'
p1493
aS'had'
p1494
aS'no'
p1495
aS'future'
p1496
aaa(lp1497
S'SUE'
p1498
a(lp1499
S'but'
p1500
aS'the'
p1501
aaa(lp1502
g1498
a(lp1503
S'Yeah'
p1504
aS'but'
p1505
aS'that'
p1506
aS'was'
p1507
aaa(lp1508
S'EVELYN'
p1509
a(lp1510
S'Y_he'
p1511
aS'had'
p1512
aS'no'
p1513
aS'money'
p1514
aaa(lp1515
S'LINDA'
p1516
a(lp1517
S'Paul'
p1518
aS'hadnt'
p1519
aS'made'
p1520
aS'his'
p1521
aS'money'
p1522
aaa(lp1523
g1516
a(lp1524
S'um'
p1525
aaa(lp1526
S'EVELYN'
p1527
a(lp1528
S'or'
p1529
aS'anything'
p1530
aaa(lp1531
g1527
a(lp1532
S'and'
p1533
aS'uh'
p1534
aaa(lp1535
S'LINDA'
p1536
a(lp1537
S'Yeah'
p1538
aaa(lp1539
S'JANICE'
p1540
a(lp1541
g6
aS'thought'
p1542
aS'it'
p1543
aS'was'
p1544
aS'mainly'
p1545
aS'because'
p1546
aS'of'
p1547
aS'the'
p1548
aS'difference'
p1549
aS'in'
p1550
aS'the'
p1551
aS'families'
p1552
aaa(lp1553
S'NORA'
p1554
a(lp1555
aa(lp1556
S'JANICE'
p1557
a(lp1558
S'though'
p1559
aaa(lp1560
g1557
a(lp1561
S'that'
p1562
aS'they'
p1563
aaa(lp1564
g1557
a(lp1565
S'perhaps'
p1566
ag6
aS'misunderstood'
p1567
aS'that'
p1568
aaa(lp1569
S'LINDA'
p1570
a(lp1571
g6
aS'dont'
p1572
aS'know'
p1573
aaa(lp1574
S'SUE'
p1575
a(lp1576
g6
aaa(lp1577
S'LINDA'
p1578
a(lp1579
g6
aS'dont'
p1580
aS'know'
p1581
aS'that'
p1582
aS'either'
p1583
aaa(lp1584
S'SUE'
p1585
a(lp1586
g6
ag6
aS'agree'
p1587
aS'more'
p1588
aS'with'
p1589
aS'Linda'
p1590
aaa(lp1591
g1585
a(lp1592
S'that'
p1593
aaa(lp1594
g1585
a(lp1595
S'that'
p1596
ag6
aS'think'
p1597
aS'it'
p1598
aS'was'
p1599
ag112
aS'situation'
p1600
aS'where'
p1601
aS'Paul'
p1602
aS'couldnt'
p1603
aS'marry'
p1604
aS'anybody'
p1605
aaa(lp1606
S'LINDA'
p1607
a(lp1608
aa(lp1609
S'SUE'
p1610
a(lp1611
S'because'
p1612
aS'he'
p1613
aS'had'
p1614
aS'to'
p1615
aS'go'
p1616
aS'overseas'
p1617
aaa(lp1618
S'JANICE'
p1619
a(lp1620
S'He'
p1621
aS'didnt'
p1622
aS'have'
p1623
aS'any'
p1624
aS'money'
p1625
aaa(lp1626
S'SUE'
p1627
a(lp1628
S'and'
p1629
aS'make'
p1630
aS'his'
p1631
aS'f'
p1632
aaa(lp1633
g1627
a(lp1634
S'you'
p1635
aS'know'
p1636
aaa(lp1637
g1627
a(lp1638
S'make'
p1639
aS'his'
p1640
aS'way'
p1641
aS'in'
p1642
aS'the'
p1643
aS'world'
p1644
aaa(lp1645
g1627
a(lp1646
S'cause'
p1647
aS'he'
p1648
aS'couldnt'
p1649
aS'support'
p1650
ag112
aS'woman'
p1651
aaa(lp1652
S'JANICE'
p1653
a(lp1654
S'Mhm'
p1655
aaa(lp1656
S'SUE'
p1657
a(lp1658
S'And'
p1659
aaa(lp1660
g1657
a(lp1661
S'and'
p1662
aS'maybe'
p1663
aaa(lp1664
g1657
a(lp1665
S'those'
p1666
aS'families'
p1667
aS'see'
p1668
aaa(lp1669
g1657
a(lp1670
S'rather'
p1671
aS'than'
p1672
aS'the'
p1673
aS'Basts'
p1674
aaa(lp1675
g1657
a(lp1676
S'who'
p1677
aS'would'
p1678
aS'get'
p1679
aS'married'
p1680
aaa(lp1681
g1657
a(lp1682
S'whether'
p1683
aS'they'
p1684
aS'could'
p1685
aS'support'
p1686
aS'somebody'
p1687
aS'or'
p1688
aS'not'
p1689
aaa(lp1690
g1657
a(lp1691
S'they'
p1692
aS'strongly'
p1693
aS'felt'
p1694
aS'that'
p1695
aS'you'
p1696
aS'had'
p1697
aS'to'
p1698
aS'have'
p1699
ag112
aS'certain'
p1700
aS'amount'
p1701
aS'of'
p1702
aS'money'
p1703
aaa(lp1704
g1657
a(lp1705
S'or'
p1706
aaa(lp1707
g1657
a(lp1708
S'or'
p1709
ag112
aS'certain'
p1710
aS'future'
p1711
aS'in'
p1712
aS'order'
p1713
aS'to'
p1714
aaa(lp1715
g1657
a(lp1716
S'end'
p1717
aS'up'
p1718
aaa(lp1719
S'LORI'
p1720
a(lp1721
S'position'
p1722
aaa(lp1723
S'SUE'
p1724
a(lp1725
S'Yeah'
p1726
aaa(lp1727
g1724
a(lp1728
S'Position'
p1729
aS'in'
p1730
aS'order'
p1731
aS'to'
p1732
aS'have'
p1733
ag112
aS'wife'
p1734
aaa(lp1735
S'LORI'
p1736
a(lp1737
S'ready'
p1738
aS'to'
p1739
aS'go'
p1740
aaa(lp1741
S'LINDA'
p1742
a(lp1743
S'Mm'
p1744
aaa(lp1745
g1742
a(lp1746
S'Did'
p1747
aS'Helen'
p1748
aS'not'
p1749
aS'have'
p1750
aS'enough'
p1751
aS'money'
p1752
aS'to'
p1753
aS'support'
p1754
aS'them'
p1755
ag6
aS'wonder'
p1756
aaa(lp1757
S'MANY'
p1758
a(lp1759
aa(lp1760
S'LINDA'
p1761
a(lp1762
S'Why'
p1763
aS'couldnt'
p1764
aS'Helen'
p1765
aS'have'
p1766
aS'just'
p1767
aS'supported'
p1768
aS'them'
p1769
aaa(lp1770
S'SUE'
p1771
a(lp1772
S'Well'
p1773
aaa(lp1774
g1771
a(lp1775
g6
aS'think'
p1776
aS'that'
p1777
aS'that'
p1778
aS'was'
p1779
aaa(lp1780
S'LORI'
p1781
a(lp1782
g50
aS'that'
p1783
aS'wasnt'
p1784
ag50
aaa(lp1785
S'SUE'
p1786
a(lp1787
S'they'
p1788
aaa(lp1789
g1786
a(lp1790
S'they'
p1791
aS'wouldnt'
p1792
aS'have'
p1793
aS'allowed'
p1794
aS'that'
p1795
aaa(lp1796
S'LINDA'
p1797
a(lp1798
S'Thats'
p1799
aS'not'
p1800
ag112
aaa(lp1801
S'LORI'
p1802
a(lp1803
S'The'
p1804
aS'Wilcoxes'
p1805
aS'wouldnt'
p1806
ag50
aS'have'
p1807
ag50
aaa(lp1808
S'SUE'
p1809
a(lp1810
S'That'
p1811
aS'wouldnt'
p1812
aS'have'
p1813
aS'been'
p1814
aS'alright'
p1815
aaa(lp1816
S'LORI'
p1817
a(lp1818
S'Look'
p1819
aS'at'
p1820
aS'Missis'
p1821
aS'Wilcox'
p1822
aS'XX'
p1823
aaa(lp1824
S'SUE'
p1825
a(lp1826
S'according'
p1827
aS'to'
p1828
aS'the'
p1829
aS'Wilcoxes'
p1830
aaa(lp1831
S'EVELYN'
p1832
a(lp1833
S'the'
p1834
aS'the'
p1835
aS'the'
p1836
aaa(lp1837
g1832
a(lp1838
S'their'
p1839
aS'code'
p1840
aS'of'
p1841
aS'honor'
p1842
aaa(lp1843
g1832
a(lp1844
S'Remember'
p1845
aaa(lp1846
g1832
a(lp1847
S'the'
p1848
aS'uh'
p1849
aaa(lp1850
S'SUE'
p1851
a(lp1852
S'Yeah'
p1853
aaa(lp1854
S'EVELYN'
p1855
a(lp1856
S'strong'
p1857
aS'English'
p1858
aS'honor'
p1859
aaa(lp1860
g1855
a(lp1861
S'that'
p1862
aS'they'
p1863
aS'uh'
p1864
aaa(lp1865
g1855
a(lp1866
S'that'
p1867
aS'Charles'
p1868
aS'had'
p1869
aS'to'
p1870
aS'defend'
p1871
aaa(lp1872
S'PATTY'
p1873
a(lp1874
g50
aS'men'
p1875
aS'would'
p1876
aS'take'
p1877
aS'care'
p1878
aS'of'
p1879
aS'them'
p1880
ag50
aaa(lp1881
S'EVELYN'
p1882
a(lp1883
S'You'
p1884
aS'know'
p1885
aaa(lp1886
S'PATTY'
p1887
a(lp1888
S'Right'
p1889
aaa(lp1890
S'KIM'
p1891
a(lp1892
aa(lp1893
S'DIANE'
p1894
a(lp1895
S'Except'
p1896
aS'in'
p1897
aS'Out'
p1898
aS'of'
p1899
aS'Africa'
p1900
aaa(lp1901
S'KIM'
p1902
a(lp1903
S'when'
p1904
aS'uh'
p1905
aS'Margaret'
p1906
aS'uh'
p1907
aaa(lp1908
g1902
a(lp1909
S'when'
p1910
aS'Margaret'
p1911
aS'married'
p1912
aS'uh'
p1913
aS'Mister'
p1914
aS'Wilcox'
p1915
aaa(lp1916
S'DIANE'
p1917
a(lp1918
S'which'
p1919
aS'is'
p1920
aS'about'
p1921
aS'the'
p1922
aS'same'
p1923
aS'time'
p1924
aaa(lp1925
S'LINDA'
p1926
a(lp1927
aa(lp1928
S'X'
p1929
a(lp1930
S'Mhm'
p1931
aaa(lp1932
S'PATTY'
p1933
a(lp1934
S'Mhm'
p1935
aaa(lp1936
S'KIM'
p1937
a(lp1938
S'What'
p1939
aaa(lp1940
g1937
a(lp1941
S'uh'
p1942
aS'did'
p1943
aS'uh'
p1944
aaa(lp1945
g1937
a(lp1946
S'it'
p1947
aS'seems'
p1948
aS'to'
p1949
aS'me'
p1950
aS'XX'
p1951
aS'in'
p1952
aS'the'
p1953
aS'movie'
p1954
aaa(lp1955
g1937
a(lp1956
S'they'
p1957
aS'were'
p1958
aS'looking'
p1959
aS'at'
p1960
aS'this'
p1961
aS'big'
p1962
aS'house'
p1963
aaa(lp1964
g1937
a(lp1965
S'interior'
p1966
aS'of'
p1967
aS'this'
p1968
aS'big'
p1969
aS'house'
p1970
aaa(lp1971
g1937
a(lp1972
S'did'
p1973
aS'they'
p1974
aS'move'
p1975
aS'to'
p1976
ag112
aS'big'
p1977
aS'house'
p1978
aaa(lp1979
g1937
a(lp1980
S'Where'
p1981
aS'did'
p1982
aS'they'
p1983
aS'live'
p1984
aaa(lp1985
S'JANICE'
p1986
a(lp1987
g6
aS'think'
p1988
aS'they'
p1989
aS'lived'
p1990
aS'in'
p1991
aS'the'
p1992
aS'big'
p1993
aS'house'
p1994
aaa(lp1995
S'KIM'
p1996
a(lp1997
S'they'
p1998
aS'did'
p1999
aS'live'
p2000
aS'in'
p2001
aS'the'
p2002
aS'big'
p2003
aS'house'
p2004
aaa(lp2005
S'JANICE'
p2006
a(lp2007
S'they'
p2008
aS'ended'
p2009
aS'up'
p2010
aS'living'
p2011
aS'in'
p2012
aS'Howards'
p2013
aS'End'
p2014
aaa(lp2015
S'LINDA'
p2016
a(lp2017
S'for'
p2018
ag112
aS'while'
p2019
aaa(lp2020
S'JANICE'
p2021
a(lp2022
S'didnt'
p2023
aS'they'
p2024
aaa(lp2025
S'PATTY'
p2026
a(lp2027
S'No'
p2028
aaa(lp2029
S'LINDA'
p2030
a(lp2031
S'Yeahl'
p2032
aaa(lp2033
g2030
a(lp2034
S'at'
p2035
aS'the'
p2036
aS'end'
p2037
aaa(lp2038
g2030
a(lp2039
S'They'
p2040
aS'were'
p2041
aS'in'
p2042
aS'Howards'
p2043
aS'End'
p2044
aaa(lp2045
S'LORI'
p2046
a(lp2047
S'Who'
p2048
aS'was'
p2049
aS'at'
p2050
aS'Howards'
p2051
aS'End'
p2052
aS'at'
p2053
aS'the'
p2054
aS'end'
p2055
aaa(lp2056
g2046
a(lp2057
g6
aS'thought'
p2058
aS'it'
p2059
aS'was'
p2060
aS'Helen'
p2061
aS'and'
p2062
aS'the'
p2063
aS'little'
p2064
aS'boy'
p2065
aaa(lp2066
S'LINDA'
p2067
a(lp2068
S'No'
p2069
aaa(lp2070
g2067
a(lp2071
S'all'
p2072
aS'of'
p2073
aS'em'
p2074
aS'were'
p2075
aS'at'
p2076
aS'Howards'
p2077
aS'End'
p2078
aaa(lp2079
S'JANICE'
p2080
a(lp2081
g6
aS'thought'
p2082
aS'all'
p2083
aS'of'
p2084
aS'em'
p2085
aaa(lp2086
S'DIANE'
p2087
a(lp2088
S'XXXX'
p2089
aaa(lp2090
S'LORI'
p2091
a(lp2092
S'they'
p2093
aS'all'
p2094
aS'lived'
p2095
aS'in'
p2096
aS'Howards'
p2097
aS'End'
p2098
aaa(lp2099
S'LINDA'
p2100
a(lp2101
S'Henry'
p2102
aaa(lp2103
g2100
a(lp2104
S'Margaret'
p2105
aaa(lp2106
S'DIANE'
p2107
a(lp2108
g50
aS'Buffalo'
p2109
ag50
aaa(lp2110
S'LINDA'
p2111
a(lp2112
S'Helen'
p2113
aaa(lp2114
g2111
a(lp2115
S'they'
p2116
aS'were'
p2117
aS'all'
p2118
aS'one'
p2119
aS'big'
p2120
aS'happy'
p2121
aS'family'
p2122
aaa(lp2123
S'LORI'
p2124
a(lp2125
g50
aS'whole'
p2126
aS'family'
p2127
ag50
aaa(lp2128
S'PATTY'
p2129
a(lp2130
S'Oh'
p2131
aS'my'
p2132
aS'God'
p2133
aaa(lp2134
S'LINDA'
p2135
a(lp2136
aa(lp2137
S'KIM'
p2138
a(lp2139
S'W'
p2140
aS'when'
p2141
aS'uh'
p2142
aaa(lp2143
S'JANICE'
p2144
a(lp2145
S'That'
p2146
aS'was'
p2147
aS'kind'
p2148
aS'of'
p2149
aS'unbelievable'
p2150
aaa(lp2151
g2144
a(lp2152
S'wasnt'
p2153
aS'it'
p2154
aaa(lp2155
S'LINDA'
p2156
a(lp2157
aa(lp2158
S'PATTY'
p2159
a(lp2160
S'Tell'
p2161
aS'me'
p2162
aS'another'
p2163
aS'one'
p2164
aaa(lp2165
S'EVELYN'
p2166
a(lp2167
S'and'
p2168
aS'Margaret'
p2169
aS'brought'
p2170
aS'em'
p2171
aS'all'
p2172
aS'together'
p2173
aaa(lp2174
S'LINDA'
p2175
a(lp2176
S'Well'
p2177
aaa(lp2178
S'KIM'
p2179
a(lp2180
S'and'
p2181
aS'when'
p2182
aS'they'
p2183
aS'married'
p2184
aaa(lp2185
S'LINDA'
p2186
a(lp2187
S'and'
p2188
aS'the'
p2189
aS'other'
p2190
aS'thing'
p2191
aaa(lp2192
S'KIM'
p2193
a(lp2194
S'and'
p2195
aS'when'
p2196
aS'uh'
p2197
aS'they'
p2198
aS'married'
p2199
aaa(lp2200
g2193
a(lp2201
S'did'
p2202
aS'uh'
p2203
aaa(lp2204
g2193
a(lp2205
S'uh'
p2206
aS'what'
p2207
aS'was'
p2208
aS'his'
p2209
aS'name'
p2210
aaa(lp2211
g2193
a(lp2212
S'the'
p2213
aS'uh'
p2214
aS'wimpy'
p2215
aS'little'
p2216
aS'son'
p2217
aaa(lp2218
S'X'
p2219
a(lp2220
S'Tibby'
p2221
aaa(lp2222
S'KIM'
p2223
a(lp2224
S'the'
p2225
aS'bro'
p2226
aaa(lp2227
S'SUE'
p2228
a(lp2229
S'Tibby'
p2230
aaa(lp2231
S'KIM'
p2232
a(lp2233
S'did'
p2234
aS'Tibby'
p2235
aaa(lp2236
g2232
a(lp2237
S'and'
p2238
aS'the'
p2239
aS'young'
p2240
aS'girl'
p2241
aS'come'
p2242
aS'and'
p2243
aS'live'
p2244
aS'with'
p2245
aS'them'
p2246
aaa(lp2247
S'LINDA'
p2248
a(lp2249
S'Tibby'
p2250
aaa(lp2251
S'JANICE'
p2252
a(lp2253
g6
aS'dont'
p2254
aS'know'
p2255
aS'what'
p2256
aS'happened'
p2257
aS'to'
p2258
aS'Tibby'
p2259
aaa(lp2260
S'LINDA'
p2261
a(lp2262
S'Tibby'
p2263
aS'was'
p2264
aaa(lp2265
S'JANICE'
p2266
a(lp2267
g6
aS'dont'
p2268
aS'remember'
p2269
aS'from'
p2270
aS'the'
p2271
aS'book'
p2272
aaa(lp2273
S'SUE'
p2274
a(lp2275
S'Well'
p2276
aaa(lp2277
S'LINDA'
p2278
a(lp2279
S'Tibby'
p2280
aS'wasnt'
p2281
aS'there'
p2282
aaa(lp2283
S'SUE'
p2284
a(lp2285
S'When'
p2286
aS'when'
p2287
aS'he'
p2288
aS'they'
p2289
aaa(lp2290
g2284
a(lp2291
S'at'
p2292
aS'the'
p2293
aS'wedding'
p2294
aaa(lp2295
g2284
a(lp2296
S'see'
p2297
aaa(lp2298
g2284
a(lp2299
S'is'
p2300
aS'when'
p2301
aS'Helen'
p2302
aaa(lp2303
g2284
a(lp2304
S'uh'
p2305
aaa(lp2306
g2284
a(lp2307
S'conceived'
p2308
aaa(lp2309
g2284
a(lp2310
S'and'
p2311
aS'so'
p2312
aS'then'
p2313
aaa(lp2314
g2284
a(lp2315
S'shortly'
p2316
aS'thereafter'
p2317
aaa(lp2318
g2284
a(lp2319
S'she'
p2320
aS'me'
p2321
aS'went'
p2322
aS'away'
p2323
aaa(lp2324
g2284
a(lp2325
S'She'
p2326
aS'went'
p2327
aS'to'
p2328
aS'like'
p2329
aaa(lp2330
g2284
a(lp2331
S'Germany'
p2332
aaa(lp2333
S'JANICE'
p2334
a(lp2335
S'Germany'
p2336
aaa(lp2337
S'SUE'
p2338
a(lp2339
S'or'
p2340
aS'some'
p2341
aS'place'
p2342
aS'like'
p2343
aS'that'
p2344
aaa(lp2345
g2338
a(lp2346
S'And'
p2347
aS'she'
p2348
aS'stayed'
p2349
aS'in'
p2350
aS'Germany'
p2351
aaa(lp2352
S'LORI'
p2353
a(lp2354
S'Okay'
p2355
aaa(lp2356
S'LINDA'
p2357
a(lp2358
S'Oh'
p2359
aaa(lp2360
S'SUE'
p2361
a(lp2362
g50
aS'until'
p2363
ag50
aaa(lp2364
S'LORI'
p2365
a(lp2366
g50
aS'friend'
p2367
aS'of'
p2368
ag659
ag50
aaa(lp2369
S'JANICE'
p2370
a(lp2371
S'but'
p2372
aS'that'
p2373
aS'wasnt'
p2374
aS'Margarets'
p2375
aS'wedding'
p2376
aaa(lp2377
g2370
a(lp2378
S'that'
p2379
aS'was'
p2380
aS'Evies'
p2381
aS'wedding'
p2382
aaa(lp2383
g2370
a(lp2384
S'That'
p2385
aS'was'
p2386
aS'before'
p2387
aS'they'
p2388
aS'got'
p2389
aS'married'
p2390
aaa(lp2391
S'SUE'
p2392
a(lp2393
S'Okay'
p2394
aaa(lp2395
S'LINDA'
p2396
a(lp2397
S'Yeah'
p2398
aaa(lp2399
g2396
a(lp2400
S'Thats'
p2401
aS'right'
p2402
aaa(lp2403
S'SUE'
p2404
a(lp2405
S'That'
p2406
aS'was'
p2407
aS'before'
p2408
aS'Margaret'
p2409
aS'even'
p2410
aS'got'
p2411
aS'married'
p2412
aaa(lp2413
S'LINDA'
p2414
a(lp2415
S'Right'
p2416
aaa(lp2417
S'SUE'
p2418
a(lp2419
S'So'
p2420
aS'by'
p2421
aS'the'
p2422
aS'time'
p2423
aS'Margaret'
p2424
aS'gets'
p2425
aS'married'
p2426
aaa(lp2427
S'JANICE'
p2428
a(lp2429
aa(lp2430
g2428
a(lp2431
S'Maybe'
p2432
aS'they'
p2433
aS'didnt'
p2434
ag50
aS'live'
p2435
aS'there'
p2436
aS'the'
p2437
aS'whole'
p2438
aS'time'
p2439
ag50
aaa(lp2440
S'SUE'
p2441
a(lp2442
S'Helens'
p2443
aS'pregnant'
p2444
aaa(lp2445
g2441
a(lp2446
S'and'
p2447
aS'shes'
p2448
aS'away'
p2449
aS'somewhere'
p2450
aaa(lp2451
S'PATTY'
p2452
a(lp2453
S'Tibby'
p2454
aS'was'
p2455
aS'gone'
p2456
aaa(lp2457
S'SUE'
p2458
a(lp2459
S'because'
p2460
aS'she'
p2461
aS'isnt'
p2462
aaa(lp2463
S'EVELYN'
p2464
a(lp2465
S'Yeah'
p2466
aaa(lp2467
S'SUE'
p2468
a(lp2469
S'Shes'
p2470
aS'hiding'
p2471
aaa(lp2472
S'JANICE'
p2473
a(lp2474
aa(lp2475
g2473
a(lp2476
g6
aS'see'
p2477
aaa(lp2478
S'SUE'
p2479
a(lp2480
S'Essentially'
p2481
aaa(lp2482
S'DIANE'
p2483
a(lp2484
aa(lp2485
S'LOIS'
p2486
a(lp2487
S'Isnt'
p2488
aS'it'
p2489
aS'also'
p2490
aS'basically'
p2491
ag112
aS'womans'
p2492
aaa(lp2493
g2486
a(lp2494
S'the'
p2495
aS'women'
p2496
aS'are'
p2497
aS'much'
p2498
aS'more'
p2499
aS'developed'
p2500
aS'characters'
p2501
aS'than'
p2502
aS'the'
p2503
aS'men'
p2504
aaa(lp2505
S'JANICE'
p2506
a(lp2507
aa(lp2508
S'LOIS'
p2509
a(lp2510
S'And'
p2511
aS'the'
p2512
aS'men'
p2513
aS'tend'
p2514
aS'to'
p2515
aS'be'
p2516
aaa(lp2517
S'LINDA'
p2518
a(lp2519
S'Mhm'
p2520
aaa(lp2521
S'LOIS'
p2522
a(lp2523
S'not'
p2524
aS'such'
p2525
aS'good'
p2526
aS'people'
p2527
aaa(lp2528
S'LINDA'
p2529
a(lp2530
S'Yeah'
p2531
aaa(lp2532
g2529
a(lp2533
g6
aS'think'
p2534
aS'so'
p2535
aaa(lp2536
S'KIM'
p2537
a(lp2538
S'Isnt'
p2539
aS'that'
p2540
aS'interesting'
p2541
aaa(lp2542
S'PATTY'
p2543
a(lp2544
S'Weak'
p2545
aaa(lp2546
S'KIM'
p2547
a(lp2548
S'an'
p2549
aaa(lp2550
g2547
a(lp2551
S'that'
p2552
aS'he'
p2553
aS'would'
p2554
aS'write'
p2555
aS'that'
p2556
aS'way'
p2557
aS'if'
p2558
aS'he'
p2559
aS'was'
p2560
ag112
aS'homosexual'
p2561
aaa(lp2562
S'DIANE'
p2563
a(lp2564
S'Except'
p2565
aS'he'
p2566
aS'was'
p2567
aS'raised'
p2568
aS'by'
p2569
aS'his'
p2570
aS'mother'
p2571
aaa(lp2572
S'LOIS'
p2573
a(lp2574
g50
ag6
aS'dont'
p2575
aS'know'
p2576
aS'that'
p2577
ag50
aS'everybody'
p2578
aS'agrees'
p2579
aS'with'
p2580
aS'that'
p2581
aaa(lp2582
S'DIANE'
p2583
a(lp2584
S'and'
p2585
aaa(lp2586
S'LOIS'
p2587
a(lp2588
S'but'
p2589
aaa(lp2590
S'DIANE'
p2591
a(lp2592
S'aunt'
p2593
aS'and'
p2594
aS'so'
p2595
aS'on'
p2596
aaa(lp2597
S'LORI'
p2598
a(lp2599
S'Yeah'
p2600
aaa(lp2601
g2598
a(lp2602
S'so'
p2603
aS'the'
p2604
aS'the'
p2605
aS'mo'
p2606
aaa(lp2607
S'KIM'
p2608
a(lp2609
g50
aS'pardon'
p2610
ag50
aaa(lp2611
S'LORI'
p2612
a(lp2613
S'the'
p2614
aS'mothers'
p2615
aS'have'
p2616
aS'always'
p2617
aS'been'
p2618
aS'uh'
p2619
aaa(lp2620
g2612
a(lp2621
S'women'
p2622
aS'figures'
p2623
aS'in'
p2624
aS'his'
p2625
aS'life'
p2626
aS'were'
p2627
aS'so'
p2628
aS'strong'
p2629
aS'obviously'
p2630
aaa(lp2631
S'EVELYN'
p2632
a(lp2633
S'Mhm'
p2634
aaa(lp2635
S'KIM'
p2636
a(lp2637
S'Bu'
p2638
aS'but'
p2639
aS'but'
p2640
aS'the'
p2641
aS'fellow'
p2642
aaa(lp2643
S'LORI'
p2644
a(lp2645
g50
aS'isnt'
p2646
aS'that'
p2647
aS'what'
p2648
aS'youre'
p2649
aS'saying'
p2650
ag50
aaa(lp2651
S'KIM'
p2652
a(lp2653
S'Tibby'
p2654
aaa(lp2655
g2652
a(lp2656
S'is'
p2657
aaa(lp2658
g2652
a(lp2659
S'was'
p2660
aS'isnt'
p2661
aS'that'
p2662
aS'is'
p2663
aS'name'
p2664
aaa(lp2665
g2652
a(lp2666
S'He'
p2667
aS'but'
p2668
aS'he'
p2669
aS'was'
p2670
aS'such'
p2671
ag112
aS'wimpy'
p2672
aaa(lp2673
S'NANCY'
p2674
a(lp2675
S'Mhm'
p2676
aaa(lp2677
g2674
a(lp2678
S'sure'
p2679
aaa(lp2680
S'KIM'
p2681
a(lp2682
S'physically'
p2683
aS'weak'
p2684
aaa(lp2685
g2681
a(lp2686
S'uh'
p2687
aS'person'
p2688
aaa(lp2689
g2681
a(lp2690
S'Uh'
p2691
aaa(lp2692
S'EVELYN'
p2693
a(lp2694
S'they'
p2695
aS'all'
p2696
aS'had'
p2697
aS'asthma'
p2698
aaa(lp2699
S'LORI'
p2700
a(lp2701
g50
ag6
aS'wouldnt'
p2702
aS'know'
p2703
aS'who'
p2704
aaa(lp2705
g2700
a(lp2706
S'they'
p2707
aS'always'
p2708
aaa(lp2709
S'X'
p2710
a(lp2711
S'Hm'
p2712
aaa(lp2713
S'EVELYN'
p2714
a(lp2715
S'and'
p2716
aS'uh'
p2717
aaa(lp2718
S'LORI'
p2719
a(lp2720
S'and'
p2721
aS'Paul'
p2722
aS'wasnt'
p2723
aaa(lp2724
S'EVELYN'
p2725
a(lp2726
S'even'
p2727
aS'living'
p2728
aS'on'
p2729
aS'the'
p2730
aS'farm'
p2731
aaa(lp2732
g2725
a(lp2733
S'they'
p2734
aS'all'
p2735
aS'had'
p2736
aS'uh'
p2737
aaa(lp2738
S'LORI'
p2739
a(lp2740
S'Hm'
p2741
aaa(lp2742
g2739
a(lp2743
S'even'
p2744
aS'Charles'
p2745
aS'wasnt'
p2746
aaa(lp2747
S'PATTY'
p2748
a(lp2749
S'Diane'
p2750
aaa(lp2751
S'EVELYN'
p2752
a(lp2753
S'what'
p2754
aS'was'
p2755
aS'it'
p2756
aaa(lp2757
g2752
a(lp2758
S'hay'
p2759
aS'fever'
p2760
aaa(lp2761
g2752
a(lp2762
S'or'
p2763
aS'asthma'
p2764
aS'or'
p2765
aS'something'
p2766
aaa(lp2767
S'X'
p2768
a(lp2769
S'XXXXX'
p2770
aaa(lp2771
S'LINDA'
p2772
a(lp2773
S'Yes'
p2774
aaa(lp2775
S'PATTY'
p2776
a(lp2777
S'Diane'
p2778
aS'started'
p2779
aS'to'
p2780
aS'say'
p2781
aS'something'
p2782
aS'about'
p2783
aS'Out'
p2784
aS'of'
p2785
aS'Africa'
p2786
aaa(lp2787
S'LINDA'
p2788
a(lp2789
S'Yes'
p2790
aaa(lp2791
S'DIANE'
p2792
a(lp2793
S'Well'
p2794
aaa(lp2795
g2792
a(lp2796
S'youre'
p2797
aS'talking'
p2798
aS'about'
p2799
aS'the'
p2800
aS'woman'
p2801
aS'having'
p2802
aS'the'
p2803
aS'money'
p2804
aaa(lp2805
g2792
a(lp2806
S'and'
p2807
aS'why'
p2808
aS'th'
p2809
aS'm'
p2810
ag112
aS'man'
p2811
aS'couldnt'
p2812
aaa(lp2813
S'LINDA'
p2814
a(lp2815
S'Mhm'
p2816
aaa(lp2817
g2814
a(lp2818
S'Mhm'
p2819
aaa(lp2820
S'LORI'
p2821
a(lp2822
S'Marry'
p2823
aS'her'
p2824
aaa(lp2825
S'DIANE'
p2826
a(lp2827
S'marry'
p2828
aS'the'
p2829
aaa(lp2830
S'LINDA'
p2831
a(lp2832
S'Mhm'
p2833
aaa(lp2834
S'DIANE'
p2835
a(lp2836
S'y'
p2837
aS'yeah'
p2838
aaa(lp2839
g2835
a(lp2840
S'in'
p2841
aS'Out'
p2842
aS'of'
p2843
aS'Africa'
p2844
aaa(lp2845
g2835
a(lp2846
g6
aS'think'
p2847
aaa(lp2848
g2835
a(lp2849
S'is'
p2850
aS'about'
p2851
aS'this'
p2852
aS'same'
p2853
aS'time'
p2854
aS'period'
p2855
aaa(lp2856
g2835
a(lp2857
S'Or'
p2858
aS'may'
p2859
aS'well'
p2860
aS'maybe'
p2861
aS'its'
p2862
ag1289
aS'second'
p2863
aS'world'
p2864
aS'war'
p2865
aaa(lp2866
g2835
a(lp2867
S'But'
p2868
aS'Isak'
p2869
aS'Dinesen'
p2870
aaa(lp2871
S'LORI'
p2872
a(lp2873
S'later'
p2874
aaa(lp2875
S'DIANE'
p2876
a(lp2877
S'the'
p2878
aS'heroine'
p2879
aS'of'
p2880
aS'out'
p2881
aS'of'
p2882
aS'Africa'
p2883
aS'is'
p2884
aS'Danish'
p2885
aaa(lp2886
g2876
a(lp2887
S'but'
p2888
aS'shes'
p2889
aS'the'
p2890
aS'one'
p2891
aS'with'
p2892
aS'money'
p2893
aaa(lp2894
g2876
a(lp2895
S'and'
p2896
aS'she'
p2897
aS'ends'
p2898
aS'up'
p2899
aaa(lp2900
g2876
a(lp2901
g112
aaa(lp2902
g2876
a(lp2903
S'the'
p2904
aS'brother'
p2905
aS'of'
p2906
aS'the'
p2907
aS'person'
p2908
aS'that'
p2909
aS'shes'
p2910
aS'in'
p2911
aS'love'
p2912
aS'with'
p2913
aS'marries'
p2914
aS'her'
p2915
aaa(lp2916
S'LINDA'
p2917
a(lp2918
S'Yeah'
p2919
aaa(lp2920
g2917
a(lp2921
S'yeah'
p2922
aaa(lp2923
S'DIANE'
p2924
a(lp2925
S'because'
p2926
aS'he'
p2927
aS'has'
p2928
aS'no'
p2929
aS'money'
p2930
aaa(lp2931
g2924
a(lp2932
S'no'
p2933
aS'family'
p2934
aS'money'
p2935
aaa(lp2936
g2924
a(lp2937
S'but'
p2938
aS'she'
p2939
aS'has'
p2940
aS'money'
p2941
aaa(lp2942
g2924
a(lp2943
S'and'
p2944
aS'she'
p2945
aS'has'
p2946
aS'no'
p2947
aS'way'
p2948
aS'to'
p2949
aS'get'
p2950
ag112
aS'husband'
p2951
aaa(lp2952
g2924
a(lp2953
S'so'
p2954
aS'they'
p2955
aS'agree'
p2956
aS'to'
p2957
aS'get'
p2958
aS'married'
p2959
aaa(lp2960
g2924
a(lp2961
S'because'
p2962
aS'he'
p2963
aS'will'
p2964
aS'then'
p2965
aS'have'
p2966
aS'access'
p2967
aS'to'
p2968
aS'her'
p2969
aS'money'
p2970
aS'and'
p2971
aS'title'
p2972
aaa(lp2973
g2924
a(lp2974
S'and'
p2975
aS'shell'
p2976
aS'have'
p2977
ag112
aS'husband'
p2978
aaa(lp2979
g2924
a(lp2980
S'So'
p2981
aS'it'
p2982
aS'was'
p2983
aS'done'
p2984
aaa(lp2985
g2924
a(lp2986
S'my'
p2987
aS'point'
p2988
aS'of'
p2989
aS'all'
p2990
aS'that'
p2991
aS'was'
p2992
aaa(lp2993
S'X'
p2994
a(lp2995
aa(lp2996
S'DIANE'
p2997
a(lp2998
S'that'
p2999
aS'it'
p3000
aS'was'
p3001
aS'sometimes'
p3002
aS'done'
p3003
aaa(lp3004
g2997
a(lp3005
S'that'
p3006
ag112
aS'woman'
p3007
aS'of'
p3008
aS'means'
p3009
aaa(lp3010
g2997
a(lp3011
S'married'
p3012
ag112
aS'man'
p3013
aS'of'
p3014
aS'no'
p3015
aS'means'
p3016
aaa(lp3017
g2997
a(lp3018
S'as'
p3019
aS'uh'
p3020
aaa(lp3021
g2997
a(lp3022
S'an'
p3023
aS'arrangement'
p3024
aS'for'
p3025
aS'what'
p3026
aS'ever'
p3027
aS'reason'
p3028
aaa(lp3029
S'LINDA'
p3030
a(lp3031
S'Yeah'
p3032
ag6
aaa(lp3033
S'DIANE'
p3034
a(lp3035
S'and'
p3036
aS'so'
p3037
aS'it'
p3038
aS'could'
p3039
aS'have'
p3040
aS'been'
p3041
aS'that'
p3042
aS'this'
p3043
aaa(lp3044
S'LINDA'
p3045
a(lp3046
g6
aS'guess'
p3047
aaa(lp3048
S'DIANE'
p3049
a(lp3050
S'that'
p3051
aS'her'
p3052
aS'money'
p3053
aS'could'
p3054
aS'have'
p3055
aS'been'
p3056
aS'the'
p3057
ag1289
aS'source'
p3058
aS'of'
p3059
aS'marriage'
p3060
aS'if'
p3061
aS'theyd'
p3062
aS'wanted'
p3063
aS'it'
p3064
aS'to'
p3065
aS'be'
p3066
aaa(lp3067
S'LINDA'
p3068
a(lp3069
S'Thats'
p3070
aS'to'
p3071
aS'me'
p3072
aS'uh'
p3073
aS'uh'
p3074
aaa(lp3075
g3068
a(lp3076
S'kind'
p3077
aS'of'
p3078
ag112
ag2810
aaa(lp3079
g3068
a(lp3080
S'not'
p3081
aS'taken'
p3082
aS'care'
p3083
aS'of'
p3084
aaa(lp3085
g3068
a(lp3086
S'very'
p3087
aS'well'
p3088
aS'in'
p3089
aS'the'
p3090
aS'book'
p3091
aaa(lp3092
g3068
a(lp3093
g6
ag6
aS'guess'
p3094
ag6
aS'dont'
p3095
aS'know'
p3096
aS'why'
p3097
aS'they'
p3098
aS'didnt'
p3099
aaa(lp3100
S'DIANE'
p3101
a(lp3102
S'Yeah'
p3103
aaa(lp3104
S'LINDA'
p3105
a(lp3106
S'why'
p3107
aS'that'
p3108
aS'was'
p3109
aS'such'
p3110
ag112
aS'no'
p3111
aS'no'
p3112
aaa(lp3113
S'DIANE'
p3114
a(lp3115
S'And'
p3116
ag6
aS'didnt'
p3117
aS'realize'
p3118
aS'Forster'
p3119
aS'grew'
p3120
aS'up'
p3121
aS'with'
p3122
aS'money'
p3123
aaa(lp3124
g3114
a(lp3125
S'That'
p3126
aS'sort'
p3127
aS'of'
p3128
aS'mixed'
p3129
aS'me'
p3130
aS'all'
p3131
aS'up'
p3132
aS'now'
p3133
aS'too'
p3134
aaa(lp3135
g3114
a(lp3136
S'because'
p3137
aaa(lp3138
S'LINDA'
p3139
a(lp3140
S'Mhm'
p3141
aaa(lp3142
S'DIANE'
p3143
a(lp3144
S'it'
p3145
aS'sounded'
p3146
aS'to'
p3147
aS'me'
p3148
aS'like'
p3149
aS'he'
p3150
aS'hadnt'
p3151
aS'and'
p3152
aaa(lp3153
S'LINDA'
p3154
a(lp3155
S'Mhm'
p3156
aaa(lp3157
S'DIANE'
p3158
a(lp3159
g50
aS'yeah'
p3160
ag50
aaa(lp3161
g3158
a(lp3162
g6
aS'have'
p3163
ag112
aS'question'
p3164
aS'about'
p3165
aS'England'
p3166
aS'in'
p3167
aS'nineteen'
p3168
aS'ten'
p3169
aaa(lp3170
g3158
a(lp3171
S'too'
p3172
aaa(lp3173
g3158
a(lp3174
S'Which'
p3175
aS'shows'
p3176
aS'that'
p3177
aS'my'
p3178
aS'lack'
p3179
aS'of'
p3180
aS'history'
p3181
aaa(lp3182
g3158
a(lp3183
S'Was'
p3184
aS'England'
p3185
aS'the'
p3186
aS'strong'
p3187
aS'world'
p3188
aS'power'
p3189
aS'in'
p3190
aS'nineteen'
p3191
aS'ten'
p3192
aaa(lp3193
g3158
a(lp3194
S'still'
p3195
aaa(lp3196
g3158
a(lp3197
S'The'
p3198
aS'w'
p3199
aS'empire'
p3200
aaa(lp3201
g3158
a(lp3202
S'English'
p3203
aaa(lp3204
g3158
a(lp3205
S'the'
p3206
aS'sun'
p3207
aS'never'
p3208
aS'sets'
p3209
aS'on'
p3210
aS'the'
p3211
aS'English'
p3212
aS'empire'
p3213
aaa(lp3214
S'EVELYN'
p3215
a(lp3216
S'Tha'
p3217
aS'that'
p3218
aS'was'
p3219
aS'where'
p3220
aS'uh'
p3221
aaa(lp3222
S'LINDA'
p3223
a(lp3224
S'Mhm'
p3225
aaa(lp3226
S'EVELYN'
p3227
a(lp3228
g112
ag112
aS'Wilcox'
p3229
aS'made'
p3230
aS'his'
p3231
aS'money'
p3232
aaa(lp3233
g3227
a(lp3234
S'Wasnt'
p3235
aS'it'
p3236
aaa(lp3237
g3227
a(lp3238
S'In'
p3239
ag1289
aaa(lp3240
g3227
a(lp3241
S'what'
p3242
aS'was'
p3243
aS'it'
p3244
aaa(lp3245
g3227
a(lp3246
S'Some'
p3247
aS'kind'
p3248
aS'of'
p3249
aS'trade'
p3250
aS'in'
p3251
aS'uh'
p3252
aaa(lp3253
g3227
a(lp3254
g6
aS'g'
p3255
aS'Ive'
p3256
aS'forgotten'
p3257
aS'what'
p3258
aS'it'
p3259
aS'was'
p3260
aaa(lp3261
S'LINDA'
p3262
a(lp3263
S'Hm'
p3264
aaa(lp3265
S'EVELYN'
p3266
a(lp3267
S'Uh'
p3268
aS'was'
p3269
aS'it'
p3270
aaa(lp3271
S'JANICE'
p3272
a(lp3273
S'he'
p3274
aS'had'
p3275
aaa(lp3276
g3272
a(lp3277
g6
aS'think'
p3278
aS'he'
p3279
aS'had'
p3280
aS'rubber'
p3281
aS'tr'
p3282
aS'plantations'
p3283
aaa(lp3284
S'EVELYN'
p3285
a(lp3286
S'rubber'
p3287
aS'plantations'
p3288
aaa(lp3289
S'X'
p3290
a(lp3291
S'XXXX'
p3292
aaa(lp3293
S'PATTY'
p3294
a(lp3295
S'Yeah'
p3296
aaa(lp3297
S'DIANE'
p3298
a(lp3299
S'Cause'
p3300
ag6
aS'read'
p3301
aS'Passage'
p3302
aS'to'
p3303
aS'India'
p3304
aaa(lp3305
S'LORI'
p3306
a(lp3307
S'XXXXXX'
p3308
aaa(lp3309
S'DIANE'
p3310
a(lp3311
g112
aS'hundred'
p3312
aS'years'
p3313
aS'ago'
p3314
aS'in'
p3315
aS'college'
p3316
aaa(lp3317
g3310
a(lp3318
S'and'
p3319
aS'that'
p3320
aS'was'
p3321
aS'all'
p3322
aS'about'
p3323
aS'the'
p3324
aS'colony'
p3325
aS'of'
p3326
aS'India'
p3327
aaa(lp3328
S'LINDA'
p3329
a(lp3330
S'Mhm'
p3331
aaa(lp3332
S'DIANE'
p3333
a(lp3334
S'and'
p3335
aS'English'
p3336
aS'colonial'
p3337
aS'things'
p3338
aaa(lp3339
S'LORI'
p3340
a(lp3341
S'Mhm'
p3342
aaa(lp3343
S'DIANE'
p3344
a(lp3345
S'So'
p3346
ag6
aS'thought'
p3347
aS'England'
p3348
aS'was'
p3349
aS'in'
p3350
ag112
aS'position'
p3351
aS'of'
p3352
aS'great'
p3353
aS'strength'
p3354
aaa(lp3355
g3344
a(lp3356
S'in'
p3357
aS'nineteen'
p3358
aS'ten'
p3359
aaa(lp3360
S'EVELYN'
p3361
a(lp3362
g6
aS'think'
p3363
aS'it'
p3364
aS'was'
p3365
aaa(lp3366
S'X'
p3367
a(lp3368
S'Hm'
p3369
aaa(lp3370
S'JANICE'
p3371
a(lp3372
g6
aS'think'
p3373
aS'it'
p3374
aS'probably'
p3375
aS'was'
p3376
aaa(lp3377
S'MANY'
p3378
a(lp3379
S'XXXXXXX'
p3380
aaa(lp3381
S'NORA'
p3382
a(lp3383
g6
aS'think'
p3384
aS'it'
p3385
aS'was'
p3386
aaa(lp3387
S'MANY'
p3388
a(lp3389
S'XX'
p3390
aaa(lp3391
S'LORI'
p3392
a(lp3393
S'But'
p3394
aS'it'
p3395
aS'was'
p3396
aS'getting'
p3397
aS'ready'
p3398
aS'to'
p3399
aaa(lp3400
S'LINDA'
p3401
a(lp3402
S'But'
p3403
aS'the'
p3404
aS'winds'
p3405
aS'of'
p3406
aS'change'
p3407
aaa(lp3408
S'LORI'
p3409
a(lp3410
S'move'
p3411
aS'away'
p3412
aaa(lp3413
S'LINDA'
p3414
a(lp3415
aa(lp3416
S'LORI'
p3417
a(lp3418
S'thats'
p3419
aS'right'
p3420
aaa(lp3421
S'DIANE'
p3422
a(lp3423
S'were'
p3424
aS'beginning'
p3425
aS'to'
p3426
aS'blow'
p3427
aaa(lp3428
S'LINDA'
p3429
a(lp3430
S'had'
p3431
aS'begun'
p3432
aS'to'
p3433
aS'blow'
p3434
aaa(lp3435
S'EVELYN'
p3436
a(lp3437
S'mhm'
p3438
aaa(lp3439
S'NORA'
p3440
a(lp3441
S'Wonder'
p3442
aS'who'
p3443
aS'was'
p3444
aS'the'
p3445
aS'ruler'
p3446
aaa(lp3447
S'LINDA'
p3448
a(lp3449
aa(lp3450
S'NORA'
p3451
a(lp3452
S'in'
p3453
aS'nineteen'
p3454
aS'ten'
p3455
aaa(lp3456
S'DIANE'
p3457
a(lp3458
S'Who'
p3459
aS'was'
p3460
aS'the'
p3461
aS'king'
p3462
aS'or'
p3463
aS'queen'
p3464
aaa(lp3465
S'NORA'
p3466
a(lp3467
S'Mhm'
p3468
aaa(lp3469
S'LORI'
p3470
a(lp3471
g6
aS'dont'
p3472
aS'know'
p3473
aaa(lp3474
S'DIANE'
p3475
a(lp3476
S'Hmm'
p3477
aaa(lp3478
S'PATTY'
p3479
a(lp3480
S'When'
p3481
aaa(lp3482
g3479
a(lp3483
S'what'
p3484
aS'was'
p3485
aS'Victorias'
p3486
aS'reign'
p3487
aaa(lp3488
S'NORA'
p3489
a(lp3490
S'Well'
p3491
aS'thats'
p3492
aS'what'
p3493
aS'Im'
p3494
aS'trying'
p3495
aS'to'
p3496
aS'think'
p3497
aS'of'
p3498
aaa(lp3499
S'EVELYN'
p3500
a(lp3501
S'About'
p3502
aaa(lp3503
g3500
a(lp3504
S'well'
p3505
aS'close'
p3506
aS'to'
p3507
aS'that'
p3508
aaa(lp3509
g3500
a(lp3510
g3199
aaa(lp3511
g3500
a(lp3512
S'uh'
p3513
aaa(lp3514
g3500
a(lp3515
S'remember'
p3516
aaa(lp3517
g3500
a(lp3518
S'they'
p3519
aS'uh'
p3520
aaa(lp3521
S'LORI'
p3522
a(lp3523
S'Well'
p3524
aS'when'
p3525
aS'did'
p3526
aS'Edward'
p3527
aS'give'
p3528
aS'up'
p3529
aaa(lp3530
S'EVELYN'
p3531
a(lp3532
S'Upstairs'
p3533
aS'Downstairs'
p3534
aaa(lp3535
S'DEBORAH'
p3536
a(lp3537
g6
aS'should'
p3538
aS'think'
p3539
aS'it'
p3540
aS'would'
p3541
aS'have'
p3542
aS'been'
p3543
aS'George'
p3544
aS'the'
p3545
aS'Fifth'
p3546
aS'XXX'
p3547
aaa(lp3548
S'EVELYN'
p3549
a(lp3550
S'The'
p3551
aS'uh'
p3552
aaa(lp3553
S'PATTY'
p3554
a(lp3555
S'Mhm'
p3556
aaa(lp3557
S'DIANE'
p3558
a(lp3559
S'mm'
p3560
aaa(lp3561
S'EVELYN'
p3562
a(lp3563
S'Uh'
p3564
aaa(lp3565
S'LOIS'
p3566
a(lp3567
S'Mhm'
p3568
aaa(lp3569
S'EVELYN'
p3570
a(lp3571
S'what'
p3572
aS'was'
p3573
aS'it'
p3574
aaa(lp3575
g3570
a(lp3576
S'uh'
p3577
aS'the'
p3578
aaa(lp3579
g3570
a(lp3580
S'her'
p3581
aS'son'
p3582
aS'came'
p3583
aS'in'
p3584
aaa(lp3585
S'LINDA'
p3586
a(lp3587
aa(lp3588
S'EVELYN'
p3589
a(lp3590
S'in'
p3591
aS'about'
p3592
aS'nineteen'
p3593
aS'ten'
p3594
aaa(lp3595
S'LINDA'
p3596
a(lp3597
S'Yeah'
p3598
ag50
aaa(lp3599
S'EVELYN'
p3600
a(lp3601
S'Victorias'
p3602
aS'son'
p3603
aaa(lp3604
S'LINDA'
p3605
a(lp3606
S'Was'
p3607
aS'that'
p3608
aS'Edward'
p3609
aaa(lp3610
S'EVELYN'
p3611
a(lp3612
S'The'
p3613
aS'one'
p3614
aS'that'
p3615
aaa(lp3616
g3611
a(lp3617
S'Yeah'
p3618
aaa(lp3619
S'LINDA'
p3620
a(lp3621
g50
aS'the'
p3622
aS'ward'
p3623
aS'in'
p3624
ag50
ag112
aS'England'
p3625
aaa(lp3626
S'EVELYN'
p3627
a(lp3628
S'The'
p3629
aS'one'
p3630
aS'who'
p3631
aS'was'
p3632
ag112
aaa(lp3633
g3627
a(lp3634
S'such'
p3635
ag112
aaa(lp3636
S'NORA'
p3637
a(lp3638
S'Well'
p3639
aS'he'
p3640
aS'was'
p3641
aS'weak'
p3642
aaa(lp3643
g3637
a(lp3644
S'Wasnt'
p3645
aS'he'
p3646
aaa(lp3647
S'LINDA'
p3648
a(lp3649
S'Mhm'
p3650
aaa(lp3651
S'LORI'
p3652
a(lp3653
S'The'
p3654
aS'one'
p3655
aS'that'
p3656
aS'abdicated'
p3657
aaa(lp3658
S'SUE'
p3659
a(lp3660
S'Yeah'
p3661
aaa(lp3662
S'LINDA'
p3663
a(lp3664
S'No'
p3665
aaa(lp3666
S'LORI'
p3667
a(lp3668
S'That'
p3669
aS'was'
p3670
aS'later'
p3671
aaa(lp3672
S'PATTY'
p3673
a(lp3674
S'No'
p3675
aaa(lp3676
g3673
a(lp3677
S'That'
p3678
aS'was'
p3679
aS'later'
p3680
aaa(lp3681
S'EVELYN'
p3682
a(lp3683
S'Mhm'
p3684
aaa(lp3685
S'X'
p3686
a(lp3687
aa(lp3688
S'PATTY'
p3689
a(lp3690
S'Well'
p3691
aS'at'
p3692
aS'the'
p3693
aS'beginning'
p3694
aS'of'
p3695
aS'World'
p3696
aS'War'
p3697
aS'One'
p3698
aaa(lp3699
g3689
a(lp3700
S'in'
p3701
aS'The'
p3702
aS'Guns'
p3703
aS'of'
p3704
aS'August'
p3705
aaa(lp3706
S'NORA'
p3707
a(lp3708
S'It'
p3709
aS'was'
p3710
aS'nineteen'
p3711
aS'eighteen'
p3712
aaa(lp3713
S'PATTY'
p3714
a(lp3715
S'They'
p3716
aaa(lp3717
S'NORA'
p3718
a(lp3719
S'fourteen'
p3720
aaa(lp3721
S'X'
p3722
a(lp3723
aa(lp3724
S'PATTY'
p3725
a(lp3726
S'all'
p3727
aS'of'
p3728
aS'the'
p3729
aS'crowned'
p3730
aS'heads'
p3731
aaa(lp3732
g3725
a(lp3733
S'was'
p3734
aaa(lp3735
g3725
a(lp3736
S'that'
p3737
aS'was'
p3738
aS'the'
p3739
aS'last'
p3740
aS'time'
p3741
aS'they'
p3742
aS'were'
p3743
aS'all'
p3744
aS'together'
p3745
aaa(lp3746
g3725
a(lp3747
S'So'
p3748
aS'it'
p3749
aS'had'
p3750
aS'already'
p3751
aaa(lp3752
g3725
a(lp3753
S'was'
p3754
aaa(lp3755
g3725
a(lp3756
S'well'
p3757
aS'over'
p3758
aS'the'
p3759
aS'horizon'
p3760
aS'into'
p3761
aS'setting'
p3762
aaa(lp3763
S'LINDA'
p3764
a(lp3765
S'Mhm'
p3766
aaa(lp3767
S'PATTY'
p3768
a(lp3769
S'by'
p3770
aS'nineteen'
p3771
aS'fourteen'
p3772
aaa(lp3773
S'LORI'
p3774
a(lp3775
S'aOkay'
p3776
aaa(lp3777
S'MANY'
p3778
a(lp3779
S'Mhm'
p3780
aaa(lp3781
S'LORI'
p3782
a(lp3783
S'So'
p3784
aS'nineteen'
p3785
aS'ten'
p3786
aS'it'
p3787
aS'just'
p3788
aaa(lp3789
S'PATTY'
p3790
a(lp3791
S'So'
p3792
aS'in'
p3793
aS'nineteen'
p3794
aS'ten'
p3795
aaa(lp3796
S'X'
p3797
a(lp3798
S'Mhm'
p3799
aaa(lp3800
S'PATTY'
p3801
a(lp3802
S'there'
p3803
aS'would'
p3804
aS'definitely'
p3805
aS'have'
p3806
aS'been'
p3807
aaa(lp3808
S'LORI'
p3809
a(lp3810
S'Undercurrents'
p3811
aaa(lp3812
S'PATTY'
p3813
a(lp3814
S'the'
p3815
aS'winds'
p3816
aS'of'
p3817
aS'change'
p3818
aS'beginning'
p3819
aS'to'
p3820
aaa(lp3821
S'LINDA'
p3822
a(lp3823
S'Mhm'
p3824
aaa(lp3825
S'DIANE'
p3826
a(lp3827
S'Okay'
p3828
aaa(lp3829
S'LINDA'
p3830
a(lp3831
S'Mhm'
p3832
aaa(lp3833
S'DIANE'
p3834
a(lp3835
S'But'
p3836
aS'England'
p3837
aS'really'
p3838
aS'didnt'
p3839
aS'start'
p3840
aS'losing'
p3841
aS'her'
p3842
aS'colonies'
p3843
aaa(lp3844
g3834
a(lp3845
S'did'
p3846
aS'she'
p3847
aaa(lp3848
g3834
a(lp3849
S'until'
p3850
aS'more'
p3851
aS'like'
p3852
aS'second'
p3853
aS'world'
p3854
aS'war'
p3855
aaa(lp3856
S'EVELYN'
p3857
a(lp3858
S'Thats'
p3859
aS'when'
p3860
aS'they'
p3861
aS'div'
p3862
aS'divested'
p3863
aaa(lp3864
S'DIANE'
p3865
a(lp3866
S'Well'
p3867
aS'maybe'
p3868
aaa(lp3869
S'LINDA'
p3870
a(lp3871
S'Mhm'
p3872
aaa(lp3873
g3870
a(lp3874
S'Mhm'
p3875
aaa(lp3876
S'EVELYN'
p3877
a(lp3878
S'was'
p3879
aS'after'
p3880
ag1181
aS'Second'
p3881
aS'World'
p3882
aS'War'
p3883
aaa(lp3884
S'LINDA'
p3885
a(lp3886
S'Mhm'
p3887
aaa(lp3888
S'DIANE'
p3889
a(lp3890
S'Okay'
p3891
aaa(lp3892
S'LORI'
p3893
a(lp3894
S'Mhm'
p3895
aaa(lp3896
S'DIANE'
p3897
a(lp3898
S'Maybe'
p3899
aS'the'
p3900
aS'power'
p3901
aS'over'
p3902
aS'them'
p3903
aS'was'
p3904
aS'becoming'
p3905
aS'weak'
p3906
aaa(lp3907
S'EVELYN'
p3908
a(lp3909
S'XXX'
p3910
aaa(lp3911
g3908
a(lp3912
S'Mhm'
p3913
aaa(lp3914
S'LORI'
p3915
a(lp3916
g6
aaa(lp3917
S'DIANE'
p3918
a(lp3919
S'by'
p3920
aS'this'
p3921
aS'time'
p3922
aaa(lp3923
S'LORI'
p3924
a(lp3925
S'wasnt'
p3926
aS'that'
p3927
aS'part'
p3928
aS'of'
p3929
aS'the'
p3930
aS'problem'
p3931
aS'they'
p3932
aS'had'
p3933
aaa(lp3934
g3924
a(lp3935
S'Cause'
p3936
aS'they'
p3937
aS'were'
p3938
aS'trying'
p3939
aS'to'
p3940
aaa(lp3941
g3924
a(lp3942
S'hold'
p3943
aS'the'
p3944
aS'colonies'
p3945
aS'together'
p3946
aaa(lp3947
g3924
a(lp3948
S'and'
p3949
aS'then'
p3950
aS'they'
p3951
aS'also'
p3952
aS'had'
p3953
aS'to'
p3954
aS'deal'
p3955
aS'with'
p3956
aS'the'
p3957
aS'war'
p3958
aS'in'
p3959
aS'Europe'
p3960
aaa(lp3961
S'PATTY'
p3962
a(lp3963
g6
aS'thought'
p3964
aS'so'
p3965
aaa(lp3966
S'LORI'
p3967
a(lp3968
g6
aS'mean'
p3969
aS'wasnt'
p3970
aS'that'
p3971
aS'the'
p3972
aS'problem'
p3973
aaa(lp3974
S'DIANE'
p3975
a(lp3976
S'Mhm'
p3977
aaa(lp3978
S'LORI'
p3979
a(lp3980
S'That'
p3981
aS'they'
p3982
aS'had'
p3983
aS'to'
p3984
aS'be'
p3985
aaa(lp3986
S'PATTY'
p3987
a(lp3988
S'Was'
p3989
aS'that'
p3990
aS'World'
p3991
aS'War'
p3992
aS'Two'
p3993
aaa(lp3994
g3987
a(lp3995
S'or'
p3996
aS'World'
p3997
aS'War'
p3998
aS'One'
p3999
aaa(lp4000
S'LORI'
p4001
a(lp4002
g6
aS'dont'
p4003
aS'know'
p4004
aaa(lp4005
g4001
a(lp4006
g6
aS'dont'
p4007
aS'know'
p4008
aaa(lp4009
g4001
a(lp4010
S'But'
p4011
ag6
aS'think'
p4012
aS'that'
p4013
aS'was'
p4014
aS'part'
p4015
aS'of'
p4016
aS'the'
p4017
aS'problem'
p4018
aaa(lp4019
g4001
a(lp4020
S'because'
p4021
aS'they'
p4022
aS'couldnt'
p4023
aS'be'
p4024
aaa(lp4025
S'DEBORAH'
p4026
a(lp4027
S'More'
p4028
aS'World'
p4029
aS'War'
p4030
aS'Two'
p4031
aaa(lp4032
g4026
a(lp4033
S'XXX'
p4034
aaa(lp4035
S'LORI'
p4036
a(lp4037
S'Was'
p4038
aS'it'
p4039
aS'Two'
p4040
aaa(lp4041
g4036
a(lp4042
S'Deborah'
p4043
aaa(lp4044
S'KIM'
p4045
a(lp4046
g6
aS'think'
p4047
aaa(lp4048
S'LORI'
p4049
a(lp4050
S'Yeah'
p4051
aaa(lp4052
S'DEBORAH'
p4053
a(lp4054
g6
aS'think'
p4055
aS'more'
p4056
aaa(lp4057
g4053
a(lp4058
S'more'
p4059
ag50
aS'was'
p4060
aS'World'
p4061
aS'War'
p4062
aS'Two'
p4063
ag50
aaa(lp4064
S'LINDA'
p4065
a(lp4066
S'Well'
p4067
aS'they'
p4068
aS'were'
p4069
aS'transferring'
p4070
aS'the'
p4071
aS'power'
p4072
aS'in'
p4073
aS'India'
p4074
aaa(lp4075
g4065
a(lp4076
S'werent'
p4077
aS'they'
p4078
aaa(lp4079
S'LORI'
p4080
a(lp4081
S'to'
p4082
aS'be'
p4083
aS'in'
p4084
aS'the'
p4085
aS'thirties'
p4086
aaa(lp4087
S'LINDA'
p4088
a(lp4089
S'Uh'
p4090
aaa(lp4091
g4088
a(lp4092
S'more'
p4093
aS'like'
p4094
aS'World'
p4095
aS'War'
p4096
aS'Two'
p4097
aaa(lp4098
S'EVELYN'
p4099
a(lp4100
S'Mhm'
p4101
aaa(lp4102
S'LINDA'
p4103
a(lp4104
g6
aS'mean'
p4105
aS'Neru'
p4106
aaa(lp4107
S'PATTY'
p4108
a(lp4109
S'when'
p4110
aS'Gandhi'
p4111
aaa(lp4112
S'LORI'
p4113
a(lp4114
S'So'
p4115
aS'the'
p4116
aS'thirties'
p4117
aS'and'
p4118
aS'forties'
p4119
aS'maybe'
p4120
aaa(lp4121
S'LINDA'
p4122
a(lp4123
S'was'
p4124
aaa(lp4125
S'DIANE'
p4126
a(lp4127
S'Yeah'
p4128
aaa(lp4129
S'JANICE'
p4130
a(lp4131
S'Mhm'
p4132
aaa(lp4133
S'EVELYN'
p4134
a(lp4135
S'time'
p4136
aS'of'
p4137
aS'Gandhi'
p4138
aaa(lp4139
g4134
a(lp4140
S'and'
p4141
aS'all'
p4142
aS'of'
p4143
aS'that'
p4144
aaa(lp4145
S'PATTY'
p4146
a(lp4147
S'Mhm'
p4148
aaa(lp4149
S'LINDA'
p4150
a(lp4151
S'Unhunh'
p4152
aaa(lp4153
S'HARRIET'
p4154
a(lp4155
S'Unhunh'
p4156
aaa(lp4157
S'PATTY'
p4158
a(lp4159
S'Mhm'
p4160
aaa(lp4161
S'JANICE'
p4162
a(lp4163
S'It'
p4164
aS'was'
p4165
aS'kind'
p4166
aS'of'
p4167
aS'interesting'
p4168
aS'to'
p4169
aS'read'
p4170
aS'these'
p4171
aS'uh'
p4172
aaa(lp4173
S'DIANE'
p4174
a(lp4175
S'Hm'
p4176
aaa(lp4177
S'JANICE'
p4178
a(lp4179
S'critical'
p4180
aS'reviews'
p4181
aaa(lp4182
g4178
a(lp4183
g6
aS'got'
p4184
aS'this'
p4185
aS'out'
p4186
aS'of'
p4187
aS'the'
p4188
aS'book'
p4189
aS'review'
p4190
aS'digest'
p4191
aaa(lp4192
g4178
a(lp4193
S'since'
p4194
aS'it'
p4195
aS'was'
p4196
aS'written'
p4197
aS'in'
p4198
aS'nineteen'
p4199
aS'ten'
p4200
aaa(lp4201
g4178
a(lp4202
S'Reviews'
p4203
aS'were'
p4204
aS'written'
p4205
aS'in'
p4206
aS'nineteen'
p4207
aS'ten'
p4208
aaa(lp4209
S'EVELYN'
p4210
a(lp4211
aa(lp4212
S'LINDA'
p4213
a(lp4214
S'Hm'
p4215
aaa(lp4216
S'JANICE'
p4217
a(lp4218
aa(lp4219
S'PATTY'
p4220
a(lp4221
aa(lp4222
S'DIANE'
p4223
a(lp4224
S'Hunh'
p4225
aaa(lp4226
S'JANICE'
p4227
a(lp4228
S'Heres'
p4229
aS'one'
p4230
aaa(lp4231
S'NORA'
p4232
a(lp4233
S'When'
p4234
aS'was'
p4235
aS'the'
p4236
aS'book'
p4237
aS'written'
p4238
aaa(lp4239
S'DIANE'
p4240
a(lp4241
aa(lp4242
S'JANICE'
p4243
a(lp4244
S'Nineteen'
p4245
aS'ten'
p4246
aaa(lp4247
S'DIANE'
p4248
a(lp4249
S'nineteen'
p4250
aS'ten'
p4251
aaa(lp4252
S'LINDA'
p4253
a(lp4254
S'It'
p4255
aS'was'
p4256
aS'published'
p4257
aaa(lp4258
g4253
a(lp4259
S'yeah'
p4260
aaa(lp4261
S'JANICE'
p4262
a(lp4263
S'Published'
p4264
aS'in'
p4265
aS'nineteen'
p4266
aS'ten'
p4267
aaa(lp4268
g4262
a(lp4269
S'Um'
p4270
aaa(lp4271
g4262
a(lp4272
S'READ'
p4273
aS'Mister'
p4274
aS'Forster'
p4275
aS'READ'
p4276
aaa(lp4277
g4262
a(lp4278
S'this'
p4279
aS'is'
p4280
aS'from'
p4281
aS'the'
p4282
aS'New'
p4283
aS'York'
p4284
aS'Times'
p4285
aaa(lp4286
g4262
a(lp4287
S'in'
p4288
aS'nineteen'
p4289
aaa(lp4290
g4262
a(lp4291
S'February'
p4292
aS'nineteen'
p4293
aS'eleven'
p4294
aaa(lp4295
S'PATTY'
p4296
a(lp4297
aa(lp4298
S'DIANE'
p4299
a(lp4300
aa(lp4301
S'JANICE'
p4302
a(lp4303
S'READ'
p4304
aS'Mister'
p4305
aS'Forster'
p4306
aS'seems'
p4307
aS'to'
p4308
aS'write'
p4309
aS'conventional'
p4310
aS'comedy'
p4311
aaa(lp4312
g4302
a(lp4313
S'for'
p4314
aS'that'
p4315
aS'his'
p4316
aS'sense'
p4317
aS'of'
p4318
aS'character'
p4319
aS'values'
p4320
aS'is'
p4321
aS'entirely'
p4322
aS'adequate'
p4323
aaa(lp4324
S'X'
p4325
a(lp4326
aa(lp4327
S'DIANE'
p4328
a(lp4329
aa(lp4330
S'JANICE'
p4331
a(lp4332
S'while'
p4333
aS'there'
p4334
aS'his'
p4335
aS'blith'
p4336
aS'blithe'
p4337
aS'manner'
p4338
aaa(lp4339
g4331
a(lp4340
S'and'
p4341
aS'journalistic'
p4342
aS'wittiness'
p4343
aS'of'
p4344
aS'phrase'
p4345
aS'serves'
p4346
aS'him'
p4347
aS'well'
p4348
aaa(lp4349
g4331
a(lp4350
S'But'
p4351
aS'he'
p4352
aS'invinces'
p4353
aS'neither'
p4354
aS'power'
p4355
aS'nor'
p4356
aS'inclination'
p4357
aaa(lp4358
g4331
a(lp4359
S'to'
p4360
aS'come'
p4361
aS'to'
p4362
aS'grips'
p4363
aS'with'
p4364
aS'any'
p4365
aS'vital'
p4366
aS'human'
p4367
aS'problem'
p4368
aS'READ'
p4369
aaa(lp4370
S'PATTY'
p4371
a(lp4372
aa(lp4373
S'LINDA'
p4374
a(lp4375
aa(lp4376
S'JANICE'
p4377
a(lp4378
S'which'
p4379
aS'totally'
p4380
aS'disregre'
p4381
aaa(lp4382
g4377
a(lp4383
S'disagrees'
p4384
aS'with'
p4385
aS'everything'
p4386
aS'weve'
p4387
aS'been'
p4388
aS'saying'
p4389
aS'this'
p4390
aS'afternoon'
p4391
aaa(lp4392
S'LINDA'
p4393
a(lp4394
aa(lp4395
S'DIANE'
p4396
a(lp4397
S'But'
p4398
aS'what'
p4399
ag112
aS'different'
p4400
aS'wording'
p4401
aS'of'
p4402
ag112
aS'review'
p4403
aaa(lp4404
S'LINDA'
p4405
a(lp4406
aa(lp4407
S'DIANE'
p4408
a(lp4409
S'too'
p4410
aaa(lp4411
g4408
a(lp4412
S'Its'
p4413
aS'so'
p4414
aS'proper'
p4415
aaa(lp4416
S'LINDA'
p4417
a(lp4418
S'Yes'
p4419
aaa(lp4420
S'EVELYN'
p4421
a(lp4422
S'Mm'
p4423
aaa(lp4424
S'JANICE'
p4425
a(lp4426
S'Yeah'
p4427
aaa(lp4428
S'LINDA'
p4429
a(lp4430
S'True'
p4431
aaa(lp4432
S'DIANE'
p4433
a(lp4434
S'and'
p4435
aS'stilted'
p4436
aaa(lp4437
S'MANY'
p4438
a(lp4439
S'Unhunh'
p4440
aaa(lp4441
S'DIANE'
p4442
a(lp4443
S'and'
p4444
aaa(lp4445
S'SUE'
p4446
a(lp4447
S'Yeah'
p4448
aaa(lp4449
S'LINDA'
p4450
a(lp4451
S'True'
p4452
aaa(lp4453
S'LORI'
p4454
a(lp4455
g50
aaa(lp4456
S'LINDA'
p4457
a(lp4458
aa(lp4459
S'JANICE'
p4460
a(lp4461
S'Saturday'
p4462
aS'review'
p4463
aS'said'
p4464
aaa(lp4465
g4460
a(lp4466
S'READ'
p4467
aS'whether'
p4468
aS'one'
p4469
aS'likes'
p4470
aS'it'
p4471
aS'or'
p4472
aS'not'
p4473
aaa(lp4474
S'LORI'
p4475
a(lp4476
g50
aaa(lp4477
S'LINDA'
p4478
a(lp4479
aa(lp4480
S'JANICE'
p4481
a(lp4482
S'Howards'
p4483
aS'End'
p4484
aS'is'
p4485
ag112
aS'real'
p4486
aS'novel'
p4487
aS'READ'
p4488
aaa(lp4489
S'X'
p4490
a(lp4491
S'XXX'
p4492
aaa(lp4493
S'JANICE'
p4494
a(lp4495
S'That'
p4496
aS'was'
p4497
aS'in'
p4498
aS'nineteen'
p4499
aS'ten'
p4500
aaa(lp4501
S'SUE'
p4502
a(lp4503
aa(lp4504
S'DIANE'
p4505
a(lp4506
aa(lp4507
S'SUE'
p4508
a(lp4509
aa(lp4510
S'JANICE'
p4511
a(lp4512
S'and'
p4513
aaa(lp4514
g4511
a(lp4515
S'something'
p4516
aS'that'
p4517
aaa(lp4518
g4511
a(lp4519
g50
aS'it'
p4520
aS'was'
p4521
ag50
aS'abbreviated'
p4522
aS'capital'
p4523
aS'SPEC'
p4524
aaa(lp4525
S'LINDA'
p4526
a(lp4527
aa(lp4528
S'JANICE'
p4529
a(lp4530
g6
aS'dont'
p4531
aS'know'
p4532
aS'what'
p4533
aS'it'
p4534
aS'was'
p4535
aaa(lp4536
S'LINDA'
p4537
a(lp4538
aa(lp4539
S'JANICE'
p4540
a(lp4541
S'READ'
p4542
aS'But'
p4543
aS'if'
p4544
aS'his'
p4545
aS'defects'
p4546
aS'are'
p4547
aS'exasperating'
p4548
aaa(lp4549
g4540
a(lp4550
S'his'
p4551
aS'qualities'
p4552
aS'are'
p4553
aS'remarkable'
p4554
aaa(lp4555
g4540
a(lp4556
S'Vivid'
p4557
aS'characterization'
p4558
aaa(lp4559
g4540
a(lp4560
g112
aS'happy'
p4561
aS'command'
p4562
aS'of'
p4563
aS'dialog'
p4564
aaa(lp4565
g4540
a(lp4566
S'and'
p4567
ag112
ag1632
aaa(lp4568
g4540
a(lp4569
S'and'
p4570
ag112
aS'freakish'
p4571
aS'humor'
p4572
aaa(lp4573
g4540
a(lp4574
S'The'
p4575
aS'clash'
p4576
aS'of'
p4577
aS'modern'
p4578
aS'culture'
p4579
aaa(lp4580
S'X'
p4581
a(lp4582
S'Hm'
p4583
aaa(lp4584
S'JANICE'
p4585
a(lp4586
S'and'
p4587
aS'modern'
p4588
aS'materialism'
p4589
aaa(lp4590
S'LINDA'
p4591
a(lp4592
aa(lp4593
S'JANICE'
p4594
a(lp4595
S'has'
p4596
aS'seldom'
p4597
aS'found'
p4598
aaa(lp4599
g4594
a(lp4600
g112
aS'more'
p4601
aS'vivid'
p4602
aS'interpreter'
p4603
aS'READ'
p4604
aaa(lp4605
S'X'
p4606
a(lp4607
aa(lp4608
S'DIANE'
p4609
a(lp4610
aa(lp4611
S'LINDA'
p4612
a(lp4613
S'Oh'
p4614
aaa(lp4615
S'X'
p4616
a(lp4617
S'Ive'
p4618
aS'never'
p4619
aS'seen'
p4620
aS'that'
p4621
aaa(lp4622
S'DIANE'
p4623
a(lp4624
S'SM'
p4625
aS'Does'
p4626
aS'the'
p4627
aS'library'
p4628
aS'have'
p4629
aS'these'
p4630
aS'magazines'
p4631
aS'on'
p4632
aS'microfilm'
p4633
aaa(lp4634
S'SUE'
p4635
a(lp4636
S'Oh'
p4637
aS'my'
p4638
aaa(lp4639
S'DIANE'
p4640
a(lp4641
S'clear'
p4642
aS'back'
p4643
aS'to'
p4644
aS'nineteen'
p4645
aS'ten'
p4646
aS'SM'
p4647
aaa(lp4648
S'X'
p4649
a(lp4650
aa(lp4651
S'JANICE'
p4652
a(lp4653
S'Well'
p4654
aS'this'
p4655
aS'is'
p4656
aS'from'
p4657
aS'the'
p4658
aS'Book'
p4659
aS'Review'
p4660
aS'Digest'
p4661
aaa(lp4662
g4652
a(lp4663
S'So'
p4664
aS'they'
p4665
aS'have'
p4666
aS'all'
p4667
aS'of'
p4668
aS'these'
p4669
aS'little'
p4670
aS'reviews'
p4671
aaa(lp4672
S'LINDA'
p4673
a(lp4674
S'Ah'
p4675
aaa(lp4676
S'NORA'
p4677
a(lp4678
S'Oh'
p4679
ag6
aS'didnt'
p4680
aS'know'
p4681
aS'they'
p4682
aS'had'
p4683
aS'that'
p4684
aS'at'
p4685
aaa(lp4686
S'JANICE'
p4687
a(lp4688
S'on'
p4689
aS'this'
p4690
aS'one'
p4691
aS'page'
p4692
aaa(lp4693
S'LINDA'
p4694
a(lp4695
S'Uhuh'
p4696
aaa(lp4697
S'JANICE'
p4698
a(lp4699
S'that'
p4700
aS'theyve'
p4701
aS'collected'
p4702
aaa(lp4703
S'NORA'
p4704
a(lp4705
S'that'
p4706
aS'early'
p4707
aaa(lp4708
S'DIANE'
p4709
a(lp4710
S'Oh'
p4711
aaa(lp4712
S'JANICE'
p4713
a(lp4714
S'of'
p4715
aaa(lp4716
S'DIANE'
p4717
a(lp4718
aa(lp4719
S'PATTY'
p4720
a(lp4721
S'Oh'
p4722
aaa(lp4723
g4720
a(lp4724
S'My'
p4725
aaa(lp4726
S'JANICE'
p4727
a(lp4728
S'of'
p4729
aS'his'
p4730
aS'book'
p4731
aaa(lp4732
S'PATTY'
p4733
a(lp4734
g6
aS'didnt'
p4735
aaa(lp4736
g4733
a(lp4737
S'havent'
p4738
aS'seen'
p4739
aS'that'
p4740
aaa(lp4741
S'DIANE'
p4742
a(lp4743
aa(lp4744
S'EVELYN'
p4745
a(lp4746
S'But'
p4747
aS'Janice'
p4748
aaa(lp4749
g4745
a(lp4750
S'You'
p4751
aS'did'
p4752
aS'an'
p4753
aS'awful'
p4754
aS'lot'
p4755
aS'of'
p4756
aS'research'
p4757
aS'on'
p4758
aS'it'
p4759
aaa(lp4760
S'NORA'
p4761
a(lp4762
S'Cause'
p4763
ag6
aS'took'
p4764
aS'that'
p4765
aS'uh'
p4766
aaa(lp4767
S'EVELYN'
p4768
a(lp4769
g6
aS'mean'
p4770
aS'those'
p4771
aS'reviews'
p4772
aaa(lp4773
S'JANICE'
p4774
a(lp4775
aa(lp4776
S'MANY'
p4777
a(lp4778
aa(lp4779
S'LINDA'
p4780
a(lp4781
S'Yeah'
p4782
aaa(lp4783
S'EVELYN'
p4784
a(lp4785
S'That'
p4786
aS'was'
p4787
aS'wonderful'
p4788
aaa(lp4789
S'DIANE'
p4790
a(lp4791
S'Yeah'
p4792
aaa(lp4793
S'LINDA'
p4794
a(lp4795
S'Yeah'
p4796
aaa(lp4797
S'JANICE'
p4798
a(lp4799
S'Well'
p4800
ag6
aS'didnt'
p4801
aS'spend'
p4802
aS'too'
p4803
aS'much'
p4804
aS'time'
p4805
aS'putting'
p4806
aS'it'
p4807
aS'together'
p4808
aaa(lp4809
S'SUE'
p4810
a(lp4811
S'But'
p4812
aaa(lp4813
S'EVELYN'
p4814
a(lp4815
S'Yeah'
p4816
aaa(lp4817
S'MANY'
p4818
a(lp4819
aa(lp4820
S'SUE'
p4821
a(lp4822
S'But'
p4823
aS'modern'
p4824
aaa(lp4825
S'LORI'
p4826
a(lp4827
S'XXXXXXXX'
p4828
aaa(lp4829
S'SUE'
p4830
a(lp4831
S'modern'
p4832
aS'culture'
p4833
aaa(lp4834
g4830
a(lp4835
S'and'
p4836
aS'modern'
p4837
aS'materialism'
p4838
aaa(lp4839
g4830
a(lp4840
g6
aS'mean'
p4841
aS'thats'
p4842
aS'essentially'
p4843
aS'what'
p4844
aS'were'
p4845
aS'saying'
p4846
aaa(lp4847
S'EVELYN'
p4848
a(lp4849
S'Thats'
p4850
aS'what'
p4851
aS'weve'
p4852
aS'been'
p4853
aS'saying'
p4854
aaa(lp4855
S'LINDA'
p4856
a(lp4857
S'Thats'
p4858
aS'right'
p4859
aaa(lp4860
S'SUE'
p4861
a(lp4862
S'Culture'
p4863
aaa(lp4864
S'DIANE'
p4865
a(lp4866
S'Mhm'
p4867
aaa(lp4868
S'SUE'
p4869
a(lp4870
S'and'
p4871
aS'materialism'
p4872
aaa(lp4873
S'LINDA'
p4874
a(lp4875
S'Thats'
p4876
aS'right'
p4877
aaa(lp4878
S'JANICE'
p4879
a(lp4880
S'Thats'
p4881
aS'right'
p4882
aaa(lp4883
S'SUE'
p4884
a(lp4885
S'So'
p4886
aaa(lp4887
g4884
a(lp4888
S'So'
p4889
aS'they'
p4890
aaa(lp4891
S'JANICE'
p4892
a(lp4893
S'That'
p4894
aS'was'
p4895
aaa(lp4896
S'SUE'
p4897
a(lp4898
S'even'
p4899
aS'there'
p4900
aS'they'
p4901
aS'hit'
p4902
aS'it'
p4903
aS'on'
p4904
aS'the'
p4905
aS'head'
p4906
aaa(lp4907
S'LINDA'
p4908
a(lp4909
S'uh'
p4910
aaa(lp4911
S'JANICE'
p4912
a(lp4913
S'Thats'
p4914
aS'right'
p4915
aaa(lp4916
S'EVELYN'
p4917
a(lp4918
S'Mhm'
p4919
aaa(lp4920
S'SUE'
p4921
a(lp4922
S'The'
p4923
aS'the'
p4924
aS'humor'
p4925
aS'were'
p4926
aS'having'
p4927
ag112
aS'little'
p4928
aS'trouble'
p4929
aS'with'
p4930
aS'though'
p4931
aaa(lp4932
S'JANICE'
p4933
a(lp4934
S'Thats'
p4935
aS'right'
p4936
aaa(lp4937
S'LORI'
p4938
a(lp4939
S'Yeah'
p4940
ag6
aaa(lp4941
S'MANY'
p4942
a(lp4943
aa(lp4944
S'LORI'
p4945
a(lp4946
S'XX'
p4947
aS'the'
p4948
aS'humor'
p4949
aaa(lp4950
S'SUE'
p4951
a(lp4952
S'well'
p4953
aaa(lp4954
S'X'
p4955
a(lp4956
aa(lp4957
S'SUE'
p4958
a(lp4959
S'although'
p4960
aaa(lp4961
g4958
a(lp4962
S'it'
p4963
aS'was'
p4964
aaa(lp4965
S'X'
p4966
a(lp4967
S'XX'
p4968
aaa(lp4969
S'SUE'
p4970
a(lp4971
S'There'
p4972
aS'were'
p4973
aaa(lp4974
g4970
a(lp4975
S'there'
p4976
aS'were'
p4977
aS'times'
p4978
aS'when'
p4979
aS'it'
p4980
ag3199
aaa(lp4981
g4970
a(lp4982
S'it'
p4983
aS'was'
p4984
aS'under'
p4985
aS'underlying'
p4986
aS'humor'
p4987
aaa(lp4988
g4970
a(lp4989
g112
aS'little'
p4990
aS'bit'
p4991
aaa(lp4992
S'EVELYN'
p4993
a(lp4994
S'Mhm'
p4995
aaa(lp4996
S'SUE'
p4997
a(lp4998
S'You'
p4999
aS'know'
p5000
aaa(lp5001
S'DIANE'
p5002
a(lp5003
S'English'
p5004
aS'humor'
p5005
aaa(lp5006
S'SUE'
p5007
a(lp5008
S'the'
p5009
aaa(lp5010
g5007
a(lp5011
S'The'
p5012
aS'like'
p5013
aaa(lp5014
g5007
a(lp5015
S'like'
p5016
aS'the'
p5017
ag659
aaa(lp5018
g5007
a(lp5019
S'in'
p5020
aS'the'
p5021
aS'movie'
p5022
aS'at'
p5023
aS'least'
p5024
aaa(lp5025
g5007
a(lp5026
S'that'
p5027
aaa(lp5028
g5007
a(lp5029
S'when'
p5030
aS'the'
p5031
aS'Basts'
p5032
aS'come'
p5033
aS'to'
p5034
aS'the'
p5035
aaa(lp5036
g5007
a(lp5037
S'to'
p5038
aS'the'
p5039
aS'wedding'
p5040
aS'reception'
p5041
aaa(lp5042
g5007
a(lp5043
S'and'
p5044
aaa(lp5045
g5007
a(lp5046
S'and'
p5047
aaa(lp5048
S'LOIS'
p5049
a(lp5050
S'Oh'
p5051
aS'yes'
p5052
aaa(lp5053
S'SUE'
p5054
a(lp5055
S'Jacky'
p5056
aaa(lp5057
g5054
a(lp5058
S'sits'
p5059
aS'down'
p5060
aS'there'
p5061
aS'and'
p5062
aS'starts'
p5063
aS'shoveling'
p5064
aS'in'
p5065
aS'the'
p5066
aS'food'
p5067
aaa(lp5068
g5054
a(lp5069
S'and'
p5070
aS'drinking'
p5071
aS'the'
p5072
aS'drinks'
p5073
aaa(lp5074
g5054
a(lp5075
S'and'
p5076
aS'its'
p5077
aS'really'
p5078
aaa(lp5079
g5054
a(lp5080
S'Its'
p5081
aS'funny'
p5082
aS'until'
p5083
aS'then'
p5084
aS'they'
p5085
aS'have'
p5086
aS'the'
p5087
aS'confrontation'
p5088
aS'with'
p5089
aS'Henry'
p5090
aaa(lp5091
S'EVELYN'
p5092
a(lp5093
S'Right'
p5094
aaa(lp5095
S'SUE'
p5096
a(lp5097
S'And'
p5098
aS'then'
p5099
aS'it'
p5100
aS'isnt'
p5101
aS'funny'
p5102
aS'anymore'
p5103
aaa(lp5104
S'EVELYN'
p5105
a(lp5106
S'Right'
p5107
aaa(lp5108
S'LINDA'
p5109
a(lp5110
S'Mm'
p5111
aaa(lp5112
S'SUE'
p5113
a(lp5114
S'But'
p5115
aS'it'
p5116
aS'is'
p5117
aS'kind'
p5118
aS'of'
p5119
aS'humorous'
p5120
aaa(lp5121
S'EVELYN'
p5122
a(lp5123
S'Well'
p5124
ag6
aaa(lp5125
g5122
a(lp5126
g6
aS'was'
p5127
aS'gonna'
p5128
aS'tell'
p5129
aS'you'
p5130
aS'of'
p5131
aS'the'
p5132
aS'one'
p5133
aS'oth'
p5134
aaa(lp5135
g5122
a(lp5136
S'the'
p5137
aS'other'
p5138
aaa(lp5139
g5122
a(lp5140
S'uh'
p5141
aS'young'
p5142
aS'person'
p5143
aaa(lp5144
g5122
a(lp5145
S'that'
p5146
ag6
aS'talked'
p5147
aS'to'
p5148
aS'about'
p5149
aS'the'
p5150
aS'book'
p5151
aaa(lp5152
g5122
a(lp5153
S'was'
p5154
ag112
aS'former'
p5155
aS'student'
p5156
aaa(lp5157
g5122
a(lp5158
S'who'
p5159
aS'is'
p5160
aS'now'
p5161
ag112
aS'psychiatrist'
p5162
aaa(lp5163
g5122
a(lp5164
S'who'
p5165
aS'lives'
p5166
aS'in'
p5167
aS'California'
p5168
aaa(lp5169
g5122
a(lp5170
S'We'
p5171
aS'were'
p5172
aS'talking'
p5173
aS'about'
p5174
aS'the'
p5175
aS'book'
p5176
aaa(lp5177
g5122
a(lp5178
S'or'
p5179
aS'about'
p5180
aS'the'
p5181
aS'movie'
p5182
aaa(lp5183
g5122
a(lp5184
S'He'
p5185
aS'hadnt'
p5186
aS'read'
p5187
aS'the'
p5188
aS'book'
p5189
aaa(lp5190
g5122
a(lp5191
S'He'
p5192
aS'said'
p5193
aaa(lp5194
g5122
a(lp5195
S'it'
p5196
aS'was'
p5197
ag112
aS'good'
p5198
aS'movie'
p5199
aaa(lp5200
g5122
a(lp5201
S'but'
p5202
aS'not'
p5203
ag112
aS'great'
p5204
aS'movie'
p5205
aaa(lp5206
g5122
a(lp5207
S'And'
p5208
aS'he'
p5209
aS'said'
p5210
aS'it'
p5211
aS'was'
p5212
aS'without'
p5213
aS'passion'
p5214
aaa(lp5215
S'LINDA'
p5216
a(lp5217
g50
aS'Oh'
p5218
aS'my'
p5219
ag50
aaa(lp5220
S'X'
p5221
a(lp5222
S'Hm'
p5223
aaa(lp5224
S'DIANE'
p5225
a(lp5226
S'Hm'
p5227
aaa(lp5228
S'EVELYN'
p5229
a(lp5230
S'So'
p5231
aaa(lp5232
g5229
a(lp5233
S'Now'
p5234
aaa(lp5235
S'X'
p5236
a(lp5237
g50
aS'Oh'
p5238
aaa(lp5239
g5236
a(lp5240
S'good'
p5241
aS'heavens'
p5242
ag50
aaa(lp5243
S'EVELYN'
p5244
a(lp5245
S'what'
p5246
aS'do'
p5247
aS'you'
p5248
aS'make'
p5249
aS'of'
p5250
aS'that'
p5251
aaa(lp5252
g5244
a(lp5253
g6
aS'dont'
p5254
aS'know'
p5255
ag3199
aaa(lp5256
S'DIANE'
p5257
a(lp5258
aa(lp5259
S'LINDA'
p5260
a(lp5261
S'M'
p5262
aaa(lp5263
S'JANICE'
p5264
a(lp5265
g6
aS'think'
p5266
aS'thats'
p5267
aS'typical'
p5268
aS'of'
p5269
aS'English'
p5270
aS'movies'
p5271
aaa(lp5272
S'DIANE'
p5273
a(lp5274
S'He'
p5275
aS'definitely'
p5276
aS'wouldnt'
p5277
aS'like'
p5278
aS'Michael'
p5279
aS'XX'
p5280
aaa(lp5281
S'EVELYN'
p5282
a(lp5283
S'Well'
p5284
aaa(lp5285
S'JANICE'
p5286
a(lp5287
S'Thats'
p5288
aaa(lp5289
S'EVELYN'
p5290
a(lp5291
S'Uh'
p5292
aS'uh'
p5293
aS'yeah'
p5294
aaa(lp5295
S'LORI'
p5296
a(lp5297
aa(lp5298
S'JANICE'
p5299
a(lp5300
g6
ag6
aS'really'
p5301
aS'do'
p5302
aaa(lp5303
S'EVELYN'
p5304
a(lp5305
g6
aS'thought'
p5306
aaa(lp5307
g5304
a(lp5308
S'uhuh'
p5309
aaa(lp5310
g5304
a(lp5311
g6
aS'thought'
p5312
aaa(lp5313
g5304
a(lp5314
S'and'
p5315
ag6
aS'think'
p5316
ag6
aS'said'
p5317
aaa(lp5318
g5304
a(lp5319
g526
aS'well'
p5320
aaa(lp5321
g5304
a(lp5322
S'maybe'
p5323
aS'it'
p5324
aS'was'
p5325
aS'because'
p5326
aS'it'
p5327
aS'was'
p5328
aS'English'
p5329
ag526
aaa(lp5330
g5304
a(lp5331
S'They'
p5332
ag50
aS'are'
p5333
ag50
aaa(lp5334
S'LINDA'
p5335
a(lp5336
S'Unhunh'
p5337
aaa(lp5338
S'EVELYN'
p5339
a(lp5340
S'its'
p5341
aS'all'
p5342
aS'kind'
p5343
aS'of'
p5344
aS'uh'
p5345
aaa(lp5346
S'LINDA'
p5347
a(lp5348
g6
aS'dont'
p5349
aS'know'
p5350
aS'how'
p5351
aS'you'
p5352
aS'can'
p5353
aS'say'
p5354
aS'its'
p5355
aS'without'
p5356
aS'passion'
p5357
aaa(lp5358
S'EVELYN'
p5359
a(lp5360
S'XX'
p5361
aaa(lp5362
g5359
a(lp5363
g6
aS'didnt'
p5364
aS'think'
p5365
aS'so'
p5366
aS'either'
p5367
aaa(lp5368
S'LINDA'
p5369
a(lp5370
g6
aS'mean'
p5371
aaa(lp5372
S'EVELYN'
p5373
a(lp5374
S'But'
p5375
ag50
ag6
aS'didnt'
p5376
aS'argue'
p5377
ag50
aaa(lp5378
S'PATTY'
p5379
a(lp5380
S'Well'
p5381
aS'the'
p5382
aS'passion'
p5383
aS'of'
p5384
aS'Leonard'
p5385
aS'Bast'
p5386
aaa(lp5387
g5379
a(lp5388
S'and'
p5389
aS'and'
p5390
aS'Helen'
p5391
aaa(lp5392
g5379
a(lp5393
S'and'
p5394
aS'then'
p5395
aS'the'
p5396
aS'passion'
p5397
aS'of'
p5398
aS'Charles'
p5399
aaa(lp5400
g5379
a(lp5401
S'and'
p5402
aS'the'
p5403
aS'confrontation'
p5404
aS'with'
p5405
aS'Leonard'
p5406
aaa(lp5407
S'EVELYN'
p5408
a(lp5409
S'Mhm'
p5410
aaa(lp5411
S'LORI'
p5412
a(lp5413
S'No'
p5414
aS'but'
p5415
aS'thats'
p5416
aS'tragedy'
p5417
aaa(lp5418
g5412
a(lp5419
S'Thats'
p5420
aS'not'
p5421
aS'necessarily'
p5422
aS'passion'
p5423
aaa(lp5424
S'LINDA'
p5425
a(lp5426
S'the'
p5427
aaa(lp5428
g5425
a(lp5429
S'Well'
p5430
aS'what'
p5431
aS'uh'
p5432
aaa(lp5433
S'PATTY'
p5434
a(lp5435
S'NO'
p5436
aS'but'
p5437
aS'it'
p5438
aS'was'
p5439
aS'XX'
p5440
aaa(lp5441
S'LINDA'
p5442
a(lp5443
S'XXX'
p5444
aS'what'
p5445
aS'are'
p5446
aS'we'
p5447
aS'talking'
p5448
aS'about'
p5449
aS'passion'
p5450
aaa(lp5451
S'EVELYN'
p5452
a(lp5453
S'Well'
p5454
ag6
aS'think'
p5455
aS'it'
p5456
aaa(lp5457
S'LINDA'
p5458
a(lp5459
S'Lets'
p5460
aS'define'
p5461
aS'passion'
p5462
aaa(lp5463
S'EVELYN'
p5464
a(lp5465
S'Well'
p5466
aS'XXXX'
p5467
ag6
aS'think'
p5468
aS'how'
p5469
aS'we'
p5470
aS'define'
p5471
aS'it'
p5472
aaa(lp5473
S'DEBORAH'
p5474
a(lp5475
S'XXX'
p5476
aS'passion'
p5477
aS'means'
p5478
aS'to'
p5479
aS'XX'
p5480
aaa(lp5481
S'EVELYN'
p5482
a(lp5483
S'Yeah'
p5484
aaa(lp5485
g5482
a(lp5486
S'Passion'
p5487
aaa(lp5488
S'MANY'
p5489
a(lp5490
S'Mhm'
p5491
aaa(lp5492
S'EVELYN'
p5493
a(lp5494
g6
aS'think'
p5495
aS'probably'
p5496
aS'he'
p5497
aS'meant'
p5498
aaa(lp5499
g5493
a(lp5500
S'well'
p5501
aaa(lp5502
g5493
a(lp5503
S'trong'
p5504
aS'feeling'
p5505
aaa(lp5506
S'LINDA'
p5507
a(lp5508
S'Yeah'
p5509
aaa(lp5510
S'EVELYN'
p5511
a(lp5512
S'Not'
p5513
aS'sex'
p5514
aaa(lp5515
S'LINDA'
p5516
a(lp5517
S'Yeah'
p5518
aaa(lp5519
S'LORI'
p5520
a(lp5521
S'Mhm'
p5522
aaa(lp5523
S'EVELYN'
p5524
a(lp5525
S'but'
p5526
aS'more'
p5527
aS'strong'
p5528
aS'feeling'
p5529
aaa(lp5530
S'LORI'
p5531
a(lp5532
S'Mhm'
p5533
aaa(lp5534
S'LINDA'
p5535
a(lp5536
S'Look'
p5537
aS'at'
p5538
aS'Margarets'
p5539
aS'uh'
p5540
aaa(lp5541
S'SUE'
p5542
a(lp5543
S'Well'
p5544
aS'certainly'
p5545
aS'there'
p5546
aS'wasnt'
p5547
aS'passion'
p5548
aS'between'
p5549
aS'Henry'
p5550
aS'and'
p5551
aS'Margaret'
p5552
aaa(lp5553
S'DIANE'
p5554
a(lp5555
S'Yeah'
p5556
aS'there'
p5557
aS'was'
p5558
aaa(lp5559
S'EVELYN'
p5560
a(lp5561
S'No'
p5562
aaa(lp5563
S'LINDA'
p5564
a(lp5565
S'Oh'
p5566
aS'yes'
p5567
aS'there'
p5568
aS'was'
p5569
aaa(lp5570
S'DIANE'
p5571
a(lp5572
S'No'
p5573
aaa(lp5574
S'EVELYN'
p5575
a(lp5576
S'but'
p5577
aS'strong'
p5578
aS'feelings'
p5579
aaa(lp5580
S'JANICE'
p5581
a(lp5582
S'but'
p5583
aaa(lp5584
S'SUE'
p5585
a(lp5586
S'Strong'
p5587
aaa(lp5588
g5585
a(lp5589
S'Well'
p5590
aaa(lp5591
S'JANICE'
p5592
a(lp5593
S'Strong'
p5594
aS'feeling'
p5595
aaa(lp5596
S'SUE'
p5597
a(lp5598
S'strong'
p5599
aS'feeling'
p5600
aaa(lp5601
S'JANICE'
p5602
a(lp5603
g6
aS'mean'
p5604
aS'it'
p5605
aS'isnt'
p5606
aaa(lp5607
S'SUE'
p5608
a(lp5609
S'but'
p5610
aS'not'
p5611
aS'passionate'
p5612
aaa(lp5613
S'LORI'
p5614
a(lp5615
g6
aS'dont'
p5616
aS'think'
p5617
aS'theres'
p5618
aS'strong'
p5619
aS'feelings'
p5620
aS'in'
p5621
aS'this'
p5622
aS'book'
p5623
aS'that'
p5624
aS'much'
p5625
aaa(lp5626
g5614
a(lp5627
S'nly'
p5628
aS'for'
p5629
aS'Howards'
p5630
aS'End'
p5631
aaa(lp5632
S'JANICE'
p5633
a(lp5634
S'Ruth'
p5635
aS'had'
p5636
aaa(lp5637
S'LORI'
p5638
a(lp5639
S'Ruth'
p5640
aS'had'
p5641
aS'strong'
p5642
aS'feelings'
p5643
aS'for'
p5644
aS'Howards'
p5645
aS'End'
p5646
aaa(lp5647
g5638
a(lp5648
S'and'
p5649
aS'it'
p5650
aS'didnt'
p5651
aS'do'
p5652
aS'her'
p5653
aS'one'
p5654
aS'bit'
p5655
aS'of'
p5656
aS'good'
p5657
aaa(lp5658
g5638
a(lp5659
S'because'
p5660
aS'it'
p5661
aaa(lp5662
g5638
a(lp5663
S'her'
p5664
aS'bequest'
p5665
aS'was'
p5666
aS'ignored'
p5667
aaa(lp5668
g5638
a(lp5669
S'and'
p5670
aS'the'
p5671
aS'rest'
p5672
aS'of'
p5673
aS'the'
p5674
aS'people'
p5675
aS'are'
p5676
aS'just'
p5677
aS'kind'
p5678
aS'of'
p5679
aS'floating'
p5680
aS'along'
p5681
aaa(lp5682
S'LINDA'
p5683
a(lp5684
S'Oh'
p5685
aS'no'
p5686
aS'no'
p5687
aS'no'
p5688
aS'no'
p5689
aS'no'
p5690
aaa(lp5691
S'DIANE'
p5692
a(lp5693
aa(lp5694
S'LORI'
p5695
a(lp5696
S'See'
p5697
aaa(lp5698
g5695
a(lp5699
g6
aS'dont'
p5700
aS'get'
p5701
aS'that'
p5702
aaa(lp5703
S'LINDA'
p5704
a(lp5705
S'Helen'
p5706
aS'has'
p5707
aS'tremendous'
p5708
aS'passion'
p5709
aS'about'
p5710
aS'her'
p5711
aS'beliefs'
p5712
aaa(lp5713
g5704
a(lp5714
S'Margarets'
p5715
aS'speech'
p5716
aS'to'
p5717
aS'Henry'
p5718
aaa(lp5719
S'LORI'
p5720
a(lp5721
S'Well'
p5722
aS'about'
p5723
aS'her'
p5724
aS'beliefs'
p5725
aaa(lp5726
g5720
a(lp5727
S'but'
p5728
aS'they'
p5729
aS'dont'
p5730
aS'make'
p5731
aS'one'
p5732
aS'bit'
p5733
aS'of'
p5734
aS'difference'
p5735
aaa(lp5736
g5720
a(lp5737
S'in'
p5738
aS'the'
p5739
aS'whole'
p5740
aS'world'
p5741
aaa(lp5742
S'LINDA'
p5743
a(lp5744
S'Margarets'
p5745
aS'speech'
p5746
aS'to'
p5747
aS'Henry'
p5748
aaa(lp5749
S'LORI'
p5750
a(lp5751
aa(lp5752
S'LINDA'
p5753
a(lp5754
S'is'
p5755
aS'one'
p5756
aS'of'
p5757
aS'the'
p5758
aS'most'
p5759
aS'passionate'
p5760
aS'things'
p5761
ag6
aS'have'
p5762
aS'ever'
p5763
aS'read'
p5764
aaa(lp5765
S'LORI'
p5766
a(lp5767
g50
aS'Well'
p5768
ag6
aS'found'
p5769
aS'that'
p5770
aS'part'
p5771
ag50
aS'XX'
p5772
aaa(lp5773
S'LINDA'
p5774
a(lp5775
g6
aS'thought'
p5776
aaa(lp5777
S'EVELYN'
p5778
a(lp5779
S'She'
p5780
aS'mowed'
p5781
aS'him'
p5782
aS'down'
p5783
aaa(lp5784
g5778
a(lp5785
S'didnt'
p5786
aS'she'
p5787
aaa(lp5788
S'EVELYN'
p5789
a(lp5790
g6
aS'thought'
p5791
aS'it'
p5792
aS'was'
p5793
aS'beautiful'
p5794
aaa(lp5795
S'PATTY'
p5796
a(lp5797
S'Mhm'
p5798
aaa(lp5799
S'LINDA'
p5800
a(lp5801
S'and'
p5802
aS'later'
p5803
aS'it'
p5804
aS'says'
p5805
aaa(lp5806
g5800
a(lp5807
S'she'
p5808
aS'thought'
p5809
aS'back'
p5810
aS'over'
p5811
aS'that'
p5812
aaa(lp5813
g5800
a(lp5814
S'and'
p5815
aS'she'
p5816
aS'wouldnt'
p5817
aS'have'
p5818
aS'changed'
p5819
ag112
aS'word'
p5820
aS'of'
p5821
aS'it'
p5822
aaa(lp5823
S'MANY'
p5824
a(lp5825
aa(lp5826
S'LINDA'
p5827
a(lp5828
S'absolutely'
p5829
aaa(lp5830
g5827
a(lp5831
S'oh'
p5832
ag6
aS'think'
p5833
aS'there'
p5834
aS'was'
p5835
ag112
aS'lot'
p5836
aS'of'
p5837
aS'feeling'
p5838
aaa(lp5839
g5827
a(lp5840
g112
aS'lot'
p5841
aS'of'
p5842
aS'feeling'
p5843
aaa(lp5844
S'DIANE'
p5845
a(lp5846
S'Was'
p5847
aS'this'
p5848
aS'novel'
p5849
aS'popular'
p5850
aS'when'
p5851
aS'it'
p5852
aS'was'
p5853
aS'published'
p5854
aaa(lp5855
S'EVELYN'
p5856
a(lp5857
S'Uh'
p5858
aaa(lp5859
g5856
a(lp5860
S'according'
p5861
aS'to'
p5862
aS'the'
p5863
aS'professor'
p5864
aaa(lp5865
S'X'
p5866
a(lp5867
aa(lp5868
S'SUE'
p5869
a(lp5870
aa(lp5871
S'LORI'
p5872
a(lp5873
aa(lp5874
S'EVELYN'
p5875
a(lp5876
g50
aS'that'
p5877
ag50
aS'it'
p5878
aS'is'
p5879
ag112
aS'classic'
p5880
aS'of'
p5881
aS'change'
p5882
aaa(lp5883
g5875
a(lp5884
S'It'
p5885
aS'is'
p5886
ag3199
aS'uh'
p5887
aS'one'
p5888
aS'of'
p5889
aS'the'
p5890
aS'uh'
p5891
aaa(lp5892
g5875
a(lp5893
S'classic'
p5894
aS'novels'
p5895
aaa(lp5896
g5875
a(lp5897
S'that'
p5898
aS'has'
p5899
aS'to'
p5900
aS'do'
p5901
aS'with'
p5902
aS'change'
p5903
aaa(lp5904
S'LINDA'
p5905
a(lp5906
S'But'
p5907
aS'did'
p5908
aS'the'
p5909
aS'people'
p5910
aS'like'
p5911
aS'it'
p5912
aaa(lp5913
S'JANICE'
p5914
a(lp5915
S'Tradition'
p5916
aS'and'
p5917
aS'change'
p5918
aaa(lp5919
S'LINDA'
p5920
a(lp5921
S'When'
p5922
aS'they'
p5923
aS'read'
p5924
aS'it'
p5925
aaa(lp5926
g5920
a(lp5927
S'Back'
p5928
aS'then'
p5929
aaa(lp5930
S'EVELYN'
p5931
a(lp5932
g6
aS'would'
p5933
aS'imagine'
p5934
aS'that'
p5935
aS'he'
p5936
aS'was'
p5937
aS'popular'
p5938
aS'with'
p5939
aS'XXX'
p5940
aaa(lp5941
S'NORA'
p5942
a(lp5943
S'Well'
p5944
aS'is'
p5945
aS'it'
p5946
aS'being'
p5947
aS'revived'
p5948
aS'now'
p5949
aaa(lp5950
S'LINDA'
p5951
a(lp5952
g6
aS'think'
p5953
aS'he'
p5954
aS'was'
p5955
aS'popular'
p5956
aaa(lp5957
S'EVELYN'
p5958
a(lp5959
S'Or'
p5960
aaa(lp5961
S'DIANE'
p5962
a(lp5963
S'seems'
p5964
aS'to'
p5965
aS'be'
p5966
aaa(lp5967
S'KIM'
p5968
a(lp5969
S'well'
p5970
aaa(lp5971
g5968
a(lp5972
S'in'
p5973
aS'the'
p5974
aS'introduction'
p5975
aS'it'
p5976
aS'said'
p5977
aaa(lp5978
S'LINDA'
p5979
a(lp5980
g6
aS'dont'
p5981
aS'know'
p5982
aaa(lp5983
S'KIM'
p5984
a(lp5985
S'that'
p5986
aS'in'
p5987
aS'the'
p5988
aS'forties'
p5989
aaa(lp5990
S'NORA'
p5991
a(lp5992
S'They'
p5993
aS'are'
p5994
aS'doing'
p5995
aS'that'
p5996
aS'with'
p5997
aS'so'
p5998
aS'many'
p5999
aS'of'
p6000
aS'those'
p6001
aS'now'
p6002
aaa(lp6003
S'KIM'
p6004
a(lp6005
S'when'
p6006
aS'they'
p6007
ag3199
aaa(lp6008
g6004
a(lp6009
S'you'
p6010
aS'had'
p6011
aS'uh'
p6012
aaa(lp6013
g6004
a(lp6014
S'Fitz'
p6015
aS'uh'
p6016
aS'gerald'
p6017
aaa(lp6018
g6004
a(lp6019
S'and'
p6020
aS'uh'
p6021
aaa(lp6022
S'LORI'
p6023
a(lp6024
S'Hemingway'
p6025
aaa(lp6026
S'KIM'
p6027
a(lp6028
S'and'
p6029
aS'other'
p6030
aS'wellknown'
p6031
aS'writers'
p6032
aaa(lp6033
g6027
a(lp6034
S'uh'
p6035
aaa(lp6036
g6027
a(lp6037
S'Hemingway'
p6038
aS'and'
p6039
aS'Faulkner'
p6040
aaa(lp6041
g6027
a(lp6042
S'and'
p6043
aaa(lp6044
g6027
a(lp6045
S'and'
p6046
aS'yet'
p6047
aS'this'
p6048
aS'guy'
p6049
aS'was'
p6050
aS'still'
p6051
aS'up'
p6052
aS'there'
p6053
aS'in'
p6054
aS'the'
p6055
aS'forties'
p6056
aaa(lp6057
g6027
a(lp6058
S'And'
p6059
aS'this'
p6060
aS'book'
p6061
aS'was'
p6062
aS'written'
p6063
aS'in'
p6064
aS'nineteen'
p6065
aS'ten'
p6066
aaa(lp6067
g6027
a(lp6068
g6
aS'didnt'
p6069
aS'care'
p6070
aS'for'
p6071
aS'it'
p6072
aaa(lp6073
g6027
a(lp6074
g6
aaa(lp6075
g6027
a(lp6076
S'well'
p6077
aS'you'
p6078
aS'know'
p6079
aS'what'
p6080
aS'turned'
p6081
aS'me'
p6082
aS'off'
p6083
aaa(lp6084
g6027
a(lp6085
S'The'
p6086
aS'the'
p6087
aS'hi'
p6088
aS'the'
p6089
aS'big'
p6090
aS'description'
p6091
aS'about'
p6092
aS'the'
p6093
aS'dumb'
p6094
aS'old'
p6095
aS'umbrella'
p6096
aaa(lp6097
S'MANY'
p6098
a(lp6099
aa(lp6100
S'KIM'
p6101
a(lp6102
S'and'
p6103
aS'did'
p6104
aS'the'
p6105
aS'umbrella'
p6106
aS'have'
p6107
aS'uh'
p6108
aaa(lp6109
g6101
a(lp6110
g112
aS'smooth'
p6111
aS'end'
p6112
aS'on'
p6113
aS'it'
p6114
aaa(lp6115
g6101
a(lp6116
S'or'
p6117
aS'did'
p6118
aS'it'
p6119
aS'have'
p6120
ag112
aS'knobby'
p6121
aS'end'
p6122
aaa(lp6123
S'MANY'
p6124
a(lp6125
aa(lp6126
g6124
a(lp6127
S'and'
p6128
ag6
aS'thought'
p6129
aaa(lp6130
g6124
a(lp6131
S'for'
p6132
aS'crying'
p6133
aS'out'
p6134
aaa(lp6135
g6124
a(lp6136
S'why'
p6137
aS'am'
p6138
ag6
aS'sitting'
p6139
aS'wasting'
p6140
aS'my'
p6141
aS'time'
p6142
aS'reading'
p6143
aS'about'
p6144
aS'umbrela'
p6145
aS'hands'
p6146
aaa(lp6147
S'X'
p6148
a(lp6149
aa(lp6150
S'SUE'
p6151
a(lp6152
aa(lp6153
g6151
a(lp6154
S'and'
p6155
aS'then'
p6156
aS'Helen'
p6157
aS'says'
p6158
aaa(lp6159
S'KIM'
p6160
a(lp6161
S'and'
p6162
aaa(lp6163
g6160
a(lp6164
S'and'
p6165
aS'the'
p6166
aS'description'
p6167
aS'of'
p6168
aS'the'
p6169
aS'music'
p6170
aaa(lp6171
S'SUE'
p6172
a(lp6173
g526
aS'oh'
p6174
aaa(lp6175
g6172
a(lp6176
S'we'
p6177
aS'gr'
p6178
aaa(lp6179
g6172
a(lp6180
S'we'
p6181
aS'steal'
p6182
aS'umbrellas'
p6183
aS'all'
p6184
aS'the'
p6185
aS'time'
p6186
ag526
aaa(lp6187
S'KIM'
p6188
a(lp6189
S'and'
p6190
ag50
aS'XXX'
p6191
aS'XXX'
p6192
aaa(lp6193
S'LORI'
p6194
a(lp6195
S'We'
p6196
aS'steal'
p6197
aS'em'
p6198
aS'all'
p6199
aS'the'
p6200
aS'time'
p6201
aaa(lp6202
S'DIANE'
p6203
a(lp6204
aa(lp6205
S'LINDA'
p6206
a(lp6207
S'That'
p6208
aS'was'
p6209
aS'part'
p6210
aS'of'
p6211
aS'the'
p6212
aS'humor'
p6213
aaa(lp6214
S'KIM'
p6215
a(lp6216
S'Theres'
p6217
aS'got'
p6218
aS'to'
p6219
aS'be'
p6220
aS'something'
p6221
aS'better'
p6222
aS'to'
p6223
aS'read'
p6224
aaa(lp6225
S'SUE'
p6226
a(lp6227
aa(lp6228
S'EVELYN'
p6229
a(lp6230
S'Hunh'
p6231
aaa(lp6232
S'LINDA'
p6233
a(lp6234
aa(lp6235
S'JANICE'
p6236
a(lp6237
S'Now'
p6238
aS'that'
p6239
aS'was'
p6240
aS'supposed'
p6241
aS'to'
p6242
aS'be'
p6243
aS'part'
p6244
aS'of'
p6245
aS'the'
p6246
aaa(lp6247
S'DIANE'
p6248
a(lp6249
aa(lp6250
S'JANICE'
p6251
a(lp6252
g6
aS'did'
p6253
aaa(lp6254
g6251
a(lp6255
g6
aS'did'
p6256
aS'not'
p6257
aS'enjoy'
p6258
aaa(lp6259
S'KIM'
p6260
a(lp6261
S'Was'
p6262
aS'that'
p6263
aS'supposed'
p6264
aS'to'
p6265
aS'be'
p6266
aS'humor'
p6267
aaa(lp6268
g6260
a(lp6269
g6
ag6
aaa(lp6270
S'JANICE'
p6271
a(lp6272
S'Thats'
p6273
aS'English'
p6274
aS'humor'
p6275
aaa(lp6276
S'DEBORAH'
p6277
a(lp6278
S'Did'
p6279
aS'you'
p6280
aS'enjoy'
p6281
aS'it'
p6282
aaa(lp6283
S'LINDA'
p6284
a(lp6285
S'Somewhat'
p6286
aaa(lp6287
S'EVELYN'
p6288
a(lp6289
S'Mhm'
p6290
aaa(lp6291
S'LINDA'
p6292
a(lp6293
S'Or'
p6294
aS'at'
p6295
aS'least'
p6296
aS'Helen'
p6297
aS'and'
p6298
aS'Margarets'
p6299
aS'humor'
p6300
aaa(lp6301
S'JANICE'
p6302
a(lp6303
g6
aS'did'
p6304
aS'not'
p6305
aS'enjoy'
p6306
aS'reading'
p6307
ag50
aS'the'
p6308
aS'book'
p6309
ag50
aaa(lp6310
S'DIANE'
p6311
a(lp6312
g50
ag50
aS'above'
p6313
aS'average'
p6314
ag50
aaa(lp6315
S'LINDA'
p6316
a(lp6317
S'That'
p6318
aS'was'
p6319
aS'their'
p6320
aS'humor'
p6321
aaa(lp6322
S'MANY'
p6323
a(lp6324
S'Mhm'
p6325
aaa(lp6326
S'DEBORAH'
p6327
a(lp6328
g6
aS'just'
p6329
aS'couldnt'
p6330
aS'XXXX'
p6331
aaa(lp6332
S'JANICE'
p6333
a(lp6334
S'But'
p6335
ag6
aS'enjoyed'
p6336
aS'the'
p6337
aS'movie'
p6338
aaa(lp6339
S'DEBORAH'
p6340
a(lp6341
S'Couldnt'
p6342
aS'quite'
p6343
aS'get'
p6344
aS'into'
p6345
aS'it'
p6346
aaa(lp6347
S'JANICE'
p6348
a(lp6349
aa(lp6350
S'DIANE'
p6351
a(lp6352
g50
aS'Yeah'
p6353
ag50
aaa(lp6354
S'JANICE'
p6355
a(lp6356
g6
aS'think'
p6357
aS'that'
p6358
aS'helped'
p6359
aS'me'
p6360
aS'appreciate'
p6361
aS'the'
p6362
aS'book'
p6363
aaa(lp6364
S'LORI'
p6365
a(lp6366
S'Well'
p6367
aS'Evelyn'
p6368
aS'helped'
p6369
aS'me'
p6370
aS'stay'
p6371
aS'with'
p6372
aS'the'
p6373
aS'book'
p6374
aaa(lp6375
g6365
a(lp6376
S'Because'
p6377
aS'she'
p6378
aS'said'
p6379
aS'it'
p6380
aS'was'
p6381
aS'written'
p6382
aS'in'
p6383
ag112
aS'different'
p6384
aS'time'
p6385
aaa(lp6386
g6365
a(lp6387
S'and'
p6388
aS'of'
p6389
aS'course'
p6390
aS'its'
p6391
aS'British'
p6392
aaa(lp6393
g6365
a(lp6394
S'and'
p6395
aS'so'
p6396
aaa(lp6397
g6365
a(lp6398
S'because'
p6399
ag6
aS'was'
p6400
aS'having'
p6401
aS'trouble'
p6402
aS'getting'
p6403
aS'started'
p6404
aaa(lp6405
g6365
a(lp6406
g6
aS'got'
p6407
aS'hung'
p6408
aS'up'
p6409
aaa(lp6410
S'X'
p6411
a(lp6412
aa(lp6413
S'LORI'
p6414
a(lp6415
S'and'
p6416
aS'it'
p6417
aS'doesnt'
p6418
aS'make'
p6419
aS'any'
p6420
aS'difference'
p6421
aaa(lp6422
g6414
a(lp6423
S'but'
p6424
aaa(lp6425
g6414
a(lp6426
S'when'
p6427
aS'you'
p6428
aS'were'
p6429
aS'reading'
p6430
aS'the'
p6431
aS'review'
p6432
aaa(lp6433
g6414
a(lp6434
S'you'
p6435
aS'talked'
p6436
aS'about'
p6437
aS'the'
p6438
aS'affair'
p6439
aS'between'
p6440
aS'Helen'
p6441
aS'and'
p6442
aS'Paul'
p6443
aaa(lp6444
g6414
a(lp6445
S'did'
p6446
ag6
aS'get'
p6447
aS'the'
p6448
aS'right'
p6449
aS'names'
p6450
aaa(lp6451
g6414
a(lp6452
S'And'
p6453
ag6
aS'thought'
p6454
aaa(lp6455
g6414
a(lp6456
S'all'
p6457
aS'that'
p6458
aS'happened'
p6459
aS'was'
p6460
aaa(lp6461
S'LINDA'
p6462
a(lp6463
S'was'
p6464
ag112
aS'kiss'
p6465
aaa(lp6466
S'LORI'
p6467
a(lp6468
S'He'
p6469
aaa(lp6470
S'LINDA'
p6471
a(lp6472
aa(lp6473
S'LORI'
p6474
a(lp6475
S'He'
p6476
aS'kissed'
p6477
aS'her'
p6478
aaa(lp6479
g6474
a(lp6480
S'and'
p6481
aaa(lp6482
g6474
a(lp6483
S'and'
p6484
aS'they'
p6485
aS'had'
p6486
aaa(lp6487
S'SUE'
p6488
a(lp6489
g6
aS'thought'
p6490
aS'so'
p6491
aS'too'
p6492
aaa(lp6493
S'LOIS'
p6494
a(lp6495
g6
aS'thought'
p6496
aS'so'
p6497
aS'too'
p6498
aaa(lp6499
S'LORI'
p6500
a(lp6501
S'And'
p6502
aS'they'
p6503
aS'had'
p6504
aS'this'
p6505
aaa(lp6506
g6500
a(lp6507
S'and'
p6508
aS'they'
p6509
aS'had'
p6510
aS'this'
p6511
aS'understanding'
p6512
aS'of'
p6513
aS'the'
p6514
aS'souls'
p6515
aaa(lp6516
S'JANICE'
p6517
a(lp6518
S'Oh'
p6519
aaa(lp6520
g6517
a(lp6521
S'yes'
p6522
aaa(lp6523
S'LORI'
p6524
a(lp6525
S'that'
p6526
aS'they'
p6527
aS'were'
p6528
aS'in'
p6529
aS'love'
p6530
aaa(lp6531
S'LINDA'
p6532
a(lp6533
S'Yeah'
p6534
aaa(lp6535
g6532
a(lp6536
g6
aS'think'
p6537
aS'thats'
p6538
aS'true'
p6539
aaa(lp6540
S'LORI'
p6541
a(lp6542
S'And'
p6543
aaa(lp6544
S'X'
p6545
a(lp6546
aa(lp6547
S'LORI'
p6548
a(lp6549
S'and'
p6550
aS'Im'
p6551
aS'thinking'
p6552
aaa(lp6553
g6548
a(lp6554
S'what'
p6555
aS'is'
p6556
aS'the'
p6557
aS'big'
p6558
aS'deal'
p6559
aS'about'
p6560
aS'this'
p6561
aaa(lp6562
g6548
a(lp6563
S'This'
p6564
aS'aunt'
p6565
aS'is'
p6566
aS'coming'
p6567
aS'down'
p6568
aS'here'
p6569
aaa(lp6570
S'X'
p6571
a(lp6572
aa(lp6573
S'LORI'
p6574
a(lp6575
S'Everybodys'
p6576
aS'getting'
p6577
aS'in'
p6578
aS'an'
p6579
aS'uproar'
p6580
aaa(lp6581
S'X'
p6582
a(lp6583
aa(lp6584
S'LORI'
p6585
a(lp6586
S'because'
p6587
aS'somebody'
p6588
aS'thought'
p6589
aS'they'
p6590
aS'liked'
p6591
aS'somebody'
p6592
aaa(lp6593
g6585
a(lp6594
g6
aaa(lp6595
g6585
a(lp6596
S'you'
p6597
aS'know'
p6598
aaa(lp6599
g6585
a(lp6600
g6
aS'got'
p6601
aS'lost'
p6602
aS'in'
p6603
aS'that'
p6604
aaa(lp6605
g6585
a(lp6606
S'and'
p6607
aaa(lp6608
g6585
a(lp6609
g6
aS'talked'
p6610
aS'to'
p6611
aS'Evelyn'
p6612
aaa(lp6613
g6585
a(lp6614
S'and'
p6615
aS'she'
p6616
aS'said'
p6617
ag526
aS'now'
p6618
ag2837
aS'just'
p6619
aS'stay'
p6620
aS'with'
p6621
aS'it'
p6622
aaa(lp6623
g6585
a(lp6624
S'its'
p6625
aS'written'
p6626
aS'in'
p6627
ag112
aS'different'
p6628
aS'time'
p6629
ag526
aaa(lp6630
g6585
a(lp6631
S'and'
p6632
ag6
aS'thought'
p6633
aS'okay'
p6634
aaa(lp6635
g6585
a(lp6636
g112
aS'different'
p6637
aS'time'
p6638
aaa(lp6639
g6585
a(lp6640
S'yes'
p6641
aaa(lp6642
g6585
a(lp6643
S'maybe'
p6644
aS'that'
p6645
aS'is'
p6646
aS'important'
p6647
aaa(lp6648
S'EVELYN'
p6649
a(lp6650
aa(lp6651
S'LORI'
p6652
a(lp6653
S'You'
p6654
aS'know'
p6655
aaa(lp6656
S'DIANE'
p6657
a(lp6658
aa(lp6659
S'LORI'
p6660
a(lp6661
g50
aS'Come'
p6662
aS'on'
p6663
ag50
aaa(lp6664
S'LINDA'
p6665
a(lp6666
S'Well'
p6667
aS'Lori'
p6668
aaa(lp6669
S'DIANE'
p6670
a(lp6671
aa(lp6672
S'LINDA'
p6673
a(lp6674
S'did'
p6675
aS'you'
p6676
aS'see'
p6677
aS'the'
p6678
aS'movie'
p6679
aaa(lp6680
S'LORI'
p6681
a(lp6682
S'So'
p6683
aaa(lp6684
g6681
a(lp6685
S'No'
p6686
aaa(lp6687
g6681
a(lp6688
S'Im'
p6689
aS'going'
p6690
aS'to'
p6691
aS'rent'
p6692
aS'it'
p6693
aaa(lp6694
g6681
a(lp6695
S'After'
p6696
ag6
aS'leave'
p6697
ag50
aS'here'
p6698
aS'today'
p6699
ag50
aaa(lp6700
S'LINDA'
p6701
a(lp6702
S'See'
p6703
ag6
aS'think'
p6704
aaa(lp6705
g6701
a(lp6706
g6
aS'think'
p6707
aS'its'
p6708
aS'better'
p6709
aS'to'
p6710
aS'see'
p6711
aS'the'
p6712
aS'movie'
p6713
aS'first'
p6714
aaa(lp6715
S'EVELYN'
p6716
a(lp6717
aa(lp6718
S'DIANE'
p6719
a(lp6720
g6
aS'am'
p6721
aS'too'
p6722
aS'Lori'
p6723
aaa(lp6724
S'LINDA'
p6725
a(lp6726
S'and'
p6727
aS'then'
p6728
aS'read'
p6729
aS'the'
p6730
aS'book'
p6731
aaa(lp6732
S'LORI'
p6733
a(lp6734
g6
aS'think'
p6735
aS'itll'
p6736
aS'help'
p6737
aaa(lp6738
S'LINDA'
p6739
a(lp6740
g6
aS'think'
p6741
aS'it'
p6742
aaa(lp6743
S'LORI'
p6744
a(lp6745
g6
aS'think'
p6746
aaa(lp6747
g6744
a(lp6748
S'Well'
p6749
aaa(lp6750
g6744
a(lp6751
S'and'
p6752
aS'its'
p6753
aS'getting'
p6754
ag112
aS'little'
p6755
ag1632
aaa(lp6756
S'EVELYN'
p6757
a(lp6758
g5262
aaa(lp6759
S'LINDA'
p6760
a(lp6761
S'Its'
p6762
ag112
aS'good'
p6763
aS'way'
p6764
aS'to'
p6765
aS'do'
p6766
aS'it'
p6767
aaa(lp6768
S'LORI'
p6769
a(lp6770
S'you'
p6771
aS'know'
p6772
aaa(lp6773
g6769
a(lp6774
S'Im'
p6775
aS'getting'
p6776
aS'more'
p6777
aS'into'
p6778
aS'the'
p6779
aS'characters'
p6780
aaa(lp6781
S'X'
p6782
a(lp6783
aa(lp6784
S'PATTY'
p6785
a(lp6786
S'Well'
p6787
aaa(lp6788
S'EVELYN'
p6789
a(lp6790
S'Mhm'
p6791
aaa(lp6792
S'PATTY'
p6793
a(lp6794
S'One'
p6795
aS'time'
p6796
aS'in'
p6797
aS'this'
p6798
aS'group'
p6799
aaa(lp6800
S'LORI'
p6801
a(lp6802
aa(lp6803
S'DIANE'
p6804
a(lp6805
aa(lp6806
S'PATTY'
p6807
a(lp6808
S'and'
p6809
ag6
aS'think'
p6810
aS'it'
p6811
aS'was'
p6812
aaa(lp6813
g6807
a(lp6814
g6
aS'dont'
p6815
aS'remember'
p6816
aS'if'
p6817
aS'it'
p6818
aS'was'
p6819
aS'Evelyn'
p6820
aS'or'
p6821
aS'Deborah'
p6822
aaa(lp6823
g6807
a(lp6824
S'But'
p6825
aS'it'
p6826
aS'was'
p6827
aS'probably'
p6828
aaa(lp6829
g6807
a(lp6830
S'it'
p6831
aS'was'
p6832
aS'one'
p6833
aS'of'
p6834
aS'those'
p6835
aS'people'
p6836
aS'who'
p6837
aS'are'
p6838
aS'so'
p6839
aS'knowledgeable'
p6840
aaa(lp6841
S'DIANE'
p6842
a(lp6843
aa(lp6844
S'PATTY'
p6845
a(lp6846
S'it'
p6847
aS'wasnt'
p6848
aaa(lp6849
g6845
a(lp6850
S'was'
p6851
aaa(lp6852
S'EVELYN'
p6853
a(lp6854
aa(lp6855
g6853
a(lp6856
S'Oh'
p6857
aaa(lp6858
S'PATTY'
p6859
a(lp6860
S'certainly'
p6861
aS'wasnt'
p6862
aS'any'
p6863
ag50
aS'of'
p6864
aS'us'
p6865
ag50
aaa(lp6866
S'LORI'
p6867
a(lp6868
S'Might'
p6869
aS'have'
p6870
aS'been'
p6871
aS'Nora'
p6872
aaa(lp6873
S'EVELYN'
p6874
a(lp6875
S'Come'
p6876
aS'on'
p6877
aaa(lp6878
g6874
a(lp6879
S'Tell'
p6880
aS'me'
p6881
aS'about'
p6882
aS'it'
p6883
aaa(lp6884
S'MANY'
p6885
a(lp6886
aa(lp6887
S'PATTY'
p6888
a(lp6889
S'He'
p6890
aaa(lp6891
g6888
a(lp6892
S'He'
p6893
aS'talked'
p6894
aaa(lp6895
g6888
a(lp6896
S'They'
p6897
aS'talked'
p6898
aS'about'
p6899
aS'what'
p6900
aS'makes'
p6901
ag112
aS'classic'
p6902
aaa(lp6903
S'LINDA'
p6904
a(lp6905
aa(lp6906
g6904
a(lp6907
S'Oh'
p6908
aaa(lp6909
S'PATTY'
p6910
a(lp6911
S'And'
p6912
aS'they'
p6913
aS'had'
p6914
aS'several'
p6915
aS'criteria'
p6916
aaa(lp6917
S'LORI'
p6918
a(lp6919
S'Oh'
p6920
aaa(lp6921
S'PATTY'
p6922
a(lp6923
S'and'
p6924
aS'Ive'
p6925
aS'forgotten'
p6926
aS'some'
p6927
aS'of'
p6928
aS'them'
p6929
aaa(lp6930
S'X'
p6931
a(lp6932
aa(lp6933
S'LINDA'
p6934
a(lp6935
S'Oh'
p6936
aaa(lp6937
S'PATTY'
p6938
a(lp6939
S'but'
p6940
aS'the'
p6941
aS'ones'
p6942
ag6
aS'can'
p6943
aS'think'
p6944
aS'of'
p6945
aaa(lp6946
g6938
a(lp6947
S'is'
p6948
aS'that'
p6949
aS'it'
p6950
aS'has'
p6951
aS'to'
p6952
aS'be'
p6953
aS'able'
p6954
aS'to'
p6955
aS'be'
p6956
aS'read'
p6957
aS'on'
p6958
aS'many'
p6959
aS'levels'
p6960
aaa(lp6961
S'LINDA'
p6962
a(lp6963
S'Yeah'
p6964
aaa(lp6965
S'PATTY'
p6966
a(lp6967
S'And'
p6968
ag6
aS'think'
p6969
aS'that'
p6970
aS'this'
p6971
aS'is'
p6972
aS'one'
p6973
aS'of'
p6974
aS'those'
p6975
aS'books'
p6976
aaa(lp6977
S'LINDA'
p6978
a(lp6979
S'This'
p6980
aS'one'
p6981
aS'does'
p6982
aaa(lp6983
S'PATTY'
p6984
a(lp6985
S'that'
p6986
aS'you'
p6987
aS'can'
p6988
aS'read'
p6989
aaa(lp6990
g6984
a(lp6991
S'as'
p6992
aS'just'
p6993
ag112
aS'story'
p6994
aS'about'
p6995
aS'these'
p6996
aS'people'
p6997
aS'who'
p6998
aS'are'
p6999
aS'wanting'
p7000
aS'to'
p7001
aS'to'
p7002
aS'live'
p7003
aS'at'
p7004
aS'this'
p7005
aS'Howards'
p7006
aS'End'
p7007
aaa(lp7008
g6984
a(lp7009
S'or'
p7010
aS'you'
p7011
aS'can'
p7012
aS'read'
p7013
aS'it'
p7014
aS'as'
p7015
aS'the'
p7016
aS'clash'
p7017
aS'between'
p7018
aS'the'
p7019
aS'intellectual'
p7020
aaa(lp7021
g6984
a(lp7022
S'and'
p7023
aS'the'
p7024
aS'practical'
p7025
aaa(lp7026
g6984
a(lp7027
S'or'
p7028
aS'between'
p7029
aS'England'
p7030
aS'and'
p7031
aS'Germany'
p7032
aaa(lp7033
g6984
a(lp7034
S'Which'
p7035
aS'is'
p7036
aS'really'
p7037
aS'what'
p7038
aS'theyre'
p7039
aS'getting'
p7040
aS'down'
p7041
aS'to'
p7042
aS'was'
p7043
aS'the'
p7044
aS'basis'
p7045
aS'of'
p7046
aS'thata'
p7047
aaa(lp7048
S'LINDA'
p7049
a(lp7050
S'Mhm'
p7051
aaa(lp7052
S'X'
p7053
a(lp7054
S'Mhm'
p7055
aaa(lp7056
S'LORI'
p7057
a(lp7058
g50
aS'That'
p7059
aS'was'
p7060
aS'something'
p7061
ag50
aaa(lp7062
S'EVELYN'
p7063
a(lp7064
S'Mhm'
p7065
aaa(lp7066
S'PATTY'
p7067
a(lp7068
S'It'
p7069
aS'can'
p7070
aS'be'
p7071
aS'read'
p7072
aS'at'
p7073
aS'any'
p7074
aS'time'
p7075
aaa(lp7076
g7067
a(lp7077
S'it'
p7078
aS'can'
p7079
aS'ap'
p7080
aS'ply'
p7081
aS'to'
p7082
aS'England'
p7083
aS'in'
p7084
aS'nineteen'
p7085
aS'ten'
p7086
aaa(lp7087
g7067
a(lp7088
S'or'
p7089
aS'it'
p7090
aS'can'
p7091
aS'apply'
p7092
aS'to'
p7093
aS'America'
p7094
aS'in'
p7095
aS'nineteen'
p7096
aS'ninetythree'
p7097
aaa(lp7098
g7067
a(lp7099
S'with'
p7100
aS'how'
p7101
aS'far'
p7102
aS'are'
p7103
aS'we'
p7104
aS'going'
p7105
aS'to'
p7106
aS'go'
p7107
aS'with'
p7108
aS'entitlements'
p7109
aaa(lp7110
S'DIANE'
p7111
a(lp7112
aa(lp7113
S'PATTY'
p7114
a(lp7115
S'how'
p7116
aS'much'
p7117
aS'are'
p7118
aS'we'
p7119
aS'going'
p7120
aS'to'
p7121
aS'take'
p7122
aS'from'
p7123
aS'the'
p7124
aS'uh'
p7125
aaa(lp7126
g7114
a(lp7127
S'so'
p7128
aS'called'
p7129
aS'really'
p7130
aS'wealthy'
p7131
aaa(lp7132
g7114
a(lp7133
S'whos'
p7134
aS'the'
p7135
aS'only'
p7136
aS'people'
p7137
aS'thats'
p7138
aS'going'
p7139
aS'to'
p7140
aS'be'
p7141
aS'touched'
p7142
aS'by'
p7143
aS'this'
p7144
aS'budget'
p7145
aaa(lp7146
S'MANY'
p7147
a(lp7148
aa(lp7149
S'LINDA'
p7150
a(lp7151
S'Yeah'
p7152
aaa(lp7153
g7150
a(lp7154
S'how'
p7155
aS'nice'
p7156
aaa(lp7157
S'PATTY'
p7158
a(lp7159
S'And'
p7160
aS'all'
p7161
aS'of'
p7162
aS'these'
p7163
aS'things'
p7164
aaa(lp7165
g7158
a(lp7166
S'and'
p7167
aS'give'
p7168
aS'to'
p7169
aS'these'
p7170
aS'poor'
p7171
aaa(lp7172
S'DIANE'
p7173
a(lp7174
S'You'
p7175
aS'forg'
p7176
aaa(lp7177
S'LINDA'
p7178
a(lp7179
aa(lp7180
S'PATTY'
p7181
a(lp7182
g50
ag6
aS'mean'
p7183
aS'even'
p7184
aS'the'
p7185
aS'x'
p7186
aaa(lp7187
S'DIANE'
p7188
a(lp7189
S'You'
p7190
aS'forgot'
p7191
aS'the'
p7192
aS'corporate'
p7193
aS'income'
p7194
aS'tax'
p7195
aS'which'
p7196
aS'is'
p7197
aS'going'
p7198
aS'up'
p7199
aS'and'
p7200
aS'up'
p7201
aS'and'
p7202
aS'up'
p7203
aS'and'
p7204
aS'up'
p7205
aS'and'
p7206
aS'up'
p7207
aaa(lp7208
g7188
a(lp7209
S'and'
p7210
aS'if'
p7211
aS'somebody'
p7212
aS'says'
p7213
aS'entitlements'
p7214
aS'one'
p7215
aS'more'
p7216
aS'time'
p7217
aS'Im'
p7218
aS'gonna'
p7219
aS'scream'
p7220
aaa(lp7221
S'PATTY'
p7222
a(lp7223
S'Okay'
p7224
aaa(lp7225
g7222
a(lp7226
g6
aS'wont'
p7227
aS'say'
p7228
aS'that'
p7229
aaa(lp7230
S'DIANE'
p7231
a(lp7232
S'Why'
p7233
aS'are'
p7234
aS'these'
p7235
aS'entitlements'
p7236
aaa(lp7237
S'PATTY'
p7238
a(lp7239
g50
ag6
aS'wont'
p7240
aS'say'
p7241
aS'that'
p7242
ag50
aaa(lp7243
S'DIANE'
p7244
a(lp7245
S'Why'
p7246
aS'are'
p7247
aS'you'
p7248
aS'entitled'
p7249
aS'to'
p7250
aS'this'
p7251
aaa(lp7252
S'KIM'
p7253
a(lp7254
S'The'
p7255
aS'corporate'
p7256
aS'income'
p7257
aS'tax'
p7258
aS'is'
p7259
aS'going'
p7260
aS'to'
p7261
aS'be'
p7262
aS'raised'
p7263
aS'one'
p7264
aS'percent'
p7265
aaa(lp7266
S'DIANE'
p7267
a(lp7268
aa(lp7269
S'LINDA'
p7270
a(lp7271
g112
aaa(lp7272
S'KIM'
p7273
a(lp7274
S'And'
p7275
aS'so'
p7276
aS'therefore'
p7277
aS'the'
p7278
ag3255
aS'big'
p7279
aS'corporations'
p7280
aS'in'
p7281
aS'the'
p7282
aS'US'
p7283
aS'are'
p7284
aS'backing'
p7285
aS'this'
p7286
aS'budget'
p7287
aS'change'
p7288
aS'in'
p7289
aS'Washington'
p7290
aaa(lp7291
S'PATTY'
p7292
a(lp7293
S'Well'
p7294
aaa(lp7295
g7292
a(lp7296
S'at'
p7297
aS'any'
p7298
aS'rate'
p7299
aaa(lp7300
g7292
a(lp7301
g6
aS'think'
p7302
aS'theres'
p7303
aaa(lp7304
S'DIANE'
p7305
a(lp7306
aa(lp7307
S'PATTY'
p7308
a(lp7309
S'That'
p7310
aS'is'
p7311
aS'as'
p7312
aaa(lp7313
S'LINDA'
p7314
a(lp7315
aa(lp7316
S'PATTY'
p7317
a(lp7318
S'as'
p7319
aS'typical'
p7320
aS'today'
p7321
aaa(lp7322
g7317
a(lp7323
g6
aS'mean'
p7324
aS'as'
p7325
aS'topical'
p7326
aS'today'
p7327
aS'as'
p7328
aS'it'
p7329
aS'was'
p7330
aS'then'
p7331
aaa(lp7332
g7317
a(lp7333
S'And'
p7334
aS'then'
p7335
aS'it'
p7336
aS'has'
p7337
aS'to'
p7338
aS'deal'
p7339
aaa(lp7340
g7317
a(lp7341
S'with'
p7342
aS'the'
p7343
aS'big'
p7344
aS'questions'
p7345
aaa(lp7346
g7317
a(lp7347
S'Uh'
p7348
aS'the'
p7349
aaa(lp7350
g7317
a(lp7351
S'of'
p7352
aS'moral'
p7353
aS'values'
p7354
aaa(lp7355
g7317
a(lp7356
S'and'
p7357
aS'of'
p7358
ag3199
aS'how'
p7359
aS'you'
p7360
aS'uh'
p7361
aS'perceive'
p7362
aS'the'
p7363
aS'world'
p7364
aaa(lp7365
S'LINDA'
p7366
a(lp7367
S'Mhm'
p7368
aaa(lp7369
S'PATTY'
p7370
a(lp7371
S'and'
p7372
aS'all'
p7373
aS'of'
p7374
aS'this'
p7375
aS'with'
p7376
aS'it'
p7377
aaa(lp7378
g7370
a(lp7379
S'And'
p7380
ag6
aaa(lp7381
g7370
a(lp7382
S'there'
p7383
aS'were'
p7384
aS'some'
p7385
aS'others'
p7386
aaa(lp7387
g7370
a(lp7388
S'And'
p7389
ag6
aS'cant'
p7390
aS'even'
p7391
aS'remember'
p7392
aS'what'
p7393
aS'they'
p7394
aS'all'
p7395
aS'were'
p7396
aaa(lp7397
g7370
a(lp7398
S'But'
p7399
ag6
aaa(lp7400
S'DIANE'
p7401
a(lp7402
g6
aS'know'
p7403
aaa(lp7404
g7401
a(lp7405
S'but'
p7406
aS'it'
p7407
aS'was'
p7408
aS'Evelyn'
p7409
aS'who'
p7410
aS'did'
p7411
aS'it'
p7412
aaa(lp7413
g7401
a(lp7414
S'and'
p7415
aS'we'
p7416
aS'ought'
p7417
aS'to'
p7418
aS'make'
p7419
aS'her'
p7420
aS'get'
p7421
aS'her'
p7422
aS'notes'
p7423
aS'out'
p7424
aS'again'
p7425
aaa(lp7426
g7401
a(lp7427
S'Because'
p7428
aS'sh'
p7429
aaa(lp7430
S'PATTY'
p7431
a(lp7432
S'Yes'
p7433
aaa(lp7434
S'X'
p7435
a(lp7436
aa(lp7437
S'PATTY'
p7438
a(lp7439
S'If'
p7440
aS'you'
p7441
aS'can'
p7442
aS'find'
p7443
ag50
aS'this'
p7444
ag50
aaa(lp7445
S'LOIS'
p7446
a(lp7447
S'She'
p7448
aS'probably'
p7449
aS'remembers'
p7450
aaa(lp7451
S'MANY'
p7452
a(lp7453
aa(lp7454
S'JANICE'
p7455
a(lp7456
S'Uh'
p7457
aS'Evelyn'
p7458
aaa(lp7459
S'EVELYN'
p7460
a(lp7461
g6
aS'dont'
p7462
aS'remember'
p7463
aaa(lp7464
S'JANICE'
p7465
a(lp7466
S'will'
p7467
aS'you'
p7468
aS'do'
p7469
aS'that'
p7470
aS'again'
p7471
aS'sometime'
p7472
aaa(lp7473
S'EVELYN'
p7474
a(lp7475
S'Oh'
p7476
aaa(lp7477
S'JANICE'
p7478
a(lp7479
aa(lp7480
S'EVELYN'
p7481
a(lp7482
g6
aS'will'
p7483
aS'remember'
p7484
aaa(lp7485
g7481
a(lp7486
g50
ag6
aS'just'
p7487
ag6
aS'just'
p7488
ag50
aS'cant'
p7489
aS'remember'
p7490
aS'what'
p7491
aS'it'
p7492
aS'was'
p7493
aaa(lp7494
S'PATTY'
p7495
a(lp7496
S'But'
p7497
ag6
aS'thought'
p7498
aS'there'
p7499
aS'were'
p7500
aS'five'
p7501
aaa(lp7502
g7495
a(lp7503
S'and'
p7504
aS'Ive'
p7505
aS'only'
p7506
aS'come'
p7507
aS'up'
p7508
aS'with'
p7509
aS'four'
p7510
aaa(lp7511
S'LINDA'
p7512
a(lp7513
aa(lp7514
g7512
a(lp7515
S'Hm'
p7516
aaa(lp7517
S'NORA'
p7518
a(lp7519
g50
ag6
aS'thought'
p7520
ag50
aS'she'
p7521
aS'had'
p7522
aS'five'
p7523
aaa(lp7524
S'LINDA'
p7525
a(lp7526
S'Oh'
p7527
aaa(lp7528
g7525
a(lp7529
g6
aS'only'
p7530
aS'heard'
p7531
aS'three'
p7532
aaa(lp7533
g7525
a(lp7534
S'What'
p7535
aS'was'
p7536
aS'the'
p7537
aaa(lp7538
S'NORA'
p7539
a(lp7540
g50
aS'lets'
p7541
ag50
aaa(lp7542
S'PATTY'
p7543
a(lp7544
S'The'
p7545
aaa(lp7546
g7543
a(lp7547
g50
aS'Well'
p7548
ag50
aS'the'
p7549
aS'eternal'
p7550
aS'truths'
p7551
aaa(lp7552
g7543
a(lp7553
S'at'
p7554
aS'any'
p7555
aS'time'
p7556
aaa(lp7557
g7543
a(lp7558
S'on'
p7559
aS'any'
p7560
aS'level'
p7561
aaa(lp7562
S'LINDA'
p7563
a(lp7564
S'Oh'
p7565
aS'eternal'
p7566
aS'truths'
p7567
aaa(lp7568
S'PATTY'
p7569
a(lp7570
S'Yeah'
p7571
aaa(lp7572
S'LINDA'
p7573
a(lp7574
g6
aS'missed'
p7575
aS'the'
p7576
aS'eternal'
p7577
aS'truth'
p7578
aaa(lp7579
S'PATTY'
p7580
a(lp7581
S'At'
p7582
aS'any'
p7583
aS'time'
p7584
aaa(lp7585
g7580
a(lp7586
S'on'
p7587
aS'any'
p7588
aS'level'
p7589
aaa(lp7590
g7580
a(lp7591
S'and'
p7592
aS'by'
p7593
aS'any'
p7594
aS'age'
p7595
aaa(lp7596
S'LORI'
p7597
a(lp7598
S'Mhm'
p7599
aaa(lp7600
S'EVELYN'
p7601
a(lp7602
S'Uh'
p7603
aaa(lp7604
g7601
a(lp7605
S'well'
p7606
aS'you'
p7607
aS'didnt'
p7608
aS'mention'
p7609
aS'one'
p7610
aS'thing'
p7611
aaa(lp7612
g7601
a(lp7613
g6
aS'thought'
p7614
aS'it'
p7615
aS'was'
p7616
aS'very'
p7617
aS'interesting'
p7618
aaa(lp7619
g7601
a(lp7620
S'and'
p7621
ag6
aS'thought'
p7622
aS'you'
p7623
aS'all'
p7624
ag3199
aS'i'
p7625
aS'who'
p7626
aS'are'
p7627
aS'married'
p7628
aaa(lp7629
g7601
a(lp7630
S'would'
p7631
aS'have'
p7632
aS'picked'
p7633
aS'up'
p7634
aS'on'
p7635
aS'it'
p7636
aaa(lp7637
g7601
a(lp7638
S'the'
p7639
aS'relation'
p7640
aS'between'
p7641
ag112
aS'man'
p7642
aS'and'
p7643
ag112
aS'woman'
p7644
aaa(lp7645
g7601
a(lp7646
g6
aS'thought'
p7647
aS'there'
p7648
aS'was'
p7649
aS'one'
p7650
aS'phrase'
p7651
aS'in'
p7652
aS'there'
p7653
aaa(lp7654
g7601
a(lp7655
S'the'
p7656
aS'crystal'
p7657
aaa(lp7658
g7601
a(lp7659
S'what'
p7660
aS'was'
p7661
aS'it'
p7662
aaa(lp7663
g7601
a(lp7664
S'The'
p7665
aS'crystal'
p7666
aS'uh'
p7667
aS'shield'
p7668
aaa(lp7669
g7601
a(lp7670
S'that'
p7671
aS'comes'
p7672
aS'down'
p7673
aaa(lp7674
g7601
a(lp7675
S'after'
p7676
aaa(lp7677
g7601
a(lp7678
g112
aS'couple'
p7679
aS'is'
p7680
aS'married'
p7681
aaa(lp7682
S'PATTY'
p7683
a(lp7684
S'Oh'
p7685
aaa(lp7686
S'EVELYN'
p7687
a(lp7688
S'And'
p7689
ag6
aS'have'
p7690
aS'realized'
p7691
aS'that'
p7692
aaa(lp7693
S'PATTY'
p7694
a(lp7695
S'XXX'
p7696
aaa(lp7697
S'EVELYN'
p7698
a(lp7699
S'so'
p7700
aS'many'
p7701
aS'times'
p7702
aS'with'
p7703
aS'friends'
p7704
aaa(lp7705
S'LINDA'
p7706
a(lp7707
S'Hm'
p7708
aaa(lp7709
S'EVELYN'
p7710
a(lp7711
S'with'
p7712
aS'whom'
p7713
ag6
aS'was'
p7714
aS'very'
p7715
aS'very'
p7716
aS'intimate'
p7717
aaa(lp7718
g7710
a(lp7719
S'You'
p7720
aS'know'
p7721
aaa(lp7722
g7710
a(lp7723
S'And'
p7724
aS'yet'
p7725
aaa(lp7726
g7710
a(lp7727
S'when'
p7728
aS'they'
p7729
aS'are'
p7730
aS'married'
p7731
aaa(lp7732
S'MANY'
p7733
a(lp7734
S'Hm'
p7735
aaa(lp7736
S'EVELYN'
p7737
a(lp7738
S'there'
p7739
aS'is'
p7740
ag112
aS'conjugal'
p7741
aaa(lp7742
S'LINDA'
p7743
a(lp7744
S'Mhm'
p7745
aaa(lp7746
S'EVELYN'
p7747
a(lp7748
S'oneness'
p7749
aaa(lp7750
g7747
a(lp7751
S'that'
p7752
aS'is'
p7753
aS'uh'
p7754
aaa(lp7755
g7747
a(lp7756
S'something'
p7757
aS'that'
p7758
ag6
aS'was'
p7759
aS'never'
p7760
aS'able'
p7761
aS'to'
p7762
aS'penetrate'
p7763
aaa(lp7764
S'NORA'
p7765
a(lp7766
g50
aS'Stoods'
p7767
ag50
aaa(lp7768
S'PATTY'
p7769
a(lp7770
S'Mhm'
p7771
aaa(lp7772
S'LINDA'
p7773
a(lp7774
S'Mhm'
p7775
aaa(lp7776
S'DIANE'
p7777
a(lp7778
S'Mhm'
p7779
aaa(lp7780
S'LOIS'
p7781
a(lp7782
S'Hm'
p7783
aaa(lp7784
S'EVELYN'
p7785
a(lp7786
S'And'
p7787
ag6
aS'thought'
p7788
aS'that'
p7789
aS'was'
p7790
aS'an'
p7791
aS'interesting'
p7792
aS'phrase'
p7793
aaa(lp7794
S'LINDA'
p7795
a(lp7796
S'Mhm'
p7797
aaa(lp7798
S'EVELYN'
p7799
a(lp7800
g6
aS'also'
p7801
aS'thought'
p7802
aS'it'
p7803
aS'was'
p7804
aS'very'
p7805
aS'interesting'
p7806
aaa(lp7807
g7799
a(lp7808
S'her'
p7809
aS'relation'
p7810
aaa(lp7811
g7799
a(lp7812
S'with'
p7813
aS'her'
p7814
aS'husband'
p7815
aaa(lp7816
S'LINDA'
p7817
a(lp7818
S'Mhm'
p7819
aaa(lp7820
S'EVELYN'
p7821
a(lp7822
S'Why'
p7823
aS'she'
p7824
aS'married'
p7825
aS'him'
p7826
aaa(lp7827
g7821
a(lp7828
g6
aS'dont'
p7829
aS'know'
p7830
aaa(lp7831
g7821
a(lp7832
S'but'
p7833
aaa(lp7834
S'NORA'
p7835
a(lp7836
aa(lp7837
S'EVELYN'
p7838
a(lp7839
S'she'
p7840
aS'was'
p7841
aS'able'
p7842
aS'to'
p7843
aS'see'
p7844
aS'the'
p7845
aS'good'
p7846
aS'in'
p7847
ag50
aS'any'
p7848
ag50
aaa(lp7849
g7838
a(lp7850
S'As'
p7851
aS'well'
p7852
aS'as'
p7853
aS'the'
p7854
aS'bad'
p7855
aaa(lp7856
S'LINDA'
p7857
a(lp7858
S'Mhm'
p7859
aaa(lp7860
S'DIANE'
p7861
a(lp7862
aa(lp7863
S'LINDA'
p7864
a(lp7865
S'Hm'
p7866
aaa(lp7867
S'EVELYN'
p7868
a(lp7869
S'and'
p7870
aS'to'
p7871
aS'live'
p7872
aS'with'
p7873
aS'it'
p7874
aaa(lp7875
S'SUE'
p7876
a(lp7877
S'And'
p7878
aS'continue'
p7879
aS'to'
p7880
aaa(lp7881
S'LINDA'
p7882
a(lp7883
S'Yeah'
p7884
aaa(lp7885
S'SUE'
p7886
a(lp7887
S'sort'
p7888
aS'of'
p7889
aaa(lp7890
g7886
a(lp7891
S'push'
p7892
aS'at'
p7893
aS'the'
p7894
aS'bad'
p7895
aaa(lp7896
S'KIM'
p7897
a(lp7898
S'You'
p7899
aS'know'
p7900
aaa(lp7901
g7897
a(lp7902
S'um'
p7903
aaa(lp7904
S'SUE'
p7905
a(lp7906
S'and'
p7907
aS'try'
p7908
aS'to'
p7909
aS'improve'
p7910
aS'him'
p7911
aaa(lp7912
S'LINDA'
p7913
a(lp7914
S'She'
p7915
aS'kept'
p7916
aS'see'
p7917
aaa(lp7918
S'EVELYN'
p7919
a(lp7920
S'Mhm'
p7921
aaa(lp7922
S'DIANE'
p7923
a(lp7924
S'Maybe'
p7925
aS'its'
p7926
aS'because'
p7927
aS'she'
p7928
aS'did'
p7929
aS'it'
p7930
aS'with'
p7931
aS'open'
p7932
aS'eyes'
p7933
aaa(lp7934
S'LINDA'
p7935
a(lp7936
S'Mhm'
p7937
aS'yeah'
p7938
aaa(lp7939
S'KIM'
p7940
a(lp7941
S'In'
p7942
aS'the'
p7943
aS'movie'
p7944
aaa(lp7945
g7940
a(lp7946
S'you'
p7947
aS'see'
p7948
aS'her'
p7949
aaa(lp7950
g7940
a(lp7951
S'looking'
p7952
aS'out'
p7953
aS'her'
p7954
aS'window'
p7955
aaa(lp7956
S'PATTY'
p7957
a(lp7958
aa(lp7959
S'KIM'
p7960
a(lp7961
S'across'
p7962
aS'the'
p7963
aS'street'
p7964
aaa(lp7965
g7960
a(lp7966
S'into'
p7967
aS'the'
p7968
aS'Wilsons'
p7969
aS'apartment'
p7970
aaa(lp7971
g7960
a(lp7972
S'And'
p7973
aS'they'
p7974
aS'seem'
p7975
aS'to'
p7976
aS'be'
p7977
ag112
aS'happy'
p7978
aaa(lp7979
g7960
a(lp7980
S'very'
p7981
aS'happy'
p7982
aS'congenial'
p7983
aS'family'
p7984
aaa(lp7985
g7960
a(lp7986
S'They'
p7987
aS'seem'
p7988
aS'to'
p7989
aS'have'
p7990
ag112
aS'lot'
p7991
aS'of'
p7992
aS'interaction'
p7993
aS'going'
p7994
aS'on'
p7995
aS'in'
p7996
aS'that'
p7997
aS'family'
p7998
aaa(lp7999
S'LINDA'
p8000
a(lp8001
S'Mhm'
p8002
aaa(lp8003
S'KIM'
p8004
a(lp8005
g6
aS'dont'
p8006
aS'know'
p8007
aaa(lp8008
S'LINDA'
p8009
a(lp8010
g50
aS'Its'
p8011
ag50
aaa(lp8012
S'KIM'
p8013
a(lp8014
S'maybe'
p8015
aS'there'
p8016
aS'was'
p8017
aS'something'
p8018
aaa(lp8019
S'LINDA'
p8020
a(lp8021
S'Thats'
p8022
aS'true'
p8023
aaa(lp8024
S'KIM'
p8025
a(lp8026
S'by'
p8027
aS'the'
p8028
aS'fact'
p8029
aS'that'
p8030
aS'she'
p8031
aaa(lp8032
g8025
a(lp8033
S'she'
p8034
aS'saw'
p8035
aaa(lp8036
g8025
a(lp8037
S'uh'
p8038
aaa(lp8039
g8025
a(lp8040
g112
aS'happy'
p8041
aS'family'
p8042
aaa(lp8043
g8025
a(lp8044
S'they'
p8045
aS'talked'
p8046
aS'and'
p8047
aS'communicated'
p8048
aaa(lp8049
g8025
a(lp8050
S'and'
p8051
aS'laughed'
p8052
aaa(lp8053
g8025
a(lp8054
S'and'
p8055
aaa(lp8056
g8025
a(lp8057
S'had'
p8058
ag112
aS'good'
p8059
aS'association'
p8060
aS'with'
p8061
aS'each'
p8062
aS'other'
p8063
aaa(lp8064
g8025
a(lp8065
S'As'
p8066
aS'she'
p8067
aS'peeked'
p8068
aS'out'
p8069
aS'her'
p8070
aS'window'
p8071
aaa(lp8072
g8025
a(lp8073
S'looking'
p8074
aS'at'
p8075
aS'this'
p8076
aS'uh'
p8077
aS'family'
p8078
aaa(lp8079
S'LINDA'
p8080
a(lp8081
S'Thats'
p8082
ag112
aS'good'
p8083
aS'point'
p8084
aaa(lp8085
S'PATTY'
p8086
a(lp8087
S'Well'
p8088
aaa(lp8089
g8086
a(lp8090
S'and'
p8091
ag6
aS'think'
p8092
aaa(lp8093
S'LINDA'
p8094
a(lp8095
S'Yeah'
p8096
aaa(lp8097
S'LORI'
p8098
a(lp8099
S'But'
p8100
aaa(lp8101
S'LINDA'
p8102
a(lp8103
g6
aS'think'
p8104
aS'so'
p8105
aaa(lp8106
S'PATTY'
p8107
a(lp8108
S'Ruth'
p8109
aaa(lp8110
g8107
a(lp8111
S'Miss'
p8112
aaa(lp8113
g8107
a(lp8114
S'the'
p8115
aS'first'
p8116
aS'Missis'
p8117
aS'Wilcox'
p8118
aS'thought'
p8119
aS'highly'
p8120
aS'of'
p8121
aS'her'
p8122
aS'husband'
p8123
aaa(lp8124
g8107
a(lp8125
S'and'
p8126
aS'Margaret'
p8127
aS'thought'
p8128
aS'highly'
p8129
aS'of'
p8130
aS'her'
p8131
aaa(lp8132
S'MANY'
p8133
a(lp8134
S'Mhm'
p8135
aaa(lp8136
S'EVELYN'
p8137
a(lp8138
S'And'
p8139
aS'do'
p8140
aS'you'
p8141
aS'remember'
p8142
aS'when'
p8143
aS'she'
p8144
aS'was'
p8145
aS'going'
p8146
aS'to'
p8147
aS'go'
p8148
aS'down'
p8149
aS'to'
p8150
aS'Howards'
p8151
aS'End'
p8152
aS'with'
p8153
aS'her'
p8154
aaa(lp8155
S'LINDA'
p8156
a(lp8157
S'Mhm'
p8158
aaa(lp8159
S'EVELYN'
p8160
a(lp8161
S'And'
p8162
aS'all'
p8163
aS'of'
p8164
ag112
aS'sudden'
p8165
aS'he'
p8166
aS'appeared'
p8167
aaa(lp8168
g8160
a(lp8169
S'He'
p8170
aS'came'
p8171
aS'back'
p8172
aaa(lp8173
S'PATTY'
p8174
a(lp8175
S'Mhm'
p8176
aaa(lp8177
S'EVELYN'
p8178
a(lp8179
S'and'
p8180
aS'Missis'
p8181
aS'Wilcox'
p8182
aS'said'
p8183
aaa(lp8184
g8178
a(lp8185
S'well'
p8186
aS'Im'
p8187
aS'so'
p8188
aS'glad'
p8189
aS'to'
p8190
aS'see'
p8191
aS'you'
p8192
aaa(lp8193
g8178
a(lp8194
S'and'
p8195
aS'she'
p8196
aS'walked'
p8197
aS'away'
p8198
aS'with'
p8199
aS'her'
p8200
aS'husband'
p8201
aaa(lp8202
S'PATTY'
p8203
a(lp8204
S'Hm'
p8205
aaa(lp8206
S'LINDA'
p8207
a(lp8208
S'Mhm'
p8209
aaa(lp8210
S'LOIS'
p8211
a(lp8212
S'Well'
p8213
ag6
aS'think'
p8214
aS'Janice'
p8215
aS'is'
p8216
aS'right'
p8217
aaa(lp8218
g8211
a(lp8219
S'That'
p8220
aS'he'
p8221
aS'was'
p8222
aS'charming'
p8223
aaa(lp8224
g8211
a(lp8225
S'and'
p8226
aS'Im'
p8227
aS'forget'
p8228
aaa(lp8229
g8211
a(lp8230
g6
aS'think'
p8231
aS'we'
p8232
aS'forget'
p8233
aaa(lp8234
g8211
a(lp8235
S'that'
p8236
aS'we'
p8237
aS'all'
p8238
aS'have'
p8239
aS'that'
p8240
aS'innate'
p8241
aS'need'
p8242
aS'to'
p8243
aS'have'
p8244
ag112
aS'partner'
p8245
aaa(lp8246
g8211
a(lp8247
g6
aS'mean'
p8248
aaa(lp8249
S'EVELYN'
p8250
a(lp8251
S'Well'
p8252
aaa(lp8253
g8250
a(lp8254
S'and'
p8255
aaa(lp8256
g8250
a(lp8257
S'and'
p8258
ag112
aS'provider'
p8259
aaa(lp8260
g8250
a(lp8261
S'Too'
p8262
aaa(lp8263
S'LINDA'
p8264
a(lp8265
S'Yeah'
p8266
aaa(lp8267
S'EVELYN'
p8268
a(lp8269
S'You'
p8270
aS'know'
p8271
aaa(lp8272
S'PATTY'
p8273
a(lp8274
S'Mhm'
p8275
aaa(lp8276
S'LINDA'
p8277
a(lp8278
S'Yeah'
p8279
aaa(lp8280
S'EVELYN'
p8281
a(lp8282
S'he'
p8283
aS'took'
p8284
aS'care'
p8285
aS'of'
p8286
aS'everything'
p8287
aaa(lp8288
S'LOIS'
p8289
a(lp8290
g6
aS'mean'
p8291
aaa(lp8292
g8289
a(lp8293
S'we'
p8294
aS'all'
p8295
aaa(lp8296
g8289
a(lp8297
S'we'
p8298
aS'all'
p8299
aS'envy'
p8300
aS'that'
p8301
aS'oneness'
p8302
aaa(lp8303
S'LINDA'
p8304
a(lp8305
S'Mhm'
p8306
aaa(lp8307
g8304
a(lp8308
S'Mhm'
p8309
aaa(lp8310
S'EVELYN'
p8311
a(lp8312
S'Mhm'
p8313
aaa(lp8314
S'DIANE'
p8315
a(lp8316
S'Mhm'
p8317
aaa(lp8318
S'LOIS'
p8319
a(lp8320
S'And'
p8321
aS'when'
p8322
aS'you'
p8323
aS'dont'
p8324
aS'have'
p8325
aS'it'
p8326
aaa(lp8327
g8319
a(lp8328
S'you'
p8329
aS'really'
p8330
aS'envy'
p8331
aS'it'
p8332
aaa(lp8333
S'EVELYN'
p8334
a(lp8335
S'Mhm'
p8336
aaa(lp8337
S'LINDA'
p8338
a(lp8339
S'Mhm'
p8340
aaa(lp8341
S'LOIS'
p8342
a(lp8343
S'So'
p8344
aaa(lp8345
g8342
a(lp8346
g6
aS'mean'
p8347
aaa(lp8348
g8342
a(lp8349
S'thats'
p8350
ag112
ag1181
ag112
aS'strong'
p8351
aS'drawing'
p8352
aS'point'
p8353
aaa(lp8354
g8342
a(lp8355
S'We'
p8356
aS'look'
p8357
aS'over'
p8358
ag112
aS'lot'
p8359
aS'of'
p8360
aS'things'
p8361
aaa(lp8362
g8342
a(lp8363
g6
aS'mean'
p8364
aS'none'
p8365
aS'of'
p8366
aS'us'
p8367
aS'would'
p8368
aS'be'
p8369
aS'married'
p8370
aS'if'
p8371
aS'we'
p8372
aS'were'
p8373
aS'married'
p8374
aS'perfect'
p8375
aS'partners'
p8376
aaa(lp8377
S'EVELYN'
p8378
a(lp8379
S'Mhm'
p8380
aaa(lp8381
S'SUE'
p8382
a(lp8383
aa(lp8384
S'DIANE'
p8385
a(lp8386
aa(lp8387
S'SUE'
p8388
a(lp8389
g50
aS'definite'
p8390
ag50
aaa(lp8391
S'EVELYN'
p8392
a(lp8393
S'Mhm'
p8394
aaa(lp8395
S'X'
p8396
a(lp8397
S'HI'
p8398
aS'Yeah'
p8399
aS'HI'
p8400
aaa(lp8401
S'DIANE'
p8402
a(lp8403
S'Yeah'
p8404
aaa(lp8405
S'LOIS'
p8406
a(lp8407
g1181
aS'if'
p8408
aS'they'
p8409
aS'were'
p8410
aS'looking'
p8411
aS'for'
p8412
aS'perfect'
p8413
aaa(lp8414
S'X'
p8415
a(lp8416
S'Hm'
p8417
aaa(lp8418
S'LOIS'
p8419
a(lp8420
S'in'
p8421
aS'us'
p8422
aaa(lp8423
S'LINDA'
p8424
a(lp8425
S'Mhm'
p8426
aaa(lp8427
S'MANY'
p8428
a(lp8429
S'Mhm'
p8430
aaa(lp8431
S'EVELYN'
p8432
a(lp8433
S'Well'
p8434
aaa(lp8435
g8432
a(lp8436
S'we'
p8437
aS'are'
p8438
ag184
aaa(lp8439
g8432
a(lp8440
S'we'
p8441
aS'are'
p8442
aS'all'
p8443
aS'human'
p8444
aaa(lp8445
g8432
a(lp8446
g6
aS'thought'
p8447
aS'that'
p8448
aS'was'
p8449
aS'the'
p8450
ag305
aaa(lp8451
g8432
a(lp8452
S'the'
p8453
aS'thing'
p8454
aS'about'
p8455
aS'Margaret'
p8456
aS'that'
p8457
ag6
aS'could'
p8458
aS'uh'
p8459
aS'see'
p8460
aaa(lp8461
S'PATTY'
p8462
a(lp8463
g50
aS'Ten'
p8464
aS'minutes'
p8465
ag50
aaa(lp8466
S'EVELYN'
p8467
a(lp8468
S'Well'
p8469
aaa(lp8470
g8467
a(lp8471
S'uh'
p8472
aS'thats'
p8473
aS'what'
p8474
ag6
aS'considered'
p8475
aS'spiritual'
p8476
aS'vision'
p8477
aaa(lp8478
S'LINDA'
p8479
a(lp8480
S'Mhm'
p8481
aaa(lp8482
S'PATTY'
p8483
a(lp8484
S'Mhm'
p8485
aaa(lp8486
S'DIANE'
p8487
a(lp8488
S'SNIFF'
p8489
aaa(lp8490
S'EVELYN'
p8491
a(lp8492
S'That'
p8493
aS'she'
p8494
aS'could'
p8495
aS'see'
p8496
aS'the'
p8497
aS'human'
p8498
aS'qualities'
p8499
aaa(lp8500
S'DIANE'
p8501
a(lp8502
S'Yeah'
p8503
aaa(lp8504
S'SUE'
p8505
a(lp8506
S'Maybe'
p8507
aS'thats'
p8508
aS'one'
p8509
aS'thing'
p8510
aS'about'
p8511
aS'the'
p8512
aS'book'
p8513
aaa(lp8514
g8505
a(lp8515
S'uh'
p8516
aS'what'
p8517
aS'what'
p8518
aS'Evelyn'
p8519
aaa(lp8520
g8505
a(lp8521
S'what'
p8522
aS'uh'
p8523
aS'Lois'
p8524
aS'said'
p8525
aaa(lp8526
S'X'
p8527
a(lp8528
aa(lp8529
S'SUE'
p8530
a(lp8531
S'was'
p8532
aS'that'
p8533
aaa(lp8534
g8530
a(lp8535
S'you'
p8536
aS'know'
p8537
aaa(lp8538
g8530
a(lp8539
S'it'
p8540
aS'translates'
p8541
aS'to'
p8542
aS'everybody'
p8543
aaa(lp8544
g8530
a(lp8545
S'Nobodys'
p8546
aS'husband'
p8547
aS'is'
p8548
aS'perfect'
p8549
aaa(lp8550
S'X'
p8551
a(lp8552
S'Mhm'
p8553
aaa(lp8554
S'EVELYN'
p8555
a(lp8556
S'Mhm'
p8557
aaa(lp8558
S'SUE'
p8559
a(lp8560
g2837
ag948
aS'or'
p8561
aS'no'
p8562
aaa(lp8563
g8559
a(lp8564
S'and'
p8565
aS'nobody'
p8566
aS'is'
p8567
aS'perfect'
p8568
aaa(lp8569
S'DEBORAH'
p8570
a(lp8571
g50
aaa(lp8572
S'PATTY'
p8573
a(lp8574
S'Or'
p8575
aS'no'
p8576
aS'person'
p8577
aaa(lp8578
S'DEBORAH'
p8579
a(lp8580
g50
aS'Mhm'
p8581
aaa(lp8582
S'PATTY'
p8583
a(lp8584
S'Mhm'
p8585
aaa(lp8586
S'DEBORAH'
p8587
a(lp8588
S'Mhm'
p8589
ag50
aaa(lp8590
S'SUE'
p8591
a(lp8592
S'No'
p8593
aS'person'
p8594
aS'is'
p8595
aS'perfect'
p8596
aaa(lp8597
S'NORA'
p8598
a(lp8599
S'XXX'
p8600
aS'XX'
p8601
aaa(lp8602
S'SUE'
p8603
a(lp8604
S'And'
p8605
aS'therefore'
p8606
aaa(lp8607
S'LINDA'
p8608
a(lp8609
S'Mhm'
p8610
aaa(lp8611
S'SUE'
p8612
a(lp8613
S'Its'
p8614
aS'real'
p8615
aS'life'
p8616
aaa(lp8617
S'NORA'
p8618
a(lp8619
g50
aS'Did'
p8620
aS'you'
p8621
aS'take'
p8622
ag112
aS'nap'
p8623
aS'on'
p8624
aS'the'
p8625
aS'floor'
p8626
aaa(lp8627
g8618
a(lp8628
S'or'
p8629
aaa(lp8630
S'KIM'
p8631
a(lp8632
S'Yeah'
p8633
aaa(lp8634
S'LOIS'
p8635
a(lp8636
S'And'
p8637
aS'thats'
p8638
aS'classic'
p8639
aaa(lp8640
S'NORA'
p8641
a(lp8642
S'Jump'
p8643
aS'up'
p8644
aS'and'
p8645
aS'down'
p8646
ag50
aaa(lp8647
S'SUE'
p8648
a(lp8649
S'Yeah'
p8650
aaa(lp8651
S'MANY'
p8652
a(lp8653
aa(lp8654
S'LINDA'
p8655
a(lp8656
S'Thats'
p8657
aS'right'
p8658
aaa(lp8659
S'ALICE'
p8660
a(lp8661
S'Thats'
p8662
aS'classic'
p8663
aaa(lp8664
S'X'
p8665
a(lp8666
S'Thats'
p8667
ag112
aS'classic'
p8668
aaa(lp8669
S'SUE'
p8670
a(lp8671
S'every'
p8672
aS'd'
p8673
aaa(lp8674
g8670
a(lp8675
S'e'
p8676
aaa(lp8677
S'LINDA'
p8678
a(lp8679
S'Thats'
p8680
aS'right'
p8681
aaa(lp8682
S'SUE'
p8683
a(lp8684
S'Its'
p8685
aS'every'
p8686
aS'era'
p8687
aaa(lp8688
S'LOIS'
p8689
a(lp8690
aa(lp8691
S'DIANE'
p8692
a(lp8693
S'Yeah'
p8694
aaa(lp8695
S'EVELYN'
p8696
a(lp8697
S'Mhm'
p8698
aaa(lp8699
S'KIM'
p8700
a(lp8701
S'Before'
p8702
aS'uh'
p8703
aaa(lp8704
S'LINDA'
p8705
a(lp8706
aa(lp8707
S'KIM'
p8708
a(lp8709
S'bef'
p8710
aS'before'
p8711
aS'we'
p8712
aS'break'
p8713
aS'up'
p8714
aS'today'
p8715
aaa(lp8716
S'LINDA'
p8717
a(lp8718
g50
aaa(lp8719
S'KIM'
p8720
a(lp8721
S'whether'
p8722
aS'its'
p8723
aS'now'
p8724
aS'or'
p8725
aS'ten'
p8726
aS'minutes'
p8727
aS'from'
p8728
aS'now'
p8729
aaa(lp8730
g8720
a(lp8731
S'could'
p8732
aS'you'
p8733
aS'tell'
p8734
aS'me'
p8735
aS'anything'
p8736
aS'about'
p8737
aS'the'
p8738
aS'book'
p8739
aS'for'
p8740
aS'next'
p8741
aS'month'
p8742
aaa(lp8743
S'DEBORAH'
p8744
a(lp8745
S'Or'
p8746
ag112
aS'half'
p8747
aS'an'
p8748
aS'hour'
p8749
aaa(lp8750
g8744
a(lp8751
S'or'
p8752
aS'an'
p8753
aS'hour'
p8754
aaa.