(lp0
(lp1
S'CAM'
p2
a(lp3
S'Oh'
p4
aS'my'
p5
aS'God'
p6
aaa(lp7
g2
a(lp8
S'I'
p9
aS'think'
p10
aS'theyre'
p11
aS'all'
p12
aS'nuts'
p13
aaa(lp14
S'JOSo'
p15
a(lp16
S'she'
p17
aS'had'
p18
aS'to'
p19
aS'have'
p20
aS'it'
p21
aaa(lp22
S'CAM'
p23
a(lp24
aa(lp25
S'JOShe'
p26
a(lp27
S'had'
p28
aS'to'
p29
aS'have'
p30
aS'the'
p31
aS'extra'
p32
aS'one'
p33
aaa(lp34
g26
a(lp35
S'So'
p36
ag9
aS'got'
p37
aaa(lp38
g26
a(lp39
S'Dad'
p40
aS'had'
p41
aS'made'
p42
aS'this'
p43
aS'other'
p44
aS'little'
p45
aS'thing'
p46
aaa(lp47
g26
a(lp48
S'its'
p49
aS'just'
p50
aS'like'
p51
aS'a'
p52
aS'little'
p53
aS'house'
p54
aaa(lp55
g26
a(lp56
S'so'
p57
ag9
aS'put'
p58
aS'mine'
p59
aS'X'
p60
aS'out'
p61
aS'there'
p62
ag60
aaa(lp63
S'WESSYeah'
p64
a(lp65
aa(lp66
g64
a(lp67
S'maybe'
p68
aS'you'
p69
aS'Neil'
p70
aaa(lp71
S'CAMIsnt'
p72
a(lp73
S'she'
p74
aS'forty'
p75
aaa(lp76
S'WESSX'
p77
a(lp78
S'Well'
p79
aS'see'
p80
aS'you'
p81
ag60
aaa(lp82
S'CAM'
p83
a(lp84
aa(lp85
S'JOFortythree'
p86
a(lp87
aa(lp88
S'CAM'
p89
a(lp90
S'My'
p91
aS'goodness'
p92
aaa(lp93
S'JOBut'
p94
a(lp95
g9
aS'm'
p96
aaa(lp97
g94
a(lp98
S'See'
p99
aaa(lp100
g94
a(lp101
g9
aS'knew'
p102
aaa(lp103
g94
a(lp104
g9
aS'said'
p105
aS'to'
p106
aS'Wess'
p107
aaa(lp108
S'WESSWhatd'
p109
a(lp110
g9
aS'do'
p111
aS'with'
p112
aS'my'
p113
aS'hearing'
p114
aS'aid'
p115
aS'now'
p116
aaa(lp117
S'JOI'
p118
a(lp119
S'knew'
p120
aS'thered'
p121
aS'be'
p122
aS'trouble'
p123
aaa(lp124
g118
a(lp125
S'because'
p126
aaa(lp127
S'WESS'
p128
a(lp129
S'F'
p130
aS'Well'
p131
aS'that'
p132
aS'was'
p133
aS'Neil'
p134
aS'on'
p135
aS'the'
p136
aS'phone'
p137
aaa(lp138
S'JOthey'
p139
a(lp140
aa(lp141
S'WESSto'
p142
a(lp143
S'say'
p144
aaa(lp145
g142
a(lp146
S'well'
p147
aS'you'
p148
aS'd'
p149
aaa(lp150
g142
a(lp151
S'the'
p152
aS'Packers'
p153
aS'got'
p154
aS'their'
p155
aS'merry'
p156
aS'Christmas'
p157
ag130
aaa(lp158
S'JO'
p159
a(lp160
S'Oh'
p161
aS'did'
p162
aS'they'
p163
aaa(lp164
S'CAMOh'
p165
a(lp166
S'did'
p167
aS'they'
p168
aS'win'
p169
aaa(lp170
S'JODid'
p171
a(lp172
S'they'
p173
aS'win'
p174
aaa(lp175
S'WESSWell'
p176
a(lp177
S'yeah'
p178
aaa(lp179
g176
a(lp180
S'because'
p181
aS'uh'
p182
aaa(lp183
g176
a(lp184
S'the'
p185
aS't'
p186
aS'the'
p187
aaa(lp188
g176
a(lp189
S'Steelers'
p190
aaa(lp191
g176
a(lp192
S'were'
p193
aS'on'
p194
aS'the'
p195
aS'one'
p196
aS'yard'
p197
aS'line'
p198
aaa(lp199
S'CAMUnhunh'
p200
a(lp201
aa(lp202
S'WESSfor'
p203
a(lp204
S'four'
p205
aS'downs'
p206
aaa(lp207
g203
a(lp208
S'And'
p209
aS'they'
p210
aS'didnt'
p211
aS'get'
p212
aS'in'
p213
aaa(lp214
S'CAMWow'
p215
a(lp216
aa(lp217
S'WESS'
p218
a(lp219
S'And'
p220
aS'then'
p221
aS'they'
p222
aS'were'
p223
aS'on'
p224
aS'the'
p225
aS'ten'
p226
aS'yard'
p227
aS'line'
p228
aaa(lp229
g218
a(lp230
S'with'
p231
aS'fourth'
p232
aS'down'
p233
aS'to'
p234
aS'go'
p235
aaa(lp236
g218
a(lp237
S'and'
p238
aS'they'
p239
aS'had'
p240
aS'inches'
p241
aS'to'
p242
aS'go'
p243
aaa(lp244
g218
a(lp245
S'the'
p246
aS'guy'
p247
aS'didnt'
p248
aS'even'
p249
aS'get'
p250
aS'up'
p251
aS'to'
p252
aS'the'
p253
aS'line'
p254
aS'of'
p255
aS'scrimmage'
p256
aaa(lp257
g218
a(lp258
S'that'
p259
aS'was'
p260
aS'had'
p261
aS'the'
p262
aS'ball'
p263
aaa(lp264
S'CAM'
p265
a(lp266
S'Nice'
p267
aaa(lp268
S'WESSBut'
p269
a(lp270
S'he'
p271
aS'mustve'
p272
aS'pushed'
p273
aS'it'
p274
aS'up'
p275
aS'there'
p276
aS'or'
p277
aS'something'
p278
aaa(lp279
g269
a(lp280
g9
aS'dont'
p281
aS'know'
p282
aaa(lp283
g269
a(lp284
S'how'
p285
aS'he'
p286
aS'got'
p287
aS'it'
p288
aS'up'
p289
aS'there'
p290
aaa(lp291
g269
a(lp292
S'But'
p293
aS'they'
p294
aS'gave'
p295
aS'it'
p296
aS'to'
p297
aS'them'
p298
aS'then'
p299
aaa(lp300
g269
a(lp301
S'then'
p302
aaa(lp303
g269
a(lp304
S'thatd'
p305
aS'give'
p306
aS'em'
p307
aS'another'
p308
aS'four'
p309
aS'down'
p310
aaa(lp311
g269
a(lp312
S'four'
p313
aS'downs'
p314
aS'on'
p315
aS'the'
p316
aS'one'
p317
aS'yard'
p318
aS'line'
p319
aaa(lp320
S'JO'
p321
a(lp322
S'So'
p323
aS'its'
p324
aS'over'
p325
aS'with'
p326
aaa(lp327
S'WESS'
p328
a(lp329
S'So'
p330
aS'its'
p331
aS'over'
p332
aS'with'
p333
aaa(lp334
S'CAMX'
p335
a(lp336
S'They'
p337
ag60
aS'won'
p338
aaa(lp339
S'WESSGreen'
p340
a(lp341
S'Bay'
p342
aS'won'
p343
aS'twentyfour'
p344
aS'to'
p345
aS'nineteen'
p346
aaa(lp347
S'CAMSo'
p348
a(lp349
S'now'
p350
aS'we'
p351
aS'can'
p352
aS'have'
p353
ag52
aS'merry'
p354
aS'Christmas'
p355
aaa(lp356
S'JOUhoh'
p357
a(lp358
aa(lp359
S'CAM'
p360
a(lp361
aa(lp362
S'JOYes'
p363
a(lp364
aa(lp365
g363
a(lp366
S'Thats'
p367
aS'what'
p368
aS'Patty'
p369
aS'said'
p370
aaa(lp371
g363
a(lp372
S'Oh'
p373
aaa(lp374
g363
a(lp375
S'Im'
p376
aS'praying'
p377
aS'Mom'
p378
aaa(lp379
g363
a(lp380
S'that'
p381
aS'they'
p382
aS'win'
p383
aS'because'
p384
aaa(lp385
g363
a(lp386
S'she'
p387
aS'said'
p388
aaa(lp389
S'CAM'
p390
a(lp391
aa(lp392
S'JOotherwise'
p393
a(lp394
aa(lp395
g393
a(lp396
S'everybodyll'
p397
aS'be'
p398
aS'mad'
p399
aaa(lp400
S'CAM'
p401
a(lp402
aa(lp403
S'WESSKathy'
p404
a(lp405
aa(lp406
g404
a(lp407
S'Wesley'
p408
aaa(lp409
S'CAM'
p410
a(lp411
aa(lp412
g410
a(lp413
S'Oh'
p414
aaa(lp415
S'WESSTommy'
p416
a(lp417
aa(lp418
S'JOY'
p419
a(lp420
S'not'
p421
aS'Wesley'
p422
aaa(lp423
g419
a(lp424
S'Wesley'
p425
aS'never'
p426
aS'gets'
p427
aS'mad'
p428
aaa(lp429
S'CAMXX'
p430
a(lp431
aa(lp432
g430
a(lp433
S'Is'
p434
aS'it'
p435
aaa(lp436
g430
a(lp437
S'Is'
p438
aS'Fred'
p439
aS'in'
p440
aS'there'
p441
aS'crying'
p442
aaa(lp443
S'WESSOh'
p444
a(lp445
aa(lp446
S'CAM'
p447
a(lp448
aa(lp449
S'JOIs'
p450
a(lp451
S'Fred'
p452
aS'crying'
p453
aaa(lp454
S'WESS'
p455
a(lp456
S'No'
p457
aaa(lp458
S'JO'
p459
a(lp460
S'Did'
p461
aS'he'
p462
aS'win'
p463
aS'his'
p464
aS'fifty'
p465
aS'bucks'
p466
aaa(lp467
S'WESSWell'
p468
a(lp469
S'he'
p470
aS'won'
p471
aS'fifty'
p472
aS'bucks'
p473
aaa(lp474
S'JOGood'
p475
a(lp476
aa(lp477
S'CAMHe'
p478
a(lp479
S'won'
p480
aS'fifty'
p481
aS'bucks'
p482
aaa(lp483
S'WESSHis'
p484
a(lp485
S'score'
p486
aS'was'
p487
aS'uh'
p488
aaa(lp489
g484
a(lp490
S'four'
p491
aS'and'
p492
aS'nine'
p493
aaa(lp494
S'CAM'
p495
a(lp496
aa(lp497
g495
a(lp498
S'Oh'
p499
aaa(lp500
S'WESS'
p501
a(lp502
S'So'
p503
aS'he'
p504
aS'won'
p505
aS'fifty'
p506
aS'buck'
p507
aaa(lp508
g501
a(lp509
g9
aS'wonder'
p510
aS'if'
p511
aS'hes'
p512
aS'got'
p513
aS'the'
p514
aS'right'
p515
aS'teams'
p516
aaa(lp517
S'JO'
p518
a(lp519
aa(lp520
S'WESSHey'
p521
a(lp522
S'Fred'
p523
aaa(lp524
S'FRED'
p525
a(lp526
S'Yeah'
p527
aaa(lp528
S'JO'
p529
a(lp530
S'Well'
p531
aaa(lp532
S'WESSYou'
p533
a(lp534
S'had'
p535
aS'four'
p536
aS'and'
p537
aS'nine'
p538
aaa(lp539
S'JONo'
p540
a(lp541
aa(lp542
g540
a(lp543
S'Wesley'
p544
aS'n'
p545
aS'na'
p546
aaa(lp547
g540
a(lp548
g9
aS'w'
p549
aS'gotta'
p550
aS'say'
p551
aS'that'
p552
aS'about'
p553
aS'Wesley'
p554
aaa(lp555
S'WESSBut'
p556
a(lp557
S'did'
p558
aS'you'
p559
aS'have'
p560
aS'the'
p561
aS'Packers'
p562
aS'winning'
p563
aaa(lp564
S'JOHe'
p565
a(lp566
S'never'
p567
aS'gets'
p568
aS'upset'
p569
aS'about'
p570
ag52
aS'football'
p571
aS'game'
p572
aaa(lp573
S'CAMHm'
p574
a(lp575
aa(lp576
S'FREDI'
p577
a(lp578
S'had'
p579
aS'four'
p580
aS'for'
p581
aS'Green'
p582
aS'Bay'
p583
aaa(lp584
S'JO'
p585
a(lp586
S'After'
p587
aS'its'
p588
aS'over'
p589
aaa(lp590
g585
a(lp591
S'its'
p592
aS'over'
p593
aaa(lp594
g585
a(lp595
S'And'
p596
aS'he'
p597
aS'was'
p598
aS'that'
p599
aS'way'
p600
aS'when'
p601
aS'he'
p602
aS'was'
p603
ag52
aS'little'
p604
aS'kid'
p605
aaa(lp606
S'FREDXX'
p607
a(lp608
aa(lp609
S'WESSOh'
p610
a(lp611
aa(lp612
g610
a(lp613
S'Four'
p614
aS'for'
p615
aS'Green'
p616
aS'Bay'
p617
aaa(lp618
S'JOYou'
p619
a(lp620
S'know'
p621
aaa(lp622
g619
a(lp623
S'but'
p624
aS'Tommy'
p625
aaa(lp626
g619
a(lp627
S'Hes'
p628
aS'another'
p629
aS'one'
p630
aaa(lp631
S'WESSOkay'
p632
a(lp633
aa(lp634
S'JOBut'
p635
a(lp636
S'hes'
p637
aS'getting'
p638
ag52
aS'lot'
p639
aS'better'
p640
aaa(lp641
S'FREDXX'
p642
a(lp643
aa(lp644
S'JOBecause'
p645
a(lp646
S'Donna'
p647
aS'has'
p648
aS'really'
p649
aS'got'
p650
aS'mad'
p651
aS'at'
p652
aS'him'
p653
aaa(lp654
S'FREDXXX'
p655
a(lp656
aa(lp657
S'WESSYeah'
p658
a(lp659
S'Ill'
p660
ag60
aS'tell'
p661
aS'him'
p662
ag60
aaa(lp663
S'JO'
p664
a(lp665
S'You'
p666
aS'know'
p667
aaa(lp668
g664
a(lp669
g9
aS'mean'
p670
aS'that'
p671
aS'one'
p672
aS'time'
p673
aS'the'
p674
aS'Green'
p675
aS'Bay'
p676
aS'Packer'
p677
aS'loss'
p678
aaa(lp679
g664
a(lp680
S'it'
p681
aS'was'
p682
aS'on'
p683
aS'his'
p684
aS'birthday'
p685
aaa(lp686
g664
a(lp687
S'Wasnt'
p688
aS'this'
p689
aS'year'
p690
aaa(lp691
g664
a(lp692
S'it'
p693
aS'was'
p694
aS'last'
p695
aS'year'
p696
aaa(lp697
S'WESSYeah'
p698
a(lp699
aa(lp700
g698
a(lp701
S'he'
p702
aS'had'
p703
aS'Pittsburgh'
p704
aS'sco'
p705
aaa(lp706
S'JOHe'
p707
a(lp708
S'wouldnt'
p709
aS'go'
p710
aS'out'
p711
aS'to'
p712
aS'eat'
p713
aS'with'
p714
aS'her'
p715
aS'folks'
p716
aaa(lp717
S'WESSHe'
p718
a(lp719
S'had'
p720
aS'Green'
p721
aS'Bay'
p722
aS'four'
p723
aaa(lp724
S'CAMHm'
p725
a(lp726
aa(lp727
S'WESSand'
p728
a(lp729
S'Pittsburgh'
p730
aS'nine'
p731
aaa(lp732
S'CAM'
p733
a(lp734
S'So'
p735
aS'he'
p736
aS'won'
p737
aaa(lp738
S'WESSAnd'
p739
a(lp740
S'the'
p741
aS'score'
p742
aS'was'
p743
aS'twentyfour'
p744
aS'to'
p745
aS'nineteen'
p746
aaa(lp747
g739
a(lp748
S'in'
p749
aS'favor'
p750
aS'of'
p751
aS'Green'
p752
aS'Bay'
p753
aaa(lp754
g739
a(lp755
S'so'
p756
aS'he'
p757
aS'won'
p758
aS'fifty'
p759
aS'buck'
p760
aaa(lp761
S'JOGood'
p762
a(lp763
aa(lp764
S'CAMXX'
p765
a(lp766
aa(lp767
S'JOWell'
p768
a(lp769
S'Freddy'
p770
aS'is'
p771
aS'gonna'
p772
aS'be'
p773
aS'happy'
p774
aaa(lp775
S'CAMSo'
p776
a(lp777
S'where'
p778
aS'are'
p779
aS'you'
p780
aS'taking'
p781
aS'us'
p782
aS'to'
p783
aS'dinner'
p784
aaa(lp785
S'FREDI'
p786
a(lp787
S'would'
p788
aS'have'
p789
aS'rather'
p790
aS'that'
p791
aS'pass'
p792
aS'be'
p793
aS'completed'
p794
aaa(lp795
g786
a(lp796
S'and'
p797
aS'Detroit'
p798
aS'won'
p799
ag52
aS'title'
p800
aaa(lp801
g786
a(lp802
S'but'
p803
aaa(lp804
S'JO'
p805
a(lp806
S'VOX'
p807
aS'Oh'
p808
aS'no'
p809
aS'VOX'
p810
aaa(lp811
S'CAM'
p812
a(lp813
aa(lp814
S'FREDBut'
p815
a(lp816
aa(lp817
g815
a(lp818
g52
aS'consolation'
p819
aS'of'
p820
aS'fifty'
p821
aaa(lp822
S'WESSBut'
p823
a(lp824
S'then'
p825
aS'too'
p826
aS'you'
p827
aS'wanna'
p828
aS'live'
p829
aS'Fred'
p830
aaa(lp831
S'FRED'
p832
a(lp833
aa(lp834
S'CAM'
p835
a(lp836
aa(lp837
S'JO'
p838
a(lp839
aa(lp840
S'WESS'
p841
a(lp842
aa(lp843
S'FREDBut'
p844
a(lp845
g52
aS'consoloation'
p846
aS'of'
p847
aS'fifty'
p848
aS'dollars'
p849
aS'isnt'
p850
aS'bad'
p851
aaa(lp852
S'WESS'
p853
a(lp854
S'No'
p855
aaa(lp856
S'JOOh'
p857
a(lp858
g9
aS'guess'
p859
aS'not'
p860
aaa(lp861
S'FREDIt'
p862
a(lp863
S'makes'
p864
aS'the'
p865
aS'lo'
p866
aaa(lp867
g862
a(lp868
S'It'
p869
aS'makes'
p870
aS'the'
p871
aaa(lp872
g862
a(lp873
S'the'
p874
aS'loss'
p875
aS'not'
p876
aS'so'
p877
aS'bad'
p878
aaa(lp879
S'JO'
p880
a(lp881
S'Where'
p882
aS'do'
p883
aS'you'
p884
aS'take'
p885
aS'these'
p886
aS'tickets'
p887
aS'out'
p888
aaa(lp889
S'FRED'
p890
a(lp891
aa(lp892
S'JOAt'
p893
a(lp894
S'the'
p895
aaa(lp896
g893
a(lp897
S'At'
p898
aS'the'
p899
aS'bar'
p900
aaa(lp901
S'FREDOh'
p902
a(lp903
S'its'
p904
ag52
aS'its'
p905
ag52
aS'pool'
p906
aaa(lp907
S'JO'
p908
a(lp909
S'Oh'
p910
aaa(lp911
g908
a(lp912
S'at'
p913
aS'the'
p914
aS'bar'
p915
aaa(lp916
S'FREDWhere'
p917
a(lp918
S'you'
p919
aS'get'
p920
aS'certain'
p921
aS'numbers'
p922
aaa(lp923
S'WESSYeah'
p924
a(lp925
aa(lp926
g924
a(lp927
S'what'
p928
aS'Charlie'
p929
ag186
aS'took'
p930
aS'four'
p931
aS'or'
p932
aS'five'
p933
aS'chances'
p934
aS'on'
p935
ag186
aaa(lp936
S'JOOh'
p937
a(lp938
aa(lp939
S'CAMAt'
p940
a(lp941
S'Em'
p942
aS'N'
p943
aS'Ems'
p944
aaa(lp945
S'WESSTwo'
p946
a(lp947
S'ten'
p948
aS'dollar'
p949
aaa(lp950
S'FREDMhm'
p951
a(lp952
aa(lp953
g951
a(lp954
S'Yeah'
p955
aaa(lp956
g951
a(lp957
S'at'
p958
aS'Em'
p959
ag943
aS'Ems'
p960
aaa(lp961
S'JO'
p962
a(lp963
S'Oh'
p964
aaa(lp965
S'WESS'
p966
a(lp967
S'Yeah'
p968
aaa(lp969
g966
a(lp970
S'Charlie'
p971
aS'had'
p972
aS'two'
p973
aS'tendollar'
p974
aS'ones'
p975
aaa(lp976
g966
a(lp977
S'and'
p978
aS'four'
p979
aS'fivedollar'
p980
aS'ones'
p981
aaa(lp982
S'JOOh'
p983
a(lp984
S'thats'
p985
aS'silly'
p986
aaa(lp987
S'CAM'
p988
a(lp989
S'HI'
p990
aS'The'
p991
aS'poochy'
p992
aaa(lp993
g988
a(lp994
S'SING'
p995
aS'Poochy'
p996
aS'poochy'
p997
aS'poochy'
p998
aS'SINGHI'
p999
aaa(lp1000
S'FRED'
p1001
a(lp1002
aa(lp1003
S'JO'
p1004
a(lp1005
aa(lp1006
S'WESSPoochy'
p1007
a(lp1008
S'poochy'
p1009
aS'poochy'
p1010
aaa(lp1011
S'FREDOh'
p1012
a(lp1013
S'my'
p1014
aS'God'
p1015
aaa(lp1016
g1012
a(lp1017
S'look'
p1018
aS'at'
p1019
aS'all'
p1020
aS'those'
p1021
aS'gifts'
p1022
aaa(lp1023
S'JO'
p1024
a(lp1025
aa(lp1026
g1024
a(lp1027
S'Yeah'
p1028
aS'but'
p1029
aS'theyre'
p1030
aaa(lp1031
g1024
a(lp1032
g52
aS'lot'
p1033
aS'of'
p1034
aS'em'
p1035
aS'are'
p1036
aS'not'
p1037
ag52
aS'lot'
p1038
aaa(lp1039
g1024
a(lp1040
S'You'
p1041
aS'know'
p1042
aaa(lp1043
S'WESS'
p1044
a(lp1045
aa(lp1046
S'JOI'
p1047
a(lp1048
S'mean'
p1049
aS'the'
p1050
aS'little'
p1051
aS'kids'
p1052
aS'always'
p1053
aS'like'
p1054
aaa(lp1055
S'CAMMm'
p1056
a(lp1057
aa(lp1058
S'JO'
p1059
a(lp1060
S'Raymond'
p1061
aS'is'
p1062
ag52
aS'funny'
p1063
aS'little'
p1064
aS'boy'
p1065
aaa(lp1066
g1059
a(lp1067
g9
aS'mean'
p1068
aaa(lp1069
g1059
a(lp1070
S'not'
p1071
ag52
aS'little'
p1072
aS'boy'
p1073
aS'anymore'
p1074
aaa(lp1075
g1059
a(lp1076
S'but'
p1077
aaa(lp1078
g1059
a(lp1079
g9
aS'mean'
p1080
aaa(lp1081
S'FRED'
p1082
a(lp1083
aa(lp1084
S'JO'
p1085
a(lp1086
S'He'
p1087
aS'always'
p1088
aS'has'
p1089
aS'been'
p1090
aaa(lp1091
g1085
a(lp1092
S'For'
p1093
aS'years'
p1094
aaa(lp1095
g1085
a(lp1096
S'He'
p1097
aS'always'
p1098
aS'thanked'
p1099
aS'me'
p1100
aS'for'
p1101
aS'the'
p1102
aS'socks'
p1103
aaa(lp1104
S'CAM'
p1105
a(lp1106
S'For'
p1107
aS'the'
p1108
aS'socks'
p1109
aaa(lp1110
S'JOBecause'
p1111
a(lp1112
aa(lp1113
g1111
a(lp1114
g9
aS'dont'
p1115
aS'think'
p1116
aS'Kathy'
p1117
aS'ever'
p1118
aS'buys'
p1119
aS'him'
p1120
aS'socks'
p1121
aaa(lp1122
S'CAM'
p1123
a(lp1124
S'Oh'
p1125
aaa(lp1126
S'JO'
p1127
a(lp1128
S'You'
p1129
aS'know'
p1130
aaa(lp1131
S'WESSBuys'
p1132
a(lp1133
S'everything'
p1134
aS'else'
p1135
aaa(lp1136
g1132
a(lp1137
S'but'
p1138
aS'not'
p1139
aS'socks'
p1140
aaa(lp1141
g1132
a(lp1142
S'So'
p1143
aS'weve'
p1144
aS'seen'
p1145
aS'him'
p1146
aS'with'
p1147
aS'holes'
p1148
aS'in'
p1149
aS'his'
p1150
aS'socks'
p1151
aaa(lp1152
S'JOSee'
p1153
a(lp1154
S'thats'
p1155
aS'not'
p1156
aS'her'
p1157
aS'priority'
p1158
aaa(lp1159
g1153
a(lp1160
S'Socks'
p1161
aaa(lp1162
g1153
a(lp1163
S'You'
p1164
aS'know'
p1165
aaa(lp1166
g1153
a(lp1167
S'And'
p1168
aS'he'
p1169
aS'said'
p1170
aaa(lp1171
g1153
a(lp1172
S'you'
p1173
aS'know'
p1174
aaa(lp1175
g1153
a(lp1176
S'Grandma'
p1177
aaa(lp1178
g1153
a(lp1179
S'when'
p1180
aS'he'
p1181
aS'was'
p1182
ag52
aS'little'
p1183
aS'kid'
p1184
aS'he'
p1185
aS'used'
p1186
aS'to'
p1187
aS'tell'
p1188
aS'me'
p1189
aaa(lp1190
S'CAMI'
p1191
a(lp1192
S'think'
p1193
aS'shes'
p1194
aS'like'
p1195
aS'Joe'
p1196
aaa(lp1197
S'JO'
p1198
a(lp1199
S'He'
p1200
aS'he'
p1201
aS'sh'
p1202
aaa(lp1203
S'FRED'
p1204
a(lp1205
aa(lp1206
S'JO'
p1207
a(lp1208
S'Yeah'
p1209
aaa(lp1210
g1207
a(lp1211
S'He'
p1212
aS'used'
p1213
aS'to'
p1214
aS'tell'
p1215
aS'me'
p1216
aaa(lp1217
g1207
a(lp1218
S'It'
p1219
aS'hurts'
p1220
aS'his'
p1221
aS'toes'
p1222
aaa(lp1223
g1207
a(lp1224
S'You'
p1225
aS'know'
p1226
aaa(lp1227
g1207
a(lp1228
S'and'
p1229
aS'it'
p1230
aS'does'
p1231
aS'if'
p1232
aS'you'
p1233
aS'get'
p1234
ag52
aS'big'
p1235
aS'hole'
p1236
aaa(lp1237
g1207
a(lp1238
S'In'
p1239
aS'your'
p1240
aS'sock'
p1241
aaa(lp1242
S'FREDMm'
p1243
a(lp1244
aa(lp1245
S'JO'
p1246
a(lp1247
S'You'
p1248
aS'know'
p1249
aaa(lp1250
S'CAMOh'
p1251
a(lp1252
S'yeah'
p1253
aaa(lp1254
S'JO'
p1255
a(lp1256
S'And'
p1257
aS'and'
p1258
aS'so'
p1259
aaa(lp1260
g1255
a(lp1261
g9
ag549
ag9
aS'started'
p1262
aS'years'
p1263
aS'ago'
p1264
aaa(lp1265
g1255
a(lp1266
S'when'
p1267
aS'he'
p1268
aS'was'
p1269
aS'real'
p1270
aS'little'
p1271
aaa(lp1272
S'WESSYou'
p1273
a(lp1274
S'look'
p1275
aS'like'
p1276
ag52
aS'badger'
p1277
aaa(lp1278
S'JOTo'
p1279
a(lp1280
S'buy'
p1281
aS'him'
p1282
aS'socks'
p1283
aaa(lp1284
g1279
a(lp1285
S'Six'
p1286
aS'pairs'
p1287
aS'of'
p1288
aS'socks'
p1289
aaa(lp1290
g1279
a(lp1291
S'And'
p1292
aS'hes'
p1293
aS'always'
p1294
aS'XXX'
p1295
aS'XXX'
p1296
aaa(lp1297
S'WESSWell'
p1298
a(lp1299
g9
aS'think'
p1300
aS'Ill'
p1301
aS'turn'
p1302
aS'on'
p1303
aS'the'
p1304
aS'Christmas'
p1305
aS'lights'
p1306
aaa(lp1307
S'JO'
p1308
a(lp1309
S'Okay'
p1310
aaa(lp1311
g1308
a(lp1312
S'So'
p1313
ag9
aS'figure'
p1314
aaa(lp1315
S'CAM'
p1316
a(lp1317
g549
aS'all'
p1318
aS'the'
p1319
aS'lights'
p1320
aS'are'
p1321
aS'on'
p1322
aaa(lp1323
S'JOWell'
p1324
a(lp1325
aa(lp1326
S'CAMWhat'
p1327
a(lp1328
S'are'
p1329
aS'you'
p1330
aS'talking'
p1331
aS'about'
p1332
aaa(lp1333
g1327
a(lp1334
S'Outside'
p1335
aaa(lp1336
S'JOIts'
p1337
a(lp1338
aa(lp1339
g1337
a(lp1340
S'Its'
p1341
aS'in'
p1342
aS'the'
p1343
aS'yeah'
p1344
aaa(lp1345
S'WESSYeah'
p1346
a(lp1347
aa(lp1348
g1346
a(lp1349
S'My'
p1350
aS'outside'
p1351
aS'lights'
p1352
aaa(lp1353
S'CAMOh'
p1354
a(lp1355
aa(lp1356
S'JOIts'
p1357
a(lp1358
S'uh'
p1359
aaa(lp1360
g1357
a(lp1361
S'Another'
p1362
aaa(lp1363
S'CAMMm'
p1364
a(lp1365
aa(lp1366
S'JO'
p1367
a(lp1368
S'extra'
p1369
aS'little'
p1370
aS'gift'
p1371
aaa(lp1372
g1367
a(lp1373
S'But'
p1374
aS'you'
p1375
aS'know'
p1376
aaa(lp1377
g1367
a(lp1378
S'when'
p1379
aS'you'
p1380
aS'times'
p1381
aS'that'
p1382
aS'by'
p1383
aS'fourteen'
p1384
aaa(lp1385
g1367
a(lp1386
S'its'
p1387
aS'about'
p1388
aaa(lp1389
g1367
a(lp1390
g52
aS'hundred'
p1391
aS'and'
p1392
aS'forty'
p1393
aS'dol'
p1394
aaa(lp1395
g1367
a(lp1396
S'no'
p1397
aaa(lp1398
g1367
a(lp1399
S'About'
p1400
ag52
aS'hundred'
p1401
aS'and'
p1402
aS'forty'
p1403
aS'dollars'
p1404
aaa(lp1405
g1367
a(lp1406
S'cause'
p1407
aS'its'
p1408
aS'about'
p1409
aaa(lp1410
g1367
a(lp1411
S'six'
p1412
aS'dollars'
p1413
aS'per'
p1414
aaa(lp1415
g1367
a(lp1416
S'per'
p1417
aS'kid'
p1418
aaa(lp1419
g1367
a(lp1420
S'for'
p1421
aS'socks'
p1422
aaa(lp1423
g1367
a(lp1424
S'Well'
p1425
aaa(lp1426
g1367
a(lp1427
S'you'
p1428
aS'know'
p1429
aS'y'
p1430
aaa(lp1431
g1367
a(lp1432
S'you'
p1433
aS'could'
p1434
aS'do'
p1435
aS'so'
p1436
aS'much'
p1437
aS'more'
p1438
aS'if'
p1439
aS'there'
p1440
aS'wasnt'
p1441
aS'so'
p1442
aS'many'
p1443
aS'kids'
p1444
aaa(lp1445
g1367
a(lp1446
S'But'
p1447
aaa(lp1448
g1367
a(lp1449
S'you'
p1450
aS'know'
p1451
aaa(lp1452
g1367
a(lp1453
S'when'
p1454
aS'theres'
p1455
aS'that'
p1456
aS'many'
p1457
aS'little'
p1458
aS'ones'
p1459
aaa(lp1460
S'CAM'
p1461
a(lp1462
S'Oh'
p1463
aS'yeah'
p1464
aS'yeah'
p1465
aaa(lp1466
S'JOYou'
p1467
a(lp1468
S'know'
p1469
aaa(lp1470
g1467
a(lp1471
S'you'
p1472
aaa(lp1473
g1467
a(lp1474
S'you'
p1475
aS'really'
p1476
aS'cant'
p1477
aaa(lp1478
S'DOG'
p1479
a(lp1480
aa(lp1481
S'JOEspecially'
p1482
a(lp1483
S'with'
p1484
aS'old'
p1485
aS'Newt'
p1486
aS'in'
p1487
aS'there'
p1488
aaa(lp1489
S'CAMWho'
p1490
a(lp1491
aa(lp1492
S'JO'
p1493
a(lp1494
aa(lp1495
S'CAM'
p1496
a(lp1497
S'Oh'
p1498
aS'Newt'
p1499
aaa(lp1500
S'JO'
p1501
a(lp1502
aa(lp1503
S'CAMOh'
p1504
a(lp1505
S'my'
p1506
aS'God'
p1507
aaa(lp1508
S'JO'
p1509
a(lp1510
aa(lp1511
g1509
a(lp1512
S'VOX'
p1513
aS'Dont'
p1514
aS'say'
p1515
aS'nothing'
p1516
aS'about'
p1517
aS'Newt'
p1518
aS'tonight'
p1519
aS'VOX'
p1520
aaa(lp1521
S'CAM'
p1522
a(lp1523
aa(lp1524
g1522
a(lp1525
S'Well'
p1526
aS'hes'
p1527
aaa(lp1528
g1522
a(lp1529
S'his'
p1530
aS'popularity'
p1531
aS'has'
p1532
aS'gone'
p1533
aaa(lp1534
g1522
a(lp1535
S'down'
p1536
aS'to'
p1537
aS'nothing'
p1538
aaa(lp1539
S'JONo'
p1540
a(lp1541
aa(lp1542
g1540
a(lp1543
g9
aS'know'
p1544
aaa(lp1545
g1540
a(lp1546
S'Well'
p1547
aS'he'
p1548
aS'is'
p1549
ag52
aS'little'
p1550
aS'much'
p1551
aaa(lp1552
g1540
a(lp1553
g9
aS'mean'
p1554
aaa(lp1555
g1540
a(lp1556
S'why'
p1557
aS'dont'
p1558
aS'they'
p1559
aS'say'
p1560
aaa(lp1561
g1540
a(lp1562
S'well'
p1563
aS'we'
p1564
aS'should'
p1565
aS'give'
p1566
aS'some'
p1567
aS'back'
p1568
aaa(lp1569
g1540
a(lp1570
S'You'
p1571
aS'know'
p1572
aaa(lp1573
S'CAM'
p1574
a(lp1575
S'Hm'
p1576
aaa(lp1577
S'JOWe'
p1578
a(lp1579
S'should'
p1580
aS'take'
p1581
ag52
aS'cut'
p1582
aaa(lp1583
g1578
a(lp1584
S'Its'
p1585
aaa(lp1586
g1578
a(lp1587
S'If'
p1588
aaa(lp1589
g1578
a(lp1590
S'But'
p1591
aS'its'
p1592
aS'always'
p1593
aS'the'
p1594
aS'federal'
p1595
aS'workers'
p1596
aS'that'
p1597
aS'should'
p1598
aS'take'
p1599
aS'the'
p1600
aS'cut'
p1601
aaa(lp1602
S'CAM'
p1603
a(lp1604
aa(lp1605
S'JO'
p1606
a(lp1607
S'You'
p1608
aS'know'
p1609
aaa(lp1610
g1606
a(lp1611
g9
aS'mean'
p1612
aS'the'
p1613
aaa(lp1614
g1606
a(lp1615
S'like'
p1616
aS'the'
p1617
aS'post'
p1618
aS'office'
p1619
aS'and'
p1620
aS'that'
p1621
aaa(lp1622
S'CAMWell'
p1623
a(lp1624
S'then'
p1625
aS'theyre'
p1626
aS'finding'
p1627
aS'out'
p1628
aS'all'
p1629
aS'these'
p1630
aS'different'
p1631
aS'things'
p1632
aS'that'
p1633
aS'he'
p1634
aS'was'
p1635
aS'doing'
p1636
aaa(lp1637
g1623
a(lp1638
S'At'
p1639
aaa(lp1640
S'JOYeah'
p1641
a(lp1642
aa(lp1643
S'CAMLike'
p1644
a(lp1645
S'with'
p1646
aS'the'
p1647
aaa(lp1648
g1644
a(lp1649
S'all'
p1650
aS'the'
p1651
aS'Republicans'
p1652
aaa(lp1653
g1644
a(lp1654
S'They'
p1655
aS'were'
p1656
aS'like'
p1657
aS'training'
p1658
aS'them'
p1659
aaa(lp1660
g1644
a(lp1661
S'And'
p1662
aS'taking'
p1663
aS'them'
p1664
aS'like'
p1665
aaa(lp1666
g1644
a(lp1667
S'you'
p1668
aS'know'
p1669
aaa(lp1670
g1644
a(lp1671
S'not'
p1672
aS'like'
p1673
aaa(lp1674
g1644
a(lp1675
S'sort'
p1676
aS'of'
p1677
aS'supporting'
p1678
aS'them'
p1679
aaa(lp1680
g1644
a(lp1681
S'but'
p1682
aS'like'
p1683
aS'training'
p1684
aS'them'
p1685
aaa(lp1686
g1644
a(lp1687
S'on'
p1688
aS'how'
p1689
aS'to'
p1690
aS'be'
p1691
aS'persuasive'
p1692
aaa(lp1693
g1644
a(lp1694
S'and'
p1695
aS'this'
p1696
aS'and'
p1697
aS'that'
p1698
aaa(lp1699
g1644
a(lp1700
S'and'
p1701
aaa(lp1702
S'JO'
p1703
a(lp1704
S'Yeah'
p1705
aaa(lp1706
S'WESSWhen'
p1707
a(lp1708
S'was'
p1709
aS'this'
p1710
aaa(lp1711
S'JOOh'
p1712
a(lp1713
aa(lp1714
g1712
a(lp1715
S'Theyve'
p1716
aS'been'
p1717
aS'doing'
p1718
aS'it'
p1719
aaa(lp1720
S'CAMWell'
p1721
a(lp1722
S'they'
p1723
aS'found'
p1724
aS'out'
p1725
aS'about'
p1726
aS'it'
p1727
aaa(lp1728
g1721
a(lp1729
S'that'
p1730
aS'theyve'
p1731
aS'been'
p1732
aS'doing'
p1733
aS'it'
p1734
aaa(lp1735
S'WESSOh'
p1736
a(lp1737
aa(lp1738
S'JOBut'
p1739
a(lp1740
aa(lp1741
S'CAMX'
p1742
a(lp1743
aa(lp1744
g1742
a(lp1745
g60
aS'for'
p1746
aS'that'
p1747
aS'whole'
p1748
aS'last'
p1749
aS'term'
p1750
ag60
aaa(lp1751
S'JOThese'
p1752
a(lp1753
S'young'
p1754
aS'ones'
p1755
aS'they'
p1756
aS'say'
p1757
aaa(lp1758
g1752
a(lp1759
S'are'
p1760
aS'the'
p1761
aS'ones'
p1762
aS'that'
p1763
aS'wont'
p1764
aS'let'
p1765
aS'him'
p1766
aS'back'
p1767
aS'down'
p1768
aS'now'
p1769
aaa(lp1770
S'CAM'
p1771
a(lp1772
S'Mm'
p1773
aaa(lp1774
S'JOThe'
p1775
a(lp1776
S'new'
p1777
aS'ones'
p1778
aaa(lp1779
g1775
a(lp1780
S'You'
p1781
aS'know'
p1782
aaa(lp1783
g1775
a(lp1784
S'that'
p1785
aS'just'
p1786
aS'got'
p1787
aS'in'
p1788
aS'there'
p1789
aaa(lp1790
S'CAM'
p1791
a(lp1792
S'Unhunh'
p1793
aaa(lp1794
S'JO'
p1795
a(lp1796
S'Y'
p1797
aS'because'
p1798
aS'theyve'
p1799
aaa(lp1800
g1795
a(lp1801
S'theyve'
p1802
aS'been'
p1803
aS'taught'
p1804
aS'that'
p1805
aS'probably'
p1806
aaa(lp1807
g1795
a(lp1808
S'that'
p1809
aS'you'
p1810
aS'dont'
p1811
aS'back'
p1812
aS'down'
p1813
aaa(lp1814
S'CAMYeah'
p1815
a(lp1816
aa(lp1817
g1815
a(lp1818
g60
aS'they'
p1819
aS'all'
p1820
aS'rely'
p1821
aS'on'
p1822
aS'him'
p1823
ag60
aaa(lp1824
S'JO'
p1825
a(lp1826
S'But'
p1827
ag9
aS'mean'
p1828
aS'its'
p1829
aS'always'
p1830
aS'been'
p1831
ag52
aS'give'
p1832
aS'and'
p1833
aS'take'
p1834
aaa(lp1835
S'CAM'
p1836
a(lp1837
S'Yeah'
p1838
aaa(lp1839
S'JOYou'
p1840
a(lp1841
S'know'
p1842
aaa(lp1843
g1840
a(lp1844
g9
aS'mean'
p1845
ag9
aS'wanna'
p1846
aS'do'
p1847
aS'my'
p1848
aS'share'
p1849
aaa(lp1850
S'CAM'
p1851
a(lp1852
S'Right'
p1853
aaa(lp1854
S'JOBut'
p1855
a(lp1856
g9
aS'dont'
p1857
aS'wanna'
p1858
aS'be'
p1859
aS'the'
p1860
aS'only'
p1861
aS'one'
p1862
aaa(lp1863
S'CAM'
p1864
a(lp1865
S'Yeah'
p1866
aaa(lp1867
S'JOLike'
p1868
a(lp1869
S'look'
p1870
aS'at'
p1871
aS'Social'
p1872
aS'Security'
p1873
aaa(lp1874
S'CAM'
p1875
a(lp1876
aa(lp1877
S'JOthey'
p1878
a(lp1879
S'dont'
p1880
aS'do'
p1881
aS'anything'
p1882
aS'to'
p1883
aS'them'
p1884
aaa(lp1885
S'CAM'
p1886
a(lp1887
S'But'
p1888
aS'the'
p1889
aaa(lp1890
g1886
a(lp1891
S'The'
p1892
aS'fact'
p1893
aS'of'
p1894
aS'th'
p1895
aS'the'
p1896
aS'matter'
p1897
aS'is'
p1898
aS'is'
p1899
aS'that'
p1900
aaa(lp1901
S'JOYou'
p1902
a(lp1903
S'know'
p1904
aaa(lp1905
S'CAMin'
p1906
a(lp1907
S'this'
p1908
aS'country'
p1909
aS'the'
p1910
aaa(lp1911
g1906
a(lp1912
S'the'
p1913
aS'top'
p1914
aS'what'
p1915
aS'is'
p1916
aS'it'
p1917
aaa(lp1918
g1906
a(lp1919
S'BR'
p1920
aS'One'
p1921
aS'to'
p1922
aS'ten'
p1923
aS'percent'
p1924
aS'BR'
p1925
aaa(lp1926
g1906
a(lp1927
S'of'
p1928
aS'the'
p1929
aS'people'
p1930
aS'that'
p1931
aS'are'
p1932
aS'the'
p1933
aS'wealthiest'
p1934
aaa(lp1935
S'JOOh'
p1936
a(lp1937
S'yeah'
p1938
aaa(lp1939
S'CAMhave'
p1940
a(lp1941
S'all'
p1942
aS'the'
p1943
aS'money'
p1944
aaa(lp1945
S'JO'
p1946
a(lp1947
S'And'
p1948
aaa(lp1949
g1946
a(lp1950
S'and'
p1951
aS'yeah'
p1952
aaa(lp1953
g1946
a(lp1954
S'thats'
p1955
aS'what'
p1956
ag9
aS'r'
p1957
aS'read'
p1958
aS'the'
p1959
aS'other'
p1960
aS'day'
p1961
aaa(lp1962
g1946
a(lp1963
S'And'
p1964
aaa(lp1965
g1946
a(lp1966
S'the'
p1967
aS'middle'
p1968
aS'class'
p1969
aS'is'
p1970
aS'just'
p1971
aS'gone'
p1972
aS'now'
p1973
aaa(lp1974
g1946
a(lp1975
S'Just'
p1976
aS'about'
p1977
aaa(lp1978
S'CAMYep'
p1979
a(lp1980
aa(lp1981
S'JO'
p1982
a(lp1983
S'Youre'
p1984
aS'either'
p1985
aS'real'
p1986
ag1957
aaa(lp1987
g1982
a(lp1988
S'Your'
p1989
aS'v'
p1990
aS'you'
p1991
aS'or'
p1992
aaa(lp1993
g1982
a(lp1994
S'Real'
p1995
aS'rich'
p1996
aaa(lp1997
S'WESSFrederick'
p1998
a(lp1999
aa(lp2000
S'JOor'
p2001
a(lp2002
S'poor'
p2003
aaa(lp2004
S'CAM'
p2005
a(lp2006
S'Yeah'
p2007
aaa(lp2008
g2005
a(lp2009
S'And'
p2010
aS'the'
p2011
ag9
aS'mean'
p2012
aS'it'
p2013
aS'was'
p2014
aS'like'
p2015
aaa(lp2016
g2005
a(lp2017
S'promoted'
p2018
aS'with'
p2019
aS'the'
p2020
aS'whole'
p2021
aS'Reagan'
p2022
aS'era'
p2023
aaa(lp2024
g2005
a(lp2025
S'You'
p2026
aS'know'
p2027
aaa(lp2028
S'JOYeah'
p2029
a(lp2030
aa(lp2031
g2029
a(lp2032
S'But'
p2033
aaa(lp2034
S'CAMI'
p2035
a(lp2036
S'mean'
p2037
aaa(lp2038
S'JOYeah'
p2039
a(lp2040
aa(lp2041
g2039
a(lp2042
S'it'
p2043
aS'hasnt'
p2044
aS'been'
p2045
aS'just'
p2046
aS'for'
p2047
aS'the'
p2048
aS'last'
p2049
aS'couple'
p2050
aaa(lp2051
S'CAM'
p2052
a(lp2053
S'Mm'
p2054
aaa(lp2055
S'JOYou'
p2056
a(lp2057
S'know'
p2058
aS'its'
p2059
aaa(lp2060
g2056
a(lp2061
S'its'
p2062
aS'been'
p2063
aaa(lp2064
S'FRED'
p2065
a(lp2066
g60
aS'XX'
p2067
aS'XX'
p2068
aS'XX'
p2069
aaa(lp2070
S'CAMYou'
p2071
a(lp2072
S'know'
p2073
aaa(lp2074
g2071
a(lp2075
S'and'
p2076
aS'they'
p2077
aaa(lp2078
g2071
a(lp2079
S'they'
p2080
aS'cant'
p2081
aS'lie'
p2082
aS'to'
p2083
aS'the'
p2084
aS'people'
p2085
aaa(lp2086
S'WESSXX'
p2087
a(lp2088
g60
aaa(lp2089
S'CAMAnd'
p2090
a(lp2091
S'eventually'
p2092
aS'the'
p2093
aS'people'
p2094
aS'are'
p2095
aS'gonna'
p2096
aS'like'
p2097
aS'wise'
p2098
aS'up'
p2099
aaa(lp2100
S'FRED'
p2101
a(lp2102
aa(lp2103
S'CAMand'
p2104
a(lp2105
S'their'
p2106
aaa(lp2107
g2104
a(lp2108
S'the'
p2109
aS'unions'
p2110
aS'are'
p2111
aS'gonna'
p2112
aS'come'
p2113
aS'back'
p2114
aaa(lp2115
S'JOYeah'
p2116
a(lp2117
aa(lp2118
S'CAMand'
p2119
a(lp2120
S'theres'
p2121
aS'gonna'
p2122
aS'be'
p2123
aS'even'
p2124
aaa(lp2125
S'FRED'
p2126
a(lp2127
aa(lp2128
S'CAMdifferent'
p2129
a(lp2130
S'types'
p2131
aS'of'
p2132
aaa(lp2133
g2129
a(lp2134
S'of'
p2135
aS'political'
p2136
aS'movements'
p2137
aaa(lp2138
g2129
a(lp2139
S'Im'
p2140
aS'telling'
p2141
aS'you'
p2142
aaa(lp2143
S'JOMm'
p2144
a(lp2145
aa(lp2146
S'CAM'
p2147
a(lp2148
S'Cause'
p2149
aaa(lp2150
S'JO'
p2151
a(lp2152
S'Well'
p2153
aS'Im'
p2154
aS'surprised'
p2155
aS'Frederick'
p2156
aS'youd'
p2157
aS'come'
p2158
aaa(lp2159
g2151
a(lp2160
S'because'
p2161
ag9
aS'got'
p2162
aS'an'
p2163
aS'artificial'
p2164
aS'tree'
p2165
aaa(lp2166
S'CAM'
p2167
a(lp2168
aa(lp2169
S'FREDNo'
p2170
a(lp2171
aa(lp2172
S'JO'
p2173
a(lp2174
aa(lp2175
S'CAMMm'
p2176
a(lp2177
aa(lp2178
S'FREDMy'
p2179
a(lp2180
S'parents'
p2181
aS'have'
p2182
aS'an'
p2183
aS'artificial'
p2184
aS'tree'
p2185
aaa(lp2186
S'JODo'
p2187
a(lp2188
S'they'
p2189
aaa(lp2190
S'FREDIts'
p2191
a(lp2192
aa(lp2193
S'CAM'
p2194
a(lp2195
S'The'
p2196
aS'reign'
p2197
aS'of'
p2198
aS'terror'
p2199
aS'will'
p2200
aS'return'
p2201
aaa(lp2202
S'FREDThats'
p2203
a(lp2204
S'fine'
p2205
aaa(lp2206
S'JO'
p2207
a(lp2208
S'But'
p2209
aS'you'
p2210
aaa(lp2211
g2207
a(lp2212
S'But'
p2213
aS'you'
p2214
aS'know'
p2215
aS'i'
p2216
aaa(lp2217
g2207
a(lp2218
S'its'
p2219
aS'easier'
p2220
aS'for'
p2221
aS'older'
p2222
aS'people'
p2223
aaa(lp2224
S'WESS'
p2225
a(lp2226
S'What'
p2227
aaa(lp2228
S'JO'
p2229
a(lp2230
S'To'
p2231
aS'have'
p2232
ag52
aS'artificial'
p2233
aS'tree'
p2234
aaa(lp2235
g2229
a(lp2236
S'You'
p2237
aS'know'
p2238
aaa(lp2239
g2229
a(lp2240
S'Wessd'
p2241
aaa(lp2242
g2229
a(lp2243
S'you'
p2244
aS'know'
p2245
aaa(lp2246
g2229
a(lp2247
S'go'
p2248
aS'out'
p2249
aS'in'
p2250
aS'the'
p2251
aS'cold'
p2252
aaa(lp2253
g2229
a(lp2254
S'and'
p2255
aS'look'
p2256
aS'for'
p2257
ag52
aS'tree'
p2258
aS'and'
p2259
aS'stuff'
p2260
aaa(lp2261
S'WESS'
p2262
a(lp2263
S'And'
p2264
aS'then'
p2265
aS'to'
p2266
ag60
aS'Mass'
p2267
aS'at'
p2268
aS'twelve'
p2269
ag60
aaa(lp2270
S'FREDYeah'
p2271
a(lp2272
S'get'
p2273
aS'him'
p2274
aS'out'
p2275
aS'of'
p2276
aS'the'
p2277
aS'house'
p2278
aS'for'
p2279
ag52
aS'while'
p2280
aaa(lp2281
S'JO'
p2282
a(lp2283
S'Yeah'
p2284
aS'thats'
p2285
aS'an'
p2286
aS'idea'
p2287
aaa(lp2288
S'CAM'
p2289
a(lp2290
aa(lp2291
S'WESSDo'
p2292
a(lp2293
S'what'
p2294
aaa(lp2295
S'JOI'
p2296
a(lp2297
S'was'
p2298
aS'glad'
p2299
aS'the'
p2300
aS'game'
p2301
aS'was'
p2302
aS'on'
p2303
aaa(lp2304
g2296
a(lp2305
S'Because'
p2306
aaa(lp2307
g2296
a(lp2308
S'then'
p2309
ag9
aS'can'
p2310
aS'get'
p2311
aS'rid'
p2312
aS'of'
p2313
aS'him'
p2314
aS'for'
p2315
ag52
aS'while'
p2316
aaa(lp2317
S'FRED'
p2318
a(lp2319
aa(lp2320
S'CAM'
p2321
a(lp2322
aa(lp2323
S'FRED'
p2324
a(lp2325
aa(lp2326
S'JO'
p2327
a(lp2328
aa(lp2329
S'WESSWhat'
p2330
a(lp2331
aa(lp2332
S'JO'
p2333
a(lp2334
g130
ag9
aS'get'
p2335
aS'rid'
p2336
aS'of'
p2337
aS'you'
p2338
aS'for'
p2339
ag52
aS'while'
p2340
aS'when'
p2341
aS'the'
p2342
aS'game'
p2343
aS'is'
p2344
aS'on'
p2345
aaa(lp2346
g2333
a(lp2347
g9
aS'was'
p2348
aS'glad'
p2349
aS'it'
p2350
aS'was'
p2351
aS'on'
p2352
ag130
aaa(lp2353
S'CAMOh'
p2354
a(lp2355
aa(lp2356
g2354
a(lp2357
g9
aS'was'
p2358
aS'wondering'
p2359
aS'how'
p2360
aS'that'
p2361
ag60
aS'was'
p2362
ag60
aS'like'
p2363
aS'so'
p2364
aS'perfectly'
p2365
aS'straight'
p2366
aaa(lp2367
S'FRED'
p2368
a(lp2369
aa(lp2370
S'WESS'
p2371
a(lp2372
g60
aS'Gee'
p2373
aS'what'
p2374
ag60
aaa(lp2375
S'JO'
p2376
a(lp2377
aa(lp2378
g2376
a(lp2379
S'Oh'
p2380
aaa(lp2381
S'WESSNeil'
p2382
a(lp2383
S'said'
p2384
aS'that'
p2385
aS'was'
p2386
aS'one'
p2387
aS'of'
p2388
aS'the'
p2389
aS'most'
p2390
aS'exciting'
p2391
aS'games'
p2392
aS'he'
p2393
aS'ever'
p2394
aS'saw'
p2395
aaa(lp2396
S'JOX'
p2397
a(lp2398
g9
aS'just'
p2399
aS'took'
p2400
aS'paraffin'
p2401
ag60
aaa(lp2402
S'CAMOh'
p2403
a(lp2404
aa(lp2405
S'FRED'
p2406
a(lp2407
aa(lp2408
S'WESSYou'
p2409
a(lp2410
S'know'
p2411
aaa(lp2412
g2409
a(lp2413
S'If'
p2414
aS'you'
p2415
aS'are'
p2416
aaa(lp2417
S'JO'
p2418
a(lp2419
S'If'
p2420
aS'you'
p2421
aS'didnt'
p2422
aS'care'
p2423
aaa(lp2424
S'WESSGreen'
p2425
a(lp2426
S'Bay'
p2427
aS'did'
p2428
aS'their'
p2429
aS'thing'
p2430
aaa(lp2431
g2425
a(lp2432
S'but'
p2433
aS'they'
p2434
aaa(lp2435
g2425
a(lp2436
S'they'
p2437
aS'didnt'
p2438
aS'look'
p2439
aS'to'
p2440
aS'me'
p2441
aS'as'
p2442
aS'impressive'
p2443
aS'as'
p2444
aS'the'
p2445
aS'Steelers'
p2446
aaa(lp2447
g2425
a(lp2448
S'The'
p2449
aS'Steelers'
p2450
aS'looked'
p2451
aS'like'
p2452
ag52
aS'much'
p2453
aS'better'
p2454
aS'team'
p2455
aaa(lp2456
S'JO'
p2457
a(lp2458
S'Mm'
p2459
aaa(lp2460
S'WESSIll'
p2461
a(lp2462
S'have'
p2463
aS'to'
p2464
aS'admit'
p2465
aaa(lp2466
S'JO'
p2467
a(lp2468
S'Mm'
p2469
aaa(lp2470
S'WESS'
p2471
a(lp2472
S'Cause'
p2473
aS'they'
p2474
aS'went'
p2475
aS'right'
p2476
aS'down'
p2477
aS'there'
p2478
aaa(lp2479
S'JOX'
p2480
a(lp2481
aa(lp2482
S'WESSevery'
p2483
a(lp2484
S'time'
p2485
aS'they'
p2486
aS'had'
p2487
aS'the'
p2488
aS'ball'
p2489
aaa(lp2490
S'CAM'
p2491
a(lp2492
S'Well'
p2493
aS'then'
p2494
aS'how'
p2495
aS'is'
p2496
aS'it'
p2497
aS'that'
p2498
aS'they'
p2499
aS'lost'
p2500
aaa(lp2501
S'WESSNot'
p2502
a(lp2503
S'every'
p2504
aS'time'
p2505
aaa(lp2506
S'JOYeah'
p2507
a(lp2508
aa(lp2509
g2507
a(lp2510
S'How'
p2511
aS'is'
p2512
aS'it'
p2513
aaa(lp2514
g2507
a(lp2515
S'That'
p2516
aS'aint'
p2517
aS'fair'
p2518
aS'then'
p2519
aaa(lp2520
g2507
a(lp2521
S'You'
p2522
aS'know'
p2523
aaa(lp2524
g2507
a(lp2525
g52
aS'lot'
p2526
aS'of'
p2527
aS'those'
p2528
aS'ornaments'
p2529
aS'on'
p2530
aS'that'
p2531
aS'tree'
p2532
aaa(lp2533
S'CAM'
p2534
a(lp2535
aa(lp2536
S'JOare'
p2537
a(lp2538
S'from'
p2539
aS'my'
p2540
aS'childhood'
p2541
aaa(lp2542
g2537
a(lp2543
S'And'
p2544
aS'Wesleys'
p2545
aaa(lp2546
S'WESS'
p2547
a(lp2548
S'From'
p2549
aS'what'
p2550
aaa(lp2551
S'JO'
p2552
a(lp2553
g130
aS'Your'
p2554
aS'childhood'
p2555
aS'and'
p2556
aS'my'
p2557
aS'childhood'
p2558
ag130
aaa(lp2559
S'WESSMm'
p2560
a(lp2561
aa(lp2562
S'CAMReally'
p2563
a(lp2564
aa(lp2565
S'JO'
p2566
a(lp2567
S'Unhunh'
p2568
aaa(lp2569
g2566
a(lp2570
S'Like'
p2571
aS'those'
p2572
aS'three'
p2573
aS'little'
p2574
aS'bells'
p2575
aaa(lp2576
S'WESSWhat'
p2577
a(lp2578
S'were'
p2579
aS'all'
p2580
aS'the'
p2581
aS'ornaments'
p2582
aaa(lp2583
S'JOX'
p2584
a(lp2585
S'And'
p2586
aS'that'
p2587
aS'one'
p2588
aS'over'
p2589
aS'there'
p2590
ag60
aaa(lp2591
S'WESSYeah'
p2592
a(lp2593
S'but'
p2594
aS'we'
p2595
aS'dont'
p2596
aS'use'
p2597
aS'half'
p2598
aS'of'
p2599
aS'em'
p2600
aaa(lp2601
S'JOThat'
p2602
a(lp2603
S'was'
p2604
aS'mine'
p2605
aaa(lp2606
S'CAMHm'
p2607
a(lp2608
aa(lp2609
S'JO'
p2610
a(lp2611
S'XX'
p2612
ag60
aS'little'
p2613
ag60
aaa(lp2614
S'WESSHow'
p2615
a(lp2616
S'many'
p2617
ag149
aaa(lp2618
g2615
a(lp2619
S'How'
p2620
aS'many'
p2621
aS'ornaments'
p2622
aS'didnt'
p2623
aS'you'
p2624
aS'use'
p2625
aaa(lp2626
S'JOI'
p2627
a(lp2628
S'didnt'
p2629
aaa(lp2630
g2627
a(lp2631
S'Oh'
p2632
aaa(lp2633
g2627
a(lp2634
g9
aS'used'
p2635
aS'most'
p2636
aS'of'
p2637
aS'em'
p2638
aaa(lp2639
S'WESS'
p2640
a(lp2641
S'Mm'
p2642
aaa(lp2643
S'JO'
p2644
a(lp2645
S'And'
p2646
aS'theyre'
p2647
aaa(lp2648
g2644
a(lp2649
S'you'
p2650
aS'know'
p2651
aaa(lp2652
S'WESSDid'
p2653
a(lp2654
S'you'
p2655
aS'go'
p2656
aS'pick'
p2657
aS'out'
p2658
ag52
aS'tree'
p2659
aaa(lp2660
S'JOTheres'
p2661
a(lp2662
S'some'
p2663
aS'up'
p2664
aS'there'
p2665
aaa(lp2666
g2661
a(lp2667
S'you'
p2668
aS'can'
p2669
aS'tell'
p2670
aS'are'
p2671
aS'really'
p2672
aS'old'
p2673
aaa(lp2674
S'FREDMhm'
p2675
a(lp2676
aa(lp2677
S'WESSWhered'
p2678
a(lp2679
S'you'
p2680
aS'put'
p2681
aS'it'
p2682
aaa(lp2683
S'FRED'
p2684
a(lp2685
S'In'
p2686
aS'the'
p2687
aS'living'
p2688
aS'room'
p2689
aS'where'
p2690
aS'the'
p2691
aS'loveseat'
p2692
aS'was'
p2693
aaa(lp2694
g2684
a(lp2695
S'In'
p2696
aS'the'
p2697
aS'corner'
p2698
aS'by'
p2699
aS'the'
p2700
aS'windows'
p2701
aaa(lp2702
S'JOOh'
p2703
a(lp2704
aa(lp2705
S'WESS'
p2706
a(lp2707
S'Oh'
p2708
aaa(lp2709
g2706
a(lp2710
S'Okay'
p2711
aaa(lp2712
g2706
a(lp2713
S'Okay'
p2714
aaa(lp2715
S'JOLast'
p2716
a(lp2717
S'year'
p2718
aS'you'
p2719
aS'had'
p2720
aS'it'
p2721
aaa(lp2722
g2716
a(lp2723
S'or'
p2724
aaa(lp2725
g2716
a(lp2726
S'two'
p2727
aS'years'
p2728
aS'ago'
p2729
aS'you'
p2730
aS'had'
p2731
aS'it'
p2732
aS'in'
p2733
aS'the'
p2734
aS'dining'
p2735
aS'room'
p2736
aaa(lp2737
S'FRED'
p2738
a(lp2739
S'Mm'
p2740
aaa(lp2741
g2738
a(lp2742
S'HI'
p2743
aS'did'
p2744
aS'we'
p2745
aS'ever'
p2746
aS'have'
p2747
aS'it'
p2748
aS'in'
p2749
aS'the'
p2750
aS'dining'
p2751
aS'room'
p2752
aS'HI'
p2753
aaa(lp2754
S'JOHI'
p2755
a(lp2756
S'Yeah'
p2757
aaa(lp2758
g2755
a(lp2759
g9
aS'was'
p2760
aS'there'
p2761
aS'HI'
p2762
aaa(lp2763
S'FREDYeah'
p2764
a(lp2765
S'we'
p2766
aS'did'
p2767
aS'have'
p2768
aS'it'
p2769
aS'once'
p2770
aS'in'
p2771
aS'the'
p2772
aS'dining'
p2773
aS'room'
p2774
aaa(lp2775
S'JO'
p2776
a(lp2777
S'Yeah'
p2778
aS'well'
p2779
aS'the'
p2780
aS'year'
p2781
aS'we'
p2782
aS'went'
p2783
aS'to'
p2784
aS'that'
p2785
aaa(lp2786
S'FREDYeah'
p2787
a(lp2788
aa(lp2789
S'WESS'
p2790
a(lp2791
S'Yeah'
p2792
aaa(lp2793
g2790
a(lp2794
S'we'
p2795
aS'dont'
p2796
aaa(lp2797
S'JOplay'
p2798
a(lp2799
aa(lp2800
S'WESS'
p2801
a(lp2802
S'Well'
p2803
aS'have'
p2804
aS'to'
p2805
aS'try'
p2806
aS'to'
p2807
aS'get'
p2808
aS'in'
p2809
aaa(lp2810
g2801
a(lp2811
S'Geez'
p2812
aaa(lp2813
g2801
a(lp2814
S'weve'
p2815
aS'been'
p2816
aS'gonna'
p2817
aS'come'
p2818
aS'in'
p2819
aaa(lp2820
g2801
a(lp2821
S'and'
p2822
aS'gonna'
p2823
aS'come'
p2824
aS'in'
p2825
aaa(lp2826
g2801
a(lp2827
S'and'
p2828
aS'gonna'
p2829
aS'come'
p2830
aS'in'
p2831
aaa(lp2832
g2801
a(lp2833
S'And'
p2834
aS'it'
p2835
aS'just'
p2836
aaa(lp2837
S'JO'
p2838
a(lp2839
S'Well'
p2840
aaa(lp2841
S'WESS'
p2842
a(lp2843
S'Havent'
p2844
aS'been'
p2845
ag186
aS'got'
p2846
aS'anywhere'
p2847
aaa(lp2848
S'CAMJust'
p2849
a(lp2850
S'lazy'
p2851
aS'old'
p2852
aS'farts'
p2853
aaa(lp2854
S'JO'
p2855
a(lp2856
S'VOXHI'
p2857
aS'Hey'
p2858
aS'HIVOX'
p2859
aaa(lp2860
S'CAM'
p2861
a(lp2862
aa(lp2863
S'FREDAh'
p2864
a(lp2865
aa(lp2866
S'WESSWhat'
p2867
a(lp2868
aa(lp2869
S'JO'
p2870
a(lp2871
S'VOXHI'
p2872
aS'Lazy'
p2873
aS'old'
p2874
aS'fart'
p2875
aS'HIVOX'
p2876
aaa(lp2877
S'CAM'
p2878
a(lp2879
aa(lp2880
S'JO'
p2881
a(lp2882
aa(lp2883
g2881
a(lp2884
S'HI'
p2885
aS'We'
p2886
aS'work'
p2887
aS'all'
p2888
aS'the'
p2889
aS'time'
p2890
aS'HI'
p2891
aaa(lp2892
g2881
a(lp2893
S'VOX'
p2894
ag9
aS'do'
p2895
aS'VOX'
p2896
aaa(lp2897
g2881
a(lp2898
S'he'
p2899
aS'dont'
p2900
aaa(lp2901
g2881
a(lp2902
S'but'
p2903
ag9
aS'do'
p2904
aaa(lp2905
S'CAM'
p2906
a(lp2907
aa(lp2908
S'WESSIm'
p2909
a(lp2910
S'on'
p2911
aS'the'
p2912
aS'town'
p2913
aS'board'
p2914
aaa(lp2915
S'JO'
p2916
a(lp2917
aa(lp2918
S'CAM'
p2919
a(lp2920
aa(lp2921
S'JOHe'
p2922
a(lp2923
S'has'
p2924
aS'to'
p2925
aS'go'
p2926
aS'in'
p2927
aS'the'
p2928
aS'day'
p2929
aS'after'
p2930
aaa(lp2931
g2922
a(lp2932
S'PAR'
p2933
aS'January'
p2934
aS'first'
p2935
aS'PAR'
p2936
aaa(lp2937
S'WESS'
p2938
a(lp2939
S'Ja'
p2940
aaa(lp2941
g2938
a(lp2942
S'January'
p2943
aS'second'
p2944
aS'Jo'
p2945
aaa(lp2946
S'JO'
p2947
a(lp2948
aa(lp2949
S'WESSGoddamn'
p2950
a(lp2951
aa(lp2952
S'JO'
p2953
a(lp2954
aa(lp2955
S'FRED'
p2956
a(lp2957
aa(lp2958
S'CAM'
p2959
a(lp2960
aa(lp2961
g2959
a(lp2962
S'To'
p2963
aS'do'
p2964
aS'what'
p2965
aaa(lp2966
S'JO'
p2967
a(lp2968
aa(lp2969
g2967
a(lp2970
S'The'
p2971
aS'Vets'
p2972
aaa(lp2973
g2967
a(lp2974
S'He'
p2975
aS'hasn'
p2976
aaa(lp2977
g2967
a(lp2978
S'The'
p2979
aS'last'
p2980
aS'two'
p2981
aS'times'
p2982
aS'hes'
p2983
aS'supposed'
p2984
aS'to'
p2985
aS'be'
p2986
aS'there'
p2987
aaa(lp2988
g2967
a(lp2989
S'he'
p2990
aS'didnt'
p2991
aS'go'
p2992
aaa(lp2993
g2967
a(lp2994
S'And'
p2995
aS'theyre'
p2996
aS'g'
p2997
aaa(lp2998
S'WESS'
p2999
a(lp3000
S'Well'
p3001
aS'one'
p3002
aS'time'
p3003
aaa(lp3004
S'JOGonna'
p3005
a(lp3006
S'get'
p3007
aS'after'
p3008
aS'him'
p3009
aaa(lp3010
S'WESSit'
p3011
a(lp3012
S'was'
p3013
aS'supposed'
p3014
aS'to'
p3015
aS'rain'
p3016
aS'and'
p3017
aS'ice'
p3018
aaa(lp3019
g3011
a(lp3020
S'and'
p3021
aaa(lp3022
g3011
a(lp3023
S'to'
p3024
aS'hell'
p3025
aS'with'
p3026
aS'that'
p3027
aaa(lp3028
g3011
a(lp3029
g9
aS'aint'
p3030
aS'gonna'
p3031
aS'fight'
p3032
aS'that'
p3033
aS'to'
p3034
aS'go'
p3035
aS'in'
p3036
aS'there'
p3037
aS'for'
p3038
ag52
aS'half'
p3039
aS'hour'
p3040
aaa(lp3041
S'CAM'
p3042
a(lp3043
S'Yeah'
p3044
aaa(lp3045
S'JO'
p3046
a(lp3047
S'So'
p3048
aaa(lp3049
g3046
a(lp3050
S'no'
p3051
aaa(lp3052
g3046
a(lp3053
S'Twice'
p3054
aS'you'
p3055
aS'reneged'
p3056
aaa(lp3057
S'WESSYeah'
p3058
a(lp3059
aa(lp3060
S'JO'
p3061
a(lp3062
S'So'
p3063
aS'you'
p3064
aS'gotta'
p3065
aS'go'
p3066
aS'this'
p3067
aS'time'
p3068
aaa(lp3069
g3061
a(lp3070
S'If'
p3071
aS'its'
p3072
aS'good'
p3073
aS'weather'
p3074
aaa(lp3075
S'WESS'
p3076
a(lp3077
S'Yeah'
p3078
aaa(lp3079
g3076
a(lp3080
S'If'
p3081
aS'it'
p3082
aS'aint'
p3083
aS'good'
p3084
aS'weather'
p3085
aaa(lp3086
g3076
a(lp3087
S'Ill'
p3088
aS'just'
p3089
aS'call'
p3090
aS'em'
p3091
aS'up'
p3092
aS'and'
p3093
aS'say'
p3094
aS'hey'
p3095
aaa(lp3096
g3076
a(lp3097
S'Im'
p3098
aS'seventy'
p3099
aaa(lp3100
g3076
a(lp3101
S'and'
p3102
aS'uh'
p3103
aaa(lp3104
S'JO'
p3105
a(lp3106
S'What'
p3107
aaa(lp3108
g3105
a(lp3109
S'Youre'
p3110
aS'l'
p3111
aaa(lp3112
g3105
a(lp3113
S'Dont'
p3114
aS'lie'
p3115
aaa(lp3116
S'WESSIm'
p3117
a(lp3118
S'seventyone'
p3119
aaa(lp3120
g3117
a(lp3121
S'and'
p3122
aS'uh'
p3123
aaa(lp3124
S'JO'
p3125
a(lp3126
aa(lp3127
S'WESSGoing'
p3128
a(lp3129
S'on'
p3130
aS'seventytwo'
p3131
aaa(lp3132
S'JO'
p3133
a(lp3134
aa(lp3135
S'WESSAnd'
p3136
a(lp3137
S'uh'
p3138
aaa(lp3139
S'JO'
p3140
a(lp3141
aa(lp3142
S'WESS'
p3143
a(lp3144
S'Im'
p3145
aS'not'
p3146
aS'coming'
p3147
aS'in'
p3148
aS'today'
p3149
aaa(lp3150
S'CAM'
p3151
a(lp3152
aa(lp3153
S'JO'
p3154
a(lp3155
aa(lp3156
g3154
a(lp3157
S'Hm'
p3158
aaa(lp3159
S'CAM'
p3160
a(lp3161
aa(lp3162
S'JO'
p3163
a(lp3164
S'Hm'
p3165
aaa(lp3166
S'WESS'
p3167
a(lp3168
S'So'
p3169
aaa(lp3170
g3167
a(lp3171
S'Who'
p3172
aS'was'
p3173
aS'this'
p3174
aS'other'
p3175
aS'guy'
p3176
aaa(lp3177
g3167
a(lp3178
S'you'
p3179
aS'said'
p3180
aS'he'
p3181
aS'was'
p3182
ag52
aS'teacher'
p3183
aaa(lp3184
g3167
a(lp3185
S'That'
p3186
aS'taught'
p3187
aS'you'
p3188
aS'Spanish'
p3189
aaa(lp3190
g3167
a(lp3191
S'Where'
p3192
aaa(lp3193
S'CAM'
p3194
a(lp3195
S'At'
p3196
aS'the'
p3197
aS'university'
p3198
aaa(lp3199
S'WESS'
p3200
a(lp3201
S'Oh'
p3202
aaa(lp3203
S'JOW'
p3204
a(lp3205
aa(lp3206
S'WESSHes'
p3207
a(lp3208
S'got'
p3209
ag52
aS'job'
p3210
aS'as'
p3211
ag52
aS'professor'
p3212
aaa(lp3213
S'CAM'
p3214
a(lp3215
S'Well'
p3216
ag1430
aaa(lp3217
g3214
a(lp3218
S'They'
p3219
aaa(lp3220
g3214
a(lp3221
g2216
aS'its'
p3222
aS'like'
p3223
ag52
aS'teaching'
p3224
aS'assistant'
p3225
aaa(lp3226
g3214
a(lp3227
S'A'
p3228
aS'TA'
p3229
aS'they'
p3230
aS'call'
p3231
aS'em'
p3232
aaa(lp3233
g3214
a(lp3234
S'But'
p3235
aS'they'
p3236
aaa(lp3237
S'WESSOh'
p3238
a(lp3239
aa(lp3240
S'CAMThey'
p3241
a(lp3242
S'teach'
p3243
aS'like'
p3244
aaa(lp3245
g3241
a(lp3246
S'as'
p3247
aS'if'
p3248
ag60
aS'of'
p3249
ag60
aS'they'
p3250
aS'were'
p3251
ag52
aS'professor'
p3252
aaa(lp3253
S'JO'
p3254
a(lp3255
S'Hm'
p3256
aaa(lp3257
S'WESSOh'
p3258
a(lp3259
S'yeah'
p3260
aaa(lp3261
S'CAMFor'
p3262
a(lp3263
S'lower'
p3264
aS'level'
p3265
aaa(lp3266
g3262
a(lp3267
S'um'
p3268
aS'classes'
p3269
aaa(lp3270
S'JO'
p3271
a(lp3272
aa(lp3273
S'CAMClasses'
p3274
a(lp3275
S'that'
p3276
aS'are'
p3277
aS'just'
p3278
aS'like'
p3279
aaa(lp3280
g3274
a(lp3281
g1430
aS'you'
p3282
aS'know'
p3283
aaa(lp3284
S'JOJust'
p3285
a(lp3286
S'taking'
p3287
aaa(lp3288
S'CAMrelatively'
p3289
a(lp3290
S'beginning'
p3291
aS'like'
p3292
aaa(lp3293
g3289
a(lp3294
S'If'
p3295
aS'you'
p3296
aS'took'
p3297
aS'first'
p3298
aS'or'
p3299
aS'second'
p3300
aS'or'
p3301
aS'third'
p3302
aS'or'
p3303
aS'fourth'
p3304
aS'semester'
p3305
aS'of'
p3306
ag52
aS'language'
p3307
aaa(lp3308
g3289
a(lp3309
g943
aaa(lp3310
g3289
a(lp3311
S'then'
p3312
aaa(lp3313
g3289
a(lp3314
S'you'
p3315
aS'probably'
p3316
aS'will'
p3317
aS'have'
p3318
ag52
aS'TA'
p3319
aaa(lp3320
g3289
a(lp3321
S'If'
p3322
aS'you'
p3323
aS'take'
p3324
aS'more'
p3325
aS'advanced'
p3326
aaa(lp3327
S'WESSMm'
p3328
a(lp3329
aa(lp3330
S'CAMlike'
p3331
a(lp3332
S'literature'
p3333
aS'courses'
p3334
aS'in'
p3335
ag52
aS'foreign'
p3336
aS'language'
p3337
aaa(lp3338
g3331
a(lp3339
S'then'
p3340
aS'you'
p3341
aS'have'
p3342
ag52
aS'real'
p3343
aS'professor'
p3344
aaa(lp3345
S'WESS'
p3346
a(lp3347
S'Oh'
p3348
aaa(lp3349
g3346
a(lp3350
S'Do'
p3351
aS'they'
p3352
aS'pay'
p3353
aS'them'
p3354
aS'very'
p3355
aS'good'
p3356
aaa(lp3357
S'CAM'
p3358
a(lp3359
S'Uh'
p3360
aaa(lp3361
g3358
a(lp3362
S'Well'
p3363
aaa(lp3364
S'WESS'
p3365
a(lp3366
S'They'
p3367
aS'didnt'
p3368
aS'pay'
p3369
aS'you'
p3370
aS'very'
p3371
aS'good'
p3372
aaa(lp3373
g3365
a(lp3374
S'when'
p3375
aaa(lp3376
g3365
a(lp3377
S'and'
p3378
aS'you'
p3379
aaa(lp3380
S'JOwell'
p3381
a(lp3382
S'that'
p3383
aS'was'
p3384
aS'at'
p3385
ag52
ag3111
aS'public'
p3386
aS'school'
p3387
aaa(lp3388
S'WESS'
p3389
a(lp3390
S'Yeah'
p3391
ag9
aS'know'
p3392
aaa(lp3393
S'CAMRight'
p3394
a(lp3395
aa(lp3396
S'WESSbut'
p3397
a(lp3398
S'even'
p3399
aS'so'
p3400
aaa(lp3401
g3397
a(lp3402
S'There'
p3403
aS'was'
p3404
aaa(lp3405
g3397
a(lp3406
S'some'
p3407
aS'people'
p3408
aS'there'
p3409
aS'that'
p3410
aaa(lp3411
S'JOI'
p3412
a(lp3413
S'know'
p3414
ag52
aS'lot'
p3415
aS'of'
p3416
aS'the'
p3417
aS'professors'
p3418
aS'get'
p3419
aS'good'
p3420
aS'money'
p3421
aS'though'
p3422
aaa(lp3423
S'WESScouldnt'
p3424
a(lp3425
S'even'
p3426
aS'teach'
p3427
aaa(lp3428
g3424
a(lp3429
S'and'
p3430
aS'they'
p3431
aS'had'
p3432
aaa(lp3433
S'JOdont'
p3434
a(lp3435
S'they'
p3436
aaa(lp3437
S'CAMYeah'
p3438
a(lp3439
aa(lp3440
S'WESSTeaching'
p3441
a(lp3442
S'degrees'
p3443
aaa(lp3444
S'CAMWell'
p3445
a(lp3446
g9
aaa(lp3447
g3445
a(lp3448
S'like'
p3449
aS'at'
p3450
aS'Marquette'
p3451
aaa(lp3452
g3445
a(lp3453
S'If'
p3454
aS'youre'
p3455
ag52
aS'TA'
p3456
aS'you'
p3457
aS'get'
p3458
aS'free'
p3459
aS'tuition'
p3460
aaa(lp3461
S'WESS'
p3462
a(lp3463
S'Mm'
p3464
aaa(lp3465
S'CAMAnd'
p3466
a(lp3467
S'if'
p3468
aS'youre'
p3469
ag52
aS'TA'
p3470
aaa(lp3471
g3466
a(lp3472
S'it'
p3473
aS'means'
p3474
aS'youre'
p3475
aS'going'
p3476
aS'for'
p3477
aS'your'
p3478
aS'graduate'
p3479
aS'studies'
p3480
aaa(lp3481
S'WESS'
p3482
a(lp3483
S'Oh'
p3484
aaa(lp3485
S'CAMX'
p3486
a(lp3487
S'Now'
p3488
ag60
aaa(lp3489
g3486
a(lp3490
S'So'
p3491
aS'they'
p3492
aaa(lp3493
g3486
a(lp3494
S'if'
p3495
aS'you'
p3496
aS'get'
p3497
aS'free'
p3498
aS'tuition'
p3499
aS'at'
p3500
aS'Marquette'
p3501
aaa(lp3502
g3486
a(lp3503
g9
aS'mean'
p3504
aS'thats'
p3505
aaa(lp3506
S'JOYeah'
p3507
a(lp3508
aa(lp3509
g3507
a(lp3510
S'thats'
p3511
ag52
aS'quite'
p3512
ag52
aS'bit'
p3513
aaa(lp3514
S'CAMThats'
p3515
a(lp3516
S'like'
p3517
aS'probably'
p3518
aaa(lp3519
g3515
a(lp3520
S'six'
p3521
aS'thousand'
p3522
ag52
aS'semester'
p3523
aS'or'
p3524
aS'something'
p3525
aS'like'
p3526
aaa(lp3527
g3515
a(lp3528
S'Right'
p3529
aaa(lp3530
g3515
a(lp3531
g9
aS'dont'
p3532
aS'know'
p3533
aaa(lp3534
S'JOMm'
p3535
a(lp3536
aa(lp3537
S'CAMSomething'
p3538
a(lp3539
S'like'
p3540
aS'that'
p3541
aaa(lp3542
S'WESS'
p3543
a(lp3544
S'Oh'
p3545
aS'yeah'
p3546
aaa(lp3547
g3543
a(lp3548
S'Thats'
p3549
ag52
aaa(lp3550
S'JODid'
p3551
a(lp3552
S'you'
p3553
aS'know'
p3554
aS'Neil'
p3555
aaa(lp3556
g3551
a(lp3557
S'is'
p3558
aS'teaching'
p3559
aS'at'
p3560
aS'uh'
p3561
aaa(lp3562
g3551
a(lp3563
S'at'
p3564
aS'the'
p3565
aS'college'
p3566
aS'in'
p3567
aaa(lp3568
S'CAM'
p3569
a(lp3570
S'Nope'
p3571
aaa(lp3572
S'JO'
p3573
a(lp3574
S'Arizona'
p3575
aaa(lp3576
S'CAM'
p3577
a(lp3578
S'Arizona'
p3579
aS'State'
p3580
aaa(lp3581
S'JO'
p3582
a(lp3583
S'Mhm'
p3584
aaa(lp3585
g3582
a(lp3586
S'its'
p3587
aS'his'
p3588
aS'second'
p3589
aS'year'
p3590
aaa(lp3591
S'WESSWhats'
p3592
a(lp3593
S'he'
p3594
aS'teaching'
p3595
aaa(lp3596
g3592
a(lp3597
S'how'
p3598
aS'to'
p3599
aS'be'
p3600
aS'an'
p3601
aS'asshole'
p3602
aaa(lp3603
S'JO'
p3604
a(lp3605
S'VOXHI'
p3606
aS'Now'
p3607
aS'Wess'
p3608
aaa(lp3609
S'CAM'
p3610
a(lp3611
aa(lp3612
S'WESS'
p3613
a(lp3614
aa(lp3615
S'JOthat'
p3616
a(lp3617
S'isnt'
p3618
aS'nice'
p3619
aS'HIVOX'
p3620
aaa(lp3621
g3616
a(lp3622
S'He'
p3623
aS'is'
p3624
aS'teaching'
p3625
aaa(lp3626
g3616
a(lp3627
S'hes'
p3628
aS'teaching'
p3629
aS'something'
p3630
aS'about'
p3631
aS'business'
p3632
aaa(lp3633
g3616
a(lp3634
S'and'
p3635
aaa(lp3636
g3616
a(lp3637
S'well'
p3638
aS'what'
p3639
aS'hes'
p3640
aS'in'
p3641
aaa(lp3642
g3616
a(lp3643
S'You'
p3644
aS'know'
p3645
aaa(lp3646
S'CAMRecreation'
p3647
a(lp3648
aa(lp3649
S'JO'
p3650
a(lp3651
g9
aS'mean'
p3652
aS'uh'
p3653
aaa(lp3654
g3650
a(lp3655
S'not'
p3656
aS'really'
p3657
aS'the'
p3658
aS'recreation'
p3659
aS'part'
p3660
aaa(lp3661
g3650
a(lp3662
S'but'
p3663
aaa(lp3664
g3650
a(lp3665
S'how'
p3666
aS'you'
p3667
aS'keep'
p3668
aS'books'
p3669
aS'and'
p3670
aaa(lp3671
g3650
a(lp3672
S'you'
p3673
aS'know'
p3674
aaa(lp3675
S'WESSYe'
p3676
a(lp3677
aa(lp3678
g3676
a(lp3679
S'You'
p3680
aS'know'
p3681
aS'what'
p3682
aS'gets'
p3683
aS'me'
p3684
aS'he'
p3685
aaa(lp3686
S'JOHe'
p3687
a(lp3688
S'keeps'
p3689
aS'all'
p3690
aS'the'
p3691
aS'books'
p3692
aS'you'
p3693
aS'know'
p3694
aaa(lp3695
g3687
a(lp3696
S'And'
p3697
aS'put'
p3698
aS'pays'
p3699
aS'all'
p3700
aS'the'
p3701
aS'thing'
p3702
aaa(lp3703
S'WESS'
p3704
a(lp3705
S'Yeah'
p3706
aaa(lp3707
S'CAMXXX'
p3708
a(lp3709
aa(lp3710
S'WESSWell'
p3711
a(lp3712
S'hes'
p3713
aaa(lp3714
S'JOThey'
p3715
a(lp3716
S'say'
p3717
aS'hes'
p3718
aS'very'
p3719
aS'good'
p3720
aS'at'
p3721
aS'that'
p3722
aaa(lp3723
S'WESSHe'
p3724
a(lp3725
S'makes'
p3726
aS'the'
p3727
aS'budget'
p3728
aS'out'
p3729
aaa(lp3730
S'JOThe'
p3731
a(lp3732
S'budget'
p3733
aaa(lp3734
g3731
a(lp3735
S'Thats'
p3736
aS'it'
p3737
aaa(lp3738
S'WESSAnd'
p3739
a(lp3740
S'hes'
p3741
aS'real'
p3742
aS'good'
p3743
aaa(lp3744
g3739
a(lp3745
S'at'
p3746
aS'making'
p3747
aS'the'
p3748
aS'budget'
p3749
aS'out'
p3750
aaa(lp3751
g3739
a(lp3752
S'But'
p3753
aaa(lp3754
g3739
a(lp3755
S'if'
p3756
aS'hes'
p3757
aS'gonna'
p3758
aS'put'
p3759
aS'something'
p3760
aS'in'
p3761
aS'the'
p3762
aS'checkbook'
p3763
aaa(lp3764
g3739
a(lp3765
S'and'
p3766
aS'its'
p3767
aS'eight'
p3768
aS'seventyfive'
p3769
aaa(lp3770
g3739
a(lp3771
S'he'
p3772
aS'just'
p3773
aS'puts'
p3774
aaa(lp3775
g3739
a(lp3776
S'eight'
p3777
aS'dollars'
p3778
aS'or'
p3779
aS'nine'
p3780
aS'down'
p3781
aaa(lp3782
S'JO'
p3783
a(lp3784
aa(lp3785
S'CAMOh'
p3786
a(lp3787
aa(lp3788
S'JO'
p3789
a(lp3790
S'Sally'
p3791
aaa(lp3792
g3789
a(lp3793
S'He'
p3794
aS'isnt'
p3795
aS'allowed'
p3796
aS'to'
p3797
aS'have'
p3798
aS'the'
p3799
aS'checkbook'
p3800
aaa(lp3801
g3789
a(lp3802
S'At'
p3803
aS'home'
p3804
aaa(lp3805
g3789
a(lp3806
S'but'
p3807
aS'he'
p3808
aaa(lp3809
S'CAMAnd'
p3810
a(lp3811
S'hes'
p3812
aS'really'
p3813
aS'good'
p3814
aS'at'
p3815
aS'making'
p3816
aS'out'
p3817
aS'the'
p3818
aS'budget'
p3819
aaa(lp3820
S'JOBut'
p3821
a(lp3822
aa(lp3823
g3821
a(lp3824
S'the'
p3825
aS'budget'
p3826
aS'hes'
p3827
aS'good'
p3828
aS'at'
p3829
aaa(lp3830
g3821
a(lp3831
S'So'
p3832
aS'thats'
p3833
aS'what'
p3834
aS'hes'
p3835
aaa(lp3836
g3821
a(lp3837
g9
aS'think'
p3838
aS'what'
p3839
aS'hes'
p3840
aS'teaching'
p3841
aaa(lp3842
g3821
a(lp3843
S'You'
p3844
aS'know'
p3845
aaa(lp3846
g3821
a(lp3847
S'How'
p3848
aS'that'
p3849
aS'you'
p3850
aS'would'
p3851
aS'go'
p3852
aS'about'
p3853
aS'making'
p3854
aS'out'
p3855
aS'budgets'
p3856
aS'for'
p3857
aaa(lp3858
g3821
a(lp3859
S'big'
p3860
aS'organizations'
p3861
aS'and'
p3862
aS'stuff'
p3863
aaa(lp3864
g3821
a(lp3865
S'Im'
p3866
aS'not'
p3867
aS'for'
p3868
aS'sure'
p3869
aaa(lp3870
S'FREDWell'
p3871
a(lp3872
g52
aS'lot'
p3873
aS'of'
p3874
aS'people'
p3875
aS'just'
p3876
aS'dont'
p3877
aaa(lp3878
g3871
a(lp3879
S'really'
p3880
aaa(lp3881
g3871
a(lp3882
S'keep'
p3883
aS'track'
p3884
aS'that'
p3885
aS'well'
p3886
aS'of'
p3887
aS'their'
p3888
aS'own'
p3889
aS'checking'
p3890
aS'account'
p3891
aaa(lp3892
S'WESS'
p3893
a(lp3894
S'Hmmm'
p3895
aaa(lp3896
S'JO'
p3897
a(lp3898
S'VOXHI'
p3899
aS'Yeah'
p3900
aS'but'
p3901
aS'you'
p3902
aS'gotta'
p3903
aS'though'
p3904
aS'Fred'
p3905
aaa(lp3906
g3897
a(lp3907
S'You'
p3908
aS'wouldnt'
p3909
aS'know'
p3910
aS'exactly'
p3911
aS'what'
p3912
aS'you'
p3913
aS'had'
p3914
aS'in'
p3915
aS'there'
p3916
aS'HIVOX'
p3917
aaa(lp3918
g3897
a(lp3919
S'Now'
p3920
aS'if'
p3921
aS'Patty'
p3922
aaa(lp3923
g3897
a(lp3924
S'is'
p3925
aS'off'
p3926
aS'one'
p3927
aS'penny'
p3928
aaa(lp3929
g3897
a(lp3930
S'she'
p3931
aS'will'
p3932
aS'not'
p3933
aS'go'
p3934
aS'to'
p3935
aS'bed'
p3936
aaa(lp3937
g3897
a(lp3938
S'She'
p3939
aS'keeps'
p3940
aS'going'
p3941
aS'over'
p3942
aS'and'
p3943
aS'over'
p3944
aS'and'
p3945
aS'over'
p3946
aaa(lp3947
S'CAM'
p3948
a(lp3949
S'XXXXX'
p3950
aaa(lp3951
S'JO'
p3952
a(lp3953
S'till'
p3954
aS'she'
p3955
aS'finds'
p3956
aS'that'
p3957
aS'penny'
p3958
aaa(lp3959
S'FRED'
p3960
a(lp3961
g9
aS'have'
p3962
aS'not'
p3963
aS'balanced'
p3964
aS'my'
p3965
aS'checkbook'
p3966
aS'in'
p3967
aS'seven'
p3968
aS'years'
p3969
aaa(lp3970
S'JO'
p3971
a(lp3972
aa(lp3973
S'WESS'
p3974
a(lp3975
S'So'
p3976
aS'where'
p3977
aS'do'
p3978
aS'you'
p3979
aaa(lp3980
S'JOVOXHI'
p3981
a(lp3982
S'How'
p3983
aS'do'
p3984
aS'you'
p3985
aS'know'
p3986
aS'that'
p3987
aS'they'
p3988
aS'arent'
p3989
aS'cheating'
p3990
aS'you'
p3991
aS'HIVOX'
p3992
aaa(lp3993
S'WESSSo'
p3994
a(lp3995
S'what'
p3996
aS'do'
p3997
aS'you'
p3998
aS'do'
p3999
aaa(lp4000
g3994
a(lp4001
S'just'
p4002
aS'take'
p4003
aS'their'
p4004
aS'word'
p4005
aS'for'
p4006
aS'it'
p4007
aaa(lp4008
S'FRED'
p4009
a(lp4010
g9
aS'look'
p4011
aS'at'
p4012
aS'my'
p4013
aS'bank'
p4014
aS'sta'
p4015
aS'bank'
p4016
aS'statements'
p4017
aaa(lp4018
g4009
a(lp4019
S'And'
p4020
aaa(lp4021
S'WESSMhm'
p4022
a(lp4023
aa(lp4024
S'FRED'
p4025
a(lp4026
S'look'
p4027
aS'through'
p4028
aS'my'
p4029
aS'checks'
p4030
aaa(lp4031
g4025
a(lp4032
S'When'
p4033
aS'they'
p4034
aS'come'
p4035
aS'in'
p4036
aaa(lp4037
g4025
a(lp4038
S'And'
p4039
aS'make'
p4040
aS'sure'
p4041
aS'that'
p4042
aS'its'
p4043
aS'fine'
p4044
aaa(lp4045
S'WESS'
p4046
a(lp4047
aa(lp4048
S'JO'
p4049
a(lp4050
S'VOXHI'
p4051
aS'But'
p4052
ag9
aS'mean'
p4053
aaa(lp4054
g4049
a(lp4055
S'they'
p4056
aS'could'
p4057
aS'be'
p4058
aS'cheating'
p4059
aS'you'
p4060
aS'HIVOX'
p4061
aaa(lp4062
g4049
a(lp4063
S'Couldnt'
p4064
aS'they'
p4065
aaa(lp4066
g4049
a(lp4067
g9
aS'mean'
p4068
aS'they'
p4069
aS'can'
p4070
aS'make'
p4071
aS'mistakes'
p4072
aS'too'
p4073
aaa(lp4074
S'FRED'
p4075
a(lp4076
g9
aS'know'
p4077
aS'but'
p4078
aaa(lp4079
g4075
a(lp4080
g9
aS'will'
p4081
aS'go'
p4082
aaa(lp4083
g4075
a(lp4084
g9
aS'will'
p4085
aS'check'
p4086
aaa(lp4087
g4075
a(lp4088
S'when'
p4089
aS'the'
p4090
aS'the'
p4091
aS'statement'
p4092
aS'comes'
p4093
aS'in'
p4094
aaa(lp4095
g4075
a(lp4096
S'and'
p4097
aS'make'
p4098
aS'sure'
p4099
aS'that'
p4100
aaa(lp4101
S'JOYeah'
p4102
a(lp4103
aa(lp4104
g4102
a(lp4105
S'Oh'
p4106
aaa(lp4107
S'FREDtheyve'
p4108
a(lp4109
S'only'
p4110
aS'deducted'
p4111
aaa(lp4112
S'JOthat'
p4113
a(lp4114
S'theyve'
p4115
aaa(lp4116
g4113
a(lp4117
S'and'
p4118
aS'theyve'
p4119
aS'deposited'
p4120
aaa(lp4121
S'FREDYou'
p4122
a(lp4123
S'know'
p4124
aaa(lp4125
g4122
a(lp4126
S'for'
p4127
aS'the'
p4128
aS'checks'
p4129
aaa(lp4130
g4122
a(lp4131
S'Right'
p4132
aaa(lp4133
S'JOYeah'
p4134
a(lp4135
aa(lp4136
g4134
a(lp4137
S'Oh'
p4138
aaa(lp4139
g4134
a(lp4140
S'But'
p4141
aS'you'
p4142
aS'dont'
p4143
aS'go'
p4144
aS'through'
p4145
aS'and'
p4146
aaa(lp4147
g4134
a(lp4148
S'and'
p4149
aS'check'
p4150
aS'every'
p4151
aS'check'
p4152
aS'off'
p4153
aaa(lp4154
S'WESSPenny'
p4155
a(lp4156
aa(lp4157
S'JO'
p4158
a(lp4159
S'Oh'
p4160
ag9
aS'do'
p4161
aS'that'
p4162
aaa(lp4163
S'WESSIll'
p4164
a(lp4165
aa(lp4166
g4164
a(lp4167
S'Let'
p4168
aS'me'
p4169
aS'tell'
p4170
aS'you'
p4171
aS'something'
p4172
aaa(lp4173
S'JO'
p4174
a(lp4175
S'How'
p4176
aS'bout'
p4177
aS'you'
p4178
aS'Cameron'
p4179
aaa(lp4180
g4174
a(lp4181
S'what'
p4182
aS'do'
p4183
aS'you'
p4184
aS'do'
p4185
aaa(lp4186
S'WESS'
p4187
a(lp4188
S'When'
p4189
ag9
aS'did'
p4190
aS'take'
p4191
aS'care'
p4192
aS'of'
p4193
aS'the'
p4194
aS'checkbook'
p4195
aaa(lp4196
S'CAMIm'
p4197
a(lp4198
S'gonna'
p4199
ag60
aS'start'
p4200
ag52
aS'club'
p4201
ag60
aaa(lp4202
S'WESSFor'
p4203
a(lp4204
S'my'
p4205
aS'mother'
p4206
aS'you'
p4207
aS'know'
p4208
aaa(lp4209
g4203
a(lp4210
g9
aS'didnt'
p4211
aS'do'
p4212
aS'it'
p4213
aS'either'
p4214
aaa(lp4215
S'JO'
p4216
a(lp4217
S'Oh'
p4218
aaa(lp4219
g4216
a(lp4220
S'you'
p4221
aS'wrote'
p4222
aS'down'
p4223
aS'what'
p4224
aS'sh'
p4225
aaa(lp4226
S'WESSI'
p4227
a(lp4228
S'wrote'
p4229
aS'down'
p4230
aS'everything'
p4231
aaa(lp4232
g4227
a(lp4233
S'but'
p4234
ag9
aS'was'
p4235
aS'more'
p4236
aS'like'
p4237
aS'Neil'
p4238
aaa(lp4239
g4227
a(lp4240
g9
aS'didnt'
p4241
aS'write'
p4242
aS'down'
p4243
aS'the'
p4244
aS'god'
p4245
aS'damn'
p4246
aS'pennies'
p4247
aaa(lp4248
S'JO'
p4249
a(lp4250
S'Oh'
p4251
aS'well'
p4252
aaa(lp4253
S'WESS'
p4254
a(lp4255
aa(lp4256
S'JOthat'
p4257
a(lp4258
aa(lp4259
g4257
a(lp4260
S'then'
p4261
aS'you'
p4262
aS'know'
p4263
aaa(lp4264
g4257
a(lp4265
S'itll'
p4266
aS'never'
p4267
aS'balance'
p4268
aS'if'
p4269
aS'you'
p4270
aS'dont'
p4271
aaa(lp4272
S'WESSMm'
p4273
a(lp4274
aa(lp4275
S'CAMWell'
p4276
a(lp4277
aa(lp4278
g4276
a(lp4279
g9
aS'think'
p4280
aS'Id'
p4281
aS'always'
p4282
aS'like'
p4283
aS'round'
p4284
aS'high'
p4285
aaa(lp4286
S'JO'
p4287
a(lp4288
aa(lp4289
S'CAMYou'
p4290
a(lp4291
S'know'
p4292
aaa(lp4293
g4290
a(lp4294
S'If'
p4295
aS'it'
p4296
aS'was'
p4297
aS'like'
p4298
aS'nine'
p4299
aS'twenty'
p4300
aaa(lp4301
g4290
a(lp4302
S'Id'
p4303
aS'put'
p4304
aS'ten'
p4305
aS'dollars'
p4306
aaa(lp4307
g4290
a(lp4308
g60
aS'You'
p4309
aS'know'
p4310
ag60
aaa(lp4311
S'JOOh'
p4312
a(lp4313
aa(lp4314
S'FRED'
p4315
a(lp4316
S'See'
p4317
ag9
aaa(lp4318
g4315
a(lp4319
S'never'
p4320
aS'basically'
p4321
aaa(lp4322
S'CAM'
p4323
a(lp4324
aa(lp4325
S'FREDI'
p4326
a(lp4327
aa(lp4328
g4326
a(lp4329
S'just'
p4330
aS'never'
p4331
aS'did'
p4332
aS'it'
p4333
aaa(lp4334
g4326
a(lp4335
g9
aS'always'
p4336
aS'make'
p4337
aS'sure'
p4338
aaa(lp4339
g4326
a(lp4340
S'You'
p4341
aS'have'
p4342
aS'to'
p4343
aS'have'
p4344
aaa(lp4345
g4326
a(lp4346
g52
aS'b'
p4347
aaa(lp4348
g4326
a(lp4349
g52
aS'minimum'
p4350
aS'fivehundred'
p4351
aS'dollars'
p4352
aaa(lp4353
g4326
a(lp4354
S'so'
p4355
aS'that'
p4356
aS'you'
p4357
aaa(lp4358
S'WESSIn'
p4359
a(lp4360
S'there'
p4361
aaa(lp4362
S'FREDin'
p4363
a(lp4364
S'your'
p4365
aS'checking'
p4366
aaa(lp4367
g4363
a(lp4368
S'so'
p4369
aS'that'
p4370
aS'you'
p4371
aS'dont'
p4372
aS'get'
p4373
aS'charged'
p4374
aS'interest'
p4375
aaa(lp4376
S'JO'
p4377
a(lp4378
S'Oh'
p4379
aaa(lp4380
S'FREDSo'
p4381
a(lp4382
g9
aS'always'
p4383
aS'make'
p4384
aS'sure'
p4385
aaa(lp4386
g4381
a(lp4387
g9
aS'mean'
p4388
aS'so'
p4389
aS'you'
p4390
aS'dont'
p4391
aS'get'
p4392
aS'charged'
p4393
aS'for'
p4394
aS'writing'
p4395
aS'checks'
p4396
aS'and'
p4397
aS'stuff'
p4398
aaa(lp4399
S'JOOh'
p4400
a(lp4401
aa(lp4402
g4400
a(lp4403
g9
aS'didnt'
p4404
aS'know'
p4405
aS'that'
p4406
aaa(lp4407
S'FREDSo'
p4408
a(lp4409
aa(lp4410
S'CAMMaintenance'
p4411
a(lp4412
S'fee'
p4413
aaa(lp4414
S'FREDI'
p4415
a(lp4416
S'always'
p4417
aaa(lp4418
g4415
a(lp4419
g3228
aS'maintenance'
p4420
aS'fee'
p4421
aaa(lp4422
g4415
a(lp4423
S'So'
p4424
ag9
aS'always'
p4425
aS'make'
p4426
aS'sure'
p4427
ag9
aS'have'
p4428
ag52
aS'minimum'
p4429
aS'fivehundreddollar'
p4430
aS'balance'
p4431
aaa(lp4432
S'JO'
p4433
a(lp4434
S'Well'
p4435
aS'see'
p4436
aS'now'
p4437
aS'we'
p4438
aS'dont'
p4439
aaa(lp4440
S'FREDSo'
p4441
a(lp4442
S'then'
p4443
ag9
aaa(lp4444
S'JOCause'
p4445
a(lp4446
S'were'
p4447
aS'over'
p4448
aS'fiftyfive'
p4449
aaa(lp4450
S'FRED'
p4451
a(lp4452
S'Cause'
p4453
ag9
aS'never'
p4454
aaa(lp4455
g4451
a(lp4456
S's'
p4457
aS'and'
p4458
aS'Ive'
p4459
aaa(lp4460
g4451
a(lp4461
S'basically'
p4462
aS'have'
p4463
aS'never'
p4464
aS'bounced'
p4465
ag52
aS'check'
p4466
aaa(lp4467
g4451
a(lp4468
S'cause'
p4469
ag9
aS'always'
p4470
aS'make'
p4471
aS'sure'
p4472
ag9
aS'have'
p4473
aS'that'
p4474
aS'fivehundreddollar'
p4475
aS'balance'
p4476
aaa(lp4477
S'JO'
p4478
a(lp4479
S'No'
p4480
aaa(lp4481
g4478
a(lp4482
S'Id'
p4483
aS'hate'
p4484
aS'to'
p4485
aS'bounce'
p4486
ag52
aS'check'
p4487
aaa(lp4488
S'CAMIve'
p4489
a(lp4490
S'never'
p4491
aS'bounced'
p4492
ag52
aS'check'
p4493
aaa(lp4494
S'JOX'
p4495
a(lp4496
S'cause'
p4497
ag60
aaa(lp4498
S'CAM'
p4499
a(lp4500
g60
ag9
aS'keep'
p4501
ag60
aaa(lp4502
S'WESSWell'
p4503
a(lp4504
S'you'
p4505
aS'wouldnt'
p4506
aaa(lp4507
g4503
a(lp4508
S'If'
p4509
aS'youre'
p4510
aS'keeping'
p4511
ag52
aS'fivehundreddollar'
p4512
aS'balance'
p4513
aaa(lp4514
S'FREDThats'
p4515
a(lp4516
S'why'
p4517
ag9
aS'dont'
p4518
aS'really'
p4519
aS'worry'
p4520
aS'about'
p4521
aS'what'
p4522
ag9
aS'write'
p4523
aS'out'
p4524
aaa(lp4525
S'WESSNo'
p4526
a(lp4527
aa(lp4528
S'JOBut'
p4529
a(lp4530
g9
aS'mean'
p4531
aaa(lp4532
S'FREDI'
p4533
a(lp4534
S'just'
p4535
aaa(lp4536
S'JOYou'
p4537
a(lp4538
S'know'
p4539
aaa(lp4540
g4537
a(lp4541
g9
aS'wouldnt'
p4542
aaa(lp4543
S'CAM'
p4544
a(lp4545
S'but'
p4546
ag9
aS'have'
p4547
aS'like'
p4548
aaa(lp4549
g4544
a(lp4550
g9
aS'had'
p4551
aS'like'
p4552
aaa(lp4553
g4544
a(lp4554
g9
aS'have'
p4555
ag52
aS'savings'
p4556
aS'account'
p4557
aaa(lp4558
g4544
a(lp4559
S'and'
p4560
aS'one'
p4561
aS'time'
p4562
aS'they'
p4563
aS'took'
p4564
aS'money'
p4565
aS'out'
p4566
aS'of'
p4567
aS'the'
p4568
aS'savings'
p4569
aS'account'
p4570
aaa(lp4571
S'JO'
p4572
a(lp4573
S'And'
p4574
aS'put'
p4575
aS'it'
p4576
aS'in'
p4577
aS'the'
p4578
aS'checking'
p4579
aaa(lp4580
S'CAMTo'
p4581
a(lp4582
S'cover'
p4583
aS'the'
p4584
aS'checking'
p4585
aaa(lp4586
S'WESSHm'
p4587
a(lp4588
aa(lp4589
S'JOOh'
p4590
a(lp4591
aa(lp4592
S'WESSOh'
p4593
a(lp4594
aa(lp4595
S'JOWell'
p4596
a(lp4597
S'thats'
p4598
aS'okay'
p4599
aS'too'
p4600
aS'though'
p4601
aaa(lp4602
S'FRED'
p4603
a(lp4604
aa(lp4605
S'WESSW'
p4606
a(lp4607
g52
aaa(lp4608
S'JOMhm'
p4609
a(lp4610
aa(lp4611
S'FRED'
p4612
a(lp4613
S'What'
p4614
aS'time'
p4615
aS'is'
p4616
aS'the'
p4617
aS'crowd'
p4618
aS'coming'
p4619
aaa(lp4620
S'JO'
p4621
a(lp4622
S'VOX'
p4623
aS'Not'
p4624
aS'until'
p4625
aS'about'
p4626
aS'six'
p4627
aS'VOX'
p4628
aaa(lp4629
S'CAMOh'
p4630
a(lp4631
aa(lp4632
g4630
a(lp4633
S'Hopefully'
p4634
aS'not'
p4635
aS'too'
p4636
aS'soon'
p4637
aaa(lp4638
S'JO'
p4639
a(lp4640
S'Because'
p4641
aaa(lp4642
S'CAMWe'
p4643
a(lp4644
S'need'
p4645
aS'to'
p4646
aS'relax'
p4647
aS'before'
p4648
aS'they'
p4649
aS'get'
p4650
aS'here'
p4651
aaa(lp4652
S'FREDI'
p4653
a(lp4654
S'was'
p4655
aS'just'
p4656
aS'asking'
p4657
aaa(lp4658
S'WESS'
p4659
a(lp4660
aa(lp4661
S'JO'
p4662
a(lp4663
aa(lp4664
g4662
a(lp4665
S'Because'
p4666
aaa(lp4667
g4662
a(lp4668
g9
aS'think'
p4669
aS'Stacy'
p4670
aS'has'
p4671
aS'to'
p4672
aS'work'
p4673
aS'till'
p4674
aS'six'
p4675
aaa(lp4676
g4662
a(lp4677
S'You'
p4678
aS'got'
p4679
ag52
aS'headache'
p4680
aS'Fred'
p4681
aaa(lp4682
S'WESSAnd'
p4683
a(lp4684
S'what'
p4685
aS'time'
p4686
aS'are'
p4687
aS'we'
p4688
aS'going'
p4689
aS'to'
p4690
aS'eat'
p4691
aaa(lp4692
S'FREDNo'
p4693
a(lp4694
S'my'
p4695
aS'eyes'
p4696
aS'are'
p4697
aS'tired'
p4698
aaa(lp4699
S'WESS'
p4700
a(lp4701
S'Hey'
p4702
aS'there'
p4703
aS'is'
p4704
aS'uh'
p4705
aS'turkey'
p4706
aaa(lp4707
g4700
a(lp4708
S'and'
p4709
aaa(lp4710
S'JOVOXHI'
p4711
a(lp4712
g9
aS'told'
p4713
aS'him'
p4714
aS'he'
p4715
aS'could'
p4716
aS'have'
p4717
ag52
aS'turkey'
p4718
aS'sandwich'
p4719
aS'HIVOX'
p4720
aaa(lp4721
S'WESSAll'
p4722
a(lp4723
S'that'
p4724
aS'stuff'
p4725
aS'in'
p4726
aS'there'
p4727
aaa(lp4728
g4722
a(lp4729
S'You'
p4730
aS'wanna'
p4731
aS'eat'
p4732
aS'bef'
p4733
aaa(lp4734
S'FREDI'
p4735
a(lp4736
S'brought'
p4737
aS'homemade'
p4738
aS'cookies'
p4739
aS'too'
p4740
aaa(lp4741
S'JO'
p4742
a(lp4743
S'Oh'
p4744
aS'yeah'
p4745
aaa(lp4746
S'WESSAnd'
p4747
a(lp4748
g52
aS'lot'
p4749
aS'of'
p4750
aS'homemade'
p4751
aS'cookies'
p4752
aaa(lp4753
S'FREDI'
p4754
a(lp4755
S'brought'
p4756
aS'some'
p4757
aaa(lp4758
S'JOYeah'
p4759
a(lp4760
S'but'
p4761
aaa(lp4762
g4759
a(lp4763
g1430
aS'she'
p4764
aS'he'
p4765
aaa(lp4766
S'WESSOh'
p4767
a(lp4768
S'you'
p4769
aS'did'
p4770
aaa(lp4771
S'JOAnd'
p4772
a(lp4773
S'he'
p4774
aS'made'
p4775
aS'em'
p4776
aaa(lp4777
S'FREDI'
p4778
a(lp4779
S'baked'
p4780
aaa(lp4781
S'WESS'
p4782
a(lp4783
S'You'
p4784
aS'baked'
p4785
aaa(lp4786
S'CAM'
p4787
a(lp4788
S'Mhm'
p4789
aaa(lp4790
S'JOI'
p4791
a(lp4792
S'gotta'
p4793
aS'get'
p4794
aS'some'
p4795
aS'more'
p4796
aS'coffee'
p4797
aS'please'
p4798
aaa(lp4799
S'WESS'
p4800
a(lp4801
S'What'
p4802
aS'kind'
p4803
aS'of'
p4804
aS'cookies'
p4805
aS'did'
p4806
aS'you'
p4807
aS'bake'
p4808
aaa(lp4809
S'CAMHim'
p4810
a(lp4811
S'and'
p4812
aS'Joel'
p4813
aaa(lp4814
S'JO'
p4815
a(lp4816
aa(lp4817
S'FREDL'
p4818
a(lp4819
g9
aS'did'
p4820
aS'thumbprints'
p4821
aS'L'
p4822
aaa(lp4823
S'JO'
p4824
a(lp4825
aa(lp4826
g4824
a(lp4827
S'HI'
p4828
aS'Youre'
p4829
aS'kidding'
p4830
aS'HI'
p4831
aaa(lp4832
S'FREDUh'
p4833
a(lp4834
S'butter'
p4835
aS'cookies'
p4836
aaa(lp4837
S'CAMCause'
p4838
a(lp4839
g9
aS'asked'
p4840
aaa(lp4841
S'FRED'
p4842
a(lp4843
S'Uh'
p4844
aaa(lp4845
S'JODidnt'
p4846
a(lp4847
S'you'
p4848
aS'help'
p4849
aaa(lp4850
S'FREDmint'
p4851
a(lp4852
S'surprises'
p4853
aaa(lp4854
S'CAMNo'
p4855
a(lp4856
aa(lp4857
g4855
a(lp4858
S'cause'
p4859
aS'Joel'
p4860
aS'was'
p4861
aS'helping'
p4862
aaa(lp4863
g4855
a(lp4864
g52
aS'and'
p4865
aS'that'
p4866
aS'kitchen'
p4867
aS'is'
p4868
aS'too'
p4869
aS'small'
p4870
aS'for'
p4871
aS'three'
p4872
aS'people'
p4873
aaa(lp4874
S'FREDUm'
p4875
a(lp4876
aa(lp4877
S'CAMand'
p4878
a(lp4879
S'Joels'
p4880
ag52
aS'pretty'
p4881
aS'husky'
p4882
aS'guy'
p4883
aaa(lp4884
g4878
a(lp4885
S'So'
p4886
aaa(lp4887
S'JOBut'
p4888
a(lp4889
S'you'
p4890
aS'couldve'
p4891
aS'f'
p4892
aS'frosted'
p4893
aS'em'
p4894
aS'for'
p4895
aS'em'
p4896
aaa(lp4897
S'FREDPecan'
p4898
a(lp4899
S'tartlets'
p4900
aaa(lp4901
S'CAMNa'
p4902
a(lp4903
S'na'
p4904
aS'na'
p4905
aaa(lp4906
S'WESSOh'
p4907
a(lp4908
S'my'
p4909
aS'God'
p4910
aaa(lp4911
S'CAM'
p4912
a(lp4913
aa(lp4914
S'JOWhile'
p4915
a(lp4916
S'they'
p4917
aS'were'
p4918
aS'doing'
p4919
aS'more'
p4920
aaa(lp4921
S'FREDAnd'
p4922
a(lp4923
S'homemade'
p4924
aS'fudge'
p4925
aaa(lp4926
S'CAMNa'
p4927
a(lp4928
aa(lp4929
g4927
a(lp4930
S'There'
p4931
aS'was'
p4932
aS'no'
p4933
aS'room'
p4934
aS'in'
p4935
aS'there'
p4936
aaa(lp4937
S'WESSOh'
p4938
a(lp4939
aa(lp4940
g4938
a(lp4941
g9
aS'made'
p4942
aS'fudge'
p4943
aaa(lp4944
g4938
a(lp4945
g9
aS'made'
p4946
aS'peanut'
p4947
aS'butter'
p4948
aS'fudge'
p4949
aaa(lp4950
g4938
a(lp4951
g9
aS'made'
p4952
aS'uh'
p4953
aaa(lp4954
g4938
a(lp4955
S'Jo'
p4956
aS'made'
p4957
aS'her'
p4958
aS'mothers'
p4959
aS'peanut'
p4960
aS'butter'
p4961
aS'fudge'
p4962
aaa(lp4963
S'JOBut'
p4964
a(lp4965
S'its'
p4966
aaa(lp4967
S'WESSthats'
p4968
a(lp4969
S'real'
p4970
aS'sticky'
p4971
aaa(lp4972
S'JO'
p4973
a(lp4974
aa(lp4975
S'CAM'
p4976
a(lp4977
aa(lp4978
S'WESSUh'
p4979
a(lp4980
aa(lp4981
g4979
a(lp4982
g9
aS'made'
p4983
aaa(lp4984
g4979
a(lp4985
S'The'
p4986
aaa(lp4987
S'JO'
p4988
a(lp4989
aa(lp4990
S'WESS'
p4991
a(lp4992
S'the'
p4993
aS'chocolate'
p4994
aS'peanut'
p4995
aS'butter'
p4996
aS'fudge'
p4997
aaa(lp4998
g4991
a(lp4999
S'and'
p5000
ag9
aS'made'
p5001
aS'chocolate'
p5002
aS'fudge'
p5003
aaa(lp5004
g4991
a(lp5005
S'and'
p5006
aS'then'
p5007
ag9
aS'made'
p5008
aS'uh'
p5009
aS'divinity'
p5010
aS'fudge'
p5011
aaa(lp5012
S'CAM'
p5013
a(lp5014
S'Divinity'
p5015
aaa(lp5016
S'WESS'
p5017
a(lp5018
S'Mhm'
p5019
aaa(lp5020
g5017
a(lp5021
S'White'
p5022
aaa(lp5023
S'CAM'
p5024
a(lp5025
S'Oh'
p5026
aaa(lp5027
S'JO'
p5028
a(lp5029
S'Then'
p5030
aS'and'
p5031
aS'toffee'
p5032
aaa(lp5033
S'WESS'
p5034
a(lp5035
S'And'
p5036
aS'toffee'
p5037
aaa(lp5038
g5034
a(lp5039
S'Hey'
p5040
aS'toffee'
p5041
aS'isnt'
p5042
aS'bad'
p5043
aS'to'
p5044
aS'make'
p5045
aaa(lp5046
S'JOX'
p5047
a(lp5048
S'It'
p5049
aS'should'
p5050
ag60
aaa(lp5051
g5047
a(lp5052
S'VOX'
p5053
aS'You'
p5054
aS'didnt'
p5055
aS'do'
p5056
aS'it'
p5057
aS'all'
p5058
aS'Wess'
p5059
aS'VOX'
p5060
aaa(lp5061
g5047
a(lp5062
g9
aS'helped'
p5063
aS'you'
p5064
ag52
aS'little'
p5065
aS'bit'
p5066
aaa(lp5067
S'WESSYeah'
p5068
a(lp5069
aa(lp5070
g5068
a(lp5071
S'You'
p5072
aS'did'
p5073
aS'most'
p5074
aS'of'
p5075
aS'it'
p5076
aaa(lp5077
S'JO'
p5078
a(lp5079
aa(lp5080
S'WESSBut'
p5081
a(lp5082
g9
aS'make'
p5083
aS'fudge'
p5084
aaa(lp5085
g5081
a(lp5086
S'Good'
p5087
aaa(lp5088
S'JO'
p5089
a(lp5090
aa(lp5091
g5089
a(lp5092
S'Yeah'
p5093
aS'he'
p5094
aaa(lp5095
S'CAM'
p5096
a(lp5097
aa(lp5098
S'JOHe'
p5099
a(lp5100
S'does'
p5101
aaa(lp5102
S'WESS'
p5103
a(lp5104
g9
aS'am'
p5105
aS'the'
p5106
aS'expert'
p5107
aaa(lp5108
S'JOCause'
p5109
a(lp5110
S'you'
p5111
aS'know'
p5112
aS'you'
p5113
aS'gotta'
p5114
aS'wait'
p5115
aS'and'
p5116
aS'wait'
p5117
aS'and'
p5118
aS'wait'
p5119
aS'for'
p5120
aS'that'
p5121
aaa(lp5122
S'CAMWhat'
p5123
a(lp5124
S'do'
p5125
aS'you'
p5126
aS'mean'
p5127
aS'wait'
p5128
aS'and'
p5129
aS'wait'
p5130
aaa(lp5131
S'JO'
p5132
a(lp5133
S'Well'
p5134
aS'you'
p5135
aS'gotta'
p5136
aS'wait'
p5137
aS'till'
p5138
aS'it'
p5139
aS'boils'
p5140
aS'and'
p5141
aaa(lp5142
g5132
a(lp5143
S'and'
p5144
aS'gets'
p5145
ag52
aS'certain'
p5146
aS'kind'
p5147
aS'of'
p5148
aS'consistency'
p5149
aaa(lp5150
g5132
a(lp5151
S'You'
p5152
aS'know'
p5153
aaa(lp5154
S'CAMOh'
p5155
a(lp5156
aa(lp5157
S'JOThe'
p5158
a(lp5159
S'and'
p5160
aaa(lp5161
S'WESSYeah'
p5162
a(lp5163
aa(lp5164
g5162
a(lp5165
S'its'
p5166
aS'the'
p5167
aS'soft'
p5168
aS'ball'
p5169
aaa(lp5170
S'JOBefore'
p5171
a(lp5172
aa(lp5173
g5171
a(lp5174
S'and'
p5175
aS'so'
p5176
aS'he'
p5177
aS'likes'
p5178
aS'to'
p5179
aS'sit'
p5180
aS'there'
p5181
aS'and'
p5182
aaa(lp5183
g5171
a(lp5184
S'and'
p5185
aS'do'
p5186
aS'nothing'
p5187
aS'for'
p5188
aS'hours'
p5189
aaa(lp5190
S'CAM'
p5191
a(lp5192
S'Nn'
p5193
aaa(lp5194
S'FREDOh'
p5195
a(lp5196
S'my'
p5197
aS'fudge'
p5198
aS'is'
p5199
aS'ea'
p5200
aaa(lp5201
g5195
a(lp5202
S'Here'
p5203
aaa(lp5204
g5195
a(lp5205
S'Taste'
p5206
aS'this'
p5207
aS'fudge'
p5208
aaa(lp5209
S'JO'
p5210
a(lp5211
aa(lp5212
S'FRED'
p5213
a(lp5214
g9
aS'have'
p5215
aS'the'
p5216
aS'easiest'
p5217
aS'fudge'
p5218
aS'recipe'
p5219
aS'in'
p5220
aS'the'
p5221
aS'world'
p5222
aaa(lp5223
S'CAMX'
p5224
a(lp5225
S'Right'
p5226
ag60
aaa(lp5227
S'JOUhoh'
p5228
a(lp5229
aa(lp5230
S'WESSF'
p5231
a(lp5232
S'And'
p5233
aS'you'
p5234
aS'dont'
p5235
aS'boil'
p5236
aS'it'
p5237
ag130
aaa(lp5238
S'CAMLeave'
p5239
a(lp5240
S'it'
p5241
aS'to'
p5242
aS'Fred'
p5243
aS'to'
p5244
aS'find'
p5245
aS'the'
p5246
aS'easiest'
p5247
aS'way'
p5248
aS'to'
p5249
aS'make'
p5250
aS'something'
p5251
aaa(lp5252
S'FREDF'
p5253
a(lp5254
S'It'
p5255
aS'boils'
p5256
aS'for'
p5257
aS'six'
p5258
aS'minutes'
p5259
ag130
aaa(lp5260
S'JOSix'
p5261
a(lp5262
S'minut'
p5263
aaa(lp5264
S'WESSF'
p5265
a(lp5266
S'Oh'
p5267
aS'no'
p5268
aS'mine'
p5269
aaa(lp5270
g5265
a(lp5271
S'Mine'
p5272
aS'cooks'
p5273
aS'for'
p5274
aS'an'
p5275
aS'hour'
p5276
ag130
aaa(lp5277
S'JO'
p5278
a(lp5279
aa(lp5280
S'CAMPra'
p5281
a(lp5282
aa(lp5283
g5281
a(lp5284
S'See'
p5285
aS'Fred'
p5286
aaa(lp5287
g5281
a(lp5288
S'yours'
p5289
aS'isnt'
p5290
aS'gonna'
p5291
aS'be'
p5292
aS'as'
p5293
aS'good'
p5294
aS'then'
p5295
aaa(lp5296
S'JO'
p5297
a(lp5298
S'VOXHI'
p5299
aS'No'
p5300
aaa(lp5301
g5297
a(lp5302
S'it'
p5303
aS'probably'
p5304
aS'will'
p5305
aS'be'
p5306
aS'HIVOX'
p5307
aaa(lp5308
S'CAM'
p5309
a(lp5310
aa(lp5311
S'JOHI'
p5312
a(lp5313
S'Who'
p5314
aS'knows'
p5315
aS'HI'
p5316
aaa(lp5317
g5312
a(lp5318
g9
aS'wish'
p5319
aS'it'
p5320
aS'would'
p5321
aS'be'
p5322
aaa(lp5323
g5312
a(lp5324
S'Because'
p5325
aS'then'
p5326
aaa(lp5327
g5312
a(lp5328
S'you'
p5329
aS'know'
p5330
aS'uh'
p5331
aaa(lp5332
g5312
a(lp5333
S'then'
p5334
ag9
aS'could'
p5335
aS'maybe'
p5336
aS'do'
p5337
aS'it'
p5338
aS'sometime'
p5339
aaa(lp5340
g5312
a(lp5341
S'Cause'
p5342
ag9
aS'dont'
p5343
aS'wanna'
p5344
aS'just'
p5345
aS'stand'
p5346
aS'there'
p5347
aS'looking'
p5348
aS'at'
p5349
aS'fudge'
p5350
aS'for'
p5351
aS'an'
p5352
aS'hour'
p5353
aaa(lp5354
S'CAM'
p5355
a(lp5356
S'HI'
p5357
aS'Ooh'
p5358
aS'HI'
p5359
aaa(lp5360
S'WESS'
p5361
a(lp5362
g9
aS'dont'
p5363
aS'think'
p5364
aS'its'
p5365
aS'an'
p5366
aS'hour'
p5367
aaa(lp5368
S'JOOh'
p5369
a(lp5370
S'Wess'
p5371
aaa(lp5372
g5369
a(lp5373
S'it'
p5374
aS'is'
p5375
aS'too'
p5376
aaa(lp5377
g5369
a(lp5378
S'it'
p5379
aS'takes'
p5380
aS'forever'
p5381
aaa(lp5382
g5369
a(lp5383
S'Get'
p5384
ag52
aS'soft'
p5385
aS'ball'
p5386
aS'stage'
p5387
aaa(lp5388
g5369
a(lp5389
S'and'
p5390
aS'then'
p5391
aS'you'
p5392
ag52
aaa(lp5393
g5369
a(lp5394
S'then'
p5395
aS'you'
p5396
aS'have'
p5397
aS'to'
p5398
aS'hurry'
p5399
aaa(lp5400
g5369
a(lp5401
S'Well'
p5402
aaa(lp5403
g5369
a(lp5404
g9
aS'wonder'
p5405
aS'how'
p5406
aS'Jimmys'
p5407
aS'party'
p5408
aS'came'
p5409
aS'last'
p5410
aS'night'
p5411
aaa(lp5412
S'WESSThink'
p5413
a(lp5414
S'were'
p5415
aS'gonna'
p5416
aS'have'
p5417
aS'to'
p5418
aS'have'
p5419
aS'more'
p5420
aS'coffee'
p5421
aaa(lp5422
S'JOHe'
p5423
a(lp5424
S'had'
p5425
ag52
aaa(lp5426
g5423
a(lp5427
S'all'
p5428
aS'of'
p5429
aS'the'
p5430
aS'old'
p5431
aS'friends'
p5432
aaa(lp5433
S'CAM'
p5434
a(lp5435
S'Oh'
p5436
aaa(lp5437
S'JOHad'
p5438
a(lp5439
g52
aS'party'
p5440
aaa(lp5441
g5438
a(lp5442
g60
aS'Theres'
p5443
ag60
aaa(lp5444
S'WESSAll'
p5445
a(lp5446
S'his'
p5447
aS'old'
p5448
aS'highschool'
p5449
aS'friends'
p5450
aaa(lp5451
S'JOYeah'
p5452
a(lp5453
aa(lp5454
g5452
a(lp5455
S'There'
p5456
aS'were'
p5457
aS'seventeen'
p5458
aaa(lp5459
S'WESSLike'
p5460
a(lp5461
S'Carol'
p5462
aS'uh'
p5463
aaa(lp5464
S'JOHicks'
p5465
a(lp5466
aa(lp5467
S'WESSHicks'
p5468
a(lp5469
aa(lp5470
S'CAMOh'
p5471
a(lp5472
S'wow'
p5473
aaa(lp5474
S'JOOh'
p5475
a(lp5476
S'yeah'
p5477
aaa(lp5478
S'WESSthe'
p5479
a(lp5480
S'nut'
p5481
aaa(lp5482
S'CAM'
p5483
a(lp5484
S'The'
p5485
aS'nut'
p5486
aaa(lp5487
g5483
a(lp5488
S'Why'
p5489
aS'is'
p5490
aS'she'
p5491
ag52
aS'nut'
p5492
aaa(lp5493
S'JOWell'
p5494
a(lp5495
aa(lp5496
S'WESSOh'
p5497
a(lp5498
S'God'
p5499
aaa(lp5500
S'JOshes'
p5501
a(lp5502
S'just'
p5503
aS'silly'
p5504
aaa(lp5505
S'WESS'
p5506
a(lp5507
S'she'
p5508
aS'was'
p5509
ag52
aS'boy'
p5510
aaa(lp5511
S'JO'
p5512
a(lp5513
S'Um'
p5514
aaa(lp5515
S'WESSShe'
p5516
a(lp5517
S'mightve'
p5518
aS'been'
p5519
ag52
aS'girl'
p5520
aaa(lp5521
g5516
a(lp5522
S'but'
p5523
aS'she'
p5524
aS'was'
p5525
ag52
aS'boy'
p5526
aaa(lp5527
S'CAM'
p5528
a(lp5529
aa(lp5530
S'JO'
p5531
a(lp5532
S'Now'
p5533
ag1430
aaa(lp5534
S'WESSShe'
p5535
a(lp5536
S'was'
p5537
ag52
aS'tomboy'
p5538
aaa(lp5539
S'JOHe'
p5540
a(lp5541
S'went'
p5542
aS'traveling'
p5543
aS'with'
p5544
aS'her'
p5545
ag52
aS'lot'
p5546
aaa(lp5547
S'WESS'
p5548
a(lp5549
S'Yeah'
p5550
aaa(lp5551
g5548
a(lp5552
S'Jim'
p5553
aS'went'
p5554
aaa(lp5555
S'JO'
p5556
a(lp5557
S'Hmm'
p5558
aaa(lp5559
S'WESShalf'
p5560
a(lp5561
aa(lp5562
g5560
a(lp5563
S'across'
p5564
aS'half'
p5565
aS'the'
p5566
aS'country'
p5567
aS'with'
p5568
aS'her'
p5569
aaa(lp5570
S'JOVOX'
p5571
a(lp5572
S'Look'
p5573
aS'what'
p5574
aS'you'
p5575
aS'made'
p5576
aS'VOX'
p5577
aaa(lp5578
S'FREDX'
p5579
a(lp5580
g60
aS'There'
p5581
aS'you'
p5582
aS'are'
p5583
ag60
aaa(lp5584
S'JO'
p5585
a(lp5586
S'Thank'
p5587
aS'you'
p5588
aaa(lp5589
S'FREDX'
p5590
a(lp5591
S'Ill'
p5592
aS'take'
p5593
aS'that'
p5594
aS'from'
p5595
aS'you'
p5596
aS'again'
p5597
ag60
aaa(lp5598
S'JO'
p5599
a(lp5600
aa(lp5601
S'FREDI'
p5602
a(lp5603
S'didnt'
p5604
aaa(lp5605
g5602
a(lp5606
S'Most'
p5607
aS'people'
p5608
aS'dont'
p5609
aS'like'
p5610
aS'big'
p5611
aS'pieces'
p5612
aaa(lp5613
S'JOVOX'
p5614
a(lp5615
S'Oh'
p5616
aS'VOX'
p5617
aaa(lp5618
g5614
a(lp5619
S'Mmmm'
p5620
aaa(lp5621
S'WESSMhm'
p5622
a(lp5623
aa(lp5624
S'JO'
p5625
a(lp5626
S'Mm'
p5627
aaa(lp5628
S'WESSOh'
p5629
a(lp5630
S'its'
p5631
aS'so'
p5632
aS'good'
p5633
aaa(lp5634
S'JOFOOD'
p5635
a(lp5636
S'that'
p5637
aS'is'
p5638
aS'good'
p5639
aS'Fred'
p5640
aaa(lp5641
g5635
a(lp5642
S'It'
p5643
aS'dont'
p5644
aS'taste'
p5645
aS'like'
p5646
ag1430
aaa(lp5647
g5635
a(lp5648
S'It'
p5649
aS'it'
p5650
aS'tastes'
p5651
aS'like'
p5652
aS'you'
p5653
aS'boiled'
p5654
aS'it'
p5655
ag52
aS'long'
p5656
aS'time'
p5657
aS'FOOD'
p5658
aaa(lp5659
S'CAM'
p5660
a(lp5661
aa(lp5662
S'FRED'
p5663
a(lp5664
S'You'
p5665
aS'can'
p5666
aS'make'
p5667
aS'that'
p5668
aS'recipe'
p5669
aaa(lp5670
g5663
a(lp5671
S'be'
p5672
aS'completely'
p5673
aS'done'
p5674
aS'in'
p5675
aS'fifteen'
p5676
aS'minutes'
p5677
aaa(lp5678
S'JO'
p5679
a(lp5680
aa(lp5681
S'FREDAnd'
p5682
a(lp5683
S'then'
p5684
aS'you'
p5685
aS'just'
p5686
aS'let'
p5687
aS'it'
p5688
aS'sit'
p5689
aaa(lp5690
S'JO'
p5691
a(lp5692
S'Ah'
p5693
aaa(lp5694
S'WESSMm'
p5695
a(lp5696
aa(lp5697
S'JOnow'
p5698
a(lp5699
g149
aaa(lp5700
g5698
a(lp5701
S'See'
p5702
aaa(lp5703
g5698
a(lp5704
S'some'
p5705
aS'of'
p5706
aS'it'
p5707
aaa(lp5708
g5698
a(lp5709
S'he'
p5710
aS'dont'
p5711
aS'like'
p5712
aS'the'
p5713
aS'kind'
p5714
aS'that'
p5715
aaa(lp5716
g5698
a(lp5717
S'you'
p5718
aS'dont'
p5719
aS'cook'
p5720
aS'at'
p5721
aS'all'
p5722
aaa(lp5723
g5698
a(lp5724
S'Cause'
p5725
aS'he'
p5726
aS'said'
p5727
aS'its'
p5728
aS'too'
p5729
aaa(lp5730
S'FREDYou'
p5731
a(lp5732
g4347
aaa(lp5733
g5731
a(lp5734
S'You'
p5735
aS'boil'
p5736
aS'this'
p5737
aS'for'
p5738
aS'either'
p5739
aS'six'
p5740
aS'or'
p5741
aS'seven'
p5742
aS'minutes'
p5743
aaa(lp5744
g5731
a(lp5745
g9
aS'dont'
p5746
aS'remember'
p5747
aS'exactly'
p5748
aaa(lp5749
g5731
a(lp5750
S'and'
p5751
aaa(lp5752
g5731
a(lp5753
S'you'
p5754
aS'boil'
p5755
aS'it'
p5756
aS'really'
p5757
aS'hard'
p5758
aaa(lp5759
S'JO'
p5760
a(lp5761
S'Mhm'
p5762
aaa(lp5763
S'FRED'
p5764
a(lp5765
S'Um'
p5766
aaa(lp5767
g5764
a(lp5768
S'and'
p5769
aS'thats'
p5770
aS'it'
p5771
aaa(lp5772
S'JOHI'
p5773
a(lp5774
S'Yeah'
p5775
aS'HI'
p5776
aaa(lp5777
S'WESS'
p5778
a(lp5779
S'FOOD'
p5780
aS'Boil'
p5781
aS'it'
p5782
aS'hard'
p5783
aS'an'
p5784
aaa(lp5785
S'JOIts'
p5786
a(lp5787
S'good'
p5788
aaa(lp5789
S'WESS'
p5790
a(lp5791
S'six'
p5792
aS'minutes'
p5793
aS'FOOD'
p5794
aaa(lp5795
S'FREDBoil'
p5796
a(lp5797
S'it'
p5798
aS'hard'
p5799
aS'for'
p5800
aaa(lp5801
g5796
a(lp5802
S'Six'
p5803
aS'or'
p5804
aS'seven'
p5805
aS'minutes'
p5806
aaa(lp5807
g5796
a(lp5808
S'Period'
p5809
aaa(lp5810
g5796
a(lp5811
S'That'
p5812
aS'is'
p5813
aS'it'
p5814
aaa(lp5815
S'WESSFOOD'
p5816
a(lp5817
S'W'
p5818
aS'what'
p5819
aS'do'
p5820
aS'you'
p5821
aS'mix'
p5822
aS'in'
p5823
aS'it'
p5824
aS'FOOD'
p5825
aaa(lp5826
S'FRED'
p5827
a(lp5828
g9
aS'have'
p5829
aS'the'
p5830
aS'recipe'
p5831
aS'at'
p5832
aS'home'
p5833
aaa(lp5834
g5827
a(lp5835
S'Um'
p5836
aaa(lp5837
g5827
a(lp5838
S'it'
p5839
aS'basically'
p5840
aS'is'
p5841
aS'like'
p5842
aaa(lp5843
g5827
a(lp5844
S'what'
p5845
aS'were'
p5846
aS'the'
p5847
aS'things'
p5848
aS'you'
p5849
aaa(lp5850
S'WESSFOOD'
p5851
a(lp5852
S'Two'
p5853
aS'and'
p5854
ag52
aS'half'
p5855
aS'squares'
p5856
aS'of'
p5857
aS'chocolate'
p5858
aaa(lp5859
g5851
a(lp5860
S'Unsweetened'
p5861
aS'chocolate'
p5862
aS'FOOD'
p5863
aaa(lp5864
S'FRED'
p5865
a(lp5866
g9
aS'have'
p5867
aS'four'
p5868
aS'squares'
p5869
aS'of'
p5870
aS'chocolate'
p5871
aaa(lp5872
g5865
a(lp5873
S'Four'
p5874
aaa(lp5875
S'JOIs'
p5876
a(lp5877
S'that'
p5878
aS'unsweetened'
p5879
aaa(lp5880
g5876
a(lp5881
S'or'
p5882
aS'sweetened'
p5883
aaa(lp5884
S'FREDFour'
p5885
a(lp5886
S'unsweetened'
p5887
aS'squares'
p5888
aS'of'
p5889
aS'chocolate'
p5890
aaa(lp5891
S'JOUnsweetened'
p5892
a(lp5893
aa(lp5894
S'WESSWell'
p5895
a(lp5896
S'thats'
p5897
aS'uh'
p5898
aaa(lp5899
S'FREDUh'
p5900
a(lp5901
S'one'
p5902
aaa(lp5903
S'WESSyeah'
p5904
a(lp5905
aa(lp5906
g5904
a(lp5907
S'thats'
p5908
aaa(lp5909
S'JOYou'
p5910
a(lp5911
S'cant'
p5912
aS'have'
p5913
aS'candy'
p5914
aaa(lp5915
S'WESSthats'
p5916
a(lp5917
aa(lp5918
g5916
a(lp5919
g9
aS'use'
p5920
aaa(lp5921
S'JONow'
p5922
a(lp5923
S'you'
p5924
aS'be'
p5925
aS'nice'
p5926
aaa(lp5927
S'FREDFour'
p5928
a(lp5929
S'one'
p5930
aS'ounce'
p5931
aaa(lp5932
S'WESSFour'
p5933
a(lp5934
S'and'
p5935
ag52
aS'half'
p5936
aaa(lp5937
S'CAM'
p5938
a(lp5939
aa(lp5940
S'FREDOkay'
p5941
a(lp5942
aa(lp5943
g5941
a(lp5944
g9
aS'use'
p5945
aS'four'
p5946
aS'oneounce'
p5947
aS'things'
p5948
aaa(lp5949
g5941
a(lp5950
S'So'
p5951
aS'it'
p5952
aS'gets'
p5953
ag52
aS'four'
p5954
aS'ounces'
p5955
aS'of'
p5956
aS'of'
p5957
aS'bi'
p5958
aS'bitter'
p5959
aS'chocolate'
p5960
aaa(lp5961
S'CAMAngel'
p5962
a(lp5963
aa(lp5964
g5962
a(lp5965
S'VOX'
p5966
aS'Angel'
p5967
aS'VOX'
p5968
aaa(lp5969
g5962
a(lp5970
S'VOX'
p5971
aS'Angel'
p5972
aS'VOX'
p5973
aaa(lp5974
S'JOMm'
p5975
a(lp5976
aa(lp5977
S'FREDUnsweetened'
p5978
a(lp5979
aa(lp5980
S'CAM'
p5981
a(lp5982
aa(lp5983
S'WESS'
p5984
a(lp5985
S'Mhm'
p5986
aaa(lp5987
S'FRED'
p5988
a(lp5989
S'Um'
p5990
aaa(lp5991
g5988
a(lp5992
S'sixteen'
p5993
aS'ounces'
p5994
aS'of'
p5995
aS'chocolate'
p5996
aaa(lp5997
g5988
a(lp5998
S'And'
p5999
aS'then'
p6000
aS'you'
p6001
aaa(lp6002
g5988
a(lp6003
S'that'
p6004
aS'with'
p6005
aS'all'
p6006
aS'the'
p6007
aS'butter'
p6008
aaa(lp6009
g5988
a(lp6010
S'All'
p6011
aS'gets'
p6012
aS'boiled'
p6013
aaa(lp6014
S'JOOh'
p6015
a(lp6016
aa(lp6017
S'FRED'
p6018
a(lp6019
S'And'
p6020
aS'cream'
p6021
aaa(lp6022
S'JO'
p6023
a(lp6024
S'Unhunh'
p6025
aaa(lp6026
S'CAM'
p6027
a(lp6028
aa(lp6029
S'FRED'
p6030
a(lp6031
S'For'
p6032
aaa(lp6033
S'CAM'
p6034
a(lp6035
aa(lp6036
g6034
a(lp6037
S'Butter'
p6038
aS'and'
p6039
aS'cream'
p6040
aaa(lp6041
S'FREDabout'
p6042
a(lp6043
S'six'
p6044
aS'or'
p6045
aS'seven'
p6046
aS'minutes'
p6047
aaa(lp6048
S'JO'
p6049
a(lp6050
aa(lp6051
S'WESSOh'
p6052
a(lp6053
S'my'
p6054
aaa(lp6055
S'FREDand'
p6056
a(lp6057
S'then'
p6058
aS'that'
p6059
aS'gets'
p6060
aS'poured'
p6061
aS'over'
p6062
aS'the'
p6063
aS'sugar'
p6064
aaa(lp6065
g6056
a(lp6066
S'and'
p6067
aaa(lp6068
S'JOHI'
p6069
a(lp6070
S'Oh'
p6071
aS'HI'
p6072
aaa(lp6073
S'FRED'
p6074
a(lp6075
S'you'
p6076
aS'dont'
p6077
aS'even'
p6078
aS'boil'
p6079
aS'any'
p6080
aS'of'
p6081
aS'that'
p6082
aaa(lp6083
g6074
a(lp6084
S'You'
p6085
aS'just'
p6086
aS'boil'
p6087
aS'that'
p6088
aaa(lp6089
g6074
a(lp6090
S'and'
p6091
aS'you'
p6092
aS'pour'
p6093
aS'it'
p6094
aS'over'
p6095
aaa(lp6096
S'WESSOh'
p6097
a(lp6098
S'no'
p6099
aaa(lp6100
S'FREDover'
p6101
a(lp6102
S'the'
p6103
aS'sugar'
p6104
aaa(lp6105
g6101
a(lp6106
S'and'
p6107
aS'nuts'
p6108
aaa(lp6109
S'WESSOh'
p6110
a(lp6111
aa(lp6112
S'FRED'
p6113
a(lp6114
S'and'
p6115
aS'vanilla'
p6116
aaa(lp6117
g6113
a(lp6118
S'and'
p6119
aS'then'
p6120
aS'you'
p6121
aS'mix'
p6122
aS'it'
p6123
aS'all'
p6124
aS'up'
p6125
aaa(lp6126
S'JOYeah'
p6127
a(lp6128
aa(lp6129
S'FREDand'
p6130
a(lp6131
S'you'
p6132
aS'pour'
p6133
aS'it'
p6134
aS'in'
p6135
aS'the'
p6136
aS'pan'
p6137
aS'and'
p6138
aS'its'
p6139
aS'done'
p6140
aaa(lp6141
g6130
a(lp6142
S'Thats'
p6143
aS'it'
p6144
aaa(lp6145
S'WESSOh'
p6146
a(lp6147
S'my'
p6148
aS'God'
p6149
aaa(lp6150
S'JOHey'
p6151
a(lp6152
aa(lp6153
S'WESSwell'
p6154
a(lp6155
S'see'
p6156
ag545
aaa(lp6157
S'JOThat'
p6158
a(lp6159
S'sounds'
p6160
aS'easy'
p6161
aaa(lp6162
S'FREDYoure'
p6163
a(lp6164
S'done'
p6165
aS'in'
p6166
aaa(lp6167
g6163
a(lp6168
S'youre'
p6169
aS'done'
p6170
aS'in'
p6171
aS'fifteen'
p6172
aS'minutes'
p6173
aaa(lp6174
g6163
a(lp6175
S'and'
p6176
aS'its'
p6177
aS'pretty'
p6178
aS'good'
p6179
aaa(lp6180
S'WESSOh'
p6181
a(lp6182
aa(lp6183
g6181
a(lp6184
S'Alright'
p6185
aaa(lp6186
S'JO'
p6187
a(lp6188
g1797
aaa(lp6189
S'FREDIts'
p6190
a(lp6191
S'pretty'
p6192
aS'good'
p6193
aaa(lp6194
S'JOOh'
p6195
a(lp6196
S'its'
p6197
aS'good'
p6198
aaa(lp6199
S'WESSYeah'
p6200
a(lp6201
S'see'
p6202
aaa(lp6203
g6200
a(lp6204
g9
aS'take'
p6205
aaa(lp6206
S'JOIts'
p6207
a(lp6208
S'really'
p6209
aS'good'
p6210
aaa(lp6211
S'CAMIts'
p6212
a(lp6213
S'not'
p6214
aS'his'
p6215
aS'recipe'
p6216
aaa(lp6217
S'WESSAnd'
p6218
a(lp6219
g9
aS'take'
p6220
aS'two'
p6221
aS'and'
p6222
ag52
aS'half'
p6223
aS'squares'
p6224
aaa(lp6225
S'CAM'
p6226
a(lp6227
aa(lp6228
S'JOWhered'
p6229
a(lp6230
S'he'
p6231
aS'get'
p6232
aS'this'
p6233
aS'recipe'
p6234
aaa(lp6235
S'WESSI'
p6236
a(lp6237
S'mean'
p6238
aS'thats'
p6239
aaa(lp6240
g6236
a(lp6241
S'that'
p6242
aaa(lp6243
S'CAM'
p6244
a(lp6245
g9
aS'think'
p6246
aS'its'
p6247
aS'his'
p6248
aS'mothers'
p6249
aS'or'
p6250
aS'something'
p6251
aaa(lp6252
S'WESSThats'
p6253
a(lp6254
aa(lp6255
g6253
a(lp6256
S'you'
p6257
aS'know'
p6258
aaa(lp6259
S'CAMI'
p6260
a(lp6261
S'dont'
p6262
aS'know'
p6263
aaa(lp6264
S'WESStwo'
p6265
a(lp6266
S'squares'
p6267
aS'is'
p6268
aS'one'
p6269
aS'square'
p6270
aS'really'
p6271
aaa(lp6272
S'JOHm'
p6273
a(lp6274
aa(lp6275
S'FRED'
p6276
a(lp6277
S'Unhunh'
p6278
aaa(lp6279
S'CAMWhos'
p6280
a(lp6281
S'recipe'
p6282
aS'is'
p6283
aS'that'
p6284
aaa(lp6285
S'WESSSo'
p6286
a(lp6287
g9
aS'take'
p6288
aS'two'
p6289
aS'and'
p6290
ag52
aS'half'
p6291
aS'squares'
p6292
aaa(lp6293
S'FREDLorettas'
p6294
a(lp6295
aa(lp6296
S'CAM'
p6297
a(lp6298
aa(lp6299
S'JO'
p6300
a(lp6301
S'Loretta'
p6302
aaa(lp6303
S'WESS'
p6304
a(lp6305
S'And'
p6306
ag9
aS'cut'
p6307
aS'that'
p6308
aS'all'
p6309
aS'up'
p6310
aaa(lp6311
S'CAMThats'
p6312
a(lp6313
S'his'
p6314
aS'mother'
p6315
aaa(lp6316
S'JO'
p6317
a(lp6318
S'Hunh'
p6319
aaa(lp6320
S'CAM'
p6321
a(lp6322
S'Its'
p6323
aS'his'
p6324
aS'mother'
p6325
aaa(lp6326
S'WESSAnd'
p6327
a(lp6328
g9
aS'mix'
p6329
aS'that'
p6330
aS'with'
p6331
aS'the'
p6332
aS'sugar'
p6333
aaa(lp6334
S'JO'
p6335
a(lp6336
aa(lp6337
g6335
a(lp6338
S'And'
p6339
aS'he'
p6340
aS'calls'
p6341
aS'her'
p6342
aS'Loretta'
p6343
aaa(lp6344
S'CAM'
p6345
a(lp6346
S'he'
p6347
aS'does'
p6348
aaa(lp6349
S'WESSAnd'
p6350
a(lp6351
S'uh'
p6352
aS'th'
p6353
aS'snip'
p6354
aS'of'
p6355
aS'salt'
p6356
aaa(lp6357
S'JONaughty'
p6358
a(lp6359
S'boy'
p6360
aaa(lp6361
S'WESS'
p6362
a(lp6363
S'and'
p6364
aS'Karo'
p6365
aS'syrup'
p6366
aaa(lp6367
S'JOMary'
p6368
a(lp6369
S'Lou'
p6370
aaa(lp6371
g6368
a(lp6372
S'my'
p6373
aS'cousin'
p6374
aaa(lp6375
g6368
a(lp6376
S'used'
p6377
aS'to'
p6378
aS'always'
p6379
aaa(lp6380
S'WESSAnd'
p6381
a(lp6382
g9
aS'stir'
p6383
aS'that'
p6384
aS'up'
p6385
aaa(lp6386
S'JOcall'
p6387
a(lp6388
S'her'
p6389
aS'mother'
p6390
aS'Carrie'
p6391
aaa(lp6392
S'WESSand'
p6393
a(lp6394
S'then'
p6395
ag9
aS'put'
p6396
aS'it'
p6397
aS'on'
p6398
aaa(lp6399
g6393
a(lp6400
S'and'
p6401
ag9
aS'boil'
p6402
aS'it'
p6403
aaa(lp6404
S'CAMCarrie'
p6405
a(lp6406
aa(lp6407
S'WESS'
p6408
a(lp6409
S'Then'
p6410
aS'Ive'
p6411
aS'got'
p6412
aS'my'
p6413
aS'butter'
p6414
aaa(lp6415
S'JOYeah'
p6416
a(lp6417
aa(lp6418
S'WESSand'
p6419
a(lp6420
S'my'
p6421
aS'vanilla'
p6422
aaa(lp6423
S'JOand'
p6424
a(lp6425
S'and'
p6426
aS'Dad'
p6427
aS'used'
p6428
aS'to'
p6429
aS'have'
p6430
aS'such'
p6431
ag52
aS'fit'
p6432
aaa(lp6433
S'WESSand'
p6434
a(lp6435
S'my'
p6436
aS'nuts'
p6437
aaa(lp6438
g6434
a(lp6439
S'over'
p6440
aS'here'
p6441
aaa(lp6442
S'JO'
p6443
a(lp6444
S'He'
p6445
aS'would'
p6446
aS'be'
p6447
aS'so'
p6448
aS'upset'
p6449
aaa(lp6450
S'FREDMhm'
p6451
a(lp6452
aa(lp6453
S'WESSAnd'
p6454
a(lp6455
S'then'
p6456
aS'when'
p6457
aS'that'
p6458
aS'reaches'
p6459
ag52
aS'hard'
p6460
aS'ball'
p6461
aaa(lp6462
S'CAMReally'
p6463
a(lp6464
aa(lp6465
S'JOMm'
p6466
a(lp6467
aa(lp6468
g6466
a(lp6469
S'MRC'
p6470
aS'Cause'
p6471
aS'thats'
p6472
aS'showing'
p6473
aS'no'
p6474
aS'respect'
p6475
aS'MRC'
p6476
aaa(lp6477
S'WESSI'
p6478
a(lp6479
S'fill'
p6480
aS'up'
p6481
aS'the'
p6482
aS'sink'
p6483
aS'with'
p6484
aS'cold'
p6485
aS'water'
p6486
aaa(lp6487
S'CAM'
p6488
a(lp6489
aa(lp6490
S'WESSand'
p6491
a(lp6492
S'put'
p6493
aS'it'
p6494
aS'in'
p6495
aS'there'
p6496
aaa(lp6497
S'JO'
p6498
a(lp6499
aa(lp6500
S'WESSand'
p6501
a(lp6502
S'beat'
p6503
aS'it'
p6504
ag52
aS'little'
p6505
aS'bit'
p6506
aaa(lp6507
g6501
a(lp6508
S'and'
p6509
ag9
aS'put'
p6510
aS'my'
p6511
aS'butter'
p6512
aaa(lp6513
g6501
a(lp6514
S'and'
p6515
aS'my'
p6516
aS'vanilla'
p6517
aS'in'
p6518
aS'it'
p6519
aaa(lp6520
g6501
a(lp6521
S'and'
p6522
aS'it'
p6523
aaa(lp6524
g6501
a(lp6525
S'yours'
p6526
aS'sounds'
p6527
aS'easier'
p6528
aaa(lp6529
S'JOOh'
p6530
a(lp6531
S'yeah'
p6532
aaa(lp6533
S'WESSAnd'
p6534
a(lp6535
S'then'
p6536
aaa(lp6537
S'FREDMines'
p6538
a(lp6539
S'fiftee'
p6540
aaa(lp6541
g6538
a(lp6542
S'by'
p6543
aS'the'
p6544
aS'ti'
p6545
aaa(lp6546
g6538
a(lp6547
S'if'
p6548
aS'you'
p6549
aS'have'
p6550
aS'the'
p6551
aS'ingredients'
p6552
aS'out'
p6553
aaa(lp6554
g6538
a(lp6555
S'you'
p6556
aS'can'
p6557
aS'have'
p6558
aS'it'
p6559
aS'in'
p6560
aS'the'
p6561
aS'pan'
p6562
aS'in'
p6563
aS'fifteen'
p6564
aS'minutes'
p6565
aaa(lp6566
S'JO'
p6567
a(lp6568
S'Oh'
p6569
aaa(lp6570
S'WESSOh'
p6571
a(lp6572
aa(lp6573
S'FRED'
p6574
a(lp6575
aa(lp6576
S'JO'
p6577
a(lp6578
S'Boy'
p6579
aaa(lp6580
g6577
a(lp6581
S'Im'
p6582
aS'gonna'
p6583
aS'get'
p6584
aS'that'
p6585
aS'recipe'
p6586
aS'for'
p6587
aS'Wesley'
p6588
aaa(lp6589
S'WESSNo'
p6590
a(lp6591
S'way'
p6592
aaa(lp6593
g6590
a(lp6594
S'oh'
p6595
aaa(lp6596
S'FREDIts'
p6597
a(lp6598
S'so'
p6599
aS'easy'
p6600
aaa(lp6601
g6597
a(lp6602
S'Its'
p6603
aS'so'
p6604
aS'easy'
p6605
aaa(lp6606
S'JO'
p6607
a(lp6608
aa(lp6609
g6607
a(lp6610
S'VOX'
p6611
aS'Yeah'
p6612
aaa(lp6613
g6607
a(lp6614
S'because'
p6615
ag9
aS'mean'
p6616
aaa(lp6617
g6607
a(lp6618
S'you'
p6619
aS'know'
p6620
aS'it'
p6621
aS'takes'
p6622
aS'forever'
p6623
aS'VOX'
p6624
aaa(lp6625
S'WESSX'
p6626
a(lp6627
S'Go'
p6628
aS'away'
p6629
ag60
aaa(lp6630
S'FREDIt'
p6631
a(lp6632
S'makes'
p6633
ag52
aS'huge'
p6634
aS'pan'
p6635
aaa(lp6636
S'JOHes'
p6637
a(lp6638
S'in'
p6639
aS'the'
p6640
aS'kitchen'
p6641
aaa(lp6642
S'WESSMy'
p6643
a(lp6644
aa(lp6645
S'FREDYeah'
p6646
a(lp6647
S'it'
p6648
aS'makes'
p6649
ag52
aS'nine'
p6650
aS'by'
p6651
aS'thirteen'
p6652
aS'pan'
p6653
aaa(lp6654
S'JO'
p6655
a(lp6656
aa(lp6657
S'FREDand'
p6658
a(lp6659
S'takes'
p6660
aS'fifteen'
p6661
aS'minutes'
p6662
aaa(lp6663
S'WESS'
p6664
a(lp6665
S'And'
p6666
aS'is'
p6667
aS'it'
p6668
aS'soft'
p6669
aS'when'
p6670
aS'you'
p6671
aS'put'
p6672
aS'it'
p6673
aS'in'
p6674
aS'there'
p6675
aaa(lp6676
S'JOHI'
p6677
a(lp6678
S'Oh'
p6679
aS'HI'
p6680
aaa(lp6681
S'FRED'
p6682
a(lp6683
S'Oh'
p6684
aS'yeah'
p6685
aaa(lp6686
g6682
a(lp6687
S'Its'
p6688
aS'gooey'
p6689
aaa(lp6690
g6682
a(lp6691
S'Its'
p6692
aS'real'
p6693
aS'gooey'
p6694
aaa(lp6695
g6682
a(lp6696
S'and'
p6697
aS'then'
p6698
aS'you'
p6699
aaa(lp6700
g6682
a(lp6701
S'you'
p6702
aS'have'
p6703
aS'to'
p6704
aaa(lp6705
S'WESSOh'
p6706
a(lp6707
S'gooey'
p6708
aaa(lp6709
S'FRED'
p6710
a(lp6711
S'you'
p6712
aS'have'
p6713
aS'to'
p6714
aS'wait'
p6715
aS'three'
p6716
aS'hours'
p6717
aS'for'
p6718
aS'it'
p6719
aS'to'
p6720
aS'harden'
p6721
aaa(lp6722
S'WESS'
p6723
a(lp6724
S'Oh'
p6725
aS'no'
p6726
aaa(lp6727
g6723
a(lp6728
S'Mine'
p6729
aaa(lp6730
g6723
a(lp6731
S'mine'
p6732
aaa(lp6733
S'FREDMine'
p6734
a(lp6735
g186
aaa(lp6736
g6734
a(lp6737
S'its'
p6738
aS'already'
p6739
aS'in'
p6740
aS'the'
p6741
aS'pan'
p6742
aaa(lp6743
g6734
a(lp6744
S'and'
p6745
aS'its'
p6746
aS'done'
p6747
aaa(lp6748
S'WESSMm'
p6749
a(lp6750
aa(lp6751
S'JO'
p6752
a(lp6753
S'Yeah'
p6754
aS'but'
p6755
aaa(lp6756
S'FREDand'
p6757
a(lp6758
S'you'
p6759
aS'just'
p6760
aS'set'
p6761
aS'it'
p6762
aS'aside'
p6763
aaa(lp6764
S'JOyes'
p6765
a(lp6766
aa(lp6767
S'WESSYeah'
p6768
a(lp6769
S'mine'
p6770
aS'you'
p6771
aS'pour'
p6772
aS'it'
p6773
aS'in'
p6774
aS'there'
p6775
aaa(lp6776
S'JOI'
p6777
a(lp6778
S'would'
p6779
aS'like'
p6780
aS'that'
p6781
aaa(lp6782
S'WESS'
p6783
a(lp6784
S'and'
p6785
aS'you'
p6786
aS'do'
p6787
aS'it'
p6788
aS'right'
p6789
aS'at'
p6790
aS'the'
p6791
aS'right'
p6792
aS'time'
p6793
aaa(lp6794
g6783
a(lp6795
S'when'
p6796
aS'you'
p6797
aS'pour'
p6798
aS'it'
p6799
aS'in'
p6800
aS'there'
p6801
aaa(lp6802
S'JOYeah'
p6803
a(lp6804
aa(lp6805
S'WESSyoure'
p6806
a(lp6807
S'lucky'
p6808
aS'to'
p6809
aS'get'
p6810
aS'it'
p6811
aS'spread'
p6812
aaa(lp6813
S'FRED'
p6814
a(lp6815
S'Oh'
p6816
aaa(lp6817
g6814
a(lp6818
S'See'
p6819
ag9
aaa(lp6820
g6814
a(lp6821
S'you'
p6822
aS'pour'
p6823
aS'this'
p6824
aS'in'
p6825
aaa(lp6826
g6814
a(lp6827
S'you'
p6828
aS'dont'
p6829
aS'have'
p6830
aS'to'
p6831
aS'worry'
p6832
aS'about'
p6833
aS'anything'
p6834
aaa(lp6835
g6814
a(lp6836
S'cause'
p6837
aS'its'
p6838
aS'nice'
p6839
aS'and'
p6840
aS'gooey'
p6841
aaa(lp6842
S'JOListen'
p6843
a(lp6844
S'to'
p6845
aS'the'
p6846
aS'bakers'
p6847
aaa(lp6848
S'WESSHm'
p6849
a(lp6850
aa(lp6851
S'FREDand'
p6852
a(lp6853
S'then'
p6854
aS'you'
p6855
aS'just'
p6856
aS'wait'
p6857
aaa(lp6858
S'CAM'
p6859
a(lp6860
aa(lp6861
S'JO'
p6862
a(lp6863
aa(lp6864
S'WESSOh'
p6865
a(lp6866
aa(lp6867
g6865
a(lp6868
S'Now'
p6869
aaa(lp6870
g6865
a(lp6871
S'the'
p6872
aS'toffee'
p6873
aaa(lp6874
S'JO'
p6875
a(lp6876
aa(lp6877
S'CAM'
p6878
a(lp6879
g9
aS'think'
p6880
aS'XXXX'
p6881
aaa(lp6882
S'JOYeah'
p6883
a(lp6884
aa(lp6885
S'WESSwhich'
p6886
a(lp6887
S'is'
p6888
aS'good'
p6889
aaa(lp6890
S'FREDMhm'
p6891
a(lp6892
aa(lp6893
S'WESSIt'
p6894
a(lp6895
S'tastes'
p6896
aS'like'
p6897
ag52
aS'Heath'
p6898
aS'Bar'
p6899
aaa(lp6900
S'FRED'
p6901
a(lp6902
S'Mhm'
p6903
aaa(lp6904
S'WESSAll'
p6905
a(lp6906
S'that'
p6907
aS'is'
p6908
aaa(lp6909
g6905
a(lp6910
S'is'
p6911
aS'eggs'
p6912
aaa(lp6913
g6905
a(lp6914
S'and'
p6915
aS'water'
p6916
aaa(lp6917
g6905
a(lp6918
S'and'
p6919
aS'what'
p6920
aS'else'
p6921
aS'honey'
p6922
aaa(lp6923
S'JO'
p6924
a(lp6925
S'Sugar'
p6926
aaa(lp6927
S'WESS'
p6928
a(lp6929
S'Sugar'
p6930
aaa(lp6931
g6928
a(lp6932
S'MRC'
p6933
aS'eggs'
p6934
aS'water'
p6935
aS'and'
p6936
aS'sugar'
p6937
aS'MRC'
p6938
aaa(lp6939
S'JOButter'
p6940
a(lp6941
aa(lp6942
S'WESS'
p6943
a(lp6944
S'Yeah'
p6945
aS'but'
p6946
aS'you'
p6947
aS'dont'
p6948
aaa(lp6949
S'JOButter'
p6950
a(lp6951
aa(lp6952
S'WESS'
p6953
a(lp6954
S'Yeah'
p6955
aaa(lp6956
g6953
a(lp6957
S'then'
p6958
aS'you'
p6959
aS'put'
p6960
aS'the'
p6961
aS'butter'
p6962
aS'in'
p6963
aS'there'
p6964
aaa(lp6965
S'JOUnhunh'
p6966
a(lp6967
aa(lp6968
S'WESS'
p6969
a(lp6970
S'Then'
p6971
aS'you'
p6972
aS'boil'
p6973
aS'that'
p6974
aaa(lp6975
g6969
a(lp6976
S'to'
p6977
aS'threehundred'
p6978
aS'and'
p6979
aS'fifty'
p6980
aS'degrees'
p6981
aaa(lp6982
S'JOThats'
p6983
a(lp6984
S'what'
p6985
aS'takes'
p6986
aS'so'
p6987
aS'long'
p6988
aaa(lp6989
g6983
a(lp6990
S'waiting'
p6991
aS'for'
p6992
aS'it'
p6993
aS'to'
p6994
aS'boil'
p6995
aaa(lp6996
g6983
a(lp6997
S'cause'
p6998
aS'you'
p6999
aS'cant'
p7000
aS'turn'
p7001
aS'it'
p7002
aS'way'
p7003
aS'up'
p7004
aaa(lp7005
S'CAM'
p7006
a(lp7007
S'Oh'
p7008
aaa(lp7009
S'WESSYoull'
p7010
a(lp7011
S'burn'
p7012
aS'it'
p7013
aaa(lp7014
S'JOBecause'
p7015
a(lp7016
S'itd'
p7017
aaa(lp7018
g7015
a(lp7019
S'itd'
p7020
aS'burn'
p7021
aaa(lp7022
S'WESSthen'
p7023
a(lp7024
S'you'
p7025
aS'MRC'
p7026
aS'pour'
p7027
aS'that'
p7028
aS'out'
p7029
aS'on'
p7030
aS'MRC'
p7031
ag52
aS'uh'
p7032
aS'sheet'
p7033
aaa(lp7034
S'CAMX'
p7035
a(lp7036
S'Unhunh'
p7037
ag60
aaa(lp7038
S'JOVOX'
p7039
a(lp7040
S'Ugh'
p7041
aS'VOX'
p7042
aaa(lp7043
S'WESS'
p7044
a(lp7045
S'you'
p7046
aS'know'
p7047
aaa(lp7048
S'FRED'
p7049
a(lp7050
S'Mhm'
p7051
aaa(lp7052
S'JOTin'
p7053
a(lp7054
S'foil'
p7055
aaa(lp7056
S'WESSAnd'
p7057
a(lp7058
S'then'
p7059
aS'you'
p7060
aS'put'
p7061
aaa(lp7062
g7057
a(lp7063
S'and'
p7064
aS'you'
p7065
aS'put'
p7066
aS'nuts'
p7067
aS'in'
p7068
aS'it'
p7069
aaa(lp7070
g7057
a(lp7071
S'and'
p7072
aS'then'
p7073
aS'you'
p7074
aS'pour'
p7075
aS'it'
p7076
aS'out'
p7077
aS'on'
p7078
aS'the'
p7079
aS'sheet'
p7080
aaa(lp7081
g7057
a(lp7082
S'and'
p7083
aS'then'
p7084
aS'it'
p7085
aS'hardens'
p7086
aaa(lp7087
g7057
a(lp7088
S'and'
p7089
aS'then'
p7090
aS'you'
p7091
aS'put'
p7092
aS'chocolate'
p7093
aS'over'
p7094
aS'it'
p7095
aaa(lp7096
g7057
a(lp7097
S'_and'
p7098
aS'nuts'
p7099
aaa(lp7100
S'CAMMm'
p7101
a(lp7102
aa(lp7103
S'WESSand'
p7104
a(lp7105
S'then'
p7106
aS'you'
p7107
aS'turn'
p7108
aS'it'
p7109
aS'over'
p7110
aS'and'
p7111
aaa(lp7112
g7104
a(lp7113
S'put'
p7114
aS'chocolate'
p7115
aS'on'
p7116
aS'the'
p7117
aS'other'
p7118
aS'side'
p7119
aaa(lp7120
S'JOOnce'
p7121
a(lp7122
g52
aS'year'
p7123
aS'Im'
p7124
aS'gonna'
p7125
aS'make'
p7126
aS'that'
p7127
aaa(lp7128
S'WESSafter'
p7129
a(lp7130
S'that'
p7131
aS'harden'
p7132
aaa(lp7133
S'JOThats'
p7134
a(lp7135
S'it'
p7136
aaa(lp7137
S'CAMToffee'
p7138
a(lp7139
aa(lp7140
S'JO'
p7141
a(lp7142
aa(lp7143
S'FREDMm'
p7144
a(lp7145
aa(lp7146
S'CAMSee'
p7147
a(lp7148
g9
aS'dont'
p7149
aS'really'
p7150
aS'like'
p7151
aS'toffee'
p7152
ag60
aS'anyway'
p7153
ag60
aaa(lp7154
S'JOOh'
p7155
a(lp7156
g9
aS'love'
p7157
ag60
aS'toffee'
p7158
ag60
aaa(lp7159
S'FREDThat'
p7160
a(lp7161
S'sounds'
p7162
aS'really'
p7163
aS'good'
p7164
aaa(lp7165
S'JOHI'
p7166
a(lp7167
S'Really'
p7168
aS'HI'
p7169
aaa(lp7170
S'WESSWheres'
p7171
a(lp7172
S'your'
p7173
aS'toffee'
p7174
aaa(lp7175
S'JO'
p7176
a(lp7177
S'VOXHI'
p7178
aS'down'
p7179
aS'in'
p7180
aS'the'
p7181
aS'basement'
p7182
aaa(lp7183
S'WESSOh'
p7184
a(lp7185
aa(lp7186
S'JOuh'
p7187
a(lp7188
S'HIVOX'
p7189
aaa(lp7190
g7187
a(lp7191
g9
aS'will'
p7192
aS'get'
p7193
aS'up'
p7194
aaa(lp7195
S'WESSOh'
p7196
a(lp7197
aa(lp7198
S'JOand'
p7199
a(lp7200
S'make'
p7201
ag52
aS'nice'
p7202
aS'plate'
p7203
aaa(lp7204
S'WESSOh'
p7205
a(lp7206
aa(lp7207
S'JO'
p7208
a(lp7209
S'and'
p7210
aS'Ill'
p7211
aS'put'
p7212
aS'it'
p7213
aS'up'
p7214
aS'here'
p7215
aaa(lp7216
S'WESSOh'
p7217
a(lp7218
aa(lp7219
S'JOwhen'
p7220
a(lp7221
g9
aS'want'
p7222
aS'to'
p7223
aaa(lp7224
S'WESSWell'
p7225
a(lp7226
S'you'
p7227
aS'guys'
p7228
aaa(lp7229
g7225
a(lp7230
S'its'
p7231
aS'gonna'
p7232
aS'be'
p7233
ag52
aS'while'
p7234
aS'before'
p7235
aS'we'
p7236
aS'eat'
p7237
aaa(lp7238
g7225
a(lp7239
S'could'
p7240
aaa(lp7241
g7225
a(lp7242
S'and'
p7243
aS'theres'
p7244
aS'all'
p7245
aS'kinds'
p7246
aS'of'
p7247
aS'stuff'
p7248
aS'for'
p7249
aS'sandwiches'
p7250
aaa(lp7251
g7225
a(lp7252
S'Theres'
p7253
aaa(lp7254
S'FREDOh'
p7255
a(lp7256
S'yeah'
p7257
aaa(lp7258
g7255
a(lp7259
g9
aS'know'
p7260
aaa(lp7261
g7255
a(lp7262
S'Im'
p7263
aS'gonna'
p7264
aS'nibble'
p7265
aS'soon'
p7266
aaa(lp7267
S'WESSGreat'
p7268
a(lp7269
S'big'
p7270
ag4457
aS'hunks'
p7271
aS'of'
p7272
aS'turkey'
p7273
aaa(lp7274
S'JO'
p7275
a(lp7276
aa(lp7277
S'WESSuh'
p7278
a(lp7279
S'that'
p7280
aS'uh'
p7281
aaa(lp7282
g7278
a(lp7283
S'we'
p7284
aS'bought'
p7285
aaa(lp7286
S'CAMVenison'
p7287
a(lp7288
aa(lp7289
S'WESS'
p7290
a(lp7291
S'Well'
p7292
aaa(lp7293
g7290
a(lp7294
S'you'
p7295
aS'know'
p7296
aS'the'
p7297
aS'sliced'
p7298
aaa(lp7299
S'FREDI'
p7300
a(lp7301
S'think'
p7302
aS'Im'
p7303
aS'gonna'
p7304
aS'get'
p7305
aS'one'
p7306
aS'of'
p7307
aS'those'
p7308
aS'venison'
p7309
aS'uh'
p7310
aaa(lp7311
S'WESSbig'
p7312
a(lp7313
g4457
aS'sliced'
p7314
aS'jerky'
p7315
aaa(lp7316
g7312
a(lp7317
S'and'
p7318
aS'fresh'
p7319
aS'bread'
p7320
aaa(lp7321
S'JOOne'
p7322
a(lp7323
S'of'
p7324
aS'those'
p7325
aaa(lp7326
g7322
a(lp7327
S'Yeah'
p7328
aS'theres'
p7329
aS'two'
p7330
aS'different'
p7331
aS'kinds'
p7332
aS'of'
p7333
aS'venison'
p7334
aS'there'
p7335
aaa(lp7336
g7322
a(lp7337
S'Those'
p7338
aS'long'
p7339
aS'sticks'
p7340
aS'are'
p7341
aS'venison'
p7342
aS'too'
p7343
aaa(lp7344
S'WESSYeah'
p7345
a(lp7346
aa(lp7347
g7345
a(lp7348
S'the'
p7349
aS'long'
p7350
aS'sticks'
p7351
aS'are'
p7352
aS'venison'
p7353
aaa(lp7354
g7345
a(lp7355
S'and'
p7356
aS'the'
p7357
aS'cold'
p7358
aS'meats'
p7359
aS'venison'
p7360
aaa(lp7361
g7345
a(lp7362
S'and'
p7363
aS'then'
p7364
aS'theres'
p7365
aS'another'
p7366
aS'cold'
p7367
aS'meat'
p7368
aS'sausage'
p7369
aaa(lp7370
S'CAM'
p7371
a(lp7372
S'So'
p7373
aS'have'
p7374
aS'you'
p7375
aS'talked'
p7376
aS'to'
p7377
aaa(lp7378
g7371
a(lp7379
S'uh'
p7380
aaa(lp7381
g7371
a(lp7382
S'Mary'
p7383
aS'Lou'
p7384
aaa(lp7385
S'FRED'
p7386
a(lp7387
g60
aS'Yeah'
p7388
ag60
aaa(lp7389
S'JONope'
p7390
a(lp7391
aa(lp7392
S'CAM'
p7393
a(lp7394
S'Nope'
p7395
aaa(lp7396
S'JO'
p7397
a(lp7398
g60
aS'Well'
p7399
ag60
aaa(lp7400
S'WESSNow'
p7401
a(lp7402
S'thats'
p7403
aS'venison'
p7404
aaa(lp7405
S'JOI'
p7406
a(lp7407
S'dont'
p7408
aS'know'
p7409
aS'if'
p7410
aS'they'
p7411
aS'were'
p7412
aS'going'
p7413
aS'up'
p7414
aaa(lp7415
g7406
a(lp7416
S'See'
p7417
aS'they'
p7418
aS'have'
p7419
ag52
aS'cabin'
p7420
aS'now'
p7421
aaa(lp7422
S'FREDFOOD'
p7423
a(lp7424
S'Very'
p7425
aS'good'
p7426
aS'FOOD'
p7427
aaa(lp7428
S'JO'
p7429
a(lp7430
S'Up'
p7431
aS'at'
p7432
aS'three'
p7433
aaa(lp7434
S'WESSIt'
p7435
a(lp7436
S'is'
p7437
aaa(lp7438
g7435
a(lp7439
S'Mm'
p7440
aaa(lp7441
S'CAMThree'
p7442
a(lp7443
S'Rivers'
p7444
aaa(lp7445
S'WESSX'
p7446
a(lp7447
g9
aS'never'
p7448
ag60
aaa(lp7449
S'JOThree'
p7450
a(lp7451
S'uh'
p7452
aaa(lp7453
S'WESSMaybe'
p7454
a(lp7455
S'Ill'
p7456
aS'eat'
p7457
aS'one'
p7458
aaa(lp7459
S'JOS'
p7460
a(lp7461
S'Three'
p7462
aS'Lakes'
p7463
aaa(lp7464
S'WESSI'
p7465
a(lp7466
S'didnt'
p7467
aS'eat'
p7468
aS'one'
p7469
aaa(lp7470
S'CAMThree'
p7471
a(lp7472
S'Rivers'
p7473
aaa(lp7474
S'JOOr'
p7475
a(lp7476
S'Three'
p7477
aaa(lp7478
g7475
a(lp7479
S'No'
p7480
aaa(lp7481
g7475
a(lp7482
S'Three'
p7483
aS'La'
p7484
aaa(lp7485
g7475
a(lp7486
S'Or'
p7487
aS'is'
p7488
aS'it'
p7489
aS'th'
p7490
aaa(lp7491
g7475
a(lp7492
S'Three'
p7493
aS'Lakes'
p7494
aS'Mar'
p7495
aaa(lp7496
S'WESSThree'
p7497
a(lp7498
S'Lakes'
p7499
aaa(lp7500
S'JOThree'
p7501
a(lp7502
S'Lakes'
p7503
aaa(lp7504
S'CAMTheres'
p7505
a(lp7506
S'Three'
p7507
aS'Lakes'
p7508
aaa(lp7509
g7505
a(lp7510
g9
aS'knew'
p7511
aS'there'
p7512
aS'was'
p7513
ag52
aS'Three'
p7514
aS'Rivers'
p7515
aaa(lp7516
S'JOYeah'
p7517
a(lp7518
S'theres'
p7519
ag52
aS'Three'
p7520
aS'Lakes'
p7521
aS'up'
p7522
aS'there'
p7523
aaa(lp7524
S'CAMSo'
p7525
a(lp7526
S'theres'
p7527
ag52
aS'Three'
p7528
aS'Lakes'
p7529
aaa(lp7530
S'JO'
p7531
a(lp7532
S'Its'
p7533
aS'between'
p7534
aaa(lp7535
S'FREDThree'
p7536
a(lp7537
S'Rivers'
p7538
aS'is'
p7539
aaa(lp7540
S'JO'
p7541
a(lp7542
S'Eagle'
p7543
aS'River'
p7544
aS'and'
p7545
aS'Rheinlander'
p7546
ag9
aS'think'
p7547
aaa(lp7548
S'FREDPittsburgh'
p7549
a(lp7550
aa(lp7551
S'WESS'
p7552
a(lp7553
aa(lp7554
S'CAM'
p7555
a(lp7556
S'No'
p7557
aS'theres'
p7558
ag52
aS'Three'
p7559
aS'Rivers'
p7560
aS'in'
p7561
aS'Wisconsin'
p7562
aaa(lp7563
S'FREDWell'
p7564
a(lp7565
S'theres'
p7566
aaa(lp7567
g7564
a(lp7568
S'the'
p7569
aS'more'
p7570
aS'famous'
p7571
aS'is'
p7572
aS'Pittsburgh'
p7573
aaa(lp7574
g7564
a(lp7575
S'The'
p7576
aS'name'
p7577
aS'of'
p7578
aS'their'
p7579
aS'stadium'
p7580
aaa(lp7581
g7564
a(lp7582
S'their'
p7583
aS'football'
p7584
aS'and'
p7585
aS'baseball'
p7586
aS'stadium'
p7587
aS'is'
p7588
aS'Three'
p7589
aS'Rivers'
p7590
aS'Stadium'
p7591
aaa(lp7592
S'CAM'
p7593
a(lp7594
S'Cant'
p7595
aS'believe'
p7596
ag9
aS'didnt'
p7597
aS'know'
p7598
aS'that'
p7599
aaa(lp7600
S'JOOh'
p7601
a(lp7602
aa(lp7603
S'CAM'
p7604
a(lp7605
aa(lp7606
S'JO'
p7607
a(lp7608
S'SM'
p7609
aS'But'
p7610
aS'anyway'
p7611
aS'SM'
p7612
aaa(lp7613
g7607
a(lp7614
S'she'
p7615
aS'uh'
p7616
aaa(lp7617
g7607
a(lp7618
S'see'
p7619
aS'see'
p7620
aS'they'
p7621
aS'bought'
p7622
aaa(lp7623
g7607
a(lp7624
S'its'
p7625
ag1957
aS'like'
p7626
ag52
aS'regular'
p7627
aS'house'
p7628
aaa(lp7629
g7607
a(lp7630
S'On'
p7631
ag52
aS'lake'
p7632
aaa(lp7633
S'CAM'
p7634
a(lp7635
S'Oh'
p7636
aS'wow'
p7637
aaa(lp7638
S'JO'
p7639
a(lp7640
S'And'
p7641
aS'and'
p7642
aS'like'
p7643
aS'its'
p7644
aS'got'
p7645
aS'four'
p7646
aS'bedrooms'
p7647
aaa(lp7648
g7639
a(lp7649
S'Its'
p7650
aS'twostory'
p7651
aaa(lp7652
g7639
a(lp7653
g60
aaa(lp7654
S'CAMYou'
p7655
a(lp7656
S'know'
p7657
aS'she'
p7658
aS'had'
p7659
aS'all'
p7660
aS'those'
p7661
aS'recipes'
p7662
aaa(lp7663
g7655
a(lp7664
S'Didnt'
p7665
aS'she'
p7666
aaa(lp7667
S'JOMm'
p7668
a(lp7669
aa(lp7670
g7668
a(lp7671
S'She'
p7672
aS'had'
p7673
ag52
aS'lot'
p7674
aS'of'
p7675
aS'recipes'
p7676
aaa(lp7677
S'WESSWho'
p7678
a(lp7679
S'wants'
p7680
aS'more'
p7681
aS'coffee'
p7682
aaa(lp7683
S'JOIll'
p7684
a(lp7685
S'have'
p7686
ag52
aS'little'
p7687
aS'bit'
p7688
aaa(lp7689
S'FREDIm'
p7690
a(lp7691
S'done'
p7692
aaa(lp7693
g7690
a(lp7694
g9
aS'put'
p7695
aS'my'
p7696
aS'cup'
p7697
aS'away'
p7698
aaa(lp7699
S'CAMIll'
p7700
a(lp7701
S'have'
p7702
ag52
aS'little'
p7703
aS'bit'
p7704
aaa(lp7705
S'WESS'
p7706
a(lp7707
S'Do'
p7708
aS'you'
p7709
aS'want'
p7710
aS'some'
p7711
aS'Fred'
p7712
aaa(lp7713
S'JO'
p7714
a(lp7715
S'No'
p7716
aaa(lp7717
g7714
a(lp7718
S'he'
p7719
aS'said'
p7720
aS'hes'
p7721
aS'done'
p7722
aaa(lp7723
S'WESSOh'
p7724
a(lp7725
aa(lp7726
S'JO'
p7727
a(lp7728
S'Now'
p7729
aS'you'
p7730
aaa(lp7731
g7727
a(lp7732
S'Have'
p7733
aS'you'
p7734
aS'got'
p7735
aS'your'
p7736
aS'hearing'
p7737
aS'aids'
p7738
aS'in'
p7739
aaa(lp7740
S'WESSYes'
p7741
a(lp7742
S'dear'
p7743
aaa(lp7744
S'JOVOX'
p7745
a(lp7746
S'Well'
p7747
aS'turn'
p7748
aS'em'
p7749
aS'up'
p7750
aaa(lp7751
g7745
a(lp7752
S'Thats'
p7753
aS'enough'
p7754
aaa(lp7755
S'WESS'
p7756
a(lp7757
S'Dont'
p7758
aS'tell'
p7759
ag52
aS'great'
p7760
aS'man'
p7761
aS'what'
p7762
aS'to'
p7763
aS'do'
p7764
aaa(lp7765
S'CAM'
p7766
a(lp7767
aa(lp7768
S'FRED'
p7769
a(lp7770
aa(lp7771
S'CAM'
p7772
a(lp7773
aa(lp7774
S'JO'
p7775
a(lp7776
S'Yes'
p7777
ag9
aS'do'
p7778
aaa(lp7779
g7775
a(lp7780
g9
aS'tell'
p7781
aS'you'
p7782
aS'what'
p7783
aS'to'
p7784
aS'do'
p7785
aaa(lp7786
g7775
a(lp7787
g9
aS'keep'
p7788
aS'you'
p7789
aS'on'
p7790
aS'the'
p7791
aS'straight'
p7792
aS'and'
p7793
aS'narrow'
p7794
aaa(lp7795
g7775
a(lp7796
S'If'
p7797
aS'it'
p7798
aS'wasnt'
p7799
aS'for'
p7800
aS'me'
p7801
aS'youd'
p7802
aS'be'
p7803
ag52
aS'slob'
p7804
aS'VOX'
p7805
aaa(lp7806
S'WESSDo'
p7807
a(lp7808
S'you'
p7809
aS'want'
p7810
aS'me'
p7811
aS'to'
p7812
aS'make'
p7813
aS'some'
p7814
aS'more'
p7815
aaa(lp7816
S'CAM'
p7817
a(lp7818
aa(lp7819
S'JONo'
p7820
a(lp7821
aa(lp7822
g7820
a(lp7823
S'because'
p7824
aS'next'
p7825
aS'time'
p7826
aS'were'
p7827
aS'gonna'
p7828
aS'make'
p7829
aS'decaf'
p7830
aaa(lp7831
g7820
a(lp7832
S'When'
p7833
aS'Patty'
p7834
ag60
aS'comes'
p7835
ag60
aaa(lp7836
S'WESS'
p7837
a(lp7838
S'Oh'
p7839
aS'well'
p7840
aaa(lp7841
g7837
a(lp7842
S'Cameron'
p7843
aS'might'
p7844
aS'want'
p7845
aS'some'
p7846
aS'more'
p7847
aaa(lp7848
S'JOWHX'
p7849
a(lp7850
S'Geez'
p7851
aS'XWH'
p7852
aaa(lp7853
g7849
a(lp7854
S'VOX'
p7855
aS'No'
p7856
aaa(lp7857
S'CAMOh'
p7858
a(lp7859
S'nonono'
p7860
aaa(lp7861
S'JOhell'
p7862
a(lp7863
S'get'
p7864
aS'too'
p7865
aS'hyper'
p7866
aS'VOX'
p7867
aaa(lp7868
S'CAMNo'
p7869
a(lp7870
aa(lp7871
g7869
a(lp7872
S'VOX'
p7873
aS'yeah'
p7874
aS'thats'
p7875
aS'right'
p7876
aS'VOX'
p7877
aaa(lp7878
S'JO'
p7879
a(lp7880
aa(lp7881
g7879
a(lp7882
S'P'
p7883
aS'He'
p7884
aS'is'
p7885
ag52
aS'slob'
p7886
aaa(lp7887
g7879
a(lp7888
g9
aS'get'
p7889
aS'so'
p7890
aS'mad'
p7891
aS'at'
p7892
aS'him'
p7893
aaa(lp7894
g7879
a(lp7895
g9
aS'tell'
p7896
aS'him'
p7897
aaa(lp7898
g7879
a(lp7899
S'you'
p7900
aS'change'
p7901
aS'that'
p7902
aS'shirt'
p7903
aS'every'
p7904
aS'day'
p7905
aaa(lp7906
g7879
a(lp7907
S'When'
p7908
aS'youre'
p7909
aS'that'
p7910
aS'heavy'
p7911
aaa(lp7912
g7879
a(lp7913
S'you'
p7914
aS'have'
p7915
aS'to'
p7916
ag7883
aaa(lp7917
S'CAM'
p7918
a(lp7919
S'Oh'
p7920
aS'yeah'
p7921
aS'yeah'
p7922
aaa(lp7923
S'JOYou'
p7924
a(lp7925
S'know'
p7926
aaa(lp7927
S'CAM'
p7928
a(lp7929
S'Yeah'
p7930
aaa(lp7931
S'JOAnd'
p7932
a(lp7933
S'even'
p7934
aS'me'
p7935
aaa(lp7936
g7932
a(lp7937
g9
aS'do'
p7938
aaa(lp7939
g7932
a(lp7940
S'And'
p7941
ag9
aS'mean'
p7942
aS'Im'
p7943
aS'not'
p7944
aS'that'
p7945
aS'heavy'
p7946
aaa(lp7947
g7932
a(lp7948
S'But'
p7949
aS'my'
p7950
aaa(lp7951
S'WESSF'
p7952
a(lp7953
S'Ill'
p7954
aS'put'
p7955
aS'the'
p7956
aS'water'
p7957
aS'in'
p7958
aS'Jo'
p7959
ag130
aaa(lp7960
S'JOPHI'
p7961
a(lp7962
S'Yeah'
p7963
aaa(lp7964
g7961
a(lp7965
S'hell'
p7966
aaa(lp7967
g7961
a(lp7968
S'wear'
p7969
aS'it'
p7970
aS'two'
p7971
aS'days'
p7972
aaa(lp7973
g7961
a(lp7974
S'and'
p7975
aS'what'
p7976
aS'do'
p7977
aS'people'
p7978
aS'think'
p7979
aS'of'
p7980
aS'him'
p7981
aS'PHI'
p7982
aaa(lp7983
S'CAM'
p7984
a(lp7985
aa(lp7986
S'JO'
p7987
a(lp7988
S'VOX'
p7989
aS'Okay'
p7990
aS'VOX'
p7991
aaa(lp7992
g7987
a(lp7993
S'PHI'
p7994
aS'But'
p7995
ag9
aS'mean'
p7996
aaa(lp7997
g7987
a(lp7998
S'and'
p7999
aS'then'
p8000
aS'he'
p8001
aS'spills'
p8002
aS'all'
p8003
aS'over'
p8004
aS'the'
p8005
aS'front'
p8006
aaa(lp8007
g7987
a(lp8008
S'And'
p8009
ag9
aS'hate'
p8010
aS'that'
p8011
aS'HIP'
p8012
aaa(lp8013
S'CAMAh'
p8014
a(lp8015
aa(lp8016
S'JOSee'
p8017
a(lp8018
aa(lp8019
g8017
a(lp8020
S'cause'
p8021
aS'hes'
p8022
aS'got'
p8023
ag52
aS'HI'
p8024
aS'big'
p8025
aS'stomach'
p8026
aaa(lp8027
S'CAM'
p8028
a(lp8029
S'Yeah'
p8030
aaa(lp8031
S'JO'
p8032
a(lp8033
S'And'
p8034
aS'its'
p8035
aS'sitting'
p8036
aS'in'
p8037
aS'the'
p8038
aS'way'
p8039
aS'HI'
p8040
aaa(lp8041
g8032
a(lp8042
S'And'
p8043
ag9
aS'can'
p8044
aS're'
p8045
aaa(lp8046
g8032
a(lp8047
S'and'
p8048
ag9
aS'told'
p8049
aS'him'
p8050
aS'the'
p8051
aS'other'
p8052
aS'day'
p8053
ag9
aS'said'
p8054
aaa(lp8055
g8032
a(lp8056
g9
aS'remember'
p8057
aS'when'
p8058
aS'your'
p8059
aS'dad'
p8060
aS'did'
p8061
aS'that'
p8062
aaa(lp8063
g8032
a(lp8064
S'And'
p8065
aS'and'
p8066
aS'grandpa'
p8067
aS'wanted'
p8068
aS'to'
p8069
aS'buy'
p8070
aS'some'
p8071
aS'overalls'
p8072
aaa(lp8073
g8032
a(lp8074
S'and'
p8075
aS'grandma'
p8076
aS'never'
p8077
aS'would'
p8078
aS'let'
p8079
aS'him'
p8080
aS'have'
p8081
aS'em'
p8082
aaa(lp8083
g8032
a(lp8084
S'Cause'
p8085
aS'she'
p8086
aS'said'
p8087
aaa(lp8088
g8032
a(lp8089
S'theres'
p8090
ag52
aS'lot'
p8091
aS'of'
p8092
aS'old'
p8093
aS'pants'
p8094
aS'you'
p8095
aS'can'
p8096
aS'wear'
p8097
aaa(lp8098
g8032
a(lp8099
S'And'
p8100
ag9
aS'hate'
p8101
aS'that'
p8102
aaa(lp8103
g8032
a(lp8104
S'You'
p8105
aS'know'
p8106
aS'they'
p8107
aS'take'
p8108
aS'old'
p8109
aS'pants'
p8110
aaa(lp8111
g8032
a(lp8112
S'that'
p8113
aS'were'
p8114
aS'suit'
p8115
aS'pants'
p8116
aS'or'
p8117
aaa(lp8118
g8032
a(lp8119
S'or'
p8120
aS'nice'
p8121
aS'pants'
p8122
aaa(lp8123
g8032
a(lp8124
S'And'
p8125
aS'then'
p8126
aS'theyre'
p8127
aS'all'
p8128
aS'spotted'
p8129
aaa(lp8130
g8032
a(lp8131
S'and'
p8132
aS'they'
p8133
aS'were'
p8134
aS'em'
p8135
aS'anyway'
p8136
aaa(lp8137
g8032
a(lp8138
g9
aS'would'
p8139
aS'rather'
p8140
aS'see'
p8141
ag52
aS'man'
p8142
aaa(lp8143
g8032
a(lp8144
S'an'
p8145
aS'older'
p8146
aS'man'
p8147
aaa(lp8148
g8032
a(lp8149
S'in'
p8150
ag52
aS'nice'
p8151
aS'pair'
p8152
aS'of'
p8153
aS'jeans'
p8154
aaa(lp8155
S'CAM'
p8156
a(lp8157
S'Hmm'
p8158
aaa(lp8159
S'JO'
p8160
a(lp8161
S'Than'
p8162
aS'an'
p8163
aS'old'
p8164
aaa(lp8165
S'WESSF'
p8166
a(lp8167
S'Oh'
p8168
aS'you'
p8169
aS'cant'
p8170
aS'do'
p8171
aS'that'
p8172
ag130
aaa(lp8173
S'JOyou'
p8174
a(lp8175
S'know'
p8176
aaa(lp8177
g8174
a(lp8178
S'cause'
p8179
aS'it'
p8180
aS'was'
p8181
aS'so'
p8182
aS'dirty'
p8183
aaa(lp8184
S'CAMYeah'
p8185
a(lp8186
S'yeah'
p8187
aaa(lp8188
S'JO'
p8189
a(lp8190
S'And'
p8191
aS'you'
p8192
aaa(lp8193
g8189
a(lp8194
g1430
aS'cause'
p8195
aS'you'
p8196
aS'cant'
p8197
aaa(lp8198
g8189
a(lp8199
g1430
aS'like'
p8200
aS'see'
p8201
aS'the'
p8202
aS'material'
p8203
aS'years'
p8204
aS'ago'
p8205
aaa(lp8206
g8189
a(lp8207
S'You'
p8208
aS'couldnt'
p8209
aS'wash'
p8210
aaa(lp8211
S'CAM'
p8212
a(lp8213
S'It'
p8214
aS'was'
p8215
aS'all'
p8216
aS'dryclean'
p8217
aaa(lp8218
S'JOIt'
p8219
a(lp8220
S'was'
p8221
aS'all'
p8222
aS'dryclean'
p8223
aaa(lp8224
S'WESS'
p8225
a(lp8226
g130
aS'You'
p8227
aS'cant'
p8228
aS'put'
p8229
aS'the'
p8230
aS'water'
p8231
aS'in'
p8232
aS'the'
p8233
aS'damn'
p8234
aS'thing'
p8235
aS'when'
p8236
aS'its'
p8237
aS'hot'
p8238
ag130
aaa(lp8239
S'JOSo'
p8240
a(lp8241
aa(lp8242
S'CAM'
p8243
a(lp8244
aa(lp8245
S'JO'
p8246
a(lp8247
aa(lp8248
S'WESSF'
p8249
a(lp8250
S'It'
p8251
aS'just'
p8252
aS'starts'
p8253
aS'running'
p8254
aS'out'
p8255
ag130
aaa(lp8256
S'JOVOX'
p8257
a(lp8258
S'Oh'
p8259
aS'he'
p8260
aS'is'
p8261
aS'something'
p8262
aS'VOX'
p8263
aaa(lp8264
S'WESSOh'
p8265
a(lp8266
S'well'
p8267
aaa(lp8268
g8265
a(lp8269
S'Live'
p8270
aS'and'
p8271
aS'learn'
p8272
aaa(lp8273
S'JO'
p8274
a(lp8275
aa(lp8276
S'FRED'
p8277
a(lp8278
aa(lp8279
S'WESS'
p8280
a(lp8281
aa(lp8282
S'CAM'
p8283
a(lp8284
aa(lp8285
S'JOVOX'
p8286
a(lp8287
S'Oh'
p8288
aS'VOX'
p8289
aaa(lp8290
S'CAM'
p8291
a(lp8292
S'You'
p8293
aS'should'
p8294
aS'get'
p8295
aS'those'
p8296
aS'recipes'
p8297
aS'from'
p8298
aS'Mary'
p8299
aS'Lou'
p8300
aaa(lp8301
S'WESS'
p8302
a(lp8303
aa(lp8304
g8302
a(lp8305
S'Yeah'
p8306
aS'we'
p8307
aS'got'
p8308
aS'those'
p8309
aS'big'
p8310
aS'turkey'
p8311
aS'slabs'
p8312
aaa(lp8313
S'CAMI'
p8314
a(lp8315
S'think'
p8316
ag9
aS'tried'
p8317
aS'that'
p8318
aS'once'
p8319
aaa(lp8320
S'FREDHere'
p8321
a(lp8322
S'try'
p8323
aS'one'
p8324
aS'of'
p8325
aS'these'
p8326
aaa(lp8327
S'CAMDidnt'
p8328
a(lp8329
g9
aaa(lp8330
S'JO'
p8331
a(lp8332
S'Yeah'
p8333
aaa(lp8334
S'WESSIts'
p8335
a(lp8336
g52
aaa(lp8337
g8335
a(lp8338
S'this'
p8339
aS'is'
p8340
aS'what'
p8341
aaa(lp8342
S'CAMOr'
p8343
a(lp8344
S'was'
p8345
ag9
aS'gonna'
p8346
aS'call'
p8347
aS'or'
p8348
aS'something'
p8349
aaa(lp8350
g8343
a(lp8351
S'But'
p8352
ag9
aS'never'
p8353
aS'did'
p8354
aaa(lp8355
S'FREDA'
p8356
a(lp8357
S'pecan'
p8358
aS'tartlet'
p8359
aaa(lp8360
S'CAMI'
p8361
a(lp8362
S'cant'
p8363
aS'remem'
p8364
aaa(lp8365
S'JO'
p8366
a(lp8367
g9
aS'think'
p8368
aS'you'
p8369
aS'were'
p8370
aS'gonna'
p8371
aS'call'
p8372
aaa(lp8373
g8366
a(lp8374
S'but'
p8375
ag9
aS'dont'
p8376
aS'think'
p8377
aS'you'
p8378
aS'did'
p8379
aaa(lp8380
g8366
a(lp8381
S'Or'
p8382
aaa(lp8383
g8366
a(lp8384
g1797
aS'or'
p8385
aS'they'
p8386
aS'werent'
p8387
aS'home'
p8388
aS'or'
p8389
aS'something'
p8390
aaa(lp8391
S'WESSWell'
p8392
a(lp8393
S'whatd'
p8394
ag9
aS'do'
p8395
aS'with'
p8396
aS'my'
p8397
aS'coffee'
p8398
aaa(lp8399
S'CAMYeah'
p8400
a(lp8401
S'maybe'
p8402
aS'that'
p8403
aS'was'
p8404
aS'it'
p8405
aaa(lp8406
S'FREDTheres'
p8407
a(lp8408
S'one'
p8409
aS'here'
p8410
aaa(lp8411
S'WESS'
p8412
a(lp8413
S'Okay'
p8414
aaa(lp8415
S'CAMIs'
p8416
a(lp8417
S'she'
p8418
aS'still'
p8419
aS'stingy'
p8420
aS'with'
p8421
aS'those'
p8422
aaa(lp8423
S'JOIve'
p8424
a(lp8425
S'got'
p8426
ag52
aS'few'
p8427
aS'um'
p8428
aaa(lp8429
g8424
a(lp8430
S'Hunh'
p8431
aaa(lp8432
S'CAM'
p8433
a(lp8434
S'Is'
p8435
aS'she'
p8436
aS'still'
p8437
aS'stingy'
p8438
aS'with'
p8439
aS'all'
p8440
aS'those'
p8441
aaa(lp8442
S'JO'
p8443
a(lp8444
S'HI'
p8445
aS'No'
p8446
aaa(lp8447
g8443
a(lp8448
S'she'
p8449
aS'isnt'
p8450
aS'really'
p8451
aS'stingy'
p8452
aS'HI'
p8453
aaa(lp8454
g8443
a(lp8455
S'if'
p8456
aS'you'
p8457
aS'want'
p8458
aS'em'
p8459
aaa(lp8460
g8443
a(lp8461
S'shell'
p8462
aS'give'
p8463
aS'em'
p8464
aS'to'
p8465
aS'you'
p8466
aaa(lp8467
S'WESSF'
p8468
a(lp8469
S'Do'
p8470
aS'you'
p8471
aS'want'
p8472
ag52
aS'bite'
p8473
aS'of'
p8474
aS'this'
p8475
aaa(lp8476
g8468
a(lp8477
S'This'
p8478
aS'is'
p8479
ag52
aS'pecan'
p8480
aS'tartlet'
p8481
ag130
aaa(lp8482
S'JOIt'
p8483
a(lp8484
S'was'
p8485
aaa(lp8486
S'WESS'
p8487
a(lp8488
S'that'
p8489
aS'Fred'
p8490
aS'made'
p8491
aaa(lp8492
S'JO'
p8493
a(lp8494
S'Ill'
p8495
aS'have'
p8496
aS'one'
p8497
aS'bite'
p8498
aaa(lp8499
g8493
a(lp8500
S'He'
p8501
aS'made'
p8502
aS'tarts'
p8503
aaa(lp8504
S'CAMSee'
p8505
a(lp8506
aa(lp8507
g8505
a(lp8508
g9
aS'like'
p8509
aaa(lp8510
g8505
a(lp8511
g9
aS'like'
p8512
aS'em'
p8513
aaa(lp8514
g8505
a(lp8515
S'alre'
p8516
aS'fresh'
p8517
aS'out'
p8518
aS'of'
p8519
aS'the'
p8520
aS'oven'
p8521
aaa(lp8522
g8505
a(lp8523
S'But'
p8524
aS'otherwise'
p8525
aS'its'
p8526
aaa(lp8527
g8505
a(lp8528
S'not'
p8529
aS'really'
p8530
aS'my'
p8531
aS'style'
p8532
aaa(lp8533
S'JOMm'
p8534
a(lp8535
aa(lp8536
g8534
a(lp8537
S'FOOD'
p8538
aS'Theyre'
p8539
aS'good'
p8540
aS'FOOD'
p8541
aaa(lp8542
S'WESSMm'
p8543
a(lp8544
aa(lp8545
S'JO'
p8546
a(lp8547
S'VOX'
p8548
aS'Oh'
p8549
ag9
aS'didnt'
p8550
aS'know'
p8551
aS'you'
p8552
aS'were'
p8553
aS'so'
p8554
aS'talented'
p8555
aS'Frederick'
p8556
aS'VOX'
p8557
aaa(lp8558
S'CAMOh'
p8559
a(lp8560
S'he'
p8561
aS'just'
p8562
aS'copies'
p8563
aaa(lp8564
S'JO'
p8565
a(lp8566
aa(lp8567
S'WESSVOX'
p8568
a(lp8569
S'What'
p8570
aS'am'
p8571
ag9
aS'doing'
p8572
aS'here'
p8573
aS'VOX'
p8574
aaa(lp8575
S'CAM'
p8576
a(lp8577
aa(lp8578
S'JOWhat'
p8579
a(lp8580
S'do'
p8581
aS'you'
p8582
aS'mean'
p8583
aaa(lp8584
g8579
a(lp8585
S'VOX'
p8586
aS'We'
p8587
aS'all'
p8588
aS'copy'
p8589
aS'VOX'
p8590
aaa(lp8591
S'CAM'
p8592
a(lp8593
aa(lp8594
S'JO'
p8595
a(lp8596
aa(lp8597
S'WESSWhat'
p8598
a(lp8599
S'am'
p8600
ag9
aaa(lp8601
g8598
a(lp8602
g9
aS'got'
p8603
ag52
aaa(lp8604
S'JOYou'
p8605
a(lp8606
S'probably'
p8607
aS'got'
p8608
aS'Fredericks'
p8609
aS'cup'
p8610
aS'now'
p8611
aaa(lp8612
S'WESSOh'
p8613
a(lp8614
aa(lp8615
g8613
a(lp8616
g9
aS'probably'
p8617
aS'did'
p8618
aaa(lp8619
S'JO'
p8620
a(lp8621
aa(lp8622
S'WESSTheres'
p8623
a(lp8624
S'my'
p8625
aS'cup'
p8626
aaa(lp8627
g8623
a(lp8628
S'Now'
p8629
ag9
aS'got'
p8630
aS'two'
p8631
aS'cups'
p8632
aaa(lp8633
S'JO'
p8634
a(lp8635
aa(lp8636
g8634
a(lp8637
g9
aS'got'
p8638
ag52
aS'recipe'
p8639
aS'for'
p8640
aS'Bohemian'
p8641
aS'cookies'
p8642
aaa(lp8643
S'CAM'
p8644
a(lp8645
S'What'
p8646
aaa(lp8647
g8644
a(lp8648
S'What'
p8649
aS'is'
p8650
aS'that'
p8651
aaa(lp8652
S'JO'
p8653
a(lp8654
S'And'
p8655
ag9
aS'made'
p8656
aS'them'
p8657
ag52
aS'couple'
p8658
aS'times'
p8659
aaa(lp8660
S'WESSMm'
p8661
a(lp8662
aa(lp8663
g8661
a(lp8664
S'thats'
p8665
aS'good'
p8666
aaa(lp8667
S'JOBut'
p8668
a(lp8669
g9
aS'didnt'
p8670
aS'make'
p8671
aS'em'
p8672
aS'this'
p8673
aS'year'
p8674
aaa(lp8675
S'FREDMm'
p8676
a(lp8677
aa(lp8678
S'WESS'
p8679
a(lp8680
S'Mm'
p8681
aaa(lp8682
S'JOWell'
p8683
a(lp8684
S'the'
p8685
aS'little'
p8686
aS'kids'
p8687
aS'dont'
p8688
aS'XX'
p8689
aS'XXX'
p8690
aaa(lp8691
S'WESSDates'
p8692
a(lp8693
S'on'
p8694
aS'the'
p8695
aS'bottom'
p8696
aaa(lp8697
S'JO'
p8698
a(lp8699
aa(lp8700
S'CAMOh'
p8701
a(lp8702
S'cause'
p8703
aaa(lp8704
g8701
a(lp8705
S'cause'
p8706
aS'theyre'
p8707
aS'too'
p8708
aS'spicy'
p8709
aaa(lp8710
S'FREDNo'
p8711
a(lp8712
S'its'
p8713
ag52
aaa(lp8714
S'JONo'
p8715
a(lp8716
aa(lp8717
g8715
a(lp8718
S'theyre'
p8719
aS'not'
p8720
aS'spicy'
p8721
aS'you'
p8722
aaa(lp8723
S'FREDXX'
p8724
a(lp8725
aa(lp8726
S'JO'
p8727
a(lp8728
S'you'
p8729
aaa(lp8730
g8727
a(lp8731
S'grind'
p8732
aS'up'
p8733
ag52
aS'lotta'
p8734
aS'different'
p8735
aS'kinds'
p8736
aS'of'
p8737
aS'nuts'
p8738
aaa(lp8739
S'FREDNuts'
p8740
a(lp8741
aa(lp8742
g8740
a(lp8743
S'Lots'
p8744
aS'of'
p8745
aS'nuts'
p8746
aaa(lp8747
S'JO'
p8748
a(lp8749
S'In'
p8750
aS'Bohemians'
p8751
aaa(lp8752
S'WESSWhats'
p8753
a(lp8754
S'that'
p8755
aS'gelatin'
p8756
aS'like'
p8757
aS'on'
p8758
aS'the'
p8759
aS'bottom'
p8760
aaa(lp8761
S'JOum'
p8762
a(lp8763
aa(lp8764
g8762
a(lp8765
S'And'
p8766
aS'um'
p8767
aaa(lp8768
g8762
a(lp8769
S'theyre'
p8770
aS'sort'
p8771
aS'of'
p8772
aaa(lp8773
S'FREDThats'
p8774
a(lp8775
g52
ag52
aS'brown'
p8776
aS'sugar'
p8777
aaa(lp8778
S'JO'
p8779
a(lp8780
S'uh'
p8781
aaa(lp8782
g8779
a(lp8783
S'flat'
p8784
aaa(lp8785
S'FREDX'
p8786
a(lp8787
aa(lp8788
S'WESSOh'
p8789
a(lp8790
aa(lp8791
S'JOTheyre'
p8792
a(lp8793
S'about'
p8794
aS'this'
p8795
aS'big'
p8796
aS'around'
p8797
aaa(lp8798
g8792
a(lp8799
S'and'
p8800
aS'theyre'
p8801
aS'sorta'
p8802
aS'flat'
p8803
aaa(lp8804
S'WESSTastes'
p8805
a(lp8806
S'like'
p8807
ag52
aS'filled'
p8808
aS'cookie'
p8809
aaa(lp8810
S'JO'
p8811
a(lp8812
S'But'
p8813
aS'theyre'
p8814
aS'very'
p8815
aS'good'
p8816
aaa(lp8817
g8811
a(lp8818
g9
aS'liked'
p8819
aS'em'
p8820
aS'when'
p8821
ag9
aS'was'
p8822
ag52
aS'little'
p8823
aS'kid'
p8824
aaa(lp8825
S'FREDMhm'
p8826
a(lp8827
aa(lp8828
S'WESSMm'
p8829
a(lp8830
aa(lp8831
S'JO'
p8832
a(lp8833
g9
aS'made'
p8834
aS'em'
p8835
aS'one'
p8836
aS'year'
p8837
aaa(lp8838
S'WESSFOOD'
p8839
a(lp8840
S'It'
p8841
aS'tastes'
p8842
aS'like'
p8843
aS'FOOD'
p8844
aaa(lp8845
S'JOnobody'
p8846
a(lp8847
S'ate'
p8848
aS'em'
p8849
aaa(lp8850
g8846
a(lp8851
S'so'
p8852
ag9
aS'didnt'
p8853
ag60
aS'make'
p8854
aS'em'
p8855
aS'again'
p8856
ag60
aaa(lp8857
S'CAM'
p8858
a(lp8859
aa(lp8860
S'JO'
p8861
a(lp8862
S'but'
p8863
aS'theyre'
p8864
aS'Bohemians'
p8865
aaa(lp8866
S'WESSFOOD'
p8867
a(lp8868
S'This'
p8869
aS'tastes'
p8870
aaa(lp8871
g8867
a(lp8872
S'like'
p8873
aS'Marve'
p8874
aS'Nortons'
p8875
aS'mothers'
p8876
aS'filled'
p8877
aS'cookies'
p8878
aS'FOOD'
p8879
aaa(lp8880
S'JO'
p8881
a(lp8882
S'Hmm'
p8883
aaa(lp8884
g8881
a(lp8885
S'Oh'
p8886
aaa(lp8887
g8881
a(lp8888
S'thats'
p8889
aS'all'
p8890
aS'Ive'
p8891
aS'heard'
p8892
aS'about'
p8893
aS'is'
p8894
aaa(lp8895
g8881
a(lp8896
S'Marve'
p8897
aS'Nortons'
p8898
aaa(lp8899
g8881
a(lp8900
S'mothers'
p8901
aS'filled'
p8902
aS'XX'
p8903
aaa(lp8904
S'CAMFilled'
p8905
a(lp8906
S'cookies'
p8907
aaa(lp8908
g8905
a(lp8909
S'Why'
p8910
aS'are'
p8911
aS'they'
p8912
aS'filled'
p8913
aaa(lp8914
S'JO'
p8915
a(lp8916
aa(lp8917
S'WESSI'
p8918
a(lp8919
S'used'
p8920
aS'to'
p8921
aS'go'
p8922
aS'play'
p8923
aS'with'
p8924
aS'him'
p8925
aaa(lp8926
g8918
a(lp8927
S'when'
p8928
ag9
aS'knew'
p8929
aS'she'
p8930
aS'was'
p8931
aS'gonna'
p8932
aS'make'
p8933
aS'em'
p8934
aaa(lp8935
g8918
a(lp8936
S'So'
p8937
aS'wed'
p8938
aS'be'
p8939
aS'out'
p8940
aS'there'
p8941
aaa(lp8942
S'JOWas'
p8943
a(lp8944
S'that'
p8945
aS'the'
p8946
aS'only'
p8947
aS'time'
p8948
aS'you'
p8949
aS'wanted'
p8950
aS'to'
p8951
aS'play'
p8952
aS'with'
p8953
aS'him'
p8954
aaa(lp8955
S'WESS'
p8956
a(lp8957
S'FOOD'
p8958
aS'Id'
p8959
aS'say'
p8960
aS'run'
p8961
aS'in'
p8962
aS'and'
p8963
aS'get'
p8964
aS'some'
p8965
aS'filled'
p8966
aS'cookies'
p8967
aS'FOOD'
p8968
aaa(lp8969
S'CAM'
p8970
a(lp8971
aa(lp8972
S'JO'
p8973
a(lp8974
aa(lp8975
S'WESS'
p8976
a(lp8977
S'And'
p8978
aS'hed'
p8979
aS'run'
p8980
aS'in'
p8981
aS'and'
p8982
aS'get'
p8983
aS'some'
p8984
aS'filled'
p8985
aS'cookies'
p8986
aaa(lp8987
g8976
a(lp8988
S'Mm'
p8989
aaa(lp8990
S'FRED'
p8991
a(lp8992
aa(lp8993
S'WESS'
p8994
a(lp8995
S'FOOD'
p8996
aS'Then'
p8997
aS'when'
p8998
ag9
aS'was'
p8999
aS'in'
p9000
aS'the'
p9001
aS'service'
p9002
aS'she'
p9003
aS'sent'
p9004
aS'me'
p9005
aS'some'
p9006
aS'FOOD'
p9007
aaa(lp9008
g8994
a(lp9009
S'but'
p9010
aS'by'
p9011
aS'the'
p9012
aS'time'
p9013
ag9
aS'got'
p9014
aS'em'
p9015
aaa(lp9016
S'JOShe'
p9017
a(lp9018
S'was'
p9019
ag52
aS'nice'
p9020
aS'lady'
p9021
aaa(lp9022
g9017
a(lp9023
g9
aS'dont'
p9024
aS'know'
p9025
aS'how'
p9026
aS'she'
p9027
aS'ever'
p9028
aS'had'
p9029
aS'Marve'
p9030
aaa(lp9031
g9017
a(lp9032
S'Hes'
p9033
ag52
aS'creep'
p9034
aaa(lp9035
S'WESSHm'
p9036
a(lp9037
aa(lp9038
S'CAM'
p9039
a(lp9040
aa(lp9041
S'JOBut'
p9042
a(lp9043
S'the'
p9044
aS'lady'
p9045
aS'was'
p9046
aS'really'
p9047
aS'nice'
p9048
aaa(lp9049
g9042
a(lp9050
S'She'
p9051
aS'was'
p9052
aS'probably'
p9053
aS'too'
p9054
aS'nice'
p9055
aS'to'
p9056
aS'her'
p9057
aS'kids'
p9058
aaa(lp9059
S'CAM'
p9060
a(lp9061
aa(lp9062
S'WESSLiz'
p9063
a(lp9064
aa(lp9065
S'JOYep'
p9066
a(lp9067
aa(lp9068
g9066
a(lp9069
S'She'
p9070
aS'was'
p9071
aS'really'
p9072
aS'and'
p9073
aaa(lp9074
g9066
a(lp9075
S'she'
p9076
aS'was'
p9077
aS'very'
p9078
aS'sickly'
p9079
aaa(lp9080
g9066
a(lp9081
S'all'
p9082
aS'her'
p9083
aS'life'
p9084
aS'though'
p9085
aaa(lp9086
S'WESS'
p9087
a(lp9088
S'Mm'
p9089
aaa(lp9090
S'JOShe'
p9091
a(lp9092
S'was'
p9093
ag52
aS'little'
p9094
aS'tiny'
p9095
aS'thing'
p9096
aaa(lp9097
g9091
a(lp9098
S'and'
p9099
aS'real'
p9100
aS'thin'
p9101
aaa(lp9102
S'WESSAnd'
p9103
a(lp9104
S'she'
p9105
aS'always'
p9106
aS'had'
p9107
ag52
aS'cold'
p9108
aaa(lp9109
S'JOthin'
p9110
a(lp9111
S'and'
p9112
aS'frail'
p9113
aaa(lp9114
g9110
a(lp9115
S'But'
p9116
aS'she'
p9117
aS'was'
p9118
aS'always'
p9119
aS'nice'
p9120
aaa(lp9121
g9110
a(lp9122
S'So'
p9123
aS'nice'
p9124
aaa(lp9125
g9110
a(lp9126
S'But'
p9127
aS'she'
p9128
aS'had'
p9129
aS'Marve'
p9130
aaa(lp9131
g9110
a(lp9132
S'and'
p9133
aS'then'
p9134
aaa(lp9135
g9110
a(lp9136
S'twelve'
p9137
aS'years'
p9138
aS'after'
p9139
aS'Marve'
p9140
aS'was'
p9141
aS'born'
p9142
aaa(lp9143
g9110
a(lp9144
S'she'
p9145
aS'had'
p9146
aS'another'
p9147
aaa(lp9148
g9110
a(lp9149
S'and'
p9150
aS'then'
p9151
aaa(lp9152
S'WESSTwo'
p9153
a(lp9154
S'more'
p9155
aaa(lp9156
S'JO'
p9157
a(lp9158
S'Eh'
p9159
aaa(lp9160
g9157
a(lp9161
S'then'
p9162
aaa(lp9163
g9157
a(lp9164
S'two'
p9165
aS'years'
p9166
aS'after'
p9167
aS'that'
p9168
aS'she'
p9169
aS'had'
p9170
aS'another'
p9171
aS'one'
p9172
aaa(lp9173
g9157
a(lp9174
S'And'
p9175
aS'that'
p9176
aS'just'
p9177
aS'about'
p9178
aS'killed'
p9179
aS'her'
p9180
aaa(lp9181
S'WESS'
p9182
a(lp9183
aa(lp9184
S'JO'
p9185
a(lp9186
S'She'
p9187
aS'was'
p9188
aS'dead'
p9189
aS'right'
p9190
aS'after'
p9191
aS'we'
p9192
aS'were'
p9193
aS'married'
p9194
aaa(lp9195
g9185
a(lp9196
S'About'
p9197
ag52
aS'year'
p9198
aS'after'
p9199
aaa(lp9200
S'CAMHow'
p9201
a(lp9202
S'old'
p9203
aS'was'
p9204
aS'she'
p9205
aaa(lp9206
S'WESS'
p9207
a(lp9208
S'Mhm'
p9209
aaa(lp9210
S'JOShe'
p9211
a(lp9212
S'wasnt'
p9213
aS'very'
p9214
aS'old'
p9215
aaa(lp9216
g9211
a(lp9217
S'maybe'
p9218
aaa(lp9219
g9211
a(lp9220
S'fiftyfive'
p9221
aaa(lp9222
g9211
a(lp9223
g7883
aS'Fiftysix'
p9224
ag7883
aaa(lp9225
S'WESS'
p9226
a(lp9227
g943
aS'Oscar'
p9228
aaa(lp9229
g9226
a(lp9230
S'Marves'
p9231
aS'dad'
p9232
aaa(lp9233
g9226
a(lp9234
S'he'
p9235
aS'was'
p9236
aaa(lp9237
g9226
a(lp9238
S'VOX'
p9239
aS'rough'
p9240
aS'and'
p9241
aaa(lp9242
g9226
a(lp9243
S'you'
p9244
aS'know'
p9245
aS'VOX'
p9246
aaa(lp9247
g9226
a(lp9248
S'We'
p9249
aS'were'
p9250
aaa(lp9251
g9226
a(lp9252
S'We'
p9253
aS'went'
p9254
aaa(lp9255
g9226
a(lp9256
S'One'
p9257
aS'day'
p9258
aaa(lp9259
g9226
a(lp9260
S'we'
p9261
aS'used'
p9262
aS'to'
p9263
aS'go'
p9264
aS'out'
p9265
aS'in'
p9266
aS'back'
p9267
aS'of'
p9268
aS'my'
p9269
aS'dads'
p9270
aS'barn'
p9271
aaa(lp9272
g9226
a(lp9273
S'and'
p9274
aS'talk'
p9275
aS'to'
p9276
aS'Mister'
p9277
aS'Heschberger'
p9278
aS'and'
p9279
aS'Oscar'
p9280
aaa(lp9281
g9226
a(lp9282
g9
aS'got'
p9283
aS'home'
p9284
aS'from'
p9285
aS'the'
p9286
aS'war'
p9287
aS'and'
p9288
aaa(lp9289
g9226
a(lp9290
S'were'
p9291
aS'out'
p9292
aS'there'
p9293
aS'talking'
p9294
aaa(lp9295
g9226
a(lp9296
S'and'
p9297
aS'Oscar'
p9298
aS'says'
p9299
aaa(lp9300
g9226
a(lp9301
S'come'
p9302
aS'on'
p9303
aaa(lp9304
g9226
a(lp9305
S'well'
p9306
aS'go'
p9307
aS'up'
p9308
aS'to'
p9309
aS'Schultzs'
p9310
aaa(lp9311
g9226
a(lp9312
S'Ill'
p9313
aS'buy'
p9314
aS'one'
p9315
aaa(lp9316
g9226
a(lp9317
S'And'
p9318
aS'were'
p9319
aS'sitting'
p9320
aS'up'
p9321
aS'to'
p9322
aS'Schultzs'
p9323
aaa(lp9324
g9226
a(lp9325
S'at'
p9326
aS'this'
p9327
aS'end'
p9328
aS'of'
p9329
aS'the'
p9330
aS'bar'
p9331
aaa(lp9332
g9226
a(lp9333
S'and'
p9334
aS'there'
p9335
aS'was'
p9336
ag52
aS'guy'
p9337
aS'on'
p9338
aS'the'
p9339
aS'other'
p9340
aS'end'
p9341
aS'of'
p9342
aS'the'
p9343
aS'bar'
p9344
aaa(lp9345
g9226
a(lp9346
S'really'
p9347
aS'loud'
p9348
aaa(lp9349
g9226
a(lp9350
S'you'
p9351
aS'know'
p9352
aaa(lp9353
S'CAM'
p9354
a(lp9355
S'Mhm'
p9356
aaa(lp9357
S'WESS'
p9358
a(lp9359
S'So'
p9360
aS'Oscar'
p9361
aS'goes'
p9362
aS'down'
p9363
aS'there'
p9364
aaa(lp9365
g9358
a(lp9366
S'and'
p9367
ag9
aS'was'
p9368
aS'coming'
p9369
aS'back'
p9370
aS'from'
p9371
aS'the'
p9372
aS'john'
p9373
aaa(lp9374
g9358
a(lp9375
S'and'
p9376
aS'Oscar'
p9377
aS'went'
p9378
aS'down'
p9379
aS'to'
p9380
aS'talk'
p9381
aS'to'
p9382
aS'the'
p9383
aS'guy'
p9384
aaa(lp9385
g9358
a(lp9386
S'He'
p9387
aS'says'
p9388
aaa(lp9389
g9358
a(lp9390
S'hey'
p9391
aS'listen'
p9392
aS'you'
p9393
aS'son'
p9394
aS'of'
p9395
ag52
aS'bitch'
p9396
aaa(lp9397
g9358
a(lp9398
g9
aS'brought'
p9399
aS'my'
p9400
aS'friends'
p9401
aS'in'
p9402
aS'here'
p9403
aS'to'
p9404
aS'talk'
p9405
aaa(lp9406
S'CAM'
p9407
a(lp9408
aa(lp9409
S'JO'
p9410
a(lp9411
aa(lp9412
S'WESSAnd'
p9413
a(lp9414
g9
aS'dont'
p9415
aS'want'
p9416
aaa(lp9417
g9413
a(lp9418
S'your'
p9419
aS'loud'
p9420
aS'mouth'
p9421
aaa(lp9422
g9413
a(lp9423
S'overdoing'
p9424
aS'what'
p9425
aS'were'
p9426
aS'talking'
p9427
aS'about'
p9428
aaa(lp9429
g9413
a(lp9430
S'way'
p9431
aS'down'
p9432
aS'there'
p9433
aaa(lp9434
S'JO'
p9435
a(lp9436
aa(lp9437
S'WESSSo'
p9438
a(lp9439
S'shut'
p9440
aS'up'
p9441
aaa(lp9442
S'CAM'
p9443
a(lp9444
aa(lp9445
S'WESSAnd'
p9446
a(lp9447
S'the'
p9448
aS'guy'
p9449
aS'shut'
p9450
aS'up'
p9451
aaa(lp9452
S'JO'
p9453
a(lp9454
aa(lp9455
S'CAM'
p9456
a(lp9457
aa(lp9458
S'FREDHunh'
p9459
a(lp9460
aa(lp9461
S'JO'
p9462
a(lp9463
S'He'
p9464
aS'was'
p9465
aaa(lp9466
S'WESSOscar'
p9467
a(lp9468
aa(lp9469
S'JOhe'
p9470
a(lp9471
S'was'
p9472
ag52
aS'mean'
p9473
aS'old'
p9474
aS'guy'
p9475
aaa(lp9476
S'FRED'
p9477
a(lp9478
aa(lp9479
S'WESSNo'
p9480
a(lp9481
aa(lp9482
g9480
a(lp9483
S'he'
p9484
aS'was'
p9485
aaa(lp9486
S'FRED'
p9487
a(lp9488
aa(lp9489
S'WESShe'
p9490
a(lp9491
S'was'
p9492
aS'built'
p9493
aS'like'
p9494
aS'uh'
p9495
aaa(lp9496
S'JO'
p9497
a(lp9498
S'Well'
p9499
aS'he'
p9500
aS'was'
p9501
aaa(lp9502
S'WESSI'
p9503
a(lp9504
S'guess'
p9505
aS'like'
p9506
aS'Marve'
p9507
aS'is'
p9508
aS'now'
p9509
aaa(lp9510
g9503
a(lp9511
S'but'
p9512
aS'he'
p9513
aS'was'
p9514
aS'real'
p9515
aaa(lp9516
S'JO'
p9517
a(lp9518
S'Yeah'
p9519
aS'he'
p9520
aS'was'
p9521
aaa(lp9522
S'CAMMouthy'
p9523
a(lp9524
aa(lp9525
S'WESSYou'
p9526
a(lp9527
S'know'
p9528
aaa(lp9529
S'JO'
p9530
a(lp9531
S'Well'
p9532
aaa(lp9533
g9530
a(lp9534
S'you'
p9535
aS'know'
p9536
aaa(lp9537
g9530
a(lp9538
S'he'
p9539
aS'wouldnt'
p9540
aS'go'
p9541
aS'to'
p9542
aS'the'
p9543
aS'dentist'
p9544
aaa(lp9545
g9530
a(lp9546
S'He'
p9547
aS'pulled'
p9548
aS'his'
p9549
aS'own'
p9550
aS'teeth'
p9551
aaa(lp9552
S'FRED'
p9553
a(lp9554
aa(lp9555
S'CAM'
p9556
a(lp9557
S'Ew'
p9558
aaa(lp9559
S'JOHe'
p9560
a(lp9561
S'goes'
p9562
aS'out'
p9563
aS'in'
p9564
aS'the'
p9565
aaa(lp9566
g9560
a(lp9567
S'hed'
p9568
aS'go'
p9569
aS'out'
p9570
aS'in'
p9571
aS'the'
p9572
aS'garage'
p9573
aaa(lp9574
g9560
a(lp9575
S'or'
p9576
aS'in'
p9577
aS'the'
p9578
aS'barn'
p9579
aaa(lp9580
g9560
a(lp9581
S'and'
p9582
aS'and'
p9583
aS'uh'
p9584
aaa(lp9585
S'WESSNo'
p9586
a(lp9587
aa(lp9588
g9586
a(lp9589
S'in'
p9590
aS'the'
p9591
aS'garage'
p9592
aaa(lp9593
S'JOIn'
p9594
a(lp9595
S'the'
p9596
aS'garage'
p9597
aaa(lp9598
S'WESSHe'
p9599
a(lp9600
S'had'
p9601
ag52
aaa(lp9602
g9599
a(lp9603
S'They'
p9604
aS'had'
p9605
ag52
aS'cement'
p9606
aS'garage'
p9607
aaa(lp9608
S'JO'
p9609
a(lp9610
S'Hed'
p9611
aS'go'
p9612
aS'out'
p9613
aS'there'
p9614
aS'and'
p9615
aS'pull'
p9616
aS'his'
p9617
aS'teeth'
p9618
aaa(lp9619
S'WESSMade'
p9620
a(lp9621
S'out'
p9622
aS'of'
p9623
aS'blocks'
p9624
aaa(lp9625
g9620
a(lp9626
S'He'
p9627
aS'went'
p9628
aS'out'
p9629
aaa(lp9630
g9620
a(lp9631
S'he'
p9632
aS'asked'
p9633
aS'the'
p9634
aaa(lp9635
S'JOCause'
p9636
a(lp9637
S'they'
p9638
aS'wanted'
p9639
aS'ten'
p9640
aS'dollars'
p9641
aaa(lp9642
S'WESS'
p9643
a(lp9644
S'Called'
p9645
aS'up'
p9646
aS'the'
p9647
ag149
aaa(lp9648
S'JO'
p9649
a(lp9650
S'to'
p9651
aS'pull'
p9652
aS'his'
p9653
aS'tooth'
p9654
aaa(lp9655
S'WESS'
p9656
a(lp9657
S'Yeah'
p9658
aaa(lp9659
g9656
a(lp9660
S'the'
p9661
aS'doctor'
p9662
aS'wanted'
p9663
aS'ten'
p9664
aS'dollars'
p9665
aaa(lp9666
g9656
a(lp9667
S'he'
p9668
aS'says'
p9669
aS'hell'
p9670
aaa(lp9671
g9656
a(lp9672
g9
aS'can'
p9673
aS'pull'
p9674
aS'the'
p9675
aS'son'
p9676
aS'of'
p9677
ag52
aS'bitch'
p9678
aaa(lp9679
S'JO'
p9680
a(lp9681
aa(lp9682
S'WESSHe'
p9683
a(lp9684
S'got'
p9685
aS'up'
p9686
aS'there'
p9687
aaa(lp9688
g9683
a(lp9689
S'and'
p9690
aS'hed'
p9691
aS'pull'
p9692
aS'that'
p9693
aS'thing'
p9694
aS'out'
p9695
aaa(lp9696
S'JO'
p9697
a(lp9698
aa(lp9699
g9697
a(lp9700
S'VOX'
p9701
aS'And'
p9702
aS'it'
p9703
aS'never'
p9704
aS'made'
p9705
aS'him'
p9706
aS'sick'
p9707
aS'VOX'
p9708
aaa(lp9709
S'WESS'
p9710
a(lp9711
S'Mmmm'
p9712
aaa(lp9713
S'JO'
p9714
a(lp9715
S'Can'
p9716
aS'you'
p9717
aS'believe'
p9718
aS'that'
p9719
aaa(lp9720
g9714
a(lp9721
g9
aS'mean'
p9722
aaa(lp9723
S'CAMYeah'
p9724
a(lp9725
S'it'
p9726
aS'wouldnt'
p9727
aS'be'
p9728
aS'me'
p9729
aaa(lp9730
S'JOHI'
p9731
a(lp9732
S'Kah'
p9733
aS'HI'
p9734
aaa(lp9735
S'WESS'
p9736
a(lp9737
S'Boy'
p9738
aS'talk'
p9739
aS'about'
p9740
aS'being'
p9741
aS'tough'
p9742
aaa(lp9743
S'JOFor'
p9744
a(lp9745
S'ten'
p9746
aS'bucks'
p9747
aaa(lp9748
S'CAM'
p9749
a(lp9750
S'Maybe'
p9751
aS'he'
p9752
aS'rinsed'
p9753
aS'with'
p9754
aS'peroxide'
p9755
aS'or'
p9756
aS'something'
p9757
aaa(lp9758
S'FREDYou'
p9759
a(lp9760
S'know'
p9761
aS'when'
p9762
ag9
aS'was'
p9763
ag52
aS'kid'
p9764
aS'my'
p9765
aS'parents'
p9766
aS'used'
p9767
aS'to'
p9768
aS'pull'
p9769
aS'my'
p9770
aS'teeth'
p9771
aaa(lp9772
S'JO'
p9773
a(lp9774
S'Well'
p9775
aS'yeah'
p9776
aS'but'
p9777
aaa(lp9778
S'WESSOh'
p9779
a(lp9780
S'baby'
p9781
aS'teeth'
p9782
aaa(lp9783
S'JOthey'
p9784
a(lp9785
S'were'
p9786
aS'baby'
p9787
aS'teeth'
p9788
aaa(lp9789
S'CAMMRC'
p9790
a(lp9791
S'Oh'
p9792
aS'geez'
p9793
aS'Fred'
p9794
aS'MRC'
p9795
aaa(lp9796
S'JO'
p9797
a(lp9798
aa(lp9799
g9797
a(lp9800
S'Frederick'
p9801
aaa(lp9802
S'WESSYou'
p9803
a(lp9804
S'can'
p9805
aS'pull'
p9806
aS'them'
p9807
aS'yourself'
p9808
aS'with'
p9809
ag52
aS'finger'
p9810
aaa(lp9811
S'JO'
p9812
a(lp9813
aa(lp9814
g9812
a(lp9815
S'VOX'
p9816
aS'Yes'
p9817
aS'VOX'
p9818
aaa(lp9819
g9812
a(lp9820
S'Theyre'
p9821
aS'easy'
p9822
aaa(lp9823
g9812
a(lp9824
S'But'
p9825
aS'not'
p9826
aS'ones'
p9827
aS'that'
p9828
aaa(lp9829
g9812
a(lp9830
S'you'
p9831
aS'know'
p9832
aaa(lp9833
S'CAMX'
p9834
a(lp9835
S'Well'
p9836
ag60
aaa(lp9837
g9834
a(lp9838
S'All'
p9839
aS'little'
p9840
aS'kids'
p9841
aS'pull'
p9842
aS'their'
p9843
aS'own'
p9844
aS'teeth'
p9845
aaa(lp9846
g9834
a(lp9847
g9
aS'always'
p9848
aS'pulled'
p9849
aS'my'
p9850
aS'own'
p9851
aS'teeth'
p9852
aaa(lp9853
S'JO'
p9854
a(lp9855
S'Yeah'
p9856
aaa(lp9857
g9854
a(lp9858
S'cause'
p9859
aS'you'
p9860
aS'wanted'
p9861
aS'the'
p9862
aS'dollar'
p9863
aaa(lp9864
S'CAMOh'
p9865
a(lp9866
g9
aS'dont'
p9867
aS'think'
p9868
aS'it'
p9869
aS'was'
p9870
ag52
aS'dollar'
p9871
aS'to'
p9872
aS'start'
p9873
aS'with'
p9874
aaa(lp9875
S'JO'
p9876
a(lp9877
S'Well'
p9878
aaa(lp9879
S'WESSWhat'
p9880
a(lp9881
S'was'
p9882
aS'it'
p9883
aS'that'
p9884
aaa(lp9885
S'JONot'
p9886
a(lp9887
S'well'
p9888
aS'maybe'
p9889
aS'when'
p9890
aS'not'
p9891
aS'when'
p9892
aS'you'
p9893
aS'started'
p9894
aaa(lp9895
S'WESSThey'
p9896
a(lp9897
S'used'
p9898
aaa(lp9899
g9896
a(lp9900
S'They'
p9901
aS'used'
p9902
aS'to'
p9903
aaa(lp9904
S'JOIt'
p9905
a(lp9906
S'got'
p9907
aS'up'
p9908
aS'there'
p9909
aaa(lp9910
S'CAMI'
p9911
a(lp9912
S'dont'
p9913
aS'remember'
p9914
aaa(lp9915
S'WESSTie'
p9916
a(lp9917
g52
aS'string'
p9918
aS'around'
p9919
aS'your'
p9920
aS'tooth'
p9921
aaa(lp9922
g9916
a(lp9923
S'and'
p9924
aS'then'
p9925
aS'close'
p9926
aS'the'
p9927
aS'door'
p9928
aaa(lp9929
g9916
a(lp9930
S'and'
p9931
aS'it'
p9932
aS'pulled'
p9933
aS'the'
p9934
aS'tooth'
p9935
aaa(lp9936
S'JO'
p9937
a(lp9938
aa(lp9939
S'CAMOh'
p9940
a(lp9941
g9
aaa(lp9942
g9940
a(lp9943
S'think'
p9944
aS'that'
p9945
aS'was'
p9946
aS'just'
p9947
ag52
aS'joke'
p9948
aaa(lp9949
S'JO'
p9950
a(lp9951
S'SM'
p9952
ag9
aS'think'
p9953
aS'so'
p9954
aS'SM'
p9955
aaa(lp9956
S'WESSMm'
p9957
a(lp9958
aa(lp9959
S'JO'
p9960
a(lp9961
S'Yeah'
p9962
ag9
aS'never'
p9963
aS'saw'
p9964
aS'anybody'
p9965
aS'do'
p9966
aS'it'
p9967
aaa(lp9968
S'WESSOld'
p9969
a(lp9970
S'wives'
p9971
aS'tale'
p9972
aaa(lp9973
S'CAM'
p9974
a(lp9975
S'Yeah'
p9976
aaa(lp9977
S'ENV'
p9978
a(lp9979
aa(lp9980
S'JO'
p9981
a(lp9982
S'Aw'
p9983
aS'me'
p9984
aaa(lp9985
S'CAM'
p9986
a(lp9987
S'Your'
p9988
aS'chairs'
p9989
ag52
aS'little'
p9990
aS'squeaky'
p9991
ag60
aS'Jo'
p9992
aS'Lynne'
p9993
ag60
aaa(lp9994
S'JO'
p9995
a(lp9996
aa(lp9997
S'WESSNot'
p9998
a(lp9999
g52
aS'creature'
p10000
aS'was'
p10001
aS'stirring'
p10002
aaa(lp10003
S'JOWell'
p10004
a(lp10005
aa(lp10006
g10004
a(lp10007
S'oil'
p10008
aS'it'
p10009
aaa(lp10010
S'CAM'
p10011
a(lp10012
aa(lp10013
S'JO'
p10014
a(lp10015
S'Its'
p10016
ag52
aS'getting'
p10017
aS'to'
p10018
aS'be'
p10019
aS'old'
p10020
aaa(lp10021
S'FRED'
p10022
a(lp10023
S'You'
p10024
aS'did'
p10025
aS'bring'
p10026
aS'the'
p10027
aS'gifts'
p10028
aaa(lp10029
S'CAM'
p10030
a(lp10031
g9
aS'did'
p10032
aS'bring'
p10033
aS'the'
p10034
aS'gifts'
p10035
aaa(lp10036
S'JO'
p10037
a(lp10038
aa.