(lp0
(lp1
S'MARY'
p2
a(lp3
S'God'
p4
aaa(lp5
g2
a(lp6
S'I'
p7
aS'said'
p8
ag7
aS'wasnt'
p9
aS'gonna'
p10
aS'do'
p11
aS'this'
p12
aS'anymore'
p13
aaa(lp14
g2
a(lp15
S'Stay'
p16
aS'up'
p17
aS'late'
p18
aaa(lp19
g2
a(lp20
S'Kinda'
p21
aS'defeats'
p22
aS'the'
p23
aS'purpose'
p24
aS'of'
p25
aS'getting'
p26
aS'up'
p27
aS'in'
p28
aS'the'
p29
aS'morning'
p30
aaa(lp31
S'ALICE'
p32
a(lp33
g7
aS'know'
p34
aaa(lp35
g32
a(lp36
S'And'
p37
aS'its'
p38
aS'a'
p39
aS'hard'
p40
aS'habit'
p41
aS'to'
p42
aS'break'
p43
aaa(lp44
g32
a(lp45
S'Usually'
p46
ag7
aS'dont'
p47
aaa(lp48
S'MARY'
p49
a(lp50
S'It'
p51
aS'is'
p52
aaa(lp53
S'ALICE'
p54
a(lp55
S's'
p56
aS'Usually'
p57
ag7
aS'dont'
p58
aS'stay'
p59
aS'up'
p60
aS'late'
p61
aaa(lp62
g54
a(lp63
S'But'
p64
aS'its'
p65
aS'like'
p66
aaa(lp67
g54
a(lp68
S'if'
p69
aS'Im'
p70
aS'up'
p71
aS'after'
p72
aS'midnight'
p73
aaa(lp74
g54
a(lp75
S'Its'
p76
aS'just'
p77
aS'like'
p78
aaa(lp79
S'MARY'
p80
a(lp81
aa(lp82
S'ALICE'
p83
a(lp84
S'Hm'
p85
aaa(lp86
g83
a(lp87
S'X'
p88
aS'Yeah'
p89
aS'yeah'
p90
ag88
aaa(lp91
S'MARY'
p92
a(lp93
S'What'
p94
aS'can'
p95
ag7
aS'do'
p96
aS'now'
p97
aaa(lp98
S'ALICE'
p99
a(lp100
aa(lp101
S'MARY'
p102
a(lp103
aa(lp104
S'ALICE'
p105
a(lp106
g7
aS'still'
p107
aS'cant'
p108
aaa(lp109
S'MARY'
p110
a(lp111
aa(lp112
S'ALICE'
p113
a(lp114
S'God'
p115
ag7
aS'still'
p116
aS'cant'
p117
aS'believe'
p118
aS'Tim'
p119
aS'bitching'
p120
aS'around'
p121
aS'and'
p122
aaa(lp123
g113
a(lp124
S'he'
p125
aS'lied'
p126
aS'too'
p127
aaa(lp128
g113
a(lp129
S'He'
p130
aS'said'
p131
aS'that'
p132
aS'he'
p133
aS'talked'
p134
aS'to'
p135
aS'Ron'
p136
aaa(lp137
g113
a(lp138
S'and'
p139
aS'all'
p140
aS'this'
p141
aS'other'
p142
aS'shit'
p143
aaa(lp144
S'MARY'
p145
a(lp146
S'About'
p147
aS'what'
p148
aaa(lp149
S'ALICE'
p150
a(lp151
S'About'
p152
aS'the'
p153
aS'way'
p154
aS'they'
p155
aS'were'
p156
aS'feeling'
p157
aaa(lp158
g150
a(lp159
S'of'
p160
aS'them'
p161
aS'being'
p162
aS'the'
p163
aS'only'
p164
aS'ones'
p165
aS'cleaning'
p166
aS'the'
p167
aS'house'
p168
aaa(lp169
g150
a(lp170
S'and'
p171
aS'all'
p172
aS'this'
p173
aS'other'
p174
aS'shit'
p175
aaa(lp176
g150
a(lp177
g7
aS'mean'
p178
aS'what'
p179
aS'they'
p180
aS'dont'
p181
aS'realize'
p182
aaa(lp183
g150
a(lp184
S'is'
p185
aS'like'
p186
aaa(lp187
g150
a(lp188
S'shit'
p189
aaa(lp190
g150
a(lp191
S'when'
p192
aS'Ron'
p193
aS'gets'
p194
aS'home'
p195
aS'from'
p196
aS'work'
p197
aaa(lp198
g150
a(lp199
g7
aS'wanna'
p200
aS'spend'
p201
aS'time'
p202
aS'with'
p203
aS'Ron'
p204
aaa(lp205
g150
a(lp206
S'because'
p207
aS'Ron'
p208
aaa(lp209
g150
a(lp210
S'usually'
p211
aS'doesnt'
p212
aS'get'
p213
aS'home'
p214
aS'till'
p215
aS'nine'
p216
aS'or'
p217
aS'ten'
p218
aaa(lp219
S'MARY'
p220
a(lp221
S'Yeah'
p222
aaa(lp223
S'ALICE'
p224
a(lp225
S'Unlike'
p226
aS'Tim'
p227
aaa(lp228
g224
a(lp229
S'he'
p230
aS'has'
p231
aS'to'
p232
aS'work'
p233
aaa(lp234
g224
a(lp235
S'for'
p236
aS'every'
p237
aS'little'
p238
aS'dime'
p239
aS'that'
p240
aS'he'
p241
aS'makes'
p242
aaa(lp243
g224
a(lp244
S'You'
p245
aS'know'
p246
aaa(lp247
S'MARY'
p248
a(lp249
S'Yeah'
p250
aaa(lp251
S'ALICE'
p252
a(lp253
S'He'
p254
aS'doesnt'
p255
aS'get'
p256
aS'any'
p257
aS'breaks'
p258
aaa(lp259
S'MARY'
p260
a(lp261
S'Yeah'
p262
aaa(lp263
g260
a(lp264
S'Tim'
p265
aS'is'
p266
aS'on'
p267
aS'salary'
p268
aaa(lp269
g260
a(lp270
S'and'
p271
aS'he'
p272
aS'can'
p273
aS'take'
p274
aS'leave'
p275
aaa(lp276
g260
a(lp277
S'and'
p278
aaa(lp279
S'ALICE'
p280
a(lp281
S'Mhm'
p282
aaa(lp283
g280
a(lp284
S'and'
p285
aS'he'
p286
aS'earns'
p287
aS'leave'
p288
aaa(lp289
S'MARY'
p290
a(lp291
S'hes'
p292
aaa(lp293
S'ALICE'
p294
a(lp295
S'he'
p296
aS'gets'
p297
aS'sick'
p298
aS'leave'
p299
aaa(lp300
g294
a(lp301
S'we'
p302
aS'dont'
p303
aS'get'
p304
aS'shit'
p305
aaa(lp306
S'MARY'
p307
a(lp308
g7
aS'dont'
p309
aS'know'
p310
aaa(lp311
g307
a(lp312
S'It'
p313
aS'is'
p314
aS'really'
p315
aS'hard'
p316
aS'living'
p317
aS'with'
p318
aS'another'
p319
aS'couple'
p320
aaa(lp321
S'ALICE'
p322
a(lp323
g7
aS'mean'
p324
aaa(lp325
g322
a(lp326
S'we'
p327
aaa(lp328
g322
a(lp329
S'If'
p330
aS'we'
p331
aS'set'
p332
aS'our'
p333
aaa(lp334
g322
a(lp335
S'If'
p336
aS'we'
p337
aS'sit'
p338
aS'down'
p339
aS'and'
p340
aS'set'
p341
aS'some'
p342
aS'rules'
p343
aaa(lp344
g322
a(lp345
S'which'
p346
aS'we'
p347
aS'never'
p348
aS'did'
p349
aaa(lp350
g322
a(lp351
S'it'
p352
aS'could'
p353
aS'work'
p354
aaa(lp355
g322
a(lp356
S'You'
p357
aS'know'
p358
aaa(lp359
S'MARY'
p360
a(lp361
S'Mhm'
p362
aaa(lp363
S'ALICE'
p364
a(lp365
S'what'
p366
aS'it'
p367
aS'amounts'
p368
aS'to'
p369
aaa(lp370
g364
a(lp371
S'is'
p372
aS'mutual'
p373
aS'r'
p374
aS'respect'
p375
aaa(lp376
g364
a(lp377
S'and'
p378
aS'l'
p379
aS'like'
p380
aS'Tim'
p381
aS'told'
p382
aS'Ron'
p383
aaa(lp384
g364
a(lp385
S'he'
p386
aS'told'
p387
aS'him'
p388
aaa(lp389
g364
a(lp390
S'he'
p391
aS'goes'
p392
aS'um'
p393
aaa(lp394
g364
a(lp395
S'what'
p396
aS'was'
p397
aS'it'
p398
aS'he'
p399
aS'goes'
p400
aaa(lp401
g364
a(lp402
S'nobody'
p403
aS'fucks'
p404
aS'with'
p405
aS'my'
p406
aS'lifestyle'
p407
aaa(lp408
g364
a(lp409
g7
aS'feel'
p410
aS'the'
p411
aS'exact'
p412
aS'same'
p413
aS'way'
p414
aaa(lp415
g364
a(lp416
S'And'
p417
aS'all'
p418
aS'those'
p419
aS'bitches'
p420
aS'and'
p421
aS'complaints'
p422
aS'that'
p423
aS'he'
p424
aS'has'
p425
aaa(lp426
g364
a(lp427
S'theyre'
p428
aS'about'
p429
aS'my'
p430
aS'lifestyle'
p431
aaa(lp432
S'MARY'
p433
a(lp434
S'Mhm'
p435
aaa(lp436
S'ALICE'
p437
a(lp438
S'And'
p439
aS'he'
p440
aS'doesnt'
p441
aS'realize'
p442
aS'that'
p443
aaa(lp444
S'MARY'
p445
a(lp446
aa(lp447
S'ALICE'
p448
a(lp449
S'And'
p450
aS'thats'
p451
aS'what'
p452
aS'Im'
p453
aS'gonna'
p454
aS'tell'
p455
aS'him'
p456
aaa(lp457
S'MARY'
p458
a(lp459
S'Well'
p460
aaa(lp461
g458
a(lp462
S'you'
p463
aS'know'
p464
aaa(lp465
S'ALICE'
p466
a(lp467
S'And'
p468
aS'the'
p469
aS'only'
p470
aS'way'
p471
aS'its'
p472
aS'gonna'
p473
aS'work'
p474
aaa(lp475
g466
a(lp476
S'is'
p477
aS'if'
p478
aS'we'
p479
aS'have'
p480
aS'respect'
p481
aS'for'
p482
aS'one'
p483
aS'another'
p484
aaa(lp485
S'MARY'
p486
a(lp487
S'Thats'
p488
aS'right'
p489
aaa(lp490
g486
a(lp491
S'Thats'
p492
aS'right'
p493
aaa(lp494
S'ALICE'
p495
a(lp496
S'And'
p497
aS'it'
p498
aS'doesnt'
p499
aS'mean'
p500
aaa(lp501
g495
a(lp502
S'going'
p503
aS'to'
p504
aS'our'
p505
aS'parents'
p506
aaa(lp507
g495
a(lp508
S'and'
p509
aS'complaining'
p510
aS'about'
p511
aS'one'
p512
aS'another'
p513
aaa(lp514
g495
a(lp515
S'Im'
p516
aS'gonna'
p517
aS'tell'
p518
aS'him'
p519
aaa(lp520
g495
a(lp521
S'if'
p522
aS'you'
p523
aS'have'
p524
aS'any'
p525
aS'complaints'
p526
aaa(lp527
g495
a(lp528
S'you'
p529
aS'talk'
p530
aS'to'
p531
aS'the'
p532
aS'person'
p533
aS'that'
p534
aS'you'
p535
aS'have'
p536
aS'the'
p537
aS'complaint'
p538
aS'about'
p539
aaa(lp540
g495
a(lp541
S'Im'
p542
aS'also'
p543
aS'going'
p544
aS'to'
p545
aS'suggest'
p546
aaa(lp547
g495
a(lp548
S'MRC'
p549
aS'weekly'
p550
aS'house'
p551
aS'meetings'
p552
aS'MRC'
p553
aS'to'
p554
aS'discuss'
p555
aS'such'
p556
aS'things'
p557
aaa(lp558
S'MARY'
p559
a(lp560
S'Mhm'
p561
aaa(lp562
g559
a(lp563
S'Oh'
p564
aS'yeah'
p565
aaa(lp566
g559
a(lp567
S'Yeah'
p568
aaa(lp569
g559
a(lp570
S'You'
p571
aS'know'
p572
aS'what'
p573
aS'it'
p574
aS'would'
p575
aS'be'
p576
aaa(lp577
g559
a(lp578
g39
aS'real'
p579
aS'good'
p580
aS'lesson'
p581
aS'for'
p582
aS'them'
p583
aaa(lp584
g559
a(lp585
S'too'
p586
aaa(lp587
g559
a(lp588
S'in'
p589
aS'self'
p590
aS'assertiveness'
p591
aaa(lp592
S'ALICE'
p593
a(lp594
S'Yep'
p595
aaa(lp596
S'MARY'
p597
a(lp598
S'you'
p599
aS'know'
p600
aS'and'
p601
aaa(lp602
g597
a(lp603
S'especially'
p604
aS'the'
p605
aS'way'
p606
aS'um'
p607
aaa(lp608
g597
a(lp609
g7
aS'mean'
p610
aS'Tim'
p611
aS'gets'
p612
aS'in'
p613
aS'himself'
p614
aS'into'
p615
ag39
aaa(lp616
g597
a(lp617
S'uncomfortable'
p618
aS'situation'
p619
aS'or'
p620
aS'whatever'
p621
aaa(lp622
g597
a(lp623
S'and'
p624
aS'his'
p625
aS'first'
p626
aS'reaction'
p627
aS'is'
p628
aS'to'
p629
aS'blow'
p630
aS'up'
p631
aS'about'
p632
aS'it'
p633
aaa(lp634
S'ALICE'
p635
a(lp636
S'Mhm'
p637
aaa(lp638
S'MARY'
p639
a(lp640
S'You'
p641
aS'know'
p642
aaa(lp643
g639
a(lp644
S'cause'
p645
aS'he'
p646
aS'let'
p647
aaa(lp648
g639
a(lp649
S'he'
p650
aS'lets'
p651
aS'it'
p652
aS'pile'
p653
aS'up'
p654
aaa(lp655
S'ALICE'
p656
a(lp657
S'Yep'
p658
aaa(lp659
S'MARY'
p660
a(lp661
S'He'
p662
aS'doesnt'
p663
aS'do'
p664
aS'nothing'
p665
aS'positive'
p666
aS'about'
p667
aS'it'
p668
aaa(lp669
g660
a(lp670
S'and'
p671
aS'then'
p672
aS'he'
p673
aS'just'
p674
aS'blows'
p675
aS'up'
p676
aaa(lp677
S'ALICE'
p678
a(lp679
g88
aS'And'
p680
aS'if'
p681
ag88
aS'something'
p682
aS'bothers'
p683
aS'you'
p684
aaa(lp685
g678
a(lp686
S'you'
p687
aS'go'
p688
aS'and'
p689
aS'you'
p690
aaa(lp691
g678
a(lp692
g7
aS'was'
p693
aaa(lp694
g678
a(lp695
S'like'
p696
aS'last'
p697
aS'year'
p698
aaa(lp699
g678
a(lp700
g7
aS'was'
p701
aS'really'
p702
aS'proud'
p703
aS'of'
p704
aS'myself'
p705
aaa(lp706
g678
a(lp707
S'when'
p708
ag7
aS'was'
p709
aS'asked'
p710
aS'to'
p711
aS'take'
p712
aS'over'
p713
aS'intermediate'
p714
aS'algebra'
p715
aaa(lp716
S'MARY'
p717
a(lp718
S'Unhunh'
p719
aaa(lp720
S'ALICE'
p721
a(lp722
S'And'
p723
aS'teach'
p724
aS'it'
p725
aaa(lp726
S'MARY'
p727
a(lp728
aa(lp729
S'ALICE'
p730
a(lp731
S'And'
p732
ag7
aS'did'
p733
aaa(lp734
S'MARY'
p735
a(lp736
aa(lp737
S'ALICE'
p738
a(lp739
S'And'
p740
ag7
aS'also'
p741
aS'went'
p742
aaa(lp743
S'MARY'
p744
a(lp745
aa(lp746
S'ALICE'
p747
a(lp748
S'and'
p749
ag7
aS'asked'
p750
aS'for'
p751
ag39
aS'raise'
p752
aaa(lp753
g747
a(lp754
S'instead'
p755
aS'of'
p756
aaa(lp757
S'MARY'
p758
a(lp759
aa(lp760
S'ALICE'
p761
a(lp762
S'cause'
p763
aS'instead'
p764
aS'of'
p765
aS'just'
p766
aS'sitting'
p767
aS'in'
p768
aS'the'
p769
aS'class'
p770
aS'and'
p771
aS'getting'
p772
aS'five'
p773
aS'dollars'
p774
aS'an'
p775
aS'hour'
p776
aaa(lp777
g761
a(lp778
g7
aS'was'
p779
aS'now'
p780
aS'gonna'
p781
aS'be'
p782
aS'up'
p783
aS'there'
p784
aS'teaching'
p785
aS'it'
p786
aaa(lp787
S'MARY'
p788
a(lp789
S'Mhm'
p790
aaa(lp791
S'ALICE'
p792
a(lp793
S'and'
p794
aS'instead'
p795
aS'of'
p796
aS'getting'
p797
aS'the'
p798
aS'five'
p799
aS'dollars'
p800
aS'an'
p801
aS'hour'
p802
aaa(lp803
g792
a(lp804
g7
aS'ended'
p805
aS'up'
p806
aS'getting'
p807
aS'fifteen'
p808
aaa(lp809
S'MARY'
p810
a(lp811
S'Really'
p812
aaa(lp813
S'ALICE'
p814
a(lp815
S'But'
p816
ag7
aS'went'
p817
aS'and'
p818
ag7
aS'asked'
p819
aaa(lp820
g814
a(lp821
S'Now'
p822
aS'if'
p823
aS'i'
p824
aaa(lp825
g814
a(lp826
S'You'
p827
aS'know'
p828
aS'if'
p829
aS'you'
p830
aS'put'
p831
ag39
aS'situation'
p832
aS'like'
p833
aS'that'
p834
aS'to'
p835
aS'Tim'
p836
aS'or'
p837
aS'Mandy'
p838
aaa(lp839
g814
a(lp840
S'cause'
p841
aS'not'
p842
aS'because'
p843
aS'theyre'
p844
aS'theyre'
p845
aS'weak'
p846
aS'in'
p847
aS'character'
p848
aS'or'
p849
aS'anything'
p850
aaa(lp851
g814
a(lp852
S'but'
p853
aS'because'
p854
aS'theyre'
p855
aaa(lp856
S'MARY'
p857
a(lp858
S'Theyre'
p859
aS'babies'
p860
aaa(lp861
S'ALICE'
p862
a(lp863
S'Yeah'
p864
aaa(lp865
g862
a(lp866
S'They'
p867
aS'hem'
p868
aS'and'
p869
aS'haw'
p870
aS'around'
p871
aaa(lp872
g862
a(lp873
S'and'
p874
aS'somebody'
p875
aS'else'
p876
aS'would'
p877
aS'have'
p878
aS'to'
p879
aS'talk'
p880
aS'for'
p881
aS'them'
p882
aaa(lp883
g862
a(lp884
S'You'
p885
aS'know'
p886
aaa(lp887
S'MARY'
p888
a(lp889
S'Yeah'
p890
aaa(lp891
S'ALICE'
p892
a(lp893
aa(lp894
S'MARY'
p895
a(lp896
g7
aS'dont'
p897
aS'know'
p898
aaa(lp899
g895
a(lp900
g88
aS'And'
p901
aS'its'
p902
ag88
aaa(lp903
g895
a(lp904
S'Right'
p905
aS'now'
p906
aS'uh'
p907
aaa(lp908
g895
a(lp909
g7
aS'dont'
p910
aS'know'
p911
aS'if'
p912
ag7
aS'should'
p913
aS'mention'
p914
aS'it'
p915
aS'to'
p916
aS'him'
p917
aaa(lp918
g895
a(lp919
S'or'
p920
aS'what'
p921
aaa(lp922
g895
a(lp923
S'but'
p924
aaa(lp925
g895
a(lp926
S'Im'
p927
aS'feeling'
p928
aS'like'
p929
aS'hes'
p930
aS'taking'
p931
aS'me'
p932
aS'for'
p933
aS'granted'
p934
aaa(lp935
S'ALICE'
p936
a(lp937
S'Yep'
p938
aaa(lp939
g936
a(lp940
S'And'
p941
aS'hes'
p942
aS'rolling'
p943
aS'in'
p944
aS'it'
p945
aaa(lp946
g936
a(lp947
S'Mary'
p948
aaa(lp949
g936
a(lp950
S'And'
p951
aS'you'
p952
aS'know'
p953
aS'what'
p954
aS'the'
p955
aS'sad'
p956
aS'thing'
p957
aaa(lp958
g936
a(lp959
S'the'
p960
aS'thing'
p961
aS'that'
p962
aS'really'
p963
aS'scares'
p964
aS'me'
p965
aaa(lp966
g936
a(lp967
S'is'
p968
aS'that'
p969
aS'theyre'
p970
aS'n'
p971
aaa(lp972
g936
a(lp973
S'th'
p974
aS'at'
p975
aS'the'
p976
aS'rate'
p977
aS'theyre'
p978
aS'going'
p979
aaa(lp980
g936
a(lp981
S'and'
p982
aS'with'
p983
aS'all'
p984
aS'the'
p985
aS'breaks'
p986
aS'that'
p987
aS'theyve'
p988
aS'gotten'
p989
aaa(lp990
g936
a(lp991
S'theyre'
p992
aS'never'
p993
aS'gonna'
p994
aS'have'
p995
aS'hard'
p996
aS'times'
p997
aaa(lp998
S'MARY'
p999
a(lp1000
S'Hard'
p1001
aS'times'
p1002
aS'do'
p1003
aS'train'
p1004
aS'you'
p1005
aaa(lp1006
S'ALICE'
p1007
a(lp1008
S'Yep'
p1009
aaa(lp1010
S'MARY'
p1011
a(lp1012
S'They'
p1013
aS'do'
p1014
aaa(lp1015
S'ALICE'
p1016
a(lp1017
S'Like'
p1018
ag7
aS'came'
p1019
aS'over'
p1020
aS'here'
p1021
aS'to'
p1022
aS'work'
p1023
aS'with'
p1024
aS'Danae'
p1025
aaa(lp1026
g1016
a(lp1027
S'which'
p1028
aS'is'
p1029
aS'what'
p1030
aS'Im'
p1031
aS'going'
p1032
aS'to'
p1033
aS'do'
p1034
aaa(lp1035
g1016
a(lp1036
S'Im'
p1037
aS'going'
p1038
aS'to'
p1039
aS'do'
p1040
aS'some'
p1041
aS'translations'
p1042
aS'for'
p1043
aS'her'
p1044
aS'and'
p1045
aS'stuff'
p1046
aaa(lp1047
S'MARY'
p1048
a(lp1049
S'Yeah'
p1050
aaa(lp1051
S'ALICE'
p1052
a(lp1053
S'tonight'
p1054
aaa(lp1055
g1052
a(lp1056
S'And'
p1057
aS'um'
p1058
aaa(lp1059
S'MARY'
p1060
a(lp1061
aa(lp1062
S'ALICE'
p1063
a(lp1064
S'you'
p1065
aS'know'
p1066
aaa(lp1067
g1063
a(lp1068
g7
aS'have'
p1069
aS'to'
p1070
aS'make'
p1071
aS'at'
p1072
aS'least'
p1073
aS'fifty'
p1074
aS'dollars'
p1075
aS'or'
p1076
aS'so'
p1077
aaa(lp1078
S'MARY'
p1079
a(lp1080
aa(lp1081
S'ALICE'
p1082
a(lp1083
S'to'
p1084
aS'make'
p1085
aS'it'
p1086
aS'worth'
p1087
aS'my'
p1088
aS'time'
p1089
aaa(lp1090
g1082
a(lp1091
S'but'
p1092
aS'like'
p1093
aS'tonight'
p1094
aaa(lp1095
g1082
a(lp1096
S'well'
p1097
ag7
aS'called'
p1098
aaa(lp1099
g1082
a(lp1100
S'you'
p1101
aS'know'
p1102
aaa(lp1103
g1082
a(lp1104
S'this'
p1105
aS'thing'
p1106
aS'was'
p1107
aS'going'
p1108
aS'on'
p1109
aS'with'
p1110
aS'Buck'
p1111
aS'and'
p1112
aS'everything'
p1113
aaa(lp1114
g1082
a(lp1115
S'so'
p1116
ag7
aS'called'
p1117
aS'um'
p1118
aaa(lp1119
g1082
a(lp1120
S'Mandys'
p1121
aaa(lp1122
g1082
a(lp1123
S'or'
p1124
aaa(lp1125
g1082
a(lp1126
g7
aS'called'
p1127
aS'our'
p1128
aS'house'
p1129
aaa(lp1130
g1082
a(lp1131
S'and'
p1132
aS'Mandy'
p1133
aS'answered'
p1134
aS'the'
p1135
aS'phone'
p1136
aaa(lp1137
g1082
a(lp1138
S'and'
p1139
ag7
aS'said'
p1140
aS'wheres'
p1141
aaa(lp1142
g1082
a(lp1143
S'you'
p1144
aS'know'
p1145
aS'wheres'
p1146
aaa(lp1147
g1082
a(lp1148
S'where'
p1149
aaa(lp1150
g1082
a(lp1151
S'Is'
p1152
aS'Ron'
p1153
aS'there'
p1154
aaa(lp1155
g1082
a(lp1156
S'And'
p1157
aS'she'
p1158
aS'said'
p1159
aS'no'
p1160
aaa(lp1161
g1082
a(lp1162
S'When'
p1163
aS'we'
p1164
aS'were'
p1165
aS'on'
p1166
aS'our'
p1167
aS'way'
p1168
aS'to'
p1169
aS'Tims'
p1170
aS'game'
p1171
aaa(lp1172
g1082
a(lp1173
S'he'
p1174
aS'was'
p1175
aS'at'
p1176
aS'Town'
p1177
aS'Pump'
p1178
aaa(lp1179
g1082
a(lp1180
S'and'
p1181
aS'he'
p1182
aS'asked'
p1183
aS'what'
p1184
aS'time'
p1185
aS'wed'
p1186
aS'be'
p1187
aS'home'
p1188
aaa(lp1189
g1082
a(lp1190
S'and'
p1191
aS'we'
p1192
aS'said'
p1193
aS'probably'
p1194
aS'about'
p1195
aS'nine'
p1196
aaa(lp1197
g1082
a(lp1198
S'And'
p1199
aS'she'
p1200
aS'said'
p1201
aS'then'
p1202
aS'we'
p1203
aS'went'
p1204
aS'over'
p1205
aS'to'
p1206
aS'your'
p1207
aS'grandmas'
p1208
aaa(lp1209
g1082
a(lp1210
S'but'
p1211
ag88
aS'then'
p1212
ag88
aS'we'
p1213
aS'came'
p1214
aS'back'
p1215
aaa(lp1216
g1082
a(lp1217
S'and'
p1218
aS'he'
p1219
aS'wasnt'
p1220
aS'here'
p1221
aS'yet'
p1222
aaa(lp1223
g1082
a(lp1224
S'So'
p1225
aaa(lp1226
g1082
a(lp1227
g7
aS'called'
p1228
aS'the'
p1229
aS'Town'
p1230
aS'Pump'
p1231
aaa(lp1232
g1082
a(lp1233
S'and'
p1234
aS'asked'
p1235
aS'if'
p1236
aS'he'
p1237
aS'was'
p1238
aS'still'
p1239
aS'in'
p1240
aS'the'
p1241
aS'casino'
p1242
aaa(lp1243
g1082
a(lp1244
S'he'
p1245
aS'was'
p1246
aS'on'
p1247
aS'his'
p1248
aS'way'
p1249
aS'home'
p1250
aaa(lp1251
g1082
a(lp1252
S'And'
p1253
ag7
aS'said'
p1254
aS'tell'
p1255
aaa(lp1256
g1082
a(lp1257
S'So'
p1258
ag7
aS'called'
p1259
aS'Mandy'
p1260
aS'back'
p1261
aaa(lp1262
g1082
a(lp1263
S'and'
p1264
ag7
aS'told'
p1265
aS'her'
p1266
aS'to'
p1267
aaa(lp1268
g1082
a(lp1269
S'have'
p1270
aS'him'
p1271
aS'call'
p1272
aS'me'
p1273
aaa(lp1274
g1082
a(lp1275
S'when'
p1276
aS'he'
p1277
aS'got'
p1278
aS'home'
p1279
aaa(lp1280
g1082
a(lp1281
S'So'
p1282
aaa(lp1283
g1082
a(lp1284
g7
aS'was'
p1285
aS'in'
p1286
aS'the'
p1287
aS'bathtub'
p1288
aS'when'
p1289
aS'he'
p1290
aS'called'
p1291
aaa(lp1292
g1082
a(lp1293
S'and'
p1294
ag7
aS'talked'
p1295
aS'to'
p1296
aS'him'
p1297
aS'for'
p1298
ag39
aS'while'
p1299
aS'and'
p1300
aaa(lp1301
g1082
a(lp1302
S'he'
p1303
aS'went'
p1304
aS'and'
p1305
aaa(lp1306
g1082
a(lp1307
S'he'
p1308
aS'was'
p1309
aS'really'
p1310
aS'down'
p1311
aS'about'
p1312
aS'what'
p1313
aS'what'
p1314
ag7
aS'told'
p1315
aS'him'
p1316
aS'that'
p1317
aS'Tim'
p1318
aS'had'
p1319
aS'said'
p1320
aS'to'
p1321
aS'me'
p1322
aaa(lp1323
g1082
a(lp1324
S'and'
p1325
aS'how'
p1326
ag7
aS'was'
p1327
aS'so'
p1328
aS'upset'
p1329
aaa(lp1330
g1082
a(lp1331
S'He'
p1332
aS'goes'
p1333
aS'Q'
p1334
aS'why'
p1335
aS'didnt'
p1336
aS'you'
p1337
aS'tell'
p1338
aS'him'
p1339
aS'to'
p1340
aS'go'
p1341
aS'and'
p1342
aS'wake'
p1343
aS'me'
p1344
aS'up'
p1345
ag1334
aaa(lp1346
g1082
a(lp1347
g7
aS'said'
p1348
ag7
aS'did'
p1349
aaa(lp1350
g1082
a(lp1351
S'and'
p1352
aS'he'
p1353
aS'wouldnt'
p1354
aS'do'
p1355
aS'it'
p1356
aaa(lp1357
S'MARY'
p1358
a(lp1359
S'Really'
p1360
aaa(lp1361
S'ALICE'
p1362
a(lp1363
S'Mhm'
p1364
aaa(lp1365
g1362
a(lp1366
S'He'
p1367
aS'goes'
p1368
aaa(lp1369
g1362
a(lp1370
S'they'
p1371
aS'w'
p1372
aaa(lp1373
g1362
a(lp1374
S'they'
p1375
aS'were'
p1376
aS'sitting'
p1377
aS'around'
p1378
aS'getting'
p1379
aS'all'
p1380
aS'fucked'
p1381
aS'up'
p1382
aaa(lp1383
g1362
a(lp1384
S'he'
p1385
aS'said'
p1386
aS'but'
p1387
aaa(lp1388
g1362
a(lp1389
S'he'
p1390
aS'said'
p1391
ag7
aS'went'
p1392
aS'right'
p1393
aS'to'
p1394
aS'bed'
p1395
aaa(lp1396
g1362
a(lp1397
S'he'
p1398
aS'said'
p1399
ag7
aS'didnt'
p1400
aS'get'
p1401
aS'done'
p1402
aS'working'
p1403
aS'until'
p1404
aS'after'
p1405
aS'nine'
p1406
aaa(lp1407
S'MARY'
p1408
a(lp1409
S'Oh'
p1410
aaa(lp1411
g1408
a(lp1412
S'man'
p1413
aaa(lp1414
S'ALICE'
p1415
a(lp1416
S'Cause'
p1417
aS'that'
p1418
aS'fivecar'
p1419
aS'pile'
p1420
aS'up'
p1421
aS'they'
p1422
aS'had'
p1423
aS'between'
p1424
aS'Hardin'
p1425
aS'and'
p1426
aS'Crow'
p1427
aaa(lp1428
S'MARY'
p1429
a(lp1430
S'Oh'
p1431
aaa(lp1432
g1429
a(lp1433
S'shit'
p1434
aaa(lp1435
g1429
a(lp1436
S'really'
p1437
aaa(lp1438
g1429
a(lp1439
g7
aS'didnt'
p1440
aS'hear'
p1441
aS'about'
p1442
aS'it'
p1443
aaa(lp1444
S'ALICE'
p1445
a(lp1446
S'Yeah'
p1447
aaa(lp1448
g1445
a(lp1449
S'Ron'
p1450
aS'was'
p1451
aS'singlehandedly'
p1452
aS'there'
p1453
aaa(lp1454
g1445
a(lp1455
S'with'
p1456
aS'one'
p1457
aS'wrecker'
p1458
aaa(lp1459
S'MARY'
p1460
a(lp1461
S'G'
p1462
aS'yeah'
p1463
aaa(lp1464
S'ALICE'
p1465
a(lp1466
aa(lp1467
S'MARY'
p1468
a(lp1469
S'Seems'
p1470
aS'like'
p1471
aS'any'
p1472
aS'time'
p1473
aS'Ive'
p1474
aS'seen'
p1475
ag39
aS'wrecker'
p1476
aS'out'
p1477
aS'here'
p1478
aaa(lp1479
g1468
a(lp1480
S'theres'
p1481
aS'always'
p1482
aS'two'
p1483
aS'guys'
p1484
aS'in'
p1485
aS'there'
p1486
aaa(lp1487
S'ALICE'
p1488
a(lp1489
S'Hmm'
p1490
ag88
aaa(lp1491
g1488
a(lp1492
S'everyone'
p1493
aS'was'
p1494
aS'gone'
p1495
aaa(lp1496
g1488
a(lp1497
S'when'
p1498
aS'the'
p1499
aS'call'
p1500
aS'came'
p1501
aS'in'
p1502
aaa(lp1503
S'MARY'
p1504
a(lp1505
S'Oh'
p1506
aaa(lp1507
S'ALICE'
p1508
a(lp1509
S'And'
p1510
aS'Jays'
p1511
aS'not'
p1512
aS'supposed'
p1513
aS'to'
p1514
aS'go'
p1515
aS'on'
p1516
aS'those'
p1517
aS'anymore'
p1518
aaa(lp1519
g1508
a(lp1520
S'because'
p1521
aS'of'
p1522
aS'his'
p1523
aS'heart'
p1524
aaa(lp1525
g1508
a(lp1526
S'so'
p1527
aS'he'
p1528
aS'had'
p1529
aS'to'
p1530
aS'send'
p1531
aS'Ron'
p1532
aS'by'
p1533
aS'himself'
p1534
aaa(lp1535
g1508
a(lp1536
S'and'
p1537
aS'Ron'
p1538
aS'was'
p1539
aS'slowly'
p1540
aS'pulling'
p1541
aS'everybody'
p1542
aS'out'
p1543
aS'of'
p1544
aS'the'
p1545
aS'ditch'
p1546
aaa(lp1547
S'MARY'
p1548
a(lp1549
S'Did'
p1550
aS'they'
p1551
aS'all'
p1552
aS'hit'
p1553
aS'each'
p1554
aS'other'
p1555
aaa(lp1556
g1548
a(lp1557
S'Or'
p1558
aS'just'
p1559
aaa(lp1560
S'ALICE'
p1561
a(lp1562
S'Kind'
p1563
aS'of'
p1564
aaa(lp1565
g1561
a(lp1566
S'A'
p1567
ag39
aS'semi'
p1568
aS'bumped'
p1569
ag39
aS'car'
p1570
aaa(lp1571
g1561
a(lp1572
S'and'
p1573
aS'then'
p1574
aS'went'
p1575
aS'and'
p1576
aaa(lp1577
g1561
a(lp1578
S'went'
p1579
aS'on'
p1580
aS'two'
p1581
aS'wheels'
p1582
aaa(lp1583
g1561
a(lp1584
S'and'
p1585
aaa(lp1586
g1561
a(lp1587
S'just'
p1588
aS'about'
p1589
aS'lost'
p1590
aS'it'
p1591
aaa(lp1592
g1561
a(lp1593
S'and'
p1594
aS'then'
p1595
aS'got'
p1596
aS'back'
p1597
aS'up'
p1598
aS'on'
p1599
aS'all'
p1600
aS'all'
p1601
aS'its'
p1602
aS'wheels'
p1603
aS'again'
p1604
aaa(lp1605
S'MARY'
p1606
a(lp1607
S'Oh'
p1608
aaa(lp1609
g1606
a(lp1610
S'Did'
p1611
aS'it'
p1612
aS'land'
p1613
aS'in'
p1614
aS'the'
p1615
aS'ditch'
p1616
aaa(lp1617
S'ALICE'
p1618
a(lp1619
S'But'
p1620
aS'it'
p1621
aaa(lp1622
g1618
a(lp1623
S'Kind'
p1624
aS'of'
p1625
aaa(lp1626
g1618
a(lp1627
S'it'
p1628
aS'was'
p1629
aS'able'
p1630
aS'to'
p1631
aS'get'
p1632
aS'out'
p1633
aaa(lp1634
g1618
a(lp1635
S'but'
p1636
aS'all'
p1637
aS'the'
p1638
aS'other'
p1639
aS'cars'
p1640
aS'that'
p1641
aS'were'
p1642
aS'in'
p1643
aS'the'
p1644
aS'direct'
p1645
aS'vicinity'
p1646
aaa(lp1647
g1618
a(lp1648
S'all'
p1649
aS'hit'
p1650
aS'the'
p1651
aS'ditch'
p1652
aaa(lp1653
g1618
a(lp1654
S'And'
p1655
aS'then'
p1656
aaa(lp1657
g1618
a(lp1658
S'there'
p1659
aS'was'
p1660
aS'three'
p1661
aS'cars'
p1662
aS'and'
p1663
aS'the'
p1664
aS'semi'
p1665
aaa(lp1666
g1618
a(lp1667
S'And'
p1668
aS'then'
p1669
aaa(lp1670
g1618
a(lp1671
S'this'
p1672
aS'uh'
p1673
aaa(lp1674
g1618
a(lp1675
S'this'
p1676
aS'guy'
p1677
aS'pulled'
p1678
aS'up'
p1679
aS'and'
p1680
aaa(lp1681
S'MARY'
p1682
a(lp1683
aa(lp1684
S'ALICE'
p1685
a(lp1686
S'he'
p1687
aS'was'
p1688
aS'going'
p1689
aS'to'
p1690
aS'uh'
p1691
aaa(lp1692
g1685
a(lp1693
S'Peggy'
p1694
aaa(lp1695
S'MARY'
p1696
a(lp1697
aa(lp1698
S'ALICE'
p1699
a(lp1700
S'you'
p1701
aS'remember'
p1702
aS'Peggy'
p1703
aS'White'
p1704
aaa(lp1705
S'MARY'
p1706
a(lp1707
S'Yeah'
p1708
aaa(lp1709
S'ALICE'
p1710
a(lp1711
S'Her'
p1712
aS'husband'
p1713
aaa(lp1714
g1710
a(lp1715
S'Gary'
p1716
aS'Bighare'
p1717
aaa(lp1718
S'MARY'
p1719
a(lp1720
S'Mhm'
p1721
aaa(lp1722
S'ALICE'
p1723
a(lp1724
S'Him'
p1725
aS'and'
p1726
aS'her'
p1727
aS'pulled'
p1728
aS'up'
p1729
aaa(lp1730
g1723
a(lp1731
S'and'
p1732
aS'they'
p1733
aS'were'
p1734
aS'in'
p1735
aS'the'
p1736
aS'van'
p1737
aaa(lp1738
g1723
a(lp1739
S'And'
p1740
aS'they'
p1741
aS'stopped'
p1742
aS'to'
p1743
aS'ask'
p1744
aS'Ron'
p1745
aS'what'
p1746
aS'happened'
p1747
aaa(lp1748
g1723
a(lp1749
S'And'
p1750
aS'here'
p1751
aS'another'
p1752
aS'car'
p1753
aS'came'
p1754
aS'and'
p1755
aS'rearended'
p1756
aS'em'
p1757
aaa(lp1758
S'MARY'
p1759
a(lp1760
S'Oh'
p1761
aaa(lp1762
S'ALICE'
p1763
a(lp1764
S'And'
p1765
aS'they'
p1766
aS'ended'
p1767
aS'up'
p1768
aS'having'
p1769
aS'to'
p1770
aS'take'
p1771
aS'um'
p1772
aS'Peggy'
p1773
aS'White'
p1774
aS'by'
p1775
aS'helicopter'
p1776
aS'to'
p1777
aS'Billings'
p1778
aaa(lp1779
S'MARY'
p1780
a(lp1781
S'Man'
p1782
aS'thats'
p1783
aS'pretty'
p1784
aS'bad'
p1785
aaa(lp1786
S'ALICE'
p1787
a(lp1788
g7
aS'know'
p1789
aaa(lp1790
g1787
a(lp1791
S'Darn'
p1792
aaa(lp1793
g1787
a(lp1794
S'this'
p1795
aS'darn'
p1796
aS'dog'
p1797
aS'keeps'
p1798
aS'breathing'
p1799
aaa(lp1800
g1787
a(lp1801
g88
aS'and'
p1802
aS'like'
p1803
ag88
aS'dreaming'
p1804
aaa(lp1805
g1787
a(lp1806
g88
aS'you'
p1807
aS'know'
p1808
ag88
ag7
aS'wonder'
p1809
aS'if'
p1810
aS'we'
p1811
aS'should'
p1812
aS'wake'
p1813
aS'her'
p1814
aS'up'
p1815
aaa(lp1816
S'MARY'
p1817
a(lp1818
S'No'
p1819
aaa(lp1820
g1817
a(lp1821
S'shell'
p1822
aS'get'
p1823
aS'scared'
p1824
aS'and'
p1825
aS'want'
p1826
aS'to'
p1827
aS'go'
p1828
aS'outside'
p1829
aaa(lp1830
g1817
a(lp1831
S'Kinda'
p1832
aS'nervous'
p1833
aaa(lp1834
g1817
a(lp1835
S'you'
p1836
aS'know'
p1837
aaa(lp1838
S'ALICE'
p1839
a(lp1840
S'They'
p1841
aS'say'
p1842
aS'you'
p1843
aS'can'
p1844
aS'really'
p1845
aS'mess'
p1846
aS'up'
p1847
ag39
aS'dog'
p1848
aaa(lp1849
g1839
a(lp1850
S'by'
p1851
aS'waking'
p1852
aS'em'
p1853
aS'up'
p1854
aS'when'
p1855
aS'theyre'
p1856
aS'dreaming'
p1857
aaa(lp1858
S'MARY'
p1859
a(lp1860
S'Really'
p1861
aaa(lp1862
S'ALICE'
p1863
a(lp1864
S'Mhm'
p1865
aaa(lp1866
g1863
a(lp1867
S'Its'
p1868
aS'so'
p1869
aS'cold'
p1870
aS'outside'
p1871
aaa(lp1872
g1863
a(lp1873
S'but'
p1874
aS'yet'
p1875
aS'sometimes'
p1876
aS'she'
p1877
aS'insists'
p1878
aS'on'
p1879
aS'staying'
p1880
aS'out'
p1881
aS'there'
p1882
aaa(lp1883
S'MARY'
p1884
a(lp1885
g7
aS'know'
p1886
aaa(lp1887
g1884
a(lp1888
S'You'
p1889
aS'know'
p1890
aS'what'
p1891
ag7
aS'was'
p1892
aS'thinking'
p1893
aS'of'
p1894
aS'doing'
p1895
aaa(lp1896
S'ALICE'
p1897
a(lp1898
S'Hunh'
p1899
aaa(lp1900
S'MARY'
p1901
a(lp1902
g7
aS'dont'
p1903
aS'know'
p1904
aaa(lp1905
g1901
a(lp1906
S'shes'
p1907
aS'kind'
p1908
aS'of'
p1909
aS'shy'
p1910
aaa(lp1911
g1901
a(lp1912
S'but'
p1913
ag7
aS'was'
p1914
aS'wondering'
p1915
aaa(lp1916
S'ALICE'
p1917
a(lp1918
aa(lp1919
S'MARY'
p1920
a(lp1921
S'what'
p1922
aS'it'
p1923
aS'would'
p1924
aS'be'
p1925
aS'like'
p1926
aS'to'
p1927
aS'train'
p1928
aS'her'
p1929
aaa(lp1930
S'ALICE'
p1931
a(lp1932
aa(lp1933
S'MARY'
p1934
a(lp1935
S'to'
p1936
aS'pull'
p1937
ag39
aS'sled'
p1938
aaa(lp1939
S'ALICE'
p1940
a(lp1941
g7
aS'dont'
p1942
aS'know'
p1943
aS'if'
p1944
aS'shed'
p1945
aS'do'
p1946
aS'it'
p1947
aaa(lp1948
S'MARY'
p1949
a(lp1950
g7
aS'dont'
p1951
aS'know'
p1952
aS'if'
p1953
aS'she'
p1954
aS'would'
p1955
aS'either'
p1956
aaa(lp1957
g1949
a(lp1958
S'Shes'
p1959
aS'kind'
p1960
aS'of'
p1961
aS'timid'
p1962
aaa(lp1963
S'ALICE'
p1964
a(lp1965
S'Mhm'
p1966
aaa(lp1967
g1964
a(lp1968
S'She'
p1969
aS'doesnt'
p1970
aS'trust'
p1971
aS'too'
p1972
aS'many'
p1973
aS'people'
p1974
aS'at'
p1975
aS'all'
p1976
aaa(lp1977
S'MARY'
p1978
a(lp1979
S'Yeah'
p1980
aaa(lp1981
S'ALICE'
p1982
a(lp1983
S'Oh'
p1984
aS'and'
p1985
aS'you'
p1986
aS'know'
p1987
aS'another'
p1988
aS'thing'
p1989
aS'that'
p1990
aS'Tim'
p1991
aS'had'
p1992
aS'the'
p1993
aS'audacity'
p1994
aS'to'
p1995
aS'bitch'
p1996
aS'about'
p1997
aaa(lp1998
S'MARY'
p1999
a(lp2000
S'What'
p2001
aaa(lp2002
S'ALICE'
p2003
a(lp2004
S'He'
p2005
aS'said'
p2006
aS'um'
p2007
aaa(lp2008
g2003
a(lp2009
S'Mandy'
p2010
aS'had'
p2011
aS'to'
p2012
aS'stay'
p2013
aS'up'
p2014
aS'all'
p2015
aS'by'
p2016
aS'herself'
p2017
aS'and'
p2018
aS'decorate'
p2019
aS'the'
p2020
aS'tree'
p2021
aaa(lp2022
g2003
a(lp2023
S'until'
p2024
aS'four'
p2025
aS'in'
p2026
aS'the'
p2027
aS'morning'
p2028
aaa(lp2029
g2003
a(lp2030
S'And'
p2031
ag7
aS'even'
p2032
aS'asked'
p2033
aS'if'
p2034
aS'we'
p2035
aS'could'
p2036
aS'put'
p2037
aS'our'
p2038
aS'ornaments'
p2039
aS'on'
p2040
aS'there'
p2041
aaa(lp2042
g2003
a(lp2043
S'and'
p2044
aS'they'
p2045
aS'told'
p2046
aS'me'
p2047
ag88
aS'that'
p2048
ag88
aS'there'
p2049
aS'wouldnt'
p2050
aS'be'
p2051
aS'enough'
p2052
aS'room'
p2053
aaa(lp2054
S'MARY'
p2055
a(lp2056
S'Really'
p2057
aaa(lp2058
S'ALICE'
p2059
a(lp2060
S'Mhm'
p2061
aaa(lp2062
g2059
a(lp2063
S'Tim'
p2064
aS'said'
p2065
aS'that'
p2066
aaa(lp2067
S'MARY'
p2068
a(lp2069
S'She'
p2070
aS'was'
p2071
aS'probably'
p2072
aS'lonely'
p2073
aS'when'
p2074
aS'she'
p2075
aS'was'
p2076
aS'doing'
p2077
aS'it'
p2078
aaa(lp2079
g2068
a(lp2080
S'you'
p2081
aS'know'
p2082
aS'that'
p2083
aaa(lp2084
g2068
a(lp2085
S'She'
p2086
aS'probably'
p2087
aS'was'
p2088
aaa(lp2089
g2068
a(lp2090
g88
aaa(lp2091
S'ALICE'
p2092
a(lp2093
g7
aS'sat'
p2094
aS'up'
p2095
aS'with'
p2096
aS'her'
p2097
aaa(lp2098
g2092
a(lp2099
S'and'
p2100
ag7
aS'was'
p2101
aS'talking'
p2102
aS'to'
p2103
aS'her'
p2104
aaa(lp2105
g2092
a(lp2106
S'she'
p2107
aS'was'
p2108
aS'doing'
p2109
aS'all'
p2110
aS'the'
p2111
aS'decorating'
p2112
aaa(lp2113
g2092
a(lp2114
g7
aS'mean'
p2115
aaa(lp2116
g2092
a(lp2117
S'what'
p2118
aS'was'
p2119
ag7
aS'gonna'
p2120
aS'do'
p2121
aaa(lp2122
g2092
a(lp2123
S'She'
p2124
ag7
aS'mean'
p2125
aaa(lp2126
g2092
a(lp2127
S'she'
p2128
aS'was'
p2129
aS'just'
p2130
aS'putting'
p2131
aS'up'
p2132
aS'the'
p2133
aS'balls'
p2134
aS'and'
p2135
aS'everything'
p2136
aS'and'
p2137
aaa(lp2138
g2092
a(lp2139
S'shed'
p2140
aS'say'
p2141
ag1334
aS'where'
p2142
aaa(lp2143
g2092
a(lp2144
S'where'
p2145
aS'do'
p2146
aS'you'
p2147
aS'think'
p2148
aS'this'
p2149
aS'should'
p2150
aS'go'
p2151
ag1334
aS'and'
p2152
aaa(lp2153
g2092
a(lp2154
S'so'
p2155
ag7
aS'was'
p2156
aS'sitting'
p2157
aS'there'
p2158
aS'doing'
p2159
aS'my'
p2160
aS'Welfare'
p2161
aS'application'
p2162
aaa(lp2163
g2092
a(lp2164
S'And'
p2165
aS'uh'
p2166
aaa(lp2167
g2092
a(lp2168
S'you'
p2169
aS'know'
p2170
ag7
aS'was'
p2171
aS'just'
p2172
aS'sitting'
p2173
aS'there'
p2174
aS'watching'
p2175
aS'her'
p2176
aaa(lp2177
g2092
a(lp2178
S'telling'
p2179
aS'her'
p2180
aS'where'
p2181
aS'to'
p2182
aS'put'
p2183
aS'everything'
p2184
aS'and'
p2185
aS'what'
p2186
aS'not'
p2187
aaa(lp2188
S'MARY'
p2189
a(lp2190
S'Did'
p2191
aS'you'
p2192
aS'know'
p2193
aS'Nickie'
p2194
aS'wanted'
p2195
aS'her'
p2196
aS'own'
p2197
aS'tree'
p2198
aaa(lp2199
S'ALICE'
p2200
a(lp2201
S'Yes'
p2202
aaa(lp2203
S'MARY'
p2204
a(lp2205
S'And'
p2206
ag7
aS'forgot'
p2207
aS'to'
p2208
aS'bring'
p2209
aS'it'
p2210
aS'in'
p2211
aaa(lp2212
g2204
a(lp2213
S'its'
p2214
aS'outside'
p2215
aaa(lp2216
S'ALICE'
p2217
a(lp2218
S'What'
p2219
aS'are'
p2220
aS'you'
p2221
aS'gonna'
p2222
aS'do'
p2223
aS'with'
p2224
aS'it'
p2225
aaa(lp2226
S'MARY'
p2227
a(lp2228
S'She'
p2229
aS'wants'
p2230
aS'to'
p2231
aS'set'
p2232
aS'it'
p2233
aS'up'
p2234
aS'for'
p2235
aS'her'
p2236
aS'Barbies'
p2237
aaa(lp2238
g2227
a(lp2239
g7
aS'was'
p2240
aS'just'
p2241
aS'gonna'
p2242
aS'use'
p2243
ag39
aS'tin'
p2244
aS'can'
p2245
aS'and'
p2246
aS'put'
p2247
aS'rocks'
p2248
aS'in'
p2249
aS'the'
p2250
aS'bottom'
p2251
aaa(lp2252
S'ALICE'
p2253
a(lp2254
S'Mhm'
p2255
aaa(lp2256
S'MARY'
p2257
a(lp2258
S'And'
p2259
aS'just'
p2260
aS'stick'
p2261
aS'it'
p2262
aS'in'
p2263
aS'there'
p2264
aaa(lp2265
g2257
a(lp2266
S'And'
p2267
aS'you'
p2268
aS'know'
p2269
aS'what'
p2270
ag7
aS'did'
p2271
aaa(lp2272
S'ALICE'
p2273
a(lp2274
S'Hm'
p2275
aaa(lp2276
S'MARY'
p2277
a(lp2278
g7
aS'didnt'
p2279
aS'want'
p2280
aS'to'
p2281
aS'waste'
p2282
ag39
aS'trees'
p2283
aS'life'
p2284
aaa(lp2285
S'ALICE'
p2286
a(lp2287
aa(lp2288
S'MARY'
p2289
a(lp2290
S'so'
p2291
ag7
aS'just'
p2292
aS'cut'
p2293
ag39
aS'branch'
p2294
aS'off'
p2295
aS'one'
p2296
aaa(lp2297
g2289
a(lp2298
S'God'
p2299
aaa(lp2300
g2289
a(lp2301
g88
ag7
aS'fell'
p2302
aS'up'
p2303
aS'there'
p2304
ag88
aaa(lp2305
S'ALICE'
p2306
a(lp2307
S'Whered'
p2308
aS'you'
p2309
aS'go'
p2310
aaa(lp2311
g2306
a(lp2312
S'to'
p2313
aS'get'
p2314
aS'em'
p2315
aaa(lp2316
S'MARY'
p2317
a(lp2318
S'You'
p2319
aS'know'
p2320
aS'where'
p2321
aS'Sarah'
p2322
aS'and'
p2323
aS'Arvela'
p2324
aS'live'
p2325
aaa(lp2326
S'ALICE'
p2327
a(lp2328
S'Mhm'
p2329
aaa(lp2330
S'MARY'
p2331
a(lp2332
S'Just'
p2333
aS'around'
p2334
aS'the'
p2335
aS'corner'
p2336
aaa(lp2337
g2331
a(lp2338
S'Remember'
p2339
aS'that'
p2340
aS'first'
p2341
aS'cattle'
p2342
aS'guard'
p2343
aS'you'
p2344
aS'go'
p2345
aS'over'
p2346
aaa(lp2347
S'ALICE'
p2348
a(lp2349
S'Unhunh'
p2350
aaa(lp2351
S'MARY'
p2352
a(lp2353
g7
aS'didnt'
p2354
aS'even'
p2355
aS'go'
p2356
aS'over'
p2357
aS'that'
p2358
aaa(lp2359
S'ALICE'
p2360
a(lp2361
S'You'
p2362
aS'mean'
p2363
aaa(lp2364
g2360
a(lp2365
S'kinda'
p2366
aS'like'
p2367
aS'by'
p2368
aS'the'
p2369
aaa(lp2370
g2360
a(lp2371
S'by'
p2372
aS'the'
p2373
aS'tunnel'
p2374
aaa(lp2375
S'MARY'
p2376
a(lp2377
S'Right'
p2378
aS'below'
p2379
aS'the'
p2380
aS'tunnel'
p2381
aaa(lp2382
S'ALICE'
p2383
a(lp2384
S'Oh'
p2385
aaa(lp2386
S'MARY'
p2387
a(lp2388
S'And'
p2389
ag7
aS'just'
p2390
aS'walked'
p2391
aS'up'
p2392
aaa(lp2393
g2387
a(lp2394
S'We'
p2395
aS'just'
p2396
aS'walked'
p2397
aS'up'
p2398
aS'around'
p2399
aS'uh'
p2400
aaa(lp2401
g2387
a(lp2402
S'that'
p2403
aS'area'
p2404
aaa(lp2405
g2387
a(lp2406
S'God'
p2407
aS'Alice'
p2408
aS'that'
p2409
aS'was'
p2410
aS'fun'
p2411
aaa(lp2412
S'ALICE'
p2413
a(lp2414
S'Did'
p2415
aS'you'
p2416
aS'get'
p2417
aS'grandma'
p2418
ag39
aS'tree'
p2419
aS'too'
p2420
aaa(lp2421
S'MARY'
p2422
a(lp2423
S'Hunhunh'
p2424
aaa(lp2425
S'ALICE'
p2426
a(lp2427
S'Does'
p2428
aS'she'
p2429
aS'already'
p2430
aS'have'
p2431
aS'one'
p2432
aaa(lp2433
S'MARY'
p2434
a(lp2435
S'Hmm'
p2436
aaa(lp2437
g2434
a(lp2438
S'That'
p2439
aS'pickup'
p2440
aS'could'
p2441
aS'only'
p2442
aS'hold'
p2443
aS'like'
p2444
aS'three'
p2445
aaa(lp2446
S'ALICE'
p2447
a(lp2448
S'Mm'
p2449
aaa(lp2450
g2447
a(lp2451
g7
aS'wonder'
p2452
aS'why'
p2453
aaa(lp2454
g2447
a(lp2455
S'Did'
p2456
aS'daddy'
p2457
aS'say'
p2458
aS'to'
p2459
aS'take'
p2460
aS'the'
p2461
aS'pickup'
p2462
aS'back'
p2463
aaa(lp2464
g2447
a(lp2465
S'Or'
p2466
aS'what'
p2467
aS'was'
p2468
aS'the'
p2469
aS'deal'
p2470
aaa(lp2471
S'MARY'
p2472
a(lp2473
S'Yeah'
p2474
aaa(lp2475
g2472
a(lp2476
S'Yeah'
p2477
aaa(lp2478
S'ALICE'
p2479
a(lp2480
S'Why'
p2481
aaa(lp2482
S'MARY'
p2483
a(lp2484
S'Cause'
p2485
aS'Phoebe'
p2486
aS'needs'
p2487
aS'it'
p2488
aaa(lp2489
S'ALICE'
p2490
a(lp2491
S'Whats'
p2492
aS'wrong'
p2493
aS'with'
p2494
aS'the'
p2495
aS'car'
p2496
aaa(lp2497
S'MARY'
p2498
a(lp2499
S'Oh'
p2500
aaa(lp2501
g2498
a(lp2502
S'you'
p2503
aS'didnt'
p2504
aS'hear'
p2505
aS'about'
p2506
aS'it'
p2507
aaa(lp2508
S'ALICE'
p2509
a(lp2510
S'Hunhunh'
p2511
aaa(lp2512
S'MARY'
p2513
a(lp2514
S'Oh'
p2515
aaa(lp2516
g2513
a(lp2517
S'you'
p2518
aS'did'
p2519
aaa(lp2520
g2513
a(lp2521
S'about'
p2522
aS'how'
p2523
aS'the'
p2524
aS'engine'
p2525
aS'was'
p2526
aS'on'
p2527
aS'fire'
p2528
aaa(lp2529
S'ALICE'
p2530
a(lp2531
S'Mhm'
p2532
aaa(lp2533
S'MARY'
p2534
a(lp2535
S'See'
p2536
aS'there'
p2537
aS'was'
p2538
aS'oil'
p2539
aS'spilling'
p2540
aS'out'
p2541
aaa(lp2542
g2534
a(lp2543
S'leaking'
p2544
aS'out'
p2545
aS'from'
p2546
aS'the'
p2547
aS'valve'
p2548
aS'cover'
p2549
aaa(lp2550
S'ALICE'
p2551
a(lp2552
S'Mhm'
p2553
aaa(lp2554
S'MARY'
p2555
a(lp2556
S'The'
p2557
aS'valve'
p2558
aS'cover'
p2559
aS'gasket'
p2560
aS'apparently'
p2561
aS'cracked'
p2562
aS'or'
p2563
aS'whatever'
p2564
aaa(lp2565
g2555
a(lp2566
S'and'
p2567
aS'there'
p2568
aS'was'
p2569
aS'oil'
p2570
aS'coming'
p2571
aS'out'
p2572
aaa(lp2573
g2555
a(lp2574
S'and'
p2575
aS'the'
p2576
aS'oil'
p2577
aS'got'
p2578
aS'hot'
p2579
aaa(lp2580
g2555
a(lp2581
S'and'
p2582
aS'you'
p2583
aS'know'
p2584
aS'how'
p2585
aS'it'
p2586
aS'gets'
p2587
aS'hot'
p2588
aS'and'
p2589
aS'smokes'
p2590
aaa(lp2591
S'ALICE'
p2592
a(lp2593
S'Mhm'
p2594
aaa(lp2595
S'MARY'
p2596
a(lp2597
S'Well'
p2598
aaa(lp2599
g2596
a(lp2600
g7
aS'guess'
p2601
aS'enough'
p2602
aS'came'
p2603
aS'out'
p2604
aaa(lp2605
g2596
a(lp2606
S'because'
p2607
aS'we'
p2608
aS'were'
p2609
aS'losing'
p2610
aS'oil'
p2611
aS'bad'
p2612
aaa(lp2613
g2596
a(lp2614
S'going'
p2615
aS'from'
p2616
aS'Billings'
p2617
aS'to'
p2618
aS'Crow'
p2619
aaa(lp2620
g2596
a(lp2621
S'um'
p2622
aaa(lp2623
g2596
a(lp2624
S'theres'
p2625
ag39
aS'lot'
p2626
aS'of'
p2627
aaa(lp2628
S'ALICE'
p2629
a(lp2630
aa(lp2631
S'MARY'
p2632
a(lp2633
S'smoke'
p2634
aS'coming'
p2635
aS'out'
p2636
aaa(lp2637
g2632
a(lp2638
S'and'
p2639
aS'by'
p2640
aS'the'
p2641
aS'time'
p2642
aS'we'
p2643
aS'got'
p2644
aS'to'
p2645
aS'Hardin'
p2646
aaa(lp2647
g2632
a(lp2648
S'we'
p2649
aS'had'
p2650
aS'to'
p2651
aS'put'
p2652
aS'like'
p2653
aS'uh'
p2654
aaa(lp2655
g2632
a(lp2656
S'three'
p2657
aS'or'
p2658
aS'four'
p2659
aS'quarts'
p2660
aS'in'
p2661
aaa(lp2662
S'ALICE'
p2663
a(lp2664
S'Unhunh'
p2665
aaa(lp2666
S'MARY'
p2667
a(lp2668
S'It'
p2669
aS'was'
p2670
aS'three'
p2671
aaa(lp2672
g2667
a(lp2673
S'by'
p2674
aS'the'
p2675
aS'time'
p2676
aS'we'
p2677
aS'got'
p2678
aS'to'
p2679
aaa(lp2680
S'ALICE'
p2681
a(lp2682
aa(lp2683
S'MARY'
p2684
a(lp2685
S'Crow'
p2686
aaa(lp2687
g2684
a(lp2688
S'it'
p2689
aS'was'
p2690
aaa(lp2691
g2684
a(lp2692
S'it'
p2693
aS'was'
p2694
aS'one'
p2695
aS'quart'
p2696
aS'low'
p2697
aaa(lp2698
g2684
a(lp2699
S'And'
p2700
aS'there'
p2701
aS'was'
p2702
aS'smoke'
p2703
aS'still'
p2704
aS'coming'
p2705
aS'from'
p2706
aS'under'
p2707
aS'the'
p2708
aS'engine'
p2709
aaa(lp2710
g2684
a(lp2711
g7
aS'figure'
p2712
ag1372
aS'if'
p2713
aS'it'
p2714
aS'was'
p2715
aS'losing'
p2716
aS'that'
p2717
aS'much'
p2718
aS'oil'
p2719
aaa(lp2720
g2684
a(lp2721
S'then'
p2722
ag88
aS'it'
p2723
ag88
aS'caught'
p2724
aS'fire'
p2725
aaa(lp2726
S'ALICE'
p2727
a(lp2728
S'Mhm'
p2729
aaa(lp2730
S'MARY'
p2731
a(lp2732
S'Cause'
p2733
aS'the'
p2734
aS'engine'
p2735
aS'was'
p2736
aS'hot'
p2737
aaa(lp2738
g2731
a(lp2739
S'cause'
p2740
aS'there'
p2741
aS'wasnt'
p2742
aS'enough'
p2743
aS'water'
p2744
aS'in'
p2745
aS'the'
p2746
aS'radiator'
p2747
aaa(lp2748
S'ALICE'
p2749
a(lp2750
S'Mhm'
p2751
aaa(lp2752
S'MARY'
p2753
a(lp2754
g7
aS'talked'
p2755
aS'to'
p2756
aS'Oscar'
p2757
aS'about'
p2758
aS'it'
p2759
aaa(lp2760
g2753
a(lp2761
S'and'
p2762
aS'he'
p2763
aS'said'
p2764
aaa(lp2765
g2753
a(lp2766
S'well'
p2767
ag7
aS'checked'
p2768
aaa(lp2769
g2753
a(lp2770
S'it'
p2771
aS'was'
p2772
aS'only'
p2773
aaa(lp2774
g2753
a(lp2775
S'it'
p2776
aS'was'
p2777
aS'only'
p2778
aS'about'
p2779
aaa(lp2780
g2753
a(lp2781
S'Id'
p2782
aS'say'
p2783
ag39
aS'half'
p2784
ag39
aS'quart'
p2785
aS'to'
p2786
ag39
aS'quart'
p2787
aS'short'
p2788
aS'of'
p2789
aS'water'
p2790
aaa(lp2791
g2753
a(lp2792
S'But'
p2793
aS'that'
p2794
aS'shouldnt'
p2795
aS'make'
p2796
aS'any'
p2797
aS'difference'
p2798
aaa(lp2799
g2753
a(lp2800
S'He'
p2801
aS'goes'
p2802
aS'the'
p2803
aS'only'
p2804
aS'thing'
p2805
ag7
aS'can'
p2806
aS'think'
p2807
aS'of'
p2808
aaa(lp2809
g2753
a(lp2810
S'is'
p2811
aS'that'
p2812
aS'there'
p2813
aS'was'
p2814
aS'an'
p2815
aS'air'
p2816
aS'lock'
p2817
aS'in'
p2818
aS'there'
p2819
aaa(lp2820
S'ALICE'
p2821
a(lp2822
aa(lp2823
S'MARY'
p2824
a(lp2825
S'And'
p2826
aS'that'
p2827
aS'running'
p2828
aS'the'
p2829
aS'engine'
p2830
aS'out'
p2831
aS'on'
p2832
aS'the'
p2833
aS'open'
p2834
aS'road'
p2835
aaa(lp2836
S'ALICE'
p2837
a(lp2838
S'Mhm'
p2839
aaa(lp2840
S'MARY'
p2841
a(lp2842
S'Caused'
p2843
aS'that'
p2844
aS'air'
p2845
aS'lock'
p2846
aS'to'
p2847
aS'come'
p2848
aS'through'
p2849
aaa(lp2850
g2841
a(lp2851
S'flushed'
p2852
aS'it'
p2853
aS'out'
p2854
aaa(lp2855
S'ALICE'
p2856
a(lp2857
S'And'
p2858
aS'bust'
p2859
aS'the'
p2860
aS'gasket'
p2861
aaa(lp2862
S'MARY'
p2863
a(lp2864
S'No'
p2865
aaa(lp2866
g2863
a(lp2867
S'it'
p2868
aS'would'
p2869
aS'more'
p2870
aS'or'
p2871
aS'less'
p2872
aS'um'
p2873
aaa(lp2874
g2863
a(lp2875
S'the'
p2876
aS'engine'
p2877
aS'wasnt'
p2878
aS'being'
p2879
aS'kept'
p2880
aS'cool'
p2881
aS'enough'
p2882
aaa(lp2883
g2863
a(lp2884
S'Cause'
p2885
aS'there'
p2886
aS'wasnt'
p2887
aS'enough'
p2888
aS'fluid'
p2889
aS'in'
p2890
aS'the'
p2891
aS'radiator'
p2892
aaa(lp2893
S'ALICE'
p2894
a(lp2895
aa(lp2896
g2894
a(lp2897
S'Unhunh'
p2898
aaa(lp2899
S'MARY'
p2900
a(lp2901
S'And'
p2902
aaa(lp2903
g2900
a(lp2904
S'you'
p2905
aS'know'
p2906
aS'how'
p2907
aS'the'
p2908
aS'radiators'
p2909
aaa(lp2910
g2900
a(lp2911
S'the'
p2912
aS'pipes'
p2913
aS'close'
p2914
aS'to'
p2915
aS'other'
p2916
aS'parts'
p2917
aS'of'
p2918
aS'the'
p2919
aS'engine'
p2920
aaa(lp2921
S'ALICE'
p2922
a(lp2923
S'Yeah'
p2924
aaa(lp2925
g2922
a(lp2926
S'So'
p2927
aS'what'
p2928
aaa(lp2929
S'MARY'
p2930
a(lp2931
S'It'
p2932
aS'was'
p2933
aS'some'
p2934
aS'part'
p2935
aS'in'
p2936
aS'there'
p2937
aaa(lp2938
S'ALICE'
p2939
a(lp2940
S'caused'
p2941
aS'the'
p2942
aS'fire'
p2943
aaa(lp2944
S'MARY'
p2945
a(lp2946
S'The'
p2947
aS'engine'
p2948
aS'being'
p2949
aS'too'
p2950
aS'hot'
p2951
aaa(lp2952
g2945
a(lp2953
S'and'
p2954
aS'the'
p2955
aS'oil'
p2956
aS'leaking'
p2957
aaa(lp2958
S'ALICE'
p2959
a(lp2960
S'So'
p2961
aS'he'
p2962
aS'knew'
p2963
aS'that'
p2964
aS'the'
p2965
aS'oil'
p2966
aS'was'
p2967
aS'leaking'
p2968
aaa(lp2969
S'MARY'
p2970
a(lp2971
S'No'
p2972
aaa(lp2973
g2970
a(lp2974
S'we'
p2975
aS'knew'
p2976
aS'we'
p2977
aS'were'
p2978
aS'losing'
p2979
aS'oil'
p2980
aaa(lp2981
g2970
a(lp2982
S'but'
p2983
aS'we'
p2984
aS'didnt'
p2985
aS'know'
p2986
aS'where'
p2987
aaa(lp2988
g2970
a(lp2989
g7
aS'just'
p2990
aS'figured'
p2991
aS'it'
p2992
aS'was'
p2993
aS'from'
p2994
aS'that'
p2995
aS'valve'
p2996
aS'cover'
p2997
aS'gasket'
p2998
aaa(lp2999
g2970
a(lp3000
S'Just'
p3001
aS'from'
p3002
aS'lifting'
p3003
aS'up'
p3004
aS'the'
p3005
aS'hood'
p3006
aS'and'
p3007
aS'looking'
p3008
aS'at'
p3009
aS'it'
p3010
aaa(lp3011
S'ALICE'
p3012
a(lp3013
S'So'
p3014
aS'whats'
p3015
aS'he'
p3016
aS'gonna'
p3017
aS'do'
p3018
aaa(lp3019
S'MARY'
p3020
a(lp3021
S'Well'
p3022
aaa(lp3023
g3020
a(lp3024
S'and'
p3025
aS'two'
p3026
aS'of'
p3027
aS'his'
p3028
aS'wires'
p3029
aaa(lp3030
g3020
a(lp3031
S'the'
p3032
aS'sparkplug'
p3033
aS'wires'
p3034
aaa(lp3035
S'ALICE'
p3036
a(lp3037
S'Unhunh'
p3038
aaa(lp3039
S'MARY'
p3040
a(lp3041
S'were'
p3042
aS'fried'
p3043
aS'all'
p3044
aS'the'
p3045
aS'way'
p3046
aS'through'
p3047
aaa(lp3048
S'ALICE'
p3049
a(lp3050
S'Unhunh'
p3051
aaa(lp3052
S'MARY'
p3053
a(lp3054
S'So'
p3055
aS'we'
p3056
aS'took'
p3057
aS'those'
p3058
aS'off'
p3059
aS'and'
p3060
aS'we'
p3061
aaa(lp3062
g3053
a(lp3063
S'replaced'
p3064
aS'them'
p3065
aS'with'
p3066
aS'some'
p3067
aS'old'
p3068
aS'ones'
p3069
aS'out'
p3070
aS'of'
p3071
aS'the'
p3072
aS'garage'
p3073
aaa(lp3074
S'ALICE'
p3075
a(lp3076
g7
aS'knew'
p3077
aS'that'
p3078
aaa(lp3079
S'MARY'
p3080
a(lp3081
S'And'
p3082
aS'it'
p3083
aS'runs'
p3084
aaa(lp3085
g3080
a(lp3086
S'It'
p3087
aS'runs'
p3088
aaa(lp3089
g3080
a(lp3090
S'Theres'
p3091
aS'enough'
p3092
aS'uh'
p3093
aaa(lp3094
g3080
a(lp3095
S'radiator'
p3096
aS'fluid'
p3097
aS'in'
p3098
aS'there'
p3099
aaa(lp3100
S'ALICE'
p3101
a(lp3102
S'Mhm'
p3103
aaa(lp3104
S'MARY'
p3105
a(lp3106
S'so'
p3107
aS'that'
p3108
aS'it'
p3109
aS'will'
p3110
aaa(lp3111
g3105
a(lp3112
S'Its'
p3113
aS'its'
p3114
aS'enough'
p3115
aaa(lp3116
S'ALICE'
p3117
a(lp3118
S'Mhm'
p3119
aaa(lp3120
S'MARY'
p3121
a(lp3122
S'But'
p3123
ag7
aS'think'
p3124
aS'running'
p3125
aS'it'
p3126
aS'out'
p3127
aS'on'
p3128
aS'the'
p3129
aS'open'
p3130
aS'road'
p3131
aaa(lp3132
g3121
a(lp3133
S'will'
p3134
aS'cause'
p3135
aS'it'
p3136
aS'possibly'
p3137
aS'to'
p3138
aS'shoot'
p3139
aS'more'
p3140
aS'oil'
p3141
aS'out'
p3142
aaa(lp3143
S'ALICE'
p3144
a(lp3145
S'Mhm'
p3146
aaa(lp3147
S'MARY'
p3148
a(lp3149
S'That'
p3150
aS'valve'
p3151
aS'cover'
p3152
aS'gasket'
p3153
aS'has'
p3154
aS'to'
p3155
aS'be'
p3156
aS'replaced'
p3157
aaa(lp3158
S'ALICE'
p3159
a(lp3160
S'Hm'
p3161
aaa(lp3162
S'MARY'
p3163
a(lp3164
g7
aS'dont'
p3165
aS'know'
p3166
aaa(lp3167
g3163
a(lp3168
S'Oh'
p3169
ag7
aS'freaked'
p3170
aS'Cookie'
p3171
aS'and'
p3172
aaa(lp3173
g3163
a(lp3174
S'Rita'
p3175
aS'and'
p3176
aaa(lp3177
g3163
a(lp3178
S'Gary'
p3179
aS'out'
p3180
aS'tonight'
p3181
aaa(lp3182
g3163
a(lp3183
S'Remember'
p3184
aS'the'
p3185
aS'Plain'
p3186
aS'Plainfeather'
p3187
aS'uh'
p3188
aS'Claypit'
p3189
aaa(lp3190
g3163
a(lp3191
S'where'
p3192
aS'that'
p3193
aS'red'
p3194
aS'clay'
p3195
aS'is'
p3196
aaa(lp3197
S'ALICE'
p3198
a(lp3199
S'Mhm'
p3200
aaa(lp3201
S'MARY'
p3202
a(lp3203
S'Right'
p3204
aS'there'
p3205
aaa(lp3206
g3202
a(lp3207
g7
aS'saw'
p3208
aS'my'
p3209
aS'my'
p3210
aS'speedometer'
p3211
aS'just'
p3212
aS'go'
p3213
aS'Brr'
p3214
aaa(lp3215
g3202
a(lp3216
S'like'
p3217
aS'that'
p3218
aS'just'
p3219
aS'down'
p3220
aaa(lp3221
g3202
a(lp3222
S'You'
p3223
aS'know'
p3224
aaa(lp3225
g3202
a(lp3226
S'and'
p3227
ag7
aS'knew'
p3228
aS'exactly'
p3229
aS'what'
p3230
aS'it'
p3231
aS'was'
p3232
aaa(lp3233
g3202
a(lp3234
S'What'
p3235
ag7
aS'have'
p3236
aS'to'
p3237
aS'do'
p3238
aaa(lp3239
g3202
a(lp3240
S'is'
p3241
aS'take'
p3242
aS'off'
p3243
aS'the'
p3244
aS'distributor'
p3245
aS'wire'
p3246
aaa(lp3247
g3202
a(lp3248
S'and'
p3249
aS'splice'
p3250
aS'it'
p3251
aS'in'
p3252
aS'with'
p3253
aS'the'
p3254
aS'fuel'
p3255
aS'pump'
p3256
aS'wire'
p3257
aaa(lp3258
S'ALICE'
p3259
a(lp3260
S'Mhm'
p3261
aaa(lp3262
S'MARY'
p3263
a(lp3264
S'Because'
p3265
aS'my'
p3266
aS'fuel'
p3267
aS'pump'
p3268
aS'is'
p3269
aS'now'
p3270
aS'electric'
p3271
aaa(lp3272
g3263
a(lp3273
S'Never'
p3274
aS'used'
p3275
aS'to'
p3276
aS'be'
p3277
aaa(lp3278
S'ALICE'
p3279
a(lp3280
S'Mhm'
p3281
aaa(lp3282
S'MARY'
p3283
a(lp3284
S'Hand'
p3285
aS'me'
p3286
aS'that'
p3287
aS'ashtray'
p3288
aaa(lp3289
g3283
a(lp3290
S'Or'
p3291
aS'your'
p3292
aS'light'
p3293
aaa(lp3294
g3283
a(lp3295
g7
aS'mean'
p3296
aaa(lp3297
g3283
a(lp3298
S'P'
p3299
aS'Your'
p3300
aS'light'
p3301
ag3299
aaa(lp3302
g3283
a(lp3303
S'Its'
p3304
aS'behind'
p3305
aS'the'
p3306
aS'sewing'
p3307
aS'machine'
p3308
aaa(lp3309
S'ALICE'
p3310
a(lp3311
aa(lp3312
S'MARY'
p3313
a(lp3314
S'And'
p3315
aS'uh'
p3316
aaa(lp3317
g3313
a(lp3318
S'sometimes'
p3319
aS'it'
p3320
aS'gets'
p3321
aS'loose'
p3322
aaa(lp3323
S'ALICE'
p3324
a(lp3325
aa(lp3326
S'MARY'
p3327
a(lp3328
S'And'
p3329
aS'no'
p3330
aS'more'
p3331
aS'HI'
p3332
aS'fuel'
p3333
aS'HI'
p3334
aaa(lp3335
S'ALICE'
p3336
a(lp3337
S'YAWN'
p3338
aS'Unhunh'
p3339
aaa(lp3340
S'MARY'
p3341
a(lp3342
S'So'
p3343
ag7
aS'stopped'
p3344
aS'the'
p3345
aS'car'
p3346
aaa(lp3347
g3341
a(lp3348
S'and'
p3349
aS'they'
p3350
aS'said'
p3351
aS'what'
p3352
aS'are'
p3353
aS'you'
p3354
aS'doing'
p3355
aaa(lp3356
g3341
a(lp3357
g7
aS'said'
p3358
aaa(lp3359
g3341
a(lp3360
g1334
aS'oh'
p3361
aaa(lp3362
g3341
a(lp3363
g7
aS'gotta'
p3364
aS'tighten'
p3365
aS'this'
p3366
aS'wire'
p3367
aS'here'
p3368
ag1334
aaa(lp3369
g3341
a(lp3370
S'So'
p3371
ag7
aS'had'
p3372
aS'Cookie'
p3373
aS'turn'
p3374
aS'on'
p3375
aS'the'
p3376
aS'ignition'
p3377
aS'and'
p3378
aS'turn'
p3379
aS'it'
p3380
aS'off'
p3381
aaa(lp3382
g3341
a(lp3383
S'So'
p3384
aaa(lp3385
g3341
a(lp3386
S'cause'
p3387
aS'see'
p3388
aaa(lp3389
g3341
a(lp3390
S'once'
p3391
aS'you'
p3392
aS'turn'
p3393
aS'that'
p3394
aS'key'
p3395
aS'on'
p3396
aaa(lp3397
g3341
a(lp3398
S'then'
p3399
aS'you'
p3400
aS'hear'
p3401
aS'the'
p3402
aaa(lp3403
g3341
a(lp3404
S'the'
p3405
aS'fuel'
p3406
aS'pump'
p3407
aS'come'
p3408
aS'on'
p3409
aaa(lp3410
S'ALICE'
p3411
a(lp3412
S'Mhm'
p3413
aaa(lp3414
S'MARY'
p3415
a(lp3416
S'And'
p3417
aS'if'
p3418
aS'the'
p3419
aS'wires'
p3420
aS'not'
p3421
aS'connected'
p3422
aS'right'
p3423
aaa(lp3424
g3415
a(lp3425
S'it'
p3426
aS'doesnt'
p3427
aS'come'
p3428
aS'on'
p3429
aaa(lp3430
S'ALICE'
p3431
a(lp3432
S'Mhm'
p3433
aaa(lp3434
S'MARY'
p3435
a(lp3436
S'So'
p3437
ag7
aS'did'
p3438
aS'that'
p3439
aaa(lp3440
g3435
a(lp3441
S'and'
p3442
ag7
aS'lit'
p3443
ag39
aS'match'
p3444
aS'to'
p3445
aS'find'
p3446
aS'out'
p3447
aS'where'
p3448
ag7
aS'was'
p3449
aaa(lp3450
g3435
a(lp3451
S'and'
p3452
aaa(lp3453
g3435
a(lp3454
g971
aS'after'
p3455
aS'everything'
p3456
aS'was'
p3457
aS'hunkydory'
p3458
aaa(lp3459
g3435
a(lp3460
S'then'
p3461
ag7
aaa(lp3462
g3435
a(lp3463
S'shut'
p3464
aS'the'
p3465
aS'hood'
p3466
aaa(lp3467
g3435
a(lp3468
S'and'
p3469
aS'got'
p3470
aS'back'
p3471
aS'in'
p3472
aaa(lp3473
g3435
a(lp3474
S'and'
p3475
ag7
aS'started'
p3476
aS'up'
p3477
aS'the'
p3478
aS'engine'
p3479
aS'and'
p3480
aaa(lp3481
g3435
a(lp3482
S'both'
p3483
aS'Gary'
p3484
aS'and'
p3485
aS'Rita'
p3486
aS'were'
p3487
aS'sitting'
p3488
aS'on'
p3489
aS'the'
p3490
aS'edges'
p3491
aS'of'
p3492
aS'their'
p3493
aS'seat'
p3494
aaa(lp3495
g3435
a(lp3496
S'And'
p3497
ag7
aS'turned'
p3498
aS'around'
p3499
aS'and'
p3500
ag7
aS'looked'
p3501
aaa(lp3502
g3435
a(lp3503
S'and'
p3504
ag7
aS'said'
p3505
aaa(lp3506
g3435
a(lp3507
g1334
aS'did'
p3508
ag7
aS'scare'
p3509
aS'you'
p3510
aS'kids'
p3511
ag1334
aaa(lp3512
g3435
a(lp3513
S'They'
p3514
aS'wouldnt'
p3515
aS'say'
p3516
aS'anything'
p3517
aaa(lp3518
g3435
a(lp3519
S'then'
p3520
aS'Gary'
p3521
aS'goes'
p3522
aaa(lp3523
g3435
a(lp3524
g1334
aS'yeah'
p3525
aaa(lp3526
g3435
a(lp3527
g7
aS'was'
p3528
aS'scared'
p3529
ag1334
aaa(lp3530
S'ALICE'
p3531
a(lp3532
aa(lp3533
S'MARY'
p3534
a(lp3535
aa(lp3536
S'ALICE'
p3537
a(lp3538
aa(lp3539
S'Mary'
p3540
a(lp3541
g88
aS'But'
p3542
ag88
ag7
aS'freaked'
p3543
aS'em'
p3544
aS'out'
p3545
aaa(lp3546
g3540
a(lp3547
g7
aS'dont'
p3548
aS'know'
p3549
aaa(lp3550
g3540
a(lp3551
S'Then'
p3552
aS'daddy'
p3553
aS'said'
p3554
aS'something'
p3555
aS'about'
p3556
aS'the'
p3557
aS'steering'
p3558
aS'column'
p3559
aS'on'
p3560
aS'my'
p3561
aS'car'
p3562
aS'needing'
p3563
aS'_work'
p3564
aaa(lp3565
S'ALICE'
p3566
a(lp3567
S'Mhm'
p3568
aaa(lp3569
S'MARY'
p3570
a(lp3571
S'Said'
p3572
aS'long'
p3573
aS'as'
p3574
ag7
aS'dont'
p3575
aS'drive'
p3576
aS'it'
p3577
aS'fast'
p3578
aaa(lp3579
g3570
a(lp3580
S'it'
p3581
aS'should'
p3582
aS'be'
p3583
aS'alright'
p3584
aaa(lp3585
g3570
a(lp3586
S'But'
p3587
aS'oh'
p3588
aS'man'
p3589
ag7
aS'dont'
p3590
aS'know'
p3591
aaa(lp3592
g3570
a(lp3593
S'See'
p3594
aS'the'
p3595
aS'thing'
p3596
aS'about'
p3597
aS'it'
p3598
aS'is'
p3599
aaa(lp3600
g3570
a(lp3601
S'if'
p3602
ag7
aS'go'
p3603
aS'after'
p3604
aS'Ken'
p3605
aaa(lp3606
g3570
a(lp3607
S'Im'
p3608
aS'not'
p3609
aS'really'
p3610
aS'gonna'
p3611
aS'have'
p3612
aS'any'
p3613
aS'money'
p3614
aaa(lp3615
S'ALICE'
p3616
a(lp3617
S'Mhm'
p3618
aaa(lp3619
S'MARY'
p3620
a(lp3621
S'to'
p3622
aS'um'
p3623
aaa(lp3624
g3620
a(lp3625
S'you'
p3626
aS'know'
p3627
aaa(lp3628
g3620
a(lp3629
S'HI'
p3630
aS'do'
p3631
aS'things'
p3632
aS'HI'
p3633
aaa(lp3634
g3620
a(lp3635
S'pay'
p3636
aS'for'
p3637
aS'everything'
p3638
aaa(lp3639
g3620
a(lp3640
S'but'
p3641
aaa(lp3642
g3620
a(lp3643
g7
aS'dont'
p3644
aS'want'
p3645
aS'to'
p3646
aS'be'
p3647
aS'broke'
p3648
aS'around'
p3649
aS'him'
p3650
aaa(lp3651
S'ALICE'
p3652
a(lp3653
g7
aS'know'
p3654
aaa(lp3655
g3652
a(lp3656
S'that'
p3657
aS'really'
p3658
aS'sucks'
p3659
aaa(lp3660
S'MARY'
p3661
a(lp3662
S'Cause'
p3663
ag7
aS'wanna'
p3664
aS'at'
p3665
aS'least'
p3666
aS'be'
p3667
aS'able'
p3668
aS'to'
p3669
aS'put'
p3670
aS'gas'
p3671
aS'in'
p3672
aS'the'
p3673
aS'car'
p3674
aaa(lp3675
S'ALICE'
p3676
a(lp3677
aa(lp3678
g3676
a(lp3679
S'Mhm'
p3680
aaa(lp3681
S'MARY'
p3682
a(lp3683
S'and'
p3684
aS'go'
p3685
aS'do'
p3686
aS'something'
p3687
aaa(lp3688
S'ALICE'
p3689
a(lp3690
g7
aS'dont'
p3691
aS'think'
p3692
aS'its'
p3693
aS'such'
p3694
ag39
aS'good'
p3695
aS'idea'
p3696
aS'for'
p3697
aS'you'
p3698
aS'to'
p3699
aS'go'
p3700
aS'up'
p3701
aS'there'
p3702
aS'in'
p3703
aS'the'
p3704
aS'winter'
p3705
aaa(lp3706
S'MARY'
p3707
a(lp3708
S'Mm'
p3709
aaa(lp3710
g3707
a(lp3711
S'Ive'
p3712
aS'been'
p3713
aS'thinking'
p3714
aS'about'
p3715
aS'that'
p3716
aaa(lp3717
S'ALICE'
p3718
a(lp3719
S'We'
p3720
aS'should'
p3721
aS'all'
p3722
aS'get'
p3723
aS'some'
p3724
aS'money'
p3725
aS'together'
p3726
aS'and'
p3727
aaa(lp3728
g3718
a(lp3729
S'is'
p3730
aS'there'
p3731
aS'any'
p3732
aS'way'
p3733
aS'he'
p3734
aS'could'
p3735
aS'like'
p3736
aaa(lp3737
S'MARY'
p3738
a(lp3739
aa(lp3740
S'ALICE'
p3741
a(lp3742
S'meet'
p3743
aS'us'
p3744
aS'in'
p3745
aS'Great'
p3746
aS'Falls'
p3747
aS'or'
p3748
aS'something'
p3749
aaa(lp3750
g3741
a(lp3751
S'Cause'
p3752
aS'Id'
p3753
aS'like'
p3754
aS'to'
p3755
aS'go'
p3756
aS'up'
p3757
aS'there'
p3758
aS'and'
p3759
aS'go'
p3760
aS'to'
p3761
aS'the'
p3762
aaa(lp3763
g3741
a(lp3764
S'um'
p3765
aaa(lp3766
g3741
a(lp3767
S'Red'
p3768
aS'Lobster'
p3769
aaa(lp3770
S'MARY'
p3771
a(lp3772
S'Really'
p3773
aaa(lp3774
S'ALICE'
p3775
a(lp3776
S'Yeah'
p3777
aaa(lp3778
g3775
a(lp3779
S'Cause'
p3780
aS'Ive'
p3781
aS'been'
p3782
aS'just'
p3783
aaa(lp3784
g3775
a(lp3785
S'craving'
p3786
aS'seafood'
p3787
aaa(lp3788
S'MARY'
p3789
a(lp3790
S'Thats'
p3791
aS'the'
p3792
aS'halfway'
p3793
aS'point'
p3794
aaa(lp3795
g3789
a(lp3796
S'he'
p3797
aS'could'
p3798
aS'do'
p3799
aS'it'
p3800
aaa(lp3801
S'ALICE'
p3802
a(lp3803
S'Yeah'
p3804
aaa(lp3805
S'MARY'
p3806
a(lp3807
g7
aS'bet'
p3808
aS'he'
p3809
aS'could'
p3810
aS'do'
p3811
aS'it'
p3812
aaa(lp3813
g3806
a(lp3814
S'When'
p3815
aS'though'
p3816
aaa(lp3817
S'ALICE'
p3818
a(lp3819
g7
aS'dont'
p3820
aS'know'
p3821
aaa(lp3822
S'MARY'
p3823
a(lp3824
S'He'
p3825
aS'goes'
p3826
aS'back'
p3827
aS'to'
p3828
aS'school'
p3829
aS'like'
p3830
aS'the'
p3831
aS'second'
p3832
aaa(lp3833
S'ALICE'
p3834
a(lp3835
aa(lp3836
g3834
a(lp3837
S'VOX'
p3838
aS'Oh'
p3839
aaa(lp3840
g3834
a(lp3841
S'shoot'
p3842
aS'VOX'
p3843
aaa(lp3844
g3834
a(lp3845
S'Well'
p3846
aS'isnt'
p3847
aS'there'
p3848
aS'any'
p3849
aS'way'
p3850
aaa(lp3851
g3834
a(lp3852
S'like'
p3853
aS'we'
p3854
aaa(lp3855
g3834
a(lp3856
S'that'
p3857
aS'we'
p3858
aS'could'
p3859
aS'just'
p3860
aS'meet'
p3861
aS'him'
p3862
aS'up'
p3863
aS'there'
p3864
aS'and'
p3865
aaa(lp3866
S'MARY'
p3867
a(lp3868
S'What'
p3869
aaa(lp3870
g3867
a(lp3871
S'bring'
p3872
aS'him'
p3873
aS'down'
p3874
aaa(lp3875
S'ALICE'
p3876
a(lp3877
S'Bring'
p3878
aS'him'
p3879
aS'down'
p3880
aaa(lp3881
g3876
a(lp3882
S'or'
p3883
aaa(lp3884
g3876
a(lp3885
g7
aS'dont'
p3886
aS'wanna'
p3887
aS'take'
p3888
aS'your'
p3889
aS'car'
p3890
aaa(lp3891
S'MARY'
p3892
a(lp3893
aa(lp3894
S'ALICE'
p3895
a(lp3896
g7
aS'was'
p3897
aS'gonna'
p3898
aS'ask'
p3899
aS'you'
p3900
aS'and'
p3901
aS'mom'
p3902
aaa(lp3903
g3895
a(lp3904
S'too'
p3905
aaa(lp3906
g3895
a(lp3907
S'if'
p3908
aS'you'
p3909
aS'could'
p3910
aS'um'
p3911
aaa(lp3912
g3895
a(lp3913
S'take'
p3914
aS'care'
p3915
aS'of'
p3916
aS'Trace'
p3917
aS'for'
p3918
ag39
aS'couple'
p3919
aS'days'
p3920
aS'next'
p3921
aS'week'
p3922
aaa(lp3923
S'MARY'
p3924
a(lp3925
S'Oh'
p3926
aaa(lp3927
g3924
a(lp3928
S'What'
p3929
aS'you'
p3930
aS'got'
p3931
aS'in'
p3932
aS'mind'
p3933
aaa(lp3934
S'ALICE'
p3935
a(lp3936
g7
aS'need'
p3937
aS'to'
p3938
aS'get'
p3939
aS'caught'
p3940
aS'up'
p3941
aS'on'
p3942
aS'my'
p3943
aS'work'
p3944
aaa(lp3945
S'MARY'
p3946
a(lp3947
S'Wednesday'
p3948
ag7
aS'have'
p3949
aS'an'
p3950
aS'appointment'
p3951
aS'at'
p3952
aS'nine'
p3953
aS'thirty'
p3954
aaa(lp3955
S'ALICE'
p3956
a(lp3957
S'Moms'
p3958
aS'off'
p3959
aaa(lp3960
g3956
a(lp3961
S'isnt'
p3962
aS'she'
p3963
aaa(lp3964
S'MARY'
p3965
a(lp3966
S'Oh'
p3967
aaa(lp3968
g3965
a(lp3969
S'thats'
p3970
aS'right'
p3971
aaa(lp3972
g3965
a(lp3973
S'Thats'
p3974
aS'right'
p3975
aaa(lp3976
S'ALICE'
p3977
a(lp3978
S'Yeah'
p3979
ag7
aS'think'
p3980
aS'thatd'
p3981
aaa(lp3982
g3977
a(lp3983
g7
aS'think'
p3984
aS'thatd'
p3985
aS'um'
p3986
aaa(lp3987
g3977
a(lp3988
S'work'
p3989
aS'out'
p3990
aaa(lp3991
g3977
a(lp3992
S'like'
p3993
aS'if'
p3994
aS'she'
p3995
aS'had'
p3996
aS'to'
p3997
aS'go'
p3998
aS'shopping'
p3999
aS'or'
p4000
aS'something'
p4001
aS'maybe'
p4002
aS'you'
p4003
aS'could'
p4004
aS'go'
p4005
aS'with'
p4006
aS'her'
p4007
aaa(lp4008
g3977
a(lp4009
S'and'
p4010
aS'help'
p4011
aS'her'
p4012
aS'with'
p4013
aS'him'
p4014
aaa(lp4015
g3977
a(lp4016
S'And'
p4017
aS'Nicky'
p4018
aS'helps'
p4019
aS'her'
p4020
aS'with'
p4021
aS'him'
p4022
ag39
aS'lot'
p4023
aS'anyway'
p4024
aS'MARY:'
p4025
aS'And'
p4026
aS'then'
p4027
aS'of'
p4028
aS'course'
p4029
aS'he'
p4030
aS'adores'
p4031
aS'me'
p4032
aaa(lp4033
S'ALICE'
p4034
a(lp4035
aa(lp4036
g4034
a(lp4037
S'Mhm'
p4038
aaa(lp4039
S'MARY'
p4040
a(lp4041
g7
aS'remember'
p4042
ag7
aS'was'
p4043
aS'pregnant'
p4044
aS'with'
p4045
aS'Nicky'
p4046
aaa(lp4047
g4040
a(lp4048
S'And'
p4049
aS'uh'
p4050
aaa(lp4051
g4040
a(lp4052
S'Bootss'
p4053
aS'little'
p4054
aS'boy'
p4055
aaa(lp4056
g4040
a(lp4057
S'he'
p4058
aS'really'
p4059
aS'liked'
p4060
aS'me'
p4061
aaa(lp4062
S'ALICE'
p4063
a(lp4064
S'Mhm'
p4065
aaa(lp4066
S'MARY'
p4067
a(lp4068
S'when'
p4069
ag7
aS'was'
p4070
aS'pregnant'
p4071
aS'with'
p4072
aS'her'
p4073
aaa(lp4074
S'ALICE'
p4075
a(lp4076
S'Mhm'
p4077
aaa(lp4078
S'MARY'
p4079
a(lp4080
S'You'
p4081
aS'know'
p4082
aS'how'
p4083
aS'it'
p4084
aS'is'
p4085
aS'when'
p4086
aS'were'
p4087
aS'pregnant'
p4088
aaa(lp4089
g4079
a(lp4090
S'we'
p4091
aS'get'
p4092
aS'real'
p4093
aS'sleepy'
p4094
aaa(lp4095
S'ALICE'
p4096
a(lp4097
S'Mhm'
p4098
aaa(lp4099
S'MARY'
p4100
a(lp4101
S'Id'
p4102
aS'fall'
p4103
aS'asleep'
p4104
aS'on'
p4105
aS'the'
p4106
aS'couch'
p4107
aaa(lp4108
g4100
a(lp4109
S'and'
p4110
aS'hed'
p4111
aS'lay'
p4112
aS'by'
p4113
aS'me'
p4114
aaa(lp4115
S'ALICE'
p4116
a(lp4117
S'Mhm'
p4118
aaa(lp4119
S'MARY'
p4120
a(lp4121
S'And'
p4122
aS'hed'
p4123
aS'fall'
p4124
aS'asleep'
p4125
aS'with'
p4126
aS'me'
p4127
aaa(lp4128
g4120
a(lp4129
S'And'
p4130
ag7
aS'remember'
p4131
aS'he'
p4132
aS'would'
p4133
aaa(lp4134
g4120
a(lp4135
g7
aS'woke'
p4136
aS'up'
p4137
aaa(lp4138
g4120
a(lp4139
S'and'
p4140
aS'here'
p4141
aS'he'
p4142
aS'was'
p4143
aS'gone'
p4144
aaa(lp4145
g4120
a(lp4146
S'his'
p4147
aS'mother'
p4148
aS'carried'
p4149
aS'him'
p4150
aS'in'
p4151
aS'the'
p4152
aS'other'
p4153
aS'room'
p4154
aaa(lp4155
S'ALICE'
p4156
a(lp4157
S'Mhm'
p4158
aaa(lp4159
S'MARY'
p4160
a(lp4161
S'and'
p4162
aS'God'
p4163
aaa(lp4164
g4160
a(lp4165
S'that'
p4166
aS'kind'
p4167
aS'of'
p4168
aS'pissed'
p4169
aS'me'
p4170
aS'off'
p4171
aaa(lp4172
S'ALICE'
p4173
a(lp4174
S'Was'
p4175
aaa(lp4176
g4173
a(lp4177
S'Would'
p4178
aS'um'
p4179
aaa(lp4180
g4173
a(lp4181
S'Was'
p4182
aS'Nicky'
p4183
aS'mad'
p4184
aS'when'
p4185
aS'Trace'
p4186
aS'was'
p4187
ag39
aS'boy'
p4188
aaa(lp4189
S'MARY'
p4190
a(lp4191
S'Kind'
p4192
aS'of'
p4193
aaa(lp4194
g4190
a(lp4195
S'She'
p4196
aS'thinks'
p4197
ag7
aS'should'
p4198
aS'have'
p4199
aS'twins'
p4200
aaa(lp4201
g4190
a(lp4202
S'Twin'
p4203
aS'girls'
p4204
aaa(lp4205
S'ALICE'
p4206
a(lp4207
aa(lp4208
S'MARY'
p4209
a(lp4210
S'But'
p4211
ag7
aS'dont'
p4212
aS'think'
p4213
aS'shell'
p4214
aS'realize'
p4215
aS'the'
p4216
aS'uh'
p4217
aaa(lp4218
g4209
a(lp4219
S'sibling'
p4220
aS'rivalry'
p4221
aaa(lp4222
S'ALICE'
p4223
a(lp4224
aa(lp4225
S'MARY'
p4226
a(lp4227
S'But'
p4228
ag7
aS'dont'
p4229
aS'know'
p4230
aaa(lp4231
g4226
a(lp4232
S'shes'
p4233
aS'six'
p4234
aS'years'
p4235
aS'old'
p4236
aS'now'
p4237
aaa(lp4238
g4226
a(lp4239
S'And'
p4240
aS'they'
p4241
aS'say'
p4242
aS'that'
p4243
aS'if'
p4244
aS'theres'
p4245
aS'six'
p4246
aS'years'
p4247
aS'between'
p4248
aS'children'
p4249
aaa(lp4250
g4226
a(lp4251
S'theres'
p4252
aS'not'
p4253
aS'that'
p4254
aS'much'
p4255
aS'rivalry'
p4256
aaa(lp4257
S'ALICE'
p4258
a(lp4259
S'After'
p4260
aS'four'
p4261
aS'theres'
p4262
aS'almost'
p4263
aS'none'
p4264
aaa(lp4265
S'MARY'
p4266
a(lp4267
S'Really'
p4268
aaa(lp4269
S'ALICE'
p4270
a(lp4271
S'Mhm'
p4272
aaa(lp4273
S'MARY'
p4274
a(lp4275
S'Cause'
p4276
aS'theyre'
p4277
aaa(lp4278
S'ALICE'
p4279
a(lp4280
S'Four'
p4281
aS'is'
p4282
aS'ideal'
p4283
aaa(lp4284
S'MARY'
p4285
a(lp4286
S'theyre'
p4287
aS'kind'
p4288
aS'of'
p4289
aS'in'
p4290
aS'different'
p4291
aS'worlds'
p4292
aaa(lp4293
S'ALICE'
p4294
a(lp4295
S'Yeah'
p4296
aaa(lp4297
g4294
a(lp4298
S'Because'
p4299
aaa(lp4300
g4294
a(lp4301
S'see'
p4302
aaa(lp4303
g4294
a(lp4304
S'Trace'
p4305
aS'will'
p4306
aS'be'
p4307
aaa(lp4308
g4294
a(lp4309
S'the'
p4310
aS'next'
p4311
aS'time'
p4312
ag7
aS'have'
p4313
ag39
aS'baby'
p4314
aaa(lp4315
g4294
a(lp4316
S'Trace'
p4317
aS'will'
p4318
aS'probably'
p4319
aS'be'
p4320
aaa(lp4321
g4294
a(lp4322
S'about'
p4323
aS'three'
p4324
aaa(lp4325
g4294
a(lp4326
S'four'
p4327
aaa(lp4328
S'MARY'
p4329
a(lp4330
S'Hm'
p4331
aaa(lp4332
S'ALICE'
p4333
a(lp4334
S'Thats'
p4335
aS'when'
p4336
aS'Im'
p4337
aS'gonna'
p4338
aS'get'
p4339
aS'this'
p4340
aS'shit'
p4341
aS'taken'
p4342
aS'out'
p4343
aaa(lp4344
S'MARY'
p4345
a(lp4346
aa(lp4347
S'ALICE'
p4348
a(lp4349
S'Tammy'
p4350
aS'Kashen'
p4351
aS'has'
p4352
aS'one'
p4353
aS'of'
p4354
aS'these'
p4355
aS'too'
p4356
aaa(lp4357
S'MARY'
p4358
a(lp4359
S'What'
p4360
aS'is'
p4361
aS'it'
p4362
aaa(lp4363
S'ALICE'
p4364
a(lp4365
S'Norplant'
p4366
aaa(lp4367
S'MARY'
p4368
a(lp4369
S'Oh'
p4370
aS'really'
p4371
aaa(lp4372
S'ALICE'
p4373
a(lp4374
S'Deon'
p4375
aS'told'
p4376
aS'me'
p4377
aaa(lp4378
g4373
a(lp4379
S'Cause'
p4380
ag7
aS'asked'
p4381
aS'him'
p4382
aS'what'
p4383
aS'his'
p4384
aS'intentions'
p4385
aS'were'
p4386
aS'with'
p4387
aS'her'
p4388
aaa(lp4389
g4373
a(lp4390
S'Cause'
p4391
ag7
aS'told'
p4392
aS'him'
p4393
ag7
aS'thought'
p4394
aS'he'
p4395
aS'was'
p4396
aS'too'
p4397
aS'young'
p4398
aS'to'
p4399
aS'be'
p4400
aS'so'
p4401
aS'involved'
p4402
aaa(lp4403
S'MARY'
p4404
a(lp4405
S'Gwen'
p4406
aS'was'
p4407
aS'telling'
p4408
aS'me'
p4409
aS'that'
p4410
aaa(lp4411
g4404
a(lp4412
S'Did'
p4413
aS'she'
p4414
aS'talk'
p4415
aS'to'
p4416
aS'you'
p4417
aS'lately'
p4418
aaa(lp4419
S'ALICE'
p4420
a(lp4421
S'Hmm'
p4422
aaa(lp4423
S'MARY'
p4424
a(lp4425
S'They'
p4426
aS'had'
p4427
ag39
aS'cyst'
p4428
aS'on'
p4429
aS'her'
p4430
aS'ovary'
p4431
aaa(lp4432
g4424
a(lp4433
S'And'
p4434
aS'they'
p4435
aS'had'
p4436
aS'to'
p4437
aS'go'
p4438
aS'in'
p4439
aS'and'
p4440
aS'take'
p4441
aS'it'
p4442
aS'out'
p4443
aaa(lp4444
S'ALICE'
p4445
a(lp4446
S'Mhm'
p4447
aaa(lp4448
S'MARY'
p4449
a(lp4450
S'Take'
p4451
aS'out'
p4452
aS'that'
p4453
aS'cyst'
p4454
aaa(lp4455
S'ALICE'
p4456
a(lp4457
S'Mhm'
p4458
aaa(lp4459
S'MARY'
p4460
a(lp4461
S'And'
p4462
aS'its'
p4463
aS'really'
p4464
aS'screwed'
p4465
aS'up'
p4466
aS'her'
p4467
aS'uh'
p4468
aaa(lp4469
S'ALICE'
p4470
a(lp4471
S'menstrual'
p4472
aS'p'
p4473
aaa(lp4474
g4470
a(lp4475
S'cycle'
p4476
aaa(lp4477
S'MARY'
p4478
a(lp4479
S'her'
p4480
aS'cycle'
p4481
aaa(lp4482
g4478
a(lp4483
S'her'
p4484
aaa(lp4485
g4478
a(lp4486
S'her'
p4487
aS'hormones'
p4488
aaa(lp4489
S'ALICE'
p4490
a(lp4491
S'Unhunh'
p4492
aaa(lp4493
S'MARY'
p4494
a(lp4495
S'And'
p4496
aS'they'
p4497
aS'said'
p4498
aS'that'
p4499
aS'she'
p4500
aS'might'
p4501
aS'have'
p4502
aS'to'
p4503
aS'get'
p4504
aS'pregnant'
p4505
aS'again'
p4506
aaa(lp4507
g4494
a(lp4508
S'just'
p4509
aS'to'
p4510
aS'straighten'
p4511
aS'it'
p4512
aS'out'
p4513
aaa(lp4514
S'ALICE'
p4515
a(lp4516
S'WH'
p4517
aS'WH'
p4518
aaa(lp4519
S'MARY'
p4520
a(lp4521
S'So'
p4522
aaa(lp4523
g4520
a(lp4524
S'and'
p4525
aS'then'
p4526
aS'she'
p4527
aS'goes'
p4528
aaa(lp4529
g4520
a(lp4530
g1334
aS'so'
p4531
aS'tell'
p4532
aaa(lp4533
g4520
a(lp4534
S'tell'
p4535
aS'Deon'
p4536
ag1334
aaa(lp4537
g4520
a(lp4538
S'And'
p4539
aS'she'
p4540
aS'really'
p4541
aS'laughed'
p4542
aaa(lp4543
S'ALICE'
p4544
a(lp4545
aa(lp4546
S'MARY'
p4547
a(lp4548
g7
aS'dont'
p4549
aS'know'
p4550
aS'if'
p4551
aS'Tammy'
p4552
aS'would'
p4553
aS'be'
p4554
aS'too'
p4555
aS'happy'
p4556
aS'with'
p4557
aS'that'
p4558
aS'though'
p4559
aaa(lp4560
g4547
a(lp4561
S'Seems'
p4562
aS'to'
p4563
aS'me'
p4564
aS'that'
p4565
aS'shes'
p4566
aS'trying'
p4567
aS'to'
p4568
aS'straighten'
p4569
aS'herself'
p4570
aS'out'
p4571
aaa(lp4572
g4547
a(lp4573
S'and'
p4574
aaa(lp4575
g4547
a(lp4576
S'pursue'
p4577
ag39
aS'family'
p4578
aaa(lp4579
S'ALICE'
p4580
a(lp4581
S'Tammy'
p4582
aaa(lp4583
S'MARY'
p4584
a(lp4585
S'What'
p4586
aS'do'
p4587
aS'you'
p4588
aS'think'
p4589
aaa(lp4590
S'ALICE'
p4591
a(lp4592
g7
aS'dont'
p4593
aS'know'
p4594
aaa(lp4595
S'MARY'
p4596
a(lp4597
S'Or'
p4598
aS'do'
p4599
aS'you'
p4600
aS'think'
p4601
aS'it'
p4602
aS'might'
p4603
aS'be'
p4604
ag39
aS'matter'
p4605
aS'of'
p4606
aS'convenience'
p4607
aaa(lp4608
S'ALICE'
p4609
a(lp4610
g7
aS'think'
p4611
aS'its'
p4612
ag39
aS'convenience'
p4613
aS'for'
p4614
aS'both'
p4615
aS'of'
p4616
aS'em'
p4617
aaa(lp4618
S'MARY'
p4619
a(lp4620
S'Yeah'
p4621
aaa(lp4622
g4619
a(lp4623
S'Yeah'
p4624
aaa(lp4625
S'ALICE'
p4626
a(lp4627
S'Its'
p4628
aS'also'
p4629
ag39
aS'convenience'
p4630
aS'for'
p4631
aS'Cookie'
p4632
aaa(lp4633
S'MARY'
p4634
a(lp4635
S'Oh'
p4636
aS'yeah'
p4637
aaa.