(lp0
(lp1
S'PATRICK'
p2
a(lp3
S'Ow'
p4
aaa(lp5
S'CORINNA'
p6
a(lp7
S'Is'
p8
aS'he'
p9
aS'still'
p10
aS'a'
p11
aS'virgin'
p12
aaa(lp13
S'PATRICK'
p14
a(lp15
S'Uh'
p16
aaa(lp17
S'CORINNA'
p18
a(lp19
S'Just'
p20
aS'out'
p21
aS'of'
p22
aS'curiosity'
p23
aaa(lp24
S'PATRICK'
p25
a(lp26
S'he'
p27
aS'bought'
p28
ag11
aS'hooker'
p29
aaa(lp30
S'CORINNA'
p31
a(lp32
aa(lp33
S'PATRICK'
p34
a(lp35
S'But'
p36
aaa(lp37
g34
a(lp38
S'was'
p39
aS'he'
p40
ag11
aS'virgin'
p41
aS'when'
p42
aS'you'
p43
aS'knew'
p44
aS'him'
p45
aaa(lp46
S'CORINNA'
p47
a(lp48
aa(lp49
g47
a(lp50
S'I'
p51
aS'meant'
p52
aaa(lp53
g47
a(lp54
S'has'
p55
aS'he'
p56
aS'ever'
p57
aS'had'
p58
ag11
aS'girl'
p59
aS'where'
p60
aS'he'
p61
aS'didnt'
p62
aS'have'
p63
aS'to'
p64
aS'pay'
p65
aS'her'
p66
aaa(lp67
S'PATRICK'
p68
a(lp69
S'Oh'
p70
aS'oh'
p71
aaa(lp72
g68
a(lp73
S'he'
p74
aS'got'
p75
aaa(lp76
g68
a(lp77
S'like'
p78
aaa(lp79
g68
a(lp80
g51
aS'told'
p81
aS'you'
p82
aS'about'
p83
aS'the'
p84
aS'time'
p85
aS'he'
p86
aS'got'
p87
aS'like'
p88
ag11
aS'blowjob'
p89
aS'at'
p90
aS'the'
p91
aS'lakefront'
p92
aaa(lp93
S'CORINNA'
p94
a(lp95
S'No'
p96
aaa(lp97
g94
a(lp98
S'you'
p99
aS'didnt'
p100
aaa(lp101
S'PATRICK'
p102
a(lp103
S'Oh'
p104
aS'no'
p105
aS'way'
p106
aaa(lp107
g102
a(lp108
S'Um'
p109
aaa(lp110
g102
a(lp111
S'well'
p112
aS'what'
p113
aS'happened'
p114
aS'was'
p115
aaa(lp116
g102
a(lp117
g51
aS'was'
p118
aS'just'
p119
aaa(lp120
g102
a(lp121
S'me'
p122
aS'and'
p123
aS'Janine'
p124
aaa(lp125
g102
a(lp126
S'well'
p127
aS'let'
p128
aS'me'
p129
aS'back'
p130
aS'up'
p131
aS'here'
p132
aaa(lp133
g102
a(lp134
g51
aS'started'
p135
aS'hanging'
p136
aS'out'
p137
aS'with'
p138
aS'Janine'
p139
aaa(lp140
g102
a(lp141
S'Janine'
p142
aS'and'
p143
ag51
aS'got'
p144
aS'smashed'
p145
aaa(lp146
g102
a(lp147
S'and'
p148
aS'we'
p149
aS'like'
p150
aS'made'
p151
aS'out'
p152
aS'at'
p153
aS'the'
p154
aS'lakefront'
p155
aaa(lp156
g102
a(lp157
g51
aS'dont'
p158
aS'need'
p159
aS'the'
p160
aS'details'
p161
aaa(lp162
S'CORINNA'
p163
a(lp164
S'By'
p165
aS'the'
p166
aS'way'
p167
aaa(lp168
g163
a(lp169
g51
aS'saw'
p170
aS'the'
p171
aS'Janine'
p172
aS'last'
p173
aS'night'
p174
aaa(lp175
S'PATRICK'
p176
a(lp177
S'Oh'
p178
aS'cool'
p179
aaa(lp180
g176
a(lp181
S'hows'
p182
aS'she'
p183
aS'doing'
p184
aaa(lp185
S'CORINNA'
p186
a(lp187
S'Okay'
p188
aaa(lp189
S'PATRICK'
p190
a(lp191
g51
aS'havent'
p192
aS'seen'
p193
aS'her'
p194
aS'in'
p195
aS'half'
p196
ag11
aS'billion'
p197
aS'years'
p198
aaa(lp199
g190
a(lp200
S'so'
p201
aaa(lp202
g190
a(lp203
S'um'
p204
aaa(lp205
g190
a(lp206
S'but'
p207
aS'anyways'
p208
aaa(lp209
g190
a(lp210
S'we'
p211
aS'were'
p212
aS'like'
p213
aS'making'
p214
aS'out'
p215
aS'and'
p216
aS'stuff'
p217
aS'at'
p218
aS'Duncan'
p219
aS'lakefront'
p220
aaa(lp221
g190
a(lp222
S'so'
p223
aS'thats'
p224
aS'what'
p225
aS'we'
p226
aS'regularly'
p227
aaa(lp228
g190
a(lp229
S'PAR'
p230
aS'well'
p231
aS'not'
p232
aS'regularly'
p233
aaa(lp234
g190
a(lp235
S'did'
p236
aS'this'
p237
aS'like'
p238
aS'th'
p239
aS'two'
p240
aS'three'
p241
aS'times'
p242
aaa(lp243
g190
a(lp244
S'something'
p245
aS'like'
p246
aS'that'
p247
aS'PAR'
p248
aaa(lp249
g190
a(lp250
S'So'
p251
aS'after'
p252
aS'Victors'
p253
aaa(lp254
g190
a(lp255
S'after'
p256
aS'Tom'
p257
aS'had'
p258
aS'two'
p259
aS'women'
p260
aaa(lp261
g190
a(lp262
S'like'
p263
aaa(lp264
g190
a(lp265
S'fighting'
p266
aS'over'
p267
aS'who'
p268
aS'hes'
p269
aS'gonna'
p270
aS'go'
p271
aS'home'
p272
aS'with'
p273
aaa(lp274
g190
a(lp275
S'he'
p276
aS'went'
p277
aS'home'
p278
aS'with'
p279
aS'this'
p280
aS'like'
p281
aS'uh'
p282
aaa(lp283
g190
a(lp284
S'one'
p285
aS'other'
p286
aS'girl'
p287
aaa(lp288
g190
a(lp289
S'like'
p290
ag11
aS'heavyset'
p291
aS'girl'
p292
aaa(lp293
g190
a(lp294
S'and'
p295
aaa(lp296
g190
a(lp297
S'me'
p298
aS'and'
p299
aS'Janine'
p300
aS'and'
p301
aS'all'
p302
aS'of'
p303
aS'us'
p304
aS'were'
p305
aS'walking'
p306
aS'down'
p307
aS'the'
p308
aS'hill'
p309
aaa(lp310
g190
a(lp311
S'You'
p312
aS'know'
p313
aaa(lp314
g190
a(lp315
S'going'
p316
aS'down'
p317
aaa(lp318
g190
a(lp319
S'where'
p320
aS'the'
p321
aS'pier'
p322
aS'is'
p323
aaa(lp324
g190
a(lp325
S'Except'
p326
aaa(lp327
g190
a(lp328
S'we'
p329
aS'were'
p330
aS'going'
p331
aS'down'
p332
aS'that'
p333
aS'big'
p334
aS'hill'
p335
aaa(lp336
g190
a(lp337
S'And'
p338
aS'its'
p339
aS'like'
p340
aS'uh'
p341
aaa(lp342
g190
a(lp343
S'me'
p344
aS'and'
p345
aS'Janine'
p346
aS'were'
p347
aS'used'
p348
aS'to'
p349
aS'walking'
p350
aS'down'
p351
aS'that'
p352
aS'steep'
p353
aS'grassy'
p354
aS'part'
p355
aaa(lp356
g190
a(lp357
S'and'
p358
aS'they'
p359
aS'went'
p360
aS'around'
p361
aaa(lp362
g190
a(lp363
S'So'
p364
aS'we'
p365
aS'hurried'
p366
aS'up'
p367
aS'and'
p368
aS'went'
p369
aS'in'
p370
aS'the'
p371
aS'grassy'
p372
aS'part'
p373
aaa(lp374
g190
a(lp375
S'by'
p376
aS'the'
p377
aS'tennis'
p378
aS'courts'
p379
aaa(lp380
g190
a(lp381
S'It'
p382
aS'was'
p383
aS'real'
p384
aS'dark'
p385
aaa(lp386
g190
a(lp387
S'and'
p388
aS'you'
p389
aS'couldnt'
p390
aS'see'
p391
aS'us'
p392
aS'at'
p393
aS'all'
p394
aaa(lp395
g190
a(lp396
S'after'
p397
aS'we'
p398
aS'had'
p399
aS'gotten'
p400
aS'to'
p401
aS'that'
p402
aS'little'
p403
aS'plank'
p404
aaa(lp405
g190
a(lp406
S'So'
p407
aS'we'
p408
aS'like'
p409
aS'hurried'
p410
aS'up'
p411
aS'to'
p412
aS'this'
p413
aS'one'
p414
aS'spot'
p415
aS'we'
p416
aS'always'
p417
aS'went'
p418
aS'to'
p419
aaa(lp420
g190
a(lp421
S'we'
p422
aS'sat'
p423
aS'and'
p424
aS'looked'
p425
aS'around'
p426
aaa(lp427
g190
a(lp428
S'and'
p429
aS'Tom'
p430
aS'and'
p431
aS'them'
p432
aS'were'
p433
aS'yelling'
p434
aS'and'
p435
aS'screaming'
p436
aS'for'
p437
aS'us'
p438
aaa(lp439
g190
a(lp440
S'You'
p441
aS'know'
p442
aS'and'
p443
aS'they'
p444
aaa(lp445
g190
a(lp446
S'started'
p447
aS'making'
p448
aS'out'
p449
aaa(lp450
g190
a(lp451
S'like'
p452
aaa(lp453
g190
a(lp454
g11
aS'hundred'
p455
aS'yards'
p456
aS'away'
p457
aS'from'
p458
aS'us'
p459
aaa(lp460
g190
a(lp461
S'You'
p462
aS'know'
p463
aaa(lp464
g190
a(lp465
S'but'
p466
aS'theres'
p467
aS'trees'
p468
aaa(lp469
g190
a(lp470
S'and'
p471
aS'they'
p472
aS'were'
p473
aS'standing'
p474
aaa(lp475
g190
a(lp476
S'in'
p477
aS'front'
p478
aS'of'
p479
ag11
aS'tree'
p480
aaa(lp481
g190
a(lp482
S'so'
p483
aS'you'
p484
aS'couldnt'
p485
aS'see'
p486
aS'them'
p487
aaa(lp488
g190
a(lp489
S'and'
p490
aS'we'
p491
aS'were'
p492
aS'sitting'
p493
aS'by'
p494
aS'like'
p495
ag11
aS'tree'
p496
aaa(lp497
g190
a(lp498
S'so'
p499
aS'you'
p500
aS'couldnt'
p501
aS'see'
p502
aS'us'
p503
aaa(lp504
g190
a(lp505
S'So'
p506
aS'they'
p507
aS'were'
p508
aS'making'
p509
aS'out'
p510
aaa(lp511
g190
a(lp512
S'and'
p513
aS'were'
p514
aS'sitting'
p515
aS'there'
p516
aS'talking'
p517
aS'and'
p518
aS'stuff'
p519
aS'and'
p520
aS'junk'
p521
aaa(lp522
g190
a(lp523
S'and'
p524
aS'then'
p525
aS'its'
p526
aS'like'
p527
aaa(lp528
g190
a(lp529
S'all'
p530
aS'of'
p531
ag11
aS'sudden'
p532
aS'we'
p533
aS'hear'
p534
aaa(lp535
g190
a(lp536
S'and'
p537
aS'that'
p538
aS'was'
p539
aS'just'
p540
aS'the'
p541
aS'damndest'
p542
aS'noise'
p543
aaa(lp544
g190
a(lp545
S'and'
p546
ag11
aS'very'
p547
aS'distinctive'
p548
aS'noise'
p549
aaa(lp550
S'CORINNA'
p551
a(lp552
aa(lp553
S'PATRICK'
p554
a(lp555
S'so'
p556
aaa(lp557
g554
a(lp558
S'Im'
p559
aS'like'
p560
aaa(lp561
g554
a(lp562
g51
aS'know'
p563
aS'theyre'
p564
aS'not'
p565
aS'doing'
p566
aS'what'
p567
ag51
aS'think'
p568
aS'theyre'
p569
aS'doing'
p570
aaa(lp571
g554
a(lp572
S'and'
p573
aS'were'
p574
aS'looking'
p575
aS'around'
p576
aS'the'
p577
aS'corner'
p578
aaa(lp579
g554
a(lp580
g51
aS'couldnt'
p581
aS'see'
p582
aS'anything'
p583
aaa(lp584
g554
a(lp585
S'And'
p586
aS'then'
p587
aS'all'
p588
aS'of'
p589
ag11
aS'sudden'
p590
aaa(lp591
g554
a(lp592
g51
aS'saw'
p593
aaa(lp594
g554
a(lp595
S'Tom'
p596
ag51
aS'dont'
p597
aS'know'
p598
aaa(lp599
g554
a(lp600
S'took'
p601
ag11
aS'step'
p602
aS'back'
p603
aS'or'
p604
aS'something'
p605
aaa(lp606
g554
a(lp607
S'and'
p608
ag51
aS'could'
p609
aS'see'
p610
aS'Tom'
p611
aaa(lp612
g554
a(lp613
S'Or'
p614
aS'something'
p615
aaa(lp616
g554
a(lp617
g51
aS'dont'
p618
aS'n'
p619
aS'know'
p620
aaa(lp621
g554
a(lp622
S'on'
p623
aS'this'
p624
aS'side'
p625
aS'of'
p626
aS'the'
p627
aS'tree'
p628
aaa(lp629
g554
a(lp630
S'and'
p631
aS'then'
p632
ag51
aS'saw'
p633
ag11
aS'head'
p634
aaa(lp635
g554
a(lp636
S'Or'
p637
ag11
aS'movement'
p638
aS'lower'
p639
aS'than'
p640
aS'what'
p641
ag51
aS'saw'
p642
aS'Tom'
p643
aaa(lp644
g554
a(lp645
S'So'
p646
aS'then'
p647
aS'the'
p648
aS'picture'
p649
aS'became'
p650
aS'clear'
p651
aS'that'
p652
aaa(lp653
g554
a(lp654
S'hes'
p655
aS'getting'
p656
aS'head'
p657
aS'from'
p658
aS'this'
p659
aS'chick'
p660
aS'he'
p661
aS'didnt'
p662
aS'even'
p663
aS'know'
p664
aaa(lp665
S'CORINNA'
p666
a(lp667
aa(lp668
S'PATRICK'
p669
a(lp670
S'And'
p671
aS'that'
p672
aS'was'
p673
aS'kinda'
p674
aS'cool'
p675
aaa(lp676
g669
a(lp677
S'So'
p678
aaa(lp679
g669
a(lp680
g51
aS'dont'
p681
aS'know'
p682
aS'if'
p683
aS'he'
p684
aaa(lp685
S'CORINNA'
p686
a(lp687
S'So'
p688
aS'did'
p689
aS'he'
p690
aS'do'
p691
aS'her'
p692
aaa(lp693
g686
a(lp694
S'or'
p695
aS'did'
p696
aS'he'
p697
aS'just'
p698
aS'get'
p699
aS'the'
p700
aS'blowjob'
p701
aaa(lp702
S'PATRICK'
p703
a(lp704
S'Just'
p705
aS'the'
p706
aS'blowjob'
p707
aaa(lp708
g703
a(lp709
S'Its'
p710
aS'like'
p711
aaa(lp712
g703
a(lp713
S'it'
p714
aS'was'
p715
aS'getting'
p716
aS'late'
p717
aS'and'
p718
aS'she'
p719
aS'had'
p720
aS'to'
p721
aS'work'
p722
aS'in'
p723
aS'the'
p724
aS'morning'
p725
aaa(lp726
S'CORINNA'
p727
a(lp728
aa(lp729
S'PATRICK'
p730
a(lp731
S'But'
p732
aaa(lp733
g730
a(lp734
S'and'
p735
aS'thats'
p736
aS'the'
p737
aS'first'
p738
aS'chick'
p739
ag51
aS'ever'
p740
aS'saw'
p741
aS'him'
p742
aS'with'
p743
aS'here'
p744
aS'in'
p745
aS'the'
p746
aS'United'
p747
aS'States'
p748
aS'otherwise'
p749
aaa(lp750
g730
a(lp751
S'Hes'
p752
aS'only'
p753
aS'paid'
p754
aS'for'
p755
aS'it'
p756
aaa(lp757
g730
a(lp758
S'You'
p759
aS'know'
p760
aaa(lp761
S'CORINNA'
p762
a(lp763
S'Did'
p764
aS'he'
p765
aS'pay'
p766
aS'for'
p767
aS'it'
p768
aS'back'
p769
aS'home'
p770
aaa(lp771
g762
a(lp772
S'Or'
p773
aaa(lp774
S'PATRICK'
p775
a(lp776
S'Yeah'
p777
aaa(lp778
g775
a(lp779
S'fifty'
p780
aS'bucks'
p781
aaa(lp782
g775
a(lp783
S'for'
p784
aS'hookers'
p785
aaa(lp786
g775
a(lp787
S'X'
p788
aS'well'
p789
ag788
aaa(lp790
g775
a(lp791
S'its'
p792
aS'kind'
p793
aS'of'
p794
ag11
aS'good'
p795
aS'price'
p796
aaa(lp797
g775
a(lp798
g51
aS'mean'
p799
aaa(lp800
S'CORINNA'
p801
a(lp802
aa(lp803
S'PATRICK'
p804
a(lp805
S'nowadays'
p806
aS'here'
p807
aaa(lp808
g804
a(lp809
S'youd'
p810
aS'have'
p811
aS'to'
p812
aS'like'
p813
aaa(lp814
g804
a(lp815
S'you'
p816
aS'know'
p817
aaa(lp818
g804
a(lp819
S'pay'
p820
aS'fifty'
p821
aS'bucks'
p822
aS'to'
p823
aS'go'
p824
aS'out'
p825
aS'to'
p826
aS'dinner'
p827
aS'and'
p828
ag11
aS'movie'
p829
aaa(lp830
g804
a(lp831
S'and'
p832
aS'then'
p833
aS'you'
p834
aS'have'
p835
aS'to'
p836
aS'be'
p837
aS'real'
p838
aS'nice'
p839
aaa(lp840
g804
a(lp841
S'and'
p842
aS'then'
p843
aS'maybe'
p844
aS'just'
p845
aS'maybe'
p846
aaa(lp847
g804
a(lp848
S'something'
p849
aS'might'
p850
aS'happen'
p851
aaa(lp852
g804
a(lp853
S'if'
p854
aS'she'
p855
aS'likes'
p856
aS'you'
p857
aS'and'
p858
aaa(lp859
g804
a(lp860
S'if'
p861
aS'the'
p862
aS'winds'
p863
aS'blowing'
p864
aS'in'
p865
aS'the'
p866
aS'right'
p867
aS'direction'
p868
aS'and'
p869
aaa(lp870
g804
a(lp871
S'WH'
p872
aS'just'
p873
aS'WH'
p874
aS'no'
p875
aS'one'
p876
aS'tripped'
p877
aS'over'
p878
aS'anything'
p879
aS'earlier'
p880
aS'in'
p881
aS'that'
p882
aS'day'
p883
aaa(lp884
g804
a(lp885
S'and'
p886
aS'well'
p887
aaa(lp888
g804
a(lp889
S'take'
p890
aS'fifty'
p891
aS'bucks'
p892
aaa(lp893
g804
a(lp894
S'go'
p895
aS'get'
p896
ag11
aS'hooker'
p897
aaa(lp898
g804
a(lp899
S'and'
p900
aS'then'
p901
aaa(lp902
g804
a(lp903
S'go'
p904
aS'out'
p905
aS'with'
p906
aS'your'
p907
aS'friends'
p908
aS'and'
p909
aS'have'
p910
aS'some'
p911
aS'fun'
p912
aaa(lp913
S'CORINNA'
p914
a(lp915
S'Or'
p916
aS'you'
p917
aS'could'
p918
aS'always'
p919
aS'go'
p920
aS'down'
p921
aS'to'
p922
aS'that'
p923
aS'one'
p924
aS'strip'
p925
aS'in'
p926
aS'Chicago'
p927
aaa(lp928
S'PATRICK'
p929
a(lp930
S'What'
p931
aS'strip'
p932
aaa(lp933
S'CORINNA'
p934
a(lp935
S'The'
p936
aS'one'
p937
aS'over'
p938
aaa(lp939
g934
a(lp940
S'by'
p941
aS'Crowbar'
p942
aaa(lp943
S'PATRICK'
p944
a(lp945
S'No'
p946
aaa(lp947
S'CORINNA'
p948
a(lp949
S'Its'
p950
aS'like'
p951
aS'by'
p952
aS'the'
p953
aS'bridge'
p954
aaa(lp955
S'PATRICK'
p956
a(lp957
S'Okay'
p958
aS'what'
p959
aaa(lp960
g956
a(lp961
S'whats'
p962
aaa(lp963
g956
a(lp964
S'what'
p965
aS'ah'
p966
aaa(lp967
S'CORINNA'
p968
a(lp969
S'Theres'
p970
aS'like'
p971
ag11
aS'whole'
p972
aS'strip'
p973
aaa(lp974
g968
a(lp975
S'Thats'
p976
aS'like'
p977
aS'that'
p978
aS'whole'
p979
aS'strip'
p980
aS'right'
p981
aS'there'
p982
aaa(lp983
g968
a(lp984
S'Theres'
p985
aS'all'
p986
aS'the'
p987
aaa(lp988
g968
a(lp989
S'the'
p990
aS'classic'
p991
aS'MRC'
p992
aS'type'
p993
aS'of'
p994
aS'prostitutes'
p995
aS'MRC'
p996
aaa(lp997
S'PATRICK'
p998
a(lp999
S'Really'
p1000
aaa(lp1001
S'CORINNA'
p1002
a(lp1003
S'Yeah'
p1004
aaa(lp1005
S'PATRICK'
p1006
a(lp1007
S'Hunh'
p1008
aaa(lp1009
S'CORINNA'
p1010
a(lp1011
S'Its'
p1012
aS'like'
p1013
aaa(lp1014
g1010
a(lp1015
S'if'
p1016
aS'you'
p1017
aS'go'
p1018
aS'in'
p1019
aS'the'
p1020
aS'summertime'
p1021
aaa(lp1022
g1010
a(lp1023
g51
aS'm'
p1024
aS'mean'
p1025
aS'its'
p1026
aS'just'
p1027
aS'lined'
p1028
aS'with'
p1029
aS'em'
p1030
aaa(lp1031
S'PATRICK'
p1032
a(lp1033
S'Wow'
p1034
aaa(lp1035
g1032
a(lp1036
S'thanks'
p1037
aS'for'
p1038
aS'telling'
p1039
aS'me'
p1040
aaa(lp1041
S'CORINNA'
p1042
a(lp1043
S'Just'
p1044
aS'literally'
p1045
aS'lined'
p1046
aS'with'
p1047
aS'it'
p1048
aaa(lp1049
g1042
a(lp1050
S'lined'
p1051
aS'with'
p1052
aS'em'
p1053
aaa(lp1054
g1042
a(lp1055
S'and'
p1056
aS'its'
p1057
aS'like'
p1058
aaa(lp1059
g1042
a(lp1060
S'all'
p1061
aS'these'
p1062
aS'cars'
p1063
aS'are'
p1064
aS'like'
p1065
aS'pulled'
p1066
aS'over'
p1067
aaa(lp1068
g1042
a(lp1069
S'and'
p1070
aS'theyre'
p1071
aS'like'
p1072
aaa(lp1073
g1042
a(lp1074
S'y'
p1075
aaa(lp1076
g1042
a(lp1077
S'Its'
p1078
aS'like'
p1079
aaa(lp1080
S'PATRICK'
p1081
a(lp1082
S'Wow'
p1083
aaa(lp1084
S'CORINNA'
p1085
a(lp1086
S'Its'
p1087
aaa(lp1088
g1085
a(lp1089
S'You'
p1090
aS'see'
p1091
aS'all'
p1092
aS'these'
p1093
aS'these'
p1094
aS'hookers'
p1095
aaa(lp1096
g1085
a(lp1097
S'and'
p1098
aaa(lp1099
g1085
a(lp1100
S'youre'
p1101
aS'going'
p1102
aaa(lp1103
S'PATRICK'
p1104
a(lp1105
g788
aaa(lp1106
S'CORINNA'
p1107
a(lp1108
S'VOX'
p1109
aS'okay'
p1110
aS'VOX'
p1111
aaa(lp1112
S'PATRICK'
p1113
a(lp1114
g788
aaa(lp1115
S'CORINNA'
p1116
a(lp1117
S'it'
p1118
aS'was'
p1119
aS'like'
p1120
aaa(lp1121
g1116
a(lp1122
S'so'
p1123
aaa(lp1124
g1116
a(lp1125
S'So'
p1126
aS'the'
p1127
aS'one'
p1128
aS'time'
p1129
ag51
aS'went'
p1130
aS'with'
p1131
aS'uh'
p1132
aaa(lp1133
g1116
a(lp1134
S'John'
p1135
aS'and'
p1136
aS'Zeus'
p1137
aaa(lp1138
g1116
a(lp1139
S'to'
p1140
aS'Crowbar'
p1141
aaa(lp1142
g1116
a(lp1143
S'on'
p1144
aS'Fourth'
p1145
aS'of'
p1146
aS'July'
p1147
aS'and'
p1148
aS'theyre'
p1149
aaa(lp1150
g1116
a(lp1151
S'theyre'
p1152
aS'all'
p1153
aS'lined'
p1154
aS'out'
p1155
aaa(lp1156
g1116
a(lp1157
S'theres'
p1158
aS'like'
p1159
aS'maybe'
p1160
aaa(lp1161
g1116
a(lp1162
S'probably'
p1163
aS'about'
p1164
ag11
aS'hundred'
p1165
aS'prostitutes'
p1166
aaa(lp1167
g1116
a(lp1168
S'walking'
p1169
aS'up'
p1170
aS'and'
p1171
aS'down'
p1172
aS'the'
p1173
aS'street'
p1174
aaa(lp1175
g1116
a(lp1176
S'and'
p1177
aaa(lp1178
S'PATRICK'
p1179
a(lp1180
aa(lp1181
S'CORINNA'
p1182
a(lp1183
S'uh'
p1184
aaa(lp1185
g1182
a(lp1186
g51
aS'was'
p1187
aS'like'
p1188
aS'Q'
p1189
aS'well'
p1190
aaa(lp1191
g1182
a(lp1192
S'hey'
p1193
aaa(lp1194
g1182
a(lp1195
S'Zeus'
p1196
ag1189
aaa(lp1197
g1182
a(lp1198
S'It'
p1199
aS'was'
p1200
aS'like'
p1201
aaa(lp1202
g1182
a(lp1203
S'you'
p1204
aS'need'
p1205
ag11
aS'girlfriend'
p1206
aaa(lp1207
S'PATRICK'
p1208
a(lp1209
aa(lp1210
g1208
a(lp1211
S'Cool'
p1212
aaa(lp1213
S'CORINNA'
p1214
a(lp1215
S'VOX'
p1216
aS'He'
p1217
aS'was'
p1218
aS'like'
p1219
aaa(lp1220
g1214
a(lp1221
S'uh'
p1222
aaa(lp1223
g1214
a(lp1224
S'no'
p1225
aS'VOX'
p1226
aaa(lp1227
g1214
a(lp1228
S'So'
p1229
aaa(lp1230
g1214
a(lp1231
S'and'
p1232
aS'then'
p1233
aaa(lp1234
g1214
a(lp1235
S'there'
p1236
aS'was'
p1237
aaa(lp1238
g1214
a(lp1239
S'actually'
p1240
aaa(lp1241
g1214
a(lp1242
S'there'
p1243
aS'was'
p1244
ag11
aS'pr'
p1245
aaa(lp1246
g1214
a(lp1247
g11
aS'Russian'
p1248
aS'prostitute'
p1249
aaa(lp1250
g1214
a(lp1251
S'in'
p1252
aS'Victors'
p1253
aaa(lp1254
g1214
a(lp1255
S'on'
p1256
aS'Wednesday'
p1257
aS'night'
p1258
aaa(lp1259
S'PATRICK'
p1260
a(lp1261
S'Really'
p1262
aaa(lp1263
g1260
a(lp1264
g51
aS'didnt'
p1265
aS'see'
p1266
aS'her'
p1267
aaa(lp1268
S'CORINNA'
p1269
a(lp1270
S'She'
p1271
aS'was'
p1272
aS'j'
p1273
aaa(lp1274
g1269
a(lp1275
S'She'
p1276
aS'was'
p1277
aS'like'
p1278
aS'standing'
p1279
aS'right'
p1280
aS'by'
p1281
aS'us'
p1282
aaa(lp1283
g1269
a(lp1284
S'And'
p1285
aaa(lp1286
g1269
a(lp1287
S'its'
p1288
aS'cause'
p1289
aaa(lp1290
g1269
a(lp1291
S'Mary'
p1292
aS'was'
p1293
aS'like'
p1294
aaa(lp1295
g1269
a(lp1296
S'oh'
p1297
aS'my'
p1298
aS'God'
p1299
aaa(lp1300
g1269
a(lp1301
S'she'
p1302
aS'always'
p1303
aS'dressed'
p1304
aS'like'
p1305
aS'an'
p1306
aS'alien'
p1307
aaa(lp1308
g1269
a(lp1309
S'And'
p1310
aS'then'
p1311
aS'she'
p1312
aS'always'
p1313
aS'looks'
p1314
aS'so'
p1315
aS'goofy'
p1316
aaa(lp1317
g1269
a(lp1318
S'And'
p1319
aaa(lp1320
S'PATRICK'
p1321
a(lp1322
S'No'
p1323
aaa(lp1324
g1321
a(lp1325
g51
aS'had'
p1326
aS'never'
p1327
aS's'
p1328
aaa(lp1329
g1321
a(lp1330
g51
aS'didnt'
p1331
aS'see'
p1332
aS'her'
p1333
aaa(lp1334
g1321
a(lp1335
S'Where'
p1336
aS'was'
p1337
aS'she'
p1338
aaa(lp1339
S'CORINNA'
p1340
a(lp1341
S'Uh'
p1342
aaa(lp1343
g1340
a(lp1344
S'she'
p1345
aS'was'
p1346
aS'to'
p1347
aS'my'
p1348
aS'right'
p1349
aaa(lp1350
g1340
a(lp1351
S'At'
p1352
aS'the'
p1353
aS'bar'
p1354
aaa(lp1355
g1340
a(lp1356
S'And'
p1357
aS'she'
p1358
aS'had'
p1359
aS'these'
p1360
aS'like'
p1361
aS'spandex'
p1362
aS'pa'
p1363
aaa(lp1364
g1340
a(lp1365
g51
aS'mean'
p1366
aS'she'
p1367
aS'did'
p1368
aS'look'
p1369
aS'like'
p1370
aS'kind'
p1371
aS'of'
p1372
aS'like'
p1373
aS'she'
p1374
aS'had'
p1375
ag11
aS'space'
p1376
aS'outfit'
p1377
aS'on'
p1378
aaa(lp1379
g1340
a(lp1380
S'It'
p1381
aS'was'
p1382
aS'like'
p1383
aS'black'
p1384
aaa(lp1385
g1340
a(lp1386
S'and'
p1387
aS'it'
p1388
aS'was'
p1389
aS'like'
p1390
aS'the'
p1391
aS'skirt'
p1392
aS'flared'
p1393
aS'out'
p1394
aS'and'
p1395
aS'shit'
p1396
aaa(lp1397
g1340
a(lp1398
S'And'
p1399
aS'it'
p1400
aS'was'
p1401
aS'just'
p1402
aaa(lp1403
g1340
a(lp1404
S'she'
p1405
aS'kinda'
p1406
aS'looked'
p1407
aS'like'
p1408
ag11
aS'Judy'
p1409
aS'Jetson'
p1410
aaa(lp1411
g1340
a(lp1412
g51
aS'mean'
p1413
aS'she'
p1414
aS'looked'
p1415
aS'really'
p1416
aS'goofy'
p1417
aaa(lp1418
S'PATRICK'
p1419
a(lp1420
S'No'
p1421
aaa(lp1422
g1419
a(lp1423
S'You'
p1424
aS'gotta'
p1425
aS'point'
p1426
aS'her'
p1427
aS'out'
p1428
aS'like'
p1429
aS'Wednesday'
p1430
aaa(lp1431
S'CORINNA'
p1432
a(lp1433
S'And'
p1434
aaa(lp1435
g1432
a(lp1436
g51
aS'was'
p1437
aS'like'
p1438
aaa(lp1439
g1432
a(lp1440
S'oh'
p1441
aS'my'
p1442
aS'God'
p1443
aaa(lp1444
g1432
a(lp1445
S'You'
p1446
aS'know'
p1447
aaa(lp1448
g1432
a(lp1449
S'So'
p1450
aaa(lp1451
S'PATRICK'
p1452
a(lp1453
S'Ill'
p1454
aS'bring'
p1455
aS'some'
p1456
aS'extra'
p1457
aS'money'
p1458
aaa(lp1459
g1452
a(lp1460
S'no'
p1461
aaa(lp1462
S'CORINNA'
p1463
a(lp1464
S'Um'
p1465
aaa(lp1466
g1463
a(lp1467
S'Mary'
p1468
aS'said'
p1469
aaa(lp1470
g1463
a(lp1471
S'it'
p1472
aS'was'
p1473
aS'like'
p1474
aaa(lp1475
g1463
a(lp1476
S'shes'
p1477
ag11
aS'prostitute'
p1478
aaa(lp1479
g1463
a(lp1480
S'shes'
p1481
aS'really'
p1482
aS'weird'
p1483
aS'too'
p1484
aaa(lp1485
S'PATRICK'
p1486
a(lp1487
S'Wow'
p1488
aaa(lp1489
g1486
a(lp1490
S'Thats'
p1491
aS'kinda'
p1492
aS'cool'
p1493
aaa(lp1494
S'CORINNA'
p1495
a(lp1496
S'Yeah'
p1497
aS'so'
p1498
aaa(lp1499
g1495
a(lp1500
S'anyway'
p1501
aaa(lp1502
g1495
a(lp1503
S'that'
p1504
aaa(lp1505
g1495
a(lp1506
S'and'
p1507
aS'then'
p1508
aS'um'
p1509
aaa(lp1510
g1495
a(lp1511
S'Ill'
p1512
aS'never'
p1513
aS'forget'
p1514
aS'the'
p1515
aS'one'
p1516
aS'time'
p1517
aS'Rob'
p1518
aS'and'
p1519
ag51
aS'went'
p1520
aS'down'
p1521
aS'to'
p1522
aS'Chica'
p1523
aaa(lp1524
g1495
a(lp1525
g51
aS'went'
p1526
aS'to'
p1527
aS'visit'
p1528
aS'Rob'
p1529
aS'in'
p1530
aS'Chicago'
p1531
aaa(lp1532
g1495
a(lp1533
S'It'
p1534
aS'was'
p1535
ag11
aS'Sunday'
p1536
aS'afternoon'
p1537
aaa(lp1538
g1495
a(lp1539
S'it'
p1540
aS'was'
p1541
aS'like'
p1542
aaa(lp1543
g1495
a(lp1544
S'probably'
p1545
aS'like'
p1546
aS'three'
p1547
aS'or'
p1548
aS'four'
p1549
aS'in'
p1550
aS'the'
p1551
aS'afternoon'
p1552
aaa(lp1553
g1495
a(lp1554
S'We'
p1555
aS'were'
p1556
aS'like'
p1557
aaa(lp1558
g1495
a(lp1559
S'lets'
p1560
aS'take'
p1561
ag11
aS'drive'
p1562
aS'around'
p1563
aS'the'
p1564
aS'city'
p1565
aaa(lp1566
g1495
a(lp1567
S'You'
p1568
aS'know'
p1569
aaa(lp1570
g1495
a(lp1571
S'Just'
p1572
aS'for'
p1573
ag11
aS'Sunday'
p1574
aS'drive'
p1575
aaa(lp1576
g1495
a(lp1577
S'So'
p1578
aS'we'
p1579
aS'were'
p1580
aS'driving'
p1581
aS'around'
p1582
aS'in'
p1583
aS'the'
p1584
aS'city'
p1585
aS'and'
p1586
aaa(lp1587
g1495
a(lp1588
S'all'
p1589
aS'of'
p1590
ag11
aS'sudden'
p1591
aS'we'
p1592
aS'see'
p1593
aS'the'
p1594
aS'classic'
p1595
aS'hooker'
p1596
aaa(lp1597
g1495
a(lp1598
S'Shes'
p1599
aS'got'
p1600
aaa(lp1601
g1495
a(lp1602
S'the'
p1603
aS'fishnet'
p1604
aS'stockings'
p1605
aS'on'
p1606
aaa(lp1607
g1495
a(lp1608
S'obviously'
p1609
aS'shes'
p1610
aS'like'
p1611
ag11
aS'fivedollar'
p1612
aS'hooker'
p1613
aaa(lp1614
S'PATRICK'
p1615
a(lp1616
S'Yeah'
p1617
aaa(lp1618
S'CORINNA'
p1619
a(lp1620
S'trying'
p1621
aS'to'
p1622
aS'get'
p1623
aS'her'
p1624
aS'f'
p1625
aaa(lp1626
g1619
a(lp1627
S'her'
p1628
aS'afternoon'
p1629
aS'fix'
p1630
aaa(lp1631
g1619
a(lp1632
S'So'
p1633
aS'that'
p1634
aS'she'
p1635
aS'can'
p1636
aS'go'
p1637
aS'get'
p1638
aS'drugs'
p1639
aaa(lp1640
g1619
a(lp1641
S'And'
p1642
aS'shes'
p1643
aS'got'
p1644
aS'her'
p1645
aS'skirt'
p1646
aaa(lp1647
g1619
a(lp1648
S'she'
p1649
aS'had'
p1650
ag11
aS'miniskirt'
p1651
aS'on'
p1652
aaa(lp1653
g1619
a(lp1654
S'She'
p1655
aS'had'
p1656
aS'her'
p1657
aS'sk'
p1658
aS'her'
p1659
aS'hand'
p1660
aS'in'
p1661
aS'her'
p1662
ag1328
aaa(lp1663
g1619
a(lp1664
S'Shes'
p1665
aS'like'
p1666
aS'exposing'
p1667
aS'her'
p1668
aS'bush'
p1669
aaa(lp1670
g1619
a(lp1671
S'and'
p1672
aaa(lp1673
g1619
a(lp1674
S'its'
p1675
aS'like'
p1676
aaa(lp1677
g1619
a(lp1678
S'you'
p1679
aS'know'
p1680
aaa(lp1681
g1619
a(lp1682
S'using'
p1683
aS'her'
p1684
aS'tongue'
p1685
aS'and'
p1686
aS'shit'
p1687
aaa(lp1688
g1619
a(lp1689
S'and'
p1690
aS'shes'
p1691
aS'like'
p1692
aS'leaning'
p1693
aaa(lp1694
g1619
a(lp1695
S'SM'
p1696
aS'shes'
p1697
aS'like'
p1698
aS'come'
p1699
aS'here'
p1700
aS'SM'
p1701
aaa(lp1702
g1619
a(lp1703
S'like'
p1704
aS'this'
p1705
aS'to'
p1706
aS'us'
p1707
aaa(lp1708
g1619
a(lp1709
S'and'
p1710
aS'were'
p1711
aS'like'
p1712
aaa(lp1713
g1619
a(lp1714
S'uh'
p1715
aaa(lp1716
g1619
a(lp1717
S'keep'
p1718
aS'driving'
p1719
aaa(lp1720
g1619
a(lp1721
S'We'
p1722
aS'were'
p1723
aS'like'
p1724
aaa(lp1725
g1619
a(lp1726
S'oh'
p1727
aS'that'
p1728
aS'was'
p1729
aS'just'
p1730
aS'nasty'
p1731
aaa(lp1732
g1619
a(lp1733
S'She'
p1734
aS'just'
p1735
aS'looked'
p1736
aS'nasty'
p1737
aaa(lp1738
S'PATRICK'
p1739
a(lp1740
S'XX'
p1741
aaa(lp1742
g1739
a(lp1743
S'Wow'
p1744
aaa(lp1745
g1739
a(lp1746
S'Well'
p1747
aS'you'
p1748
aS'couldve'
p1749
aS'pulled'
p1750
aS'over'
p1751
aS'and'
p1752
aS'said'
p1753
aS'hello'
p1754
aaa(lp1755
g1739
a(lp1756
S'No'
p1757
aS'but'
p1758
aaa(lp1759
g1739
a(lp1760
S'the'
p1761
aS'only'
p1762
aS'hooker'
p1763
ag51
aS'thought'
p1764
ag51
aS'saw'
p1765
aaa(lp1766
g1739
a(lp1767
S'okay'
p1768
aaa(lp1769
g1739
a(lp1770
g51
aS'think'
p1771
ag51
aS'told'
p1772
aS'you'
p1773
aS'about'
p1774
aS'this'
p1775
aaa(lp1776
g1739
a(lp1777
S'When'
p1778
aS'me'
p1779
aS'and'
p1780
aS'Steve'
p1781
aS'Greg'
p1782
aS'and'
p1783
aS'Tom'
p1784
aS'went'
p1785
aS'to'
p1786
aS'like'
p1787
aS'Chicago'
p1788
aaa(lp1789
g1739
a(lp1790
S'Did'
p1791
ag51
aS'tell'
p1792
aS'you'
p1793
aS'about'
p1794
aS'that'
p1795
ag788
aS'one'
p1796
aS'day'
p1797
ag788
aaa(lp1798
S'CORINNA'
p1799
a(lp1800
S'YWN'
p1801
aS'Oh'
p1802
ag51
aS'love'
p1803
aS'that'
p1804
aS'YWN'
p1805
aaa(lp1806
g1799
a(lp1807
S'Yeah'
p1808
aaa(lp1809
S'PATRICK'
p1810
a(lp1811
S'XXX'
p1812
aaa(lp1813
S'CORINNA'
p1814
a(lp1815
g51
aS'remember'
p1816
aS'that'
p1817
aaa(lp1818
S'PATRICK'
p1819
a(lp1820
S'that'
p1821
aS'hooker'
p1822
aaa(lp1823
S'CORINNA'
p1824
a(lp1825
S'It'
p1826
aS'was'
p1827
aS'like'
p1828
aaa(lp1829
g1824
a(lp1830
S'VOX'
p1831
aS'oh'
p1832
aS'come'
p1833
aS'on'
p1834
aS'guys'
p1835
aaa(lp1836
g1824
a(lp1837
S'Im'
p1838
aS'not'
p1839
ag11
aS'carjacker'
p1840
aS'VOX'
p1841
aaa(lp1842
S'PATRICK'
p1843
a(lp1844
aa(lp1845
g1843
a(lp1846
S'Well'
p1847
aS'yeah'
p1848
aaa(lp1849
g1843
a(lp1850
S'but'
p1851
aaa(lp1852
g1843
a(lp1853
S'no'
p1854
aS'this'
p1855
aS'hooker'
p1856
aS'was'
p1857
aS'kinda'
p1858
aS'interesting'
p1859
aaa(lp1860
g1843
a(lp1861
S'Um'
p1862
aaa(lp1863
g1843
a(lp1864
S'we'
p1865
aS'were'
p1866
aS'pulling'
p1867
aS'near'
p1868
aS'Crowbar'
p1869
aaa(lp1870
g1843
a(lp1871
S'we'
p1872
aS'were'
p1873
aS'looking'
p1874
aS'for'
p1875
aaa(lp1876
g1843
a(lp1877
S'pulling'
p1878
aS'out'
p1879
aaa(lp1880
g1843
a(lp1881
S'uh'
p1882
aaa(lp1883
g1843
a(lp1884
S'we'
p1885
aS'saw'
p1886
aS'this'
p1887
aS'hooker'
p1888
aaa(lp1889
g1843
a(lp1890
S'Across'
p1891
aS'the'
p1892
aS'street'
p1893
aaa(lp1894
g1843
a(lp1895
S'Kinda'
p1896
aS'waving'
p1897
aS'us'
p1898
aS'over'
p1899
aaa(lp1900
g1843
a(lp1901
S'And'
p1902
aS'Im'
p1903
aS'looking'
p1904
aS'at'
p1905
aS'it'
p1906
aaa(lp1907
g1843
a(lp1908
S'and'
p1909
aS'everyones'
p1910
aS'like'
p1911
aS'saying'
p1912
aaa(lp1913
g1843
a(lp1914
S'yeah'
p1915
aaa(lp1916
g1843
a(lp1917
S'pull'
p1918
aS'over'
p1919
aS'pull'
p1920
aS'over'
p1921
aS'pull'
p1922
aS'over'
p1923
aaa(lp1924
g1843
a(lp1925
S'You'
p1926
aS'know'
p1927
aaa(lp1928
g1843
a(lp1929
S'and'
p1930
aS'Im'
p1931
aS'like'
p1932
aaa(lp1933
g1843
a(lp1934
S'okay'
p1935
aaa(lp1936
g1843
a(lp1937
S'this'
p1938
aS'is'
p1939
aS'kinda'
p1940
aS'cool'
p1941
aaa(lp1942
g1843
a(lp1943
S'uh'
p1944
aaa(lp1945
g1843
a(lp1946
S'so'
p1947
aaa(lp1948
g1843
a(lp1949
S'Im'
p1950
aS'thinking'
p1951
aaa(lp1952
g1843
a(lp1953
S'okay'
p1954
aS'just'
p1955
aS'for'
p1956
ag11
aS'joke'
p1957
aaa(lp1958
g1843
a(lp1959
S'we'
p1960
aS'should'
p1961
aS'pull'
p1962
aS'over'
p1963
aS'or'
p1964
aS'say'
p1965
aS'something'
p1966
aaa(lp1967
g1843
a(lp1968
S'But'
p1969
aS'then'
p1970
aaa(lp1971
g1843
a(lp1972
g51
aS'looked'
p1973
aS'over'
p1974
aS'to'
p1975
aS'the'
p1976
aS'right'
p1977
aaa(lp1978
S'CORINNA'
p1979
a(lp1980
aa(lp1981
S'PATRICK'
p1982
a(lp1983
S'and'
p1984
aS'theres'
p1985
aS'this'
p1986
aS'white'
p1987
aS'van'
p1988
aaa(lp1989
g1982
a(lp1990
S'Clean'
p1991
aS'white'
p1992
aS'van'
p1993
aaa(lp1994
g1982
a(lp1995
S'in'
p1996
aS'warehouse'
p1997
aS'district'
p1998
aaa(lp1999
g1982
a(lp2000
S'You'
p2001
aS'know'
p2002
aaa(lp2003
g1982
a(lp2004
S'sitting'
p2005
aS'there'
p2006
aaa(lp2007
g1982
a(lp2008
S'you'
p2009
aS'know'
p2010
aS'across'
p2011
aS'the'
p2012
aS'street'
p2013
aS'from'
p2014
aS'this'
p2015
aS'hooker'
p2016
aaa(lp2017
g1982
a(lp2018
S'And'
p2019
aS'Im'
p2020
aS'like'
p2021
aaa(lp2022
g1982
a(lp2023
S'no'
p2024
aaa(lp2025
g1982
a(lp2026
S'Im'
p2027
aS'not'
p2028
aS'gonna'
p2029
aS'be'
p2030
aS'on'
p2031
aS'Cops'
p2032
aaa(lp2033
g1982
a(lp2034
S'Cause'
p2035
aS'thats'
p2036
aS'what'
p2037
aS'it'
p2038
aS'was'
p2039
aaa(lp2040
g1982
a(lp2041
S'And'
p2042
aS'then'
p2043
aS'she'
p2044
aS'eventually'
p2045
aS'like'
p2046
aaa(lp2047
g1982
a(lp2048
S'we'
p2049
aS'started'
p2050
aS'drive'
p2051
aS'away'
p2052
aaa(lp2053
g1982
a(lp2054
S'and'
p2055
aS'then'
p2056
aS'she'
p2057
aS'started'
p2058
aS'walking'
p2059
aS'towards'
p2060
aS'the'
p2061
aS'white'
p2062
aS'van'
p2063
aaa(lp2064
g1982
a(lp2065
g788
aS'its'
p2066
ag11
aS'front'
p2067
aS'man'
p2068
ag788
aaa(lp2069
g1982
a(lp2070
S'but'
p2071
aaa(lp2072
g1982
a(lp2073
S'thats'
p2074
aS'the'
p2075
aS'only'
p2076
aS'hooker'
p2077
aS'weve'
p2078
aS'seen'
p2079
aaa(lp2080
S'CORINNA'
p2081
a(lp2082
S'Oh'
p2083
aS'no'
p2084
aS'this'
p2085
aS'one'
p2086
aaa(lp2087
g2081
a(lp2088
S'on'
p2089
aaa(lp2090
g2081
a(lp2091
S'that'
p2092
aS'whole'
p2093
aaa(lp2094
g2081
a(lp2095
S'It'
p2096
aS'was'
p2097
aS'like'
p2098
aS'you'
p2099
aS'know'
p2100
aS'when'
p2101
aS'you'
p2102
aS'go'
p2103
aaa(lp2104
g2081
a(lp2105
S'When'
p2106
aS'you'
p2107
aS'turn'
p2108
aS'off'
p2109
aS'the'
p2110
aS'freeway'
p2111
aaa(lp2112
g2081
a(lp2113
S'by'
p2114
aS'that'
p2115
aS'Blockbuster'
p2116
aaa(lp2117
g2081
a(lp2118
S'and'
p2119
aS'you'
p2120
aS'turn'
p2121
aS'left'
p2122
aaa(lp2123
S'PATRICK'
p2124
a(lp2125
S'Mhm'
p2126
aaa(lp2127
S'CORINNA'
p2128
a(lp2129
S'Okay'
p2130
aaa(lp2131
g2128
a(lp2132
S'Its'
p2133
aS'like'
p2134
ag1075
aaa(lp2135
g2128
a(lp2136
S'W'
p2137
aaa(lp2138
g2128
a(lp2139
S'And'
p2140
aS'youre'
p2141
aS'going'
p2142
aS'straight'
p2143
aaa(lp2144
g2128
a(lp2145
S'And'
p2146
aS'you'
p2147
aS'go'
p2148
aS'over'
p2149
aS'that'
p2150
aS'bridge'
p2151
aaa(lp2152
g2128
a(lp2153
S'just'
p2154
aS'before'
p2155
aS'you'
p2156
aS'hit'
p2157
aS'the'
p2158
aS'bridge'
p2159
aaa(lp2160
g2128
a(lp2161
S'and'
p2162
aS'on'
p2163
aS'the'
p2164
aS'bridge'
p2165
aaa(lp2166
g2128
a(lp2167
S'until'
p2168
aS'you'
p2169
aS'get'
p2170
aS'to'
p2171
aS'that'
p2172
aS'street'
p2173
aS'that'
p2174
aS'you'
p2175
aS'turn'
p2176
aS'on'
p2177
aS'Crowbar'
p2178
aaa(lp2179
g2128
a(lp2180
S'its'
p2181
aS'all'
p2182
aS'lined'
p2183
aS'with'
p2184
aS'hookers'
p2185
aaa(lp2186
g2128
a(lp2187
S'in'
p2188
aS'the'
p2189
aS'summertime'
p2190
aaa(lp2191
S'PATRICK'
p2192
a(lp2193
S'T_'
p2194
aaa(lp2195
g2192
a(lp2196
S'So'
p2197
aS'why'
p2198
aS'dont'
p2199
aS'they'
p2200
aS'like'
p2201
aS'bust'
p2202
aS'em'
p2203
aaa(lp2204
S'CORINNA'
p2205
a(lp2206
S'No'
p2207
aS'there'
p2208
aS'are'
p2209
aS'cops'
p2210
aS'there'
p2211
aS'that'
p2212
aS'bust'
p2213
aS'em'
p2214
aaa(lp2215
S'PATRICK'
p2216
a(lp2217
S'They'
p2218
aS'just'
p2219
aS'keep'
p2220
aS'going'
p2221
aS'back'
p2222
aS'though'
p2223
aaa(lp2224
S'CORINNA'
p2225
a(lp2226
S'Yeah'
p2227
aaa(lp2228
g2225
a(lp2229
S'They'
p2230
aS'just'
p2231
aS'keep'
p2232
aS'going'
p2233
aS'back'
p2234
aaa(lp2235
S'PATRICK'
p2236
a(lp2237
S'Wow'
p2238
aaa(lp2239
S'CORINNA'
p2240
a(lp2241
S'Its'
p2242
aS'like'
p2243
aaa(lp2244
g2240
a(lp2245
S'now'
p2246
aS'its'
p2247
aS'too'
p2248
aS'cold'
p2249
aS'for'
p2250
aS'them'
p2251
aaa(lp2252
g2240
a(lp2253
S'but'
p2254
aaa(lp2255
g2240
a(lp2256
S'uh'
p2257
aaa(lp2258
g2240
a(lp2259
S'otherwise'
p2260
aS'they'
p2261
aaa(lp2262
g2240
a(lp2263
S'theres'
p2264
aS'like'
p2265
aaa(lp2266
g2240
a(lp2267
S'the'
p2268
aS'whole'
p2269
aS'strip'
p2270
aS'is'
p2271
aS'just'
p2272
aS'the'
p2273
aS'classic'
p2274
aS'type'
p2275
aS'of'
p2276
aS'hookers'
p2277
aaa(lp2278
S'PATRICK'
p2279
a(lp2280
aa(lp2281
g2279
a(lp2282
S'Thank'
p2283
aS'you'
p2284
aS'for'
p2285
aS'the'
p2286
aS'information'
p2287
aaa(lp2288
S'CORINNA'
p2289
a(lp2290
S'Youre'
p2291
aS'welcome'
p2292
aaa(lp2293
S'PATRICK'
p2294
a(lp2295
aa(lp2296
g2294
a(lp2297
S'Ill'
p2298
aS'sure'
p2299
aS'remember'
p2300
aS'that'
p2301
aaa(lp2302
g2294
a(lp2303
S'Next'
p2304
aS'time'
p2305
aS'Im'
p2306
aS'like'
p2307
aaa(lp2308
g2294
a(lp2309
S'feeling'
p2310
aS'kinda'
p2311
aS'bored'
p2312
aaa(lp2313
S'CORINNA'
p2314
a(lp2315
S'And'
p2316
aS'once'
p2317
aaa(lp2318
g2314
a(lp2319
S'it'
p2320
aS'was'
p2321
aS'kind'
p2322
aS'of'
p2323
aS'funny'
p2324
aS'cause'
p2325
aS'uh'
p2326
aaa(lp2327
g2314
a(lp2328
S'it'
p2329
aS'was'
p2330
aS'like'
p2331
aaa(lp2332
g2314
a(lp2333
S'all'
p2334
aS'these'
p2335
aS'cops'
p2336
aS'are'
p2337
aS'like'
p2338
aS'there'
p2339
aaa(lp2340
g2314
a(lp2341
S'You'
p2342
aS'know'
p2343
aS'theyre'
p2344
aS'like'
p2345
aS'driving'
p2346
aaa(lp2347
g2314
a(lp2348
S'they'
p2349
aS'dont'
p2350
aS'do'
p2351
aS'anything'
p2352
aaa(lp2353
S'PATRICK'
p2354
a(lp2355
S'Hm'
p2356
aaa(lp2357
S'CORINNA'
p2358
a(lp2359
S'Some'
p2360
aS'of'
p2361
aS'em'
p2362
aaa(lp2363
g2358
a(lp2364
S'You'
p2365
aS'know'
p2366
aS'they'
p2367
aS'just'
p2368
aS'keep'
p2369
aS'driving'
p2370
aaa(lp2371
g2358
a(lp2372
S'you'
p2373
aS'know'
p2374
aS'or'
p2375
aS'theyll'
p2376
aaa(lp2377
g2358
a(lp2378
S'theyll'
p2379
aS'stop'
p2380
aaa(lp2381
g2358
a(lp2382
S'and'
p2383
aS'theyll'
p2384
aS'like'
p2385
aS'talk'
p2386
aS'to'
p2387
aS'the'
p2388
aS'girls'
p2389
aS'or'
p2390
aS'whatever'
p2391
aS'and'
p2392
aaa(lp2393
S'PATRICK'
p2394
a(lp2395
g788
aS'Really'
p2396
ag788
aS'cool'
p2397
aaa(lp2398
S'CORINNA'
p2399
a(lp2400
S'and'
p2401
aS'shit'
p2402
aaa(lp2403
S'PATRICK'
p2404
a(lp2405
S'get'
p2406
aS'lucky'
p2407
aS'on'
p2408
aS'duty'
p2409
aS'XX'
p2410
aaa(lp2411
S'CORINNA'
p2412
a(lp2413
S'Did'
p2414
aS'you'
p2415
aS'hear'
p2416
aS'about'
p2417
aS'that'
p2418
aS'cop'
p2419
aS'in'
p2420
aS'Milwaukee'
p2421
aaa(lp2422
S'PATRICK'
p2423
a(lp2424
S'Oh'
p2425
aS'yeah'
p2426
aaa(lp2427
g2423
a(lp2428
g51
aS'loved'
p2429
aS'that'
p2430
aaa(lp2431
g2423
a(lp2432
g51
aS'thought'
p2433
aS'it'
p2434
aS'was'
p2435
aS'funny'
p2436
aaa(lp2437
g2423
a(lp2438
S'That'
p2439
aS'was'
p2440
aS'hilarious'
p2441
aaa(lp2442
g2423
a(lp2443
S'that'
p2444
aS'shit'
p2445
aS'with'
p2446
aS'that'
p2447
aaa(lp2448
g2423
a(lp2449
S'Ah'
p2450
aS'who'
p2451
aS'cares'
p2452
aaa(lp2453
g2423
a(lp2454
g788
aS'its'
p2455
ag788
aS'not'
p2456
aS'me'
p2457
aaa(lp2458
S'CORINNA'
p2459
a(lp2460
aa(lp2461
S'PATRICK'
p2462
a(lp2463
S'Dumbass'
p2464
aaa(lp2465
g2462
a(lp2466
S'So'
p2467
aaa(lp2468
g2462
a(lp2469
S'um'
p2470
aaa(lp2471
g2462
a(lp2472
S'like'
p2473
aS'what'
p2474
aS'are'
p2475
aS'we'
p2476
aS'doing'
p2477
aaa(lp2478
g2462
a(lp2479
S'were'
p2480
aS'gonna'
p2481
aS'grab'
p2482
aS'some'
p2483
aS'movies'
p2484
aS'and'
p2485
aaa(lp2486
S'CORINNA'
p2487
a(lp2488
S'Yeah'
p2489
aaa(lp2490
g2487
a(lp2491
g788
aS'looks'
p2492
aS'like'
p2493
ag788
aaa(lp2494
S'PATRICK'
p2495
a(lp2496
S'drink'
p2497
aaa(lp2498
g2495
a(lp2499
S'cause'
p2500
aS'its'
p2501
aS'still'
p2502
aS'early'
p2503
aaa(lp2504
g2495
a(lp2505
S'Cause'
p2506
aS'youre'
p2507
aS'too'
p2508
aS'sober'
p2509
aS'for'
p2510
aS'me'
p2511
aaa(lp2512
S'CORINNA'
p2513
a(lp2514
S'Well'
p2515
aS'do'
p2516
aS'you'
p2517
aS'wanna'
p2518
aS'grab'
p2519
aS'me'
p2520
ag11
aS'beer'
p2521
aaa(lp2522
S'PATRICK'
p2523
a(lp2524
aa(lp2525
g2523
a(lp2526
g788
aS'Guess'
p2527
ag788
aaa(lp2528
S'CORINNA'
p2529
a(lp2530
S'Please'
p2531
aaa(lp2532
S'PATRICK'
p2533
a(lp2534
aa(lp2535
S'CORINNA'
p2536
a(lp2537
S'Watch'
p2538
aS'out'
p2539
aS'for'
p2540
aS'the'
p2541
aS'lasagna'
p2542
aaa(lp2543
S'PATRICK'
p2544
a(lp2545
g788
aS'No'
p2546
ag51
aS'like'
p2547
aS'that'
p2548
aS'we'
p2549
aS'were'
p2550
aS'dying'
p2551
ag788
aaa(lp2552
S'CORINNA'
p2553
a(lp2554
g51
aS'have'
p2555
aaa(lp2556
g2553
a(lp2557
g51
aS'have'
p2558
aS'lasagna'
p2559
aaa(lp2560
S'PATRICK'
p2561
a(lp2562
S'Did'
p2563
aS'you'
p2564
aS'eat'
p2565
aS'it'
p2566
aaa(lp2567
g2561
a(lp2568
S'or'
p2569
aS'should'
p2570
aS'we'
p2571
ag788
aaa(lp2572
S'CORINNA'
p2573
a(lp2574
S'Or'
p2575
aS'mostaccioli'
p2576
aaa(lp2577
g2573
a(lp2578
S'Im'
p2579
aS'sorry'
p2580
aaa(lp2581
S'PATRICK'
p2582
a(lp2583
S'Okay'
p2584
aS'cool'
p2585
aaa(lp2586
g2582
a(lp2587
g51
aS'was'
p2588
aS'just'
p2589
aS'about'
p2590
aS'to'
p2591
aS'say'
p2592
aaa(lp2593
g2582
a(lp2594
S'did'
p2595
aS'you'
p2596
aS'want'
p2597
aaa(lp2598
S'CORINNA'
p2599
a(lp2600
S'We'
p2601
aS'can'
p2602
aS'heat'
p2603
aS'it'
p2604
aS'up'
p2605
aaa(lp2606
S'PATRICK'
p2607
a(lp2608
S'Did'
p2609
aS'you'
p2610
aS'wanna'
p2611
aS'get'
p2612
aS'some'
p2613
aS'munchies'
p2614
aaa(lp2615
g2607
a(lp2616
S'thats'
p2617
aS'what'
p2618
ag51
aS'was'
p2619
aS'gonna'
p2620
aS'say'
p2621
aaa(lp2622
S'CORINNA'
p2623
a(lp2624
g51
aS'have'
p2625
aaa(lp2626
g2623
a(lp2627
g51
aS'have'
p2628
aS'pizza'
p2629
aS'too'
p2630
aaa(lp2631
S'PATRICK'
p2632
a(lp2633
aa(lp2634
g2632
a(lp2635
S'Oh'
p2636
aaa(lp2637
g2632
a(lp2638
S'too'
p2639
aS'bad'
p2640
aS'we'
p2641
aS'dont'
p2642
aS'have'
p2643
ag11
aS'lot'
p2644
aS'of'
p2645
aS'money'
p2646
aaa(lp2647
g2632
a(lp2648
g51
aS'feel'
p2649
aS'like'
p2650
aS'VOX'
p2651
aS'something'
p2652
aS'spicy'
p2653
aaa(lp2654
g2632
a(lp2655
S'like'
p2656
aS'Chinese'
p2657
aS'or'
p2658
aS'VOX'
p2659
aaa(lp2660
S'CORINNA'
p2661
a(lp2662
S'Have'
p2663
aS'Wongs'
p2664
aS'Wok'
p2665
aS'near'
p2666
aS'here'
p2667
aaa(lp2668
S'PATRICK'
p2669
a(lp2670
S'Hey'
p2671
aaa(lp2672
g2669
a(lp2673
S'dont'
p2674
aS'knock'
p2675
aS'Wongs'
p2676
aS'Wok'
p2677
aaa(lp2678
S'CORINNA'
p2679
a(lp2680
S'Oh'
p2681
aS'Im'
p2682
aS'not'
p2683
aaa(lp2684
S'PATRICK'
p2685
a(lp2686
aa(lp2687
g2685
a(lp2688
S'Its'
p2689
ag788
aaa(lp2690
S'CORINNA'
p2691
a(lp2692
g51
ag51
aS'eat'
p2693
aS'Wongs'
p2694
aS'Wok'
p2695
aS'all'
p2696
aS'the'
p2697
aS'time'
p2698
aaa(lp2699
S'PATRICK'
p2700
a(lp2701
g51
aS'dont'
p2702
aS'know'
p2703
aaa(lp2704
g2700
a(lp2705
S'Did'
p2706
aS'you'
p2707
aS'wanna'
p2708
aS'do'
p2709
aS'something'
p2710
aS'like'
p2711
aS'that'
p2712
aaa(lp2713
g2700
a(lp2714
S'Or'
p2715
aS'no'
p2716
aaa(lp2717
S'CORINNA'
p2718
a(lp2719
S'Yeah'
p2720
aaa(lp2721
g2718
a(lp2722
S'let'
p2723
aS'me'
p2724
aS'just'
p2725
aS'kinda'
p2726
aS'wake'
p2727
aS'up'
p2728
aS'and'
p2729
aS'liven'
p2730
aS'up'
p2731
ag11
aS'little'
p2732
ag788
aS'here'
p2733
ag788
aaa(lp2734
S'PATRICK'
p2735
a(lp2736
S'And'
p2737
aS'put'
p2738
aS'on'
p2739
aS'some'
p2740
aS'clothes'
p2741
aaa(lp2742
g2735
a(lp2743
S'WH'
p2744
aS'WH'
p2745
aaa(lp2746
g2735
a(lp2747
S'Well'
p2748
aS'you'
p2749
aS'dont'
p2750
aS'have'
p2751
aS'to'
p2752
aS'put'
p2753
aS'on'
p2754
aS'any'
p2755
aS'clothes'
p2756
aaa(lp2757
S'CORINNA'
p2758
a(lp2759
S'But'
p2760
aS'its'
p2761
aS'like'
p2762
aaa(lp2763
g2758
a(lp2764
g1075
aS'you'
p2765
aS'know'
p2766
aS'its'
p2767
aS'like'
p2768
ag51
aS'have'
p2769
aS'to'
p2770
aaa(lp2771
g2758
a(lp2772
S'also'
p2773
aS'watch'
p2774
aS'Melrose'
p2775
aS'Place'
p2776
aaa(lp2777
S'PATRICK'
p2778
a(lp2779
S'Oh'
p2780
aS'lord'
p2781
aaa(lp2782
g2778
a(lp2783
g51
aS'avoided'
p2784
aaa(lp2785
g2778
a(lp2786
S'How'
p2787
aS'longs'
p2788
aS'that'
p2789
aS'show'
p2790
aS'been'
p2791
aS'on'
p2792
aaa(lp2793
g2778
a(lp2794
S'like'
p2795
aS'four'
p2796
aS'years'
p2797
aaa(lp2798
S'CORINNA'
p2799
a(lp2800
g2137
aaa(lp2801
g2799
a(lp2802
S'three'
p2803
aS'or'
p2804
aS'four'
p2805
aaa(lp2806
S'PATRICK'
p2807
a(lp2808
S'Ive'
p2809
aS'avoided'
p2810
aS'watching'
p2811
aS'that'
p2812
aS'show'
p2813
aaa(lp2814
g2807
a(lp2815
S'for'
p2816
aS'four'
p2817
aS'years'
p2818
aaa(lp2819
S'CORINNA'
p2820
a(lp2821
S'Well'
p2822
ag51
aS'dont'
p2823
aS'care'
p2824
aaa(lp2825
g2820
a(lp2826
S'Its'
p2827
aS'my'
p2828
aS'favorite'
p2829
aS'show'
p2830
aaa(lp2831
g2820
a(lp2832
S'and'
p2833
aS'tonight'
p2834
aS'Billy'
p2835
aS'finds'
p2836
aS'out'
p2837
aS'about'
p2838
aaa(lp2839
g2820
a(lp2840
S'his'
p2841
aS'little'
p2842
aS'bitch'
p2843
aS'wife'
p2844
aS'lied'
p2845
aS'to'
p2846
aS'him'
p2847
aaa(lp2848
g2820
a(lp2849
S'she'
p2850
aS'uh'
p2851
aaa(lp2852
g2820
a(lp2853
S'told'
p2854
aS'him'
p2855
aS'that'
p2856
aS'she'
p2857
aS'was'
p2858
aS'pregnant'
p2859
aaa(lp2860
S'PATRICK'
p2861
a(lp2862
S'Yeah'
p2863
aaa(lp2864
S'CORINNA'
p2865
a(lp2866
S'And'
p2867
aS'she'
p2868
aS'exhibited'
p2869
aS'all'
p2870
aS'the'
p2871
aS'classic'
p2872
aS'signs'
p2873
aS'and'
p2874
aS'shit'
p2875
aaa(lp2876
g2865
a(lp2877
S'And'
p2878
aS'they'
p2879
aS'told'
p2880
aS'everyone'
p2881
aaa(lp2882
g2865
a(lp2883
S'Well'
p2884
aaa(lp2885
g2865
a(lp2886
S'it'
p2887
aS'was'
p2888
aaa(lp2889
g2865
a(lp2890
S'turned'
p2891
aS'out'
p2892
aS'that'
p2893
aS'she'
p2894
aS'just'
p2895
aS'wanted'
p2896
aS'it'
p2897
aS'so'
p2898
aS'bad'
p2899
aaa(lp2900
g2865
a(lp2901
S'That'
p2902
aS'uh'
p2903
aaa(lp2904
g2865
a(lp2905
S'that'
p2906
aS'she'
p2907
aS'had'
p2908
aS'signs'
p2909
aS'that'
p2910
aS'she'
p2911
aS'was'
p2912
aS'pregnant'
p2913
aaa(lp2914
g2865
a(lp2915
S'And'
p2916
aaa(lp2917
g2865
a(lp2918
S'so'
p2919
aaa(lp2920
g2865
a(lp2921
S'now'
p2922
aS'shes'
p2923
aS'like'
p2924
aS'uh'
p2925
aaa(lp2926
g2865
a(lp2927
S'hes'
p2928
aS'gonna'
p2929
aS'divorce'
p2930
aS'her'
p2931
ag51
aS'think'
p2932
aaa(lp2933
g2865
a(lp2934
S'Thank'
p2935
aS'God'
p2936
aaa(lp2937
S'PATRICK'
p2938
a(lp2939
S'Man'
p2940
aaa(lp2941
S'CORINNA'
p2942
a(lp2943
S'Cause'
p2944
aS'he'
p2945
aS'belonged'
p2946
aS'with'
p2947
aS'Billy'
p2948
aaa(lp2949
g2942
a(lp2950
S'or'
p2951
ag51
aS'mean'
p2952
aS'Allison'
p2953
aS'anyway'
p2954
aaa(lp2955
S'PATRICK'
p2956
a(lp2957
S'You'
p2958
aS'didnt'
p2959
aS'tell'
p2960
aS'me'
p2961
aS'that'
p2962
aS'the'
p2963
aS'mostaccioli'
p2964
aS'was'
p2965
aS'like'
p2966
aS'right'
p2967
aS'on'
p2968
aS'top'
p2969
aS'of'
p2970
aS'the'
p2971
aS'beer'
p2972
aaa(lp2973
g2956
a(lp2974
g51
aS'got'
p2975
aS'my'
p2976
aS'hand'
p2977
aS'like'
p2978
aS'five'
p2979
aS'inches'
p2980
aS'deep'
p2981
aS'in'
p2982
aS'the'
p2983
aS'damn'
p2984
aS'thing'
p2985
aaa(lp2986
S'CORINNA'
p2987
a(lp2988
aa(lp2989
g2987
a(lp2990
S'Paper'
p2991
aS'towel'
p2992
aaa(lp2993
S'PATRICK'
p2994
a(lp2995
aa(lp2996
S'CORINNA'
p2997
a(lp2998
aa(lp2999
S'PATRICK'
p3000
a(lp3001
S'No'
p3002
aaa(lp3003
g3000
a(lp3004
g51
aS'wiped'
p3005
aS'it'
p3006
aS'off'
p3007
aS'on'
p3008
aS'my'
p3009
aS'jacket'
p3010
aaa(lp3011
g3000
a(lp3012
S'So'
p3013
aS'um'
p3014
aaa(lp3015
S'CORINNA'
p3016
a(lp3017
aa(lp3018
S'PATRICK'
p3019
a(lp3020
S'Now'
p3021
aS'my'
p3022
aS'dog'
p3023
aS'is'
p3024
aS'gonna'
p3025
aS'lick'
p3026
aS'my'
p3027
aS'coat'
p3028
aaa(lp3029
S'CORINNA'
p3030
a(lp3031
S'Why'
p3032
aS'is'
p3033
aS'my'
p3034
aS'hand'
p3035
aS'so'
p3036
aS'tender'
p3037
aS'today'
p3038
aaa(lp3039
S'PATRICK'
p3040
a(lp3041
g51
aS'dont'
p3042
aS'know'
p3043
aaa(lp3044
S'CORINNA'
p3045
a(lp3046
S'Usually'
p3047
ag51
aS'can'
p3048
aS'open'
p3049
aS'this'
p3050
aaa(lp3051
g3045
a(lp3052
S'Without'
p3053
aS'help'
p3054
aaa(lp3055
S'PATRICK'
p3056
a(lp3057
S'Mm'
p3058
aaa(lp3059
S'CORINNA'
p3060
a(lp3061
S'Shit'
p3062
aaa(lp3063
S'PATRICK'
p3064
a(lp3065
S'One'
p3066
aS'of'
p3067
aS'these'
p3068
aS'days'
p3069
aS'Ill'
p3070
aS'have'
p3071
ag11
aS'really'
p3072
aS'fun'
p3073
aS'drunken'
p3074
aS'New'
p3075
aS'Year'
p3076
aaa(lp3077
S'CORINNA'
p3078
a(lp3079
aa(lp3080
g3078
a(lp3081
S'Well'
p3082
aaa(lp3083
g3078
a(lp3084
S'maybe'
p3085
aS'next'
p3086
aS'year'
p3087
aaa(lp3088
g3078
a(lp3089
S'Because'
p3090
aS'Ill'
p3091
aS'be'
p3092
aaa(lp3093
g3078
a(lp3094
S'its'
p3095
aS'like'
p3096
aaa(lp3097
g3078
a(lp3098
S'theres'
p3099
aS'no'
p3100
aS'way'
p3101
ag51
aS'work'
p3102
aS'in'
p3103
aS'another'
p3104
aaa(lp3105
g3078
a(lp3106
S'its'
p3107
aS'like'
p3108
aaa(lp3109
g3078
a(lp3110
S'Ill'
p3111
aS'be'
p3112
aS'out'
p3113
aS'of'
p3114
aS'bar'
p3115
aS'business'
p3116
aS'by'
p3117
aS'that'
p3118
aS'time'
p3119
aaa(lp3120
g3078
a(lp3121
S'Cause'
p3122
aS'Im'
p3123
aS'not'
p3124
aS'working'
p3125
aS'another'
p3126
aS'fucking'
p3127
aS'New'
p3128
aS'Years'
p3129
aaa(lp3130
S'PATRICK'
p3131
a(lp3132
g51
aS'wouldnt'
p3133
aS'mind'
p3134
aS'going'
p3135
aS'into'
p3136
aS'Chicago'
p3137
aaa(lp3138
S'CORINNA'
p3139
a(lp3140
S'Yeah'
p3141
aaa(lp3142
g3139
a(lp3143
S'thats'
p3144
aS'what'
p3145
ag51
aS'wanna'
p3146
aS'do'
p3147
aaa(lp3148
S'PATRICK'
p3149
a(lp3150
S'Thats'
p3151
aS'gonna'
p3152
aS'be'
p3153
aS'my'
p3154
ag788
aS'plan'
p3155
aaa(lp3156
g3149
a(lp3157
S'oh'
p3158
aaa(lp3159
g3149
a(lp3160
S'um'
p3161
aaa(lp3162
g3149
a(lp3163
S'so'
p3164
aS'far'
p3165
aS'Ive'
p3166
aS'talked'
p3167
aS'to'
p3168
aS'everyone'
p3169
aaa(lp3170
g3149
a(lp3171
S'everyone'
p3172
aS'said'
p3173
aS'yeah'
p3174
aaa(lp3175
g3149
a(lp3176
S'but'
p3177
aaa(lp3178
g3149
a(lp3179
S'who'
p3180
aS'knows'
p3181
aaa(lp3182
g3149
a(lp3183
S'the'
p3184
aS'money'
p3185
aS'might'
p3186
aS'not'
p3187
aS'be'
p3188
aS'there'
p3189
aaa(lp3190
g3149
a(lp3191
S'Were'
p3192
aS'planning'
p3193
aS'to'
p3194
aS'go'
p3195
aS'to'
p3196
aS'New'
p3197
aS'York'
p3198
aS'in'
p3199
aS'nineteen'
p3200
aS'ninetynine'
p3201
aaa(lp3202
S'CORINNA'
p3203
a(lp3204
S'Cool'
p3205
aaa(lp3206
S'PATRICK'
p3207
a(lp3208
S'Two'
p3209
aS'thousand'
p3210
aS'were'
p3211
aS'gonna'
p3212
aS'be'
p3213
aS'in'
p3214
aS'New'
p3215
aS'York'
p3216
aS'somewhere'
p3217
aaa(lp3218
g3207
a(lp3219
S'Youre'
p3220
aS'welcome'
p3221
aS'to'
p3222
aS'come'
p3223
aS'along'
p3224
aaa(lp3225
S'CORINNA'
p3226
a(lp3227
S'Thatd'
p3228
aS'be'
p3229
aS'cool'
p3230
aaa(lp3231
S'PATRICK'
p3232
a(lp3233
g51
aS'thought'
p3234
aS'so'
p3235
aaa(lp3236
g3232
a(lp3237
S'Well'
p3238
aS'hopefully'
p3239
ag51
aS'wont'
p3240
aS'be'
p3241
aS'with'
p3242
aS'Natalie'
p3243
aS'by'
p3244
aS'then'
p3245
aS'so'
p3246
aaa(lp3247
g3232
a(lp3248
g788
aS'Whichd'
p3249
aS'be'
p3250
ag788
aaa(lp3251
S'CORINNA'
p3252
a(lp3253
S'God'
p3254
ag51
aS'hope'
p3255
aS'not'
p3256
aaa(lp3257
S'PATRICK'
p3258
a(lp3259
S'Yeah'
p3260
aaa(lp3261
S'CORINNA'
p3262
a(lp3263
S'Thatll'
p3264
aS'ruin'
p3265
aS'everything'
p3266
aaa(lp3267
S'PATRICK'
p3268
a(lp3269
aa(lp3270
g3268
a(lp3271
S'Yeah'
p3272
aaa(lp3273
g3268
a(lp3274
S'my'
p3275
aS'social'
p3276
aS'life'
p3277
aS'is'
p3278
aS'going'
p3279
aS'downhill'
p3280
aaa(lp3281
g3268
a(lp3282
S'Well'
p3283
aS'my'
p3284
aS'social'
p3285
aS'life'
p3286
aS'is'
p3287
aS'naturally'
p3288
aS'going'
p3289
aS'downhill'
p3290
aaa(lp3291
g3268
a(lp3292
S'because'
p3293
aS'everyone'
p3294
ag51
aS'know'
p3295
aS'is'
p3296
aS'getting'
p3297
aS'old'
p3298
aaa(lp3299
S'ENV'
p3300
a(lp3301
aa(lp3302
S'PATRICK'
p3303
a(lp3304
S'which'
p3305
aS'really'
p3306
aS'sucks'
p3307
aaa(lp3308
S'CORINNA'
p3309
a(lp3310
S'Shit'
p3311
aaa(lp3312
g3309
a(lp3313
S'Football'
p3314
aaa(lp3315
g3309
a(lp3316
g51
aS'hate'
p3317
aS'football'
p3318
aaa(lp3319
S'PATRICK'
p3320
a(lp3321
S'Yeah'
p3322
aaa(lp3323
g3320
a(lp3324
S'same'
p3325
aS'here'
p3326
aaa(lp3327
g3320
a(lp3328
S'Everyones'
p3329
aS'getting'
p3330
aS'old'
p3331
aaa(lp3332
g3320
a(lp3333
S'no'
p3334
aS'one'
p3335
aS'wants'
p3336
aS'to'
p3337
aS'drink'
p3338
aS'anymore'
p3339
aaa(lp3340
g3320
a(lp3341
S'everyones'
p3342
aS'got'
p3343
aS'girlfriends'
p3344
aS'that'
p3345
aS'they'
p3346
aS'care'
p3347
aS'about'
p3348
aaa(lp3349
S'CORINNA'
p3350
a(lp3351
g51
aS'know'
p3352
aaa(lp3353
g3350
a(lp3354
S'its'
p3355
aS'like'
p3356
ag51
aS'dont'
p3357
aS'even'
p3358
aS'hear'
p3359
aS'from'
p3360
aS'Gregg'
p3361
aS'anymore'
p3362
aaa(lp3363
g3350
a(lp3364
S'whats'
p3365
aS'up'
p3366
aS'with'
p3367
aS'that'
p3368
aaa(lp3369
S'PATRICK'
p3370
a(lp3371
g51
aS'dont'
p3372
aS'know'
p3373
aaa(lp3374
g3370
a(lp3375
S'he'
p3376
aaa(lp3377
g3370
a(lp3378
S'Kathys'
p3379
aS'gonna'
p3380
aS'be'
p3381
aS'gone'
p3382
aS'for'
p3383
aS'two'
p3384
aS'weeks'
p3385
aS'so'
p3386
aaa(lp3387
S'CORINNA'
p3388
a(lp3389
S'So'
p3390
aS'all'
p3391
aS'of'
p3392
ag11
aS'sudden'
p3393
aS'he'
p3394
aS'its'
p3395
aS'like'
p3396
aaa(lp3397
g3388
a(lp3398
S'hes'
p3399
aS'gonna'
p3400
aS'spring'
p3401
aS'back'
p3402
aS'into'
p3403
aS'our'
p3404
aS'lives'
p3405
aaa(lp3406
g3388
a(lp3407
S'hoping'
p3408
aaa(lp3409
S'PATRICK'
p3410
a(lp3411
S'Probably'
p3412
aaa(lp3413
S'CORINNA'
p3414
a(lp3415
g51
aS'dont'
p3416
aS'think'
p3417
aS'so'
p3418
aaa(lp3419
S'PATRICK'
p3420
a(lp3421
S'Well'
p3422
aS'ever'
p3423
aS'since'
p3424
aS'he'
p3425
aS'heard'
p3426
aS'that'
p3427
ag51
aS'was'
p3428
aS'having'
p3429
aS'problems'
p3430
aS'with'
p3431
aS'my'
p3432
aS'band'
p3433
aaa(lp3434
g3420
a(lp3435
S'you'
p3436
aS'know'
p3437
aaa(lp3438
g3420
a(lp3439
S'hes'
p3440
aS'been'
p3441
aS'calling'
p3442
aS'me'
p3443
ag11
aS'lot'
p3444
aS'more'
p3445
aaa(lp3446
g3420
a(lp3447
S'weve'
p3448
aS'been'
p3449
aS'hanging'
p3450
aS'out'
p3451
aS'and'
p3452
aS'stuff'
p3453
aaa(lp3454
S'CORINNA'
p3455
a(lp3456
g51
aS'just'
p3457
aS'really'
p3458
aaa(lp3459
g3455
a(lp3460
S'Thats'
p3461
aS'what'
p3462
aS'pisses'
p3463
aS'me'
p3464
aS'off'
p3465
aaa(lp3466
g3455
a(lp3467
S'Cause'
p3468
aS'like'
p3469
aaa(lp3470
g3455
a(lp3471
S'the'
p3472
aS'same'
p3473
aS'thing'
p3474
aS'is'
p3475
aS'going'
p3476
aS'on'
p3477
aS'with'
p3478
aS'uh'
p3479
aaa(lp3480
g3455
a(lp3481
S'with'
p3482
aS'Marlisse'
p3483
aaa(lp3484
g3455
a(lp3485
S'You'
p3486
aS'know'
p3487
aaa(lp3488
g3455
a(lp3489
S'its'
p3490
aaa(lp3491
g3455
a(lp3492
S'it'
p3493
aS'was'
p3494
aS'like'
p3495
aaa(lp3496
g3455
a(lp3497
S'all'
p3498
aS'of'
p3499
ag11
aS'sudden'
p3500
aaa(lp3501
g3455
a(lp3502
S'well'
p3503
aS'here'
p3504
aS'we'
p3505
aS'did'
p3506
aS'all'
p3507
aS'this'
p3508
aS'stuff'
p3509
aaa(lp3510
g3455
a(lp3511
S'and'
p3512
aaa(lp3513
g3455
a(lp3514
S'for'
p3515
aS'about'
p3516
ag11
aS'month'
p3517
aS'now'
p3518
aS'shes'
p3519
aS'had'
p3520
ag11
aS'boyfriend'
p3521
aaa(lp3522
S'PATRICK'
p3523
a(lp3524
S'Mhm'
p3525
aaa(lp3526
S'CORINNA'
p3527
a(lp3528
S'And'
p3529
aaa(lp3530
g3527
a(lp3531
g51
aS'call'
p3532
aS'her'
p3533
aaa(lp3534
g3527
a(lp3535
S'shes'
p3536
aS'never'
p3537
aS'home'
p3538
aaa(lp3539
g3527
a(lp3540
S'Its'
p3541
aS'like'
p3542
aaa(lp3543
g3527
a(lp3544
S'uh'
p3545
aaa(lp3546
g3527
a(lp3547
g51
aS'got'
p3548
ag11
aS'hold'
p3549
aS'of'
p3550
aS'her'
p3551
aS'yesterday'
p3552
aaa(lp3553
g3527
a(lp3554
S'actually'
p3555
aaa(lp3556
g3527
a(lp3557
g51
aS'mean'
p3558
ag51
aS'even'
p3559
aS'tried'
p3560
aS'to'
p3561
aS'call'
p3562
aS'her'
p3563
aS'on'
p3564
aS'New'
p3565
aS'Y'
p3566
aaa(lp3567
g3527
a(lp3568
S'on'
p3569
aS'Christmas'
p3570
aaa(lp3571
g3527
a(lp3572
S'And'
p3573
aS'she'
p3574
aS'wasnt'
p3575
aS'there'
p3576
aaa(lp3577
g3527
a(lp3578
S'and'
p3579
aaa(lp3580
g3527
a(lp3581
S'now'
p3582
aS'its'
p3583
aS'like'
p3584
aaa(lp3585
g3527
a(lp3586
S'Im'
p3587
aS'like'
p3588
aaa(lp3589
g3527
a(lp3590
S'uh'
p3591
aaa(lp3592
g3527
a(lp3593
S'where'
p3594
aS'the'
p3595
aS'hell'
p3596
aS'are'
p3597
aS'you'
p3598
aaa(lp3599
g3527
a(lp3600
S'You'
p3601
aS'know'
p3602
aaa(lp3603
g3527
a(lp3604
S'and'
p3605
aaa(lp3606
g3527
a(lp3607
g51
aS'havent'
p3608
aS'seen'
p3609
aS'you'
p3610
aS'in'
p3611
ag11
aS'while'
p3612
aaa(lp3613
S'PATRICK'
p3614
a(lp3615
S'Mhm'
p3616
aaa(lp3617
S'CORINNA'
p3618
a(lp3619
S'VOXHI'
p3620
aS'like'
p3621
ag788
aS'Im'
p3622
aS'sorry'
p3623
aS'HIVOX'
p3624
aaa(lp3625
g3618
a(lp3626
S'and'
p3627
aS'then'
p3628
aS'shes'
p3629
aS'going'
p3630
aS'out'
p3631
aS'of'
p3632
aS'town'
p3633
aaa(lp3634
g3618
a(lp3635
S'Florida'
p3636
aS'for'
p3637
aaa(lp3638
g3618
a(lp3639
S'till'
p3640
aS'like'
p3641
aS'school'
p3642
aS'starts'
p3643
aS'now'
p3644
aaa(lp3645
g3618
a(lp3646
S'on'
p3647
aS'the'
p3648
aS'third'
p3649
aaa(lp3650
S'PATRICK'
p3651
a(lp3652
S'Yeah'
p3653
aaa(lp3654
S'CORINNA'
p3655
a(lp3656
S'So'
p3657
aaa(lp3658
S'PATRICK'
p3659
a(lp3660
S'It'
p3661
aS'all'
p3662
aS'sucks'
p3663
aaa(lp3664
S'CORINNA'
p3665
a(lp3666
g51
aS'remember'
p3667
aS'this'
p3668
aS'story'
p3669
aaa(lp3670
S'PATRICK'
p3671
a(lp3672
aa(lp3673
g3671
a(lp3674
S'It'
p3675
aS'all'
p3676
aS'sucks'
p3677
aaa(lp3678
g3671
a(lp3679
S'because'
p3680
aaa(lp3681
g3671
a(lp3682
S'its'
p3683
aS'one'
p3684
aS'thing'
p3685
aS'like'
p3686
aS'for'
p3687
aS'me'
p3688
aS'and'
p3689
aS'you'
p3690
aS'to'
p3691
aS'hang'
p3692
aS'out'
p3693
aaa(lp3694
g3671
a(lp3695
S'and'
p3696
aS'stuff'
p3697
aS'like'
p3698
aS'that'
p3699
aS'at'
p3700
aS'Victors'
p3701
aaa(lp3702
g3671
a(lp3703
S'and'
p3704
aS'whatever'
p3705
aaa(lp3706
g3671
a(lp3707
S'but'
p3708
aaa(lp3709
g3671
a(lp3710
S'were'
p3711
aS'at'
p3712
aS'two'
p3713
aS'to'
p3714
aS'totally'
p3715
aS'different'
p3716
aS'social'
p3717
aS'levels'
p3718
aaa(lp3719
g3671
a(lp3720
g51
aS'mean'
p3721
aS'its'
p3722
aS'easier'
p3723
aS'for'
p3724
aS'women'
p3725
aS'to'
p3726
aS'walk'
p3727
aS'into'
p3728
ag11
aS'bar'
p3729
aaa(lp3730
g3671
a(lp3731
S'not'
p3732
aS'know'
p3733
aS'anyone'
p3734
aaa(lp3735
g3671
a(lp3736
S'and'
p3737
aS'then'
p3738
aS'come'
p3739
aS'out'
p3740
aS'knowing'
p3741
aS'everybody'
p3742
aaa(lp3743
g3671
a(lp3744
S'Its'
p3745
aS'hard'
p3746
aS'for'
p3747
ag11
aS'guy'
p3748
aS'to'
p3749
aaa(lp3750
g3671
a(lp3751
S'because'
p3752
aS'then'
p3753
aS'he'
p3754
aS'comes'
p3755
aS'off'
p3756
aS'like'
p3757
ag11
aS'big'
p3758
aS'huge'
p3759
aS'pervert'
p3760
aaa(lp3761
g3671
a(lp3762
S'So'
p3763
aaa(lp3764
g3671
a(lp3765
S'Id'
p3766
aS'have'
p3767
aS'to'
p3768
aS'be'
p3769
aS'chasing'
p3770
aS'you'
p3771
aS'around'
p3772
aaa(lp3773
g3671
a(lp3774
S'and'
p3775
aS'cramping'
p3776
aS'your'
p3777
aS'style'
p3778
aaa(lp3779
g3671
a(lp3780
S'its'
p3781
aS'just'
p3782
aS'cool'
p3783
aS'that'
p3784
aaa(lp3785
g3671
a(lp3786
S'all'
p3787
aS'the'
p3788
aS'girls'
p3789
aS'go'
p3790
aS'out'
p3791
aaa(lp3792
g3671
a(lp3793
S'and'
p3794
aS'all'
p3795
aS'guys'
p3796
aS'go'
p3797
aS'out'
p3798
aaa(lp3799
g3671
a(lp3800
S'and'
p3801
aS'if'
p3802
aS'youre'
p3803
aS'two'
p3804
aS'social'
p3805
aS'whatever'
p3806
aaa(lp3807
g3671
a(lp3808
S'at'
p3809
aS'the'
p3810
aS'same'
p3811
aS'bouncing'
p3812
aS'around'
p3813
aS'know'
p3814
aS'everybody'
p3815
aS'level'
p3816
aaa(lp3817
g3671
a(lp3818
S'its'
p3819
aS'cool'
p3820
aaa(lp3821
g3671
a(lp3822
S'You'
p3823
aS'know'
p3824
aaa(lp3825
g3671
a(lp3826
S'cause'
p3827
ag51
aS'dont'
p3828
aS'wanna'
p3829
aS'sit'
p3830
aS'here'
p3831
aS'and'
p3832
aS'drag'
p3833
aS'you'
p3834
aS'down'
p3835
aaa(lp3836
g3671
a(lp3837
S'and'
p3838
aS'stuff'
p3839
aS'and'
p3840
aS'junk'
p3841
aaa(lp3842
S'ENV'
p3843
a(lp3844
aa(lp3845
S'PATRICK'
p3846
a(lp3847
S'Cool'
p3848
aaa(lp3849
S'CORINNA'
p3850
a(lp3851
S'You'
p3852
aS'remember'
p3853
aS'this'
p3854
aS'story'
p3855
aaa(lp3856
S'PATRICK'
p3857
a(lp3858
S'No'
p3859
aaa(lp3860
g3857
a(lp3861
S'What'
p3862
aS'is'
p3863
aS'it'
p3864
aaa(lp3865
S'CORINNA'
p3866
a(lp3867
S'This'
p3868
aaa(lp3869
g3866
a(lp3870
S'This'
p3871
aS'guy'
p3872
aaa(lp3873
g3866
a(lp3874
S'this'
p3875
aS'is'
p3876
ag11
aS'true'
p3877
aS'story'
p3878
aaa(lp3879
g3866
a(lp3880
S'uh'
p3881
aaa(lp3882
g3866
a(lp3883
S'he'
p3884
aS'took'
p3885
ag11
aaa(lp3886
g3866
a(lp3887
g788
aS'Its'
p3888
ag788
aaa(lp3889
g3866
a(lp3890
S'Well'
p3891
aS'it'
p3892
aS'took'
p3893
aS'em'
p3894
aS'like'
p3895
aS'tw'
p3896
aaa(lp3897
g3866
a(lp3898
S'over'
p3899
aS'twenty'
p3900
aS'years'
p3901
aS'to'
p3902
aS'catch'
p3903
aS'this'
p3904
aS'guy'
p3905
aaa(lp3906
g3866
a(lp3907
S'He'
p3908
aS'went'
p3909
aS'and'
p3910
aS'shot'
p3911
aS'his'
p3912
aS'entire'
p3913
aS'family'
p3914
aaa(lp3915
g3866
a(lp3916
S'And'
p3917
aS'then'
p3918
aS'disappeared'
p3919
aaa(lp3920
S'PATRICK'
p3921
a(lp3922
S'Well'
p3923
aaa(lp3924
g3921
a(lp3925
S'So'
p3926
aS'why'
p3927
aS'did'
p3928
aS'he'
p3929
aS'shoot'
p3930
aS'his'
p3931
aS'family'
p3932
aaa(lp3933
S'CORINNA'
p3934
a(lp3935
S'Cause'
p3936
aS'he'
p3937
aS'was'
p3938
aS'afraid'
p3939
aS'that'
p3940
aS'their'
p3941
aS'morality'
p3942
aS'was'
p3943
aS'going'
p3944
aS'downhill'
p3945
aaa(lp3946
S'PATRICK'
p3947
a(lp3948
S'Well'
p3949
aaa(lp3950
g3947
a(lp3951
S'yeah'
p3952
aaa(lp3953
S'CORINNA'
p3954
a(lp3955
S'So'
p3956
aS'he'
p3957
aS'shot'
p3958
aS'his'
p3959
aS'mother'
p3960
aaa(lp3961
g3954
a(lp3962
S'his'
p3963
aS'kids'
p3964
aS'and'
p3965
aS'his'
p3966
aS'wife'
p3967
aaa(lp3968
g3954
a(lp3969
S'Oh'
p3970
aS'and'
p3971
aS'his'
p3972
aS'daughter'
p3973
aaa(lp3974
S'ENV'
p3975
a(lp3976
aa(lp3977
S'PATRICK'
p3978
a(lp3979
aa(lp3980
g3978
a(lp3981
S'Uhoh'
p3982
aaa(lp3983
g3978
a(lp3984
S'MRC'
p3985
aS'then'
p3986
aS'the'
p3987
aS'milkman'
p3988
aS'comes'
p3989
aS'MRC'
p3990
aaa(lp3991
g3978
a(lp3992
S'VOXWH'
p3993
ag51
aS'can'
p3994
aS'kick'
p3995
aS'em'
p3996
aaa(lp3997
g3978
a(lp3998
g51
aS'can'
p3999
aS'kick'
p4000
aS'em'
p4001
aS'WHVOX'
p4002
aaa(lp4003
S'ENV'
p4004
a(lp4005
aa(lp4006
S'PATRICK'
p4007
a(lp4008
aa(lp4009
g4007
a(lp4010
g51
aaa(lp4011
g4007
a(lp4012
S'MRC'
p4013
ag51
aS'dont'
p4014
aS'think'
p4015
aS'its'
p4016
aS'all'
p4017
aS'sick'
p4018
aS'and'
p4019
aS'twisted'
p4020
aS'MRC'
p4021
aaa(lp4022
S'ENV'
p4023
a(lp4024
aa(lp4025
S'CORINNA'
p4026
a(lp4027
S'You'
p4028
aS'know'
p4029
aS'the'
p4030
aS'last'
p4031
aS'time'
p4032
ag51
ag1328
aS'seen'
p4033
aS'gr'
p4034
aaa(lp4035
g4026
a(lp4036
S'it'
p4037
aS'was'
p4038
aS'like'
p4039
aaa(lp4040
g4026
a(lp4041
S'last'
p4042
aS'night'
p4043
ag51
aS'was'
p4044
ag1625
aaa(lp4045
g4026
a(lp4046
S'watching'
p4047
aaa(lp4048
g4026
a(lp4049
S'You'
p4050
aS'know'
p4051
aS'it'
p4052
aS'was'
p4053
aS'like'
p4054
aaa(lp4055
g4026
a(lp4056
g51
aS'was'
p4057
aS'at'
p4058
aS'Victors'
p4059
aaa(lp4060
g4026
a(lp4061
S'and'
p4062
aS'all'
p4063
aS'of'
p4064
ag11
aS'sudden'
p4065
ag51
aS'saw'
p4066
aS'Showgirls'
p4067
aaa(lp4068
S'PATRICK'
p4069
a(lp4070
S'Mhm'
p4071
aaa(lp4072
S'CORINNA'
p4073
a(lp4074
S'Was'
p4075
aS'on'
p4076
aaa(lp4077
g4073
a(lp4078
S'or'
p4079
aaa(lp4080
g4073
a(lp4081
S'on'
p4082
aS'videotape'
p4083
aS'now'
p4084
aaa(lp4085
g4073
a(lp4086
S'And'
p4087
aS'ah'
p4088
aaa(lp4089
S'PATRICK'
p4090
a(lp4091
aa(lp4092
S'ENV'
p4093
a(lp4094
aa(lp4095
S'PATRICK'
p4096
a(lp4097
S'VOX'
p4098
aS'Cool'
p4099
aaa(lp4100
g4096
a(lp4101
S'Shoot'
p4102
aS'her'
p4103
aS'VOX'
p4104
aaa(lp4105
g4096
a(lp4106
S'Dont'
p4107
aS'have'
p4108
aS'her'
p4109
aS'look'
p4110
aS'at'
p4111
aS'you'
p4112
aaa(lp4113
S'ENV'
p4114
a(lp4115
aa(lp4116
S'CORINNA'
p4117
a(lp4118
S'That'
p4119
aS'was'
p4120
aS'the'
p4121
aS'last'
p4122
aS'time'
p4123
ag51
aS'did'
p4124
aS'anything'
p4125
aS'with'
p4126
aS'Gregg'
p4127
aS'though'
p4128
aaa(lp4129
S'PATRICK'
p4130
a(lp4131
S'That'
p4132
aS'was'
p4133
aS'when'
p4134
aaa(lp4135
S'CORINNA'
p4136
a(lp4137
S'Oh'
p4138
aaa(lp4139
g4136
a(lp4140
S'and'
p4141
aS'you'
p4142
aS'know'
p4143
aS'what'
p4144
aS'also'
p4145
aS'hap'
p4146
aaa(lp4147
g4136
a(lp4148
S'is'
p4149
aS'like'
p4150
aS'they'
p4151
aS'wound'
p4152
aS'up'
p4153
aS'not'
p4154
aaa(lp4155
g4136
a(lp4156
S'their'
p4157
aS'bod'
p4158
aaa(lp4159
g4136
a(lp4160
S'Since'
p4161
aS'he'
p4162
aS'like'
p4163
aS'cancelled'
p4164
aS'all'
p4165
aS'this'
p4166
aS'stuff'
p4167
aaa(lp4168
g4136
a(lp4169
S'and'
p4170
aS'like'
p4171
aS'he'
p4172
aS'pulled'
p4173
aaa(lp4174
g4136
a(lp4175
S'He'
p4176
aS'had'
p4177
aS'said'
p4178
aS'its'
p4179
aS'like'
p4180
aaa(lp4181
g4136
a(lp4182
S'you'
p4183
aS'know'
p4184
aaa(lp4185
g4136
a(lp4186
S'Im'
p4187
aS'pulling'
p4188
aS'my'
p4189
aS'kids'
p4190
aS'out'
p4191
aS'of'
p4192
aS'school'
p4193
aaa(lp4194
g4136
a(lp4195
S'Im'
p4196
aS'taking'
p4197
aS'em'
p4198
aS'out'
p4199
aaa(lp4200
g4136
a(lp4201
S'out'
p4202
aS'for'
p4203
ag11
aS'vacation'
p4204
aS'and'
p4205
aS'shit'
p4206
aaa(lp4207
g4136
a(lp4208
S'And'
p4209
aS'all'
p4210
aS'this'
p4211
aS'and'
p4212
aS'that'
p4213
aaa(lp4214
g4136
a(lp4215
S'so'
p4216
aS'no'
p4217
aS'one'
p4218
aS'suspected'
p4219
aS'that'
p4220
aS'the'
p4221
aS'family'
p4222
aS'was'
p4223
aS'dead'
p4224
aaa(lp4225
S'PATRICK'
p4226
a(lp4227
S'For'
p4228
aS'how'
p4229
aS'long'
p4230
aaa(lp4231
S'CORINNA'
p4232
a(lp4233
S'A'
p4234
aS'month'
p4235
aaa(lp4236
g4232
a(lp4237
S'or'
p4238
aS'two'
p4239
aS'months'
p4240
aaa(lp4241
S'PATRICK'
p4242
a(lp4243
S'Wow'
p4244
aaa(lp4245
S'CORINNA'
p4246
a(lp4247
S'So'
p4248
aS'they'
p4249
aS'were'
p4250
aS'like'
p4251
aS'laying'
p4252
aS'there'
p4253
aaa(lp4254
g4246
a(lp4255
S'in'
p4256
aS'the'
p4257
aS'house'
p4258
aaa(lp4259
g4246
a(lp4260
S'and'
p4261
aS'all'
p4262
aS'of'
p4263
ag11
aS'sudden'
p4264
aS'its'
p4265
aS'like'
p4266
aS'started'
p4267
aS'stinking'
p4268
aaa(lp4269
g4246
a(lp4270
S'and'
p4271
aS'someone'
p4272
aS'walked'
p4273
aS'in'
p4274
aS'the'
p4275
aS'house'
p4276
aaa(lp4277
g4246
a(lp4278
S'and'
p4279
aS'found'
p4280
aS'all'
p4281
aS'their'
p4282
aS'decomposed'
p4283
aS'bodies'
p4284
aaa(lp4285
g4246
a(lp4286
S'And'
p4287
aS'he'
p4288
aaa(lp4289
g4246
a(lp4290
S'by'
p4291
aS'this'
p4292
aS'time'
p4293
aS'he'
p4294
aS'had'
p4295
aS'disappeared'
p4296
aaa(lp4297
S'ENV'
p4298
a(lp4299
aa(lp4300
S'CORINNA'
p4301
a(lp4302
aa(lp4303
S'PATRICK'
p4304
a(lp4305
S'Cool'
p4306
aaa(lp4307
S'ENV'
p4308
a(lp4309
aa(lp4310
S'PATRICK'
p4311
a(lp4312
S'Cool'
p4313
aaa(lp4314
S'ENV'
p4315
a(lp4316
aa(lp4317
S'PATRICK'
p4318
a(lp4319
S'Cool'
p4320
aaa(lp4321
g4318
a(lp4322
g788
aS'Works'
p4323
aS'for'
p4324
aS'me'
p4325
ag788
aaa(lp4326
S'ENV'
p4327
a(lp4328
aa(lp4329
S'PATRICK'
p4330
a(lp4331
S'Thats'
p4332
aS'rude'
p4333
aaa(lp4334
S'CORINNA'
p4335
a(lp4336
S'So'
p4337
aaa(lp4338
S'PATRICK'
p4339
a(lp4340
S'After'
p4341
aS'twenty'
p4342
aS'years'
p4343
aaa(lp4344
g4339
a(lp4345
S'they'
p4346
aS'could'
p4347
aS'let'
p4348
aS'the'
p4349
aS'guy'
p4350
aS'go'
p4351
aaa(lp4352
S'CORINNA'
p4353
a(lp4354
aa(lp4355
S'PATRICK'
p4356
a(lp4357
S'You'
p4358
aS'know'
p4359
aaa(lp4360
S'CORINNA'
p4361
a(lp4362
S'He'
p4363
aS'killed'
p4364
aS'his'
p4365
aS'whole'
p4366
aS'fucking'
p4367
aS'family'
p4368
aS'though'
p4369
aaa(lp4370
S'PATRICK'
p4371
a(lp4372
S'Yeah'
p4373
aS'thats'
p4374
aS'twenty'
p4375
aS'years'
p4376
aS'ago'
p4377
aaa(lp4378
g4371
a(lp4379
S'He'
p4380
aS'didnt'
p4381
aS'do'
p4382
aS'it'
p4383
aS'since'
p4384
aaa(lp4385
g4371
a(lp4386
S'At'
p4387
aS'least'
p4388
aS'theyre'
p4389
aS'now'
p4390
aS'moral'
p4391
aaa(lp4392
S'CORINNA'
p4393
a(lp4394
S'Ts'
p4395
aaa(lp4396
S'PATRICK'
p4397
a(lp4398
aa(lp4399
g4397
a(lp4400
S'What'
p4401
aaa(lp4402
S'CORINNA'
p4403
a(lp4404
g51
aS'cant'
p4405
aS'believe'
p4406
aS'your'
p4407
aS'rationale'
p4408
aaa(lp4409
S'PATRICK'
p4410
a(lp4411
aa(lp4412
g4410
a(lp4413
S'You'
p4414
aS'know'
p4415
ag51
aS'was'
p4416
aS'just'
p4417
aS'joking'
p4418
aaa(lp4419
g4410
a(lp4420
g51
aS'would'
p4421
aS'never'
p4422
aaa(lp4423
g4410
a(lp4424
S'like'
p4425
aS'you'
p4426
aS'know'
p4427
aaa(lp4428
g4410
a(lp4429
S'seriously'
p4430
aaa(lp4431
g4410
a(lp4432
S'think'
p4433
aS'about'
p4434
aS'walking'
p4435
aS'up'
p4436
aS'th'
p4437
aS'behind'
p4438
aS'someone'
p4439
aS'with'
p4440
ag11
aS'gun'
p4441
aaa(lp4442
g4410
a(lp4443
S'And'
p4444
aS'like'
p4445
aS'pulling'
p4446
aS'the'
p4447
aS'trigger'
p4448
aaa(lp4449
g4410
a(lp4450
S'and'
p4451
aS'watching'
p4452
aS'your'
p4453
aS'brains'
p4454
aS'splatter'
p4455
aS'all'
p4456
aS'over'
p4457
aS'the'
p4458
aS'nice'
p4459
aS'white'
p4460
aaa(lp4461
g4410
a(lp4462
g51
aS'mean'
p4463
aaa(lp4464
g4410
a(lp4465
g51
aS'mean'
p4466
aaa(lp4467
g4410
a(lp4468
S'all'
p4469
aS'over'
p4470
aS'the'
p4471
aS'wall'
p4472
aaa(lp4473
S'CORINNA'
p4474
a(lp4475
aa(lp4476
S'PATRICK'
p4477
a(lp4478
S'No'
p4479
aS'Im'
p4480
aS'just'
p4481
aS'joking'
p4482
aaa(lp4483
g4477
a(lp4484
S'Just'
p4485
aS'wanted'
p4486
aS'to'
p4487
aS'scare'
p4488
aS'you'
p4489
ag11
aS'little'
p4490
aS'bit'
p4491
aaa(lp4492
g4477
a(lp4493
S'Did'
p4494
aS'you'
p4495
aS'catch'
p4496
aS'the'
p4497
aS'little'
p4498
aS'reference'
p4499
aS'to'
p4500
aS'white'
p4501
aS'wall'
p4502
aaa(lp4503
g4477
a(lp4504
S'You'
p4505
aS'know'
p4506
aS'whitewalls'
p4507
aaa(lp4508
g4477
a(lp4509
S'see'
p4510
aaa(lp4511
S'CORINNA'
p4512
a(lp4513
aa(lp4514
S'PATRICK'
p4515
a(lp4516
S'get'
p4517
aS'it'
p4518
aaa(lp4519
g4515
a(lp4520
S'no'
p4521
aS'Im'
p4522
aS'just'
p4523
aS'joking'
p4524
aaa(lp4525
g4515
a(lp4526
g51
aS'wish'
p4527
ag51
aS'was'
p4528
aS'at'
p4529
aS'Metropolis'
p4530
aS'yesterday'
p4531
aaa(lp4532
g4515
a(lp4533
g51
aS'think'
p4534
aS'it'
p4535
aS'wouldve'
p4536
aS'been'
p4537
aS'cool'
p4538
aaa(lp4539
g4515
a(lp4540
g51
aS'think'
p4541
aS'Gregg'
p4542
aS'and'
p4543
aS'them'
p4544
aS'would'
p4545
aS'have'
p4546
aS'been'
p4547
ag11
aS'little'
p4548
aS'bit'
p4549
aS'more'
p4550
aS'motivated'
p4551
aaa(lp4552
g4515
a(lp4553
S'Than'
p4554
aS'at'
p4555
aS'The'
p4556
aS'Planet'
p4557
aaa(lp4558
g4515
a(lp4559
S'You'
p4560
aS'know'
p4561
aaa(lp4562
g4515
a(lp4563
S'cause'
p4564
aS'theres'
p4565
aS'no'
p4566
aS'food'
p4567
aS'or'
p4568
aS'nothing'
p4569
aaa(lp4570
S'CORINNA'
p4571
a(lp4572
S'We'
p4573
aS'didnt'
p4574
aS'have'
p4575
aS'food'
p4576
aS'either'
p4577
aaa(lp4578
S'PATRICK'
p4579
a(lp4580
S'Well'
p4581
aS'that'
p4582
aS'sucks'
p4583
aaa(lp4584
g4579
a(lp4585
S'New'
p4586
aS'Years'
p4587
aS'are'
p4588
aS'going'
p4589
aS'downhill'
p4590
aS'now'
p4591
aaa(lp4592
S'CORINNA'
p4593
a(lp4594
S'We'
p4595
aS'used'
p4596
aS'to'
p4597
aaa(lp4598
S'PATRICK'
p4599
a(lp4600
g51
aS'think'
p4601
ag51
aS'liked'
p4602
aS'her'
p4603
aS'before'
p4604
aaa(lp4605
S'CORINNA'
p4606
a(lp4607
S'With'
p4608
aS'all'
p4609
aS'her'
p4610
aS'chubby'
p4611
aS'stuff'
p4612
aaa(lp4613
S'PATRICK'
p4614
a(lp4615
aa(lp4616
g4614
a(lp4617
S'Yeah'
p4618
aaa(lp4619
g4614
a(lp4620
g51
aS'dont'
p4621
aS'like'
p4622
aS'em'
p4623
aS'bone'
p4624
aS'thin'
p4625
aaa(lp4626
S'CORINNA'
p4627
a(lp4628
g51
aS'still'
p4629
aS'dont'
p4630
aaa(lp4631
g4627
a(lp4632
g51
aS'think'
p4633
aS'shes'
p4634
aS'ugly'
p4635
aaa(lp4636
S'PATRICK'
p4637
a(lp4638
S'Yeah'
p4639
aaa(lp4640
g4637
a(lp4641
S'still'
p4642
aS'ugly'
p4643
aaa(lp4644
g4637
a(lp4645
S'yeah'
p4646
ag51
aS'know'
p4647
aaa(lp4648
g4637
a(lp4649
S'But'
p4650
aaa(lp4651
g4637
a(lp4652
g51
aS'like'
p4653
aaa(lp4654
g4637
a(lp4655
g51
aS'dont'
p4656
aS'like'
p4657
aS'like'
p4658
aS'super'
p4659
aS'skinny'
p4660
aS'railly'
p4661
aaa(lp4662
g4637
a(lp4663
S'rib'
p4664
aS'poking'
p4665
aS'me'
p4666
aS'in'
p4667
aS'my'
p4668
aS'like'
p4669
aS'whatever'
p4670
aaa(lp4671
g4637
a(lp4672
S'You'
p4673
aS'know'
p4674
aaa(lp4675
g4637
a(lp4676
g51
aS'like'
p4677
aS'it'
p4678
aS'when'
p4679
aS'you'
p4680
aS'can'
p4681
aS'like'
p4682
aS'poke'
p4683
ag11
aS'female'
p4684
aaa(lp4685
g4637
a(lp4686
S'and'
p4687
aS'she'
p4688
aS'jiggles'
p4689
aS'for'
p4690
aS'like'
p4691
aS'two'
p4692
aS'seconds'
p4693
aS'afterwards'
p4694
aaa(lp4695
S'CORINNA'
p4696
a(lp4697
aa(lp4698
S'PATRICK'
p4699
a(lp4700
g51
aS'like'
p4701
aaa(lp4702
g4699
a(lp4703
g51
aS'like'
p4704
aS'that'
p4705
aaa(lp4706
g4699
a(lp4707
g51
aS'like'
p4708
aS'em'
p4709
aS'healthy'
p4710
aaa(lp4711
g4699
a(lp4712
g51
aS'like'
p4713
aS'when'
p4714
aS'we'
p4715
aS'can'
p4716
aS'sit'
p4717
aS'down'
p4718
aS'to'
p4719
aaa(lp4720
S'CORINNA'
p4721
a(lp4722
S'Robust'
p4723
aaa(lp4724
S'PATRICK'
p4725
a(lp4726
S'VOX'
p4727
aS'Yeah'
p4728
aS'VOX'
p4729
aaa(lp4730
S'CORINNA'
p4731
a(lp4732
S'Well'
p4733
aS'then'
p4734
ag51
aS'dont'
p4735
aS'understand'
p4736
aS'why'
p4737
aS'you'
p4738
aS'like'
p4739
aS'Rita'
p4740
aaa(lp4741
S'PATRICK'
p4742
a(lp4743
S'Cause'
p4744
aS'shes'
p4745
aS'got'
p4746
aS'like'
p4747
aS'awesome'
p4748
aS'eyes'
p4749
aaa(lp4750
S'CORINNA'
p4751
a(lp4752
S'Oh'
p4753
aaa(lp4754
g4751
a(lp4755
S'But'
p4756
aS'shes'
p4757
aS'like'
p4758
ag11
ag1328
aaa(lp4759
g4751
a(lp4760
S'Shes'
p4761
aS'like'
p4762
ag11
aS'walking'
p4763
aS'skeleton'
p4764
aaa(lp4765
g4751
a(lp4766
S'Man'
p4767
aaa(lp4768
S'PATRICK'
p4769
a(lp4770
g51
aS'agree'
p4771
aaa(lp4772
g4769
a(lp4773
S'but'
p4774
aS'shes'
p4775
aS'got'
p4776
aS'nice'
p4777
aS'eyes'
p4778
aaa(lp4779
g4769
a(lp4780
g51
aS'mean'
p4781
ag51
ag51
ag51
aS'like'
p4782
aS'her'
p4783
aaa(lp4784
g4769
a(lp4785
S'but'
p4786
aS'um'
p4787
aaa(lp4788
g4769
a(lp4789
g51
aS'mean'
p4790
aS'we'
p4791
aS'never'
p4792
aaa(lp4793
g4769
a(lp4794
g51
aS'could'
p4795
aS'never'
p4796
aS'date'
p4797
aS'her'
p4798
aaa(lp4799
g4769
a(lp4800
S'Cause'
p4801
aS'theres'
p4802
ag11
aS'difference'
p4803
aS'for'
p4804
aS'me'
p4805
aaa(lp4806
g4769
a(lp4807
g51
aS'like'
p4808
ag11
aS'lot'
p4809
aS'of'
p4810
aS'people'
p4811
aaa(lp4812
g4769
a(lp4813
S'Like'
p4814
aS'for'
p4815
aS'instance'
p4816
aaa(lp4817
g4769
a(lp4818
S'um'
p4819
aaa(lp4820
g4769
a(lp4821
S'your'
p4822
aS'friend'
p4823
aaa(lp4824
S'CORINNA'
p4825
a(lp4826
S'Oh'
p4827
aS'Beth'
p4828
aaa(lp4829
S'PATRICK'
p4830
a(lp4831
g788
aaa(lp4832
g4830
a(lp4833
S'Yeah'
p4834
aaa(lp4835
g4830
a(lp4836
g51
aS'could'
p4837
aS'date'
p4838
aS'her'
p4839
aaa(lp4840
g4830
a(lp4841
S'Did'
p4842
aS'you'
p4843
aS'just'
p4844
aS'like'
p4845
aS'accidentally'
p4846
aS'tell'
p4847
aS'her'
p4848
aS'what'
p4849
ag51
aS'told'
p4850
aS'you'
p4851
aS'to'
p4852
aS'tell'
p4853
aS'her'
p4854
aaa(lp4855
S'CORINNA'
p4856
a(lp4857
S'Yeah'
p4858
aaa(lp4859
S'PATRICK'
p4860
a(lp4861
S'Whatd'
p4862
aS'she'
p4863
aS'say'
p4864
aaa(lp4865
S'CORINNA'
p4866
a(lp4867
S'Well'
p4868
aS'actually'
p4869
aS'she'
p4870
aS'was'
p4871
aS'interested'
p4872
aS'in'
p4873
aS'that'
p4874
aS'guy'
p4875
aS'at'
p4876
aS'the'
p4877
aS'Country'
p4878
aS'Kitchen'
p4879
aaa(lp4880
S'PATRICK'
p4881
a(lp4882
g51
aS'know'
p4883
aaa(lp4884
g4881
a(lp4885
S'That'
p4886
aS'sucks'
p4887
aaa(lp4888
g4881
a(lp4889
S'My'
p4890
aS'hearts'
p4891
aS'broken'
p4892
aaa(lp4893
S'CORINNA'
p4894
a(lp4895
S'Im'
p4896
aS'sorry'
p4897
aaa(lp4898
S'PATRICK'
p4899
a(lp4900
S'Mm'
p4901
aaa(lp4902
g4899
a(lp4903
S'now'
p4904
aS'do'
p4905
aS'you'
p4906
aS'see'
p4907
aS'why'
p4908
ag51
aS'didnt'
p4909
aS'go'
p4910
aaa(lp4911
S'CORINNA'
p4912
a(lp4913
S'Yeah'
p4914
aaa(lp4915
S'PATRICK'
p4916
a(lp4917
aa(lp4918
S'CORINNA'
p4919
a(lp4920
S'But'
p4921
aS'it'
p4922
aS'turned'
p4923
aS'out'
p4924
aS'he'
p4925
aS'didnt'
p4926
aS'even'
p4927
aS'show'
p4928
aS'up'
p4929
ag51
aS'guess'
p4930
aaa(lp4931
S'PATRICK'
p4932
a(lp4933
S'Ahha'
p4934
aaa(lp4935
S'CORINNA'
p4936
a(lp4937
g788
aS'Where'
p4938
ag788
aaa(lp4939
S'PATRICK'
p4940
a(lp4941
S'F'
p4942
aS'Good'
p4943
ag4942
aaa(lp4944
g4940
a(lp4945
g4942
aaa(lp4946
g4940
a(lp4947
S'T'
p4948
aS'you'
p4949
aS'can'
p4950
aS'tell'
p4951
aS'her'
p4952
ag51
aS'said'
p4953
aS'that'
p4954
aS'too'
p4955
aaa(lp4956
S'CORINNA'
p4957
a(lp4958
aa(lp4959
S'PATRICK'
p4960
a(lp4961
S'And'
p4962
aS'its'
p4963
aS'got'
p4964
aS'me'
p4965
aS'on'
p4966
aS'tape'
p4967
aS'saying'
p4968
aS'it'
p4969
aaa(lp4970
g4960
a(lp4971
S'Damn'
p4972
aS'it'
p4973
aaa(lp4974
S'ENV'
p4975
a(lp4976
aa(lp4977
S'PATRICK'
p4978
a(lp4979
g788
aS'Wow'
p4980
ag788
aaa(lp4981
S'ENV'
p4982
a(lp4983
aa(lp4984
S'PATRICK'
p4985
a(lp4986
S'Cool'
p4987
aaa(lp4988
S'ENV'
p4989
a(lp4990
aa(lp4991
S'PATRICK'
p4992
a(lp4993
S'To'
p4994
aS'just'
p4995
aS'burn'
p4996
aS'his'
p4997
aS'house'
p4998
aaa(lp4999
S'ENV'
p5000
a(lp5001
aa(lp5002
S'PATRICK'
p5003
a(lp5004
S'No'
p5005
aaa(lp5006
S'ENV'
p5007
a(lp5008
aa(lp5009
S'PATRICK'
p5010
a(lp5011
aa(lp5012
g5010
a(lp5013
S'Eighteen'
p5014
aS'years'
p5015
aaa(lp5016
g5010
a(lp5017
S'MRC'
p5018
aS'let'
p5019
aS'the'
p5020
aS'guy'
p5021
aS'go'
p5022
aS'MRC'
p5023
aaa(lp5024
S'ENV'
p5025
a(lp5026
aa(lp5027
S'PATRICK'
p5028
a(lp5029
S'Ooh'
p5030
aaa(lp5031
S'CORINNA'
p5032
a(lp5033
S'This'
p5034
aS'was'
p5035
aS'the'
p5036
aS'first'
p5037
aS'time'
p5038
aS'that'
p5039
aS'it'
p5040
aS'was'
p5041
aS'done'
p5042
aaa(lp5043
S'ENV'
p5044
a(lp5045
aa(lp5046
S'PATRICK'
p5047
a(lp5048
S'P'
p5049
aS'Wow'
p5050
ag5049
aaa(lp5051
S'ENV'
p5052
a(lp5053
aa(lp5054
S'CORINNA'
p5055
a(lp5056
S'Recede'
p5057
aaa(lp5058
S'PATRICK'
p5059
a(lp5060
S'Hm'
p5061
aaa(lp5062
S'ENV'
p5063
a(lp5064
aa(lp5065
S'PATRICK'
p5066
a(lp5067
S'Wow'
p5068
aaa(lp5069
S'ENV'
p5070
a(lp5071
aa(lp5072
S'PATRICK'
p5073
a(lp5074
g4948
aaa(lp5075
g5073
a(lp5076
S'Hm'
p5077
aaa(lp5078
S'CORINNA'
p5079
a(lp5080
S'Why'
p5081
aS'wouldnt'
p5082
aS'you'
p5083
aS'leave'
p5084
aS'the'
p5085
aS'country'
p5086
aaa(lp5087
g5079
a(lp5088
g51
aS'would'
p5089
aS'leave'
p5090
aS'the'
p5091
aS'country'
p5092
aaa(lp5093
S'PATRICK'
p5094
a(lp5095
S'Yeah'
p5096
aaa(lp5097
g5094
a(lp5098
S'Id'
p5099
aS'be'
p5100
aS'pissed'
p5101
aS'though'
p5102
aaa(lp5103
g5094
a(lp5104
g51
aS'mean'
p5105
aaa(lp5106
g5094
a(lp5107
S'twenty'
p5108
aS'years'
p5109
aS'to'
p5110
aS'get'
p5111
aS'away'
p5112
aS'with'
p5113
aS'it'
p5114
aaa(lp5115
g5094
a(lp5116
S'all'
p5117
aS'of'
p5118
ag11
aS'sudden'
p5119
aaa(lp5120
g5094
a(lp5121
S'VOX'
p5122
aS'police'
p5123
aS'VOX'
p5124
aaa(lp5125
S'CORINNA'
p5126
a(lp5127
aa(lp5128
S'PATRICK'
p5129
a(lp5130
aa(lp5131
g5129
a(lp5132
g788
aS'Bad'
p5133
ag788
aaa(lp5134
S'CORINNA'
p5135
a(lp5136
g51
aS'dont'
p5137
aS'know'
p5138
aS'why'
p5139
aaa(lp5140
g5135
a(lp5141
S'Its'
p5142
aaa(lp5143
g5135
a(lp5144
S'like'
p5145
aS'why'
p5146
aS'would'
p5147
aS'you'
p5148
aS'wanna'
p5149
aS'stay'
p5150
aS'there'
p5151
aaa(lp5152
g5135
a(lp5153
S'Uh'
p5154
aS'stay'
p5155
aS'in'
p5156
aS'the'
p5157
aS'United'
p5158
aS'States'
p5159
aaa(lp5160
g5135
a(lp5161
S'If'
p5162
ag51
aS'would'
p5163
aaa(lp5164
g5135
a(lp5165
g51
aS'mean'
p5166
aaa(lp5167
g5135
a(lp5168
S'if'
p5169
aS'you'
p5170
aS'could'
p5171
aS'commit'
p5172
aS'the'
p5173
aS'perfect'
p5174
aS'crime'
p5175
aaa(lp5176
g5135
a(lp5177
S'get'
p5178
aS'away'
p5179
aS'with'
p5180
aS'it'
p5181
aaa(lp5182
g5135
a(lp5183
S'would'
p5184
aS'you'
p5185
aS'stay'
p5186
aS'in'
p5187
aS'the'
p5188
aS'country'
p5189
aaa(lp5190
g5135
a(lp5191
S'or'
p5192
aS'would'
p5193
aS'you'
p5194
aS'leave'
p5195
aaa(lp5196
S'PATRICK'
p5197
a(lp5198
S'Itd'
p5199
aS'be'
p5200
aS'kinda'
p5201
aS'hard'
p5202
aS'to'
p5203
aS'like'
p5204
aaa(lp5205
g5197
a(lp5206
S'go'
p5207
aS'to'
p5208
ag11
aS'like'
p5209
aS'another'
p5210
aS'country'
p5211
aS'you'
p5212
aS'know'
p5213
aaa(lp5214
g5197
a(lp5215
S'Espec'
p5216
aaa(lp5217
S'CORINNA'
p5218
a(lp5219
S'Well'
p5220
ag51
aS'mean'
p5221
aaa(lp5222
g5218
a(lp5223
S'he'
p5224
aS'had'
p5225
aS'like'
p5226
aS'twenty'
p5227
aS'thousand'
p5228
aS'dollars'
p5229
aaa(lp5230
g5218
a(lp5231
S'Okay'
p5232
aaa(lp5233
S'PATRICK'
p5234
a(lp5235
S'In'
p5236
aS'nineteen'
p5237
aS'seventy'
p5238
aaa(lp5239
S'CORINNA'
p5240
a(lp5241
S'In'
p5242
aS'seventy'
p5243
aaa(lp5244
g5240
a(lp5245
S'Thats'
p5246
aS'like'
p5247
aS'so'
p5248
aaa(lp5249
g5240
a(lp5250
S'so'
p5251
aS'its'
p5252
aS'like'
p5253
aaa(lp5254
g5240
a(lp5255
S'all'
p5256
aS'she'
p5257
aS'had'
p5258
aS'to'
p5259
aS'do'
p5260
aaa(lp5261
g5240
a(lp5262
S'he'
p5263
aS'had'
p5264
aS'to'
p5265
aS'do'
p5266
aaa(lp5267
g5240
a(lp5268
S'was'
p5269
aS'like'
p5270
aS'get'
p5271
aS'on'
p5272
ag11
aS'plane'
p5273
aaa(lp5274
g5240
a(lp5275
S'go'
p5276
aS'to'
p5277
aS'England'
p5278
aaa(lp5279
g5240
a(lp5280
S'Get'
p5281
ag11
aS'work'
p5282
aS'permit'
p5283
aS'and'
p5284
aS'shit'
p5285
aaa(lp5286
S'PATRICK'
p5287
a(lp5288
S'Mm'
p5289
aaa(lp5290
g5287
a(lp5291
g788
aS'Had'
p5292
aS'some'
p5293
ag788
aaa(lp5294
S'CORINNA'
p5295
a(lp5296
S'He'
p5297
aS'had'
p5298
ag11
aS'thirtyday'
p5299
aS'head'
p5300
aS'start'
p5301
aaa(lp5302
S'PATRICK'
p5303
a(lp5304
S'Yeah'
p5305
aaa(lp5306
g5303
a(lp5307
S'thats'
p5308
aS'true'
p5309
aaa(lp5310
g5303
a(lp5311
S'Plus'
p5312
aS'he'
p5313
aS'was'
p5314
aS'already'
p5315
aS'at'
p5316
aS'airport'
p5317
aaa(lp5318
g5303
a(lp5319
g788
aS'Couldve'
p5320
aS'jet'
p5321
aS'somewhere'
p5322
ag788
aaa(lp5323
S'CORINNA'
p5324
a(lp5325
S'Yeah'
p5326
aaa(lp5327
S'ENV'
p5328
a(lp5329
aa(lp5330
S'PATRICK'
p5331
a(lp5332
aa(lp5333
S'ENV'
p5334
a(lp5335
aa(lp5336
S'PATRICK'
p5337
a(lp5338
g5049
aS'Woah'
p5339
ag5049
aaa(lp5340
S'ENV'
p5341
a(lp5342
aa(lp5343
S'PATRICK'
p5344
a(lp5345
g51
aS'wouldnt'
p5346
aS'carry'
p5347
aS'my'
p5348
aS'own'
p5349
aS'paperwork'
p5350
aaa(lp5351
S'CORINNA'
p5352
a(lp5353
aa(lp5354
S'PATRICK'
p5355
a(lp5356
S'Forget'
p5357
aS'that'
p5358
aaa(lp5359
g5355
a(lp5360
S'Im'
p5361
aS'guilty'
p5362
aaa(lp5363
g5355
a(lp5364
g51
aS'wouldnt'
p5365
aS'carry'
p5366
aS'it'
p5367
aaa(lp5368
S'ENV'
p5369
a(lp5370
aa(lp5371
S'PATRICK'
p5372
a(lp5373
g4948
aaa(lp5374
S'ENV'
p5375
a(lp5376
aa(lp5377
S'CORINNA'
p5378
a(lp5379
S'Ah'
p5380
aS'jeez'
p5381
aaa(lp5382
g5378
a(lp5383
g51
aS'it'
p5384
aaa(lp5385
S'PATRICK'
p5386
a(lp5387
S'Insanity'
p5388
aaa(lp5389
S'CORINNA'
p5390
a(lp5391
g51
aS'mean'
p5392
aS'its'
p5393
aS'its'
p5394
aaa(lp5395
g5390
a(lp5396
S'kinda'
p5397
aS'reminds'
p5398
aS'me'
p5399
aS'of'
p5400
aS'that'
p5401
aaa(lp5402
g5390
a(lp5403
S'co'
p5404
aaa(lp5405
g5390
a(lp5406
S'Its'
p5407
aS'like'
p5408
aaa(lp5409
g5390
a(lp5410
g51
aS'Im'
p5411
aS'surprised'
p5412
aS'something'
p5413
aS'like'
p5414
aS'him'
p5415
aS'di'
p5416
aaa(lp5417
g5390
a(lp5418
S'you'
p5419
aS'know'
p5420
aS'like'
p5421
aS'uh'
p5422
aS'Dahmer'
p5423
aaa(lp5424
g5390
a(lp5425
S'And'
p5426
aS'whats'
p5427
aS'his'
p5428
aS'name'
p5429
aaa(lp5430
S'PATRICK'
p5431
a(lp5432
S'Mm'
p5433
aaa(lp5434
S'CORINNA'
p5435
a(lp5436
S'that'
p5437
aS'other'
p5438
aS'guy'
p5439
aaa(lp5440
S'PATRICK'
p5441
a(lp5442
S'Mhm'
p5443
aaa(lp5444
S'CORINNA'
p5445
a(lp5446
S'Did'
p5447
aS'happen'
p5448
aS'to'
p5449
aS'him'
p5450
aaa(lp5451
g5445
a(lp5452
S'Cause'
p5453
aS'theyre'
p5454
aS'like'
p5455
aS'weaker'
p5456
aS'type'
p5457
aS'men'
p5458
aaa(lp5459
g5445
a(lp5460
S'You'
p5461
aS'know'
p5462
aS'in'
p5463
aS'prison'
p5464
aS'theyd'
p5465
aS'never'
p5466
aS'survive'
p5467
aaa(lp5468
S'PATRICK'
p5469
a(lp5470
g51
aS'know'
p5471
aaa(lp5472
g5469
a(lp5473
S'Not'
p5474
aS'if'
p5475
aS'you'
p5476
aS'hurt'
p5477
aS'women'
p5478
aaa(lp5479
g5469
a(lp5480
S'Then'
p5481
aS'you'
p5482
aS'become'
p5483
aS'one'
p5484
aaa(lp5485
S'CORINNA'
p5486
a(lp5487
aa(lp5488
S'PATRICK'
p5489
a(lp5490
S'Even'
p5491
aS'though'
p5492
aS'it'
p5493
aS'wouldnt'
p5494
aS'be'
p5495
aS'bad'
p5496
aaa(lp5497
S'CORINNA'
p5498
a(lp5499
S'Well'
p5500
aaa(lp5501
S'PATRICK'
p5502
a(lp5503
S'to'
p5504
aS'have'
p5505
aS'some'
p5506
aS'guy'
p5507
aS'named'
p5508
aS'Bubba'
p5509
aaa(lp5510
g5502
a(lp5511
S'well'
p5512
aaa(lp5513
g5502
a(lp5514
S'we'
p5515
aS'wont'
p5516
aS'go'
p5517
aS'there'
p5518
aaa(lp5519
S'CORINNA'
p5520
a(lp5521
aa(lp5522
g5520
a(lp5523
S'Well'
p5524
aS'that'
p5525
aS'doesnt'
p5526
aaa(lp5527
g5520
a(lp5528
S'Been'
p5529
aS'reading'
p5530
aS'those'
p5531
aS'books'
p5532
aS'is'
p5533
aS'like'
p5534
aaa(lp5535
g5520
a(lp5536
S'oh'
p5537
aS'my'
p5538
aS'God'
p5539
aaa(lp5540
g5520
a(lp5541
S'its'
p5542
aS'like'
p5543
aS'there'
p5544
aaa(lp5545
g5520
a(lp5546
S'theres'
p5547
aS'this'
p5548
aS'one'
p5549
aaa(lp5550
g5520
a(lp5551
S'like'
p5552
aS'they'
p5553
aS'tell'
p5554
aS'like'
p5555
aS'the'
p5556
aS'different'
p5557
aS'guys'
p5558
aS'point'
p5559
aS'of'
p5560
aS'view'
p5561
aS'sometime'
p5562
aaa(lp5563
g5520
a(lp5564
S'And'
p5565
aS'this'
p5566
aS'one'
p5567
aS'guy'
p5568
aaa(lp5569
S'PATRICK'
p5570
a(lp5571
aa(lp5572
S'CORINNA'
p5573
a(lp5574
S'he'
p5575
aS'uh'
p5576
aaa(lp5577
S'PATRICK'
p5578
a(lp5579
aa(lp5580
S'CORINNA'
p5581
a(lp5582
S'there'
p5583
aaa(lp5584
g5581
a(lp5585
S'Well'
p5586
aS'actually'
p5587
aS'they'
p5588
aS'tell'
p5589
aS'like'
p5590
ag11
aS'couple'
p5591
aS'different'
p5592
aS'guys'
p5593
ag619
aS'point'
p5594
aS'of'
p5595
aS'view'
p5596
aaa(lp5597
g5581
a(lp5598
S'and'
p5599
aS'the'
p5600
aS'guys'
p5601
aS'get'
p5602
aS'raped'
p5603
aS'too'
p5604
aaa(lp5605
S'PATRICK'
p5606
a(lp5607
S'Ah'
p5608
aaa(lp5609
S'CORINNA'
p5610
a(lp5611
S'And'
p5612
aS'then'
p5613
aS'like'
p5614
aaa(lp5615
g5610
a(lp5616
S'and'
p5617
aS'then'
p5618
aS'theyll'
p5619
aS'like'
p5620
aS'take'
p5621
aS'these'
p5622
aS'butt'
p5623
aS'plugs'
p5624
aaa(lp5625
g5610
a(lp5626
S'or'
p5627
aS'whatever'
p5628
aS'you'
p5629
aS'wanna'
p5630
aS'call'
p5631
aS'em'
p5632
aaa(lp5633
g5610
a(lp5634
S'and'
p5635
aS'theyll'
p5636
aS'shove'
p5637
aS'it'
p5638
aS'up'
p5639
aS'their'
p5640
aS'anus'
p5641
aaa(lp5642
g5610
a(lp5643
S'and'
p5644
aaa(lp5645
g5610
a(lp5646
S'they'
p5647
aS'have'
p5648
aS'to'
p5649
aS'walk'
p5650
aS'around'
p5651
aS'with'
p5652
aS'it'
p5653
aaa(lp5654
S'PATRICK'
p5655
a(lp5656
S'Ah'
p5657
aaa(lp5658
S'CORINNA'
p5659
a(lp5660
S'And'
p5661
aS'then'
p5662
aS'they'
p5663
aS'have'
p5664
aaa(lp5665
g5659
a(lp5666
S'its'
p5667
aS'like'
p5668
aaa(lp5669
g5659
a(lp5670
S'sometimes'
p5671
aS'theyll'
p5672
aS'like'
p5673
aS'stuff'
p5674
aS'this'
p5675
aS'other'
p5676
aS'gag'
p5677
aS'in'
p5678
aS'their'
p5679
aS'mouth'
p5680
aaa(lp5681
g5659
a(lp5682
S'thats'
p5683
aS'the'
p5684
aS'shape'
p5685
aS'of'
p5686
ag11
aS'penis'
p5687
aaa(lp5688
g5659
a(lp5689
S'And'
p5690
aS'like'
p5691
aS'tie'
p5692
aS'it'
p5693
aS'on'
p5694
aS'their'
p5695
aS'face'
p5696
aaa(lp5697
S'PATRICK'
p5698
a(lp5699
aa(lp5700
S'CORINNA'
p5701
a(lp5702
S'And'
p5703
aS'they'
p5704
aS'have'
p5705
aS'to'
p5706
aS'walk'
p5707
aaa(lp5708
g5701
a(lp5709
S'And'
p5710
aS'its'
p5711
aS'like'
p5712
aaa(lp5713
g5701
a(lp5714
S'this'
p5715
aS'one'
p5716
aS'guy'
p5717
aS'was'
p5718
aS't'
p5719
aS'say'
p5720
aS'it'
p5721
aS'was'
p5722
aS'like'
p5723
aaa(lp5724
g5701
a(lp5725
S'they'
p5726
aS'got'
p5727
aS'sent'
p5728
aS'to'
p5729
aS'the'
p5730
aS'village'
p5731
aaa(lp5732
g5701
a(lp5733
S'Which'
p5734
aS'you'
p5735
aS'dont'
p5736
aS'wanna'
p5737
aS'get'
p5738
aS'sent'
p5739
aS'to'
p5740
aS'the'
p5741
aS'village'
p5742
aaa(lp5743
g5701
a(lp5744
S'But'
p5745
aS'they'
p5746
aS'do'
p5747
aaa(lp5748
g5701
a(lp5749
S'And'
p5750
aaa(lp5751
g5701
a(lp5752
S'they'
p5753
aS'go'
p5754
aaa(lp5755
g5701
a(lp5756
S'it'
p5757
aS'was'
p5758
aS'like'
p5759
aS'this'
p5760
aS'one'
p5761
aS'guy'
p5762
aaa(lp5763
g5701
a(lp5764
S'he'
p5765
aS'gets'
p5766
aS'this'
p5767
aS'master'
p5768
aaa(lp5769
g5701
a(lp5770
S'And'
p5771
aaa(lp5772
g5701
a(lp5773
S'he'
p5774
aS'winds'
p5775
aS'up'
p5776
aaa(lp5777
g5701
a(lp5778
S'the'
p5779
aS'master'
p5780
aS'fi'
p5781
aS'falls'
p5782
aS'in'
p5783
aS'love'
p5784
aS'with'
p5785
aS'him'
p5786
aaa(lp5787
g5701
a(lp5788
S'but'
p5789
aS'he'
p5790
aS'was'
p5791
aS'like'
p5792
aaa(lp5793
g5701
a(lp5794
S'like'
p5795
aS'the'
p5796
aS'day'
p5797
aS'before'
p5798
aaa(lp5799
g5701
a(lp5800
S'he'
p5801
aS'makes'
p5802
aS'him'
p5803
aS'walk'
p5804
aS'around'
p5805
aaa(lp5806
g5701
a(lp5807
S'hes'
p5808
aS'like'
p5809
ag11
ag1024
aS'human'
p5810
aS'pony'
p5811
aaa(lp5812
g5701
a(lp5813
S'And'
p5814
aS'they'
p5815
aS'stick'
p5816
aS'the'
p5817
aaa(lp5818
g5701
a(lp5819
S'the'
p5820
aS'thing'
p5821
aS'up'
p5822
aS'his'
p5823
aS'anus'
p5824
aaa(lp5825
g5701
a(lp5826
S'And'
p5827
aS'its'
p5828
aS'got'
p5829
aS'like'
p5830
ag11
aS'horse'
p5831
aS'h'
p5832
aaa(lp5833
S'PATRICK'
p5834
a(lp5835
g4234
aS'tail'
p5836
aaa(lp5837
S'CORINNA'
p5838
a(lp5839
g4234
aS'tail'
p5840
aaa(lp5841
S'PATRICK'
p5842
a(lp5843
S'Yeah'
p5844
aaa(lp5845
S'CORINNA'
p5846
a(lp5847
S'And'
p5848
aaa(lp5849
g5846
a(lp5850
S'he'
p5851
aS'has'
p5852
aS'to'
p5853
aS'run'
p5854
aS'around'
p5855
aS'the'
p5856
aS'city'
p5857
aaa(lp5858
g5846
a(lp5859
S'hes'
p5860
aS'like'
p5861
aS'pulling'
p5862
ag11
aS'cart'
p5863
aS'with'
p5864
aS'these'
p5865
aS'other'
p5866
aS'people'
p5867
aaa(lp5868
g5846
a(lp5869
S'Pulling'
p5870
aS'this'
p5871
aS'cart'
p5872
aS'around'
p5873
aaa(lp5874
g5846
a(lp5875
S'with'
p5876
aS'this'
p5877
aS'thing'
p5878
aS'up'
p5879
aS'his'
p5880
aS'butt'
p5881
aaa(lp5882
S'PATRICK'
p5883
a(lp5884
S'Mhm'
p5885
aaa(lp5886
S'CORINNA'
p5887
a(lp5888
S'And'
p5889
aaa(lp5890
g5887
a(lp5891
S'it'
p5892
aS'was'
p5893
aS'like'
p5894
aaa(lp5895
g5887
a(lp5896
S'parade'
p5897
aS'around'
p5898
aS'like'
p5899
aS'that'
p5900
aaa(lp5901
S'PATRICK'
p5902
a(lp5903
S'Thats'
p5904
aS'cool'
p5905
aaa(lp5906
g5902
a(lp5907
S'Ah'
p5908
aS'oh'
p5909
aaa(lp5910
S'CORINNA'
p5911
a(lp5912
S'And'
p5913
aaa(lp5914
g5911
a(lp5915
S'Im'
p5916
aS'just'
p5917
aS'sort'
p5918
aS'of'
p5919
aS'going'
p5920
aaa(lp5921
g5911
a(lp5922
S'VOX'
p5923
aS'ugh'
p5924
aS'VOX'
p5925
aaa(lp5926
S'PATRICK'
p5927
a(lp5928
S'Why'
p5929
aaa(lp5930
S'CORINNA'
p5931
a(lp5932
S'VOX'
p5933
aS'Ugh'
p5934
aaa(lp5935
g5931
a(lp5936
S'so'
p5937
aS'nasty'
p5938
aS'VOX'
p5939
aaa(lp5940
S'PATRICK'
p5941
a(lp5942
S'Why'
p5943
aS'is'
p5944
aS'it'
p5945
aS'nasty'
p5946
aaa(lp5947
S'CORINNA'
p5948
a(lp5949
g51
aS'dont'
p5950
aS'know'
p5951
aaa(lp5952
g5948
a(lp5953
S'Its'
p5954
aaa(lp5955
g5948
a(lp5956
g51
aS'was'
p5957
aS'talking'
p5958
aS'to'
p5959
aS'my'
p5960
aS'one'
p5961
aS'friend'
p5962
aS'to'
p5963
aS'uh'
p5964
aaa(lp5965
g5948
a(lp5966
S'her'
p5967
aS'names'
p5968
aS'Leah'
p5969
aaa(lp5970
g5948
a(lp5971
S'And'
p5972
aaa(lp5973
g5948
a(lp5974
S'shes'
p5975
aS'Iranian'
p5976
aaa(lp5977
g5948
a(lp5978
S'Well'
p5979
aS'actually'
p5980
aS'shes'
p5981
aS'quite'
p5982
aS'cool'
p5983
aaa(lp5984
g5948
a(lp5985
S'shes'
p5986
ag1024
aaa(lp5987
g5948
a(lp5988
S'Shes'
p5989
aS'Muslim'
p5990
aaa(lp5991
g5948
a(lp5992
S'Its'
p5993
aS'like'
p5994
aaa(lp5995
g5948
a(lp5996
S'she'
p5997
aS'uh'
p5998
aaa(lp5999
g5948
a(lp6000
S'shes'
p6001
aS'not'
p6002
ag11
aS'virgin'
p6003
aaa(lp6004
g5948
a(lp6005
S'But'
p6006
aaa(lp6007
g5948
a(lp6008
S'uh'
p6009
aaa(lp6010
S'PATRICK'
p6011
a(lp6012
S'Ooh'
p6013
aaa(lp6014
g6011
a(lp6015
S'she'
p6016
aS'could'
p6017
aS'be'
p6018
aS'stoned'
p6019
aaa(lp6020
S'CORINNA'
p6021
a(lp6022
aa(lp6023
S'PATRICK'
p6024
a(lp6025
S'Go'
p6026
aS'ahead'
p6027
aaa(lp6028
S'CORINNA'
p6029
a(lp6030
S'But'
p6031
aaa(lp6032
g6029
a(lp6033
g51
aS'mean'
p6034
aaa(lp6035
g6029
a(lp6036
S'but'
p6037
aS'shes'
p6038
aS'been'
p6039
aS'raised'
p6040
aS'here'
p6041
aaa(lp6042
S'PATRICK'
p6043
a(lp6044
S'Ah'
p6045
aaa(lp6046
g6043
a(lp6047
S'Really'
p6048
aaa(lp6049
g6043
a(lp6050
S'Is'
p6051
aS'she'
p6052
aS'single'
p6053
aaa(lp6054
S'CORINNA'
p6055
a(lp6056
S'Uh'
p6057
aaa(lp6058
g6055
a(lp6059
S'no'
p6060
aaa(lp6061
g6055
a(lp6062
S'shes'
p6063
aS'uh'
p6064
aaa(lp6065
g6055
a(lp6066
S'ac'
p6067
aS'actually'
p6068
aS'her'
p6069
aS'boyfriends'
p6070
aS'coming'
p6071
aS'in'
p6072
aS'from'
p6073
aS'Morocco'
p6074
aaa(lp6075
S'PATRICK'
p6076
a(lp6077
S'Okay'
p6078
aaa(lp6079
g6076
a(lp6080
S'No'
p6081
aaa(lp6082
g6076
a(lp6083
g51
aS'was'
p6084
aS'just'
p6085
aS'joking'
p6086
aS'anyways'
p6087
aS'but'
p6088
aaa(lp6089
S'CORINNA'
p6090
a(lp6091
S'But'
p6092
aaa(lp6093
S'PATRICK'
p6094
a(lp6095
S'Can'
p6096
ag51
aS'see'
p6097
aS'your'
p6098
aS'Marlboro'
p6099
aS'case'
p6100
aS'for'
p6101
ag11
aS'second'
p6102
aaa(lp6103
g6094
a(lp6104
S'Just'
p6105
aS'keep'
p6106
aS'talking'
p6107
aaa(lp6108
S'CORINNA'
p6109
a(lp6110
S'And'
p6111
aS'uh'
p6112
aaa(lp6113
g6109
a(lp6114
S'anyway'
p6115
aaa(lp6116
g6109
a(lp6117
S'she'
p6118
aS'uh'
p6119
aaa(lp6120
g6109
a(lp6121
S'they'
p6122
aS'ran'
p6123
aS'out'
p6124
aS'of'
p6125
aS'Marlboro'
p6126
aS'Lights'
p6127
aS'at'
p6128
aS'work'
p6129
aaa(lp6130
g6109
a(lp6131
S'so'
p6132
ag51
aS'had'
p6133
aS'to'
p6134
aS'go'
p6135
aS'to'
p6136
aS'Marlboros'
p6137
aaa(lp6138
S'PATRICK'
p6139
a(lp6140
S'And'
p6141
aS'then'
p6142
aS'Ill'
p6143
ag5719
aS'show'
p6144
aS'you'
p6145
aS'something'
p6146
aS'about'
p6147
aS'these'
p6148
aaa(lp6149
S'CORINNA'
p6150
a(lp6151
S'Okay'
p6152
aaa(lp6153
g6150
a(lp6154
S'But'
p6155
aS'uh'
p6156
aaa(lp6157
g6150
a(lp6158
S'anyway'
p6159
aaa(lp6160
g6150
a(lp6161
S'we'
p6162
aS'were'
p6163
aS'talking'
p6164
aaa(lp6165
g6150
a(lp6166
S'cause'
p6167
aS'its'
p6168
aS'like'
p6169
ag51
aS'was'
p6170
aS'telling'
p6171
aS'her'
p6172
aaa(lp6173
g6150
a(lp6174
S'we'
p6175
aS'were'
p6176
aS'talking'
p6177
aS'about'
p6178
aS'this'
p6179
aS'these'
p6180
aaa(lp6181
g6150
a(lp6182
g51
aS'was'
p6183
aS'telling'
p6184
aS'her'
p6185
aS'about'
p6186
aS'the'
p6187
aS'books'
p6188
ag51
aS'was'
p6189
aS'reading'
p6190
aaa(lp6191
g6150
a(lp6192
S'and'
p6193
aS'then'
p6194
aS'we'
p6195
aS'got'
p6196
aS'on'
p6197
aS'the'
p6198
aS'subject'
p6199
aS'of'
p6200
aS'anal'
p6201
aS'sex'
p6202
aaa(lp6203
g6150
a(lp6204
S'and'
p6205
ag51
aS'told'
p6206
aS'her'
p6207
ag51
aS'was'
p6208
aS'like'
p6209
aS'well'
p6210
aaa(lp6211
g6150
a(lp6212
g51
aS'remember'
p6213
aS'when'
p6214
aaa(lp6215
g6150
a(lp6216
S'my'
p6217
aS'exboyfriend'
p6218
aS'tried'
p6219
aS'to'
p6220
aS'get'
p6221
aS'me'
p6222
aS'to'
p6223
aS'try'
p6224
aS'it'
p6225
aaa(lp6226
g6150
a(lp6227
S'But'
p6228
ag51
aS'said'
p6229
aaa(lp6230
g6150
a(lp6231
S'Always'
p6232
aS'told'
p6233
aS'him'
p6234
aS'no'
p6235
aaa(lp6236
S'PATRICK'
p6237
a(lp6238
S'Mhm'
p6239
aaa(lp6240
S'CORINNA'
p6241
a(lp6242
S'MRC'
p6243
aS'Things'
p6244
aS'are'
p6245
aS'meant'
p6246
aS'to'
p6247
aS'come'
p6248
aS'out'
p6249
aaa(lp6250
g6241
a(lp6251
S'not'
p6252
aS'go'
p6253
aS'in'
p6254
aS'MRC'
p6255
aaa(lp6256
g6241
a(lp6257
S'in'
p6258
aS'that'
p6259
aS'hole'
p6260
aaa(lp6261
S'PATRICK'
p6262
a(lp6263
S'Hm'
p6264
aaa(lp6265
S'CORINNA'
p6266
a(lp6267
aa(lp6268
g6266
a(lp6269
S'She'
p6270
aS'said'
p6271
aS'that'
p6272
aS'she'
p6273
aS'had'
p6274
aS'done'
p6275
aS'it'
p6276
aaa(lp6277
g6266
a(lp6278
S'Like'
p6279
aS'twice'
p6280
aaa(lp6281
g6266
a(lp6282
S'Shes'
p6283
aS'like'
p6284
aaa(lp6285
g6266
a(lp6286
S'oh'
p6287
aS'my'
p6288
aS'God'
p6289
ag51
aS'feel'
p6290
aS'so'
p6291
aS'dirty'
p6292
aS'whenever'
p6293
ag51
aS'do'
p6294
aS'it'
p6295
aaa(lp6296
g6266
a(lp6297
S'and'
p6298
aS'it'
p6299
aS'hurts'
p6300
aS'so'
p6301
aS'fucking'
p6302
aS'bad'
p6303
aaa(lp6304
S'PATRICK'
p6305
a(lp6306
S'Mhm'
p6307
aaa(lp6308
S'CORINNA'
p6309
a(lp6310
S'And'
p6311
aaa(lp6312
g6309
a(lp6313
S'that'
p6314
aS'convinced'
p6315
aaa(lp6316
g6309
a(lp6317
S'Im'
p6318
aS'like'
p6319
aaa(lp6320
g6309
a(lp6321
S'VOX'
p6322
aS'okay'
p6323
aS'VOX'
p6324
aaa(lp6325
g6309
a(lp6326
S'shes'
p6327
aS'like'
p6328
aaa(lp6329
g6309
a(lp6330
S'VOX'
p6331
aS'dont'
p6332
aS'do'
p6333
aS'it'
p6334
aS'ever'
p6335
aS'VOX'
p6336
aaa(lp6337
S'PATRICK'
p6338
a(lp6339
S'Mm'
p6340
aaa(lp6341
S'CORINNA'
p6342
a(lp6343
S'Cause'
p6344
aS'the'
p6345
aS'one'
p6346
aS'thing'
p6347
aS'thats'
p6348
aS'like'
p6349
aaa(lp6350
g6342
a(lp6351
S'when'
p6352
ag51
aaa(lp6353
g6342
a(lp6354
S'what'
p6355
aaa(lp6356
g6342
a(lp6357
S'When'
p6358
aS'uh'
p6359
aaa(lp6360
g6342
a(lp6361
S'Lamar'
p6362
aS'kept'
p6363
aS'pressuring'
p6364
aS'me'
p6365
aS'to'
p6366
aS'do'
p6367
aS'it'
p6368
aaa(lp6369
g6342
a(lp6370
S'and'
p6371
aS'she'
p6372
aS'said'
p6373
aS'that'
p6374
aS'like'
p6375
aaa(lp6376
g6342
a(lp6377
S'when'
p6378
aS'you'
p6379
aaa(lp6380
g6342
a(lp6381
S'in'
p6382
aS'the'
p6383
aS'Muslim'
p6384
aaa(lp6385
g6342
a(lp6386
S'its'
p6387
aS'like'
p6388
aS'if'
p6389
aS'you'
p6390
aS'do'
p6391
aS'that'
p6392
aaa(lp6393
g6342
a(lp6394
S'you'
p6395
aS'know'
p6396
aaa(lp6397
g6342
a(lp6398
S'its'
p6399
aS'like'
p6400
aaa(lp6401
g6342
a(lp6402
S'in'
p6403
aS'Islam'
p6404
aS'youre'
p6405
aS'cons'
p6406
aS'not'
p6407
aS'considered'
p6408
aS'Muslim'
p6409
aS'anymore'
p6410
aaa(lp6411
S'PATRICK'
p6412
a(lp6413
S'Oh'
p6414
aaa(lp6415
S'CORINNA'
p6416
a(lp6417
S'If'
p6418
aS'you'
p6419
aS'have'
p6420
aS'anal'
p6421
aS'sex'
p6422
aaa(lp6423
g6416
a(lp6424
S'But'
p6425
ag51
aS'remember'
p6426
aS'like'
p6427
aS'uh'
p6428
aaa(lp6429
g6416
a(lp6430
S'Lamar'
p6431
aS'telling'
p6432
aS'me'
p6433
aS'once'
p6434
aS'that'
p6435
aaa(lp6436
g6416
a(lp6437
S'he'
p6438
aS'had'
p6439
ag11
aS'girlfriend'
p6440
aaa(lp6441
g6416
a(lp6442
S'Back'
p6443
aS'home'
p6444
aaa(lp6445
g6416
a(lp6446
S'And'
p6447
aS'she'
p6448
aS'didnt'
p6449
aS'wanna'
p6450
aS'lose'
p6451
aS'her'
p6452
aS'virginity'
p6453
aaa(lp6454
g6416
a(lp6455
S'They'
p6456
aS'were'
p6457
aS'gonna'
p6458
aS'have'
p6459
aS'sex'
p6460
aaa(lp6461
g6416
a(lp6462
S'so'
p6463
aS'its'
p6464
aS'like'
p6465
aS'instead'
p6466
aaa(lp6467
g6416
a(lp6468
S'they'
p6469
aS'always'
p6470
aS'had'
p6471
aS'anal'
p6472
aS'sex'
p6473
aaa(lp6474
g6416
a(lp6475
S'Instead'
p6476
aaa(lp6477
S'PATRICK'
p6478
a(lp6479
S'Wow'
p6480
aaa(lp6481
S'CORINNA'
p6482
a(lp6483
S'And'
p6484
aaa(lp6485
g6482
a(lp6486
S'Im'
p6487
aS'like'
p6488
aaa(lp6489
g6482
a(lp6490
S'VOX'
p6491
aS'ugh'
p6492
aS'VOX'
p6493
aaa(lp6494
S'PATRICK'
p6495
a(lp6496
aa(lp6497
S'CORINNA'
p6498
a(lp6499
S'VOX'
p6500
aS'Ugh'
p6501
aS'VOX'
p6502
aaa(lp6503
S'PATRICK'
p6504
a(lp6505
S'Wow'
p6506
aaa(lp6507
S'CORINNA'
p6508
a(lp6509
S'Okay'
p6510
aS'what'
p6511
aS'are'
p6512
aS'you'
p6513
aS'gonna'
p6514
aS'show'
p6515
aS'me'
p6516
aaa(lp6517
S'PATRICK'
p6518
a(lp6519
aa(lp6520
g6518
a(lp6521
S'This'
p6522
aS'is'
p6523
aS'interesting'
p6524
aaa(lp6525
g6518
a(lp6526
g51
aS'didnt'
p6527
aS'know'
p6528
aS'this'
p6529
aS'until'
p6530
aS'like'
p6531
aaa(lp6532
g6518
a(lp6533
g51
aS'l'
p6534
ag51
aS'listened'
p6535
aS'to'
p6536
aS'Def'
p6537
aS'Comedy'
p6538
aS'Jam'
p6539
aaa(lp6540
g6518
a(lp6541
S'This'
p6542
aS'guy'
p6543
aS'was'
p6544
aS'telling'
p6545
aS'jokes'
p6546
aS'about'
p6547
aS'Marlboros'
p6548
aaa(lp6549
g6518
a(lp6550
S'And'
p6551
aS'how'
p6552
aS'theyre'
p6553
aS'racist'
p6554
aaa(lp6555
g6518
a(lp6556
S'Did'
p6557
aS'you'
p6558
aS'ever'
p6559
aS'hear'
p6560
aS'this'
p6561
aaa(lp6562
S'CORINNA'
p6563
a(lp6564
S'No'
p6565
aaa(lp6566
S'PATRICK'
p6567
a(lp6568
S'Did'
p6569
aS'you'
p6570
aS'ever'
p6571
aS'notice'
p6572
ag11
aS'Marlboro'
p6573
aaa(lp6574
g6567
a(lp6575
S'the'
p6576
aS'sign'
p6577
aaa(lp6578
g6567
a(lp6579
S'That'
p6580
aaa(lp6581
g6567
a(lp6582
S'this'
p6583
aS'thing'
p6584
aS'right'
p6585
aS'here'
p6586
aaa(lp6587
S'CORINNA'
p6588
a(lp6589
S'The'
p6590
aS'filt'
p6591
aaa(lp6592
S'PATRICK'
p6593
a(lp6594
S'The'
p6595
aS'whole'
p6596
aS'red'
p6597
aS'thing'
p6598
aaa(lp6599
g6593
a(lp6600
S'The'
p6601
aS'red'
p6602
aS'thing'
p6603
aaa(lp6604
S'CORINNA'
p6605
a(lp6606
S'Okay'
p6607
aaa(lp6608
S'PATRICK'
p6609
a(lp6610
S'Okay'
p6611
aaa(lp6612
g6609
a(lp6613
S'now'
p6614
ag1075
aaa(lp6615
g6609
a(lp6616
S'Are'
p6617
aS'you'
p6618
aS'watching'
p6619
aS'me'
p6620
aaa(lp6621
S'CORINNA'
p6622
a(lp6623
S'Yeah'
p6624
aaa(lp6625
S'PATRICK'
p6626
a(lp6627
S'Its'
p6628
ag11
aS'kay'
p6629
aaa(lp6630
g6626
a(lp6631
S'Theres'
p6632
ag11
aS'kay'
p6633
aaa(lp6634
g6626
a(lp6635
S'Theres'
p6636
ag11
aS'kay'
p6637
aaa(lp6638
g6626
a(lp6639
S'okay'
p6640
aS'you'
p6641
aS'with'
p6642
aS'me'
p6643
aaa(lp6644
S'CORINNA'
p6645
a(lp6646
S'Unhunh'
p6647
aaa(lp6648
S'PATRICK'
p6649
a(lp6650
S'So'
p6651
aaa(lp6652
g6649
a(lp6653
S'heres'
p6654
ag11
aS'kay'
p6655
aaa(lp6656
g6649
a(lp6657
S'heres'
p6658
ag11
aS'kay'
p6659
aaa(lp6660
g6649
a(lp6661
S'heres'
p6662
ag11
aS'kay'
p6663
aaa(lp6664
g6649
a(lp6665
S'Theres'
p6666
aS'no'
p6667
aS'kay'
p6668
aaa(lp6669
g6649
a(lp6670
S'Three'
p6671
aS'kays'
p6672
aaa(lp6673
S'CORINNA'
p6674
a(lp6675
S'Oh'
p6676
aaa(lp6677
S'PATRICK'
p6678
a(lp6679
S'Get'
p6680
aS'it'
p6681
aaa(lp6682
S'CORINNA'
p6683
a(lp6684
S'Never'
p6685
aS'even'
p6686
aS'thought'
p6687
aS'about'
p6688
aS'it'
p6689
aaa(lp6690
S'PATRICK'
p6691
a(lp6692
g51
aS'never'
p6693
aS'did'
p6694
aS'either'
p6695
aaa(lp6696
g6691
a(lp6697
S'Until'
p6698
ag51
aS'looked'
p6699
aS'at'
p6700
aS'this'
p6701
aS'and'
p6702
aS'Im'
p6703
aS'like'
p6704
aaa(lp6705
g6691
a(lp6706
S'VOX'
p6707
aS'well'
p6708
aS'theres'
p6709
aS'room'
p6710
aS'enough'
p6711
aS'to'
p6712
aS'put'
p6713
aS'another'
p6714
aS'kay'
p6715
aS'here'
p6716
aaa(lp6717
g6691
a(lp6718
S'You'
p6719
aS'know'
p6720
aS'VOX'
p6721
aaa(lp6722
g6691
a(lp6723
S'Somewhere'
p6724
aaa(lp6725
g6691
a(lp6726
S'but'
p6727
aS'theres'
p6728
aS'not'
p6729
aaa(lp6730
g6691
a(lp6731
S'Get'
p6732
aS'it'
p6733
aaa(lp6734
S'CORINNA'
p6735
a(lp6736
S'Yeah'
p6737
aaa(lp6738
S'PATRICK'
p6739
a(lp6740
S'Theres'
p6741
aS'no'
p6742
aS'kay'
p6743
aS'anywhere'
p6744
aS'else'
p6745
aaa(lp6746
g6739
a(lp6747
S'Three'
p6748
aS'kays'
p6749
aaa(lp6750
S'CORINNA'
p6751
a(lp6752
g4948
aaa(lp6753
S'PATRICK'
p6754
a(lp6755
aa(lp6756
g6754
a(lp6757
S'But'
p6758
aS'its'
p6759
aaa(lp6760
S'CORINNA'
p6761
a(lp6762
aa(lp6763
S'PATRICK'
p6764
a(lp6765
g51
aS'just'
p6766
aS'thought'
p6767
aS'youd'
p6768
aS'find'
p6769
aS'it'
p6770
aS'interesting'
p6771
aaa(lp6772
g6764
a(lp6773
S'Anyways'
p6774
aS'cool'
p6775
aaa(lp6776
g6764
a(lp6777
S'Okay'
p6778
aaa(lp6779
g6764
a(lp6780
S'What'
p6781
aS'is'
p6782
aS'this'
p6783
aS'guy'
p6784
aS'doing'
p6785
aS'now'
p6786
aaa.