(lp0
(lp1
S'ALAN'
p2
a(lp3
S'I'
p4
aS'got'
p5
aS'a'
p6
aS'story'
p7
aS'to'
p8
aS'tell'
p9
aS'you'
p10
aaa(lp11
g2
a(lp12
S'its'
p13
ag6
aS'shaggy'
p14
aS'dog'
p15
aS'story'
p16
aaa(lp17
g2
a(lp18
S'but'
p19
aS'as'
p20
aS'long'
p21
aS'as'
p22
aS'were'
p23
aS'talking'
p24
aS'about'
p25
aS'that'
p26
aS'recorder'
p27
aS'and'
p28
aS'sixhundred'
p29
aS'dollars'
p30
aaa(lp31
g2
a(lp32
S'Ill'
p33
aS'tell'
p34
aS'you'
p35
aS'the'
p36
aS'story'
p37
aaa(lp38
g2
a(lp39
S'oh'
p40
aS'gosh'
p41
aaa(lp42
g2
a(lp43
S'uh'
p44
aaa(lp45
g2
a(lp46
S'Rae'
p47
aS'and'
p48
ag4
aS'and'
p49
aS'Sue'
p50
aS'and'
p51
aS'Buddy'
p52
aaa(lp53
g2
a(lp54
S'took'
p55
ag6
aS'trip'
p56
aaa(lp57
g2
a(lp58
S'to'
p59
aS'Mexico'
p60
aS'City'
p61
aaa(lp62
S'JON'
p63
a(lp64
aa(lp65
S'ALANIt'
p66
a(lp67
S'mustve'
p68
aS'been'
p69
aaa(lp70
g66
a(lp71
S'four'
p72
aS'to'
p73
aS'six'
p74
aS'months'
p75
aS'after'
p76
aS'my'
p77
aS'dad'
p78
aS'died'
p79
aaa(lp80
g66
a(lp81
S'Thats'
p82
aS'how'
p83
ag4
aS'remember'
p84
aS'it'
p85
aaa(lp86
g66
a(lp87
S'he'
p88
aS'died'
p89
aS'in'
p90
aS'sixtys'
p91
aaa(lp92
S'JONOh'
p93
a(lp94
S'God'
p95
aaa(lp96
S'ALAN'
p97
a(lp98
S'December'
p99
aS'sixtyseven'
p100
aaa(lp101
g97
a(lp102
S'so'
p103
aaa(lp104
g97
a(lp105
S'sometime'
p106
aS'in'
p107
aS'sixtyeight'
p108
aS'we'
p109
aS'took'
p110
aS'this'
p111
aS'trip'
p112
aaa(lp113
g97
a(lp114
S'wed'
p115
aS'been'
p116
aS'talking'
p117
aS'about'
p118
aS'it'
p119
aS'for'
p120
ag6
aS'while'
p121
aaa(lp122
g97
a(lp123
S'uh'
p124
aaa(lp125
g97
a(lp126
S'flew'
p127
aS'down'
p128
aS'to'
p129
aS'Mexico'
p130
aS'City'
p131
aaa(lp132
g97
a(lp133
S'uh'
p134
aS'we'
p135
aaa(lp136
g97
a(lp137
S'c'
p138
aS'think'
p139
aS'of'
p140
aS'the'
p141
aS'name'
p142
aS'of'
p143
aS'my'
p144
aS'hotel'
p145
aaa(lp146
g97
a(lp147
S'which'
p148
aS'wouldnt'
p149
aS'mean'
p150
aS'anything'
p151
aS'now'
p152
aaa(lp153
g97
a(lp154
S'but'
p155
aS'we'
p156
aS'ended'
p157
aS'up'
p158
aS'in'
p159
ag6
aS'fabulous'
p160
aS'hotel'
p161
aaa(lp162
g97
a(lp163
S'uh'
p164
aaa(lp165
g97
a(lp166
S'first'
p167
aS'night'
p168
aaa(lp169
g97
a(lp170
S'we'
p171
aS'were'
p172
aS'VOX'
p173
aS'very'
p174
aS'unhappy'
p175
aS'VOX'
p176
aS'with'
p177
aS'our'
p178
aS'rooms'
p179
aaa(lp180
g97
a(lp181
S'we'
p182
aS'got'
p183
aS'down'
p184
aS'there'
p185
aaa(lp186
g97
a(lp187
S'and'
p188
aS'the'
p189
aS'next'
p190
aS'morning'
p191
aaa(lp192
g97
a(lp193
S'Buddy'
p194
aaa(lp195
g97
a(lp196
S'whos'
p197
ag6
aS'early'
p198
aS'riser'
p199
aS'anyhow'
p200
aaa(lp201
g97
a(lp202
S'was'
p203
aS'probably'
p204
aS'up'
p205
aS'four'
p206
aS'oclock'
p207
aaa(lp208
g97
a(lp209
S'and'
p210
aS'he'
p211
aS'went'
p212
aS'down'
p213
aS'there'
p214
aS'complaining'
p215
aS'to'
p216
aS'the'
p217
aS'manager'
p218
aaa(lp219
g97
a(lp220
S'So'
p221
aaa(lp222
g97
a(lp223
S'cause'
p224
aS'it'
p225
aS'was'
p226
aS'not'
p227
aS'w'
p228
aS'the'
p229
aS'accommodation'
p230
aS'we'
p231
aS'were'
p232
aS'supposed'
p233
aS'to'
p234
aS'have'
p235
aS'had'
p236
aaa(lp237
g97
a(lp238
S'we'
p239
aS'checked'
p240
aS'in'
p241
aS'about'
p242
aS'eight'
p243
aS'oclock'
p244
aS'at'
p245
aS'night'
p246
aS'or'
p247
aS'so'
p248
aaa(lp249
g97
a(lp250
S'which'
p251
aS'is'
p252
aaa(lp253
g97
a(lp254
S'in'
p255
aS'Mexico'
p256
aS'is'
p257
aS'like'
p258
aaa(lp259
g97
a(lp260
S'you'
p261
aS'know'
p262
aaa(lp263
g97
a(lp264
S'X'
p265
aS'the'
p266
ag265
aaa(lp267
g97
a(lp268
S'Well'
p269
aS'we'
p270
aS'ended'
p271
aS'up'
p272
aS'with'
p273
ag6
aS'corner'
p274
aS'suite'
p275
aaa(lp276
g97
a(lp277
S'With'
p278
aaa(lp279
g97
a(lp280
S'It'
p281
aS'was'
p282
aS'so'
p283
aS'big'
p284
aaa(lp285
S'JON'
p286
a(lp287
aa(lp288
S'ALANwe'
p289
a(lp290
S'couldve'
p291
aS'had'
p292
ag6
aS'party'
p293
aS'for'
p294
aS'fifty'
p295
aS'people'
p296
aS'XXXXX'
p297
aaa(lp298
g289
a(lp299
S'Three'
p300
aS'bathrooms'
p301
aS'in'
p302
aS'it'
p303
aaa(lp304
g289
a(lp305
S'two'
p306
aS'bedrooms'
p307
aaa(lp308
g289
a(lp309
S'so'
p310
aS'they'
p311
aS'had'
p312
aaa(lp313
g289
a(lp314
S'but'
p315
aS'they'
p316
aS'had'
p317
aS'an'
p318
aS'extra'
p319
aS'guest'
p320
aS'bathroom'
p321
aS'XX'
p322
aaa(lp323
g289
a(lp324
S'big'
p325
aS'bar'
p326
aaa(lp327
g289
a(lp328
S'it'
p329
aS'was'
p330
aS'circ'
p331
aaa(lp332
g289
a(lp333
S'open'
p334
aS'on'
p335
aS'two'
p336
aS'sides'
p337
aaa(lp338
g289
a(lp339
S'of'
p340
aS'course'
p341
aS'we'
p342
aS'didnt'
p343
aS'have'
p344
aS'anybody'
p345
aS'there'
p346
aS'but'
p347
aS'the'
p348
aS'two'
p349
aS'of'
p350
aS'us'
p351
aaa(lp352
g289
a(lp353
S'And'
p354
ag4
aS'remember'
p355
aS'the'
p356
aS'New'
p357
aS'York'
p358
aS'Yankees'
p359
aS'were'
p360
aS'training'
p361
aS'there'
p362
aaa(lp363
g289
a(lp364
S'So'
p365
aS'it'
p366
aS'probably'
p367
aS'was'
p368
aaa(lp369
g289
a(lp370
S'the'
p371
aS'season'
p372
aS'opens'
p373
aS'in'
p374
aS'April'
p375
aaa(lp376
g289
a(lp377
S'so'
p378
aS'it'
p379
aS'probably'
p380
aS'was'
p381
aS'February'
p382
aS'or'
p383
aS'March'
p384
aaa(lp385
g289
a(lp386
S'Mickey'
p387
aS'Mantle'
p388
aaa(lp389
g289
a(lp390
S'and'
p391
aS'uh'
p392
aS'Whitey'
p393
aS'Ford'
p394
aS'and'
p395
aS'all'
p396
aS'of'
p397
aS'em'
p398
aaa(lp399
g289
a(lp400
g4
aS'wish'
p401
aS'Id'
p402
aS'been'
p403
aS'smart'
p404
aS'enough'
p405
aS'to'
p406
aS'know'
p407
aS'then'
p408
aS'that'
p409
aS'uh'
p410
aaa(lp411
g289
a(lp412
S'these'
p413
aS'baseball'
p414
aS'cards'
p415
aaa(lp416
g289
a(lp417
S'and'
p418
aS'those'
p419
aS'autographs'
p420
aaa(lp421
g289
a(lp422
S'would'
p423
aS'be'
p424
aS'selling'
p425
aS'for'
p426
aaa(lp427
g289
a(lp428
S'three'
p429
aS'or'
p430
aS'four'
p431
aS'hundred'
p432
aS'dollars'
p433
aaa(lp434
S'JON'
p435
a(lp436
aa(lp437
S'ALANbut'
p438
a(lp439
aa(lp440
g438
a(lp441
S'at'
p442
aS'any'
p443
aS'rate'
p444
aaa(lp445
g438
a(lp446
S'uh'
p447
aaa(lp448
g438
a(lp449
g4
aS'went'
p450
aS'down'
p451
aS'there'
p452
aS'with'
p453
ag6
aS'recorder'
p454
aaa(lp455
g438
a(lp456
S'We'
p457
aS'used'
p458
aS'to'
p459
aaa(lp460
g438
a(lp461
S'We'
p462
aS'had'
p463
aS'those'
p464
aS'things'
p465
aS'at'
p466
aS'the'
p467
aS'store'
p468
aaa(lp469
g438
a(lp470
S'that'
p471
aS'we'
p472
aS'used'
p473
aS'to'
p474
aS'use'
p475
aaa(lp476
g438
a(lp477
S'when'
p478
aS'wed'
p479
aS'go'
p480
aS'out'
p481
aS'of'
p482
aS'town'
p483
aS'and'
p484
aaa(lp485
S'JON'
p486
a(lp487
aa(lp488
S'ALANparticularly'
p489
a(lp490
S'if'
p491
aS'we'
p492
aS'were'
p493
aS'looking'
p494
aS'at'
p495
aS'some'
p496
aS'site'
p497
aaa(lp498
g489
a(lp499
S'or'
p500
aaa(lp501
g489
a(lp502
S'we'
p503
aS'were'
p504
aS'looking'
p505
aS'at'
p506
ag6
aS'store'
p507
aaa(lp508
S'JON'
p509
a(lp510
aa(lp511
S'ALANwhen'
p512
a(lp513
S'we'
p514
aS'had'
p515
aS'some'
p516
aS'comments'
p517
aaa(lp518
g512
a(lp519
S'wed'
p520
aS'talk'
p521
aS'into'
p522
aS'those'
p523
aS'things'
p524
aaa(lp525
g512
a(lp526
S'We'
p527
aS'had'
p528
aS'four'
p529
aS'or'
p530
aS'five'
p531
aS'of'
p532
aS'em'
p533
aaa(lp534
g512
a(lp535
S'Aaron'
p536
aS'had'
p537
aS'one'
p538
aaa(lp539
g512
a(lp540
g4
aS'had'
p541
aS'one'
p542
aaa(lp543
g512
a(lp544
S'Mike'
p545
aS'had'
p546
aS'one'
p547
aaa(lp548
g512
a(lp549
S'XX'
p550
aS'had'
p551
aS'one'
p552
aaa(lp553
g512
a(lp554
g265
aS'from'
p555
aS'that'
p556
aS'financial'
p557
aS'guy'
p558
ag265
aaa(lp559
g512
a(lp560
S'Things'
p561
aS'sold'
p562
aS'at'
p563
aS'the'
p564
aS'time'
p565
aS'for'
p566
aS'about'
p567
aS'eight'
p568
aS'or'
p569
aS'ninehundred'
p570
aS'dollars'
p571
aaa(lp572
S'JON'
p573
a(lp574
S'Eight'
p575
aS'or'
p576
aS'ninehundred'
p577
aaa(lp578
S'ALANEight'
p579
a(lp580
aa(lp581
g579
a(lp582
S'Eight'
p583
aS'or'
p584
aS'ninehundred'
p585
aS'dollars'
p586
aaa(lp587
S'JON'
p588
a(lp589
aa(lp590
S'ALAN'
p591
a(lp592
S'Uh'
p593
aaa(lp594
g591
a(lp595
S'you'
p596
aS'got'
p597
ag6
aS'very'
p598
aS'sophisticated'
p599
aS'one'
p600
aaa(lp601
g591
a(lp602
S'but'
p603
aS'you'
p604
aS'know'
p605
aS'the'
p606
aS'little'
p607
aS'ones'
p608
aS'now'
p609
aS'about'
p610
aS'this'
p611
aS'size'
p612
aaa(lp613
g591
a(lp614
S'Well'
p615
aS'this'
p616
aS'son'
p617
aS'of'
p618
ag6
aS'bitch'
p619
aS'weighed'
p620
aS'about'
p621
aS'MRC'
p622
aS'fifteen'
p623
aS'pounds'
p624
aS'MRC'
p625
aaa(lp626
g591
a(lp627
S'It'
p628
aS'was'
p629
aS'MRC'
p630
aS'some'
p631
aS'heavy'
p632
aS'son'
p633
aS'of'
p634
ag6
aS'bitch'
p635
aS'MRC'
p636
aaa(lp637
S'JON'
p638
a(lp639
aa(lp640
S'ALAN'
p641
a(lp642
S'Had'
p643
ag6
aS'pouch'
p644
aaa(lp645
g641
a(lp646
S'like'
p647
aaa(lp648
g641
a(lp649
S'sorta'
p650
aS'like'
p651
aS'youve'
p652
aS'got'
p653
aaa(lp654
g641
a(lp655
g4
aS'carried'
p656
aS'it'
p657
aS'around'
p658
aaa(lp659
g641
a(lp660
S'Well'
p661
aS'any'
p662
aS'rate'
p663
aaa(lp664
g641
a(lp665
S'my'
p666
aS'wife'
p667
aS'had'
p668
aS'fallen'
p669
aS'in'
p670
aS'love'
p671
aaa(lp672
g641
a(lp673
S'with'
p674
ag6
aaa(lp675
g641
a(lp676
S'Mexican'
p677
aS'artist'
p678
aS'by'
p679
aS'the'
p680
aS'name'
p681
aS'of'
p682
aS'Nierman'
p683
aaa(lp684
g641
a(lp685
S'Forgot'
p686
aS'his'
p687
aS'first'
p688
aS'name'
p689
aaa(lp690
g641
a(lp691
S'Jewish'
p692
aS'guy'
p693
aaa(lp694
S'JON'
p695
a(lp696
S'Mm'
p697
aaa(lp698
S'ALANMexican'
p699
a(lp700
S'national'
p701
aaa(lp702
g699
a(lp703
S'His'
p704
aS'paintings'
p705
aS'sold'
p706
aaa(lp707
g699
a(lp708
S'f'
p709
aS'for'
p710
aS'generally'
p711
aaa(lp712
g699
a(lp713
g6
aS'thousand'
p714
aS'dollars'
p715
aS'plus'
p716
aaa(lp717
g699
a(lp718
S'Which'
p719
aS'was'
p720
aaa(lp721
g699
a(lp722
S'for'
p723
aS'me'
p724
aaa(lp725
S'JON'
p726
a(lp727
S'A'
p728
aS'lotta'
p729
aS'money'
p730
aS'in'
p731
aS'those'
p732
aS'days'
p733
aaa(lp734
S'ALANTwentyfive'
p735
a(lp736
S'years'
p737
aS'ago'
p738
aaa(lp739
g735
a(lp740
g4
aS'was'
p741
aaa(lp742
g735
a(lp743
S'no'
p744
aS'way'
p745
ag4
aS'was'
p746
aS'gonna'
p747
aS'spend'
p748
aS'twe'
p749
ag6
aS'thou'
p750
aaa(lp751
g735
a(lp752
S'First'
p753
aS'of'
p754
aS'all'
p755
ag4
aS'didnt'
p756
aS'like'
p757
aS'him'
p758
aaa(lp759
g735
a(lp760
S'Very'
p761
aS'splashy'
p762
aaa(lp763
g735
a(lp764
S'Albert'
p765
aS'and'
p766
aS'Marcia'
p767
aS'had'
p768
aS'one'
p769
aS'of'
p770
aS'his'
p771
aS'paintings'
p772
aaa(lp773
g735
a(lp774
S'they'
p775
aS'had'
p776
aaa(lp777
g735
a(lp778
S'They'
p779
aS'had'
p780
aaa(lp781
g735
a(lp782
g4
ag4
aS'dont'
p783
aS'know'
p784
aaa(lp785
g735
a(lp786
S'Marcia'
p787
aS'had'
p788
ag6
aS'relative'
p789
aS'in'
p790
aS'Mexico'
p791
aaa(lp792
g735
a(lp793
S'or'
p794
aS'something'
p795
aaa(lp796
g735
a(lp797
S'But'
p798
aS'theyd'
p799
aS'been'
p800
aS'down'
p801
aS'there'
p802
aaa(lp803
g735
a(lp804
S'Many'
p805
aS'times'
p806
aS'and'
p807
aaa(lp808
g735
a(lp809
S'and'
p810
aS'they'
p811
aS'had'
p812
aS'his'
p813
aS'book'
p814
aaa(lp815
g735
a(lp816
S'and'
p817
aaa(lp818
g735
a(lp819
S'we'
p820
aS'got'
p821
aS'down'
p822
aS'there'
p823
aaa(lp824
g735
a(lp825
S'and'
p826
aS'he'
p827
aS'was'
p828
aaa(lp829
g735
a(lp830
S'uh'
p831
aaa(lp832
g735
a(lp833
S'all'
p834
aS'over'
p835
aS'the'
p836
aS'place'
p837
aaa(lp838
g735
a(lp839
S'His'
p840
aS'paintings'
p841
aS'were'
p842
aaa(lp843
g735
a(lp844
S'he'
p845
aS'lived'
p846
aS'in'
p847
aS'Mexico'
p848
aS'City'
p849
aaa(lp850
g735
a(lp851
S'And'
p852
aS'uh'
p853
aaa(lp854
S'JON'
p855
a(lp856
aa(lp857
S'ALANwe'
p858
a(lp859
S'had'
p860
ag6
aS'cab'
p861
aS'driver'
p862
aaa(lp863
g858
a(lp864
S'Uh'
p865
aaa(lp866
g858
a(lp867
S'that'
p868
aS'was'
p869
aS'gonna'
p870
aS'take'
p871
aS'us'
p872
aS'to'
p873
aaa(lp874
g858
a(lp875
S'wherever'
p876
aS'the'
p877
aS'place'
p878
aS'where'
p879
aS'the'
p880
aS'gold'
p881
aS'was'
p882
aaa(lp883
g858
a(lp884
g4
aS'cant'
p885
aS'remember'
p886
aaa(lp887
g858
a(lp888
S'one'
p889
aS'of'
p890
aS'the'
p891
aS'roughest'
p892
aS'rides'
p893
aaa(lp894
g858
a(lp895
S'and'
p896
aS'if'
p897
aS'you'
p898
aS'ever'
p899
aS'been'
p900
aS'to'
p901
aS'Mexico'
p902
aS'City'
p903
aaa(lp904
g858
a(lp905
S'you'
p906
aS'made'
p907
aS'that'
p908
aS'ride'
p909
aaa(lp910
S'JONX'
p911
a(lp912
S'Yeah'
p913
ag265
aaa(lp914
S'ALAN'
p915
a(lp916
S'some'
p917
aS'kinda'
p918
aS'city'
p919
aaa(lp920
g915
a(lp921
S'about'
p922
aS'hundred'
p923
aS'miles'
p924
aS'away'
p925
aaa(lp926
g915
a(lp927
g4
aS'thought'
p928
aS'we'
p929
aS'were'
p930
aS'gonna'
p931
aS'die'
p932
aS'going'
p933
aS'down'
p934
aS'there'
p935
aaa(lp936
g915
a(lp937
S'An'
p938
aS'old'
p939
aS'car'
p940
aS'and'
p941
aaa(lp942
g915
a(lp943
S'anyway'
p944
aaa(lp945
g915
a(lp946
S'Well'
p947
aS'before'
p948
aS'that'
p949
aaa(lp950
g915
a(lp951
S'he'
p952
aS'took'
p953
aS'us'
p954
aS'around'
p955
aS'the'
p956
aS'city'
p957
aaa(lp958
g915
a(lp959
S'still'
p960
aS'got'
p961
aS'his'
p962
aS'card'
p963
aS'somewhere'
p964
aaa(lp965
g915
a(lp966
S'Slammed'
p967
aS'the'
p968
aS'damn'
p969
aS'door'
p970
aS'on'
p971
aS'this'
p972
aS'guy'
p973
aaa(lp974
g915
a(lp975
S'poor'
p976
aS'guys'
p977
aS'hand'
p978
aS'one'
p979
aS'day'
p980
aaa(lp981
g915
a(lp982
S'inadvertently'
p983
aaa(lp984
g915
a(lp985
S'we'
p986
aS'were'
p987
aS'getting'
p988
aS'out'
p989
aaa(lp990
g915
a(lp991
S'we'
p992
aS'had'
p993
aS'him'
p994
aS'about'
p995
aS'three'
p996
aS'days'
p997
aaa(lp998
g915
a(lp999
S'one'
p1000
aS'day'
p1001
aS'we'
p1002
aS'took'
p1003
aS'him'
p1004
aS'down'
p1005
aS'to'
p1006
aS'wherever'
p1007
aS'we'
p1008
aS'went'
p1009
aaa(lp1010
g915
a(lp1011
S'Buddy'
p1012
aS'and'
p1013
aS'Sue'
p1014
aS'didnt'
p1015
aS'go'
p1016
aaa(lp1017
g915
a(lp1018
S'but'
p1019
aS'he'
p1020
aS'took'
p1021
aS'us'
p1022
aS'to'
p1023
aS'the'
p1024
aS'ruins'
p1025
aaa(lp1026
g915
a(lp1027
S'and'
p1028
aS'all'
p1029
aS'that'
p1030
aS'stuff'
p1031
aaa(lp1032
g915
a(lp1033
S'You'
p1034
aS'know'
p1035
aaa(lp1036
g915
a(lp1037
S'uh'
p1038
aaa(lp1039
g915
a(lp1040
S'you'
p1041
aS'know'
p1042
aaa(lp1043
g915
a(lp1044
g4
aS'and'
p1045
ag4
ag4
aS'knew'
p1046
aS'then'
p1047
aaa(lp1048
g915
a(lp1049
S'and'
p1050
ag4
aS'know'
p1051
aS'now'
p1052
aaa(lp1053
g915
a(lp1054
S'that'
p1055
aS'those'
p1056
aS'guys'
p1057
aaa(lp1058
g915
a(lp1059
S'take'
p1060
aS'you'
p1061
aS'to'
p1062
ag6
aS'particular'
p1063
aS'place'
p1064
aaa(lp1065
g915
a(lp1066
S'they'
p1067
aS'get'
p1068
ag6
aS'commission'
p1069
aaa(lp1070
g915
a(lp1071
S'Well'
p1072
aaa(lp1073
g915
a(lp1074
S'they'
p1075
aS'took'
p1076
aS'us'
p1077
aS'to'
p1078
aS'this'
p1079
aS'guys'
p1080
aS'studio'
p1081
aaa(lp1082
S'JON'
p1083
a(lp1084
S'He'
p1085
aS'what'
p1086
aaa(lp1087
S'ALANTook'
p1088
a(lp1089
S'us'
p1090
aS'to'
p1091
aS'this'
p1092
aS'guy'
p1093
aS'artists'
p1094
aS'studio'
p1095
aaa(lp1096
g1088
a(lp1097
S'Uh'
p1098
aaa(lp1099
g1088
a(lp1100
S'and'
p1101
aS'uh'
p1102
aaa(lp1103
g1088
a(lp1104
S'Rae'
p1105
aaa(lp1106
g1088
a(lp1107
S'he'
p1108
aS'was'
p1109
aS'there'
p1110
aaa(lp1111
g1088
a(lp1112
S'And'
p1113
aS'she'
p1114
aS'saw'
p1115
ag6
aS'painting'
p1116
aS'she'
p1117
aS'liked'
p1118
aaa(lp1119
g1088
a(lp1120
S'And'
p1121
aaa(lp1122
g1088
a(lp1123
S'uh'
p1124
aaa(lp1125
g1088
a(lp1126
S'he'
p1127
aS'wanted'
p1128
aS'that'
p1129
aS'damn'
p1130
aS'recorder'
p1131
aaa(lp1132
g1088
a(lp1133
S'And'
p1134
aS'he'
p1135
aS'said'
p1136
ag4
aS'tell'
p1137
aS'you'
p1138
aS'what'
p1139
aS'Ill'
p1140
aS'do'
p1141
aaa(lp1142
g1088
a(lp1143
S'XX'
p1144
aS'make'
p1145
aS'you'
p1146
ag6
aS'deal'
p1147
aaa(lp1148
g1088
a(lp1149
S'He'
p1150
aS'said'
p1151
aS'Ill'
p1152
aaa(lp1153
g1088
a(lp1154
S'You'
p1155
aS'take'
p1156
aS'this'
p1157
aS'painting'
p1158
aaa(lp1159
g1088
a(lp1160
g4
aS'want'
p1161
aS'that'
p1162
aS'recorder'
p1163
aaa(lp1164
g1088
a(lp1165
S'Ill'
p1166
aS'take'
p1167
aS'it'
p1168
aaa(lp1169
g1088
a(lp1170
S'Could'
p1171
aaa(lp1172
g1088
a(lp1173
S'naw'
p1174
ag4
aS'cant'
p1175
aS'do'
p1176
aS'that'
p1177
aaa(lp1178
g1088
a(lp1179
S'its'
p1180
aS'not'
p1181
aS'mine'
p1182
aaa(lp1183
g1088
a(lp1184
S'It'
p1185
aS'was'
p1186
aaa(lp1187
g1088
a(lp1188
S'Its'
p1189
aS'about'
p1190
ag6
aS'thousand'
p1191
aS'dollar'
p1192
aS'swap'
p1193
aaa(lp1194
g1088
a(lp1195
S'Shit'
p1196
ag4
aS'thought'
p1197
aS'my'
p1198
aS'wife'
p1199
aS'was'
p1200
aS'gonna'
p1201
aS'have'
p1202
ag6
aS'fit'
p1203
aaa(lp1204
S'JON'
p1205
a(lp1206
aa(lp1207
S'ALANshe'
p1208
a(lp1209
S'was'
p1210
aS'pissed'
p1211
aS'off'
p1212
aaa(lp1213
g1208
a(lp1214
S'Mexico'
p1215
aS'City'
p1216
aS'was'
p1217
ag6
aaa(lp1218
g1208
a(lp1219
S'uh'
p1220
aS'in'
p1221
aS'those'
p1222
aS'days'
p1223
aaa(lp1224
g1208
a(lp1225
S'probably'
p1226
aS'still'
p1227
aS'is'
p1228
aaa(lp1229
g1208
a(lp1230
S'not'
p1231
aaa(lp1232
g1208
a(lp1233
S'For'
p1234
aS'this'
p1235
aS'guy'
p1236
aS'he'
p1237
aS'was'
p1238
aS'very'
p1239
aS'successful'
p1240
aaa(lp1241
g1208
a(lp1242
S'Uh'
p1243
aaa(lp1244
g1208
a(lp1245
S'very'
p1246
aS'prolific'
p1247
aaa(lp1248
g1208
a(lp1249
S'But'
p1250
aS'it'
p1251
aS'was'
p1252
aS'an'
p1253
aS'art'
p1254
aS'colony'
p1255
aaa(lp1256
g1208
a(lp1257
S'and'
p1258
aS'there'
p1259
aS'were'
p1260
ag6
aS'lot'
p1261
aS'of'
p1262
aS'Americans'
p1263
aS'down'
p1264
aS'there'
p1265
aaa(lp1266
g1208
a(lp1267
S'He'
p1268
aS'was'
p1269
aS'not'
p1270
aS'an'
p1271
aS'American'
p1272
aaa(lp1273
g1208
a(lp1274
g728
aS'lot'
p1275
aS'of'
p1276
aS'Americans'
p1277
aS'down'
p1278
aS'there'
p1279
aaa(lp1280
g1208
a(lp1281
S'uh'
p1282
aS'because'
p1283
aaa(lp1284
g1208
a(lp1285
S'cost'
p1286
aS'of'
p1287
aS'living'
p1288
aS'was'
p1289
aS'so'
p1290
aS'cheap'
p1291
aS'at'
p1292
aS'the'
p1293
aS'time'
p1294
aaa(lp1295
g1208
a(lp1296
S'And'
p1297
aS'they'
p1298
aS'they'
p1299
aS'had'
p1300
aS'these'
p1301
aS'art'
p1302
aS'shows'
p1303
aS'everywhere'
p1304
aaa(lp1305
g1208
a(lp1306
S'Well'
p1307
aS'we'
p1308
aS'bought'
p1309
ag6
aS'painting'
p1310
aaa(lp1311
g1208
a(lp1312
S'uh'
p1313
aaa(lp1314
g1208
a(lp1315
S'of'
p1316
ag6
aS'little'
p1317
aS'Mexican'
p1318
aS'woman'
p1319
aaa(lp1320
g1208
a(lp1321
S'still'
p1322
aS'got'
p1323
aS'it'
p1324
aaa(lp1325
g1208
a(lp1326
S'with'
p1327
ag6
aS'watermelon'
p1328
aS'on'
p1329
aS'her'
p1330
aS'head'
p1331
aaa(lp1332
g1208
a(lp1333
S'like'
p1334
aS'it'
p1335
ag6
aS'lot'
p1336
aaa(lp1337
g1208
a(lp1338
S'Think'
p1339
ag4
aS'paid'
p1340
aS'VOX'
p1341
aS'thirty'
p1342
aS'dollars'
p1343
aS'for'
p1344
aS'it'
p1345
aS'VOX'
p1346
aaa(lp1347
g1208
a(lp1348
S'Well'
p1349
aS'that'
p1350
aS'was'
p1351
aS'about'
p1352
aS'my'
p1353
aS'price'
p1354
aS'range'
p1355
aaa(lp1356
g1208
a(lp1357
S'Uh'
p1358
aaa(lp1359
g1208
a(lp1360
S'while'
p1361
ag4
aS'was'
p1362
aS'down'
p1363
aS'there'
p1364
aaa(lp1365
g1208
a(lp1366
S'we'
p1367
aS'may'
p1368
aS'have'
p1369
aS'bought'
p1370
ag6
aS'couple'
p1371
aS'of'
p1372
aS'other'
p1373
aS'i'
p1374
aS'inexpensive'
p1375
aS'paintings'
p1376
aaa(lp1377
g1208
a(lp1378
S'maybe'
p1379
aS'collectively'
p1380
aS'we'
p1381
aS'bought'
p1382
aaa(lp1383
g1208
a(lp1384
S'maybe'
p1385
aS'spent'
p1386
ag6
aS'hundred'
p1387
aS'and'
p1388
aS'fifty'
p1389
aS'dollars'
p1390
aaa(lp1391
g1208
a(lp1392
S'Uh'
p1393
aaa(lp1394
g1208
a(lp1395
S'hell'
p1396
ag4
aS'was'
p1397
aS'not'
p1398
aS'an'
p1399
aS'art'
p1400
aaa(lp1401
g1208
a(lp1402
S'We'
p1403
aS'werent'
p1404
aS'art'
p1405
aS'collectors'
p1406
aaa(lp1407
g1208
a(lp1408
S'And'
p1409
aS'uh'
p1410
aaa(lp1411
g1208
a(lp1412
S'to'
p1413
aS'spend'
p1414
ag6
aS'thousand'
p1415
aS'dollars'
p1416
aaa(lp1417
g1208
a(lp1418
S'to'
p1419
aS'me'
p1420
aS'for'
p1421
ag6
aS'painting'
p1422
aaa(lp1423
g1208
a(lp1424
S'was'
p1425
aS'unthinkable'
p1426
aaa(lp1427
g1208
a(lp1428
S'Uh'
p1429
aaa(lp1430
g1208
a(lp1431
S'The'
p1432
aS's'
p1433
aS'first'
p1434
aS'painting'
p1435
ag4
aS'ever'
p1436
aS'bought'
p1437
aaa(lp1438
g1208
a(lp1439
S'my'
p1440
aS'fatherinlaw'
p1441
aS'bought'
p1442
aS'it'
p1443
aS'from'
p1444
aS'Geri'
p1445
ag709
aaa(lp1446
g1208
a(lp1447
S'Geri'
p1448
aS'Rae'
p1449
aaa(lp1450
g1208
a(lp1451
S'it'
p1452
aS'was'
p1453
aS'one'
p1454
aS'of'
p1455
aS'Geris'
p1456
aS'original'
p1457
aS'early'
p1458
aS'early'
p1459
aS'paintings'
p1460
aaa(lp1461
g1208
a(lp1462
S'which'
p1463
ag4
aS'thoroughly'
p1464
aS'enjoy'
p1465
aaa(lp1466
g1208
a(lp1467
S'shes'
p1468
aS'changed'
p1469
aS'styles'
p1470
aS'but'
p1471
aaa(lp1472
g1208
a(lp1473
S'While'
p1474
aS'we'
p1475
aS'were'
p1476
aS'down'
p1477
aS'there'
p1478
aaa(lp1479
g1208
a(lp1480
S'uh'
p1481
aaa(lp1482
S'JON'
p1483
a(lp1484
S'You'
p1485
aS'know'
p1486
ag4
aaa(lp1487
S'ALANThis'
p1488
a(lp1489
aa(lp1490
g1488
a(lp1491
S'It'
p1492
aaa(lp1493
S'JONIve'
p1494
a(lp1495
S'seen'
p1496
aS'that'
p1497
aS'somewhere'
p1498
aS'before'
p1499
aaa(lp1500
S'ALAN'
p1501
a(lp1502
S'You'
p1503
aS'know'
p1504
aS'Ive'
p1505
aS'had'
p1506
aS'that'
p1507
aS'painting'
p1508
aS'for'
p1509
aS'thirtyfive'
p1510
aS'years'
p1511
ag4
aS'guess'
p1512
aaa(lp1513
g1501
a(lp1514
g4
aS'Ive'
p1515
aS'never'
p1516
aS'framed'
p1517
aS'it'
p1518
aaa(lp1519
g1501
a(lp1520
S'And'
p1521
ag4
aS'really'
p1522
aS'like'
p1523
aS'it'
p1524
aaa(lp1525
g1501
a(lp1526
S'Uh'
p1527
aaa(lp1528
g1501
a(lp1529
S'my'
p1530
aaa(lp1531
g1501
a(lp1532
S'My'
p1533
aS'my'
p1534
aS'fatherinlaw'
p1535
aS'wanted'
p1536
aS'to'
p1537
aS'give'
p1538
aS'me'
p1539
ag6
aS'painting'
p1540
aS'for'
p1541
aS'my'
p1542
aaa(lp1543
g1501
a(lp1544
S'Piece'
p1545
aS'of'
p1546
aS'art'
p1547
aS'for'
p1548
aS'my'
p1549
aS'office'
p1550
aaa(lp1551
g1501
a(lp1552
S'And'
p1553
aS'so'
p1554
ag4
aS'had'
p1555
ag6
aaa(lp1556
g1501
a(lp1557
S'We'
p1558
aS'had'
p1559
ag6
aS'display'
p1560
aS'guy'
p1561
aS'at'
p1562
aS'the'
p1563
aS'time'
p1564
aaa(lp1565
g1501
a(lp1566
S'by'
p1567
aS'the'
p1568
aS'name'
p1569
aS'of'
p1570
aS'Ben'
p1571
aS'Money'
p1572
aaa(lp1573
g1501
a(lp1574
S'fashioned'
p1575
aS'himself'
p1576
aS'as'
p1577
aS'an'
p1578
aS'artist'
p1579
aaa(lp1580
g1501
a(lp1581
S'And'
p1582
ag4
aS'said'
p1583
aS'Ben'
p1584
aaa(lp1585
g1501
a(lp1586
S'pick'
p1587
aS'me'
p1588
aS'out'
p1589
aS'something'
p1590
aaa(lp1591
g1501
a(lp1592
g265
aS'Youve'
p1593
aS'got'
p1594
ag265
aS'fifty'
p1595
aS'bucks'
p1596
aS'to'
p1597
aS'spend'
p1598
aaa(lp1599
g1501
a(lp1600
S'So'
p1601
aaa(lp1602
g1501
a(lp1603
S'he'
p1604
aS'got'
p1605
aS'this'
p1606
aS'from'
p1607
aS'Geri'
p1608
aaa(lp1609
g1501
a(lp1610
S'and'
p1611
ag4
aS'loved'
p1612
aS'it'
p1613
aaa(lp1614
g1501
a(lp1615
S'XX'
p1616
aaa(lp1617
S'JONIts'
p1618
a(lp1619
S'beautiful'
p1620
aaa(lp1621
S'ALANAnd'
p1622
a(lp1623
S'and'
p1624
aaa(lp1625
g1622
a(lp1626
g4
aS'can'
p1627
aS'see'
p1628
aS'all'
p1629
aS'kinda'
p1630
aS'things'
p1631
aS'in'
p1632
aS'it'
p1633
aaa(lp1634
S'JONIts'
p1635
a(lp1636
S'got'
p1637
ag6
aS'lotta'
p1638
aS'color'
p1639
aS'and'
p1640
aaa(lp1641
S'ALANLotta'
p1642
a(lp1643
S'color'
p1644
aaa(lp1645
g1642
a(lp1646
g4
aS'see'
p1647
ag6
aS'Chinese'
p1648
aS'junk'
p1649
aaa(lp1650
g1642
a(lp1651
S'At'
p1652
aS'any'
p1653
aS'rate'
p1654
aaa(lp1655
g1642
a(lp1656
S'to'
p1657
aS'make'
p1658
ag6
aS'long'
p1659
ag1433
aaa(lp1660
g1642
a(lp1661
S'This'
p1662
aS'fellow'
p1663
aS'LeRoy'
p1664
aS'Neiman'
p1665
aaa(lp1666
g1642
a(lp1667
S'PAR'
p1668
aS'over'
p1669
aS'here'
p1670
aS'PAR'
p1671
aaa(lp1672
g1642
a(lp1673
S'Sports'
p1674
aS'artist'
p1675
aaa(lp1676
g1642
a(lp1677
S'Not'
p1678
aS'the'
p1679
aS'same'
p1680
aS'guy'
p1681
aaa(lp1682
g1642
a(lp1683
S'as'
p1684
aS'this'
p1685
aS'guy'
p1686
aS'Nierman'
p1687
aaa(lp1688
g1642
a(lp1689
S'Ive'
p1690
aS'forgotten'
p1691
aS'his'
p1692
aS'name'
p1693
aaa(lp1694
S'JON'
p1695
a(lp1696
S'Oh'
p1697
ag4
aS'thought'
p1698
aS'there'
p1699
aS'was'
p1700
ag6
aS'connection'
p1701
aaa(lp1702
S'ALAN'
p1703
a(lp1704
S'No'
p1705
aaa(lp1706
g1703
a(lp1707
S'No'
p1708
aS'connection'
p1709
aaa(lp1710
g1703
a(lp1711
S'K'
p1712
aS'there'
p1713
aS'is'
p1714
ag6
aS'connection'
p1715
aS'on'
p1716
aS'the'
p1717
aS'story'
p1718
aaa(lp1719
g1703
a(lp1720
S'Well'
p1721
aaa(lp1722
g1703
a(lp1723
S'we'
p1724
aS'looked'
p1725
aS'at'
p1726
ag6
aS'lot'
p1727
aS'of'
p1728
aS'art'
p1729
aaa(lp1730
g1703
a(lp1731
S'in'
p1732
aS'in'
p1733
aS'in'
p1734
aS'the'
p1735
aaa(lp1736
g1703
a(lp1737
S'in'
p1738
aS'the'
p1739
aaa(lp1740
g1703
a(lp1741
S'uh'
p1742
aS'parks'
p1743
aaa(lp1744
g1703
a(lp1745
S'and'
p1746
aS'there'
p1747
aS'at'
p1748
aS'least'
p1749
aS'it'
p1750
aS'was'
p1751
aaa(lp1752
g1703
a(lp1753
S'pleasant'
p1754
aS'weather'
p1755
aS'and'
p1756
aaa(lp1757
g1703
a(lp1758
S'Like'
p1759
aS'that'
p1760
aS'uh'
p1761
aaa(lp1762
g1703
a(lp1763
S'It'
p1764
aS'was'
p1765
aS'sorta'
p1766
aS'like'
p1767
aaa(lp1768
g1703
a(lp1769
S'uh'
p1770
aaa(lp1771
g1703
a(lp1772
S'What'
p1773
aS'the'
p1774
aS'hell'
p1775
aS'they'
p1776
aS'call'
p1777
aS'the'
p1778
aS'district'
p1779
aS'in'
p1780
aS'New'
p1781
aS'York'
p1782
aaa(lp1783
g1703
a(lp1784
S'where'
p1785
aS'on'
p1786
aS'Sunday'
p1787
aaa(lp1788
g1703
a(lp1789
S'they'
p1790
aS'put'
p1791
aS'all'
p1792
aS'the'
p1793
aS'artists'
p1794
aaa(lp1795
g1703
a(lp1796
S'put'
p1797
aS'their'
p1798
aS'paintings'
p1799
aS'out'
p1800
aaa(lp1801
g1703
a(lp1802
S'uh'
p1803
aaa(lp1804
g1703
a(lp1805
S'the'
p1806
aS'Village'
p1807
aaa(lp1808
g1703
a(lp1809
S'the'
p1810
aS'Village'
p1811
aaa(lp1812
S'JONThe'
p1813
a(lp1814
S'Village'
p1815
aaa(lp1816
S'ALAN'
p1817
a(lp1818
S'You'
p1819
aS'know'
p1820
aS'all'
p1821
aS'the'
p1822
aS'all'
p1823
aS'these'
p1824
aS'artists'
p1825
aS'put'
p1826
aS'their'
p1827
aaa(lp1828
g1817
a(lp1829
S'Well'
p1830
aS'they'
p1831
aS'had'
p1832
aaa(lp1833
g1817
a(lp1834
S'mustve'
p1835
aS'had'
p1836
aS'three'
p1837
aS'areas'
p1838
aS'like'
p1839
aS'that'
p1840
aaa(lp1841
g1817
a(lp1842
S'MRC'
p1843
aS'Parks'
p1844
aS'with'
p1845
aS'paintings'
p1846
aS'MRC'
p1847
aaa(lp1848
g1817
a(lp1849
S'and'
p1850
aS'my'
p1851
aS'god'
p1852
aaa(lp1853
g1817
a(lp1854
S'there'
p1855
aS'mustve'
p1856
aS'been'
p1857
aS'VOX'
p1858
aS'thousands'
p1859
aS'VOX'
p1860
aS'of'
p1861
aS'paintings'
p1862
aaa(lp1863
g1817
a(lp1864
S'And'
p1865
aS'uh'
p1866
aaa(lp1867
g1817
a(lp1868
S'most'
p1869
aS'of'
p1870
aS'em'
p1871
aaa(lp1872
g1817
a(lp1873
S'very'
p1874
aS'inexpensive'
p1875
aaa(lp1876
g1817
a(lp1877
S'Uh'
p1878
aS'starving'
p1879
aS'artists'
p1880
aS'that'
p1881
aS'were'
p1882
aS'down'
p1883
aS'there'
p1884
aaa(lp1885
g1817
a(lp1886
S'VOX'
p1887
aS'lots'
p1888
aS'of'
p1889
aS'VOX'
p1890
aS'American'
p1891
aaa(lp1892
S'JON'
p1893
a(lp1894
aa(lp1895
S'ALAN'
p1896
a(lp1897
S'Well'
p1898
aaa(lp1899
g1896
a(lp1900
S'uh'
p1901
aaa(lp1902
g1896
a(lp1903
S'we'
p1904
aS'wandered'
p1905
aS'around'
p1906
aS'down'
p1907
aS'in'
p1908
aS'the'
p1909
aaa(lp1910
g1896
a(lp1911
S'the'
p1912
aS'area'
p1913
aS'which'
p1914
aaa(lp1915
g1896
a(lp1916
S'Ive'
p1917
aS'forgotten'
p1918
aS'the'
p1919
aS'area'
p1920
aS'that'
p1921
aS'they'
p1922
aS'called'
p1923
aaa(lp1924
g1896
a(lp1925
S'in'
p1926
aS'Mexico'
p1927
aS'City'
p1928
aS'where'
p1929
aaa(lp1930
g1896
a(lp1931
S'uh'
p1932
aaa(lp1933
g1896
a(lp1934
S'most'
p1935
aS'of'
p1936
aS'the'
p1937
aS'jewelry'
p1938
aS'shops'
p1939
aS'are'
p1940
aS'and'
p1941
aS'things'
p1942
aaa(lp1943
g1896
a(lp1944
S'Its'
p1945
aS'got'
p1946
ag6
aS'name'
p1947
aaa(lp1948
g1896
a(lp1949
g4
aS'cant'
p1950
aS'remember'
p1951
aaa(lp1952
g1896
a(lp1953
S'Ive'
p1954
aS'never'
p1955
aS'been'
p1956
aS'back'
p1957
aaa(lp1958
g1896
a(lp1959
S'They'
p1960
aS'also'
p1961
aS'had'
p1962
ag6
aS'lot'
p1963
aS'of'
p1964
aaa(lp1965
g1896
a(lp1966
S'uh'
p1967
aaa(lp1968
g1896
a(lp1969
S'artist'
p1970
aS'galleries'
p1971
aS'down'
p1972
aS'there'
p1973
aaa(lp1974
g1896
a(lp1975
S'And'
p1976
ag4
aS'walked'
p1977
aS'into'
p1978
aS'this'
p1979
aS'gallery'
p1980
aaa(lp1981
g1896
a(lp1982
S'during'
p1983
aS'one'
p1984
aS'of'
p1985
aS'our'
p1986
aaa(lp1987
g1896
a(lp1988
S'We'
p1989
aS'were'
p1990
aS'down'
p1991
aS'there'
p1992
aS'maybe'
p1993
aS'ten'
p1994
aS'days'
p1995
aaa(lp1996
g1896
a(lp1997
S'And'
p1998
ag4
aS'saw'
p1999
aS'this'
p2000
aS'guy'
p2001
aS'Nierman'
p2002
aaa(lp2003
g1896
a(lp2004
g4
aS'never'
p2005
aS'heard'
p2006
aS'of'
p2007
aS'him'
p2008
aaa(lp2009
g1896
a(lp2010
S'at'
p2011
aS'that'
p2012
aS'time'
p2013
aaa(lp2014
g1896
a(lp2015
S'He'
p2016
aS'he'
p2017
aS'he'
p2018
aS'got'
p2019
aS'famous'
p2020
aS'at'
p2021
aS'the'
p2022
aS'nineteen'
p2023
aaa(lp2024
g1896
a(lp2025
S'uh'
p2026
aaa(lp2027
g1896
a(lp2028
S'probably'
p2029
aS'seventytwo'
p2030
aS'Olympics'
p2031
aaa(lp2032
g1896
a(lp2033
S'Uh'
p2034
aaa(lp2035
g1896
a(lp2036
S'but'
p2037
aS'his'
p2038
ag138
aaa(lp2039
g1896
a(lp2040
S'His'
p2041
aS'art'
p2042
aS'was'
p2043
aS'already'
p2044
aS'in'
p2045
aS'collections'
p2046
aS'of'
p2047
aS'guys'
p2048
aS'like'
p2049
aS'Edward'
p2050
aS'gee'
p2051
aS'Robinson'
p2052
aaa(lp2053
g1896
a(lp2054
S'it'
p2055
aS'was'
p2056
aS'very'
p2057
aS'popular'
p2058
aS'in'
p2059
aS'Hollywood'
p2060
aaa(lp2061
g1896
a(lp2062
S'He'
p2063
aS'also'
p2064
aS'was'
p2065
aS'very'
p2066
aS'prolific'
p2067
aaa(lp2068
g1896
a(lp2069
S'Big'
p2070
aS'handlebar'
p2071
aS'mustache'
p2072
aaa(lp2073
g1896
a(lp2074
S'And'
p2075
ag4
aS'walked'
p2076
aS'in'
p2077
aaa(lp2078
g1896
a(lp2079
S'and'
p2080
aS'there'
p2081
aS'must'
p2082
aS'have'
p2083
aS'been'
p2084
aS'about'
p2085
aaa(lp2086
g1896
a(lp2087
S'twelve'
p2088
aS'or'
p2089
aS'fifteen'
p2090
aS'paintings'
p2091
aS'in'
p2092
aS'there'
p2093
aaa(lp2094
g1896
a(lp2095
S'They'
p2096
aS'were'
p2097
aaa(lp2098
g1896
a(lp2099
S'uh'
p2100
aaa(lp2101
S'JON'
p2102
a(lp2103
S'You'
p2104
aS'walked'
p2105
aS'into'
p2106
aS'his'
p2107
aS'studio'
p2108
aaa(lp2109
g2102
a(lp2110
S'or'
p2111
aaa(lp2112
S'ALAN'
p2113
a(lp2114
S'It'
p2115
aS'was'
p2116
ag6
aS'gallery'
p2117
aaa(lp2118
g2113
a(lp2119
S'Uh'
p2120
aaa(lp2121
g2113
a(lp2122
S'he'
p2123
aS'didnt'
p2124
aS'live'
p2125
aS'there'
p2126
aaa(lp2127
g2113
a(lp2128
S'he'
p2129
aS'didnt'
p2130
aS'live'
p2131
aS'in'
p2132
aS'Mexico'
p2133
aaa(lp2134
S'JONOkay'
p2135
a(lp2136
aa(lp2137
S'ALANThe'
p2138
a(lp2139
S'oth'
p2140
aS'th'
p2141
aaa(lp2142
g2138
a(lp2143
S'The'
p2144
aS'guy'
p2145
aS'n'
p2146
aaa(lp2147
g2138
a(lp2148
S'Th'
p2149
aS'the'
p2150
aS'Jewish'
p2151
aS'fellow'
p2152
aaa(lp2153
g2138
a(lp2154
S'theyre'
p2155
aS'both'
p2156
aS'Jewish'
p2157
aaa(lp2158
S'JONOkay'
p2159
a(lp2160
aa(lp2161
S'ALANTh'
p2162
a(lp2163
S'th'
p2164
aS'this'
p2165
aS'guy'
p2166
aS'Nierman'
p2167
aaa(lp2168
g2162
a(lp2169
S'who'
p2170
aS'was'
p2171
ag6
aS'Mexican'
p2172
aS'national'
p2173
aaa(lp2174
g2162
a(lp2175
S'lived'
p2176
aS'there'
p2177
aaa(lp2178
S'JONOkay'
p2179
a(lp2180
aa(lp2181
S'ALAN'
p2182
a(lp2183
S'Forgotten'
p2184
aS'his'
p2185
aS'first'
p2186
aS'name'
p2187
aaa(lp2188
g2182
a(lp2189
S'Leonardo'
p2190
aS'Nierman'
p2191
aS'or'
p2192
aS'something'
p2193
aaa(lp2194
g2182
a(lp2195
S'But'
p2196
aS'any'
p2197
aS'rate'
p2198
aaa(lp2199
g2182
a(lp2200
S'but'
p2201
aS'uh'
p2202
aaa(lp2203
g2182
a(lp2204
S'this'
p2205
aS'guys'
p2206
aS'name'
p2207
aS'was'
p2208
aS'LeRoy'
p2209
aS'Neiman'
p2210
aaa(lp2211
g2182
a(lp2212
S'Id'
p2213
aS'never'
p2214
aS'heard'
p2215
aS'of'
p2216
aS'him'
p2217
aaa(lp2218
g2182
a(lp2219
S'well'
p2220
aS'Id'
p2221
aS'heard'
p2222
aS'of'
p2223
aS'Nierman'
p2224
aaa(lp2225
g2182
a(lp2226
S'Uh'
p2227
aaa(lp2228
g2182
a(lp2229
S'because'
p2230
aS'Rae'
p2231
aS'went'
p2232
aS'down'
p2233
aS'there'
p2234
aS'wanting'
p2235
aS'to'
p2236
aS'buy'
p2237
aS'one'
p2238
aS'of'
p2239
aS'those'
p2240
aS'paintings'
p2241
aaa(lp2242
g2182
a(lp2243
S'These'
p2244
aS'were'
p2245
aS'paintings'
p2246
aaa(lp2247
g2182
a(lp2248
S'which'
p2249
aS'Id'
p2250
aS'say'
p2251
aS'were'
p2252
aS'about'
p2253
aS'the'
p2254
aS'size'
p2255
aS'of'
p2256
aS'this'
p2257
aS'Joe'
p2258
aS'Namath'
p2259
aaa(lp2260
g2182
a(lp2261
S'there'
p2262
aaa(lp2263
g2182
a(lp2264
S'Which'
p2265
aS'is'
p2266
ag6
aS'seriograph'
p2267
aaa(lp2268
g2182
a(lp2269
S'And'
p2270
aaa(lp2271
g2182
a(lp2272
S'we'
p2273
aS'went'
p2274
aS'in'
p2275
aaa(lp2276
g2182
a(lp2277
S'and'
p2278
aS'uh'
p2279
aaa(lp2280
g2182
a(lp2281
S'they'
p2282
aS'were'
p2283
aS'just'
p2284
aS'back'
p2285
aS'from'
p2286
aS'Acapulco'
p2287
aaa(lp2288
g2182
a(lp2289
S'season'
p2290
aS'was'
p2291
aS'just'
p2292
aS'over'
p2293
aS'in'
p2294
aS'Acapulco'
p2295
aaa(lp2296
g2182
a(lp2297
S'And'
p2298
aS'he'
p2299
aS'had'
p2300
aS'about'
p2301
aS'fifteen'
p2302
aS'twenty'
p2303
aS'paintings'
p2304
aaa(lp2305
g2182
a(lp2306
S'twentyfive'
p2307
aS'paintings'
p2308
aaa(lp2309
g2182
a(lp2310
S'football'
p2311
aS'players'
p2312
aaa(lp2313
g2182
a(lp2314
S'horse'
p2315
aS'races'
p2316
aaa(lp2317
g2182
a(lp2318
S'thats'
p2319
aS'what'
p2320
aS'he'
p2321
aS'did'
p2322
aaa(lp2323
g2182
a(lp2324
S'they'
p2325
aS'were'
p2326
aS'about'
p2327
aS'that'
p2328
aS'size'
p2329
aaa(lp2330
g2182
a(lp2331
S'Id'
p2332
aS'been'
p2333
aS'in'
p2334
aS'there'
p2335
aaa(lp2336
g2182
a(lp2337
S'oh'
p2338
aS'God'
p2339
ag4
aS'looked'
p2340
aS'at'
p2341
aS'em'
p2342
aaa(lp2343
g2182
a(lp2344
S'they'
p2345
aS'just'
p2346
aS'struck'
p2347
aS'me'
p2348
aS'as'
p2349
aS'something'
p2350
aaa(lp2351
g2182
a(lp2352
g4
aS'loved'
p2353
aS'em'
p2354
aaa(lp2355
g2182
a(lp2356
S'They'
p2357
aS'were'
p2358
aS'great'
p2359
aaa(lp2360
g2182
a(lp2361
S'They'
p2362
aS'were'
p2363
aS'you'
p2364
aS'know'
p2365
aS'very'
p2366
aaa(lp2367
g2182
a(lp2368
S'Had'
p2369
ag6
aS'very'
p2370
aS'distinctive'
p2371
aS'style'
p2372
aaa(lp2373
g2182
a(lp2374
S'And'
p2375
aaa(lp2376
g2182
a(lp2377
S'uh'
p2378
aaa(lp2379
g2182
a(lp2380
S'the'
p2381
aS'guy'
p2382
aS'said'
p2383
aS'uh'
p2384
aaa(lp2385
g2182
a(lp2386
S'God'
p2387
aS'youve'
p2388
aS'been'
p2389
aS'in'
p2390
aS'here'
p2391
aaa(lp2392
g2182
a(lp2393
S'so'
p2394
aS'many'
p2395
aS'times'
p2396
aS'that'
p2397
aaa(lp2398
g2182
a(lp2399
S'said'
p2400
aS'Ill'
p2401
aS'make'
p2402
aS'you'
p2403
ag6
aS'deal'
p2404
aaa(lp2405
g2182
a(lp2406
S'You'
p2407
aS'pick'
p2408
aS'out'
p2409
aS'any'
p2410
aS'four'
p2411
aS'of'
p2412
aS'these'
p2413
aS'you'
p2414
aS'want'
p2415
aaa(lp2416
g2182
a(lp2417
S'Ill'
p2418
aS'give'
p2419
aS'em'
p2420
aS'to'
p2421
aS'you'
p2422
aS'for'
p2423
aS'fivehundred'
p2424
aS'dollars'
p2425
aaa(lp2426
g2182
a(lp2427
S'The'
p2428
aS'four'
p2429
aS'of'
p2430
aS'em'
p2431
aaa(lp2432
g2182
a(lp2433
S'Shit'
p2434
aaa(lp2435
g2182
a(lp2436
g4
aS'loved'
p2437
aS'those'
p2438
aS'things'
p2439
aaa(lp2440
g2182
a(lp2441
g4
aS'stewed'
p2442
aS'on'
p2443
aS'those'
p2444
aS'son'
p2445
aS'of'
p2446
aS'bitches'
p2447
aaa(lp2448
g2182
a(lp2449
S'stewed'
p2450
aS'on'
p2451
aS'those'
p2452
aS'son'
p2453
aS'of'
p2454
aS'bitches'
p2455
aaa(lp2456
g2182
a(lp2457
g4
aS'figured'
p2458
aaa(lp2459
g2182
a(lp2460
g4
aS'bought'
p2461
aS'those'
p2462
aS'fucking'
p2463
aS'paintings'
p2464
aaa(lp2465
g2182
a(lp2466
S'Id'
p2467
aS'have'
p2468
aS'to'
p2469
aS'buy'
p2470
aS'that'
p2471
aS'damn'
p2472
aS'thing'
p2473
aS'for'
p2474
aS'Rae'
p2475
aaa(lp2476
S'JON'
p2477
a(lp2478
aa(lp2479
S'ALANor'
p2480
a(lp2481
aa(lp2482
g2480
a(lp2483
S'Id'
p2484
aS'trade'
p2485
aS'that'
p2486
aS'camera'
p2487
aS'for'
p2488
ag6
aS'thousand'
p2489
aS'dollars'
p2490
aaa(lp2491
g2480
a(lp2492
S'and'
p2493
aS'ninehundred'
p2494
aS'dollars'
p2495
aS'to'
p2496
aS'buy'
p2497
aS'another'
p2498
aS'one'
p2499
aaa(lp2500
g2480
a(lp2501
g4
aS'promise'
p2502
aS'you'
p2503
aS'as'
p2504
aS'God'
p2505
aS'is'
p2506
aS'my'
p2507
aS'witness'
p2508
aaa(lp2509
g2480
a(lp2510
S'This'
p2511
aS'guys'
p2512
aS'originals'
p2513
aS'sell'
p2514
aS'for'
p2515
aS'MRC'
p2516
ag6
aS'hundred'
p2517
aS'thousand'
p2518
aS'dollars'
p2519
aS'apiece'
p2520
aS'or'
p2521
aS'more'
p2522
aS'MRC'
p2523
aaa(lp2524
S'JON'
p2525
a(lp2526
S'You'
p2527
aS'are'
p2528
aS'kidding'
p2529
aaa(lp2530
S'ALANThey'
p2531
a(lp2532
S'were'
p2533
aaa(lp2534
g2531
a(lp2535
S'He'
p2536
aS'is'
p2537
aaa(lp2538
g2531
a(lp2539
S'big'
p2540
aaa(lp2541
g2531
a(lp2542
S'big'
p2543
aaa(lp2544
g2531
a(lp2545
S'Hes'
p2546
aS'the'
p2547
aS'MRC'
p2548
aS'premiere'
p2549
aS'sports'
p2550
aS'artist'
p2551
aS'in'
p2552
aS'the'
p2553
aS'world'
p2554
aS'MRC'
p2555
aaa(lp2556
S'JONReally'
p2557
a(lp2558
aa(lp2559
S'ALAN'
p2560
a(lp2561
S'And'
p2562
aS'uh'
p2563
aaa(lp2564
g2560
a(lp2565
S'Id'
p2566
aS'never'
p2567
aS'heard'
p2568
aS'of'
p2569
aS'him'
p2570
aaa(lp2571
g2560
a(lp2572
S'And'
p2573
aaa(lp2574
g2560
a(lp2575
S'but'
p2576
aS'of'
p2577
aS'course'
p2578
aS'the'
p2579
aS'price'
p2580
aS'was'
p2581
aS'right'
p2582
aS'for'
p2583
aS'me'
p2584
aaa(lp2585
g2560
a(lp2586
S'but'
p2587
ag4
aS'didnt'
p2588
aS'buy'
p2589
aS'em'
p2590
aaa(lp2591
g2560
a(lp2592
S'That'
p2593
aS'was'
p2594
aS'about'
p2595
aaa(lp2596
g2560
a(lp2597
S'That'
p2598
aS'was'
p2599
aS'about'
p2600
aS'nineteen'
p2601
aaa(lp2602
g2560
a(lp2603
S'Spring'
p2604
aS'of'
p2605
aS'sixtyeight'
p2606
aaa(lp2607
g2560
a(lp2608
S'And'
p2609
ag4
aS'was'
p2610
aS'watching'
p2611
aS'the'
p2612
aS'Olympics'
p2613
aaa(lp2614
g2560
a(lp2615
S'of'
p2616
aS'nineteenseventytwo'
p2617
aaa(lp2618
g2560
a(lp2619
S'And'
p2620
aS'hed'
p2621
aS'been'
p2622
aS'engaged'
p2623
aS'by'
p2624
aS'the'
p2625
aS'Olympic'
p2626
aS'committee'
p2627
aaa(lp2628
g2560
a(lp2629
S'Uh'
p2630
aS'he'
p2631
aS'was'
p2632
aS'prominent'
p2633
aS'then'
p2634
aaa(lp2635
g2560
a(lp2636
S'but'
p2637
aS'not'
p2638
aS'world'
p2639
aS'famous'
p2640
aaa(lp2641
S'JON'
p2642
a(lp2643
aa(lp2644
S'ALANAnd'
p2645
a(lp2646
S'uh'
p2647
aaa(lp2648
g2645
a(lp2649
g4
aaa(lp2650
g2645
a(lp2651
S'He'
p2652
aS'was'
p2653
aS'up'
p2654
aS'all'
p2655
aS'over'
p2656
aaa(lp2657
g2645
a(lp2658
S'Hes'
p2659
aS'got'
p2660
ag6
aS'great'
p2661
aS'big'
p2662
aS'bull'
p2663
aS'of'
p2664
aaa(lp2665
g2645
a(lp2666
S'Bull'
p2667
aS'Moose'
p2668
aS'moustache'
p2669
aS'sort'
p2670
aS'of'
p2671
ag6
aS'deal'
p2672
aaa(lp2673
g2645
a(lp2674
S'General'
p2675
aS'Bull'
p2676
aS'Moose'
p2677
aS'if'
p2678
aS'you'
p2679
aS'remember'
p2680
aaa(lp2681
S'JONYep'
p2682
a(lp2683
aa(lp2684
S'ALAN'
p2685
a(lp2686
S'And'
p2687
aS'uh'
p2688
aaa(lp2689
g2685
a(lp2690
S'his'
p2691
aS'art'
p2692
aS'was'
p2693
aS'so'
p2694
aS'distinctive'
p2695
aaa(lp2696
g2685
a(lp2697
S'And'
p2698
aS'hes'
p2699
aaa(lp2700
g2685
a(lp2701
S'The'
p2702
aS'sketching'
p2703
aaa(lp2704
g2685
a(lp2705
g4
aS'said'
p2706
aS'Jesus'
p2707
aaa(lp2708
g2685
a(lp2709
S'Thats'
p2710
aS'my'
p2711
aS'man'
p2712
aaa(lp2713
g2685
a(lp2714
g4
aS'remember'
p2715
aS'seeing'
p2716
aS'at'
p2717
aS'the'
p2718
aS'Olympics'
p2719
aaa(lp2720
g2685
a(lp2721
g4
aS'hollered'
p2722
aS'and'
p2723
aS'screamed'
p2724
aaa(lp2725
g2685
a(lp2726
S'and'
p2727
ag4
aS'told'
p2728
aS'the'
p2729
aS'story'
p2730
aaa(lp2731
g2685
a(lp2732
S'Well'
p2733
aS'of'
p2734
aS'course'
p2735
aaa(lp2736
g2685
a(lp2737
S'since'
p2738
aS'that'
p2739
aS'time'
p2740
aaa(lp2741
g2685
a(lp2742
S'Im'
p2743
aS'on'
p2744
aS'his'
p2745
aS'mailing'
p2746
aS'list'
p2747
aaa(lp2748
g2685
a(lp2749
S'XX'
p2750
aS'XX'
p2751
ag265
ag265
aaa(lp2752
g2685
a(lp2753
S'one'
p2754
aS'main'
p2755
aS'gallery'
p2756
aS'in'
p2757
aS'New'
p2758
aS'York'
p2759
aaa(lp2760
g2685
a(lp2761
S'that'
p2762
aS'uh'
p2763
aaa(lp2764
g2685
a(lp2765
S'think'
p2766
aS'distributes'
p2767
aS'for'
p2768
aS'him'
p2769
aS'around'
p2770
aS'the'
p2771
aS'United'
p2772
aS'States'
p2773
aaa(lp2774
g2685
a(lp2775
S'and'
p2776
aS'Im'
p2777
aS'on'
p2778
aS'the'
p2779
aS'mailing'
p2780
aS'list'
p2781
aaa(lp2782
g2685
a(lp2783
S'and'
p2784
aS'they'
p2785
aS'get'
p2786
aS'today'
p2787
aaa(lp2788
g2685
a(lp2789
S'twentyfive'
p2790
aS'hundred'
p2791
aS'to'
p2792
aS'twentysevenfifty'
p2793
aS'for'
p2794
ag6
aS'seriograph'
p2795
aaa(lp2796
g2685
a(lp2797
S'Of'
p2798
aS'which'
p2799
aS'he'
p2800
aS'produces'
p2801
aS'maybe'
p2802
aS'three'
p2803
aS'to'
p2804
aS'fivehundred'
p2805
aS'of'
p2806
aS'em'
p2807
aaa(lp2808
g2685
a(lp2809
S'Depending'
p2810
aS'on'
p2811
aS'the'
p2812
aS'issue'
p2813
aaa(lp2814
g2685
a(lp2815
S'But'
p2816
aS'these'
p2817
aS'were'
p2818
aS'originals'
p2819
aaa(lp2820
g2685
a(lp2821
g4
aaa(lp2822
g2685
a(lp2823
S'Jon'
p2824
ag4
aS'promise'
p2825
aS'you'
p2826
aS'as'
p2827
aS'God'
p2828
aS'as'
p2829
aS'my'
p2830
aS'witness'
p2831
aaa(lp2832
g2685
a(lp2833
g4
aaa(lp2834
g2685
a(lp2835
S'He'
p2836
aS'was'
p2837
aaa(lp2838
g2685
a(lp2839
g4
aS'couldve'
p2840
aS'walked'
p2841
aS'away'
p2842
aS'with'
p2843
aS'those'
p2844
aS'things'
p2845
aS'and'
p2846
aaa(lp2847
g2685
a(lp2848
S'And'
p2849
aS'uh'
p2850
aaa(lp2851
g2685
a(lp2852
g4
ag4
ag4
aS'p'
p2853
aaa(lp2854
g2685
a(lp2855
S'But'
p2856
aS'thats'
p2857
aS'my'
p2858
aS'story'
p2859
aS'on'
p2860
aS'that'
p2861
aS'machine'
p2862
aaa(lp2863
g2685
a(lp2864
S'That'
p2865
aS'damn'
p2866
aS'thing'
p2867
aaa(lp2868
g2685
a(lp2869
S'and'
p2870
aS'of'
p2871
aS'course'
p2872
aaa(lp2873
g2685
a(lp2874
g4
aS'didnt'
p2875
aS'know'
p2876
aaa(lp2877
g2685
a(lp2878
S'Obviously'
p2879
ag4
aS'didnt'
p2880
aS'know'
p2881
aS'what'
p2882
ag4
aS'was'
p2883
aS'missing'
p2884
aaa(lp2885
g2685
a(lp2886
S'if'
p2887
aS'Id'
p2888
aS'done'
p2889
aS'Id'
p2890
aS'done'
p2891
aS'that'
p2892
aaa(lp2893
S'JON'
p2894
a(lp2895
aa(lp2896
g2894
a(lp2897
S'Obviously'
p2898
aaa(lp2899
S'ALANBut'
p2900
a(lp2901
S'you'
p2902
aS'know'
p2903
aaa(lp2904
S'JON'
p2905
a(lp2906
aa(lp2907
S'ALAN'
p2908
a(lp2909
g265
aS'It'
p2910
aS'was'
p2911
ag265
aaa(lp2912
S'JONBut'
p2913
a(lp2914
S'still'
p2915
aS'fivehundred'
p2916
aS'dollars'
p2917
aS'was'
p2918
ag6
aS'lot'
p2919
aS'of'
p2920
aS'money'
p2921
aS'in'
p2922
aS'those'
p2923
aaa(lp2924
S'ALAN'
p2925
a(lp2926
S'Fivehundred'
p2927
aS'dollars'
p2928
aS'was'
p2929
aaa(lp2930
S'JONYou'
p2931
a(lp2932
S'didnt'
p2933
aS'spend'
p2934
aS'that'
p2935
aS'much'
p2936
aS'on'
p2937
aS'the'
p2938
aS'whole'
p2939
aS'trip'
p2940
aS'probably'
p2941
aaa(lp2942
S'ALANOh'
p2943
a(lp2944
S'hell'
p2945
ag4
ag228
ag4
aaa(lp2946
g2943
a(lp2947
S'you'
p2948
aS'know'
p2949
ag4
ag228
ag4
aaa(lp2950
g2943
a(lp2951
g4
aS'would'
p2952
ag1433
ag4
aS'would'
p2953
aS'say'
p2954
aS'probably'
p2955
aaa(lp2956
g2943
a(lp2957
S'certainly'
p2958
aS'we'
p2959
aS'didnt'
p2960
aS'spend'
p2961
aS'fivehundred'
p2962
aS'dollars'
p2963
aS'for'
p2964
aaa(lp2965
g2943
a(lp2966
S'uh'
p2967
aaa(lp2968
g2943
a(lp2969
S'for'
p2970
aaa(lp2971
g2943
a(lp2972
S'novelties'
p2973
aS'and'
p2974
aS'things'
p2975
aS'of'
p2976
aS'that'
p2977
aS'nature'
p2978
aaa(lp2979
g2943
a(lp2980
S'you'
p2981
aS'know'
p2982
aS'it'
p2983
aS'was'
p2984
aaa(lp2985
g2943
a(lp2986
S'You'
p2987
aS'tal'
p2988
aS'you'
p2989
aS'talking'
p2990
aS'about'
p2991
ag6
aS'long'
p2992
aS'time'
p2993
aS'ago'
p2994
aaa(lp2995
g2943
a(lp2996
S'Mexico'
p2997
aS'City'
p2998
aS'was'
p2999
aS'cheap'
p3000
aaa(lp3001
g2943
a(lp3002
S'Jesus'
p3003
aS'Christ'
p3004
aaa(lp3005
S'JONOh'
p3006
a(lp3007
S'man'
p3008
aS'it'
p3009
aS'was'
p3010
aaa(lp3011
S'ALANI'
p3012
a(lp3013
S'mean'
p3014
aaa(lp3015
g3012
a(lp3016
S'We'
p3017
aS'we'
p3018
aS'we'
p3019
aS'stayed'
p3020
aS'in'
p3021
ag6
aS'first'
p3022
aS'rate'
p3023
aaa(lp3024
g3012
a(lp3025
g4
aS'guess'
p3026
aS'what'
p3027
aS'you'
p3028
aS'call'
p3029
aS'today'
p3030
ag6
aS'four'
p3031
aS'star'
p3032
aS'hotel'
p3033
aS'but'
p3034
aaa(lp3035
g3012
a(lp3036
S'hell'
p3037
aaa(lp3038
g3012
a(lp3039
g4
aS'dont'
p3040
aS'imagine'
p3041
aS'we'
p3042
aS'paid'
p3043
aaa(lp3044
g3012
a(lp3045
S'twenty'
p3046
aS'dollars'
p3047
aaa(lp3048
g3012
a(lp3049
S'twentyfive'
p3050
aS'dollars'
p3051
ag6
aS'night'
p3052
aaa(lp3053
g3012
a(lp3054
S'You'
p3055
aS'know'
p3056
aS'XX'
p3057
aS'uh'
p3058
aS'uh'
p3059
aaa(lp3060
S'JONProbably'
p3061
a(lp3062
aa(lp3063
g3061
a(lp3064
S'Probably'
p3065
aaa(lp3066
S'ALANBut'
p3067
a(lp3068
S'uh'
p3069
aaa(lp3070
g3067
a(lp3071
S'anyhow'
p3072
aaa(lp3073
g3067
a(lp3074
S'uh'
p3075
ag4
ag4
ag4
aaa(lp3076
g3067
a(lp3077
g265
aS'God'
p3078
ag265
ag4
aS'my'
p3079
aaa(lp3080
g3067
a(lp3081
g4
aS'give'
p3082
aS'my'
p3083
aS'wife'
p3084
aS'the'
p3085
aS'story'
p3086
aaa(lp3087
g3067
a(lp3088
S'Every'
p3089
aS'once'
p3090
aS'in'
p3091
ag6
aS'while'
p3092
aS'this'
p3093
aS'guys'
p3094
aS'name'
p3095
aaa(lp3096
g3067
a(lp3097
S'Cause'
p3098
aS'uh'
p3099
ag4
ag4
ag4
ag4
ag4
aS'like'
p3100
aS'this'
p3101
aS'guy'
p3102
aaa(lp3103
g3067
a(lp3104
S'love'
p3105
aS'him'
p3106
aaa(lp3107
g3067
a(lp3108
S'Uh'
p3109
aaa(lp3110
g3067
a(lp3111
S'and'
p3112
aS'of'
p3113
aS'course'
p3114
aaa(lp3115
g3067
a(lp3116
S'you'
p3117
aS'know'
p3118
aS'Ive'
p3119
aS'never'
p3120
aaa(lp3121
g3067
a(lp3122
S'uh'
p3123
aaa(lp3124
g3067
a(lp3125
S'XX'
p3126
aaa(lp3127
g3067
a(lp3128
S'This'
p3129
aS'one'
p3130
aS'over'
p3131
aS'here'
p3132
aS'on'
p3133
aS'the'
p3134
aS'right'
p3135
aaa(lp3136
g3067
a(lp3137
S'although'
p3138
aS'its'
p3139
aS'signed'
p3140
aS'by'
p3141
aaa(lp3142
g3067
a(lp3143
S'by'
p3144
ag2146
aaa(lp3145
g3067
a(lp3146
S'Nier'
p3147
aaa(lp3148
g3067
a(lp3149
S'By'
p3150
aaa(lp3151
g3067
a(lp3152
S'by'
p3153
aS'LeRoy'
p3154
aS'Neiman'
p3155
aaa(lp3156
g3067
a(lp3157
S'Paul'
p3158
aS'XX'
p3159
aaa(lp3160
g3067
a(lp3161
S'and'
p3162
ag6
aS'uh'
p3163
aaa(lp3164
g3067
a(lp3165
S'And'
p3166
aS'is'
p3167
aS'also'
p3168
aS'signed'
p3169
aS'by'
p3170
aS'the'
p3171
aS'artist'
p3172
aaa(lp3173
g3067
a(lp3174
S'it'
p3175
aS'was'
p3176
aS'done'
p3177
aS'for'
p3178
ag6
aaa(lp3179
g3067
a(lp3180
S'uh'
p3181
aaa(lp3182
S'JON'
p3183
a(lp3184
S'Poster'
p3185
aaa(lp3186
S'ALAN'
p3187
a(lp3188
g728
aS'benefit'
p3189
aaa(lp3190
g3187
a(lp3191
S'it'
p3192
aS'was'
p3193
ag6
aS'poster'
p3194
aaa(lp3195
g3187
a(lp3196
S'Thats'
p3197
aS'just'
p3198
aaa(lp3199
g3187
a(lp3200
S'Thats'
p3201
aS'not'
p3202
ag6
aaa(lp3203
g3187
a(lp3204
S'thats'
p3205
aS'not'
p3206
aS'what'
p3207
aS'they'
p3208
aS'call'
p3209
ag6
aS'seriograph'
p3210
aaa(lp3211
g3187
a(lp3212
S'the'
p3213
aS'Joe'
p3214
aS'N'
p3215
aaa(lp3216
g3187
a(lp3217
S'the'
p3218
aS'Joe'
p3219
aS'uh'
p3220
aS'Namath'
p3221
aaa(lp3222
g3187
a(lp3223
S'Who'
p3224
aS'was'
p3225
aS'of'
p3226
aS'course'
p3227
aS'an'
p3228
aS'Alabama'
p3229
aS'football'
p3230
aS'player'
p3231
aaa(lp3232
S'JONYeah'
p3233
a(lp3234
aa(lp3235
g3233
a(lp3236
S'Yeah'
p3237
aaa(lp3238
S'ALAN'
p3239
a(lp3240
S'is'
p3241
aaa(lp3242
g3239
a(lp3243
g4
aS'saw'
p3244
aS'it'
p3245
aS'out'
p3246
aS'in'
p3247
aS'San'
p3248
aS'Francisco'
p3249
aaa(lp3250
g3239
a(lp3251
S'and'
p3252
aS'my'
p3253
aaa(lp3254
g3239
a(lp3255
S'my'
p3256
aS'my'
p3257
aS'inlaws'
p3258
aS'bought'
p3259
aS'that'
p3260
aS'for'
p3261
aS'me'
p3262
aaa(lp3263
g3239
a(lp3264
S'uh'
p3265
aaa(lp3266
g3239
a(lp3267
S'but'
p3268
aS'uh'
p3269
aaa(lp3270
g3239
a(lp3271
S'uh'
p3272
aaa(lp3273
S'JON'
p3274
a(lp3275
S'Its'
p3276
ag6
aS'beauty'
p3277
aS'though'
p3278
aaa(lp3279
S'ALANThats'
p3280
a(lp3281
S'my'
p3282
aaa(lp3283
g3280
a(lp3284
S'That'
p3285
aS'th'
p3286
aS'thats'
p3287
aS'my'
p3288
aS'r'
p3289
aaa(lp3290
g3280
a(lp3291
S'Thats'
p3292
aS'my'
p3293
aaa(lp3294
g3280
a(lp3295
S'my'
p3296
aS'experience'
p3297
aS'with'
p3298
aS'one'
p3299
aS'of'
p3300
aS'those'
p3301
aS'machines'
p3302
aaa(lp3303
g3280
a(lp3304
g4
aS'didnt'
p3305
aS'have'
p3306
aS'enough'
p3307
aS'judgment'
p3308
aS'to'
p3309
aaa(lp3310
g3280
a(lp3311
S'to'
p3312
aS'trade'
p3313
aS'him'
p3314
aS'that'
p3315
aS'fucking'
p3316
aS'machine'
p3317
aaa(lp3318
S'JONTo'
p3319
a(lp3320
S'give'
p3321
aS'him'
p3322
aS'the'
p3323
aS'machine'
p3324
aaa(lp3325
S'ALANbecause'
p3326
a(lp3327
S'Id'
p3328
aS'say'
p3329
aS'probably'
p3330
aS'it'
p3331
aS'wasnt'
p3332
aaa(lp3333
g3326
a(lp3334
S'Like'
p3335
aS'it'
p3336
aS'was'
p3337
aS'like'
p3338
aS'computers'
p3339
aaa(lp3340
g3326
a(lp3341
S'Well'
p3342
aS'in'
p3343
ag6
aS'year'
p3344
aS'or'
p3345
aS'so'
p3346
aS'after'
p3347
aS'that'
p3348
aaa(lp3349
g3326
a(lp3350
S'that'
p3351
aS'thing'
p3352
aS'was'
p3353
aS'so'
p3354
aS'impractical'
p3355
aaa(lp3356
g3326
a(lp3357
S'Cause'
p3358
aS'it'
p3359
aS'was'
p3360
ag1433
aaa(lp3361
g3326
a(lp3362
S'heavy'
p3363
aS'heavy'
p3364
aS'heavy'
p3365
aaa(lp3366
g3326
a(lp3367
S'You'
p3368
aaa(lp3369
g3326
a(lp3370
S'uh'
p3371
aS'and'
p3372
aaa(lp3373
S'JONWell'
p3374
a(lp3375
S'theyre'
p3376
aaa(lp3377
g3374
a(lp3378
S'its'
p3379
aS'like'
p3380
aS'you'
p3381
aS'say'
p3382
ag4
aaa(lp3383
S'ALANXX'
p3384
a(lp3385
aa(lp3386
S'JONEloise'
p3387
a(lp3388
S'gave'
p3389
aS'me'
p3390
aS'one'
p3391
aS'for'
p3392
aS'Christmas'
p3393
aS'about'
p3394
aaa(lp3395
S'ALANX'
p3396
a(lp3397
aa(lp3398
g3396
a(lp3399
S'This'
p3400
aS'big'
p3401
aaa(lp3402
g3396
a(lp3403
S'You'
p3404
aS'know'
p3405
aaa(lp3406
g3396
a(lp3407
S'and'
p3408
aS'you'
p3409
aS'buy'
p3410
aS'one'
p3411
aS'for'
p3412
aaa(lp3413
g3396
a(lp3414
S'sixty'
p3415
aS'dollars'
p3416
aaa(lp3417
g3396
a(lp3418
S'Eighty'
p3419
aS'dollars'
p3420
aaa(lp3421
g3396
a(lp3422
g4
aS'got'
p3423
aS'one'
p3424
aaa(lp3425
g3396
a(lp3426
g4
aS'bought'
p3427
aS'from'
p3428
aS'Radio'
p3429
aS'Shack'
p3430
aaa(lp3431
g3396
a(lp3432
S'Its'
p3433
aaa(lp3434
S'JON'
p3435
a(lp3436
S'Well'
p3437
aS'did'
p3438
aS'Rae'
p3439
aS'ever'
p3440
aS'get'
p3441
aS'uh'
p3442
aS'Nierman'
p3443
aaa(lp3444
S'ALAN'
p3445
a(lp3446
S'XXX'
p3447
aaa(lp3448
g3445
a(lp3449
S'No'
p3450
aaa(lp3451
g3445
a(lp3452
S'Never'
p3453
aS'did'
p3454
aS'get'
p3455
aS'it'
p3456
aaa(lp3457
g3445
a(lp3458
S'But'
p3459
aS'she'
p3460
aS'nudged'
p3461
aS'me'
p3462
aS'when'
p3463
aS'she'
p3464
aS'got'
p3465
aS'back'
p3466
aaa(lp3467
g3445
a(lp3468
S'but'
p3469
aS'of'
p3470
aS'course'
p3471
aaa(lp3472
g3445
a(lp3473
g4
aS'guess'
p3474
aaa(lp3475
g3445
a(lp3476
g4
aS'havent'
p3477
aS'done'
p3478
aS'it'
p3479
aS'recently'
p3480
aaa(lp3481
g3445
a(lp3482
S'but'
p3483
aS'over'
p3484
aS'the'
p3485
aS'years'
p3486
ag4
aS'like'
p3487
aS'to'
p3488
aS'tell'
p3489
aS'her'
p3490
aS'this'
p3491
aS'story'
p3492
aaa(lp3493
S'JON'
p3494
a(lp3495
aa(lp3496
S'ALANtonight'
p3497
a(lp3498
aa(lp3499
g3497
a(lp3500
S'because'
p3501
ag4
aS'havent'
p3502
aS'thought'
p3503
aS'about'
p3504
aS'it'
p3505
aS'in'
p3506
ag6
aS'long'
p3507
aS'time'
p3508
aaa(lp3509
g3497
a(lp3510
S'And'
p3511
aS'shell'
p3512
aS'say'
p3513
aS'to'
p3514
aS'me'
p3515
aaa(lp3516
g3497
a(lp3517
S'VOX'
p3518
ag4
aS'told'
p3519
aS'you'
p3520
aS'to'
p3521
aS'get'
p3522
aS'em'
p3523
aaa(lp3524
S'JON'
p3525
a(lp3526
aa(lp3527
S'ALANI'
p3528
a(lp3529
S'told'
p3530
aS'you'
p3531
aS'VOX'
p3532
aaa(lp3533
g3528
a(lp3534
g4
aS'mustve'
p3535
aS'gone'
p3536
aS'into'
p3537
aS'the'
p3538
aS'place'
p3539
aS'five'
p3540
aS'times'
p3541
aaa(lp3542
g3528
a(lp3543
S'You'
p3544
aS'know'
p3545
aaa(lp3546
g3528
a(lp3547
S'Id'
p3548
aS'go'
p3549
aS'in'
p3550
aS'there'
p3551
aaa(lp3552
S'JONXX'
p3553
a(lp3554
aa(lp3555
S'ALAN'
p3556
a(lp3557
S'and'
p3558
aS'your'
p3559
aS'mouth'
p3560
aS'is'
p3561
aS'just'
p3562
aS'VOX'
p3563
aS'watering'
p3564
aS'VOX'
p3565
aaa(lp3566
g3556
a(lp3567
S'Shit'
p3568
aaa(lp3569
g3556
a(lp3570
S'If'
p3571
ag4
aS'buy'
p3572
aS'those'
p3573
aaa(lp3574
S'JONBut'
p3575
a(lp3576
S'you'
p3577
aS'knew'
p3578
aS'you'
p3579
aS'were'
p3580
aS'gonna'
p3581
aS'have'
p3582
aS'to'
p3583
aS'buy'
p3584
aS'her'
p3585
ag228
aaa(lp3586
S'ALANWell'
p3587
a(lp3588
S'if'
p3589
ag4
aS'had'
p3590
aS'to'
p3591
aaa(lp3592
g3587
a(lp3593
S'If'
p3594
ag4
aS'bought'
p3595
aS'those'
p3596
aS'things'
p3597
aaa(lp3598
g3587
a(lp3599
S'Shit'
p3600
aS'Id'
p3601
aS'have'
p3602
aS'to'
p3603
aS'buy'
p3604
aS'her'
p3605
aS'that'
p3606
aS'damn'
p3607
aS'thing'
p3608
aaa(lp3609
S'JONOh'
p3610
a(lp3611
aa(lp3612
g3610
a(lp3613
S'aint'
p3614
aS'no'
p3615
aS'question'
p3616
aaa(lp3617
S'ALANAnd'
p3618
a(lp3619
S'there'
p3620
aS'was'
p3621
aS'no'
p3622
aS'question'
p3623
aS'about'
p3624
aS'that'
p3625
aaa(lp3626
g3618
a(lp3627
S'there'
p3628
aS'wouldntve'
p3629
aS'been'
p3630
ag265
aS'any'
p3631
aS'liv'
p3632
ag265
aaa(lp3633
g3618
a(lp3634
S'Wouldnt'
p3635
aS'been'
p3636
aS'any'
p3637
aS'living'
p3638
aS'with'
p3639
aS'her'
p3640
aaa(lp3641
g3618
a(lp3642
S'You'
p3643
aS'know'
p3644
aaa(lp3645
g3618
a(lp3646
S'its'
p3647
aS'uh'
p3648
aaa(lp3649
g3618
a(lp3650
S'y'
p3651
ag3651
aaa(lp3652
g3618
a(lp3653
S'You'
p3654
aS'know'
p3655
aaa(lp3656
g3618
a(lp3657
S'h'
p3658
ag4
aaa(lp3659
g3618
a(lp3660
S'Ive'
p3661
aS'gotten'
p3662
ag6
aS'lot'
p3663
aS'better'
p3664
aaa(lp3665
g3618
a(lp3666
S'But'
p3667
aS'in'
p3668
aS'those'
p3669
aS'days'
p3670
aaa(lp3671
g3618
a(lp3672
S'you'
p3673
aS'know'
p3674
aaa(lp3675
g3618
a(lp3676
S'hell'
p3677
ag4
aS'was'
p3678
aaa(lp3679
g3618
a(lp3680
S'uh'
p3681
aaa(lp3682
g3618
a(lp3683
S'maybe'
p3684
aaa(lp3685
g3618
a(lp3686
g4
aS'was'
p3687
aaa(lp3688
g3618
a(lp3689
g1433
aS'see'
p3690
aaa(lp3691
g3618
a(lp3692
S'Sixtyeight'
p3693
aaa(lp3694
g3618
a(lp3695
S'seventyeight'
p3696
aS'eightyeight'
p3697
aaa(lp3698
g3618
a(lp3699
g265
aaa(lp3700
g3618
a(lp3701
S'Just'
p3702
aS'twentyseven'
p3703
aS'twentyeight'
p3704
aS'years'
p3705
aS'ago'
p3706
aaa(lp3707
g3618
a(lp3708
g4
aS'was'
p3709
aS'thirtyeight'
p3710
aS'thirtynine'
p3711
aS'years'
p3712
aS'old'
p3713
aaa(lp3714
g3618
a(lp3715
S'And'
p3716
aS'uh'
p3717
aaa(lp3718
g3618
a(lp3719
g4
aaa(lp3720
g3618
a(lp3721
g4
aS'sure'
p3722
aS'didnt'
p3723
aS'have'
p3724
aaa(lp3725
g3618
a(lp3726
g4
aS'sure'
p3727
aS'wasnt'
p3728
aS'prosperous'
p3729
aaa(lp3730
g3618
a(lp3731
g4
aS'had'
p3732
aS'my'
p3733
aS'damn'
p3734
aS'trip'
p3735
aS'budgeted'
p3736
aaa(lp3737
g3618
a(lp3738
S'And'
p3739
aS'uh'
p3740
aaa(lp3741
g3618
a(lp3742
S'to'
p3743
aS'have'
p3744
aS'gone'
p3745
aS'out'
p3746
aS'there'
p3747
aS'and'
p3748
aS'spent'
p3749
aaa(lp3750
g3618
a(lp3751
S'another'
p3752
aS'fifteenhundred'
p3753
aS'to'
p3754
aS'twothousand'
p3755
aS'dollars'
p3756
aS'for'
p3757
aS'artwork'
p3758
aaa(lp3759
g3618
a(lp3760
S'you'
p3761
aS'know'
p3762
aaa(lp3763
g3618
a(lp3764
S'my'
p3765
aS'mother'
p3766
aaa(lp3767
g3618
a(lp3768
S'who'
p3769
aS'was'
p3770
aS'you'
p3771
aS'know'
p3772
aS'strong'
p3773
aS'as'
p3774
aS'moose'
p3775
aS'meat'
p3776
aaa(lp3777
g3618
a(lp3778
S'come'
p3779
aS'back'
p3780
aaa(lp3781
g3618
a(lp3782
S'if'
p3783
aS'shedve'
p3784
aS'known'
p3785
aaa(lp3786
S'JON'
p3787
a(lp3788
aa(lp3789
S'ALANShedve'
p3790
a(lp3791
S'figured'
p3792
ag4
aS'needed'
p3793
aS'my'
p3794
aS'fucking'
p3795
aS'head'
p3796
aS'examined'
p3797
aaa(lp3798
S'JON'
p3799
a(lp3800
S'Shedve'
p3801
aS'deducted'
p3802
aS'it'
p3803
aaa(lp3804
S'ALANWH'
p3805
a(lp3806
S'Shit'
p3807
aS'WH'
p3808
aaa(lp3809
S'JONOh'
p3810
a(lp3811
aa(lp3812
S'ALAN'
p3813
a(lp3814
S'Any'
p3815
aS'rate'
p3816
aS'uh'
p3817
aaa(lp3818
S'JONThats'
p3819
a(lp3820
g6
aS'good'
p3821
aS'story'
p3822
aS'though'
p3823
aaa(lp3824
S'ALANAh'
p3825
a(lp3826
S'its'
p3827
aS'true'
p3828
aS'story'
p3829
aaa(lp3830
S'JONGood'
p3831
a(lp3832
S'story'
p3833
aaa(lp3834
S'ALANTrue'
p3835
a(lp3836
S'story'
p3837
aaa(lp3838
g3835
a(lp3839
S'It'
p3840
aS'was'
p3841
ag6
aS'true'
p3842
aS'story'
p3843
aaa(lp3844
g3835
a(lp3845
g4
ag4
aaa(lp3846
S'JON'
p3847
a(lp3848
S'Well'
p3849
aS'it'
p3850
aS'wouldve'
p3851
aS'cost'
p3852
aS'you'
p3853
aS'that'
p3854
aS'to'
p3855
aS'replace'
p3856
aS'the'
p3857
aS'doggone'
p3858
aS'machine'
p3859
aaa(lp3860
S'ALAN'
p3861
a(lp3862
S'Aw'
p3863
aS'Idve'
p3864
aS'had'
p3865
aS'to'
p3866
aS'replace'
p3867
aS'it'
p3868
aS'for'
p3869
aS'the'
p3870
aS'store'
p3871
aaa(lp3872
g3861
a(lp3873
S'uh'
p3874
aaa(lp3875
g3861
a(lp3876
S'but'
p3877
aS'as'
p3878
ag4
aS'said'
p3879
aS'it'
p3880
aS'was'
p3881
aS'only'
p3882
ag6
aS'matter'
p3883
aS'of'
p3884
aaa(lp3885
g3861
a(lp3886
g4
aS'guess'
p3887
ag6
aS'year'
p3888
aaa(lp3889
g3861
a(lp3890
S'those'
p3891
aS'things'
p3892
aS'were'
p3893
aS'really'
p3894
aS'antiquated'
p3895
aaa(lp3896
g3861
a(lp3897
S'Although'
p3898
aS'we'
p3899
aS'used'
p3900
aS'em'
p3901
ag6
aS'lot'
p3902
aaa(lp3903
g3861
a(lp3904
S'Uh'
p3905
aaa(lp3906
g3861
a(lp3907
S'in'
p3908
aS'those'
p3909
aS'days'
p3910
aaa(lp3911
g3861
a(lp3912
S'and'
p3913
ag4
aaa(lp3914
g3861
a(lp3915
S'you'
p3916
aS'know'
p3917
ag4
aS'recorded'
p3918
aS'the'
p3919
aS'whole'
p3920
aS'trip'
p3921
aaa(lp3922
g3861
a(lp3923
S'and'
p3924
aS'uh'
p3925
aaa(lp3926
g3861
a(lp3927
S'you'
p3928
aS'know'
p3929
aS'things'
p3930
aS'that'
p3931
aS'we'
p3932
aS'did'
p3933
aaa(lp3934
g3861
a(lp3935
S'It'
p3936
aS'was'
p3937
ag6
aS'wonderful'
p3938
aS'trip'
p3939
aaa(lp3940
g3861
a(lp3941
g265
aS'we'
p3942
aS'had'
p3943
aS'good'
p3944
aS'times'
p3945
ag265
aaa(lp3946
S'JONBetter'
p3947
a(lp3948
S'than'
p3949
aS'keeping'
p3950
ag6
aS'diary'
p3951
aaa(lp3952
S'ALANOh'
p3953
a(lp3954
S'yeah'
p3955
aaa(lp3956
g3953
a(lp3957
g728
aS'lot'
p3958
aS'easier'
p3959
aaa(lp3960
g3953
a(lp3961
S'It'
p3962
aS'really'
p3963
aS'is'
p3964
aaa(lp3965
g3953
a(lp3966
S'Uh'
p3967
aaa(lp3968
S'JON'
p3969
a(lp3970
S'We'
p3971
aaa(lp3972
S'ALAN'
p3973
a(lp3974
g4
aS'keep'
p3975
ag6
aaa(lp3976
S'JONRemember'
p3977
a(lp3978
S'we'
p3979
aS'tried'
p3980
aS'keeping'
p3981
ag6
aS'diary'
p3982
aS'on'
p3983
aS'the'
p3984
aS'China'
p3985
aS'trip'
p3986
aaa(lp3987
g3977
a(lp3988
S'and'
p3989
aS'man'
p3990
aS'it'
p3991
aS'was'
p3992
aS'arduous'
p3993
aaa(lp3994
S'ALANWell'
p3995
a(lp3996
aa(lp3997
g3995
a(lp3998
g4
aS'keep'
p3999
ag6
aS'diary'
p4000
aaa(lp4001
g3995
a(lp4002
S'course'
p4003
ag4
aS'we'
p4004
aS'we'
p4005
aS'havent'
p4006
aS'traveled'
p4007
aS'much'
p4008
aS'lately'
p4009
aaa(lp4010
g3995
a(lp4011
g4
aS'keep'
p4012
ag6
aS'diary'
p4013
aaa(lp4014
g3995
a(lp4015
S'when'
p4016
ag4
aaa(lp4017
g3995
a(lp4018
S'go'
p4019
aS'out'
p4020
aS'of'
p4021
aS'the'
p4022
aS'country'
p4023
aaa(lp4024
g3995
a(lp4025
S'Still'
p4026
aS'got'
p4027
aS'em'
p4028
aS'in'
p4029
aS'here'
p4030
aaa(lp4031
g3995
a(lp4032
S'Otherwise'
p4033
aaa(lp4034
g3995
a(lp4035
S'my'
p4036
aS'problem'
p4037
aS'is'
p4038
aaa(lp4039
g3995
a(lp4040
S'and'
p4041
aS'its'
p4042
ag6
aS'lot'
p4043
aS'easier'
p4044
aS'to'
p4045
aS'do'
p4046
aS'it'
p4047
aS'that'
p4048
aS'way'
p4049
aaa(lp4050
g3995
a(lp4051
S'but'
p4052
ag4
aaa(lp4053
g3995
a(lp4054
g4
aS'keep'
p4055
ag4
aS'diary'
p4056
aS'when'
p4057
ag4
aS'go'
p4058
aS'out'
p4059
aS'of'
p4060
aS'the'
p4061
aS'country'
p4062
aaa(lp4063
S'JON'
p4064
a(lp4065
aa(lp4066
S'ALANThe'
p4067
a(lp4068
S'problem'
p4069
aS'is'
p4070
aaa(lp4071
g4067
a(lp4072
S'with'
p4073
aS'me'
p4074
aaa(lp4075
g4067
a(lp4076
S'not'
p4077
aS'that'
p4078
aS'it'
p4079
aS'comes'
p4080
aS'up'
p4081
aS'too'
p4082
aS'much'
p4083
aaa(lp4084
g4067
a(lp4085
S'but'
p4086
aS'someonell'
p4087
aS'say'
p4088
aS'something'
p4089
aS'to'
p4090
aS'me'
p4091
aS'about'
p4092
aS'somewhere'
p4093
ag4
ag1433
aaa(lp4094
g4067
a(lp4095
S'Shit'
p4096
aaa(lp4097
g4067
a(lp4098
g4
ag4
aaa(lp4099
g4067
a(lp4100
S'you'
p4101
aS'know'
p4102
ag4
aaa(lp4103
g4067
a(lp4104
g4
aS'forgot'
p4105
aS'where'
p4106
ag4
aS'went'
p4107
aaa(lp4108
g4067
a(lp4109
g4
aS'have'
p4110
aS'to'
p4111
aS'look'
p4112
aaa(lp4113
g4067
a(lp4114
S'cause'
p4115
ag4
aS'cant'
p4116
aS'remember'
p4117
aaa(lp4118
S'JON'
p4119
a(lp4120
S'Well'
p4121
aS'you'
p4122
aS'go'
p4123
aS'to'
p4124
aS'so'
p4125
aS'many'
p4126
aS'places'
p4127
aaa(lp4128
g4119
a(lp4129
S'on'
p4130
ag6
aS'cruise'
p4131
aS'particularly'
p4132
aaa(lp4133
g4119
a(lp4134
S'you'
p4135
aS'know'
p4136
aaa(lp4137
S'ALANYeah'
p4138
a(lp4139
aa(lp4140
S'JON'
p4141
a(lp4142
S'So'
p4143
aS'many'
p4144
aS'places'
p4145
aS'in'
p4146
ag6
aS'short'
p4147
aS'time'
p4148
aaa(lp4149
g4141
a(lp4150
S'that'
p4151
aS'you'
p4152
aS'get'
p4153
aS'em'
p4154
aS'mixed'
p4155
aS'up'
p4156
aaa(lp4157
g4141
a(lp4158
S'Now'
p4159
aS'we'
p4160
aS'cant'
p4161
aS'even'
p4162
aS'keep'
p4163
aS'our'
p4164
aS'photos'
p4165
aS'straight'
p4166
aS'without'
p4167
aS'the'
p4168
aS'diary'
p4169
aaa(lp4170
S'ALANOh'
p4171
a(lp4172
S'yeah'
p4173
aaa(lp4174
g4171
a(lp4175
S'Well'
p4176
aS'you'
p4177
aS'know'
p4178
aaa(lp4179
g4171
a(lp4180
g3651
aS'when'
p4181
aS'you'
p4182
aS'get'
p4183
aS'back'
p4184
aS'from'
p4185
aS'your'
p4186
aS'trip'
p4187
aaa(lp4188
g4171
a(lp4189
S'until'
p4190
aS'you'
p4191
aS'make'
p4192
aS'another'
p4193
aS'trip'
p4194
aaa(lp4195
g4171
a(lp4196
S'you'
p4197
aS'can'
p4198
aS'remember'
p4199
aaa(lp4200
g4171
a(lp4201
S'But'
p4202
aaa(lp4203
g4171
a(lp4204
S'having'
p4205
aS'taken'
p4206
aS'as'
p4207
aS'many'
p4208
aS'trips'
p4209
aS'as'
p4210
aS'youve'
p4211
aS'taken'
p4212
aaa(lp4213
g4171
a(lp4214
S'shit'
p4215
aaa(lp4216
g4171
a(lp4217
S'they'
p4218
aS'sorta'
p4219
aS'run'
p4220
aS'together'
p4221
aaa(lp4222
g4171
a(lp4223
S'Im'
p4224
aS'talking'
p4225
aS'about'
p4226
aaa(lp4227
S'JON'
p4228
a(lp4229
S'They'
p4230
aS'do'
p4231
aaa(lp4232
S'ALANthe'
p4233
a(lp4234
S'ones'
p4235
aS'that'
p4236
aS'were'
p4237
aS'five'
p4238
aS'years'
p4239
aS'ago'
p4240
aaa(lp4241
S'JONHonest'
p4242
a(lp4243
S'they'
p4244
aS'do'
p4245
aaa(lp4246
S'ALANto'
p4247
a(lp4248
S'separate'
p4249
aS'the'
p4250
aS'trip'
p4251
aS'that'
p4252
aS'you'
p4253
aS'went'
p4254
aS'on'
p4255
aS'this'
p4256
aS'one'
p4257
ag709
aaa(lp4258
g4247
a(lp4259
S'Its'
p4260
aS'tough'
p4261
aS'to'
p4262
aS'do'
p4263
aaa(lp4264
g4247
a(lp4265
S'And'
p4266
aS'uh'
p4267
aaa(lp4268
g4247
a(lp4269
S'but'
p4270
aaa(lp4271
g4247
a(lp4272
S'theyre'
p4273
ag6
aS'lot'
p4274
aaa(lp4275
g4247
a(lp4276
S'thats'
p4277
ag6
aS'lot'
p4278
aS'easier'
p4279
aS'than'
p4280
ag6
aS'diary'
p4281
aaa(lp4282
g4247
a(lp4283
S'then'
p4284
aS'you'
p4285
aS'can'
p4286
aS'transcribe'
p4287
aS'it'
p4288
aaa(lp4289
g4247
a(lp4290
S'But'
p4291
aS'uh'
p4292
aaa(lp4293
g4247
a(lp4294
g4
aS'dont'
p4295
aS'take'
p4296
aaa(lp4297
g4247
a(lp4298
g4
aS'dont'
p4299
aS'take'
p4300
aS'my'
p4301
aS'diary'
p4302
aS'in'
p4303
aS'the'
p4304
aS'domestic'
p4305
aS'United'
p4306
aS'States'
p4307
aaa(lp4308
g4247
a(lp4309
S'and'
p4310
aS'we'
p4311
aS'havent'
p4312
aS'traveled'
p4313
aS'all'
p4314
aS'that'
p4315
aS'much'
p4316
aaa(lp4317
g4247
a(lp4318
S'but'
p4319
ag4
aS'have'
p4320
aS'taken'
p4321
aS'em'
p4322
aaa(lp4323
g4247
a(lp4324
S'uh'
p4325
aaa(lp4326
g4247
a(lp4327
S'first'
p4328
aS'trip'
p4329
ag4
aS'made'
p4330
aaa(lp4331
g4247
a(lp4332
S'you'
p4333
aS'know'
p4334
aaa(lp4335
g4247
a(lp4336
S'o'
p4337
aS'out'
p4338
aaa(lp4339
g4247
a(lp4340
S'XXX'
p4341
aaa(lp4342
g4247
a(lp4343
S'In'
p4344
aS'nineteenseventysix'
p4345
aaa(lp4346
g4247
a(lp4347
S'XXX'
p4348
aaa(lp4349
g4247
a(lp4350
S'Tha'
p4351
aaa(lp4352
g4247
a(lp4353
S'Outside'
p4354
aS'of'
p4355
aS'Mexico'
p4356
aaa(lp4357
g4247
a(lp4358
S'out'
p4359
aS'of'
p4360
aS'the'
p4361
aS'country'
p4362
aaa(lp4363
g4247
a(lp4364
S'was'
p4365
ag4
aS'went'
p4366
aS'to'
p4367
aaa(lp4368
g4247
a(lp4369
S'Uh'
p4370
aS'we'
p4371
aS'went'
p4372
aS'to'
p4373
aaa(lp4374
g4247
a(lp4375
g4
aS'went'
p4376
aS'to'
p4377
aS'the'
p4378
aS'Orient'
p4379
aaa(lp4380
g4247
a(lp4381
S'On'
p4382
ag6
aS'business'
p4383
aS'trip'
p4384
aaa(lp4385
g4247
a(lp4386
S'XX'
p4387
aS'exploratory'
p4388
aS'trip'
p4389
aaa(lp4390
g4247
a(lp4391
g265
ag4
aS'was'
p4392
aS'there'
p4393
aS'for'
p4394
ag265
aS'fifteen'
p4395
aS'days'
p4396
aaa(lp4397
g4247
a(lp4398
S'worked'
p4399
aS'my'
p4400
aS'ass'
p4401
aS'off'
p4402
aaa(lp4403
g4247
a(lp4404
S'But'
p4405
aS'it'
p4406
aS'was'
p4407
aS'uh'
p4408
aaa(lp4409
g4247
a(lp4410
S'went'
p4411
aS'to'
p4412
aS'uh'
p4413
aaa(lp4414
g4247
a(lp4415
S'Japan'
p4416
aaa(lp4417
g4247
a(lp4418
S'went'
p4419
aS'to'
p4420
aS'Osaka'
p4421
aaa(lp4422
g4247
a(lp4423
S'which'
p4424
aS'was'
p4425
aS'the'
p4426
aS'textile'
p4427
aS'city'
p4428
aaa(lp4429
g4247
a(lp4430
S'and'
p4431
aS'then'
p4432
aS'uh'
p4433
aaa(lp4434
g4247
a(lp4435
S'Taipei'
p4436
aS'and'
p4437
aS'Hong'
p4438
aS'Kong'
p4439
aaa(lp4440
g4247
a(lp4441
S'Uh'
p4442
aaa(lp4443
g4247
a(lp4444
S'and'
p4445
aS'it'
p4446
aS'was'
p4447
ag6
aaa(lp4448
g4247
a(lp4449
S'Youve'
p4450
aS'been'
p4451
aaa(lp4452
g4247
a(lp4453
S'Um'
p4454
aS'but'
p4455
aS'it'
p4456
aS'was'
p4457
aS'for'
p4458
aS'me'
p4459
aaa(lp4460
g4247
a(lp4461
S'uh'
p4462
aaa(lp4463
g4247
a(lp4464
S'uh'
p4465
aS'not'
p4466
aS'only'
p4467
aS'an'
p4468
aS'education'
p4469
aaa(lp4470
g4247
a(lp4471
S'wed'
p4472
aS'been'
p4473
aS'doing'
p4474
aS'some'
p4475
aS'importing'
p4476
aaa(lp4477
g4247
a(lp4478
S'but'
p4479
aS'uh'
p4480
aS'through'
p4481
aaa(lp4482
g4247
a(lp4483
g6
aS'group'
p4484
aaa(lp4485
g4247
a(lp4486
S'And'
p4487
aS'it'
p4488
aS'was'
p4489
ag6
aS'group'
p4490
aS'of'
p4491
aS'us'
p4492
aS'that'
p4493
aS'went'
p4494
aaa(lp4495
g4247
a(lp4496
g4
aS'guess'
p4497
aS'it'
p4498
aS'probably'
p4499
aS'was'
p4500
aaa(lp4501
g4247
a(lp4502
g6
aS'dozen'
p4503
aS'in'
p4504
aS'our'
p4505
aS'group'
p4506
aS'that'
p4507
aS'went'
p4508
aaa(lp4509
g4247
a(lp4510
S'There'
p4511
aS'was'
p4512
ag6
aS'group'
p4513
aS'of'
p4514
aS'stores'
p4515
aS'that'
p4516
aS'we'
p4517
aS'were'
p4518
aS'associated'
p4519
aS'with'
p4520
aaa(lp4521
g4247
a(lp4522
S'it'
p4523
aS'was'
p4524
ag6
ag6
aS'an'
p4525
aS'interesting'
p4526
aS'trip'
p4527
aaa(lp4528
g4247
a(lp4529
S'uh'
p4530
aaa(lp4531
g4247
a(lp4532
S'very'
p4533
aS'educational'
p4534
aaa(lp4535
g4247
a(lp4536
S'Uh'
p4537
aaa(lp4538
g4247
a(lp4539
S'still'
p4540
aS'got'
p4541
aS'my'
p4542
aS'notes'
p4543
aS'from'
p4544
aS'nineteenseventysix'
p4545
aS'but'
p4546
aaa(lp4547
g4247
a(lp4548
g1433
aS'and'
p4549
aS'all'
p4550
aS'those'
p4551
aS'god'
p4552
aS'damn'
p4553
aS'cards'
p4554
aaa(lp4555
g4247
a(lp4556
S'you'
p4557
aS'know'
p4558
aS'how'
p4559
aS'they'
p4560
aS'get'
p4561
aS'over'
p4562
aS'there'
p4563
aaa(lp4564
g4247
a(lp4565
S'everybody'
p4566
aS'gives'
p4567
aS'you'
p4568
aaa(lp4569
S'JON'
p4570
a(lp4571
aa(lp4572
S'ALAN'
p4573
a(lp4574
S'gives'
p4575
aS'you'
p4576
aaa(lp4577
S'JONYeah'
p4578
a(lp4579
aa(lp4580
S'ALAN'
p4581
a(lp4582
S'gives'
p4583
aS'you'
p4584
ag6
aS'card'
p4585
aaa(lp4586
g4581
a(lp4587
S'Ill'
p4588
aS'never'
p4589
aS'forget'
p4590
aS'how'
p4591
aS'impressed'
p4592
ag4
aS'was'
p4593
aS'with'
p4594
aaa(lp4595
g4581
a(lp4596
S'of'
p4597
aS'all'
p4598
aS'the'
p4599
aS'Orientals'
p4600
aaa(lp4601
g4581
a(lp4602
S'the'
p4603
aS'Japanese'
p4604
aS'are'
p4605
aS'so'
p4606
aS'bright'
p4607
aaa(lp4608
g4581
a(lp4609
S'My'
p4610
aS'god'
p4611
aaa(lp4612
g4581
a(lp4613
S'And'
p4614
aS'uh'
p4615
aS'just'
p4616
aS'uh'
p4617
aaa(lp4618
g4581
a(lp4619
S'uh'
p4620
aS'uh'
p4621
aaa(lp4622
S'JON'
p4623
a(lp4624
S'Catch'
p4625
aS'SNAPPING'
p4626
aS'on'
p4627
aS'like'
p4628
aS'that'
p4629
aS'SNAPPING'
p4630
aaa(lp4631
S'ALANThey'
p4632
a(lp4633
S'jus'
p4634
aaa(lp4635
S'JONDont'
p4636
a(lp4637
S'they'
p4638
aaa(lp4639
S'ALANOh'
p4640
a(lp4641
aa(lp4642
g4640
a(lp4643
S'They'
p4644
aS'really'
p4645
aS'they'
p4646
aaa(lp4647
g4640
a(lp4648
S'they'
p4649
aS'really'
p4650
aS'they'
p4651
aS'real'
p4652
aS'they'
p4653
aS'really'
p4654
aaa(lp4655
S'JONThey'
p4656
a(lp4657
S'work'
p4658
aS'at'
p4659
aS'though'
p4660
aS'man'
p4661
aaa(lp4662
g4656
a(lp4663
S'and'
p4664
aS'the'
p4665
aS'Chinese'
p4666
aS'work'
p4667
aS'at'
p4668
aS'it'
p4669
aaa(lp4670
g4656
a(lp4671
S'Theyre'
p4672
aS'good'
p4673
aS'students'
p4674
aaa(lp4675
g4656
a(lp4676
S'You'
p4677
aS'know'
p4678
aaa(lp4679
S'ALANWell'
p4680
a(lp4681
S'yeah'
p4682
aaa(lp4683
g4680
a(lp4684
S'well'
p4685
aaa(lp4686
g4680
a(lp4687
S'you'
p4688
aS'know'
p4689
aaa(lp4690
g4680
a(lp4691
S'we'
p4692
aS'see'
p4693
aaa(lp4694
S'JONListen'
p4695
a(lp4696
aa(lp4697
g4695
a(lp4698
S'look'
p4699
aS'at'
p4700
aS'these'
p4701
aS'people'
p4702
aS'from'
p4703
aS'India'
p4704
aaa(lp4705
g4695
a(lp4706
S'What'
p4707
ag1433
aS'good'
p4708
aS'students'
p4709
aS'they'
p4710
aS'are'
p4711
aaa(lp4712
g4695
a(lp4713
S'Some'
p4714
aS'of'
p4715
aS'your'
p4716
aS'fine'
p4717
aS'doctors'
p4718
aaa(lp4719
S'ALANIts'
p4720
a(lp4721
S'amazing'
p4722
ag265
aS'aint'
p4723
aS'it'
p4724
ag265
aaa(lp4725
S'JONyeah'
p4726
a(lp4727
aa(lp4728
S'ALANYou'
p4729
a(lp4730
S'know'
p4731
aS'we'
p4732
aS'see'
p4733
aS'these'
p4734
aS'people'
p4735
aaa(lp4736
g4729
a(lp4737
S'you'
p4738
aS'know'
p4739
ag3651
aaa(lp4740
g4729
a(lp4741
S'You'
p4742
aS'know'
p4743
aS'weve'
p4744
aS'talked'
p4745
aS'about'
p4746
aS'this'
p4747
aaa(lp4748
g4729
a(lp4749
g265
aS'on'
p4750
aS'groups'
p4751
aS'for'
p4752
aS'years'
p4753
ag265
aaa(lp4754
g4729
a(lp4755
S'all'
p4756
aS'the'
p4757
aS'problems'
p4758
aS'we'
p4759
aS'got'
p4760
aS'with'
p4761
aS'the'
p4762
aS'Blacks'
p4763
aaa(lp4764
g4729
a(lp4765
g4
aS'was'
p4766
aS'just'
p4767
aS'reading'
p4768
aS'an'
p4769
aS'article'
p4770
aaa(lp4771
g4729
a(lp4772
g4
aS'believe'
p4773
aS'it'
p4774
aS'was'
p4775
aS'the'
p4776
aS'paper'
p4777
aS'this'
p4778
aS'morning'
p4779
aaa(lp4780
g4729
a(lp4781
S'Where'
p4782
ag4
aS'read'
p4783
aS'it'
p4784
aaa(lp4785
g4729
a(lp4786
S'Maybe'
p4787
aS'it'
p4788
aS'was'
p4789
aS'New'
p4790
aS'York'
p4791
aS'Times'
p4792
aS'yesterday'
p4793
aaa(lp4794
g4729
a(lp4795
S'MRC'
p4796
aS'Thirtythree'
p4797
aS'percent'
p4798
aS'MRC'
p4799
aaa(lp4800
g4729
a(lp4801
S'of'
p4802
aS'the'
p4803
aS'Black'
p4804
aS'juveniles'
p4805
aS'in'
p4806
aS'their'
p4807
aS'twenties'
p4808
aaa(lp4809
g4729
a(lp4810
S'are'
p4811
aS'either'
p4812
aS'in'
p4813
aS'jail'
p4814
aaa(lp4815
S'JON'
p4816
a(lp4817
aa(lp4818
S'ALAN'
p4819
a(lp4820
S'on'
p4821
aS'parole'
p4822
aaa(lp4823
g4819
a(lp4824
S'or'
p4825
aS'just'
p4826
aS'released'
p4827
aaa(lp4828
g4819
a(lp4829
S'Thirtythree'
p4830
aS'percent'
p4831
aaa(lp4832
g4819
a(lp4833
S'And'
p4834
aS'then'
p4835
ag4
aaa(lp4836
g4819
a(lp4837
g4
aS'read'
p4838
aS'in'
p4839
aS'another'
p4840
aS'art'
p4841
aaa(lp4842
S'JONAnd'
p4843
a(lp4844
S'that'
p4845
aS'doesnt'
p4846
aS'count'
p4847
aS'how'
p4848
aS'many'
p4849
aS'got'
p4850
aS'away'
p4851
aaa(lp4852
S'ALAN'
p4853
a(lp4854
S'Oh'
p4855
aS'thats'
p4856
aS'right'
p4857
aaa(lp4858
g4853
a(lp4859
S'But'
p4860
aS'thats'
p4861
aS'of'
p4862
aS'the'
p4863
aaa(lp4864
g4853
a(lp4865
S'in'
p4866
aS'their'
p4867
aS'twenties'
p4868
aaa(lp4869
g4853
a(lp4870
g4
aS'read'
p4871
aS'an'
p4872
aS'article'
p4873
aaa(lp4874
g4853
a(lp4875
S'within'
p4876
aS'the'
p4877
aS'last'
p4878
aS'three'
p4879
aS'or'
p4880
aS'four'
p4881
aS'months'
p4882
aaa(lp4883
g4853
a(lp4884
S'and'
p4885
aS'Im'
p4886
aaa(lp4887
g4853
a(lp4888
g4
aS'believe'
p4889
aS'Im'
p4890
aS'correct'
p4891
aS'on'
p4892
aS'this'
p4893
aS'figure'
p4894
aS'that'
p4895
aaa(lp4896
g4853
a(lp4897
S'MRC'
p4898
aS'twelve'
p4899
aS'percent'
p4900
aS'of'
p4901
aS'the'
p4902
aS'Black'
p4903
aS'male'
p4904
aS'population'
p4905
aS'MRC'
p4906
aS'of'
p4907
aS'the'
p4908
aS'United'
p4909
aS'States'
p4910
aS'MRC'
p4911
aS'is'
p4912
aS'POUNDING'
p4913
aS'in'
p4914
aS'prison'
p4915
aS'MRC'
p4916
aaa(lp4917
g4853
a(lp4918
S'Twelve'
p4919
aS'percent'
p4920
aS'POUNDING'
p4921
aaa(lp4922
g4853
a(lp4923
S'Of'
p4924
aS'the'
p4925
aS'Black'
p4926
aS'male'
p4927
aS'population'
p4928
aaa(lp4929
g4853
a(lp4930
S'As'
p4931
aS'you'
p4932
aS'say'
p4933
aaa(lp4934
g4853
a(lp4935
S'how'
p4936
aS'many'
p4937
aS'di'
p4938
aaa(lp4939
g4853
a(lp4940
S'You'
p4941
aS'know'
p4942
aaa(lp4943
g4853
a(lp4944
S'how'
p4945
aS'many'
p4946
aS'oughta'
p4947
aS'be'
p4948
aS'in'
p4949
aS'jail'
p4950
aaa(lp4951
g4853
a(lp4952
S'probably'
p4953
aS'that'
p4954
aS'many'
p4955
aS'more'
p4956
aaa(lp4957
g4853
a(lp4958
S'But'
p4959
aS'the'
p4960
aS'point'
p4961
ag4
aS'was'
p4962
aS'gonna'
p4963
aS'make'
p4964
aS'is'
p4965
aaa(lp4966
g4853
a(lp4967
S'and'
p4968
aS'therere'
p4969
aS'always'
p4970
aS'exceptions'
p4971
aaa(lp4972
g4853
a(lp4973
S'Uh'
p4974
aS'not'
p4975
aS'to'
p4976
aS'take'
p4977
aS'anything'
p4978
aS'away'
p4979
aS'from'
p4980
aS'uh'
p4981
aaa(lp4982
g4853
a(lp4983
S'Percy'
p4984
aS'Jones'
p4985
aaa(lp4986
g4853
a(lp4987
S'Whose'
p4988
aS'article'
p4989
ag4
aS'read'
p4990
aS'this'
p4991
aS'morning'
p4992
aaa(lp4993
g4853
a(lp4994
S'because'
p4995
ag4
aS'mean'
p4996
aS'hes'
p4997
aaa(lp4998
g4853
a(lp4999
g4
aS'dont'
p5000
aS'know'
p5001
aaa(lp5002
g4853
a(lp5003
S'what'
p5004
aS'his'
p5005
aS'family'
p5006
aS'had'
p5007
aaa(lp5008
g4853
a(lp5009
S'but'
p5010
ag4
aS'mean'
p5011
aS'hes'
p5012
aaa(lp5013
g4853
a(lp5014
S'you'
p5015
aS'know'
p5016
aS'hes'
p5017
aaa(lp5018
g4853
a(lp5019
S'hes'
p5020
ag138
aS'hes'
p5021
aS'hes'
p5022
aaa(lp5023
g4853
a(lp5024
S'come'
p5025
aS'out'
p5026
aS'of'
p5027
aS'it'
p5028
aaa(lp5029
g4853
a(lp5030
S'But'
p5031
aaa(lp5032
g4853
a(lp5033
S'by'
p5034
aS'and'
p5035
aS'large'
p5036
aS'across'
p5037
aS'the'
p5038
aS'board'
p5039
aaa(lp5040
g4853
a(lp5041
S'theyve'
p5042
aS'just'
p5043
aS'never'
p5044
aS'educated'
p5045
aS'themselves'
p5046
aaa(lp5047
g4853
a(lp5048
S'Coming'
p5049
aS'from'
p5050
aS'these'
p5051
aS'backgrounds'
p5052
aaa(lp5053
S'JON'
p5054
a(lp5055
S'Well'
p5056
aS'thats'
p5057
aS'the'
p5058
aS'hard'
p5059
aS'part'
p5060
aaa(lp5061
S'ALANand'
p5062
a(lp5063
S'and'
p5064
aS'yet'
p5065
aS'you'
p5066
ag1433
aaa(lp5067
S'JONthey'
p5068
a(lp5069
S'havent'
p5070
aS'educated'
p5071
aS'themselves'
p5072
aaa(lp5073
S'ALANAnd'
p5074
a(lp5075
S'you'
p5076
aS'see'
p5077
aS'these'
p5078
aS'people'
p5079
aS'come'
p5080
aS'here'
p5081
aS'from'
p5082
aS'POUNDING'
p5083
aS'Taiwan'
p5084
aaa(lp5085
g5074
a(lp5086
S'Korea'
p5087
aaa(lp5088
g5074
a(lp5089
S'Cambodia'
p5090
aS'POUNDING'
p5091
aaa(lp5092
g5074
a(lp5093
S'Taipei'
p5094
aaa(lp5095
g5074
a(lp5096
S'parents'
p5097
aS'cant'
p5098
aS'speak'
p5099
aS'English'
p5100
aaa(lp5101
g5074
a(lp5102
S'they'
p5103
aS'come'
p5104
aS'over'
p5105
aS'not'
p5106
aS'speaking'
p5107
aS'English'
p5108
aaa(lp5109
g5074
a(lp5110
S'and'
p5111
aS'they'
p5112
aaa(lp5113
g5074
a(lp5114
S'they'
p5115
aS'excel'
p5116
aS'scholastically'
p5117
aaa(lp5118
g5074
a(lp5119
S'in'
p5120
aS'the'
p5121
aS'most'
p5122
aS'difficult'
p5123
aS'subjects'
p5124
aaa(lp5125
g5074
a(lp5126
g4
aS'mean'
p5127
aS'chemistry'
p5128
aaa(lp5129
g5074
a(lp5130
S'physics'
p5131
aaa(lp5132
g5074
a(lp5133
S'medicine'
p5134
aaa(lp5135
g5074
a(lp5136
g4
aS'remember'
p5137
aS'one'
p5138
aS'year'
p5139
aaa(lp5140
g5074
a(lp5141
g265
aS'there'
p5142
aS'for'
p5143
ag265
aS'at'
p5144
aS'the'
p5145
aS'time'
p5146
ag4
aS'remember'
p5147
aS'reading'
p5148
aS'the'
p5149
aS'article'
p5150
aaa(lp5151
g5074
a(lp5152
S'its'
p5153
aS'been'
p5154
aS'ten'
p5155
aS'or'
p5156
aS'twelve'
p5157
aS'years'
p5158
aS'ago'
p5159
aaa(lp5160
g5074
a(lp5161
S'but'
p5162
aS'fourteen'
p5163
aaa(lp5164
g5074
a(lp5165
S'were'
p5166
aaa(lp5167
g5074
a(lp5168
S'Fourteen'
p5169
aaa(lp5170
g5074
a(lp5171
S'uh'
p5172
aS'public'
p5173
aS'and'
p5174
aS'private'
p5175
aS'high'
p5176
aS'schools'
p5177
aS'in'
p5178
aS'ShreveportBos'
p5179
aaa(lp5180
g5074
a(lp5181
S'P'
p5182
ag4
aS'dont'
p5183
aS'know'
p5184
aS'how'
p5185
aS'many'
p5186
aS'there'
p5187
aS'are'
p5188
aS'today'
p5189
ag5182
aaa(lp5190
g5074
a(lp5191
g4
aS'remember'
p5192
aS'that'
p5193
aaa(lp5194
g5074
a(lp5195
S'it'
p5196
aS'was'
p5197
ag6
aS'big'
p5198
aS'article'
p5199
aaa(lp5200
g5074
a(lp5201
S'that'
p5202
aS'five'
p5203
aS'valedictorians'
p5204
aaa(lp5205
g5074
a(lp5206
S'For'
p5207
aS'sh_just'
p5208
aS'ShreveportBossier'
p5209
aaa(lp5210
g5074
a(lp5211
S'Five'
p5212
aS'valedictorians'
p5213
aS'that'
p5214
aS'year'
p5215
aS'were'
p5216
aS'of'
p5217
aS'Oriental'
p5218
aS'descent'
p5219
aaa(lp5220
g5074
a(lp5221
S'You'
p5222
aS'know'
p5223
aaa(lp5224
g5074
a(lp5225
S'couldntve'
p5226
aS'been'
p5227
aS'at'
p5228
aS'that'
p5229
aS'time'
p5230
aaa(lp5231
S'JON'
p5232
a(lp5233
aa(lp5234
S'ALAN'
p5235
a(lp5236
S'two'
p5237
aS'hundred'
p5238
aS'and'
p5239
aS'fifty'
p5240
aS'families'
p5241
aS'in'
p5242
aS'the'
p5243
aS'whole'
p5244
aS'damn'
p5245
aS'area'
p5246
aaa(lp5247
S'JONNo'
p5248
a(lp5249
aa(lp5250
S'ALAN'
p5251
a(lp5252
S'Uh'
p5253
aaa(lp5254
S'JON'
p5255
a(lp5256
aa(lp5257
S'ALANYou'
p5258
a(lp5259
S'know'
p5260
aS'and'
p5261
aS'you'
p5262
ag265
aS'think'
p5263
ag265
aaa(lp5264
S'JONYou'
p5265
a(lp5266
S'know'
p5267
aS'um'
p5268
aaa(lp5269
S'ALANand'
p5270
a(lp5271
S'you'
p5272
aS'think'
p5273
aS'about'
p5274
aS'the'
p5275
aS'Jews'
p5276
aaa(lp5277
g5270
a(lp5278
S'the'
p5279
aS'Irish'
p5280
aaa(lp5281
g5270
a(lp5282
S'and'
p5283
aS'the'
p5284
aS'Blacks'
p5285
aaa(lp5286
g5270
a(lp5287
S'and'
p5288
aS'its'
p5289
aS'the'
p5290
aS'same'
p5291
aS'all'
p5292
aS'over'
p5293
aS'the'
p5294
aS'fucking'
p5295
aS'world'
p5296
aaa(lp5297
S'JONMm'
p5298
a(lp5299
aa(lp5300
S'ALAN'
p5301
a(lp5302
S'And'
p5303
ag4
aS'just'
p5304
aS'read'
p5305
aS'an'
p5306
aS'article'
p5307
aS'in'
p5308
aS'New'
p5309
aS'York'
p5310
aS'Times'
p5311
aaa(lp5312
g5301
a(lp5313
S'Yesterday'
p5314
aaa(lp5315
g5301
a(lp5316
g4
aS'clipped'
p5317
aS'it'
p5318
aaa(lp5319
g5301
a(lp5320
S'For'
p5321
aS'my'
p5322
aS'wife'
p5323
aS'to'
p5324
aS'read'
p5325
aaa(lp5326
g5301
a(lp5327
S'Uh'
p5328
aaa(lp5329
g5301
a(lp5330
S'about'
p5331
aS'the'
p5332
aS'fact'
p5333
aS'that'
p5334
aaa(lp5335
g5301
a(lp5336
S'in'
p5337
aS'Israel'
p5338
aaa(lp5339
g5301
a(lp5340
S'where'
p5341
aS'they'
p5342
aS'have'
p5343
aS'brought'
p5344
aS'in'
p5345
aaa(lp5346
g5301
a(lp5347
S'thirtythousand'
p5348
aaa(lp5349
g5301
a(lp5350
S'where'
p5351
aS'do'
p5352
aS'the'
p5353
aS'dark'
p5354
aS'ones'
p5355
aS'come'
p5356
aS'from'
p5357
aaa(lp5358
S'JON'
p5359
a(lp5360
S'Ethiopia'
p5361
aaa(lp5362
S'ALANEthiopia'
p5363
a(lp5364
aa(lp5365
g5363
a(lp5366
S'Uh'
p5367
aaa(lp5368
g5363
a(lp5369
S'and'
p5370
aS'fivehundredthousand'
p5371
aS'Russians'
p5372
aaa(lp5373
g5363
a(lp5374
S'Ha'
p5375
aS'very'
p5376
aS'proud'
p5377
aS'of'
p5378
aS'the'
p5379
aS'fact'
p5380
aS'that'
p5381
aS'theyve'
p5382
aS'been'
p5383
aS'able'
p5384
aS'to'
p5385
aS'do'
p5386
aS'this'
p5387
aaa(lp5388
g5363
a(lp5389
S'in'
p5390
ag6
aS'country'
p5391
aS'of'
p5392
aS'five'
p5393
aS'million'
p5394
aS'people'
p5395
aaa(lp5396
g5363
a(lp5397
S'Uh'
p5398
aaa(lp5399
g5363
a(lp5400
S'which'
p5401
aaa(lp5402
g5363
a(lp5403
S'would'
p5404
aS'devastate'
p5405
aS'most'
p5406
aS'countries'
p5407
aaa(lp5408
g5363
a(lp5409
g4
aS'mean'
p5410
aS'they'
p5411
aaa(lp5412
g5363
a(lp5413
S'uh'
p5414
aaa(lp5415
S'JONIts'
p5416
a(lp5417
S'ten'
p5418
aS'percent'
p5419
aaa(lp5420
S'ALAN'
p5421
a(lp5422
S'the'
p5423
aaa(lp5424
g5421
a(lp5425
S'and'
p5426
aS'and'
p5427
aS'the'
p5428
aaa(lp5429
g5421
a(lp5430
S'the'
p5431
aS'Ethiopians'
p5432
aS'in'
p5433
aS'particular'
p5434
aaa(lp5435
g5421
a(lp5436
S'had'
p5437
ag6
aS'big'
p5438
aS'march'
p5439
aS'last'
p5440
aS'week'
p5441
aaa(lp5442
g5421
a(lp5443
S'Because'
p5444
aS'theyre'
p5445
aS'secondclass'
p5446
aS'citizens'
p5447
aaa(lp5448
g5421
a(lp5449
S'The'
p5450
aS'Jews'
p5451
aS'look'
p5452
aS'down'
p5453
aS'on'
p5454
aS'them'
p5455
aS'too'
p5456
aaa(lp5457
g5421
a(lp5458
S'You'
p5459
aS'know'
p5460
aS'they'
p5461
aS'got'
p5462
ag6
aaa(lp5463
g5421
a(lp5464
S'they'
p5465
aS'got'
p5466
ag6
aaa(lp5467
g5421
a(lp5468
S'they'
p5469
aS'got'
p5470
ag6
aaa(lp5471
g5421
a(lp5472
S'uh'
p5473
aaa(lp5474
g5421
a(lp5475
g6
aS'class'
p5476
aS'situation'
p5477
aaa(lp5478
g5421
a(lp5479
S'they'
p5480
aS'look'
p5481
aS'different'
p5482
aaa(lp5483
g5421
a(lp5484
S'they'
p5485
aaa(lp5486
g5421
a(lp5487
S'And'
p5488
aaa(lp5489
g5421
a(lp5490
S'Course'
p5491
aS'they'
p5492
aS'havent'
p5493
aS'accepted'
p5494
aS'the'
p5495
aS'Russians'
p5496
aS'too'
p5497
aS'well'
p5498
aS'either'
p5499
aaa(lp5500
g5421
a(lp5501
S'Uuh'
p5502
aaa(lp5503
g5421
a(lp5504
S'although'
p5505
aS'the'
p5506
aaa(lp5507
g5421
a(lp5508
S'the'
p5509
aS'the'
p5510
aS'Russians'
p5511
aaa(lp5512
g5421
a(lp5513
g6
aS'high'
p5514
aS'percentage'
p5515
aS'of'
p5516
aS'Russians'
p5517
aS'are'
p5518
aaa(lp5519
g5421
a(lp5520
S'according'
p5521
aS'to'
p5522
aS'this'
p5523
aS'article'
p5524
aaa(lp5525
g5421
a(lp5526
S'uh'
p5527
aS'are'
p5528
aS'scientists'
p5529
aaa(lp5530
g5421
a(lp5531
S'doctors'
p5532
aaa(lp5533
g5421
a(lp5534
S'engineers'
p5535
aaa(lp5536
g5421
a(lp5537
S'mathematicians'
p5538
aaa(lp5539
g5421
a(lp5540
S'and'
p5541
aS'they'
p5542
aaa(lp5543
S'JONEd'
p5544
a(lp5545
S'educated'
p5546
aS'the'
p5547
aS'difficult'
p5548
aS'way'
p5549
aaa(lp5550
S'ALANOn'
p5551
a(lp5552
S'areas'
p5553
aS'score'
p5554
aaa(lp5555
g5551
a(lp5556
S'score'
p5557
aS'higher'
p5558
aS'on'
p5559
aS'the'
p5560
aS'test'
p5561
aS'than'
p5562
aS'the'
p5563
aaa(lp5564
g5551
a(lp5565
S'than'
p5566
aS'the'
p5567
aS'th'
p5568
aS'the'
p5569
aS'nativeborns'
p5570
aaa(lp5571
g5551
a(lp5572
S'but'
p5573
aS'theres'
p5574
ag6
aS'big'
p5575
aaa(lp5576
g5551
a(lp5577
S'you'
p5578
aS'know'
p5579
aS'theres'
p5580
ag6
aaa(lp5581
g5551
a(lp5582
S'the'
p5583
aS'the'
p5584
aS'theres'
p5585
ag6
aaa(lp5586
g5551
a(lp5587
S'theres'
p5588
ag6
aS'theres'
p5589
ag6
aS'class'
p5590
aS'differential'
p5591
aaa(lp5592
g5551
a(lp5593
S'Which'
p5594
aS'was'
p5595
aS'interesting'
p5596
aaa(lp5597
g5551
a(lp5598
g4
ag4
aS'really'
p5599
aaa(lp5600
g5551
a(lp5601
S'hadnt'
p5602
aS'thought'
p5603
aS'about'
p5604
aS'it'
p5605
aS'in'
p5606
aS'many'
p5607
aS'years'
p5608
aaa(lp5609
g5551
a(lp5610
S'how'
p5611
aS'those'
p5612
aS'Blacks'
p5613
aaa(lp5614
g5551
a(lp5615
S'uh'
p5616
aS'had'
p5617
aS'integrated'
p5618
aS'into'
p5619
aS'the'
p5620
aS'ci'
p5621
aS'society'
p5622
aaa(lp5623
g5551
a(lp5624
g4
aS'am'
p5625
aS'told'
p5626
aaa(lp5627
g5551
a(lp5628
g4
aS'havent'
p5629
aS'seen'
p5630
aS'any'
p5631
aS'of'
p5632
aS'em'
p5633
aaa(lp5634
g5551
a(lp5635
S'but'
p5636
aS'the'
p5637
aS'Blacks'
p5638
aaa(lp5639
g5551
a(lp5640
S'th'
p5641
aS'theyre'
p5642
aS'not'
p5643
aS'like'
p5644
aS'our'
p5645
aS'Blacks'
p5646
aaa(lp5647
g5551
a(lp5648
S'theyre'
p5649
aaa(lp5650
S'JONNo'
p5651
a(lp5652
S'no'
p5653
aaa(lp5654
S'ALAN'
p5655
a(lp5656
S'Small'
p5657
aaa(lp5658
g5655
a(lp5659
S'you'
p5660
aS'know'
p5661
aS'smaller'
p5662
aS'features'
p5663
aaa(lp5664
g5655
a(lp5665
S'but'
p5666
aS'uh'
p5667
aaa(lp5668
g5655
a(lp5669
S'they'
p5670
aS'are'
p5671
aS'dark'
p5672
aS'skinned'
p5673
aaa(lp5674
g5655
a(lp5675
S'and'
p5676
aS'uh'
p5677
aaa(lp5678
g5655
a(lp5679
S'they'
p5680
aS'look'
p5681
aS'different'
p5682
ag265
aaa(lp5683
g5655
a(lp5684
S'And'
p5685
aS'uh'
p5686
aaa(lp5687
g5655
a(lp5688
g4
aS'dont'
p5689
aS'know'
p5690
aS'whether'
p5691
aS'there'
p5692
aS'are'
p5693
aS'any'
p5694
aS'other'
p5695
aS'Black'
p5696
aS'Jews'
p5697
aS'over'
p5698
aS'there'
p5699
aaa(lp5700
g5655
a(lp5701
S'but'
p5702
aS'uh'
p5703
aaa(lp5704
g5655
a(lp5705
S'XXX'
p5706
aaa(lp5707
g5655
a(lp5708
S'XXX'
p5709
aaa(lp5710
S'JONA'
p5711
a(lp5712
S'lot'
p5713
aS'from'
p5714
aS'South'
p5715
aS'Africa'
p5716
aaa(lp5717
g5711
a(lp5718
S'but'
p5719
aS'theyre'
p5720
aS'welleducated'
p5721
aS'people'
p5722
aS'down'
p5723
aS'there'
p5724
aaa(lp5725
g5711
a(lp5726
g728
aS'lot'
p5727
aS'of'
p5728
aS'em'
p5729
aaa(lp5730
S'ALAN'
p5731
a(lp5732
g728
aS'lot'
p5733
aS'of'
p5734
aS'Jews'
p5735
aS'from'
p5736
aS'South'
p5737
aS'Afri'
p5738
aaa(lp5739
S'JONOh'
p5740
a(lp5741
S'yeah'
p5742
aaa(lp5743
S'ALAN'
p5744
a(lp5745
S'Im'
p5746
ag1433
aaa(lp5747
g5744
a(lp5748
g4
aS'know'
p5749
aS'that'
p5750
aS'this'
p5751
aS'fellow'
p5752
aS'Goldstone'
p5753
aaa(lp5754
g5744
a(lp5755
S'who'
p5756
aS'was'
p5757
ag6
aS'head'
p5758
aS'of'
p5759
aS'this'
p5760
aS'uh'
p5761
aS'international'
p5762
aS'war'
p5763
aS'tri'
p5764
aS'crimes'
p5765
aS'tribunal'
p5766
aaa(lp5767
g5744
a(lp5768
S'is'
p5769
ag6
aS'Jewish'
p5770
aS'fellow'
p5771
aaa(lp5772
g5744
a(lp5773
S'because'
p5774
aS'there'
p5775
aS'was'
p5776
ag6
aS'picture'
p5777
aS'of'
p5778
aS'him'
p5779
aS'in'
p5780
aS'the'
p5781
aS'paper'
p5782
aS'with'
p5783
ag6
aS'yammaka'
p5784
aS'on'
p5785
aaa(lp5786
S'JONMm'
p5787
a(lp5788
aa(lp5789
S'ALAN'
p5790
a(lp5791
S'You'
p5792
aS'had'
p5793
aS'to'
p5794
aS'look'
p5795
aS'close'
p5796
aS'XX'
p5797
aaa(lp5798
S'JON'
p5799
a(lp5800
S'Pretty'
p5801
aS'good'
p5802
aS'indication'
p5803
aaa(lp5804
S'ALANPretty'
p5805
a(lp5806
S'good'
p5807
aS'indication'
p5808
aaa(lp5809
S'JON'
p5810
a(lp5811
S'Well'
p5812
aS'you'
p5813
aS'know'
p5814
aaa(lp5815
S'ALANBut'
p5816
a(lp5817
S'uh'
p5818
aaa(lp5819
S'JON'
p5820
a(lp5821
S'these'
p5822
aaa(lp5823
g5820
a(lp5824
S'These'
p5825
aaa(lp5826
g5820
a(lp5827
S'What'
p5828
aS'astounds'
p5829
aS'me'
p5830
aS'is'
p5831
aaa(lp5832
g5820
a(lp5833
S'and'
p5834
aS'this'
p5835
aS'goes'
p5836
aS'back'
p5837
aS'into'
p5838
aS'nineteen'
p5839
aaa(lp5840
g5820
a(lp5841
S'lets'
p5842
aS'see'
p5843
ag265
aS'Duna'
p5844
ag265
aaa(lp5845
g5820
a(lp5846
g265
aS'died'
p5847
aS'in'
p5848
ag265
aS'seventyseven'
p5849
aS'or'
p5850
aS'something'
p5851
aaa(lp5852
g5820
a(lp5853
S'so'
p5854
aS'this'
p5855
aaa(lp5856
g5820
a(lp5857
S'this'
p5858
aS'goes'
p5859
aS'back'
p5860
aaa(lp5861
g5820
a(lp5862
S'oh'
p5863
aS'further'
p5864
aS'than'
p5865
aS'that'
p5866
aaa(lp5867
g5820
a(lp5868
S'maybe'
p5869
aS'nineteenseventy'
p5870
aaa(lp5871
g5820
a(lp5872
S'in'
p5873
aaa(lp5874
g5820
a(lp5875
S'in'
p5876
aS'Houston'
p5877
aaa.