(lp0
(lp1
S'DORIS'
p2
a(lp3
S'Sam'
p4
aS'has'
p5
aS'been'
p6
aaa(lp7
g2
a(lp8
S'has'
p9
aS'taken'
p10
aS'such'
p11
aS'an'
p12
aS'interest'
p13
aS'in'
p14
aS'this'
p15
aS'retirement'
p16
aS'bit'
p17
aaa(lp18
g2
a(lp19
S'That'
p20
aS'it'
p21
aaa(lp22
g2
a(lp23
S'it'
p24
aS'really'
p25
aS'surprises'
p26
aS'me'
p27
aaa(lp28
S'ANGELA'
p29
a(lp30
S'Well'
p31
aS'shes'
p32
aS'begun'
p33
aS'to'
p34
aS'listen'
p35
aaa(lp36
S'DORIS'
p37
a(lp38
S'Yes'
p39
aS'she'
p40
aS'has'
p41
aaa(lp42
S'ANGELA'
p43
a(lp44
S'You'
p45
aS'know'
p46
aaa(lp47
S'DORIS'
p48
a(lp49
S'She'
p50
aS'has'
p51
aaa(lp52
S'ANGELA'
p53
a(lp54
S'uh'
p55
aaa(lp56
g53
a(lp57
S'she'
p58
aS'used'
p59
aS'to'
p60
aS'go'
p61
aS'over'
p62
aS'and'
p63
aS'read'
p64
aS'a'
p65
aS'book'
p66
aaa(lp67
S'DORIS'
p68
a(lp69
S'_Yeah'
p70
aS'or'
p71
aaa(lp72
S'ANGELA'
p73
a(lp74
S'or'
p75
aS'something'
p76
aaa(lp77
S'DORIS'
p78
a(lp79
S'b'
p80
aS'turn'
p81
ag65
aS'deaf'
p82
aS'ear'
p83
aaa(lp84
g78
a(lp85
S'That'
p86
aS'was'
p87
aS'for'
p88
aS'sure'
p89
aaa(lp90
S'ANGELA'
p91
a(lp92
S'But'
p93
aS'uh'
p94
aaa(lp95
g91
a(lp96
S'once'
p97
aS'you'
p98
aS'understand'
p99
aS'it'
p100
aaa(lp101
g91
a(lp102
S'you'
p103
aS'know'
p104
aS'you'
p105
aaa(lp106
S'DORIS'
p107
a(lp108
aa(lp109
S'ANGELA'
p110
a(lp111
S'youre'
p112
aS'interested'
p113
aS'in'
p114
aS'getting'
p115
aS'right'
p116
aS'in'
p117
aaa(lp118
g110
a(lp119
S'and'
p120
aS'going'
p121
aS'after'
p122
aS'it'
p123
aaa(lp124
S'DORIS'
p125
a(lp126
S'Yeah'
p127
aaa(lp128
g125
a(lp129
S'I'
p130
aS'really'
p131
aS'oughta'
p132
aS'call'
p133
aaa(lp134
g125
a(lp135
S'at'
p136
aS'least'
p137
aS'Reg'
p138
aS'Barr'
p139
aaa(lp140
g125
a(lp141
S'and'
p142
aS'ask'
p143
aS'if'
p144
aS'uh'
p145
aaa(lp146
g125
a(lp147
S'hes'
p148
aS'still'
p149
aS'speaking'
p150
aS'to'
p151
aS'me'
p152
aaa(lp153
S'ANGELA'
p154
a(lp155
S'left'
p156
aaa(lp157
S'DORIS'
p158
a(lp159
S'Yeah'
p160
aaa(lp161
S'ANGELA'
p162
a(lp163
S'Up'
p164
aS'there'
p165
aaa(lp166
S'DORIS'
p167
a(lp168
S'Yeah'
p169
aaa(lp170
g167
a(lp171
S'Yes'
p172
aaa(lp173
S'ANGELA'
p174
a(lp175
S'Well'
p176
aS'he'
p177
aS'came'
p178
aS'over'
p179
aS'to'
p180
aS'you'
p181
aS'all'
p182
aS'smiles'
p183
aaa(lp184
g174
a(lp185
g130
aS'noticed'
p186
aaa(lp187
S'DORIS'
p188
a(lp189
S'N_yes'
p190
aaa(lp191
g188
a(lp192
S'Well'
p193
aaa(lp194
g188
a(lp195
S'weve'
p196
aS'known'
p197
aS'each'
p198
aS'other'
p199
aS'for'
p200
aS'thirty'
p201
aS'some'
p202
aS'years'
p203
aaa(lp204
g188
a(lp205
S'why'
p206
aS'wouldnt'
p207
aS'he'
p208
aaa(lp209
g188
a(lp210
S'But'
p211
ag65
aS'anyway'
p212
aaa(lp213
g188
a(lp214
S'um'
p215
aaa(lp216
g188
a(lp217
g130
aS'was'
p218
aS'so'
p219
aS'glad'
p220
aS'that'
p221
aS'he'
p222
aS'opened'
p223
aS'up'
p224
aS'on'
p225
aS'this'
p226
aS'disclosure'
p227
aS'bit'
p228
aaa(lp229
g188
a(lp230
S'because'
p231
aS'it'
p232
aS'was'
p233
aS'POUND'
p234
aS'Burns'
p235
aS'thats'
p236
aS'been'
p237
aS'objecting'
p238
aS'to'
p239
aS'our'
p240
aS'having'
p241
aS'it'
p242
aS'POUND'
p243
aaa(lp244
S'ANGELA'
p245
a(lp246
S'Oh'
p247
aaa(lp248
S'DORIS'
p249
a(lp250
S'And'
p251
ag130
aS'knew'
p252
aS'this'
p253
aaa(lp254
g249
a(lp255
S'So'
p256
aS'when'
p257
aS'he'
p258
aS'opened'
p259
aS'up'
p260
aS'on'
p261
aS'that'
p262
aaa(lp263
g249
a(lp264
S'and'
p265
aS'she'
p266
aS'followed'
p267
aS'through'
p268
aaa(lp269
g249
a(lp270
S'and'
p271
aS'told'
p272
aS'about'
p273
aS'her'
p274
aS'husband'
p275
aaa(lp276
g249
a(lp277
S'you'
p278
aS'know'
p279
aaa(lp280
S'ENV'
p281
a(lp282
aa(lp283
S'DORIS'
p284
a(lp285
S'Not'
p286
aS'necessarily'
p287
aS'that'
p288
aS'she'
p289
aS'would'
p290
aS'approve'
p291
aS'of'
p292
aS'it'
p293
aaa(lp294
g284
a(lp295
S'but'
p296
aS'at'
p297
aS'least'
p298
aS'she'
p299
aS'wasnt'
p300
aS'disapproving'
p301
aaa(lp302
S'ANGELA'
p303
a(lp304
S'Yeah'
p305
aaa(lp306
S'DORIS'
p307
a(lp308
S'of'
p309
aS'it'
p310
aaa(lp311
S'ANGELA'
p312
a(lp313
S'Yeah'
p314
aaa(lp315
S'DORIS'
p316
a(lp317
S'And'
p318
aS'uh'
p319
aaa(lp320
g316
a(lp321
S'course'
p322
aS'Duvall'
p323
aS'might'
p324
aaa(lp325
g316
a(lp326
S'And'
p327
ag130
aaa(lp328
g316
a(lp329
g130
aS'cannot'
p330
aS'get'
p331
aS'over'
p332
aS'this'
p333
aaa(lp334
g316
a(lp335
S'That'
p336
aS'man'
p337
aaa(lp338
g316
a(lp339
g130
aS'really'
p340
aS'cannot'
p341
aaa(lp342
g316
a(lp343
S'And'
p344
aS'you'
p345
aS'know'
p346
aaa(lp347
g316
a(lp348
S'he'
p349
aS'must'
p350
aS'have'
p351
aS'been'
p352
aS'thinking'
p353
aaa(lp354
g316
a(lp355
S'when'
p356
aS'he'
p357
aS'said'
p358
aS'he'
p359
aS'wasnt'
p360
ag65
aS'political'
p361
aS'appointee'
p362
aaa(lp363
g316
a(lp364
S'his'
p365
aS'relationship'
p366
aS'with'
p367
aS'Steitler'
p368
aaa(lp369
S'ENV'
p370
a(lp371
aa(lp372
S'ANGELA'
p373
a(lp374
S'Oh'
p375
aaa(lp376
S'ENV'
p377
a(lp378
S'MICROPHONE'
p379
aaa(lp380
S'DORIS'
p381
a(lp382
g130
aS'really'
p383
aS'do'
p384
aS'believe'
p385
aS'that'
p386
aaa(lp387
S'ANGELA'
p388
a(lp389
S'Mhm'
p390
aaa(lp391
S'DORIS'
p392
a(lp393
S'In'
p394
aS'his'
p395
aS'thinking'
p396
aaa(lp397
g392
a(lp398
g130
aS'dont'
p399
aS'know'
p400
aS'how'
p401
aS'else'
p402
aS'he'
p403
aS'could'
p404
aS'have'
p405
aS'done'
p406
aS'it'
p407
aaa(lp408
g392
a(lp409
S'That'
p410
aS'topples'
p411
aS'over'
p412
aaa(lp413
S'ENV'
p414
a(lp415
S'MICROPHONE'
p416
aaa(lp417
S'DORIS'
p418
a(lp419
S'Um'
p420
aaa(lp421
S'SAM'
p422
a(lp423
aa(lp424
S'DORIS'
p425
a(lp426
S'but'
p427
aS'he'
p428
aS'didnt'
p429
aS'say'
p430
aS'that'
p431
aaa(lp432
S'ANGELA'
p433
a(lp434
S'Oh'
p435
aaa(lp436
S'DORIS'
p437
a(lp438
S'He'
p439
aS'said'
p440
ag130
aS'loved'
p441
aS'your'
p442
aS'hum'
p443
aS'humor'
p444
aaa(lp445
g437
a(lp446
S'uh'
p447
aaa(lp448
g437
a(lp449
S'and'
p450
ag130
aS'love'
p451
aS'you'
p452
aaa(lp453
g437
a(lp454
S'but'
p455
aaa(lp456
g437
a(lp457
S'Q'
p458
ag130
aS'am'
p459
aS'not'
p460
ag65
aS'political'
p461
aS'appointee'
p462
ag458
aaa(lp463
g437
a(lp464
S'And'
p465
aS'his'
p466
aS'eyes'
p467
aS'were'
p468
aS'just'
p469
aS'snapping'
p470
aaa(lp471
S'ANGELA'
p472
a(lp473
aa(lp474
S'DORIS'
p475
a(lp476
S'And'
p477
ag130
aS'said'
p478
ag458
aS'oh'
p479
ag458
aaa(lp480
S'ANGELA'
p481
a(lp482
aa(lp483
S'DORIS'
p484
a(lp485
g458
aS'How'
p486
aS'did'
p487
aS'you'
p488
aS'get'
p489
aS'on'
p490
aS'the'
p491
aS'board'
p492
ag458
aaa(lp493
S'ANGELA'
p494
a(lp495
aa(lp496
S'DORIS'
p497
a(lp498
S'Well'
p499
aS'he'
p500
aS'said'
p501
aaa(lp502
g497
a(lp503
g130
aS'got'
p504
ag65
aS'letter'
p505
aS'from'
p506
aS'the'
p507
aS'governor'
p508
aS'asking'
p509
aaa(lp510
S'ANGELA'
p511
a(lp512
aa(lp513
S'DORIS'
p514
a(lp515
S'Everybody'
p516
aS'on'
p517
aS'there'
p518
aS'is'
p519
aS'an'
p520
aS'app'
p521
aS'political'
p522
aS'appointee'
p523
aaa(lp524
S'ANGELA'
p525
a(lp526
aa(lp527
S'DORIS'
p528
a(lp529
S'that'
p530
aS'wasnt'
p531
aS'the'
p532
aS'point'
p533
aaa(lp534
S'ANGELA'
p535
a(lp536
aa(lp537
S'DORIS'
p538
a(lp539
S'The'
p540
aS'point'
p541
aS'was'
p542
aaa(lp543
g538
a(lp544
g130
aS'could'
p545
aS'have'
p546
aS'mentioned'
p547
aS'what'
p548
aS'was'
p549
aS'in'
p550
aS'the'
p551
aS'paper'
p552
aS'about'
p553
aS'him'
p554
aaa(lp555
g538
a(lp556
S'that'
p557
aS'he'
p558
aS'was'
p559
aS'related'
p560
aaa(lp561
g538
a(lp562
S'you'
p563
aS'know'
p564
aaa(lp565
g538
a(lp566
S'had'
p567
aS'business'
p568
aS'with'
p569
aS'Steitler'
p570
aaa(lp571
g538
a(lp572
S'And'
p573
ag130
aS'just'
p574
aS'said'
p575
aaa(lp576
g538
a(lp577
S'and'
p578
aS'theres'
p579
aS'Doctor'
p580
aS'Duvall'
p581
aaa(lp582
g538
a(lp583
S'you'
p584
aS'know'
p585
aaa(lp586
S'ANGELA'
p587
a(lp588
aa(lp589
S'DORIS'
p590
a(lp591
S'And'
p592
aS'then'
p593
ag130
aS'went'
p594
aS'to'
p595
aS'Rotus'
p596
aaa(lp597
g590
a(lp598
S'whos'
p599
ag65
aS'seasoned'
p600
aS'politician'
p601
aaa(lp602
S'ANGELA'
p603
a(lp604
S'Yeah'
p605
aaa(lp606
S'DORIS'
p607
a(lp608
S'if'
p609
aS'there'
p610
aS'ever'
p611
aS'was'
p612
aS'one'
p613
aaa(lp614
g607
a(lp615
S'he'
p616
aS'just'
p617
aS'would'
p618
aS'flare'
p619
aaa(lp620
g607
a(lp621
S'And'
p622
ag130
aS'said'
p623
aaa(lp624
g607
a(lp625
S'well'
p626
ag130
aaa(lp627
g607
a(lp628
S'Alright'
p629
aaa(lp630
g607
a(lp631
g130
aS'said'
p632
aaa(lp633
g607
a(lp634
S'Ill'
p635
aS'apologize'
p636
aS'next'
p637
aS'time'
p638
aaa(lp639
g607
a(lp640
S'And'
p641
aS'Im'
p642
aS'gonna'
p643
aS'make'
p644
aS'hay'
p645
aS'out'
p646
aS'of'
p647
aS'it'
p648
aaa(lp649
g607
a(lp650
S'Dont'
p651
aS'you'
p652
aS'worry'
p653
aaa(lp654
S'ANGELA'
p655
a(lp656
aa(lp657
S'DORIS'
p658
a(lp659
S'SM'
p660
ag130
aS'wanna'
p661
aS'know'
p662
aS'how'
p663
aS'you'
p664
aS'birds'
p665
aS'got'
p666
aS'on'
p667
aS'that'
p668
aS'board'
p669
aaa(lp670
g658
a(lp671
S'if'
p672
aS'youre'
p673
aS'not'
p674
aS'SM'
p675
aS'political'
p676
aS'appointees'
p677
aaa(lp678
S'ANGELA'
p679
a(lp680
aa(lp681
S'DORIS'
p682
a(lp683
aa(lp684
S'ANGELA'
p685
a(lp686
S'Mm'
p687
aaa(lp688
S'DORIS'
p689
a(lp690
S'Oh'
p691
aS'my'
p692
aaa(lp693
S'ANGELA'
p694
a(lp695
S'Can'
p696
ag130
aS'grow'
p697
aS'some'
p698
aS'basil'
p699
aaa(lp700
g694
a(lp701
S'From'
p702
aS'seed'
p703
aaa(lp704
S'SAM'
p705
a(lp706
S'Yes'
p707
aaa(lp708
g705
a(lp709
S'thats'
p710
aS'how'
p711
aS'Ive'
p712
aaa(lp713
g705
a(lp714
g130
aS'dont'
p715
aS'have'
p716
aS'any'
p717
aS'this'
p718
aS'year'
p719
aaa(lp720
g705
a(lp721
S'but'
p722
aS'Ive'
p723
aS'grown'
p724
aS'it'
p725
aS'other'
p726
aS'years'
p727
aaa(lp728
S'ANGELA'
p729
a(lp730
S'X'
p731
aS'Well'
p732
ag731
aaa(lp733
S'SAM'
p734
a(lp735
S'Theres'
p736
aS'no'
p737
aS'problem'
p738
aaa(lp739
g734
a(lp740
S'It'
p741
aS'will'
p742
aS'not'
p743
aS'take'
p744
aS'any'
p745
aS'frost'
p746
aaa(lp747
g734
a(lp748
S'Soon'
p749
aS'as'
p750
aS'the'
p751
ag80
aaa(lp752
S'ANGELA'
p753
a(lp754
S'Yeah'
p755
ag130
aaa(lp756
S'SAM'
p757
a(lp758
S'A'
p759
aS'little'
p760
aS'bit'
p761
aS'of'
p762
aS'frost'
p763
aaa(lp764
g757
a(lp765
S'its'
p766
aS'gone'
p767
aaa(lp768
S'ANGELA'
p769
a(lp770
g130
aS'l'
p771
aaa(lp772
g769
a(lp773
g130
aS'learned'
p774
aS'that'
p775
aaa(lp776
g769
a(lp777
S'one'
p778
aS'time'
p779
aS'the'
p780
aaa(lp781
S'SAM'
p782
a(lp783
g130
aS'learned'
p784
aS'it'
p785
aS'just'
p786
aS'went'
p787
aS'down'
p788
aaa(lp789
S'ANGELA'
p790
a(lp791
S'the'
p792
aS'hard'
p793
aS'way'
p794
aaa(lp795
g790
a(lp796
S'Hm'
p797
aaa(lp798
g790
a(lp799
S'Uh'
p800
aS'huh'
p801
aaa(lp802
S'SAM'
p803
a(lp804
S'Yes'
p805
aaa(lp806
S'ANGELA'
p807
a(lp808
S'Well'
p809
ag130
aS'think'
p810
aS'it'
p811
aS'was'
p812
aS'Barbara'
p813
aS'that'
p814
aS'has'
p815
aS'some'
p816
aS'seeds'
p817
aaa(lp818
S'SAM'
p819
a(lp820
S'Just'
p821
aaa(lp822
g819
a(lp823
S'No'
p824
aS'problem'
p825
aaa(lp826
g819
a(lp827
S'It'
p828
aS'comes'
p829
aS'right'
p830
aS'up'
p831
aaa(lp832
S'ANGELA'
p833
a(lp834
S'Yeah'
p835
aaa(lp836
g833
a(lp837
S'Yeah'
p838
aaa(lp839
S'DORIS'
p840
a(lp841
S'Isnt'
p842
aS'that'
p843
aS'what'
p844
aS'you'
p845
aS'gave'
p846
aS'the'
p847
aS'neighbor'
p848
aS'one'
p849
aS'time'
p850
aaa(lp851
S'SAM'
p852
a(lp853
g130
aaa(lp854
S'DORIS'
p855
a(lp856
S'You'
p857
aS'gave'
p858
aS'him'
p859
aS'some'
p860
aS'kind'
p861
aS'of'
p862
aS'herb'
p863
aaa(lp864
S'SAM'
p865
a(lp866
S'Did'
p867
ag130
aS'give'
p868
aS'him'
p869
aS'some'
p870
aaa(lp871
g865
a(lp872
g130
aS'gave'
p873
aS'him'
p874
ag65
aS'red'
p875
aS'pepper'
p876
aaa(lp877
S'DORIS'
p878
a(lp879
g130
aS'think'
p880
aS'you'
p881
aaa(lp882
g878
a(lp883
g130
aS'think'
p884
aS'you'
p885
aS'gave'
p886
aS'him'
p887
aS'some'
p888
aS'herb'
p889
aS'of'
p890
aS'some'
p891
aS'kind'
p892
aaa(lp893
S'SAM'
p894
a(lp895
g130
aS'may'
p896
aS'have'
p897
aS'given'
p898
aS'given'
p899
aS'him'
p900
aS'some'
p901
aS'basil'
p902
aaa(lp903
g894
a(lp904
S'yes'
p905
aaa(lp906
S'DORIS'
p907
a(lp908
S'Yeah'
p909
aaa(lp910
S'SAM'
p911
a(lp912
g130
aS'dont'
p913
aS'have'
p914
aS'any'
p915
aS'this'
p916
aS'year'
p917
aaa(lp918
g911
a(lp919
g130
aS'forgot'
p920
aS'to'
p921
aS'plant'
p922
aS'it'
p923
aaa(lp924
g911
a(lp925
g130
aS'have'
p926
aS'oregano'
p927
aaa(lp928
S'ANGELA'
p929
a(lp930
S'Yeah'
p931
aaa(lp932
S'SAM'
p933
a(lp934
g65
aS'good'
p935
aS'stand'
p936
aS'of'
p937
aS'it'
p938
aaa(lp939
g933
a(lp940
S'if'
p941
aS'you'
p942
aS'want'
p943
aS'any'
p944
aaa(lp945
S'ANGELA'
p946
a(lp947
S'Yeah'
p948
aaa(lp949
g946
a(lp950
g130
aS'have'
p951
ag65
aS'lot'
p952
aS'of'
p953
aS'dried'
p954
aS'or'
p955
aS'oregano'
p956
aaa(lp957
S'SAM'
p958
a(lp959
g731
aaa(lp960
S'DORIS'
p961
a(lp962
S'Is'
p963
aS'your'
p964
aS'cigarette'
p965
aS'out'
p966
aaa(lp967
g961
a(lp968
S'everybodys'
p969
aaa(lp970
S'ANGELA'
p971
a(lp972
S'Yeah'
p973
aaa(lp974
g971
a(lp975
S'its'
p976
aS'out'
p977
aaa(lp978
S'DORIS'
p979
a(lp980
S'You'
p981
aS'smoked'
p982
aS'it'
p983
aS'down'
p984
aS'into'
p985
aS'the'
p986
aS'cork'
p987
aaa(lp988
g979
a(lp989
S'didnt'
p990
aS'you'
p991
aaa(lp992
S'ANGELA'
p993
a(lp994
S'Pardon'
p995
aaa(lp996
S'DORIS'
p997
a(lp998
S'You'
p999
aS'smoked'
p1000
aS'it'
p1001
aS'down'
p1002
aS'into'
p1003
aS'the'
p1004
aS'cork'
p1005
aaa(lp1006
S'ANGELA'
p1007
a(lp1008
S'Well'
p1009
aaa(lp1010
g1007
a(lp1011
S'yeah'
p1012
aaa(lp1013
g1007
a(lp1014
S'you'
p1015
aS'dont'
p1016
aS'like'
p1017
aS'that'
p1018
aaa(lp1019
S'DORIS'
p1020
a(lp1021
aa(lp1022
S'ANGELA'
p1023
a(lp1024
S'Do'
p1025
aS'you'
p1026
aS'but'
p1027
aaa(lp1028
S'DORIS'
p1029
a(lp1030
S'No'
p1031
aaa(lp1032
g1029
a(lp1033
S'It'
p1034
aS'chokes'
p1035
aS'me'
p1036
aS'to'
p1037
aS'death'
p1038
aaa(lp1039
S'ANGELA'
p1040
a(lp1041
S'Its'
p1042
aaa(lp1043
S'DORIS'
p1044
a(lp1045
aa(lp1046
S'ANGELA'
p1047
a(lp1048
S'Its'
p1049
aS'there'
p1050
aaa(lp1051
g1047
a(lp1052
S'might'
p1053
aS'as'
p1054
aS'well'
p1055
aS'smoke'
p1056
aS'it'
p1057
aaa(lp1058
S'DORIS'
p1059
a(lp1060
g731
aS'Oh'
p1061
ag731
aaa(lp1062
S'ANGELA'
p1063
a(lp1064
aa(lp1065
S'DORIS'
p1066
a(lp1067
S'No'
p1068
aS'good'
p1069
aaa(lp1070
S'ANGELA'
p1071
a(lp1072
S'No'
p1073
aS'good'
p1074
aaa(lp1075
g1071
a(lp1076
S'Uh'
p1077
aaa(lp1078
S'DORIS'
p1079
a(lp1080
aa(lp1081
S'ANGELA'
p1082
a(lp1083
S'hows'
p1084
aS'Ted'
p1085
aS'doing'
p1086
aaa(lp1087
S'SAM'
p1088
a(lp1089
S'Hes'
p1090
aS'keeping'
p1091
aS'very'
p1092
aS'busy'
p1093
aaa(lp1094
g1088
a(lp1095
S'hes'
p1096
aS'on'
p1097
aS'mostly'
p1098
aS'uh'
p1099
aS'evening'
p1100
aS'hours'
p1101
aaa(lp1102
S'ANGELA'
p1103
a(lp1104
S'Mhm'
p1105
aaa(lp1106
S'SAM'
p1107
a(lp1108
S'theyre'
p1109
aS'redoing'
p1110
aS'the'
p1111
aS'pharmacy'
p1112
aS'there'
p1113
aS'at'
p1114
aS'Wel'
p1115
aS'Wallmart'
p1116
aaa(lp1117
S'ANGELA'
p1118
a(lp1119
S'Oh'
p1120
aaa(lp1121
S'SAM'
p1122
a(lp1123
S'Enlarging'
p1124
aS'it'
p1125
aaa(lp1126
g1122
a(lp1127
S'And'
p1128
aaa(lp1129
S'ANGELA'
p1130
a(lp1131
S'Well'
p1132
aaa(lp1133
S'SAM'
p1134
a(lp1135
S'its'
p1136
aS'close'
p1137
aS'to'
p1138
aS'the'
p1139
aS'garden'
p1140
aS'shop'
p1141
aaa(lp1142
g1134
a(lp1143
S'and'
p1144
aS'so'
p1145
aS'the'
p1146
aS'fellows'
p1147
aS'in'
p1148
aS'the'
p1149
aS'garden'
p1150
aS'shop'
p1151
aaa(lp1152
g1134
a(lp1153
S'and'
p1154
aS'the'
p1155
aS'pet'
p1156
aS'shop'
p1157
aaa(lp1158
g1134
a(lp1159
S'move'
p1160
aS'things'
p1161
aS'out'
p1162
aS'from'
p1163
aS'that'
p1164
aS'area'
p1165
aaa(lp1166
S'ANGELA'
p1167
a(lp1168
S'oh'
p1169
aaa(lp1170
S'SAM'
p1171
a(lp1172
S'into'
p1173
aS'the'
p1174
aS'garden'
p1175
aS'shop'
p1176
aaa(lp1177
g1171
a(lp1178
S'so'
p1179
aS'they'
p1180
aS'can'
p1181
aS'work'
p1182
aS'on'
p1183
aS'the'
p1184
aS'pharmacy'
p1185
aaa(lp1186
S'ANGELA'
p1187
a(lp1188
S'Well'
p1189
aS'they'
p1190
aS'needed'
p1191
aS'to'
p1192
aS'expand'
p1193
aS'the'
p1194
aS'pharmacy'
p1195
aaa(lp1196
g1187
a(lp1197
S'Ive'
p1198
aS'never'
p1199
aS'been'
p1200
aS'there'
p1201
aaa(lp1202
g1187
a(lp1203
S'but'
p1204
aaa(lp1205
g1187
a(lp1206
S'what'
p1207
ag130
aS'had'
p1208
aS'to'
p1209
aS'wait'
p1210
aS'and'
p1211
aS'wait'
p1212
aS'and'
p1213
aS'wait'
p1214
aaa(lp1215
S'SAM'
p1216
a(lp1217
S'So'
p1218
ag130
aS'dont'
p1219
aaa(lp1220
S'DORIS'
p1221
a(lp1222
S'Where'
p1223
aS'are'
p1224
aS'they'
p1225
aS'putting'
p1226
aS'the'
p1227
aS'pharmacy'
p1228
aaa(lp1229
S'SAM'
p1230
a(lp1231
S'Well'
p1232
aS'theyre'
p1233
ag80
aS'leaving'
p1234
aS'it'
p1235
aS'in'
p1236
aS'the'
p1237
aS'same'
p1238
aS'place'
p1239
aaa(lp1240
g1230
a(lp1241
S'theyre'
p1242
aS'just'
p1243
aS'taking'
p1244
aS'out'
p1245
aS'two'
p1246
aS'rows'
p1247
aS'of'
p1248
aaa(lp1249
g1230
a(lp1250
S'of'
p1251
aS'uh'
p1252
aaa(lp1253
S'ANGELA'
p1254
a(lp1255
S'S'
p1256
aaa(lp1257
S'SAM'
p1258
a(lp1259
S'where'
p1260
aS'the'
p1261
aS'toiletries'
p1262
aS'were'
p1263
aaa(lp1264
S'ANGELA'
p1265
a(lp1266
S'Yeah'
p1267
aaa(lp1268
g1265
a(lp1269
S'Just'
p1270
aS'inventory'
p1271
aS'stuff'
p1272
aaa(lp1273
g1265
a(lp1274
S'Moving'
p1275
aS'it'
p1276
aaa(lp1277
S'SAM'
p1278
a(lp1279
S'Theyre'
p1280
aaa(lp1281
g1278
a(lp1282
S'theyre'
p1283
aS'moving'
p1284
aS'that'
p1285
aaa(lp1286
g1278
a(lp1287
g130
aS'dont'
p1288
aS'know'
p1289
aS'where'
p1290
aaa(lp1291
g1278
a(lp1292
S'where'
p1293
aS'theyre'
p1294
aS'going'
p1295
aS'to'
p1296
aS'put'
p1297
aS'all'
p1298
aS'that'
p1299
aaa(lp1300
S'ANGELA'
p1301
a(lp1302
S'Hm'
p1303
aaa(lp1304
S'DORIS'
p1305
a(lp1306
aa(lp1307
S'SAM'
p1308
a(lp1309
S'But'
p1310
aS'Ted'
p1311
aS'says'
p1312
aS'theres'
p1313
aS'not'
p1314
aS'much'
p1315
aS'garden'
p1316
aS'left'
p1317
aaa(lp1318
S'DORIS'
p1319
a(lp1320
aa(lp1321
S'SAM'
p1322
a(lp1323
S'Just'
p1324
aaa(lp1325
g1322
a(lp1326
S'all'
p1327
aS'of'
p1328
aS'this'
p1329
aS'stuff'
p1330
aaa(lp1331
g1322
a(lp1332
S'out'
p1333
aS'in'
p1334
aS'there'
p1335
aaa(lp1336
g1322
a(lp1337
S'he'
p1338
aS'works'
p1339
aS'uh'
p1340
aS'six'
p1341
aS'days'
p1342
aS'next'
p1343
aS'week'
p1344
aaa(lp1345
g1322
a(lp1346
S'instead'
p1347
aS'of'
p1348
aS'five'
p1349
aS'days'
p1350
aaa(lp1351
S'ANGELA'
p1352
a(lp1353
g731
aaa(lp1354
S'SAM'
p1355
a(lp1356
S'he'
p1357
aS'only'
p1358
aS'gets'
p1359
aS'one'
p1360
aS'day'
p1361
aS'off'
p1362
aaa(lp1363
S'ANGELA'
p1364
a(lp1365
S'Hm'
p1366
aaa(lp1367
g1364
a(lp1368
S'Mhm'
p1369
aaa(lp1370
S'SAM'
p1371
a(lp1372
S'Hes'
p1373
aS'off'
p1374
aS'today'
p1375
aaa(lp1376
S'ANGELA'
p1377
a(lp1378
S'Mhm'
p1379
aaa(lp1380
S'SAM'
p1381
a(lp1382
g731
aS'And'
p1383
aS'uh'
p1384
ag731
aaa(lp1385
S'ANGELA'
p1386
a(lp1387
S'Well'
p1388
aaa(lp1389
S'SAM'
p1390
a(lp1391
S'but'
p1392
aS'he'
p1393
aS'hasnt'
p1394
aS'had'
p1395
aS'day'
p1396
aS'hours'
p1397
aaa(lp1398
g1390
a(lp1399
S'hes'
p1400
aS'been'
p1401
aS'working'
p1402
aS'evening'
p1403
aS'hours'
p1404
aS'and'
p1405
aS'weekends'
p1406
aaa(lp1407
S'ANGELA'
p1408
a(lp1409
S'you'
p1410
aS'know'
p1411
aaa(lp1412
g1408
a(lp1413
g130
aS'think'
p1414
aS'Id'
p1415
aS'hate'
p1416
aS'to'
p1417
aS'be'
p1418
aS'in'
p1419
aS'business'
p1420
aS'right'
p1421
aS'now'
p1422
aaa(lp1423
S'DORIS'
p1424
a(lp1425
S'Oo'
p1426
aaa(lp1427
S'ANGELA'
p1428
a(lp1429
S'You'
p1430
aS'cant'
p1431
aS'sit'
p1432
aS'still'
p1433
aaa(lp1434
S'DORIS'
p1435
a(lp1436
S'Hmm'
p1437
aaa(lp1438
S'ANGELA'
p1439
a(lp1440
S'You'
p1441
aS'have'
p1442
aS'to'
p1443
aS'expand'
p1444
aaa(lp1445
g1439
a(lp1446
S'or'
p1447
aS'something'
p1448
aaa(lp1449
S'DORIS'
p1450
a(lp1451
aa(lp1452
S'ANGELA'
p1453
a(lp1454
S'to'
p1455
aS'keep'
p1456
aS'MRC'
p1457
aS'in'
p1458
aS'the'
p1459
aS'main'
p1460
aS'stream'
p1461
aS'MRC'
p1462
aaa(lp1463
S'SAM'
p1464
a(lp1465
S'Well'
p1466
aaa(lp1467
g1464
a(lp1468
S'and'
p1469
aS'so'
p1470
aS'many'
p1471
aS'times'
p1472
aS'when'
p1473
aS'they'
p1474
aS'expand'
p1475
aaa(lp1476
g1464
a(lp1477
S'theyve'
p1478
aS'expanded'
p1479
aaa(lp1480
g1464
a(lp1481
S'and'
p1482
aS'then'
p1483
aS'things'
p1484
aS'dropped'
p1485
aS'back'
p1486
aaa(lp1487
S'ANGELA'
p1488
a(lp1489
S'Yeah'
p1490
aaa(lp1491
S'SAM'
p1492
a(lp1493
S'But'
p1494
aS'this'
p1495
aS'Wallmart'
p1496
aS'needs'
p1497
aaa(lp1498
g1492
a(lp1499
S'needs'
p1500
ag65
aS'larger'
p1501
aS'building'
p1502
aaa(lp1503
S'ANGELA'
p1504
a(lp1505
S'Yeah'
p1506
aaa(lp1507
S'SAM'
p1508
a(lp1509
S'Its'
p1510
aS'just'
p1511
aS'too'
p1512
aS'cramped'
p1513
aaa(lp1514
S'DORIS'
p1515
a(lp1516
S'Your'
p1517
aS'shirt'
p1518
aS'and'
p1519
aS'beads'
p1520
aS'are'
p1521
aS'most'
p1522
aS'becoming'
p1523
aaa(lp1524
S'ANGELA'
p1525
a(lp1526
S'Well'
p1527
aS'you'
p1528
aS'know'
p1529
aaa(lp1530
g1525
a(lp1531
g130
aS'think'
p1532
aS'they'
p1533
aS'weigh'
p1534
aS'about'
p1535
ag65
aS'quarter'
p1536
aS'of'
p1537
aS'an'
p1538
aS'ounce'
p1539
aaa(lp1540
g1525
a(lp1541
S'And'
p1542
aS'thats'
p1543
aS'the'
p1544
aS'right'
p1545
aS'kind'
p1546
aS'of'
p1547
aS'beads'
p1548
aaa(lp1549
S'DORIS'
p1550
a(lp1551
S'Unhunh'
p1552
aaa(lp1553
g1550
a(lp1554
S'for'
p1555
aS'summer'
p1556
aaa(lp1557
S'ANGELA'
p1558
a(lp1559
g759
aS'little'
p1560
aS'girl'
p1561
aS'the'
p1562
aS'other'
p1563
aS'day'
p1564
aaa(lp1565
g1558
a(lp1566
S'remarked'
p1567
aS'about'
p1568
aS'them'
p1569
aaa(lp1570
g1558
a(lp1571
S'and'
p1572
aaa(lp1573
g1558
a(lp1574
S'almost'
p1575
aS'on'
p1576
aS'impulse'
p1577
aaa(lp1578
g1558
a(lp1579
S'but'
p1580
ag130
aS'didnt'
p1581
aS'do'
p1582
aS'it'
p1583
aaa(lp1584
g1558
a(lp1585
g130
aS'thought'
p1586
aS'Id'
p1587
aS'pull'
p1588
aS'em'
p1589
aS'off'
p1590
aaa(lp1591
g1558
a(lp1592
S'just'
p1593
aS'give'
p1594
aS'em'
p1595
aS'to'
p1596
aS'her'
p1597
aS'if'
p1598
aS'she'
p1599
aS'liked'
p1600
aS'em'
p1601
aS'that'
p1602
aS'well'
p1603
aaa(lp1604
S'DORIS'
p1605
a(lp1606
aa(lp1607
S'SAM'
p1608
a(lp1609
aa(lp1610
S'ANGELA'
p1611
a(lp1612
S'You'
p1613
aS'know'
p1614
aaa(lp1615
g1611
a(lp1616
S'But'
p1617
aS'then'
p1618
ag130
aS'thought'
p1619
aaa(lp1620
g1611
a(lp1621
g458
aS'these'
p1622
aS'are'
p1623
aS'the'
p1624
aS'only'
p1625
aS'summer'
p1626
aS'beads'
p1627
ag130
aS'have'
p1628
ag458
aaa(lp1629
S'DORIS'
p1630
a(lp1631
S'Right'
p1632
aaa(lp1633
g1630
a(lp1634
S'And'
p1635
ag130
aS'like'
p1636
aaa(lp1637
g1630
a(lp1638
g130
aS'like'
p1639
aS'that'
p1640
ag80
aS'shirt'
p1641
aaa(lp1642
S'ANGELA'
p1643
a(lp1644
S'You'
p1645
aS'know'
p1646
aS'what'
p1647
ag130
aS'had'
p1648
aS'to'
p1649
aS'do'
p1650
aaa(lp1651
g1643
a(lp1652
S'This'
p1653
aaa(lp1654
S'DORIS'
p1655
a(lp1656
S'What'
p1657
aS'did'
p1658
aS'you'
p1659
aaa(lp1660
S'ANGELA'
p1661
a(lp1662
S'this'
p1663
aaa(lp1664
g1661
a(lp1665
S'See'
p1666
aS'where'
p1667
ag130
aS'sewed'
p1668
aS'right'
p1669
aS'down'
p1670
aS'the'
p1671
aS'middle'
p1672
aS'of'
p1673
aS'that'
p1674
aaa(lp1675
S'DORIS'
p1676
a(lp1677
S'Yeah'
p1678
aaa(lp1679
S'ANGELA'
p1680
a(lp1681
S'Otherwise'
p1682
aS'it'
p1683
aS'would'
p1684
aS'balloon'
p1685
aS'out'
p1686
aaa(lp1687
g1680
a(lp1688
S'And'
p1689
aS'so'
p1690
ag130
aS's'
p1691
aaa(lp1692
g1680
a(lp1693
S'put'
p1694
aS'it'
p1695
aS'on'
p1696
aS'the'
p1697
aS'machine'
p1698
aaa(lp1699
g1680
a(lp1700
S'and'
p1701
aS'sewed'
p1702
aS'right'
p1703
aS'down'
p1704
aS'through'
p1705
aS'the'
p1706
aS'middle'
p1707
aS'of'
p1708
aS'it'
p1709
aaa(lp1710
S'SAM'
p1711
a(lp1712
S'So'
p1713
aS'it'
p1714
aS'doesnt'
p1715
aS'gap'
p1716
aaa(lp1717
S'ANGELA'
p1718
a(lp1719
S'So'
p1720
aS'it'
p1721
aS'd'
p1722
aS'doesnt'
p1723
aS'gap'
p1724
aaa(lp1725
g1718
a(lp1726
S'Right'
p1727
aaa(lp1728
S'DORIS'
p1729
a(lp1730
S'Oh'
p1731
aaa(lp1732
g1729
a(lp1733
S'smart'
p1734
aaa(lp1735
S'ANGELA'
p1736
a(lp1737
S'Yeah'
p1738
aaa(lp1739
g1736
a(lp1740
S'Well'
p1741
aS'it'
p1742
aS'works'
p1743
aaa(lp1744
S'DORIS'
p1745
a(lp1746
S'Smart'
p1747
aaa(lp1748
S'ANGELA'
p1749
a(lp1750
S'It'
p1751
aS'had'
p1752
ag65
aaa(lp1753
g1749
a(lp1754
S'it'
p1755
aS'had'
p1756
ag65
aaa(lp1757
g1749
a(lp1758
S'one'
p1759
aS'of'
p1760
aS'those'
p1761
aS'bottoms'
p1762
aS'that'
p1763
aaa(lp1764
S'DORIS'
p1765
a(lp1766
S'Oh'
p1767
aaa(lp1768
S'ANGELA'
p1769
a(lp1770
S'are'
p1771
aaa(lp1772
g1769
a(lp1773
S'what'
p1774
aS'do'
p1775
aS'you'
p1776
aS'call'
p1777
aS'it'
p1778
aaa(lp1779
S'SAM'
p1780
a(lp1781
g759
aS'tail'
p1782
aaa(lp1783
S'DORIS'
p1784
a(lp1785
S'No'
p1786
aaa(lp1787
g1784
a(lp1788
S'The'
p1789
aS'tight'
p1790
aaa(lp1791
g1784
a(lp1792
S'It'
p1793
aS'the'
p1794
aS'band'
p1795
aaa(lp1796
S'SAM'
p1797
a(lp1798
S'Oh'
p1799
aaa(lp1800
S'ANGELA'
p1801
a(lp1802
S'The'
p1803
aS't'
p1804
aS'the'
p1805
aS'tight'
p1806
aS'band'
p1807
aS'around'
p1808
aS'the'
p1809
aS'bottom'
p1810
aS'of'
p1811
aS'it'
p1812
aaa(lp1813
S'DORIS'
p1814
a(lp1815
S'B'
p1816
aS'band'
p1817
aaa(lp1818
S'SAM'
p1819
a(lp1820
g130
aS'dont'
p1821
aS'like'
p1822
aS'those'
p1823
aaa(lp1824
S'ANGELA'
p1825
a(lp1826
g130
aS'dont'
p1827
aS'either'
p1828
aaa(lp1829
S'DORIS'
p1830
a(lp1831
S'Makes'
p1832
aS'your'
p1833
aS'butt'
p1834
aS'look'
p1835
aS'thin'
p1836
aaa(lp1837
S'ANGELA'
p1838
a(lp1839
S'Most'
p1840
aS'all'
p1841
aS'of'
p1842
aS'em'
p1843
aS'are'
p1844
aS'that'
p1845
aS'way'
p1846
aaa(lp1847
S'DORIS'
p1848
a(lp1849
S'Makes'
p1850
aS'your'
p1851
aS'hei'
p1852
aaa(lp1853
S'ANGELA'
p1854
a(lp1855
S'And'
p1856
aS'do'
p1857
aS'you'
p1858
aS'know'
p1859
aaa(lp1860
S'DORIS'
p1861
a(lp1862
S'makes'
p1863
aS'your'
p1864
aS'heinie'
p1865
aS'look'
p1866
aS'thinner'
p1867
aaa(lp1868
S'ANGELA'
p1869
a(lp1870
g130
aS'went'
p1871
aS'over'
p1872
aS'to'
p1873
ag65
aS'store'
p1874
aaa(lp1875
g1869
a(lp1876
S'where'
p1877
aS'it'
p1878
aS'says'
p1879
aaa(lp1880
S'SAM'
p1881
a(lp1882
aa(lp1883
S'ANGELA'
p1884
a(lp1885
S'uh'
p1886
aS'sewing'
p1887
aaa(lp1888
g1884
a(lp1889
S'alterations'
p1890
aaa(lp1891
g1884
a(lp1892
S'And'
p1893
aS'all'
p1894
aS'that'
p1895
aS'stuff'
p1896
aaa(lp1897
g1884
a(lp1898
S'And'
p1899
ag130
aS'said'
p1900
aaa(lp1901
g1884
a(lp1902
S'how'
p1903
aS'much'
p1904
aS'do'
p1905
aS'you'
p1906
aS'charge'
p1907
aaa(lp1908
g1884
a(lp1909
S'for'
p1910
aS'taking'
p1911
aS'that'
p1912
aS'bottom'
p1913
aS'band'
p1914
aS'off'
p1915
aS'the'
p1916
aS'top'
p1917
aaa(lp1918
g1884
a(lp1919
S'you'
p1920
aS'know'
p1921
aaa(lp1922
g1884
a(lp1923
S'And'
p1924
aS'just'
p1925
aS'making'
p1926
aS'it'
p1927
ag65
aS'straight'
p1928
aS'shirt'
p1929
aaa(lp1930
g1884
a(lp1931
S'And'
p1932
aS'she'
p1933
aS'said'
p1934
aaa(lp1935
g1884
a(lp1936
S'THUMP'
p1937
ag458
aS'eight'
p1938
aS'dollars'
p1939
ag458
aaa(lp1940
g1884
a(lp1941
S'And'
p1942
ag130
aS'thought'
p1943
aaa(lp1944
g1884
a(lp1945
S'oh'
p1946
aS'my'
p1947
aS'lord'
p1948
aaa(lp1949
g1884
a(lp1950
g130
aS'didnt'
p1951
aS'pay'
p1952
aS'that'
p1953
aS'much'
p1954
aS'for'
p1955
aS'the'
p1956
aS'top'
p1957
aS'Ive'
p1958
aS'got'
p1959
aS'on'
p1960
aaa(lp1961
S'SAM'
p1962
a(lp1963
aa(lp1964
S'DORIS'
p1965
a(lp1966
S'You'
p1967
aS'know'
p1968
aaa(lp1969
g1965
a(lp1970
S'thats'
p1971
ag65
aS'little'
p1972
aS'like'
p1973
aS'these'
p1974
aS'catalog'
p1975
aS'things'
p1976
aaa(lp1977
g1965
a(lp1978
g130
aS'saw'
p1979
aS'something'
p1980
aS'in'
p1981
ag65
aS'cat'
p1982
aaa(lp1983
g1965
a(lp1984
S'the'
p1985
aS'catalog'
p1986
aaa(lp1987
g1965
a(lp1988
S'this'
p1989
aS'USPE'
p1990
aS'deal'
p1991
aS'that'
p1992
aaa(lp1993
g1965
a(lp1994
S'Ive'
p1995
aS'been'
p1996
aS'with'
p1997
aS'for'
p1998
ag65
aS'long'
p1999
aS'time'
p2000
aaa(lp2001
g1965
a(lp2002
S'and'
p2003
aaa(lp2004
g1965
a(lp2005
g130
aS'wanted'
p2006
aS'to'
p2007
aS'buy'
p2008
aS'it'
p2009
aaa(lp2010
g1965
a(lp2011
S'It'
p2012
aS'was'
p2013
ag65
aS'm'
p2014
aaa(lp2015
g1965
a(lp2016
g2014
aS'like'
p2017
ag65
aS'muumuu'
p2018
aaa(lp2019
S'ANGELA'
p2020
a(lp2021
S'Mhm'
p2022
aaa(lp2023
S'DORIS'
p2024
a(lp2025
S'werent'
p2026
aS'those'
p2027
aS'pretty'
p2028
aS'ones'
p2029
aS'up'
p2030
aaa(lp2031
g2024
a(lp2032
S'in'
p2033
aS'Dillards'
p2034
aS'the'
p2035
aS'other'
p2036
aS'day'
p2037
aaa(lp2038
g2024
a(lp2039
S'those'
p2040
aS'muumuus'
p2041
aaa(lp2042
g2024
a(lp2043
S'did'
p2044
aS'you'
p2045
aS'notice'
p2046
aS'em'
p2047
aaa(lp2048
g2024
a(lp2049
S'Didnt'
p2050
aS'you'
p2051
aS'notice'
p2052
aS'em'
p2053
aaa(lp2054
g2024
a(lp2055
S'as'
p2056
aS'you'
p2057
aS'went'
p2058
aS'out'
p2059
aaa(lp2060
g2024
a(lp2061
S'all'
p2062
aS'beautiful'
p2063
aS'colors'
p2064
aaa(lp2065
g2024
a(lp2066
S'So'
p2067
aS'pretty'
p2068
aaa(lp2069
g2024
a(lp2070
S'Well'
p2071
aS'anyway'
p2072
aaa(lp2073
g2024
a(lp2074
S'they'
p2075
aS'were'
p2076
aS'on'
p2077
aS'the'
p2078
aS'rack'
p2079
aaa(lp2080
g2024
a(lp2081
S'And'
p2082
aS'uh'
p2083
aaa(lp2084
g2024
a(lp2085
g130
aS'wanted'
p2086
aS'to'
p2087
aS'order'
p2088
aS'that'
p2089
aS'muumuu'
p2090
aaa(lp2091
g2024
a(lp2092
g130
aS'mean'
p2093
aS'it'
p2094
aS'was'
p2095
aS'around'
p2096
aS'twentynine'
p2097
aS'dollars'
p2098
aaa(lp2099
g2024
a(lp2100
S'or'
p2101
aS'something'
p2102
aS'like'
p2103
aS'that'
p2104
aaa(lp2105
g2024
a(lp2106
S'and'
p2107
aS'two'
p2108
aS'pairs'
p2109
aS'of'
p2110
aS'short'
p2111
aS'pajamas'
p2112
aaa(lp2113
g2024
a(lp2114
S'One'
p2115
aS'for'
p2116
aS'Sam'
p2117
aaa(lp2118
g2024
a(lp2119
S'and'
p2120
aS'one'
p2121
aS'for'
p2122
aS'me'
p2123
aaa(lp2124
g2024
a(lp2125
g130
aS'looked'
p2126
aS'at'
p2127
aS'the'
p2128
aS'postage'
p2129
aS'attached'
p2130
aS'to'
p2131
aS'it'
p2132
aaa(lp2133
S'ANGELA'
p2134
a(lp2135
aa(lp2136
S'DORIS'
p2137
a(lp2138
S'and'
p2139
ag130
aS'thought'
p2140
aS'good'
p2141
aS'heavens'
p2142
aaa(lp2143
g2137
a(lp2144
S'It'
p2145
aS'would'
p2146
aS'have'
p2147
aS'been'
p2148
aS'around'
p2149
aS'eight'
p2150
aS'dollar'
p2151
aaa(lp2152
g2137
a(lp2153
S'Its'
p2154
aS'by'
p2155
aS'amounts'
p2156
aS'of'
p2157
aS'POUND'
p2158
aS'money'
p2159
aaa(lp2160
g2137
a(lp2161
S'Not'
p2162
aS'weight'
p2163
aaa(lp2164
g2137
a(lp2165
S'Its'
p2166
aS'by'
p2167
aS'money'
p2168
aaa(lp2169
g2137
a(lp2170
S'How'
p2171
aS'much'
p2172
aS'money'
p2173
aS'this'
p2174
aS'costs'
p2175
aaa(lp2176
g2137
a(lp2177
S'And'
p2178
aS'its'
p2179
aS'geared'
p2180
aS'according'
p2181
aS'to'
p2182
aS'that'
p2183
aS'POUND'
p2184
aaa(lp2185
g2137
a(lp2186
S'And'
p2187
ag130
aS'thought'
p2188
aaa(lp2189
g2137
a(lp2190
S'forget'
p2191
aS'it'
p2192
aaa(lp2193
g2137
a(lp2194
g130
aS'could'
p2195
aS'take'
p2196
aS'that'
p2197
aS'eight'
p2198
aS'dollars'
p2199
aaa(lp2200
g2137
a(lp2201
S'and'
p2202
aS'buy'
p2203
aS'another'
p2204
aS'whole'
p2205
aS'outfit'
p2206
aaa(lp2207
S'ANGELA'
p2208
a(lp2209
S'Yeah'
p2210
aaa(lp2211
g2208
a(lp2212
S'you'
p2213
aS'know'
p2214
aaa(lp2215
g2208
a(lp2216
S'this'
p2217
aS'is'
p2218
aS'amazing'
p2219
aaa(lp2220
g2208
a(lp2221
S'Uh'
p2222
aaa(lp2223
g2208
a(lp2224
g130
aS'like'
p2225
aS'to'
p2226
aS'get'
p2227
aS'um'
p2228
aS'pillow'
p2229
aS'covers'
p2230
aaa(lp2231
g2208
a(lp2232
S'That'
p2233
aS'you'
p2234
aS'zip'
p2235
aS'on'
p2236
aaa(lp2237
g2208
a(lp2238
S'to'
p2239
aS'protect'
p2240
aS'the'
p2241
aS'pillows'
p2242
aaa(lp2243
S'DORIS'
p2244
a(lp2245
S'Mhm'
p2246
aaa(lp2247
g2244
a(lp2248
S'Mhm'
p2249
aaa(lp2250
S'ANGELA'
p2251
a(lp2252
S'And'
p2253
aS'uh'
p2254
aaa(lp2255
g2251
a(lp2256
g130
aS'went'
p2257
aS'over'
p2258
aS'to'
p2259
aS'Sears'
p2260
aaa(lp2261
g2251
a(lp2262
S'one'
p2263
aS'time'
p2264
aaa(lp2265
g2251
a(lp2266
S'and'
p2267
aS'ordered'
p2268
aS'three'
p2269
aaa(lp2270
g2251
a(lp2271
S'Through'
p2272
aS'the'
p2273
aS'catalog'
p2274
aaa(lp2275
g2251
a(lp2276
S'And'
p2277
aS'instead'
p2278
aS'of'
p2279
aS'sending'
p2280
aS'it'
p2281
aS'in'
p2282
aS'with'
p2283
ag65
aS'shipment'
p2284
aS'or'
p2285
aS'anything'
p2286
aaa(lp2287
S'SAM'
p2288
a(lp2289
aa(lp2290
S'ANGELA'
p2291
a(lp2292
g130
aS'paid'
p2293
aS'postage'
p2294
aS'on'
p2295
aS'it'
p2296
aS'separate'
p2297
aaa(lp2298
S'DORIS'
p2299
a(lp2300
S'Yeah'
p2301
aaa(lp2302
S'ANGELA'
p2303
a(lp2304
S'And'
p2305
aS'do'
p2306
aS'you'
p2307
aS'know'
p2308
aS'the'
p2309
aS'postage'
p2310
aS'came'
p2311
aS'to'
p2312
aS'more'
p2313
aaa(lp2314
S'DORIS'
p2315
a(lp2316
S'Than'
p2317
aS'the'
p2318
aS'g'
p2319
aaa(lp2320
g2315
a(lp2321
S'than'
p2322
aS'the'
p2323
aS'product'
p2324
aaa(lp2325
S'ANGELA'
p2326
a(lp2327
S'more'
p2328
aS'than'
p2329
aS'the'
p2330
aS'product'
p2331
aaa(lp2332
S'DORIS'
p2333
a(lp2334
S'Right'
p2335
aaa(lp2336
g2333
a(lp2337
S'Right'
p2338
aaa(lp2339
S'ANGELA'
p2340
a(lp2341
aa(lp2342
S'DORIS'
p2343
a(lp2344
S'Well'
p2345
ag130
aaa(lp2346
g2343
a(lp2347
g130
aS'w'
p2348
aaa(lp2349
g2343
a(lp2350
S'Thats'
p2351
aS'one'
p2352
aS'of'
p2353
aS'the'
p2354
aS'letters'
p2355
aS'that'
p2356
aS'Im'
p2357
aS'going'
p2358
aS'to'
p2359
aS'write'
p2360
aS'to'
p2361
aS'USPE'
p2362
aaa(lp2363
g2343
a(lp2364
S'And'
p2365
aS'just'
p2366
aS'tell'
p2367
aS'them'
p2368
aaa(lp2369
S'ANGELA'
p2370
a(lp2371
aa(lp2372
S'DORIS'
p2373
a(lp2374
S'That'
p2375
aS'theyre'
p2376
aS'gearing'
p2377
aS'this'
p2378
aS'in'
p2379
aS'the'
p2380
aS'wrong'
p2381
aS'way'
p2382
aaa(lp2383
g2373
a(lp2384
S'It'
p2385
aS'should'
p2386
aS'be'
p2387
aS'geared'
p2388
aS'according'
p2389
aS'to'
p2390
aS'weight'
p2391
aaa(lp2392
g2373
a(lp2393
S'Now'
p2394
aaa(lp2395
g2373
a(lp2396
S'That'
p2397
ag2319
aS'cotton'
p2398
aaa(lp2399
g2373
a(lp2400
S'two'
p2401
aS'pairs'
p2402
aS'of'
p2403
aS'cotton'
p2404
aS'pajamas'
p2405
aaa(lp2406
g2373
a(lp2407
S'and'
p2408
aS'that'
p2409
aS'cotton'
p2410
aS'muumuu'
p2411
aaa(lp2412
g2373
a(lp2413
S'aint'
p2414
aS'gonna'
p2415
aS'weigh'
p2416
aS'up'
p2417
aS'to'
p2418
aS'eight'
p2419
aS'dollars'
p2420
aS'worth'
p2421
aaa(lp2422
g2373
a(lp2423
S'Believe'
p2424
aS'you'
p2425
aS'me'
p2426
aaa(lp2427
S'ANGELA'
p2428
a(lp2429
g130
aS'wouldnt'
p2430
aS'think'
p2431
aaa(lp2432
g2428
a(lp2433
S'No'
p2434
aaa(lp2435
S'DORIS'
p2436
a(lp2437
g130
aS'know'
p2438
aS'better'
p2439
aaa(lp2440
g2436
a(lp2441
S'So'
p2442
aaa(lp2443
g2436
a(lp2444
g130
aS'thought'
p2445
aS'th'
p2446
aaa(lp2447
g2436
a(lp2448
g130
aS'just'
p2449
aS'wont'
p2450
aS'order'
p2451
aS'from'
p2452
aS'em'
p2453
aaa(lp2454
g2436
a(lp2455
g130
ag2014
aaa(lp2456
g2436
a(lp2457
S'Thats'
p2458
aS'foolish'
p2459
aaa(lp2460
S'SAM'
p2461
a(lp2462
S'We'
p2463
aS'better'
p2464
aS'go'
p2465
aS'up'
p2466
aS'to'
p2467
aS'Dillards'
p2468
aaa(lp2469
g2461
a(lp2470
S'and'
p2471
aS'see'
p2472
aS'if'
p2473
aS'they'
p2474
aS'still'
p2475
aS'have'
p2476
aS'those'
p2477
aS'muumuus'
p2478
aaa(lp2479
S'DORIS'
p2480
a(lp2481
S'You'
p2482
aS'mean'
p2483
aS'up'
p2484
aS'to'
p2485
aS'Phoenix'
p2486
aaa(lp2487
S'SAM'
p2488
a(lp2489
S'No'
p2490
aaa(lp2491
g2488
a(lp2492
S'well'
p2493
aS'they'
p2494
aS'might'
p2495
aS'have'
p2496
aS'them'
p2497
aS'here'
p2498
aaa(lp2499
g2488
a(lp2500
S'in'
p2501
aS'town'
p2502
aaa(lp2503
S'DORIS'
p2504
a(lp2505
g130
aS'dont'
p2506
aS'know'
p2507
aaa(lp2508
S'SAM'
p2509
a(lp2510
S'At'
p2511
aS'Dillards'
p2512
aaa(lp2513
S'DORIS'
p2514
a(lp2515
S'They'
p2516
aaa(lp2517
g2514
a(lp2518
S'they'
p2519
aS'were'
p2520
aS'sure'
p2521
aS'pretty'
p2522
aaa(lp2523
g2514
a(lp2524
S'Pretty'
p2525
aS'c'
p2526
aaa(lp2527
g2514
a(lp2528
S'pretty'
p2529
aS'colors'
p2530
aaa(lp2531
g2514
a(lp2532
S'Some'
p2533
aS'of'
p2534
aS'em'
p2535
aS'were'
p2536
aS'dark'
p2537
aaa(lp2538
S'X'
p2539
a(lp2540
S'Yeah'
p2541
aaa(lp2542
g2539
a(lp2543
S'Yeah'
p2544
aaa(lp2545
S'DORIS'
p2546
a(lp2547
S'but'
p2548
aS'they'
p2549
aS'had'
p2550
aaa(lp2551
g2546
a(lp2552
S'oh'
p2553
aaa(lp2554
g2546
a(lp2555
S'purples'
p2556
aS'and'
p2557
aaa(lp2558
g2546
a(lp2559
S'reds'
p2560
aS'and'
p2561
aaa(lp2562
g2546
a(lp2563
S'pinks'
p2564
aS'and'
p2565
aaa(lp2566
g2546
a(lp2567
S'oh'
p2568
aaa(lp2569
g2546
a(lp2570
S'pretty'
p2571
aS'designs'
p2572
aS'in'
p2573
aS'em'
p2574
aaa(lp2575
S'ANGELA'
p2576
a(lp2577
S'Hm'
p2578
aaa(lp2579
S'DORIS'
p2580
a(lp2581
S'You'
p2582
aS'didnt'
p2583
aS'see'
p2584
aS'em'
p2585
aaa(lp2586
S'ANGELA'
p2587
a(lp2588
g130
aS'dont'
p2589
aS'think'
p2590
ag130
aS'was'
p2591
aaa(lp2592
g2587
a(lp2593
g130
aS'was'
p2594
aaa(lp2595
g2587
a(lp2596
g130
aS'think'
p2597
ag130
aS'was'
p2598
aS'concerned'
p2599
aS'about'
p2600
aS'your'
p2601
aS'getting'
p2602
aS'there'
p2603
aS'and'
p2604
aS'back'
p2605
aaa(lp2606
S'DORIS'
p2607
a(lp2608
S'Oh'
p2609
aaa(lp2610
S'SAM'
p2611
a(lp2612
S'Oh'
p2613
aaa(lp2614
g2611
a(lp2615
S'hunh'
p2616
aaa(lp2617
S'DORIS'
p2618
a(lp2619
aa(lp2620
g2618
a(lp2621
S'Youre'
p2622
aS'not'
p2623
aS'the'
p2624
aS'only'
p2625
aS'one'
p2626
aS'baby'
p2627
aaa(lp2628
S'ANGELA'
p2629
a(lp2630
aa(lp2631
S'DORIS'
p2632
a(lp2633
aa(lp2634
g2632
a(lp2635
S'You'
p2636
aS'werent'
p2637
aS'the'
p2638
aS'only'
p2639
aS'one'
p2640
aaa(lp2641
S'ANGELA'
p2642
a(lp2643
aa(lp2644
S'DORIS'
p2645
a(lp2646
S'Sam'
p2647
aaa(lp2648
g2645
a(lp2649
g130
aS'was'
p2650
aS'just'
p2651
aS'dripping'
p2652
aaa(lp2653
g2645
a(lp2654
g130
aS'was'
p2655
aS'just'
p2656
aS'soaked'
p2657
aaa(lp2658
S'SAM'
p2659
a(lp2660
S'Buckets'
p2661
aaa(lp2662
S'DORIS'
p2663
a(lp2664
g130
aS'was'
p2665
aS'just'
p2666
aS'absolutely'
p2667
aS'soaked'
p2668
aaa(lp2669
g2663
a(lp2670
S'Wasnt'
p2671
ag130
aaa(lp2672
S'ANGELA'
p2673
a(lp2674
S'Yeah'
p2675
aaa(lp2676
g2673
a(lp2677
S'came'
p2678
aS'in'
p2679
aaa(lp2680
g2673
a(lp2681
S'and'
p2682
aS'sat'
p2683
aS'down'
p2684
aS'in'
p2685
aS'the'
p2686
aS'restaurant'
p2687
aaa(lp2688
S'SAM'
p2689
a(lp2690
aa(lp2691
S'ANGELA'
p2692
a(lp2693
S'You'
p2694
aS'know'
p2695
aS'and'
p2696
aS'spent'
p2697
aaa(lp2698
g2692
a(lp2699
S'the'
p2700
aS'first'
p2701
aS'ten'
p2702
aS'or'
p2703
aS'fifteen'
p2704
aS'minutes'
p2705
aaa(lp2706
S'DORIS'
p2707
a(lp2708
aa(lp2709
S'ANGELA'
p2710
a(lp2711
aa(lp2712
g2710
a(lp2713
S'stopping'
p2714
aS'the'
p2715
aS'flow'
p2716
aS'of'
p2717
aaa(lp2718
g2710
a(lp2719
S'trickling'
p2720
aS'down'
p2721
aS'her'
p2722
aS'neck'
p2723
aaa(lp2724
S'DORIS'
p2725
a(lp2726
aa(lp2727
S'SAM'
p2728
a(lp2729
S'Oh'
p2730
aaa(lp2731
S'ANGELA'
p2732
a(lp2733
aa(lp2734
S'DORIS'
p2735
a(lp2736
S'Oh'
p2737
aS'terrible'
p2738
aaa(lp2739
g2735
a(lp2740
S'Just'
p2741
aS'terrible'
p2742
aaa(lp2743
S'ANGELA'
p2744
a(lp2745
S'Oh'
p2746
aS'well'
p2747
aaa(lp2748
S'DORIS'
p2749
a(lp2750
aa(lp2751
S'ANGELA'
p2752
a(lp2753
g130
aaa(lp2754
g2752
a(lp2755
S'My'
p2756
aS'other'
p2757
aS'Doris'
p2758
aS'does'
p2759
aS'the'
p2760
aS'same'
p2761
aS'thing'
p2762
aaa(lp2763
S'SAM'
p2764
a(lp2765
S'Oh'
p2766
aS'does'
p2767
aS'she'
p2768
aaa(lp2769
S'ANGELA'
p2770
a(lp2771
g731
aaa(lp2772
g2770
a(lp2773
S'Yeah'
p2774
aaa(lp2775
S'DORIS'
p2776
a(lp2777
S'Well'
p2778
aS'what'
p2779
aS'is'
p2780
aS'it'
p2781
aaa(lp2782
S'ANGELA'
p2783
a(lp2784
g130
aS'dont'
p2785
aS'know'
p2786
aaa(lp2787
g2783
a(lp2788
S'She'
p2789
aS'doesnt'
p2790
aS'know'
p2791
aaa(lp2792
S'SAM'
p2793
a(lp2794
S'Well'
p2795
aS'some'
p2796
aS'people'
p2797
aS'just'
p2798
aS'perspire'
p2799
aaa(lp2800
S'DORIS'
p2801
a(lp2802
S'Well'
p2803
ag130
aS'didnt'
p2804
aS'persp'
p2805
aS'use'
p2806
aS'to'
p2807
aS'perspire'
p2808
aS'like'
p2809
aS'that'
p2810
aaa(lp2811
S'SAM'
p2812
a(lp2813
S'more'
p2814
aaa(lp2815
S'DORIS'
p2816
a(lp2817
S'but'
p2818
ag130
aS'sure'
p2819
aS'have'
p2820
aS'done'
p2821
aS'it'
p2822
aaa(lp2823
S'SAM'
p2824
a(lp2825
S'no'
p2826
aaa(lp2827
g2824
a(lp2828
S'not'
p2829
aS'to'
p2830
aS'that'
p2831
aS'extent'
p2832
aS'you'
p2833
aS'didnt'
p2834
aaa(lp2835
S'DORIS'
p2836
a(lp2837
S'recently'
p2838
aaa(lp2839
g2836
a(lp2840
S'Th'
p2841
aS'that'
p2842
aaa(lp2843
g2836
a(lp2844
S'and'
p2845
aS'the'
p2846
aS'time'
p2847
aS'we'
p2848
aS'were'
p2849
aS'up'
p2850
aS'in'
p2851
aS'uh'
p2852
aaa(lp2853
g2836
a(lp2854
S'M'
p2855
aS'Montgomery'
p2856
aS'Wards'
p2857
aaa(lp2858
g2836
a(lp2859
S'Remember'
p2860
aaa(lp2861
S'SAM'
p2862
a(lp2863
S'Oh'
p2864
aS'yes'
p2865
aaa(lp2866
S'DORIS'
p2867
a(lp2868
S'Oh'
p2869
aS'boy'
p2870
aS'was'
p2871
ag130
aS'soaked'
p2872
aaa(lp2873
S'SAM'
p2874
a(lp2875
S'That'
p2876
aS'was'
p2877
aS'just'
p2878
aaa(lp2879
S'DORIS'
p2880
a(lp2881
S'And'
p2882
aS'that'
p2883
aS'was'
p2884
aS'in'
p2885
aS'the'
p2886
aS'winter'
p2887
aaa(lp2888
S'SAM'
p2889
a(lp2890
S'weakness'
p2891
aaa(lp2892
g2889
a(lp2893
S'Exertion'
p2894
aaa(lp2895
S'DORIS'
p2896
a(lp2897
S'Well'
p2898
aS'maybe'
p2899
aS'thats'
p2900
aS'what'
p2901
aS'this'
p2902
aS'was'
p2903
aaa(lp2904
g2896
a(lp2905
S'But'
p2906
aS'anyway'
p2907
aaa(lp2908
S'ANGELA'
p2909
a(lp2910
g130
aS'wish'
p2911
aS'the'
p2912
aS'stores'
p2913
aS'would'
p2914
aS'open'
p2915
aS'earlier'
p2916
aaa(lp2917
S'DORIS'
p2918
a(lp2919
S'Earlier'
p2920
aaa(lp2921
g2918
a(lp2922
S'Yes'
p2923
aaa(lp2924
g2918
a(lp2925
g130
aS'do'
p2926
aS'too'
p2927
aaa(lp2928
S'SAM'
p2929
a(lp2930
S'Instead'
p2931
aS'of'
p2932
aS'ten'
p2933
aS'oclock'
p2934
aaa(lp2935
g2929
a(lp2936
S'in'
p2937
aS'the'
p2938
aS'summertime'
p2939
aS'they'
p2940
aS'oughta'
p2941
aS'open'
p2942
aS'at'
p2943
aS'least'
p2944
aS'at'
p2945
aS'nine'
p2946
aaa(lp2947
S'DORIS'
p2948
a(lp2949
aa(lp2950
S'ANGELA'
p2951
a(lp2952
S'Well'
p2953
aS'it'
p2954
aS'would'
p2955
aS'he'
p2956
aaa(lp2957
S'DORIS'
p2958
a(lp2959
S'Id'
p2960
aS'say'
p2961
aS'eight'
p2962
aaa(lp2963
S'ANGELA'
p2964
a(lp2965
S'it'
p2966
aS'would'
p2967
aS'help'
p2968
aaa(lp2969
g2964
a(lp2970
S'Eight'
p2971
aS'oclock'
p2972
aS'would'
p2973
aS'be'
p2974
aS'fine'
p2975
aaa(lp2976
S'SAM'
p2977
a(lp2978
S'you'
p2979
aS'hate'
p2980
aS'to'
p2981
aS'start'
p2982
aS'out'
p2983
aS'at'
p2984
aS'ten'
p2985
aS'oclock'
p2986
aaa(lp2987
S'DORIS'
p2988
a(lp2989
S'Id'
p2990
aS'say'
p2991
aS'eight'
p2992
aaa(lp2993
g2988
a(lp2994
S'and'
p2995
aS'quit'
p2996
aS'at'
p2997
aS'four'
p2998
aaa(lp2999
S'SAM'
p3000
a(lp3001
aa(lp3002
S'ANGELA'
p3003
a(lp3004
S'You'
p3005
aS'know'
p3006
aS'the'
p3007
aS'little'
p3008
aS'folks'
p3009
aS'who'
p3010
aS'live'
p3011
aS'above'
p3012
aS'me'
p3013
aaa(lp3014
S'DORIS'
p3015
a(lp3016
S'Mhm'
p3017
aaa(lp3018
S'ANGELA'
p3019
a(lp3020
S'go'
p3021
aS'over'
p3022
aS'to'
p3023
aS'Tucson'
p3024
aS'Mall'
p3025
aaa(lp3026
g3019
a(lp3027
S'and'
p3028
aS'walk'
p3029
aS'every'
p3030
aS'morning'
p3031
aaa(lp3032
S'DORIS'
p3033
a(lp3034
aa(lp3035
g3033
a(lp3036
S'Yeah'
p3037
aaa(lp3038
g3033
a(lp3039
S'Thats'
p3040
aS'good'
p3041
aaa(lp3042
S'ANGELA'
p3043
a(lp3044
S'And'
p3045
aS'theres'
p3046
ag65
aS'side'
p3047
aS'door'
p3048
aaa(lp3049
S'DORIS'
p3050
a(lp3051
S'Mhm'
p3052
aaa(lp3053
S'ANGELA'
p3054
a(lp3055
S'Unlocked'
p3056
aaa(lp3057
g3054
a(lp3058
S'So'
p3059
aS'that'
p3060
aS'they'
p3061
aS'can'
p3062
aS'go'
p3063
aS'in'
p3064
aaa(lp3065
g3054
a(lp3066
S'oh'
p3067
ag130
aS'think'
p3068
aaa(lp3069
S'DORIS'
p3070
a(lp3071
g759
aS'lotta'
p3072
aS'people'
p3073
aS'do'
p3074
aS'that'
p3075
aaa(lp3076
S'ANGELA'
p3077
a(lp3078
S'They'
p3079
aS'go'
p3080
aS'r'
p3081
aS'uh'
p3082
aS'at'
p3083
aS'least'
p3084
aS'by'
p3085
aS'eight'
p3086
aS'oclock'
p3087
aaa(lp3088
S'DORIS'
p3089
a(lp3090
aa(lp3091
g3089
a(lp3092
S'Yeah'
p3093
aaa(lp3094
S'ANGELA'
p3095
a(lp3096
S'And'
p3097
aS'they'
p3098
aS'go'
p3099
aS'in'
p3100
aaa(lp3101
S'DORIS'
p3102
a(lp3103
S'They'
p3104
aS'go'
p3105
aS'in'
p3106
aS'and'
p3107
aS'walk'
p3108
aaa(lp3109
S'ANGELA'
p3110
a(lp3111
S'and'
p3112
aS'then'
p3113
aS'they'
p3114
aS'know'
p3115
ag731
aaa(lp3116
g3110
a(lp3117
S'so'
p3118
aS'many'
p3119
aS'times'
p3120
aS'around'
p3121
aaa(lp3122
g3110
a(lp3123
S'you'
p3124
aS'know'
p3125
aaa(lp3126
S'DORIS'
p3127
a(lp3128
S'Mhm'
p3129
aaa(lp3130
g3127
a(lp3131
S'Mhm'
p3132
aaa(lp3133
S'ANGELA'
p3134
a(lp3135
S'will'
p3136
aS'um'
p3137
aaa(lp3138
g3134
a(lp3139
S'make'
p3140
ag65
aS'mile'
p3141
aaa(lp3142
g3134
a(lp3143
S'And'
p3144
aS'then'
p3145
aS'theres'
p3146
ag65
aaa(lp3147
g3134
a(lp3148
S'soft'
p3149
aS'drink'
p3150
aS'place'
p3151
aS'up'
p3152
aS'there'
p3153
aS'that'
p3154
aS'they'
p3155
aS'all'
p3156
aS'congregate'
p3157
aaa(lp3158
S'SAM'
p3159
a(lp3160
S'Oh'
p3161
aaa(lp3162
S'ANGELA'
p3163
a(lp3164
S'And'
p3165
aS'uh'
p3166
aaa(lp3167
S'DORIS'
p3168
a(lp3169
S'Why'
p3170
aS'dont'
p3171
aS'you'
p3172
aS'join'
p3173
aS'em'
p3174
aaa(lp3175
S'ANGELA'
p3176
a(lp3177
S'and'
p3178
aS'they'
p3179
aS'have'
p3180
aS'pins'
p3181
aaa(lp3182
g3176
a(lp3183
S'when'
p3184
aS'they'
p3185
aS'cover'
p3186
aS'fifty'
p3187
aS'miles'
p3188
aaa(lp3189
g3176
a(lp3190
S'or'
p3191
aS'whatever'
p3192
aS'you'
p3193
aS'know'
p3194
aaa(lp3195
S'DORIS'
p3196
a(lp3197
S'Yeah'
p3198
aaa(lp3199
S'ANGELA'
p3200
a(lp3201
S'and'
p3202
ag65
aS'hundred'
p3203
aS'miles'
p3204
aS'of'
p3205
aaa(lp3206
S'SAM'
p3207
a(lp3208
S'What'
p3209
aS'outfit'
p3210
aS'is'
p3211
aS'this'
p3212
aS'from'
p3213
aaa(lp3214
g3207
a(lp3215
S'Oasis'
p3216
aaa(lp3217
S'ANGELA'
p3218
a(lp3219
S'No'
p3220
aaa(lp3221
S'DORIS'
p3222
a(lp3223
S'no'
p3224
aaa(lp3225
S'ANGELA'
p3226
a(lp3227
S'its'
p3228
ag65
aaa(lp3229
S'DORIS'
p3230
a(lp3231
S'its'
p3232
aS'just'
p3233
ag65
aS'neighborhood'
p3234
aS'thing'
p3235
aaa(lp3236
g3230
a(lp3237
S'Its'
p3238
aS'just'
p3239
aS'people'
p3240
aS'around'
p3241
aS'in'
p3242
aS'that'
p3243
aS'area'
p3244
aaa(lp3245
S'ANGELA'
p3246
a(lp3247
S'its'
p3248
aS'ne'
p3249
aaa(lp3250
S'DORIS'
p3251
a(lp3252
S'and'
p3253
aS'they'
p3254
aS'go'
p3255
aS'there'
p3256
aS'to'
p3257
aS'walk'
p3258
aaa(lp3259
S'SAM'
p3260
a(lp3261
aa(lp3262
S'DORIS'
p3263
a(lp3264
g130
aS'think'
p3265
aaa(lp3266
g3263
a(lp3267
g130
aS'think'
p3268
aS'thats'
p3269
aS'it'
p3270
aaa(lp3271
g3263
a(lp3272
S'But'
p3273
aS'uh'
p3274
aaa(lp3275
g3263
a(lp3276
g130
aaa(lp3277
g3263
a(lp3278
S'uh'
p3279
aaa(lp3280
g3263
a(lp3281
S'weve'
p3282
aS'been'
p3283
aS'over'
p3284
aS'there'
p3285
aaa(lp3286
g3263
a(lp3287
S'and'
p3288
aS'weve'
p3289
aS'seen'
p3290
aS'em'
p3291
aS'go'
p3292
aS'in'
p3293
aaa(lp3294
g3263
a(lp3295
S'and'
p3296
aS'all'
p3297
aS'theyre'
p3298
aS'doing'
p3299
aS'is'
p3300
aS'just'
p3301
aS'walking'
p3302
aaa(lp3303
S'ANGELA'
p3304
a(lp3305
S'Mhm'
p3306
aaa(lp3307
g3304
a(lp3308
S'They'
p3309
aS'might'
p3310
aS'be'
p3311
aS'good'
p3312
aS'people'
p3313
aaa(lp3314
g3304
a(lp3315
S'we'
p3316
aS'could'
p3317
aS'cultivate'
p3318
aS'to'
p3319
aS'hunt'
p3320
aS'things'
p3321
aS'for'
p3322
aS'us'
p3323
aaa(lp3324
S'SAM'
p3325
a(lp3326
aa(lp3327
S'DORIS'
p3328
a(lp3329
aa(lp3330
S'ANGELA'
p3331
a(lp3332
aa(lp3333
S'DORIS'
p3334
a(lp3335
S'Yeah'
p3336
aaa(lp3337
S'SAM'
p3338
a(lp3339
S'You'
p3340
aS'mean'
p3341
aS'look'
p3342
aS'in'
p3343
aS'the'
p3344
aS'window'
p3345
aaa(lp3346
S'DORIS'
p3347
a(lp3348
S'Now'
p3349
aS'thats'
p3350
aaa(lp3351
g3347
a(lp3352
S'thats'
p3353
aS'an'
p3354
aS'idea'
p3355
aaa(lp3356
S'ANGELA'
p3357
a(lp3358
aa(lp3359
S'DORIS'
p3360
a(lp3361
S'Instead'
p3362
aS'of'
p3363
aS'having'
p3364
aS'to'
p3365
aS'parade'
p3366
aS'all'
p3367
aS'around'
p3368
aS'looking'
p3369
aS'for'
p3370
aS'it'
p3371
aaa(lp3372
S'ANGELA'
p3373
a(lp3374
aa(lp3375
S'DORIS'
p3376
a(lp3377
S'theyre'
p3378
aS'around'
p3379
aaa(lp3380
g3376
a(lp3381
S'why'
p3382
aS'not'
p3383
aS'tell'
p3384
aS'us'
p3385
aS'where'
p3386
aS'that'
p3387
aS'is'
p3388
aaa(lp3389
S'ANGELA'
p3390
a(lp3391
S'Well'
p3392
aS'yeah'
p3393
aaa(lp3394
g3390
a(lp3395
S'well'
p3396
aS'they'
p3397
aS'can'
p3398
aS'explain'
p3399
aaa(lp3400
S'DORIS'
p3401
a(lp3402
aa(lp3403
S'ANGELA'
p3404
a(lp3405
S'and'
p3406
aS'they'
p3407
aS'can'
p3408
aS'take'
p3409
aS'notes'
p3410
aaa(lp3411
S'DORIS'
p3412
a(lp3413
aa(lp3414
S'ANGELA'
p3415
a(lp3416
S'as'
p3417
aS'they'
p3418
aS'go'
p3419
aS'around'
p3420
aaa(lp3421
S'DORIS'
p3422
a(lp3423
S'Of'
p3424
aS'course'
p3425
aaa(lp3426
S'ANGELA'
p3427
a(lp3428
aa(lp3429
S'DORIS'
p3430
a(lp3431
S'Make'
p3432
aS'it'
p3433
aS'pay'
p3434
aS'off'
p3435
aaa(lp3436
g3430
a(lp3437
S'Be'
p3438
aS'glad'
p3439
aS'to'
p3440
aS'shop'
p3441
aS'for'
p3442
aS'you'
p3443
aaa(lp3444
S'ANGELA'
p3445
a(lp3446
aa(lp3447
g3445
a(lp3448
S'Charge'
p3449
ag65
aS'fee'
p3450
aaa(lp3451
S'DORIS'
p3452
a(lp3453
S'Right'
p3454
aaa(lp3455
S'ANGELA'
p3456
a(lp3457
aa(lp3458
S'DORIS'
p3459
a(lp3460
aa(lp3461
S'ANGELA'
p3462
a(lp3463
aa(lp3464
S'DORIS'
p3465
a(lp3466
aa(lp3467
S'ANGELA'
p3468
a(lp3469
aa(lp3470
S'DORIS'
p3471
a(lp3472
aa(lp3473
S'ANGELA'
p3474
a(lp3475
g130
aS'still'
p3476
aS'havent'
p3477
aS'found'
p3478
aS'anybody'
p3479
aS'that'
p3480
aS'wants'
p3481
aS'to'
p3482
aaa(lp3483
g3474
a(lp3484
S'let'
p3485
aS'me'
p3486
aS'pay'
p3487
ag65
aS'little'
p3488
aS'fee'
p3489
aaa(lp3490
g3474
a(lp3491
S'and'
p3492
aS'then'
p3493
aaa(lp3494
g3474
a(lp3495
S'call'
p3496
aS'em'
p3497
aS'every'
p3498
aS'morning'
p3499
aaa(lp3500
g3474
a(lp3501
S'that'
p3502
aS'Im'
p3503
aS'up'
p3504
aS'and'
p3505
aS'around'
p3506
aaa(lp3507
S'DORIS'
p3508
a(lp3509
S'What'
p3510
aS'what'
p3511
aS'what'
p3512
ag2348
aaa(lp3513
g3508
a(lp3514
S'Back'
p3515
aS'up'
p3516
ag65
aS'minute'
p3517
aaa(lp3518
g3508
a(lp3519
S'Do'
p3520
aS'what'
p3521
aaa(lp3522
S'ANGELA'
p3523
a(lp3524
g130
aaa(lp3525
S'DORIS'
p3526
a(lp3527
S'Youll'
p3528
aS'pay'
p3529
aS'to'
p3530
aS'be'
p3531
aS'called'
p3532
aaa(lp3533
g3526
a(lp3534
S'Ive'
p3535
aS'been'
p3536
aS'looking'
p3537
aS'for'
p3538
aS'somebody'
p3539
aaa(lp3540
g3526
a(lp3541
S'who'
p3542
aS'will'
p3543
aS'sit'
p3544
aS'by'
p3545
aS'the'
p3546
aS'phone'
p3547
aS'in'
p3548
aS'the'
p3549
aS'morning'
p3550
aaa(lp3551
g3526
a(lp3552
S'and'
p3553
ag65
aaa(lp3554
g3526
a(lp3555
S'and'
p3556
aS'clients'
p3557
aS'will'
p3558
aS'call'
p3559
aS'in'
p3560
aS'and'
p3561
aS'say'
p3562
aaa(lp3563
g3526
a(lp3564
g458
aS'good'
p3565
aS'morning'
p3566
aaa(lp3567
g3526
a(lp3568
S'Im'
p3569
aS'up'
p3570
ag458
aaa(lp3571
g3526
a(lp3572
S'And'
p3573
aS'so'
p3574
aS'th'
p3575
aaa(lp3576
g3526
a(lp3577
S'theyre'
p3578
aS'through'
p3579
aS'for'
p3580
aS'the'
p3581
aS'day'
p3582
aS'then'
p3583
aaa(lp3584
g3526
a(lp3585
S'Im'
p3586
aS'up'
p3587
aaa(lp3588
g3526
a(lp3589
S'If'
p3590
ag130
aS'dont'
p3591
aS'call'
p3592
aS'in'
p3593
aS'by'
p3594
aS'say'
p3595
aS'nine'
p3596
aS'oclock'
p3597
aaa(lp3598
S'ANGELA'
p3599
a(lp3600
S'Then'
p3601
aaa(lp3602
S'DORIS'
p3603
a(lp3604
S'well'
p3605
aS'Ill'
p3606
aS'be'
p3607
aS'glad'
p3608
aS'to'
p3609
aS'do'
p3610
aS'that'
p3611
aS'for'
p3612
ag65
aS'fee'
p3613
aaa(lp3614
S'ANGELA'
p3615
a(lp3616
S'You'
p3617
aS'will'
p3618
aaa(lp3619
S'DORIS'
p3620
a(lp3621
aa(lp3622
S'ANGELA'
p3623
a(lp3624
S'How'
p3625
aS'much'
p3626
aS'is'
p3627
aS'the'
p3628
aS'fee'
p3629
aS'though'
p3630
aaa(lp3631
S'DORIS'
p3632
a(lp3633
aa(lp3634
S'ANGELA'
p3635
a(lp3636
aa(lp3637
S'SAM'
p3638
a(lp3639
aa(lp3640
S'DORIS'
p3641
a(lp3642
S'Angela'
p3643
aaa(lp3644
S'ANGELA'
p3645
a(lp3646
aa(lp3647
S'DORIS'
p3648
a(lp3649
S'it'
p3650
aaa(lp3651
g3648
a(lp3652
S'does'
p3653
aS'that'
p3654
ag80
aaa(lp3655
g3648
a(lp3656
S'does'
p3657
aS'it'
p3658
aS'really'
p3659
aS'bother'
p3660
aS'you'
p3661
aaa(lp3662
S'ANGELA'
p3663
a(lp3664
S'Id'
p3665
aS'like'
p3666
aS'to'
p3667
aS'have'
p3668
aS'somebody'
p3669
ag130
aS'could'
p3670
aS'call'
p3671
aS'in'
p3672
aS'to'
p3673
aaa(lp3674
g3663
a(lp3675
S'every'
p3676
aS'morning'
p3677
aaa(lp3678
S'SAM'
p3679
a(lp3680
aa(lp3681
S'DORIS'
p3682
a(lp3683
S'You'
p3684
aS'call'
p3685
aS'in'
p3686
aaa(lp3687
g3682
a(lp3688
S'or'
p3689
ag130
aS'call'
p3690
aS'in'
p3691
aaa(lp3692
S'ANGELA'
p3693
a(lp3694
g130
aS'call'
p3695
aS'in'
p3696
aS'and'
p3697
aS'let'
p3698
aS'you'
p3699
aaa(lp3700
g3693
a(lp3701
S'whoever'
p3702
aS'it'
p3703
aS'is'
p3704
aaa(lp3705
g3693
a(lp3706
S'know'
p3707
aS'Im'
p3708
aS'up'
p3709
aaa(lp3710
S'SAM'
p3711
a(lp3712
S'Well'
p3713
aaa(lp3714
S'DORIS'
p3715
a(lp3716
S'Oh'
p3717
aaa(lp3718
S'SAM'
p3719
a(lp3720
S'you'
p3721
aS'can'
p3722
aS'do'
p3723
aS'that'
p3724
aS'with'
p3725
aS'us'
p3726
aaa(lp3727
g3719
a(lp3728
S'Were'
p3729
aS'up'
p3730
aaa(lp3731
S'DORIS'
p3732
a(lp3733
S'You'
p3734
aS'can'
p3735
aS'do'
p3736
aS'it'
p3737
aS'with'
p3738
ag731
aaa(lp3739
g3732
a(lp3740
S'you'
p3741
aS'can'
p3742
aS'do'
p3743
aS'that'
p3744
aS'with'
p3745
aS'us'
p3746
aaa(lp3747
g3732
a(lp3748
S'sometimes'
p3749
aS'were'
p3750
aS'up'
p3751
aS'at'
p3752
aS'four'
p3753
aS'oclock'
p3754
aaa(lp3755
S'ANGELA'
p3756
a(lp3757
aa(lp3758
S'SAM'
p3759
a(lp3760
aa(lp3761
g3759
a(lp3762
S'were'
p3763
aS'up'
p3764
aS'early'
p3765
aaa(lp3766
S'ANGELA'
p3767
a(lp3768
aa(lp3769
g3767
a(lp3770
S'Well'
p3771
aaa(lp3772
g3767
a(lp3773
g130
aS'would'
p3774
aS'like'
p3775
aS'to'
p3776
aS'have'
p3777
aS'it'
p3778
aS'on'
p3779
ag65
aS'business'
p3780
aS'basis'
p3781
aS'with'
p3782
aS'somebody'
p3783
aaa(lp3784
S'DORIS'
p3785
a(lp3786
S'Well'
p3787
aaa(lp3788
g3785
a(lp3789
S'well'
p3790
aS'alright'
p3791
aaa(lp3792
g3785
a(lp3793
S'Well'
p3794
aS'put'
p3795
aS'it'
p3796
aS'on'
p3797
ag65
aS'business'
p3798
aS'basis'
p3799
aaa(lp3800
S'ANGELA'
p3801
a(lp3802
S'You'
p3803
aS'will'
p3804
aaa(lp3805
S'DORIS'
p3806
a(lp3807
S'Yeah'
p3808
aaa(lp3809
g3806
a(lp3810
S'Its'
p3811
aS'on'
p3812
ag65
aS'business'
p3813
aS'basis'
p3814
aS'right'
p3815
aS'now'
p3816
aaa(lp3817
S'ANGELA'
p3818
a(lp3819
S'Well'
p3820
aaa(lp3821
S'DORIS'
p3822
a(lp3823
S'We'
p3824
aS'just'
p3825
aS'formed'
p3826
ag65
aS'corporation'
p3827
aaa(lp3828
S'ANGELA'
p3829
a(lp3830
S'Ill'
p3831
aaa(lp3832
g3829
a(lp3833
S'Ill'
p3834
aS'draw'
p3835
aS'up'
p3836
aS'the'
p3837
aS'papers'
p3838
aaa(lp3839
S'DORIS'
p3840
a(lp3841
S'You'
p3842
aS'do'
p3843
aS'that'
p3844
aaa(lp3845
S'SAM'
p3846
a(lp3847
aa(lp3848
S'ANGELA'
p3849
a(lp3850
aa(lp3851
S'DORIS'
p3852
a(lp3853
S'You'
p3854
aS'do'
p3855
aS'that'
p3856
aaa(lp3857
g3852
a(lp3858
S'Well'
p3859
aS'have'
p3860
aS'them'
p3861
aS'witnessed'
p3862
aaa(lp3863
g3852
a(lp3864
S'and'
p3865
aaa(lp3866
S'ANGELA'
p3867
a(lp3868
aa(lp3869
S'DORIS'
p3870
a(lp3871
g2348
ag2348
aS'were'
p3872
aS'in'
p3873
aS'business'
p3874
aaa(lp3875
S'ANGELA'
p3876
a(lp3877
S'Should'
p3878
aS'we'
p3879
aS'have'
p3880
aS'an'
p3881
aS'attorney'
p3882
aS'to'
p3883
aS'advise'
p3884
aS'us'
p3885
aaa(lp3886
S'DORIS'
p3887
a(lp3888
S'Oh'
p3889
aaa(lp3890
g3887
a(lp3891
g130
aS'think'
p3892
ag130
aS'can'
p3893
aS'do'
p3894
aS'that'
p3895
aaa(lp3896
S'ANGELA'
p3897
a(lp3898
aa(lp3899
S'DORIS'
p3900
a(lp3901
aa(lp3902
S'ANGELA'
p3903
a(lp3904
aa(lp3905
g3903
a(lp3906
S'Oh'
p3907
aaa(lp3908
S'DORIS'
p3909
a(lp3910
aa(lp3911
S'ANGELA'
p3912
a(lp3913
S'What'
p3914
aS'else'
p3915
aS'were'
p3916
aS'you'
p3917
aS'cooking'
p3918
aS'in'
p3919
aS'there'
p3920
aaa(lp3921
S'SAM'
p3922
a(lp3923
S'Just'
p3924
aS'the'
p3925
aS'bread'
p3926
aS'pudding'
p3927
aaa(lp3928
g3922
a(lp3929
g130
aS'made'
p3930
aS'uh'
p3931
aaa(lp3932
g3922
a(lp3933
S'bean'
p3934
aS'salad'
p3935
aS'for'
p3936
aS'us'
p3937
aS'for'
p3938
aS'lunch'
p3939
aaa(lp3940
S'ANGELA'
p3941
a(lp3942
S'Oh'
p3943
aS'you'
p3944
aS'did'
p3945
aaa(lp3946
S'SAM'
p3947
a(lp3948
S'You'
p3949
aS'like'
p3950
aS'beans'
p3951
aaa(lp3952
S'ANGELA'
p3953
a(lp3954
S'Ah'
p3955
aS'yes'
p3956
aaa(lp3957
g3953
a(lp3958
S'Onions'
p3959
aS'in'
p3960
aS'it'
p3961
aaa(lp3962
S'SAM'
p3963
a(lp3964
S'Oh'
p3965
aS'yes'
p3966
aaa(lp3967
g3963
a(lp3968
S'and'
p3969
aS'pickles'
p3970
aaa(lp3971
S'ANGELA'
p3972
a(lp3973
S'Le'
p3974
aaa(lp3975
g3972
a(lp3976
S'And'
p3977
aS'egg'
p3978
aaa(lp3979
S'DORIS'
p3980
a(lp3981
S'And'
p3982
aS'eggs'
p3983
aaa(lp3984
S'ANGELA'
p3985
a(lp3986
S'listen'
p3987
aaa(lp3988
g3985
a(lp3989
S'Ive'
p3990
aS'found'
p3991
aS'out'
p3992
aaa(lp3993
g3985
a(lp3994
S'that'
p3995
ag130
aS'can'
p3996
aS'enhance'
p3997
aaa(lp3998
g3985
a(lp3999
S'various'
p4000
aS'dishes'
p4001
aS'that'
p4002
ag130
aS'cook'
p4003
aaa(lp4004
g3985
a(lp4005
S'if'
p4006
ag130
aS'use'
p4007
aS'my'
p4008
aS'onion'
p4009
aS'powder'
p4010
aS'and'
p4011
aS'garlic'
p4012
aS'powder'
p4013
aaa(lp4014
g3985
a(lp4015
S'Not'
p4016
aS'the'
p4017
aS'onion'
p4018
aS'salt'
p4019
aaa(lp4020
g3985
a(lp4021
S'but'
p4022
aS'the'
p4023
aaa(lp4024
g3985
a(lp4025
S'the'
p4026
aS'onion'
p4027
aS'powder'
p4028
aaa(lp4029
S'DORIS'
p4030
a(lp4031
S'P'
p4032
aS'Onion'
p4033
aS'powder'
p4034
ag4032
aaa(lp4035
S'ANGELA'
p4036
a(lp4037
S'And'
p4038
aS'you'
p4039
aS'shake'
p4040
aS'it'
p4041
aS'on'
p4042
aaa(lp4043
S'SAM'
p4044
a(lp4045
S'Yeah'
p4046
aaa(lp4047
S'ANGELA'
p4048
a(lp4049
S'And'
p4050
aS'Ive'
p4051
aaa(lp4052
g4048
a(lp4053
S'Other'
p4054
aS'day'
p4055
aaa(lp4056
g4048
a(lp4057
S'somebody'
p4058
aS'was'
p4059
aS'eating'
p4060
aS'lunch'
p4061
aS'at'
p4062
aS'my'
p4063
aS'house'
p4064
aaa(lp4065
S'SAM'
p4066
a(lp4067
aa(lp4068
S'ANGELA'
p4069
a(lp4070
S'and'
p4071
ag130
aS'put'
p4072
aS'some'
p4073
aS'onion'
p4074
aS'powder'
p4075
aS'in'
p4076
aS'the'
p4077
aS'mayonnaise'
p4078
aaa(lp4079
g4069
a(lp4080
S'and'
p4081
aS'put'
p4082
aS'it'
p4083
aS'on'
p4084
aS'some'
p4085
aS'boiled'
p4086
aS'eggs'
p4087
aaa(lp4088
g4069
a(lp4089
S'Opened'
p4090
aS'em'
p4091
aS'up'
p4092
aaa(lp4093
g4069
a(lp4094
S'and'
p4095
ag130
aS'didnt'
p4096
aS'stuff'
p4097
aS'the'
p4098
aS'eggs'
p4099
aaa(lp4100
g4069
a(lp4101
S'mayonnaise'
p4102
aS'on'
p4103
aS'top'
p4104
aaa(lp4105
g4069
a(lp4106
S'And'
p4107
aS'they'
p4108
aS'said'
p4109
aaa(lp4110
g4069
a(lp4111
g458
aS'oh'
p4112
aS'thats'
p4113
aS'good'
p4114
aaa(lp4115
g4069
a(lp4116
S'How'
p4117
aS'did'
p4118
aS'you'
p4119
aS'do'
p4120
aS'that'
p4121
ag458
aaa(lp4122
S'DORIS'
p4123
a(lp4124
S'Yeah'
p4125
aaa(lp4126
S'SAM'
p4127
a(lp4128
S'Hunh'
p4129
aaa(lp4130
S'ANGELA'
p4131
a(lp4132
S'So'
p4133
aS'remember'
p4134
aaa(lp4135
S'SAM'
p4136
a(lp4137
g130
aS'dont'
p4138
aS'have'
p4139
aS'any'
p4140
aS'onion'
p4141
aS'powder'
p4142
aaa(lp4143
S'ANGELA'
p4144
a(lp4145
S'And'
p4146
aS'its'
p4147
aS'not'
p4148
aS'very'
p4149
aS'expensive'
p4150
aS'either'
p4151
aaa(lp4152
S'SAM'
p4153
a(lp4154
g130
aS'have'
p4155
aS'garlic'
p4156
aS'powder'
p4157
aaa(lp4158
S'ANGELA'
p4159
a(lp4160
S'You'
p4161
aS'can'
p4162
aS'find'
p4163
aS'it'
p4164
aS'in'
p4165
aS'Wallgreens'
p4166
aaa(lp4167
g4159
a(lp4168
S'in'
p4169
aS'great'
p4170
aS'big'
p4171
aS'bunches'
p4172
aS'of'
p4173
aS'stuff'
p4174
aaa(lp4175
g4159
a(lp4176
g731
aS'There'
p4177
aS'about'
p4178
aaa(lp4179
g4159
a(lp4180
S'Yeah'
p4181
ag130
ag731
aaa(lp4182
S'DORIS'
p4183
a(lp4184
S'Well'
p4185
aaa(lp4186
g4183
a(lp4187
g130
aS'got'
p4188
aS'the'
p4189
aS'word'
p4190
aS'the'
p4191
aS'other'
p4192
aS'day'
p4193
aaa(lp4194
g4183
a(lp4195
S'that'
p4196
ag130
aS'gotta'
p4197
aS'cut'
p4198
aS'salt'
p4199
aaa(lp4200
g4183
a(lp4201
S'Oh'
p4202
aS'youve'
p4203
aS'been'
p4204
aS'telling'
p4205
aS'me'
p4206
aS'that'
p4207
aS'all'
p4208
aS'along'
p4209
aaa(lp4210
g4183
a(lp4211
S'and'
p4212
aS'Ive'
p4213
aS'been'
p4214
aS'trying'
p4215
aS'to'
p4216
aS'do'
p4217
aS'it'
p4218
aaa(lp4219
g4183
a(lp4220
g130
ag80
aS'thought'
p4221
aS'Id'
p4222
ag80
ag80
aS'was'
p4223
aS'doing'
p4224
aS'pretty'
p4225
aS'well'
p4226
aaa(lp4227
g4183
a(lp4228
S'But'
p4229
aS'he'
p4230
aaa(lp4231
g4183
a(lp4232
g130
aS'dont'
p4233
aS'think'
p4234
aS'the'
p4235
aS'man'
p4236
aS'knows'
p4237
aS'uh'
p4238
aS'what'
p4239
aS'hes'
p4240
aS'about'
p4241
aaa(lp4242
g4183
a(lp4243
g731
ag130
aS'mean'
p4244
aS'you'
p4245
aS'know'
p4246
ag731
aaa(lp4247
S'ANGELA'
p4248
a(lp4249
g759
aS'arent'
p4250
aS'you'
p4251
aS'going'
p4252
aS'to'
p4253
aS'see'
p4254
aS'him'
p4255
aS'soon'
p4256
aaa(lp4257
g4248
a(lp4258
S'Again'
p4259
aaa(lp4260
S'DORIS'
p4261
a(lp4262
g130
aS'just'
p4263
aS'saw'
p4264
aS'him'
p4265
aaa(lp4266
S'SAM'
p4267
a(lp4268
S'She'
p4269
aS'saw'
p4270
aS'him'
p4271
aS'Monday'
p4272
aaa(lp4273
g4267
a(lp4274
S'and'
p4275
aaa(lp4276
g4267
a(lp4277
S'and'
p4278
aS'then'
p4279
aS'in'
p4280
aS'two'
p4281
aS'months'
p4282
aaa(lp4283
S'DORIS'
p4284
a(lp4285
aa(lp4286
g4284
a(lp4287
g130
aS'had'
p4288
ag65
ag65
aaa(lp4289
g4284
a(lp4290
S'an'
p4291
aS'Xray'
p4292
aaa(lp4293
g4284
a(lp4294
S'what'
p4295
aaa(lp4296
S'SAM'
p4297
a(lp4298
S'Xray'
p4299
aaa(lp4300
S'DORIS'
p4301
a(lp4302
S'Heart'
p4303
aaa(lp4304
S'SAM'
p4305
a(lp4306
S'an'
p4307
aS'EKG'
p4308
aaa(lp4309
g4305
a(lp4310
S'and'
p4311
aS'bloodwork'
p4312
aaa(lp4313
S'ANGELA'
p4314
a(lp4315
S'Really'
p4316
aaa(lp4317
S'DORIS'
p4318
a(lp4319
aa(lp4320
S'ANGELA'
p4321
a(lp4322
g731
aS'Well'
p4323
aS'is'
p4324
aS'the'
p4325
aS'do'
p4326
ag731
aaa(lp4327
S'SAM'
p4328
a(lp4329
S'They'
p4330
aS'havent'
p4331
aS'called'
p4332
aS'you'
p4333
aS'on'
p4334
aS'the'
p4335
aS'blood'
p4336
aaa(lp4337
S'DORIS'
p4338
a(lp4339
S'No'
p4340
aaa(lp4341
S'SAM'
p4342
a(lp4343
S'We'
p4344
aS'should'
p4345
aS'get'
p4346
ag65
aaa(lp4347
g4342
a(lp4348
g65
aS'paper'
p4349
aS'today'
p4350
aaa(lp4351
g4342
a(lp4352
S'They'
p4353
aS'were'
p4354
aS'gonna'
p4355
aS'send'
p4356
ag65
aS'copy'
p4357
aaa(lp4358
S'DORIS'
p4359
a(lp4360
S'Uh'
p4361
aaa(lp4362
g4359
a(lp4363
S'that'
p4364
aaa(lp4365
g4359
a(lp4366
S'Excuse'
p4367
aS'me'
p4368
aaa(lp4369
g4359
a(lp4370
S'Ive'
p4371
aS'got'
p4372
aS'the'
p4373
aS'hiccups'
p4374
aaa(lp4375
g4359
a(lp4376
S'He'
p4377
aS'said'
p4378
aS'uh'
p4379
aaa(lp4380
g4359
a(lp4381
S'take'
p4382
aS'the'
p4383
aS'uh'
p4384
aaa(lp4385
S'SAM'
p4386
a(lp4387
aa(lp4388
S'DORIS'
p4389
a(lp4390
S'what'
p4391
aS'do'
p4392
aS'you'
p4393
aS'call'
p4394
aS'it'
p4395
aaa(lp4396
g4389
a(lp4397
S'The'
p4398
aS'water'
p4399
aS'pill'
p4400
aaa(lp4401
g4389
a(lp4402
S'Diarrhetic'
p4403
aaa(lp4404
g4389
a(lp4405
S'Take'
p4406
aS'one'
p4407
aS'of'
p4408
aS'the'
p4409
aS'capsules'
p4410
aaa(lp4411
g4389
a(lp4412
S'and'
p4413
aS'two'
p4414
aS'of'
p4415
aS'the'
p4416
aS'white'
p4417
aaa(lp4418
g4389
a(lp4419
S'Las'
p4420
aS'Lazex'
p4421
aaa(lp4422
g4389
a(lp4423
S'Or'
p4424
aS'something'
p4425
aS'like'
p4426
aaa(lp4427
S'SAM'
p4428
a(lp4429
S'Lazix'
p4430
aaa(lp4431
S'DORIS'
p4432
a(lp4433
S'Hunh'
p4434
aaa(lp4435
S'SAM'
p4436
a(lp4437
S'Lazix'
p4438
aaa(lp4439
S'DORIS'
p4440
a(lp4441
S'Lazix'
p4442
aaa(lp4443
g4440
a(lp4444
g731
aS'but'
p4445
aS'Ill'
p4446
aS'be'
p4447
ag731
aS'taking'
p4448
aS'the'
p4449
aS'generic'
p4450
aS'drug'
p4451
aaa(lp4452
g4440
a(lp4453
S'Of'
p4454
aS'it'
p4455
aaa(lp4456
g4440
a(lp4457
S'In'
p4458
aS'the'
p4459
aS'morning'
p4460
aaa(lp4461
g4440
a(lp4462
S'Then'
p4463
aS'in'
p4464
aS'the'
p4465
aS'afternoon'
p4466
aaa(lp4467
g4440
a(lp4468
S'take'
p4469
aS'the'
p4470
aS'capsule'
p4471
aS'and'
p4472
aS'one'
p4473
aS'one'
p4474
aS'Lazik'
p4475
aaa(lp4476
S'ANGELA'
p4477
a(lp4478
S'Mhm'
p4479
aaa(lp4480
S'DORIS'
p4481
a(lp4482
aa(lp4483
S'SAM'
p4484
a(lp4485
S'She'
p4486
aS'did'
p4487
aS'that'
p4488
aS'yesterday'
p4489
aaa(lp4490
S'DORIS'
p4491
a(lp4492
g130
aS'cant'
p4493
aS'do'
p4494
aS'it'
p4495
aaa(lp4496
g4491
a(lp4497
S'My'
p4498
aS'stomach'
p4499
aS'gives'
p4500
aS'me'
p4501
aS'trouble'
p4502
aaa(lp4503
g4491
a(lp4504
g130
aS'cramp'
p4505
aaa(lp4506
S'ANGELA'
p4507
a(lp4508
S'Well'
p4509
aS'what'
p4510
aaa(lp4511
S'DORIS'
p4512
a(lp4513
g731
aaa(lp4514
S'ANGELA'
p4515
a(lp4516
S'Are'
p4517
aS'are'
p4518
aS'you'
p4519
aS'eating'
p4520
aS'Tums'
p4521
aaa(lp4522
g4515
a(lp4523
S'for'
p4524
aS'calcium'
p4525
aaa(lp4526
S'DORIS'
p4527
a(lp4528
S'No'
p4529
aaa(lp4530
g4527
a(lp4531
S'Im'
p4532
aS'not'
p4533
aS'eating'
p4534
aS'Tums'
p4535
aaa(lp4536
S'ANGELA'
p4537
a(lp4538
aa(lp4539
S'DORIS'
p4540
a(lp4541
g130
aS'have'
p4542
aaa(lp4543
g4540
a(lp4544
S'Oh'
p4545
ag130
aS'did'
p4546
aS'take'
p4547
aaa(lp4548
g4540
a(lp4549
g130
aS'did'
p4550
ag1691
aaa(lp4551
g4540
a(lp4552
S'call'
p4553
aS'out'
p4554
aS'last'
p4555
aS'night'
p4556
aaa(lp4557
g4540
a(lp4558
S'and'
p4559
aS'say'
p4560
ag771
aaa(lp4561
g4540
a(lp4562
S'make'
p4563
ag65
aS'note'
p4564
aS'for'
p4565
aS'potassium'
p4566
aS'though'
p4567
aaa(lp4568
S'ANGELA'
p4569
a(lp4570
S'has'
p4571
ag65
aS'compartment'
p4572
aS'in'
p4573
aS'it'
p4574
aS'for'
p4575
aS'each'
p4576
aS'day'
p4577
aaa(lp4578
S'SAM'
p4579
a(lp4580
S'No'
p4581
aaa(lp4582
S'DORIS'
p4583
a(lp4584
S'No'
p4585
aaa(lp4586
g4583
a(lp4587
S'Heaven'
p4588
aS'sakes'
p4589
aaa(lp4590
g4583
a(lp4591
S'Im'
p4592
aS'not'
p4593
ag65
aS'very'
p4594
aS'good'
p4595
aS'pill'
p4596
aS'taker'
p4597
aaa(lp4598
g4583
a(lp4599
S'Im'
p4600
aS're'
p4601
aaa(lp4602
g4583
a(lp4603
g130
aS'think'
p4604
aS'Im'
p4605
aS'resenting'
p4606
aaa(lp4607
S'ANGELA'
p4608
a(lp4609
S'Im'
p4610
aS'not'
p4611
aS'either'
p4612
aaa(lp4613
g4608
a(lp4614
S'but'
p4615
ag130
aS'have'
p4616
aaa(lp4617
S'DORIS'
p4618
a(lp4619
S'Im'
p4620
aS'resenting'
p4621
aS'this'
p4622
aS'medicine'
p4623
aaa(lp4624
S'SAM'
p4625
a(lp4626
aa(lp4627
S'DORIS'
p4628
a(lp4629
S'And'
p4630
ag130
aS'think'
p4631
aS'its'
p4632
aS'contributing'
p4633
aS'to'
p4634
aS'my'
p4635
aS'problems'
p4636
aaa(lp4637
g4628
a(lp4638
g130
aS'really'
p4639
aS'do'
p4640
aaa(lp4641
g4628
a(lp4642
g130
aS'think'
p4643
aS'that'
p4644
aS'the'
p4645
aS'cardazam'
p4646
aS'is'
p4647
aaa(lp4648
g4628
a(lp4649
g130
aS'think'
p4650
aS'that'
p4651
aS'the'
p4652
ag1722
aS'diarrhetic'
p4653
aS'is'
p4654
aaa(lp4655
S'SAM'
p4656
a(lp4657
S'Well'
p4658
aS'now'
p4659
aS'your'
p4660
aaa(lp4661
g4656
a(lp4662
S'your'
p4663
aS'ankles'
p4664
aS'were'
p4665
aS'down'
p4666
aS'this'
p4667
aS'morning'
p4668
aS'and'
p4669
aS'your'
p4670
aS'legs'
p4671
aaa(lp4672
S'DORIS'
p4673
a(lp4674
S'Well'
p4675
aS'yes'
p4676
aaa(lp4677
g4673
a(lp4678
S'They'
p4679
aS'are'
p4680
aaa(lp4681
g4673
a(lp4682
S'They'
p4683
aS'were'
p4684
aaa(lp4685
g4673
a(lp4686
S'Now'
p4687
aS'look'
p4688
aS'at'
p4689
aS'em'
p4690
aaa(lp4691
S'SAM'
p4692
a(lp4693
S'Now'
p4694
aS'theyre'
p4695
ag1691
aS'tight'
p4696
aS'again'
p4697
aaa(lp4698
S'ANGELA'
p4699
a(lp4700
S'Oh'
p4701
aaa(lp4702
g4699
a(lp4703
S'did'
p4704
ag130
aS'tell'
p4705
aS'you'
p4706
aaa(lp4707
S'DORIS'
p4708
a(lp4709
S'No'
p4710
aaa(lp4711
g4708
a(lp4712
S'What'
p4713
aaa(lp4714
S'ANGELA'
p4715
a(lp4716
S'that'
p4717
aaa(lp4718
S'DORIS'
p4719
a(lp4720
aa(lp4721
S'ANGELA'
p4722
a(lp4723
S'that'
p4724
aS'the'
p4725
aS'spring'
p4726
aS'broke'
p4727
aS'in'
p4728
aS'my'
p4729
aS'recliner'
p4730
aaa(lp4731
S'DORIS'
p4732
a(lp4733
aa(lp4734
g4732
a(lp4735
S'Oh'
p4736
aS'yes'
p4737
aaa(lp4738
S'SAM'
p4739
a(lp4740
S'Oh'
p4741
aS'yes'
p4742
aaa(lp4743
S'DORIS'
p4744
a(lp4745
S'Youve'
p4746
aS'told'
p4747
aS'us'
p4748
aS'that'
p4749
aaa(lp4750
g4744
a(lp4751
S'And'
p4752
aS'Dorsens'
p4753
aS'fixed'
p4754
aS'it'
p4755
aaa(lp4756
S'SAM'
p4757
a(lp4758
S'You'
p4759
aS'got'
p4760
aS'it'
p4761
aS'fixed'
p4762
aS'up'
p4763
aaa(lp4764
S'ANGELA'
p4765
a(lp4766
S'And'
p4767
aaa(lp4768
g4765
a(lp4769
S'and'
p4770
aS'two'
p4771
aS'men'
p4772
aS'came'
p4773
aS'in'
p4774
aaa(lp4775
g4765
a(lp4776
S'and'
p4777
aS'wrestled'
p4778
aS'it'
p4779
aS'all'
p4780
aS'over'
p4781
aS'the'
p4782
aS'floor'
p4783
aaa(lp4784
S'DORIS'
p4785
a(lp4786
aa(lp4787
S'ANGELA'
p4788
a(lp4789
S'And'
p4790
aS'they'
p4791
aS'found'
p4792
aS'out'
p4793
aaa(lp4794
g4788
a(lp4795
S'that'
p4796
aaa(lp4797
g4788
a(lp4798
S'it'
p4799
aS'was'
p4800
aS'easier'
p4801
aaa(lp4802
g4788
a(lp4803
S'they'
p4804
aS'went'
p4805
aS'back'
p4806
aS'out'
p4807
aS'the'
p4808
aS'truck'
p4809
aaa(lp4810
g4788
a(lp4811
S'and'
p4812
aS'got'
p4813
ag65
ag2319
aaa(lp4814
g4788
a(lp4815
g65
aS'whole'
p4816
aS'assembly'
p4817
aaa(lp4818
g4788
a(lp4819
S'for'
p4820
aS'one'
p4821
aS'side'
p4822
aaa(lp4823
g4788
a(lp4824
S'The'
p4825
aS'the'
p4826
aS'the'
p4827
aaa(lp4828
S'DORIS'
p4829
a(lp4830
S'Mhm'
p4831
aaa(lp4832
S'ANGELA'
p4833
a(lp4834
S'You'
p4835
aS'know'
p4836
aaa(lp4837
g4833
a(lp4838
S'Makes'
p4839
aS'the'
p4840
aS'XX'
p4841
aaa(lp4842
S'SAM'
p4843
a(lp4844
S'Was'
p4845
aS'this'
p4846
aS'on'
p4847
aS'the'
p4848
aS'seat'
p4849
aS'or'
p4850
aS'the'
p4851
aS'back'
p4852
aaa(lp4853
S'ANGELA'
p4854
a(lp4855
S'makes'
p4856
aS'the'
p4857
aS'feet'
p4858
aS'go'
p4859
aS'out'
p4860
aaa(lp4861
g4854
a(lp4862
S'The'
p4863
aS'the'
p4864
aS'the'
p4865
aS'f'
p4866
aaa(lp4867
g4854
a(lp4868
S'the'
p4869
aS'footrest'
p4870
aS'goes'
p4871
aS'out'
p4872
aaa(lp4873
g4854
a(lp4874
S'You'
p4875
aS'know'
p4876
aS'theres'
p4877
ag65
aaa(lp4878
g4854
a(lp4879
g65
ag65
aS'mechanism'
p4880
aS'there'
p4881
aaa(lp4882
S'SAM'
p4883
a(lp4884
S'Yeah'
p4885
aaa(lp4886
S'ANGELA'
p4887
a(lp4888
S'So'
p4889
aS'they'
p4890
aS'put'
p4891
ag65
aS'whole'
p4892
aS'new'
p4893
aS'mechanism'
p4894
aS'in'
p4895
aS'on'
p4896
aS'side'
p4897
aaa(lp4898
S'DORIS'
p4899
a(lp4900
S'Hm'
p4901
aaa(lp4902
S'ANGELA'
p4903
a(lp4904
S'And'
p4905
ag130
aS'wasnt'
p4906
aS'prepared'
p4907
aS'for'
p4908
aS'them'
p4909
aS'to'
p4910
aaa(lp4911
S'DORIS'
p4912
a(lp4913
aa(lp4914
S'ANGELA'
p4915
a(lp4916
g130
aS'was'
p4917
aS'going'
p4918
aS'to'
p4919
aS'tip'
p4920
aS'them'
p4921
aaa(lp4922
g4915
a(lp4923
S'but'
p4924
ag130
aS'wasnt'
p4925
aS'prepared'
p4926
aaa(lp4927
g4915
a(lp4928
S'To'
p4929
ag80
aS'buy'
p4930
aS'the'
p4931
aS'chair'
p4932
aaa(lp4933
g4915
a(lp4934
S'Over'
p4935
aS'again'
p4936
aaa(lp4937
S'DORIS'
p4938
a(lp4939
aa(lp4940
S'ANGELA'
p4941
a(lp4942
aa(lp4943
S'DORIS'
p4944
a(lp4945
S'No'
p4946
aaa(lp4947
S'ANGELA'
p4948
a(lp4949
g130
aS'gave'
p4950
aS'em'
p4951
aS'ten'
p4952
aS'dollars'
p4953
aaa(lp4954
g4948
a(lp4955
S'but'
p4956
aS'thats'
p4957
aS'all'
p4958
ag130
aS'had'
p4959
aaa(lp4960
S'DORIS'
p4961
a(lp4962
S'Well'
p4963
aS'that'
p4964
aS'was'
p4965
aS'enough'
p4966
aaa(lp4967
S'ANGELA'
p4968
a(lp4969
g130
aS'guess'
p4970
aS'that'
p4971
aS'was'
p4972
aS'enough'
p4973
aaa(lp4974
S'DORIS'
p4975
a(lp4976
g130
aS'XX'
p4977
aaa(lp4978
S'ANGELA'
p4979
a(lp4980
S'Theyre'
p4981
aS'on'
p4982
aS'salary'
p4983
aS'with'
p4984
aS'the'
p4985
ag2526
aaa(lp4986
g4979
a(lp4987
S'with'
p4988
aS'the'
p4989
aS'company'
p4990
aS'anyway'
p4991
aaa(lp4992
S'DORIS'
p4993
a(lp4994
S'Yeah'
p4995
aaa(lp4996
g4993
a(lp4997
S'Sure'
p4998
aaa(lp4999
S'ANGELA'
p5000
a(lp5001
S'But'
p5002
aS'they'
p5003
aS'were'
p5004
aS'so'
p5005
aS'jovial'
p5006
aaa(lp5007
g5000
a(lp5008
S'and'
p5009
aaa(lp5010
S'DORIS'
p5011
a(lp5012
S'Yeah'
p5013
aaa(lp5014
S'SAM'
p5015
a(lp5016
S'Was'
p5017
aS'that'
p5018
aS'spring'
p5019
aS'from'
p5020
aS'your'
p5021
aS'seat'
p5022
aS'or'
p5023
aS'the'
p5024
aS'back'
p5025
aS'of'
p5026
aS'th'
p5027
aS'your'
p5028
aS'chair'
p5029
aaa(lp5030
S'ANGELA'
p5031
a(lp5032
S'nice'
p5033
aaa(lp5034
g5031
a(lp5035
S'Now'
p5036
aaa(lp5037
g5031
a(lp5038
S'it'
p5039
aS'was'
p5040
ag65
aaa(lp5041
g5031
a(lp5042
g65
aS'tight'
p5043
aS'little'
p5044
aS'spring'
p5045
aaa(lp5046
g5031
a(lp5047
S'that'
p5048
aS'um'
p5049
aaa(lp5050
S'DORIS'
p5051
a(lp5052
aa(lp5053
S'ANGELA'
p5054
a(lp5055
S'governed'
p5056
aS'the'
p5057
aS'mechanism'
p5058
aaa(lp5059
g5054
a(lp5060
S'And'
p5061
aS'held'
p5062
aS'the'
p5063
aS'chair'
p5064
aS'together'
p5065
aaa(lp5066
g5054
a(lp5067
S'when'
p5068
aS'you'
p5069
aS'put'
p5070
aS'out'
p5071
aaa(lp5072
S'SAM'
p5073
a(lp5074
S'Oh'
p5075
aaa(lp5076
g5073
a(lp5077
S'the'
p5078
aS'footrest'
p5079
aaa(lp5080
S'ANGELA'
p5081
a(lp5082
S'the'
p5083
aS'footrest'
p5084
aaa(lp5085
g5081
a(lp5086
S'And'
p5087
ag130
aS'told'
p5088
aaa(lp5089
g5081
a(lp5090
S'Well'
p5091
ag130
aS'think'
p5092
ag130
aS'told'
p5093
aS'you'
p5094
aS'this'
p5095
aaa(lp5096
g5081
a(lp5097
g130
aS'phoned'
p5098
aS'her'
p5099
aS'and'
p5100
aS'said'
p5101
aaa(lp5102
g5081
a(lp5103
g130
aS'dont'
p5104
aS'know'
p5105
aS'whether'
p5106
ag130
aS'can'
p5107
aS'sit'
p5108
aS'in'
p5109
aS'the'
p5110
aS'chair'
p5111
aS'at'
p5112
aS'all'
p5113
aS'or'
p5114
aS'not'
p5115
aaa(lp5116
g5081
a(lp5117
S'And'
p5118
ag130
aS'said'
p5119
aaa(lp5120
g5081
a(lp5121
S'and'
p5122
aS'besides'
p5123
aaa(lp5124
g5081
a(lp5125
S'when'
p5126
ag130
aS'go'
p5127
aS'by'
p5128
aS'it'
p5129
aaa(lp5130
g5081
a(lp5131
S'it'
p5132
aS'snarls'
p5133
aS'at'
p5134
aS'me'
p5135
aaa(lp5136
S'DORIS'
p5137
a(lp5138
aa(lp5139
S'ANGELA'
p5140
a(lp5141
S'And'
p5142
aaa(lp5143
g5140
a(lp5144
S'and'
p5145
aS'she'
p5146
aaa(lp5147
g5140
a(lp5148
S'sh'
p5149
aS'she'
p5150
aS'said'
p5151
aaa(lp5152
g5140
a(lp5153
S'well'
p5154
aS'its'
p5155
aS'alright'
p5156
aS'to'
p5157
aS'sit'
p5158
aS'on'
p5159
aS'it'
p5160
aaa(lp5161
g5140
a(lp5162
S'but'
p5163
aS'dont'
p5164
aS'put'
p5165
aS'the'
p5166
aS'footrest'
p5167
aS'out'
p5168
aaa(lp5169
g5140
a(lp5170
S'TEXT'
p5171
aS'ENDS'
p5172
aaa(lp5173
S'SAM'
p5174
a(lp5175
S'How'
p5176
aS'are'
p5177
aS'we'
p5178
aS'on'
p5179
aS'the'
p5180
aaa(lp5181
S'ANGELA'
p5182
a(lp5183
aa(lp5184
S'SAM'
p5185
a(lp5186
g130
aS'cant'
p5187
aS'tell'
p5188
aS'when'
p5189
aS'its'
p5190
aS'done'
p5191
aaa(lp5192
S'DORIS'
p5193
a(lp5194
S'Well'
p5195
aaa(lp5196
g5193
a(lp5197
S'itll'
p5198
aS'stop'
p5199
aaa(lp5200
S'SAM'
p5201
a(lp5202
S'It'
p5203
aS'looks'
p5204
aS'like'
p5205
aS'its'
p5206
aS'done'
p5207
aaa(lp5208
S'DORIS'
p5209
a(lp5210
S'Oh'
p5211
aS'honey'
p5212
aS'no'
p5213
aaa(lp5214
g5209
a(lp5215
S'It'
p5216
aS'goes'
p5217
aS'for'
p5218
aS'fortyfive'
p5219
aS'minutes'
p5220
aaa(lp5221
S'SAM'
p5222
a(lp5223
S'Well'
p5224
aS'the'
p5225
aaa(lp5226
g5222
a(lp5227
S'Yeah'
p5228
aaa(lp5229
g5222
a(lp5230
S'but'
p5231
aS'its'
p5232
aS'all'
p5233
aS'over'
p5234
aS'here'
p5235
aaa(lp5236
g5222
a(lp5237
S'Its'
p5238
aS'not'
p5239
aS'the'
p5240
aaa(lp5241
g5222
a(lp5242
S'See'
p5243
aaa(lp5244
g5222
a(lp5245
S'when'
p5246
aS'thats'
p5247
aS'empty'
p5248
aaa(lp5249
g5222
a(lp5250
S'thats'
p5251
aS'done'
p5252
aaa(lp5253
S'DORIS'
p5254
a(lp5255
S'Well'
p5256
aaa(lp5257
g5254
a(lp5258
S'maybe'
p5259
aS'weve'
p5260
aS'talked'
p5261
aS'for'
p5262
aS'fortyfive'
p5263
aS'minutes'
p5264
aaa(lp5265
S'SAM'
p5266
a(lp5267
g130
aS'dont'
p5268
aS'know'
p5269
aS'whether'
p5270
aS'its'
p5271
aS'to'
p5272
aS'go'
p5273
aS'off'
p5274
aaa(lp5275
g5266
a(lp5276
S'or'
p5277
aS'not'
p5278
aaa(lp5279
S'ANGELA'
p5280
a(lp5281
S'Does'
p5282
aS'it'
p5283
aS'automatically'
p5284
aS'go'
p5285
aS'off'
p5286
aS'at'
p5287
aS'the'
p5288
aS'end'
p5289
aS'of'
p5290
aaa(lp5291
S'DORIS'
p5292
a(lp5293
g130
aS'thought'
p5294
aS'it'
p5295
aS'did'
p5296
aaa(lp5297
S'ANGELA'
p5298
a(lp5299
S'Yeah'
p5300
aaa(lp5301
g5298
a(lp5302
S'well'
p5303
aS'thats'
p5304
aS'what'
p5305
aaa(lp5306
S'SAM'
p5307
a(lp5308
S'Well'
p5309
aaa(lp5310
g5307
a(lp5311
S'maybe'
p5312
aS'it'
p5313
aS'does'
p5314
aaa(lp5315
S'ANGELA'
p5316
a(lp5317
S'thats'
p5318
aS'what'
p5319
aS'it'
p5320
aS'is'
p5321
aaa(lp5322
S'SAM'
p5323
a(lp5324
S'Are'
p5325
aS'you'
p5326
aS'ready'
p5327
aS'for'
p5328
ag65
aS'little'
p5329
aS'lunch'
p5330
aaa(lp5331
S'ANGELA'
p5332
a(lp5333
S'Oh'
p5334
aaa(lp5335
S'DORIS'
p5336
a(lp5337
S'Why'
p5338
aS'sure'
p5339
aaa(lp5340
S'ANGELA'
p5341
a(lp5342
S'Are'
p5343
aS'you'
p5344
aS'ready'
p5345
aaa(lp5346
S'SAM'
p5347
a(lp5348
S'Y'
p5349
aaa(lp5350
g5347
a(lp5351
S'yes'
p5352
aaa(lp5353
g5347
a(lp5354
S'Im'
p5355
aS'hungry'
p5356
aaa(lp5357
S'ANGELA'
p5358
a(lp5359
S'Okay'
p5360
aaa(lp5361
S'SAM'
p5362
a(lp5363
aa(lp5364
S'ANGELA'
p5365
a(lp5366
S'Whatever'
p5367
aaa.