(lp0
(lp1
S'TAMMY'
p2
a(lp3
S'Well'
p4
aS'um'
p5
aaa(lp6
g2
a(lp7
S'I'
p8
aS'wanted'
p9
aS'to'
p10
aS'say'
p11
aS'Im'
p12
aS'really'
p13
aS'happy'
p14
aS'with'
p15
aS'the'
p16
aS'stuff'
p17
ag8
aS'got'
p18
aS'now'
p19
aaa(lp20
S'BRAD'
p21
a(lp22
S'Good'
p23
aaa(lp24
g21
a(lp25
S'Good'
p26
aaa(lp27
S'TAMMY'
p28
a(lp29
S'X'
p30
aS'And'
p31
aS'Im'
p32
ag30
aS'really'
p33
aS'basically'
p34
aS'Im'
p35
aS'back'
p36
aS'for'
p37
aS'a'
p38
aS'tape'
p39
aS'deck'
p40
aaa(lp41
S'BRAD'
p42
a(lp43
S'Oh'
p44
aS'okay'
p45
aaa(lp46
S'TAMMY'
p47
a(lp48
S'So'
p49
aS'um'
p50
aaa(lp51
g47
a(lp52
S'one'
p53
aS'of'
p54
aS'my'
p55
aS'thoughts'
p56
aS'is'
p57
aaa(lp58
g47
a(lp59
S'that'
p60
aS'um'
p61
aaa(lp62
g47
a(lp63
S'well'
p64
aaa(lp65
g47
a(lp66
g8
aS'want'
p67
ag38
aS'tape'
p68
aS'deck'
p69
aS'thats'
p70
aS'gonna'
p71
aS'sound'
p72
aS'about'
p73
aaa(lp74
g47
a(lp75
S'you'
p76
aS'know'
p77
aaa(lp78
g47
a(lp79
S'as'
p80
aS'good'
p81
aS'as'
p82
aS'it'
p83
aS'can'
p84
aaa(lp85
S'BRAD'
p86
a(lp87
S'Okay'
p88
aaa(lp89
S'TAMMY'
p90
a(lp91
S'and'
p92
ag8
aS'think'
p93
ag8
aS'want'
p94
ag38
aS'tape'
p95
aS'deck'
p96
aS'with'
p97
aS'two'
p98
aaa(lp99
g90
a(lp100
S'places'
p101
aS'for'
p102
aS'two'
p103
aS'tapes'
p104
aaa(lp105
g90
a(lp106
S'so'
p107
ag8
aS'can'
p108
aS'copy'
p109
aaa(lp110
S'BRAD'
p111
a(lp112
S'Okay'
p113
aaa(lp114
S'TAMMY'
p115
a(lp116
S'but'
p117
aS'Ive'
p118
aS'never'
p119
aS'done'
p120
aS'this'
p121
aS'before'
p122
aaa(lp123
g115
a(lp124
g8
ag30
aS'dont'
p125
ag30
aS'know'
p126
aS'much'
p127
aS'about'
p128
aS'tapes'
p129
aaa(lp130
g115
a(lp131
g8
aS'mean'
p132
ag8
aS'h'
p133
aaa(lp134
S'BRAD'
p135
a(lp136
S'Okay'
p137
aaa(lp138
S'TAMMY'
p139
a(lp140
g8
aS'have'
p141
ag38
aS'boombox'
p142
aaa(lp143
g139
a(lp144
S'you'
p145
aS'know'
p146
aS'ordinary'
p147
aS'sort'
p148
aS'of'
p149
aS'thing'
p150
aaa(lp151
S'BRAD'
p152
a(lp153
S'Sure'
p154
aaa(lp155
S'TAMMY'
p156
a(lp157
S'So'
p158
aaa(lp159
g156
a(lp160
g8
aS'wonder'
p161
aS'if'
p162
aS'you'
p163
aS'would'
p164
aS'suggest'
p165
aS'that'
p166
aS'this'
p167
aS'Luxman'
p168
aS'is'
p169
aS'the'
p170
aaa(lp171
g156
a(lp172
S'is'
p173
aS'w'
p174
aS'one'
p175
aS'of'
p176
aS'the'
p177
aS'things'
p178
aS'youd'
p179
aS'wanted'
p180
aS'me'
p181
aS'to'
p182
aS'think'
p183
aS'about'
p184
aaa(lp185
S'BRAD'
p186
a(lp187
aa(lp188
g186
a(lp189
S'Um'
p190
aaa(lp191
g186
a(lp192
S'the'
p193
aS'uh'
p194
aaa(lp195
g186
a(lp196
S'Would'
p197
aS'you'
p198
aaa(lp199
g186
a(lp200
S'you'
p201
aS'would'
p202
aS'want'
p203
aS'the'
p204
aaa(lp205
g186
a(lp206
S'the'
p207
aS'ability'
p208
aaa(lp209
g186
a(lp210
S'uh'
p211
aaa(lp212
g186
a(lp213
S'of'
p214
aS'the'
p215
aS'double'
p216
aS'cassette'
p217
aS'deck'
p218
aaa(lp219
g186
a(lp220
S'just'
p221
aS'purely'
p222
aS'for'
p223
aS'taping'
p224
aS'from'
p225
aS'one'
p226
aS'tape'
p227
aS'to'
p228
aS'the'
p229
aS'other'
p230
aaa(lp231
g186
a(lp232
S'Thats'
p233
aS'its'
p234
aS'main'
p235
aS'purpose'
p236
aaa(lp237
g186
a(lp238
S'In'
p239
aS'fact'
p240
ag8
aS'wouldnt'
p241
aS'know'
p242
aS'what'
p243
aS'other'
p244
aS'purpose'
p245
aS'it'
p246
aS'_would'
p247
aS'have'
p248
aaa(lp249
S'BRAD'
p250
a(lp251
S'Oh'
p252
aS'okay'
p253
aaa(lp254
g250
a(lp255
S'The'
p256
aS'other'
p257
aS'benefit'
p258
aS'is'
p259
aaa(lp260
g250
a(lp261
S'is'
p262
aS'if'
p263
aaa(lp264
g250
a(lp265
S'you'
p266
aS'can'
p267
aS'load'
p268
aS'up'
p269
aS'two'
p270
aS'tapes'
p271
aS'in'
p272
aS'it'
p273
aaa(lp274
g250
a(lp275
S'like'
p276
aaa(lp277
g250
a(lp278
S'lets'
p279
aS'say'
p280
aS'two'
p281
aS'ninety'
p282
aS'minute'
p283
aS'tapes'
p284
aS'of'
p285
aS'music'
p286
aaa(lp287
S'TAMMY'
p288
a(lp289
S'Unhunh'
p290
aaa(lp291
g288
a(lp292
g8
aS'see'
p293
aaa(lp294
S'BRAD'
p295
a(lp296
S'And'
p297
aS'you'
p298
aS'can'
p299
aS'set'
p300
ag38
aS'switch'
p301
aS'on'
p302
aS'it'
p303
aaa(lp304
S'TAMMY'
p305
a(lp306
g8
aS'see'
p307
aaa(lp308
S'BRAD'
p309
a(lp310
S'where'
p311
aS'it'
p312
aS'will'
p313
aS'continually'
p314
aS'play'
p315
aaa(lp316
S'TAMMY'
p317
a(lp318
S'Okay'
p319
aaa(lp320
g317
a(lp321
S'Okay'
p322
aaa(lp323
S'BRAD'
p324
a(lp325
S'all'
p326
aS'four'
p327
aS'sides'
p328
aaa(lp329
g324
a(lp330
S'of'
p331
aS'two'
p332
aS'tapes'
p333
aaa(lp334
S'TAMMY'
p335
a(lp336
g8
aS'see'
p337
aaa(lp338
g335
a(lp339
S'Thats'
p340
aS'probably'
p341
aS'not'
p342
aS'gonna'
p343
aS'happen'
p344
aaa(lp345
S'BRAD'
p346
a(lp347
S'Okay'
p348
aaa(lp349
S'TAMMY'
p350
a(lp351
S'No'
p352
aaa(lp353
g350
a(lp354
S'Its'
p355
aS'mainly'
p356
aS'for'
p357
aS'copying'
p358
aaa(lp359
S'BRAD'
p360
a(lp361
S'Okay'
p362
aaa(lp363
S'TAMMY'
p364
a(lp365
S'So'
p366
aaa(lp367
S'BRAD'
p368
a(lp369
S'And'
p370
aS'the'
p371
aS'tapes'
p372
aS'youd'
p373
aS'be'
p374
aS'copying'
p375
aaa(lp376
g368
a(lp377
S'uh'
p378
aaa(lp379
g368
a(lp380
S'are'
p381
aS'they'
p382
aS'gonna'
p383
aS'be'
p384
aS'straight'
p385
aS'music'
p386
aaa(lp387
S'TAMMY'
p388
a(lp389
S'Mmostly'
p390
aaa(lp391
S'BRAD'
p392
a(lp393
S'Okay'
p394
aaa(lp395
S'TAMMY'
p396
a(lp397
S'Yeah'
p398
aaa(lp399
S'BRAD'
p400
a(lp401
S'Okay'
p402
aaa(lp403
S'TAMMY'
p404
a(lp405
S'Yeah'
p406
aaa(lp407
S'BRAD'
p408
a(lp409
S'So'
p410
aS'you'
p411
aS'are'
p412
aS'gonna'
p413
aS'want'
p414
aaa(lp415
g408
a(lp416
S'or'
p417
aS'desire'
p418
ag38
aS'pretty'
p419
aS'decent'
p420
aaa(lp421
g408
a(lp422
S'uh'
p423
aaa(lp424
g408
a(lp425
S'copy'
p426
aS'of'
p427
aS'your'
p428
aS'original'
p429
aS'tape'
p430
aaa(lp431
S'TAMMY'
p432
a(lp433
S'Mhm'
p434
aaa(lp435
g432
a(lp436
S'right'
p437
aaa(lp438
S'BRAD'
p439
a(lp440
S'Okay'
p441
aaa(lp442
g439
a(lp443
S'Um'
p444
aaa(lp445
S'TAMMY'
p446
a(lp447
S'And'
p448
aS'the'
p449
aS'originals'
p450
aS'will'
p451
aS'be'
p452
aS'from'
p453
aS'music'
p454
aS'lovers'
p455
aaa(lp456
g446
a(lp457
S'you'
p458
aS'know'
p459
aaa(lp460
g446
a(lp461
S'who'
p462
aS'probably'
p463
aS'have'
p464
aaa(lp465
g446
a(lp466
S'pretty'
p467
aS'good'
p468
aS'systems'
p469
aaa(lp470
g446
a(lp471
S'Not'
p472
aaa(lp473
S'BRAD'
p474
a(lp475
S'Okay'
p476
aaa(lp477
S'TAMMY'
p478
a(lp479
S'Im'
p480
aaa(lp481
g478
a(lp482
S'were'
p483
aS'not'
p484
aS'talking'
p485
aS'stratosphere'
p486
aaa(lp487
S'BRAD'
p488
a(lp489
S'Sure'
p490
aaa(lp491
S'TAMMY'
p492
a(lp493
S'P'
p494
aS'But'
p495
ag494
aaa(lp496
S'BRAD'
p497
a(lp498
S'Sure'
p499
aaa(lp500
S'TAMMY'
p501
a(lp502
S'Anyway'
p503
aaa(lp504
S'BRAD'
p505
a(lp506
S'Okay'
p507
aaa(lp508
S'TAMMY'
p509
a(lp510
aa(lp511
S'BRAD'
p512
a(lp513
S'Um'
p514
aaa(lp515
g512
a(lp516
S'because'
p517
aS'on'
p518
ag38
aaa(lp519
g512
a(lp520
S'um'
p521
aaa(lp522
g512
a(lp523
g38
aS'tape'
p524
aS'deck'
p525
aS'like'
p526
aS'that'
p527
aaa(lp528
g512
a(lp529
S'you'
p530
aS'realize'
p531
aaa(lp532
g512
a(lp533
S'that'
p534
aS'youre'
p535
aS'not'
p536
aS'gonna'
p537
aS'be'
p538
aS'able'
p539
aS'to'
p540
aS'get'
p541
ag38
aS'copy'
p542
aS'thats'
p543
aaa(lp544
g512
a(lp545
S'you'
p546
aS'know'
p547
aaa(lp548
S'TAMMY'
p549
a(lp550
S'Mhm'
p551
aaa(lp552
S'BRAD'
p553
a(lp554
S'as'
p555
aS'perfect'
p556
aS'as'
p557
aaa(lp558
S'TAMMY'
p559
a(lp560
S'mhm'
p561
aaa(lp562
S'BRAD'
p563
a(lp564
S'the'
p565
aS'original'
p566
aS'source'
p567
aS'was'
p568
aaa(lp569
S'TAMMY'
p570
a(lp571
S'mhm'
p572
aaa(lp573
S'BRAD'
p574
a(lp575
S'or'
p576
aS'even'
p577
aS'as'
p578
aS'that'
p579
aS'tape'
p580
aS'was'
p581
aaa(lp582
S'TAMMY'
p583
a(lp584
S'mhm'
p585
aaa(lp586
S'BRAD'
p587
a(lp588
S'There'
p589
aS'is'
p590
aS'gonna'
p591
aS'be'
p592
aS'some'
p593
aS'loss'
p594
aaa(lp595
S'TAMMY'
p596
a(lp597
S'mhm'
p598
aaa(lp599
S'BRAD'
p600
a(lp601
S'in'
p602
aS'the'
p603
aS'generation'
p604
aS'of'
p605
aS'making'
p606
aS'that'
p607
aS'copy'
p608
aaa(lp609
S'TAMMY'
p610
a(lp611
S'mhm'
p612
aaa(lp613
S'BRAD'
p614
a(lp615
S'And'
p616
aaa(lp617
S'TAMMY'
p618
a(lp619
S'Is'
p620
aS'there'
p621
ag38
aS'way'
p622
aS'to'
p623
aS'avoid'
p624
aS'that'
p625
aS'loss'
p626
aaa(lp627
g618
a(lp628
g8
aS'mean'
p629
aS'how'
p630
aaa(lp631
S'BRAD'
p632
a(lp633
aa(lp634
S'TAMMY'
p635
a(lp636
g30
aaa(lp637
S'BRAD'
p638
a(lp639
S'Well'
p640
aaa(lp641
g638
a(lp642
S'youre'
p643
aS'youre'
p644
aS'gonna'
p645
aS'have'
p646
aS'that'
p647
aS'loss'
p648
aaa(lp649
g638
a(lp650
S'just'
p651
aS'because'
p652
aS'of'
p653
aS'all'
p654
aS'the'
p655
aS'different'
p656
aS'things'
p657
aS'involved'
p658
aaa(lp659
S'TAMMY'
p660
a(lp661
S'Right'
p662
aaa(lp663
S'BRAD'
p664
a(lp665
S'f'
p666
aS'from'
p667
aaa(lp668
g664
a(lp669
S'taking'
p670
aS'it'
p671
aS'from'
p672
aS'one'
p673
aS'tape'
p674
aaa(lp675
g664
a(lp676
S'and'
p677
aS'putting'
p678
aS'it'
p679
aS'on'
p680
aS'the'
p681
aS'other'
p682
aS'tape'
p683
aaa(lp684
S'TAMMY'
p685
a(lp686
S'Right'
p687
aaa(lp688
g685
a(lp689
S'Right'
p690
aaa(lp691
S'BRAD'
p692
a(lp693
S'Theres'
p694
ag38
aS'lot'
p695
aS'of'
p696
aS'things'
p697
aS'in'
p698
aS'the'
p699
aS'signal'
p700
aS'path'
p701
aS'there'
p702
aaa(lp703
S'TAMMY'
p704
a(lp705
S'Right'
p706
aaa(lp707
S'BRAD'
p708
a(lp709
aa(lp710
S'TAMMY'
p711
a(lp712
S'So'
p713
aS'youre'
p714
aS'youre'
p715
aS'bound'
p716
aS'to'
p717
aS'lose'
p718
aS'something'
p719
aaa(lp720
S'BRAD'
p721
a(lp722
S'Yeah'
p723
aaa(lp724
g721
a(lp725
S'Its'
p726
aS'not'
p727
aS'huge'
p728
aaa(lp729
S'TAMMY'
p730
a(lp731
S'No'
p732
aS'matter'
p733
aS'what'
p734
aaa(lp735
S'BRAD'
p736
a(lp737
S'you'
p738
aS'know'
p739
aaa(lp740
g736
a(lp741
S'it'
p742
aS'may'
p743
aS'be'
p744
aS'ten'
p745
aS'percent'
p746
aaa(lp747
S'TAMMY'
p748
a(lp749
S'Okay'
p750
aaa(lp751
S'BRAD'
p752
a(lp753
S'or'
p754
aaa(lp755
g752
a(lp756
S'five'
p757
aS'percent'
p758
aaa(lp759
S'TAMMY'
p760
a(lp761
S'Right'
p762
aaa(lp763
S'BRAD'
p764
a(lp765
S'or'
p766
aS'something'
p767
aS'like'
p768
aS'that'
p769
aaa(lp770
S'TAMMY'
p771
a(lp772
S'Right'
p773
aaa(lp774
g771
a(lp775
S'Right'
p776
aaa(lp777
S'BRAD'
p778
a(lp779
S'Uh'
p780
aS'which'
p781
aS'is'
p782
ag38
aS'small'
p783
aS'amount'
p784
aaa(lp785
g778
a(lp786
S'and'
p787
aaa(lp788
g778
a(lp789
S'the'
p790
aS'music'
p791
aaa(lp792
g778
a(lp793
S'bring'
p794
aS'across'
p795
aaa(lp796
S'TAMMY'
p797
a(lp798
S'Mhm'
p799
aaa(lp800
g797
a(lp801
S'mhm'
p802
aaa(lp803
g797
a(lp804
S'mhm'
p805
aaa(lp806
g797
a(lp807
S'okay'
p808
aaa(lp809
S'BRAD'
p810
a(lp811
S'So'
p812
aaa(lp813
S'TAMMY'
p814
a(lp815
S'Okay'
p816
aaa(lp817
S'BRAD'
p818
a(lp819
g8
aS'dont'
p820
aS'see'
p821
ag38
aS'problem'
p822
aS'in'
p823
aS'that'
p824
aaa(lp825
g818
a(lp826
S'Um'
p827
aaa(lp828
g818
a(lp829
S'the'
p830
aS'other'
p831
aS'thing'
p832
ag8
aS'realize'
p833
aS'is'
p834
aaa(lp835
g818
a(lp836
S'uh'
p837
aaa(lp838
g818
a(lp839
S'think'
p840
aS'about'
p841
aS'how'
p842
aS'much'
p843
aS'of'
p844
aS'the'
p845
aS'time'
p846
aS'youre'
p847
aS'gonna'
p848
aS'be'
p849
aS'doing'
p850
aS'that'
p851
aaa(lp852
S'TAMMY'
p853
a(lp854
S'Mhm'
p855
aaa(lp856
S'BRAD'
p857
a(lp858
S'Because'
p859
aS'of'
p860
aaa(lp861
g857
a(lp862
S'You'
p863
aS'are'
p864
aS'paying'
p865
ag38
aS'decent'
p866
aS'premium'
p867
aaa(lp868
g857
a(lp869
S'to'
p870
aS'have'
p871
aS'that'
p872
aS'convenience'
p873
aaa(lp874
S'TAMMY'
p875
a(lp876
S'mhm'
p877
aaa(lp878
g875
a(lp879
S'mhm'
p880
aaa(lp881
g875
a(lp882
S'mhm'
p883
aaa(lp884
g875
a(lp885
S'so'
p886
aS'what'
p887
aS'kind'
p888
aS'of'
p889
aS'price'
p890
aS'difference'
p891
aS'are'
p892
aS'we'
p893
aS'talking'
p894
aS'about'
p895
aaa(lp896
g875
a(lp897
S'Suppose'
p898
ag8
aS'just'
p899
aS'get'
p900
aS'one'
p901
aS'tape'
p902
aaa(lp903
S'BRAD'
p904
a(lp905
S'Oh'
p906
aaa(lp907
g904
a(lp908
S'okay'
p909
aaa(lp910
S'TAMMY'
p911
a(lp912
S'And'
p913
aS'let'
p914
aS'my'
p915
aS'friends'
p916
aS'copy'
p917
aS'tapes'
p918
aS'for'
p919
aS'me'
p920
aS'and'
p921
aaa(lp922
S'BRAD'
p923
a(lp924
S'Okay'
p925
aaa(lp926
S'TAMMY'
p927
a(lp928
S'yeah'
p929
aaa(lp930
S'BRAD'
p931
a(lp932
S'um'
p933
aaa(lp934
S'TAMMY'
p935
a(lp936
g30
aS'Right'
p937
ag30
aaa(lp938
S'BRAD'
p939
a(lp940
S'like'
p941
aS'lets'
p942
aS'say'
p943
aS'there'
p944
aS'would'
p945
aS'be'
p946
aS'about'
p947
aaa(lp948
S'TAMMY'
p949
a(lp950
aa(lp951
S'BRAD'
p952
a(lp953
S'um'
p954
aaa(lp955
g952
a(lp956
S'couple'
p957
aS'different'
p958
aS'steps'
p959
aaa(lp960
g952
a(lp961
S'Okay'
p962
aaa(lp963
S'TAMMY'
p964
a(lp965
S'Okay'
p966
aaa(lp967
S'BRAD'
p968
a(lp969
S'one'
p970
aS'would'
p971
aS'be'
p972
aaa(lp973
g968
a(lp974
g38
aS'single'
p975
aS'cassette'
p976
aS'deck'
p977
aaa(lp978
S'TAMMY'
p979
a(lp980
aa(lp981
S'BRAD'
p982
a(lp983
S'um'
p984
aaa(lp985
g982
a(lp986
S'that'
p987
aS'would'
p988
aaa(lp989
g982
a(lp990
S'uh'
p991
aaa(lp992
g982
a(lp993
S'play'
p994
aS'the'
p995
aS'tape'
p996
aaa(lp997
g982
a(lp998
S'you'
p999
aS'know'
p1000
aaa(lp1001
g982
a(lp1002
S'and'
p1003
aS'after'
p1004
aS'side'
p1005
aS'As'
p1006
aS'done'
p1007
aaa(lp1008
g982
a(lp1009
S'then'
p1010
aS'you'
p1011
aS'have'
p1012
aS'to'
p1013
aS'take'
p1014
aS'the'
p1015
aS'tape'
p1016
aS'out'
p1017
aS'and'
p1018
aS'flip'
p1019
aS'it'
p1020
aS'over'
p1021
aaa(lp1022
g982
a(lp1023
S'and'
p1024
aS'play'
p1025
aS'side'
p1026
aS'B'
p1027
aaa(lp1028
S'TAMMY'
p1029
a(lp1030
S'Okay'
p1031
aaa(lp1032
g1029
a(lp1033
S'Okay'
p1034
aaa(lp1035
S'BRAD'
p1036
a(lp1037
S'Okay'
p1038
aaa(lp1039
S'TAMMY'
p1040
a(lp1041
S'Right'
p1042
aaa(lp1043
S'BRAD'
p1044
a(lp1045
S'that'
p1046
aS'would'
p1047
aS'be'
p1048
aS'your'
p1049
aS'first'
p1050
aS'level'
p1051
aaa(lp1052
S'TAMMY'
p1053
a(lp1054
S'Right'
p1055
aaa(lp1056
S'BRAD'
p1057
a(lp1058
S'And'
p1059
aS'Luxman'
p1060
aS'has'
p1061
ag38
aS'great'
p1062
aS'cassette'
p1063
aS'deck'
p1064
aaa(lp1065
g1057
a(lp1066
S'to'
p1067
aS'fill'
p1068
aS'those'
p1069
aS'needs'
p1070
aaa(lp1071
S'TAMMY'
p1072
a(lp1073
S'Okay'
p1074
aaa(lp1075
S'BRAD'
p1076
a(lp1077
S'And'
p1078
aS'um'
p1079
aaa(lp1080
S'TAMMY'
p1081
a(lp1082
aa(lp1083
S'BRAD'
p1084
a(lp1085
aa(lp1086
g1084
a(lp1087
S'so'
p1088
aS'the'
p1089
aS'qualitys'
p1090
aaa(lp1091
S'TAMMY'
p1092
a(lp1093
S'mhm'
p1094
aaa(lp1095
S'BRAD'
p1096
a(lp1097
S'you'
p1098
aS'know'
p1099
aaa(lp1100
g1096
a(lp1101
S'put'
p1102
aS'into'
p1103
aS'them'
p1104
aaa(lp1105
g1096
a(lp1106
S'Uh'
p1107
aaa(lp1108
S'TAMMY'
p1109
a(lp1110
S'mhm'
p1111
aaa(lp1112
S'BRAD'
p1113
a(lp1114
S'They'
p1115
aS'really'
p1116
aS'put'
p1117
ag38
aS'lot'
p1118
aS'into'
p1119
aS'them'
p1120
aaa(lp1121
g1113
a(lp1122
S'to'
p1123
aS'be'
p1124
aS'able'
p1125
aS'to'
p1126
aS'give'
p1127
aS'that'
p1128
aS'kind'
p1129
aS'of'
p1130
aS'warranty'
p1131
aaa(lp1132
S'TAMMY'
p1133
a(lp1134
S'mhm'
p1135
aaa(lp1136
S'BRAD'
p1137
a(lp1138
S'and'
p1139
aS'um'
p1140
aaa(lp1141
g1137
a(lp1142
S'theyre'
p1143
aS'pretty'
p1144
aS'conservative'
p1145
aS'in'
p1146
aS'their'
p1147
aaa(lp1148
g1137
a(lp1149
S'uh'
p1150
aaa(lp1151
g1137
a(lp1152
S'specifications'
p1153
aaa(lp1154
g1137
a(lp1155
S'where'
p1156
aaa(lp1157
g1137
a(lp1158
S'what'
p1159
aS'they'
p1160
aS'say'
p1161
aS'their'
p1162
aS'cassette'
p1163
aS'decks'
p1164
aS'will'
p1165
aS'do'
p1166
aaa(lp1167
g1137
a(lp1168
S'they'
p1169
aS'will'
p1170
aS'y'
p1171
aS'usually'
p1172
aS'out'
p1173
aS'perform'
p1174
aS'that'
p1175
aaa(lp1176
S'TAMMY'
p1177
a(lp1178
S'Okay'
p1179
aaa(lp1180
S'BRAD'
p1181
a(lp1182
S'And'
p1183
aaa(lp1184
g1181
a(lp1185
S'with'
p1186
aS'the'
p1187
aS'unit'
p1188
aS'you'
p1189
aS'already'
p1190
aS'have'
p1191
aaa(lp1192
g1181
a(lp1193
S'the'
p1194
aS'receiver'
p1195
aaa(lp1196
g1181
a(lp1197
S'that'
p1198
aS'has'
p1199
aS'the'
p1200
aS'full'
p1201
aS'remote'
p1202
aS'control'
p1203
aaa(lp1204
S'TAMMY'
p1205
a(lp1206
S'Right'
p1207
aaa(lp1208
S'BRAD'
p1209
a(lp1210
S'all'
p1211
aS'the'
p1212
aS'units'
p1213
aaa(lp1214
g1209
a(lp1215
S'uh'
p1216
aaa(lp1217
g1209
a(lp1218
S'youre'
p1219
aS'looking'
p1220
aS'at'
p1221
aS'here'
p1222
aaa(lp1223
g1209
a(lp1224
S'will'
p1225
aaa(lp1226
g1209
a(lp1227
S'uh'
p1228
aaa(lp1229
g1209
a(lp1230
S'go'
p1231
aS'along'
p1232
aS'with'
p1233
aS'that'
p1234
aaa(lp1235
S'TAMMY'
p1236
a(lp1237
S'Mhm'
p1238
aaa(lp1239
S'BRAD'
p1240
a(lp1241
S'and'
p1242
aaa(lp1243
g1240
a(lp1244
S'um'
p1245
aaa(lp1246
g1240
a(lp1247
S'as'
p1248
aS'far'
p1249
aS'as'
p1250
aS'the'
p1251
aS'remote'
p1252
aS'control'
p1253
aS'funtions'
p1254
aS'go'
p1255
aaa(lp1256
S'TAMMY'
p1257
a(lp1258
S'right'
p1259
aaa(lp1260
S'BRAD'
p1261
a(lp1262
S'Where'
p1263
aS'the'
p1264
aS'remote'
p1265
aS'control'
p1266
aS'will'
p1267
aS'control'
p1268
aS'the'
p1269
aS'decks'
p1270
aaa(lp1271
S'TAMMY'
p1272
a(lp1273
S'Right'
p1274
aaa(lp1275
g1272
a(lp1276
S'Right'
p1277
aaa(lp1278
g1272
a(lp1279
S'Okay'
p1280
aaa(lp1281
S'BRAD'
p1282
a(lp1283
S'The'
p1284
aS'decks'
p1285
aS'come'
p1286
aS'with'
p1287
aaa(lp1288
S'TAMMY'
p1289
a(lp1290
aa(lp1291
S'BRAD'
p1292
a(lp1293
S'whats'
p1294
aS'called'
p1295
ag38
aS'DIN'
p1296
aS'cable'
p1297
aaa(lp1298
g1292
a(lp1299
S'and'
p1300
aS'that'
p1301
aS'plugs'
p1302
aS'into'
p1303
aS'the'
p1304
aS'unit'
p1305
aS'you'
p1306
aS'have'
p1307
aS'now'
p1308
aaa(lp1309
S'TAMMY'
p1310
a(lp1311
S'Mhm'
p1312
aaa(lp1313
g1310
a(lp1314
S'right'
p1315
aaa(lp1316
S'BRAD'
p1317
a(lp1318
S'okay'
p1319
aS'this'
p1320
aS'is'
p1321
aS'the'
p1322
aS'kay'
p1323
aS'one'
p1324
aS'eleven'
p1325
aaa(lp1326
S'TAMMY'
p1327
a(lp1328
S'Okay'
p1329
aaa(lp1330
S'BRAD'
p1331
a(lp1332
S'This'
p1333
aS'would'
p1334
aS'be'
p1335
aaa(lp1336
g1331
a(lp1337
g8
aS'guess'
p1338
aS'youd'
p1339
aS'say'
p1340
aS'the'
p1341
aS'entry'
p1342
aS'level'
p1343
aaa(lp1344
S'TAMMY'
p1345
a(lp1346
S'Right'
p1347
aaa(lp1348
S'BRAD'
p1349
a(lp1350
S'to'
p1351
aS'integrate'
p1352
aS'into'
p1353
aS'your'
p1354
aS'system'
p1355
aaa(lp1356
S'TAMMY'
p1357
a(lp1358
S'okay'
p1359
aaa(lp1360
S'BRAD'
p1361
a(lp1362
S'Um'
p1363
aaa(lp1364
g1361
a(lp1365
S'this'
p1366
aS'gives'
p1367
aS'you'
p1368
aaa(lp1369
g1361
a(lp1370
g38
aS'lot'
p1371
aS'of'
p1372
aS'pluses'
p1373
aS'that'
p1374
aaa(lp1375
g1361
a(lp1376
S'most'
p1377
aS'peoples'
p1378
aS'basic'
p1379
aS'decks'
p1380
aS'dont'
p1381
aS'have'
p1382
aaa(lp1383
S'TAMMY'
p1384
a(lp1385
S'Hm'
p1386
aaa(lp1387
S'BRAD'
p1388
a(lp1389
S'Okay'
p1390
aaa(lp1391
g1388
a(lp1392
S'it'
p1393
aS'has'
p1394
aS'Dolby'
p1395
aaa(lp1396
S'TAMMY'
p1397
a(lp1398
S'Mhm'
p1399
aaa(lp1400
S'BRAD'
p1401
a(lp1402
S'which'
p1403
aS'as'
p1404
aS'you'
p1405
aS'know'
p1406
aaa(lp1407
g1401
a(lp1408
S'thats'
p1409
ag38
aS'circuit'
p1410
aS'to'
p1411
aS'cut'
p1412
aS'the'
p1413
aS'tape'
p1414
aS'hiss'
p1415
aaa(lp1416
g1401
a(lp1417
S'without'
p1418
aS'cutting'
p1419
aS'the'
p1420
aS'high'
p1421
aS'frequencies'
p1422
aaa(lp1423
S'TAMMY'
p1424
a(lp1425
S'right'
p1426
aaa(lp1427
g1424
a(lp1428
S'Right'
p1429
aaa(lp1430
S'BRAD'
p1431
a(lp1432
S'And'
p1433
aS'um'
p1434
aaa(lp1435
g1431
a(lp1436
S'regular'
p1437
aS'Dolby'
p1438
aS'is'
p1439
aS'Dolby'
p1440
ag1027
aaa(lp1441
g1431
a(lp1442
S'Thats'
p1443
aS'like'
p1444
aS'um'
p1445
aaa(lp1446
S'TAMMY'
p1447
a(lp1448
S'Mhm'
p1449
aaa(lp1450
S'BRAD'
p1451
a(lp1452
S'when'
p1453
aS'you'
p1454
aS'buy'
p1455
aS'tapes'
p1456
aS'at'
p1457
aS'the'
p1458
aS'Wherehouse'
p1459
aaa(lp1460
g1451
a(lp1461
S'theyre'
p1462
aS'in'
p1463
aS'Dolby'
p1464
aaa(lp1465
S'TAMMY'
p1466
a(lp1467
S'right'
p1468
aaa(lp1469
S'BRAD'
p1470
a(lp1471
S'Um'
p1472
aaa(lp1473
g1470
a(lp1474
S'in'
p1475
aS'addition'
p1476
aS'to'
p1477
aS'that'
p1478
aS'it'
p1479
aS'gives'
p1480
aS'you'
p1481
aS'Dolby'
p1482
aS'C'
p1483
aaa(lp1484
S'TAMMY'
p1485
a(lp1486
S'Mhm'
p1487
aaa(lp1488
S'BRAD'
p1489
a(lp1490
S'When'
p1491
aS'youre'
p1492
aS'making'
p1493
aS'your'
p1494
aS'own'
p1495
aS'tapes'
p1496
aS'at'
p1497
aS'home'
p1498
aaa(lp1499
g1489
a(lp1500
S'like'
p1501
aS'lets'
p1502
aS'say'
p1503
aS'from'
p1504
aS'the'
p1505
aS'CD'
p1506
aaa(lp1507
S'TAMMY'
p1508
a(lp1509
S'hm'
p1510
aaa(lp1511
g1508
a(lp1512
S'Mhm'
p1513
aaa(lp1514
S'BRAD'
p1515
a(lp1516
S'making'
p1517
ag38
aS'tape'
p1518
aS'to'
p1519
aS'play'
p1520
aS'back'
p1521
aS'on'
p1522
aS'this'
p1523
aS'tape'
p1524
aS'deck'
p1525
aaa(lp1526
S'TAMMY'
p1527
a(lp1528
S'mhm'
p1529
aaa(lp1530
S'BRAD'
p1531
a(lp1532
S'youre'
p1533
aS'gonna'
p1534
aS'wanna'
p1535
aS'record'
p1536
aS'it'
p1537
aS'in'
p1538
aS'Dolby'
p1539
ag1483
aaa(lp1540
S'TAMMY'
p1541
a(lp1542
S'mhm'
p1543
aaa(lp1544
S'BRAD'
p1545
a(lp1546
S'Thats'
p1547
aS'gonna'
p1548
aS'sound'
p1549
aS'sonically'
p1550
aS'superior'
p1551
aaa(lp1552
S'TAMMY'
p1553
a(lp1554
S'mhm'
p1555
aaa(lp1556
S'BRAD'
p1557
a(lp1558
S'Um'
p1559
aaa(lp1560
g1557
a(lp1561
S'or'
p1562
aS'if'
p1563
aS'friends'
p1564
aS'are'
p1565
aS'recording'
p1566
aS'tapes'
p1567
aS'in'
p1568
aS'Dolby'
p1569
ag1483
aaa(lp1570
g1557
a(lp1571
S'then'
p1572
aS'youll'
p1573
aS'be'
p1574
aS'able'
p1575
aS'to'
p1576
aS'play'
p1577
aS'it'
p1578
aS'back'
p1579
aS'and'
p1580
aS'itll'
p1581
aS'sound'
p1582
aS'right'
p1583
aaa(lp1584
S'TAMMY'
p1585
a(lp1586
S'Hm'
p1587
aaa(lp1588
g1585
a(lp1589
S'Okay'
p1590
aaa(lp1591
S'BRAD'
p1592
a(lp1593
S'Okay'
p1594
aaa(lp1595
g1592
a(lp1596
S'so'
p1597
aS'if'
p1598
aS'somethings'
p1599
aS'recorded'
p1600
aS'in'
p1601
aS'Dolby'
p1602
ag1027
aaa(lp1603
g1592
a(lp1604
S'you'
p1605
aS'wanna'
p1606
aS'play'
p1607
aS'it'
p1608
aS'in'
p1609
aS'Dolby'
p1610
ag1027
aaa(lp1611
g1592
a(lp1612
S'Dolby'
p1613
ag1483
aaa(lp1614
g1592
a(lp1615
S'you'
p1616
aS'wanna'
p1617
aS'play'
p1618
aS'it'
p1619
aS'in'
p1620
aS'Dolby'
p1621
ag1483
aaa(lp1622
g1592
a(lp1623
S'You'
p1624
aS'dont'
p1625
aS'want'
p1626
aS'to'
p1627
aaa(lp1628
S'TAMMY'
p1629
a(lp1630
S'Mhm'
p1631
aaa(lp1632
S'BRAD'
p1633
a(lp1634
S'mix'
p1635
aS'and'
p1636
aS'match'
p1637
aaa(lp1638
g1633
a(lp1639
S'Uh'
p1640
aaa(lp1641
S'TAMMY'
p1642
a(lp1643
S'okay'
p1644
aaa(lp1645
S'BRAD'
p1646
a(lp1647
S'the'
p1648
aaa(lp1649
g1646
a(lp1650
S'It'
p1651
aS'doesnt'
p1652
aS'sound'
p1653
aS'quite'
p1654
aS'right'
p1655
aaa(lp1656
S'TAMMY'
p1657
a(lp1658
S'Nkay'
p1659
aaa(lp1660
S'BRAD'
p1661
a(lp1662
S'So'
p1663
aS'this'
p1664
aS'gives'
p1665
aS'you'
p1666
aS'that'
p1667
aaa(lp1668
S'TAMMY'
p1669
a(lp1670
S'hunh'
p1671
aaa(lp1672
S'BRAD'
p1673
a(lp1674
S'it'
p1675
aS'also'
p1676
aS'gives'
p1677
aS'you'
p1678
aS'whats'
p1679
aS'called'
p1680
aS'HX'
p1681
aS'Pro'
p1682
aaa(lp1683
S'TAMMY'
p1684
a(lp1685
S'Okay'
p1686
aaa(lp1687
g1684
a(lp1688
S'mhm'
p1689
aaa(lp1690
S'BRAD'
p1691
a(lp1692
S'Which'
p1693
aS'is'
p1694
ag38
aS'feature'
p1695
aS'usually'
p1696
aS'only'
p1697
aS'found'
p1698
aS'in'
p1699
aaa(lp1700
g1691
a(lp1701
S'rh'
p1702
aaa(lp1703
g1691
a(lp1704
S'really'
p1705
aS'expensive'
p1706
aS'cassette'
p1707
aS'decks'
p1708
aaa(lp1709
S'TAMMY'
p1710
a(lp1711
S'Mm'
p1712
aaa(lp1713
g1710
a(lp1714
S'Hm'
p1715
aaa(lp1716
S'BRAD'
p1717
a(lp1718
S'And'
p1719
aS'that'
p1720
aS'i'
p1721
aS'is'
p1722
aaa(lp1723
g1717
a(lp1724
S'an'
p1725
aS'improvement'
p1726
aS'in'
p1727
aS'the'
p1728
aS'recording'
p1729
aS'section'
p1730
aS'of'
p1731
aS'it'
p1732
aaa(lp1733
S'TAMMY'
p1734
a(lp1735
S'Hm'
p1736
aaa(lp1737
S'BRAD'
p1738
a(lp1739
S'and'
p1740
aS'it'
p1741
aS'allows'
p1742
aS'you'
p1743
aS'to'
p1744
aS'record'
p1745
ag38
aS'little'
p1746
aS'bit'
p1747
aaa(lp1748
S'TAMMY'
p1749
a(lp1750
S'Mhm'
p1751
aaa(lp1752
S'BRAD'
p1753
a(lp1754
S'um'
p1755
aaa(lp1756
g1753
a(lp1757
S'higher'
p1758
aS'record'
p1759
aS'level'
p1760
aaa(lp1761
g1753
a(lp1762
S'so'
p1763
aS'you'
p1764
aS'hear'
p1765
aS'less'
p1766
aS'tape'
p1767
aS'hiss'
p1768
aaa(lp1769
S'TAMMY'
p1770
a(lp1771
S'mhm'
p1772
aaa(lp1773
g1770
a(lp1774
S'mhm'
p1775
aaa(lp1776
S'BRAD'
p1777
a(lp1778
S'and'
p1779
aS'also'
p1780
aS'has'
p1781
ag38
aS'little'
p1782
aS'bit'
p1783
aS'more'
p1784
aaa(lp1785
g1777
a(lp1786
S'um'
p1787
aaa(lp1788
g1777
a(lp1789
S'high'
p1790
aS'frequency'
p1791
aS'response'
p1792
aaa(lp1793
S'TAMMY'
p1794
a(lp1795
S'Hm'
p1796
aaa(lp1797
g1794
a(lp1798
S'Mhm'
p1799
aaa(lp1800
S'BRAD'
p1801
a(lp1802
S'Okay'
p1803
aaa(lp1804
g1801
a(lp1805
S'so'
p1806
aS'this'
p1807
aS'one'
p1808
aS'here'
p1809
aS'youre'
p1810
aS'looking'
p1811
aS'at'
p1812
aS'three'
p1813
aS'hundred'
p1814
aS'eighty'
p1815
aS'dollars'
p1816
aaa(lp1817
S'TAMMY'
p1818
a(lp1819
S'mhm'
p1820
aaa(lp1821
g1818
a(lp1822
S'hm'
p1823
aaa(lp1824
g1818
a(lp1825
S'Mhm'
p1826
aaa(lp1827
S'BRAD'
p1828
a(lp1829
S'Okay'
p1830
aaa(lp1831
g1828
a(lp1832
S'and'
p1833
aS'um'
p1834
aaa(lp1835
g1828
a(lp1836
S'from'
p1837
aS'there'
p1838
aaa(lp1839
g1828
a(lp1840
S'the'
p1841
aS'next'
p1842
aS'step'
p1843
aaa(lp1844
g1828
a(lp1845
S'for'
p1846
aS'what'
p1847
aS'youre'
p1848
aS'looking'
p1849
aS'at'
p1850
aaa(lp1851
g1828
a(lp1852
S'would'
p1853
aS'be'
p1854
aS'the'
p1855
aS'kay'
p1856
aS'one'
p1857
aS'ten'
p1858
aaa(lp1859
g1828
a(lp1860
S'Okay'
p1861
aS'the'
p1862
aS'kay'
p1863
aS'one'
p1864
aS'ten'
p1865
aS'basically'
p1866
aS'has'
p1867
aS'all'
p1868
aS'functions'
p1869
aS'that'
p1870
aS'we'
p1871
aS'just'
p1872
aS'talked'
p1873
aS'about'
p1874
aS'on'
p1875
aS'the'
p1876
aS'on'
p1877
aS'the'
p1878
aS'kay'
p1879
aS'one'
p1880
aS'eleven'
p1881
aaa(lp1882
S'TAMMY'
p1883
a(lp1884
S'Mhm'
p1885
aaa(lp1886
S'BRAD'
p1887
a(lp1888
S'um'
p1889
aaa(lp1890
S'TAMMY'
p1891
a(lp1892
aa(lp1893
S'BRAD'
p1894
a(lp1895
S'with'
p1896
aS'the'
p1897
aS'addition'
p1898
aS'of'
p1899
aaa(lp1900
g1894
a(lp1901
S'the'
p1902
aS'convenience'
p1903
aS'feature'
p1904
aS'of'
p1905
aS'having'
p1906
aS'auto'
p1907
aS'reverse'
p1908
aaa(lp1909
S'TAMMY'
p1910
a(lp1911
S'Yeah'
p1912
aaa(lp1913
S'BRAD'
p1914
a(lp1915
S'And'
p1916
aS'thats'
p1917
aS'nice'
p1918
aaa(lp1919
g1914
a(lp1920
S'just'
p1921
aS'like'
p1922
aS'in'
p1923
aS'the'
p1924
aS'car'
p1925
aaa(lp1926
S'TAMMY'
p1927
a(lp1928
g30
aaa(lp1929
S'BRAD'
p1930
a(lp1931
S'Where'
p1932
aaa(lp1933
S'TAMMY'
p1934
a(lp1935
S'Yeah'
p1936
aaa(lp1937
S'BRAD'
p1938
a(lp1939
S'it'
p1940
aS'will'
p1941
aS'play'
p1942
aS'side'
p1943
ag1027
aaa(lp1944
g1938
a(lp1945
S'after'
p1946
aS'side'
p1947
aS'A'
p1948
aS'is'
p1949
aS'finished'
p1950
aaa(lp1951
g1938
a(lp1952
S'automatically'
p1953
aaa(lp1954
S'TAMMY'
p1955
a(lp1956
S'Yeah'
p1957
aaa(lp1958
S'BRAD'
p1959
a(lp1960
S'Where'
p1961
aS'you'
p1962
aS'dont'
p1963
aS'have'
p1964
aS'to'
p1965
aS'get'
p1966
aS'up'
p1967
aS'and'
p1968
aS'flip'
p1969
aS'the'
p1970
aS'tape'
p1971
aaa(lp1972
S'TAMMY'
p1973
a(lp1974
aa(lp1975
g1973
a(lp1976
S'okay'
p1977
aaa(lp1978
S'BRAD'
p1979
a(lp1980
S'The'
p1981
aS'other'
p1982
aS'thing'
p1983
aS'about'
p1984
aS'it'
p1985
aS'is'
p1986
aaa(lp1987
g1979
a(lp1988
S'you'
p1989
aS'can'
p1990
aS'flip'
p1991
aS'the'
p1992
aS'tape'
p1993
aS'over'
p1994
aS'at'
p1995
aS'any'
p1996
aS'point'
p1997
aS'in'
p1998
aS'the'
p1999
aS'middle'
p2000
aaa(lp2001
S'TAMMY'
p2002
a(lp2003
S'Mhm'
p2004
aaa(lp2005
g2002
a(lp2006
S'right'
p2007
aaa(lp2008
S'BRAD'
p2009
a(lp2010
S'Uh'
p2011
aaa(lp2012
g2009
a(lp2013
S'and'
p2014
aaa(lp2015
g2009
a(lp2016
S'the'
p2017
aS'other'
p2018
aS'thing'
p2019
aaa(lp2020
g2009
a(lp2021
g1171
aS'lets'
p2022
aS'say'
p2023
aS'if'
p2024
aS'youre'
p2025
aS'entertaining'
p2026
aaa(lp2027
g2009
a(lp2028
S'you'
p2029
aS'can'
p2030
aS'put'
p2031
aS'in'
p2032
ag38
aS'ninety'
p2033
aS'minute'
p2034
aS'tape'
p2035
aaa(lp2036
S'TAMMY'
p2037
a(lp2038
S'Mhm'
p2039
aaa(lp2040
S'BRAD'
p2041
a(lp2042
S'put'
p2043
aS'it'
p2044
aS'on'
p2045
aS'continuous'
p2046
aS'auto'
p2047
aS'reverse'
p2048
aaa(lp2049
S'TAMMY'
p2050
a(lp2051
S'm'
p2052
aS'mhm'
p2053
aaa(lp2054
S'BRAD'
p2055
a(lp2056
S'have'
p2057
ag38
aS'recording'
p2058
aS'of'
p2059
aS'your'
p2060
aS'favorite'
p2061
aS'songs'
p2062
aaa(lp2063
S'TAMMY'
p2064
a(lp2065
S'right'
p2066
aaa(lp2067
g2064
a(lp2068
S'Mhm'
p2069
aaa(lp2070
S'BRAD'
p2071
a(lp2072
S'for'
p2073
ag38
aS'party'
p2074
aaa(lp2075
S'TAMMY'
p2076
a(lp2077
S'right'
p2078
aaa(lp2079
S'BRAD'
p2080
a(lp2081
g38
aS'dinner'
p2082
aS'party'
p2083
aaa(lp2084
g2080
a(lp2085
S'whatever'
p2086
aaa(lp2087
S'TAMMY'
p2088
a(lp2089
S'Right'
p2090
aaa(lp2091
S'BRAD'
p2092
a(lp2093
S'and'
p2094
aaa(lp2095
g2092
a(lp2096
S'play'
p2097
aS'side'
p2098
ag1948
aaa(lp2099
g2092
a(lp2100
S'then'
p2101
aS'side'
p2102
ag1027
aS'then'
p2103
aS'side'
p2104
ag1948
aS'side'
p2105
ag1027
aaa(lp2106
S'TAMMY'
p2107
a(lp2108
S'Yeah'
p2109
aaa(lp2110
g2107
a(lp2111
S'thats'
p2112
aS'good'
p2113
aaa(lp2114
S'BRAD'
p2115
a(lp2116
S'itll'
p2117
aS'just'
p2118
aS'go'
p2119
aS'forever'
p2120
aaa(lp2121
S'TAMMY'
p2122
a(lp2123
S'Thats'
p2124
aS'good'
p2125
aaa(lp2126
S'BRAD'
p2127
a(lp2128
S'Okay'
p2129
aaa(lp2130
S'TAMMY'
p2131
a(lp2132
S'Okay'
p2133
aaa(lp2134
S'BRAD'
p2135
a(lp2136
S'Um'
p2137
aaa(lp2138
S'TAMMY'
p2139
a(lp2140
S'Right'
p2141
aaa(lp2142
S'BRAD'
p2143
a(lp2144
S'so'
p2145
aS'thats'
p2146
aS'what'
p2147
aS'it'
p2148
aS'gives'
p2149
aS'you'
p2150
aS'in'
p2151
aS'the'
p2152
aS'kay'
p2153
aS'one'
p2154
aS'ten'
p2155
aaa(lp2156
S'TAMMY'
p2157
a(lp2158
aa(lp2159
g2157
a(lp2160
S'mhm'
p2161
aaa(lp2162
S'BRAD'
p2163
a(lp2164
S'Now'
p2165
aaa(lp2166
g2163
a(lp2167
S'the'
p2168
aaa(lp2169
g2163
a(lp2170
S'dual'
p2171
aaa(lp2172
g2163
a(lp2173
S'or'
p2174
aS'double'
p2175
aS'cassette'
p2176
aS'deck'
p2177
aaa(lp2178
g2163
a(lp2179
S'that'
p2180
aS'Luxman'
p2181
aS'offers'
p2182
aaa(lp2183
g2163
a(lp2184
S'is'
p2185
aS'basically'
p2186
aaa(lp2187
g2163
a(lp2188
g38
aS'um'
p2189
aaa(lp2190
g2163
a(lp2191
S'double'
p2192
aS'version'
p2193
aS'of'
p2194
aS'the'
p2195
aS'kay'
p2196
aS'one'
p2197
aS'ten'
p2198
aaa(lp2199
S'TAMMY'
p2200
a(lp2201
S'Right'
p2202
aaa(lp2203
S'BRAD'
p2204
a(lp2205
S'And'
p2206
aS'they'
p2207
aS'call'
p2208
aS'it'
p2209
aS'the'
p2210
aS'kay'
p2211
aS'one'
p2212
aS'ten'
p2213
aS'doubleu'
p2214
aaa(lp2215
S'TAMMY'
p2216
a(lp2217
S'Okay'
p2218
aaa(lp2219
S'BRAD'
p2220
a(lp2221
S'And'
p2222
aaa(lp2223
S'TAMMY'
p2224
a(lp2225
S'So'
p2226
aS'whats'
p2227
aS'the'
p2228
aS'price'
p2229
aS'difference'
p2230
aS'here'
p2231
aaa(lp2232
S'BRAD'
p2233
a(lp2234
S'Oh'
p2235
aS'okay'
p2236
aaa(lp2237
g2233
a(lp2238
S'Im'
p2239
aS'sorry'
p2240
aaa(lp2241
g2233
a(lp2242
S'the'
p2243
aaa(lp2244
S'TAMMY'
p2245
a(lp2246
S'Yeah'
p2247
aaa(lp2248
S'BRAD'
p2249
a(lp2250
S'the'
p2251
aS'kay'
p2252
aS'one'
p2253
aS'ten'
p2254
aS'is'
p2255
aS'four'
p2256
aS'hundred'
p2257
aS'eighty'
p2258
aS'dollars'
p2259
aaa(lp2260
S'TAMMY'
p2261
a(lp2262
S'Alright'
p2263
aaa(lp2264
S'BRAD'
p2265
a(lp2266
S'and'
p2267
aS'the'
p2268
aS'kay'
p2269
aS'one'
p2270
aS'ten'
p2271
aS'doubleu'
p2272
aaa(lp2273
g2265
a(lp2274
S'is'
p2275
aS'five'
p2276
aS'hundred'
p2277
aS'eighty'
p2278
aS'dollars'
p2279
aaa(lp2280
S'TAMMY'
p2281
a(lp2282
S'Mhm'
p2283
aaa(lp2284
g2281
a(lp2285
S'okay'
p2286
aaa(lp2287
S'BRAD'
p2288
a(lp2289
S'Okay'
p2290
aaa(lp2291
g2288
a(lp2292
g30
aS'So'
p2293
aS'you'
p2294
aS'paid'
p2295
ag30
ag38
aS'hundred'
p2296
aS'dollar'
p2297
aS'premium'
p2298
aS'for'
p2299
aS'auto'
p2300
aS'reverse'
p2301
aaa(lp2302
g2288
a(lp2303
S'then'
p2304
aS'youre'
p2305
aS'paying'
p2306
aS'another'
p2307
aS'hundred'
p2308
aS'dollars'
p2309
aS'to'
p2310
aS'have'
p2311
aaa(lp2312
S'TAMMY'
p2313
a(lp2314
S'Yeah'
p2315
aaa(lp2316
g2313
a(lp2317
S'right'
p2318
aaa(lp2319
S'BRAD'
p2320
a(lp2321
S'double'
p2322
aS'cassette'
p2323
aS'deck'
p2324
aS'thats'
p2325
aS'auto'
p2326
aS'reverse'
p2327
aaa(lp2328
S'TAMMY'
p2329
a(lp2330
S'Okay'
p2331
aaa(lp2332
g2329
a(lp2333
S'Mhm'
p2334
aaa(lp2335
g2329
a(lp2336
S'okay'
p2337
aaa(lp2338
S'BRAD'
p2339
a(lp2340
S'Um'
p2341
aaa(lp2342
g2339
a(lp2343
S'the'
p2344
aS'convenience'
p2345
aS'on'
p2346
aS'this'
p2347
aS'is'
p2348
aS'obvious'
p2349
aaa(lp2350
S'TAMMY'
p2351
a(lp2352
S'Mhm'
p2353
aaa(lp2354
S'BRAD'
p2355
a(lp2356
S'Where'
p2357
aaa(lp2358
g2355
a(lp2359
S'um'
p2360
aaa(lp2361
g2355
a(lp2362
S'they'
p2363
aS'even'
p2364
aS'have'
p2365
aaa(lp2366
S'TAMMY'
p2367
a(lp2368
aa(lp2369
S'BRAD'
p2370
a(lp2371
S'um'
p2372
aaa(lp2373
g2370
a(lp2374
S'you'
p2375
aS'know'
p2376
aaa(lp2377
g2370
a(lp2378
S'buttons'
p2379
aS'set'
p2380
aS'up'
p2381
aS'for'
p2382
aaa(lp2383
S'TAMMY'
p2384
a(lp2385
S'Mhm'
p2386
aaa(lp2387
S'BRAD'
p2388
a(lp2389
S'dubbing'
p2390
aaa(lp2391
g2388
a(lp2392
S'or'
p2393
aS'copying'
p2394
aaa(lp2395
S'TAMMY'
p2396
a(lp2397
S'mhm'
p2398
aaa(lp2399
S'BRAD'
p2400
a(lp2401
S'from'
p2402
aS'one'
p2403
aS'tape'
p2404
aS'deck'
p2405
aS'to'
p2406
aS'the'
p2407
aS'other'
p2408
aaa(lp2409
S'TAMMY'
p2410
a(lp2411
S'mhm'
p2412
aaa(lp2413
S'BRAD'
p2414
a(lp2415
S'Um'
p2416
aaa(lp2417
g2414
a(lp2418
S'so'
p2419
aS'its'
p2420
aS'really'
p2421
aS'set'
p2422
aS'up'
p2423
aaa(lp2424
g2414
a(lp2425
S'to'
p2426
aS'be'
p2427
aS'just'
p2428
aS'cranking'
p2429
aS'out'
p2430
aaa(lp2431
S'TAMMY'
p2432
a(lp2433
S'hm'
p2434
aaa(lp2435
S'BRAD'
p2436
a(lp2437
S'uh'
p2438
aaa(lp2439
g2436
a(lp2440
S'copies'
p2441
aaa(lp2442
S'TAMMY'
p2443
a(lp2444
S'mhm'
p2445
aaa(lp2446
S'BRAD'
p2447
a(lp2448
S'Now'
p2449
aS'the'
p2450
aS'other'
p2451
aS'thing'
p2452
aS'is'
p2453
aaa(lp2454
g2447
a(lp2455
S'it'
p2456
aS'has'
p2457
ag38
aS'feature'
p2458
aS'where'
p2459
aS'it'
p2460
aS'will'
p2461
aS'do'
p2462
aS'it'
p2463
aS'in'
p2464
aS'half'
p2465
aS'the'
p2466
aS'time'
p2467
aaa(lp2468
S'TAMMY'
p2469
a(lp2470
S'hm'
p2471
aaa(lp2472
S'BRAD'
p2473
a(lp2474
S'Or'
p2475
aS'high'
p2476
aS'speed'
p2477
aS'dubbing'
p2478
aaa(lp2479
S'TAMMY'
p2480
a(lp2481
S'Hm'
p2482
aaa(lp2483
g2480
a(lp2484
S'Hm'
p2485
aaa(lp2486
g2480
a(lp2487
S'Hm'
p2488
aaa(lp2489
g2480
a(lp2490
S'Hm'
p2491
aaa(lp2492
S'BRAD'
p2493
a(lp2494
S'Which'
p2495
aS'is'
p2496
aS'sometimes'
p2497
aS'nice'
p2498
aaa(lp2499
g2493
a(lp2500
S'so'
p2501
aS'it'
p2502
aS'doesnt'
p2503
aS'take'
p2504
aS'the'
p2505
aS'whole'
p2506
aS'period'
p2507
aS'of'
p2508
aS'time'
p2509
aaa(lp2510
S'TAMMY'
p2511
a(lp2512
S'Right'
p2513
aaa(lp2514
S'BRAD'
p2515
a(lp2516
S'To'
p2517
aS'make'
p2518
aS'your'
p2519
aS'copy'
p2520
aaa(lp2521
S'TAMMY'
p2522
a(lp2523
S'Mhm'
p2524
aaa(lp2525
S'BRAD'
p2526
a(lp2527
S'And'
p2528
aS'it'
p2529
aS'will'
p2530
aS'continue'
p2531
aS'making'
p2532
aS'the'
p2533
aS'copy'
p2534
aaa(lp2535
g2526
a(lp2536
S'you'
p2537
aS'know'
p2538
aaa(lp2539
g2526
a(lp2540
S'from'
p2541
aS'side'
p2542
ag1948
aS'then'
p2543
aaa(lp2544
g2526
a(lp2545
S'and'
p2546
aS'itll'
p2547
aS'flip'
p2548
aS'over'
p2549
aaa(lp2550
S'TAMMY'
p2551
a(lp2552
S'Right'
p2553
aaa(lp2554
S'BRAD'
p2555
a(lp2556
S'and'
p2557
aS'to'
p2558
aS'side'
p2559
ag1027
aaa(lp2560
g2555
a(lp2561
S'Um'
p2562
aaa(lp2563
g2555
a(lp2564
S'so'
p2565
aS'we'
p2566
aaa(lp2567
g2555
a(lp2568
S'weve'
p2569
aS'talked'
p2570
aS'about'
p2571
aS'it'
p2572
aaa(lp2573
g2555
a(lp2574
S'how'
p2575
aaa(lp2576
g2555
a(lp2577
S'how'
p2578
aS'it'
p2579
aS'has'
p2580
aS'the'
p2581
aS'dubbing'
p2582
aS'speed'
p2583
aS'select'
p2584
aS'buttons'
p2585
aaa(lp2586
S'TAMMY'
p2587
a(lp2588
S'Mhm'
p2589
aaa(lp2590
S'BRAD'
p2591
a(lp2592
S'so'
p2593
aS'you'
p2594
aS'can'
p2595
aS'make'
p2596
ag38
aaa(lp2597
g2591
a(lp2598
g38
aS'high'
p2599
aS'speed'
p2600
aS'copy'
p2601
aaa(lp2602
S'TAMMY'
p2603
a(lp2604
S'mhm'
p2605
aaa(lp2606
S'BRAD'
p2607
a(lp2608
S'um'
p2609
aaa(lp2610
g2607
a(lp2611
S'The'
p2612
aS'other'
p2613
aS'thing'
p2614
aS'that'
p2615
aS'sets'
p2616
aS'this'
p2617
aS'apart'
p2618
aaa(lp2619
g2607
a(lp2620
S'from'
p2621
ag38
aS'lot'
p2622
aS'of'
p2623
aS'other'
p2624
aS'dual'
p2625
aS'decks'
p2626
aaa(lp2627
g2607
a(lp2628
S'is'
p2629
aS'it'
p2630
aS'has'
p2631
ag38
aS'separate'
p2632
aS'Dolby'
p2633
aS'button'
p2634
aaa(lp2635
g2607
a(lp2636
S'for'
p2637
aS'each'
p2638
aS'cassette'
p2639
aS'deck'
p2640
aaa(lp2641
S'TAMMY'
p2642
a(lp2643
S'Mhm'
p2644
aaa(lp2645
S'BRAD'
p2646
a(lp2647
S'Ge'
p2648
aaa(lp2649
g2646
a(lp2650
S'uh'
p2651
aS'gesundheit'
p2652
aaa(lp2653
S'TAMMY'
p2654
a(lp2655
S'Thank'
p2656
aS'you'
p2657
aaa(lp2658
g2654
a(lp2659
S'yeah'
p2660
aaa(lp2661
S'BRAD'
p2662
a(lp2663
S'Um'
p2664
aaa(lp2665
g2662
a(lp2666
S'where'
p2667
ag38
aS'lot'
p2668
aS'of'
p2669
aS'units'
p2670
aS'will'
p2671
aaa(lp2672
S'TAMMY'
p2673
a(lp2674
S'Hm'
p2675
aaa(lp2676
S'BRAD'
p2677
a(lp2678
S'just'
p2679
aS'have'
p2680
ag38
aS'Dolby'
p2681
aS'setting'
p2682
aaa(lp2683
S'TAMMY'
p2684
a(lp2685
S'Mhm'
p2686
aaa(lp2687
S'BRAD'
p2688
a(lp2689
S'and'
p2690
aS'thats'
p2691
aS'the'
p2692
aS'same'
p2693
aS'for'
p2694
aS'both'
p2695
aS'decks'
p2696
aaa(lp2697
S'TAMMY'
p2698
a(lp2699
g8
aS'see'
p2700
aaa(lp2701
g2698
a(lp2702
g8
aS'see'
p2703
aaa(lp2704
S'BRAD'
p2705
a(lp2706
S'But'
p2707
aS'there'
p2708
aS'may'
p2709
aS'be'
p2710
ag38
aS'situation'
p2711
aaa(lp2712
g2705
a(lp2713
S'where'
p2714
ag38
aS'friend'
p2715
aS'of'
p2716
aS'yours'
p2717
aaa(lp2718
S'TAMMY'
p2719
a(lp2720
S'Yeah'
p2721
aaa(lp2722
g2719
a(lp2723
S'Mhm'
p2724
aaa(lp2725
S'BRAD'
p2726
a(lp2727
S'whos'
p2728
ag38
aS'real'
p2729
aS'audiophile'
p2730
aaa(lp2731
g2726
a(lp2732
S'made'
p2733
aS'uh'
p2734
aaa(lp2735
S'TAMMY'
p2736
a(lp2737
S'mhm'
p2738
aaa(lp2739
S'BRAD'
p2740
a(lp2741
g38
aS'real'
p2742
aS'premium'
p2743
aS'tape'
p2744
aS'for'
p2745
aS'you'
p2746
aaa(lp2747
S'TAMMY'
p2748
a(lp2749
S'mhm'
p2750
aaa(lp2751
S'BRAD'
p2752
a(lp2753
S'recorded'
p2754
aS'in'
p2755
aS'Dolby'
p2756
ag1483
aaa(lp2757
S'TAMMY'
p2758
a(lp2759
S'mhm'
p2760
aaa(lp2761
S'BRAD'
p2762
a(lp2763
S'Well'
p2764
aaa(lp2765
g2762
a(lp2766
S'you'
p2767
aS'wanna'
p2768
aS'record'
p2769
aS'it'
p2770
aS'in'
p2771
aS'Dolby'
p2772
ag1027
aaa(lp2773
g2762
a(lp2774
S'so'
p2775
aS'you'
p2776
aS'can'
p2777
aS'play'
p2778
aS'it'
p2779
aS'back'
p2780
aS'in'
p2781
aS'your'
p2782
aS'Walkman'
p2783
aaa(lp2784
S'TAMMY'
p2785
a(lp2786
S'Mhm'
p2787
aaa(lp2788
S'BRAD'
p2789
a(lp2790
S'and'
p2791
aS'in'
p2792
aS'your'
p2793
aS'automobiles'
p2794
aS'cassette'
p2795
aS'player'
p2796
aaa(lp2797
S'TAMMY'
p2798
a(lp2799
S'mhm'
p2800
aaa(lp2801
g2798
a(lp2802
S'mhm'
p2803
aaa(lp2804
S'BRAD'
p2805
a(lp2806
S'Uh'
p2807
aaa(lp2808
g2805
a(lp2809
S'in'
p2810
aS'that'
p2811
aS'scenario'
p2812
aaa(lp2813
g2805
a(lp2814
S'youre'
p2815
aS'gonna'
p2816
aS'want'
p2817
aS'to'
p2818
aS'play'
p2819
aS'it'
p2820
aS'back'
p2821
aS'in'
p2822
aS'Dolby'
p2823
ag1483
aaa(lp2824
g2805
a(lp2825
S'but'
p2826
aS'record'
p2827
aS'it'
p2828
aS'in'
p2829
aS'Dolby'
p2830
ag1027
aaa(lp2831
S'TAMMY'
p2832
a(lp2833
S'Yeah'
p2834
aaa(lp2835
g2832
a(lp2836
S'Okay'
p2837
aaa(lp2838
S'BRAD'
p2839
a(lp2840
S'Okay'
p2841
aaa(lp2842
S'TAMMY'
p2843
a(lp2844
S'Thats'
p2845
ag30
aS'good'
p2846
ag30
aaa(lp2847
S'BRAD'
p2848
a(lp2849
S'So'
p2850
aS'this'
p2851
aS'gives'
p2852
aS'you'
p2853
aS'that'
p2854
aS'convenience'
p2855
aaa(lp2856
S'TAMMY'
p2857
a(lp2858
S'Nkay'
p2859
aaa(lp2860
S'BRAD'
p2861
a(lp2862
S'Now'
p2863
aS'the'
p2864
aS'other'
p2865
aS'thing'
p2866
aS'is'
p2867
aaa(lp2868
g2861
a(lp2869
S'lets'
p2870
aS'say'
p2871
aaa(lp2872
g2861
a(lp2873
S'um'
p2874
aaa(lp2875
g2861
a(lp2876
S'that'
p2877
aS'friend'
p2878
aS'of'
p2879
aS'yours'
p2880
aS'came'
p2881
aS'over'
p2882
aS'for'
p2883
aS'dinner'
p2884
aS'with'
p2885
aS'his'
p2886
aS'prize'
p2887
aS'tape'
p2888
aaa(lp2889
S'TAMMY'
p2890
a(lp2891
S'Mhm'
p2892
aaa(lp2893
S'BRAD'
p2894
a(lp2895
S'and'
p2896
aS'you'
p2897
aS'had'
p2898
aS'your'
p2899
aS'prize'
p2900
aS'tape'
p2901
aaa(lp2902
S'TAMMY'
p2903
a(lp2904
S'mhm'
p2905
aaa(lp2906
S'BRAD'
p2907
a(lp2908
S'of'
p2909
aS'of'
p2910
aS'something'
p2911
aS'else'
p2912
aaa(lp2913
g2907
a(lp2914
S'you'
p2915
aS'could'
p2916
aS'load'
p2917
aS'them'
p2918
aS'both'
p2919
aS'up'
p2920
aaa(lp2921
S'TAMMY'
p2922
a(lp2923
S'mhm'
p2924
aaa(lp2925
g2922
a(lp2926
S'mhm'
p2927
aaa(lp2928
S'BRAD'
p2929
a(lp2930
S'put'
p2931
aS'it'
p2932
aS'on'
p2933
aS'continuous'
p2934
aaa(lp2935
S'TAMMY'
p2936
a(lp2937
aa(lp2938
S'BRAD'
p2939
a(lp2940
S'um'
p2941
aaa(lp2942
S'TAMMY'
p2943
a(lp2944
S'unhunh'
p2945
aaa(lp2946
S'BRAD'
p2947
a(lp2948
S'auto'
p2949
aS'reverse'
p2950
aaa(lp2951
g2947
a(lp2952
S'and'
p2953
aS'it'
p2954
aS'will'
p2955
aS'play'
p2956
aS'side'
p2957
ag1948
aS'side'
p2958
ag1027
aS'of'
p2959
aS'one'
p2960
aS'tape'
p2961
aaa(lp2962
S'TAMMY'
p2963
a(lp2964
aa(lp2965
S'BRAD'
p2966
a(lp2967
S'go'
p2968
aS'over'
p2969
aS'to'
p2970
aS'the'
p2971
aS'other'
p2972
aS'tape'
p2973
aaa(lp2974
S'TAMMY'
p2975
a(lp2976
S'right'
p2977
aaa(lp2978
S'BRAD'
p2979
a(lp2980
S'and'
p2981
aS'play'
p2982
aS'sed'
p2983
aS'ai'
p2984
aaa(lp2985
S'TAMMY'
p2986
a(lp2987
S'Mhm'
p2988
aaa(lp2989
S'BRAD'
p2990
a(lp2991
S'side'
p2992
ag1948
aaa(lp2993
g2990
a(lp2994
S'then'
p2995
aS'side'
p2996
ag1027
aaa(lp2997
g2990
a(lp2998
S'and'
p2999
aS'it'
p3000
aS'continually'
p3001
aS'go'
p3002
aS'forever'
p3003
aaa(lp3004
S'TAMMY'
p3005
a(lp3006
S'right'
p3007
aaa(lp3008
g3005
a(lp3009
S'Okay'
p3010
aaa(lp3011
S'BRAD'
p3012
a(lp3013
S'Um'
p3014
aaa(lp3015
S'TAMMY'
p3016
a(lp3017
S'Hunh'
p3018
aaa(lp3019
S'BRAD'
p3020
a(lp3021
S'which'
p3022
aS'is'
p3023
aS'kinda'
p3024
aS'nice'
p3025
aaa(lp3026
S'TAMMY'
p3027
a(lp3028
S'Wow'
p3029
aaa(lp3030
S'BRAD'
p3031
a(lp3032
S'Now'
p3033
aS'the'
p3034
aS'other'
p3035
aS'thing'
p3036
aS'you'
p3037
aS'can'
p3038
aS'do'
p3039
aS'with'
p3040
aS'this'
p3041
aS'deck'
p3042
aS'is'
p3043
aaa(lp3044
S'TAMMY'
p3045
a(lp3046
S'Yeah'
p3047
aaa(lp3048
S'BRAD'
p3049
a(lp3050
S'in'
p3051
aS'your'
p3052
aS'system'
p3053
aaa(lp3054
g3049
a(lp3055
S'you'
p3056
aS'can'
p3057
aS'make'
p3058
ag38
aS'copy'
p3059
aaa(lp3060
g3049
a(lp3061
S'from'
p3062
aS'tape'
p3063
aS'to'
p3064
aS'tape'
p3065
aaa(lp3066
g3049
a(lp3067
S'while'
p3068
aS'youre'
p3069
aS'listening'
p3070
aS'to'
p3071
aS'something'
p3072
aS'else'
p3073
aaa(lp3074
S'TAMMY'
p3075
a(lp3076
aa(lp3077
S'BRAD'
p3078
a(lp3079
S'nkay'
p3080
aaa(lp3081
S'TAMMY'
p3082
a(lp3083
S'Unhunh'
p3084
aaa(lp3085
S'BRAD'
p3086
a(lp3087
S'so'
p3088
aS'you'
p3089
aS'could'
p3090
aS'be'
p3091
aS'listening'
p3092
aS'to'
p3093
aS'your'
p3094
aS'CD'
p3095
aaa(lp3096
S'TAMMY'
p3097
a(lp3098
S'right'
p3099
aaa(lp3100
S'BRAD'
p3101
a(lp3102
S'while'
p3103
aS'youre'
p3104
aS'making'
p3105
ag38
aS'tape'
p3106
aS'copy'
p3107
aaa(lp3108
S'TAMMY'
p3109
a(lp3110
S'Right'
p3111
aaa(lp3112
g3109
a(lp3113
S'Thats'
p3114
aS'right'
p3115
aaa(lp3116
g3109
a(lp3117
S'Okay'
p3118
aaa(lp3119
S'BRAD'
p3120
a(lp3121
S'Um'
p3122
aaa(lp3123
g3120
a(lp3124
S'the'
p3125
aS'other'
p3126
aS'thing'
p3127
aS'you'
p3128
aS'can'
p3129
aS'do'
p3130
aS'is'
p3131
aaa(lp3132
g3120
a(lp3133
S'um'
p3134
aaa(lp3135
g3120
a(lp3136
S'one'
p3137
aS'can'
p3138
aS'listen'
p3139
aS'to'
p3140
aS'the'
p3141
aS'tuner'
p3142
aaa(lp3143
S'TAMMY'
p3144
a(lp3145
aa(lp3146
S'BRAD'
p3147
a(lp3148
S'so'
p3149
aS'you'
p3150
aS'could'
p3151
aS'put'
p3152
aS'on'
p3153
aS'KDB'
p3154
aaa(lp3155
S'TAMMY'
p3156
a(lp3157
S'Mhm'
p3158
aaa(lp3159
S'BRAD'
p3160
a(lp3161
S'or'
p3162
ag8
aaa(lp3163
g3160
a(lp3164
g8
aaa(lp3165
S'TAMMY'
p3166
a(lp3167
S'right'
p3168
aaa(lp3169
S'BRAD'
p3170
a(lp3171
S'r'
p3172
aS'theres'
p3173
aS'one'
p3174
aS'Matt'
p3175
aS'likes'
p3176
aaa(lp3177
g3170
a(lp3178
g8
aS'forget'
p3179
aS'what'
p3180
aS'its'
p3181
aS'called'
p3182
aaa(lp3183
g3170
a(lp3184
S'but'
p3185
aS'anyhow'
p3186
aaa(lp3187
S'TAMMY'
p3188
a(lp3189
S'Right'
p3190
aaa(lp3191
S'BRAD'
p3192
a(lp3193
S'um'
p3194
aaa(lp3195
S'TAMMY'
p3196
a(lp3197
aa(lp3198
S'BRAD'
p3199
a(lp3200
S'or'
p3201
aS'he'
p3202
aS'wants'
p3203
aS'to'
p3204
aS'get'
p3205
aS'KFAC'
p3206
ag8
aS'think'
p3207
aS'it'
p3208
aS'is'
p3209
aaa(lp3210
S'TAMMY'
p3211
a(lp3212
S'Yeah'
p3213
aaa(lp3214
S'BRAD'
p3215
a(lp3216
S'Which'
p3217
aS'is'
p3218
aS'kind'
p3219
aS'of'
p3220
aS'tough'
p3221
aaa(lp3222
g3215
a(lp3223
S'Um'
p3224
aaa(lp3225
g3215
a(lp3226
S'so'
p3227
aS'you'
p3228
aS'could'
p3229
aS'be'
p3230
aS'listening'
p3231
aS'to'
p3232
aS'the'
p3233
aS'radio'
p3234
aaa(lp3235
g3215
a(lp3236
S'while'
p3237
aS'taping'
p3238
ag38
aS'CD'
p3239
aaa(lp3240
S'TAMMY'
p3241
a(lp3242
S'Mhm'
p3243
aaa(lp3244
S'BRAD'
p3245
a(lp3246
S'You'
p3247
aS'you'
p3248
aS'know'
p3249
aaa(lp3250
S'TAMMY'
p3251
a(lp3252
S'right'
p3253
aaa(lp3254
S'BRAD'
p3255
a(lp3256
S'it'
p3257
aS'allows'
p3258
aS'you'
p3259
aS'to'
p3260
aS'do'
p3261
aS'that'
p3262
aaa(lp3263
S'TAMMY'
p3264
a(lp3265
S'Right'
p3266
aaa(lp3267
g3264
a(lp3268
S'Right'
p3269
aaa(lp3270
g3264
a(lp3271
S'Okay'
p3272
aaa(lp3273
S'BRAD'
p3274
a(lp3275
S'Which'
p3276
aaa(lp3277
g3274
a(lp3278
S'you'
p3279
aS'have'
p3280
aS'to'
p3281
aS'pay'
p3282
aS'attention'
p3283
aS'to'
p3284
aS'what'
p3285
aS'youre'
p3286
aS'doing'
p3287
aaa(lp3288
S'TAMMY'
p3289
a(lp3290
S'Okay'
p3291
aaa(lp3292
g3289
a(lp3293
g8
aS'know'
p3294
aaa(lp3295
g3289
a(lp3296
S'Thats'
p3297
aS'right'
p3298
aaa(lp3299
g3289
a(lp3300
S'Yeah'
p3301
aaa(lp3302
S'BRAD'
p3303
a(lp3304
S'yeah'
p3305
aaa(lp3306
g3303
a(lp3307
S'but'
p3308
aS'at'
p3309
aS'least'
p3310
aS'you'
p3311
aS'have'
p3312
aS'that'
p3313
aS'flexibility'
p3314
aaa(lp3315
S'TAMMY'
p3316
a(lp3317
S'Okay'
p3318
aaa(lp3319
S'BRAD'
p3320
a(lp3321
S'And'
p3322
aS'so'
p3323
aS'it'
p3324
aS'sounds'
p3325
aS'like'
p3326
aaa(lp3327
S'TAMMY'
p3328
a(lp3329
aa(lp3330
S'BRAD'
p3331
a(lp3332
S'from'
p3333
aS'what'
p3334
aS'youve'
p3335
aS'told'
p3336
aS'me'
p3337
aaa(lp3338
g3331
a(lp3339
S'uh'
p3340
aaa(lp3341
g3331
a(lp3342
S'you'
p3343
aS'know'
p3344
aaa(lp3345
g3331
a(lp3346
S'about'
p3347
aS'youre'
p3348
aS'desire'
p3349
aS'to'
p3350
aS'make'
p3351
aaa(lp3352
g3331
a(lp3353
S'good'
p3354
aS'quality'
p3355
aS'copies'
p3356
aS'of'
p3357
aS'tapes'
p3358
aaa(lp3359
S'TAMMY'
p3360
a(lp3361
S'Mhm'
p3362
aaa(lp3363
g3360
a(lp3364
S'mhm'
p3365
aaa(lp3366
S'BRAD'
p3367
a(lp3368
S'this'
p3369
aS'is'
p3370
aS'gonna'
p3371
aS'be'
p3372
aS'the'
p3373
aS'tape'
p3374
aS'deck'
p3375
aaa(lp3376
S'TAMMY'
p3377
a(lp3378
S'mhm'
p3379
aaa(lp3380
S'BRAD'
p3381
a(lp3382
S'that'
p3383
aS'would'
p3384
aS'fit'
p3385
aS'your'
p3386
aS'needs'
p3387
aaa(lp3388
S'TAMMY'
p3389
a(lp3390
S'mhm'
p3391
aaa(lp3392
S'BRAD'
p3393
a(lp3394
S'And'
p3395
aS'integrate'
p3396
aS'well'
p3397
aS'with'
p3398
aS'your'
p3399
aS'system'
p3400
aaa(lp3401
g3393
a(lp3402
S'and'
p3403
aaa(lp3404
S'TAMMY'
p3405
a(lp3406
S'right'
p3407
aaa(lp3408
S'BRAD'
p3409
a(lp3410
S'allow'
p3411
aS'the'
p3412
aS'remote'
p3413
aS'to'
p3414
aS'fully'
p3415
aS'control'
p3416
aS'it'
p3417
aaa(lp3418
S'TAMMY'
p3419
a(lp3420
S'Okay'
p3421
aaa(lp3422
g3419
a(lp3423
S'Well'
p3424
aS'what'
p3425
aS'youve'
p3426
aS'said'
p3427
aS'helps'
p3428
aS'me'
p3429
ag38
aS'lot'
p3430
aaa(lp3431
g3419
a(lp3432
g8
aS'actually'
p3433
aS'may'
p3434
aaa(lp3435
g3419
a(lp3436
g8
aS'mean'
p3437
aaa(lp3438
g3419
a(lp3439
g8
aS'dont'
p3440
aS'do'
p3441
aS'this'
p3442
aS'so'
p3443
aS'often'
p3444
aaa(lp3445
g3419
a(lp3446
S'And'
p3447
aS'it'
p3448
aS'may'
p3449
aS'well'
p3450
aS'be'
p3451
aS'that'
p3452
ag8
aaa(lp3453
g3419
a(lp3454
S'Id'
p3455
aS'do'
p3456
aS'better'
p3457
aaa(lp3458
g3419
a(lp3459
S'just'
p3460
aS'going'
p3461
aS'back'
p3462
aS'to'
p3463
aS'one'
p3464
aS'of'
p3465
aS'these'
p3466
aS'others'
p3467
aaa(lp3468
S'BRAD'
p3469
a(lp3470
S'Mhm'
p3471
aaa(lp3472
S'TAMMY'
p3473
a(lp3474
S'Um'
p3475
aaa(lp3476
g3473
a(lp3477
S'in'
p3478
aaa(lp3479
S'BRAD'
p3480
a(lp3481
S'The'
p3482
aS'oth'
p3483
aaa(lp3484
S'TAMMY'
p3485
a(lp3486
S'in'
p3487
aS'fact'
p3488
aaa(lp3489
g3485
a(lp3490
S'Im'
p3491
aaa(lp3492
S'BRAD'
p3493
a(lp3494
S'the'
p3495
aS'oth'
p3496
aaa(lp3497
g3493
a(lp3498
S'the'
p3499
aS'other'
p3500
aS'thing'
p3501
ag8
aS'was'
p3502
aS'gonna'
p3503
aS'say'
p3504
aS'is'
p3505
aaa(lp3506
g3493
a(lp3507
S'is'
p3508
aS'it'
p3509
aaa(lp3510
g3493
a(lp3511
S'do'
p3512
aS'you'
p3513
aS'have'
p3514
aaa(lp3515
g3493
a(lp3516
S'um'
p3517
aaa(lp3518
g3493
a(lp3519
S'if'
p3520
aS'you'
p3521
aS'had'
p3522
aS'some'
p3523
aS'other'
p3524
aS'type'
p3525
aS'of'
p3526
aS'quality'
p3527
aS'cassette'
p3528
aS'deck'
p3529
aaa(lp3530
S'TAMMY'
p3531
a(lp3532
S'Mhm'
p3533
aaa(lp3534
S'BRAD'
p3535
a(lp3536
S'Even'
p3537
aS'if'
p3538
aS'it'
p3539
aS'was'
p3540
ag38
aaa(lp3541
g3535
a(lp3542
S'unf'
p3543
aaa(lp3544
S'TAMMY'
p3545
a(lp3546
S'mhm'
p3547
aaa(lp3548
S'BRAD'
p3549
a(lp3550
S'one'
p3551
aS'in'
p3552
aS'the'
p3553
aS'office'
p3554
aaa(lp3555
g3549
a(lp3556
S'or'
p3557
aS'uh'
p3558
aaa(lp3559
S'TAMMY'
p3560
a(lp3561
S'mhm'
p3562
aaa(lp3563
g3560
a(lp3564
S'yeah'
p3565
aaa(lp3566
S'BRAD'
p3567
a(lp3568
g38
aS'portable'
p3569
aS'or'
p3570
aS'something'
p3571
aS'like'
p3572
aS'that'
p3573
aaa(lp3574
S'TAMMY'
p3575
a(lp3576
S'mhm'
p3577
aaa(lp3578
S'BRAD'
p3579
a(lp3580
g8
aS'could'
p3581
aS'somehow'
p3582
aS'hook'
p3583
aS'it'
p3584
aS'up'
p3585
aS'into'
p3586
aS'your'
p3587
aS'system'
p3588
aaa(lp3589
S'TAMMY'
p3590
a(lp3591
S'mhm'
p3592
aaa(lp3593
S'BRAD'
p3594
a(lp3595
S'So'
p3596
aS'you'
p3597
aS'could'
p3598
aS'tape'
p3599
aS'from'
p3600
aS'it'
p3601
aaa(lp3602
S'TAMMY'
p3603
a(lp3604
S'right'
p3605
aaa(lp3606
g3603
a(lp3607
S'Right'
p3608
aaa(lp3609
S'BRAD'
p3610
a(lp3611
S'to'
p3612
aaa(lp3613
g3610
a(lp3614
S'one'
p3615
aS'of'
p3616
aS'these'
p3617
aaa(lp3618
S'TAMMY'
p3619
a(lp3620
S'Right'
p3621
aaa(lp3622
g3619
a(lp3623
S'okay'
p3624
aaa(lp3625
g3619
a(lp3626
S'thats'
p3627
aS'possible'
p3628
aaa(lp3629
S'BRAD'
p3630
a(lp3631
S'And'
p3632
aaa(lp3633
g3630
a(lp3634
S'the'
p3635
aaa(lp3636
g3630
a(lp3637
S'the'
p3638
aS'prices'
p3639
ag8
aS'gave'
p3640
aS'you'
p3641
aS'were'
p3642
aS'the'
p3643
aaa(lp3644
g3630
a(lp3645
S'uh'
p3646
aaa(lp3647
g3630
a(lp3648
S'Luxman'
p3649
aS'suggested'
p3650
aS'prices'
p3651
aaa(lp3652
S'TAMMY'
p3653
a(lp3654
S'Right'
p3655
aaa(lp3656
S'BRAD'
p3657
a(lp3658
S'since'
p3659
aS'youve'
p3660
aS'bought'
p3661
aS'ouple'
p3662
aS'pieces'
p3663
aS'here'
p3664
aaa(lp3665
S'TAMMY'
p3666
a(lp3667
S'mhm'
p3668
aaa(lp3669
S'BRAD'
p3670
a(lp3671
S'and'
p3672
aS'also'
p3673
aS'been'
p3674
aS'through'
p3675
aS'the'
p3676
aS'fire'
p3677
aaa(lp3678
g3670
a(lp3679
S'Im'
p3680
aS'sure'
p3681
aS'we'
p3682
aS'can'
p3683
aS'work'
p3684
aS'something'
p3685
aS'else'
p3686
aS'out'
p3687
aS'for'
p3688
aS'you'
p3689
aaa(lp3690
S'TAMMY'
p3691
a(lp3692
S'mhm'
p3693
aaa(lp3694
S'BRAD'
p3695
a(lp3696
g8
aS'dont'
p3697
aS'know'
p3698
aaa(lp3699
S'TAMMY'
p3700
a(lp3701
S'okay'
p3702
aaa(lp3703
S'BRAD'
p3704
a(lp3705
aa(lp3706
g3704
a(lp3707
g133
aaa(lp3708
g3704
a(lp3709
S'lets'
p3710
aS'see'
p3711
aS'here'
p3712
aaa(lp3713
g3704
a(lp3714
S'um'
p3715
aaa(lp3716
g3704
a(lp3717
S'the'
p3718
aS'kay'
p3719
aS'one'
p3720
aS'eleven'
p3721
aaa(lp3722
g3704
a(lp3723
S'which'
p3724
aS'is'
p3725
aS'the'
p3726
aaa(lp3727
g3704
a(lp3728
S'the'
p3729
aS'basic'
p3730
aS'one'
p3731
aaa(lp3732
S'TAMMY'
p3733
a(lp3734
S'Right'
p3735
aaa(lp3736
S'BRAD'
p3737
a(lp3738
S'but'
p3739
ag133
aaa(lp3740
g3737
a(lp3741
g8
aS'dont'
p3742
aaa(lp3743
g3737
a(lp3744
S'When'
p3745
ag8
aS'say'
p3746
aS'basic'
p3747
aaa(lp3748
g3737
a(lp3749
g8
aS'mean'
p3750
aS'basic'
p3751
aS'in'
p3752
aS'their'
p3753
aS'line'
p3754
aaa(lp3755
S'TAMMY'
p3756
a(lp3757
S'Right'
p3758
aaa(lp3759
S'BRAD'
p3760
a(lp3761
S'its'
p3762
aS'still'
p3763
aS'very'
p3764
aS'good'
p3765
aaa(lp3766
S'TAMMY'
p3767
a(lp3768
S'Yeah'
p3769
aaa(lp3770
S'BRAD'
p3771
a(lp3772
S'uh'
p3773
aaa(lp3774
g3771
a(lp3775
S'youd'
p3776
aS'be'
p3777
aS'looking'
p3778
aS'at'
p3779
aS'three'
p3780
aS'hundred'
p3781
aS'fortynine'
p3782
aS'dollars'
p3783
aaa(lp3784
S'TAMMY'
p3785
a(lp3786
aa(lp3787
g3785
a(lp3788
S'nkay'
p3789
aaa(lp3790
S'BRAD'
p3791
a(lp3792
S'The'
p3793
aaa(lp3794
g3791
a(lp3795
S'uh'
p3796
aaa(lp3797
g3791
a(lp3798
S'lets'
p3799
aS'see'
p3800
aS'here'
p3801
aaa(lp3802
g3791
a(lp3803
S'the'
p3804
aS'kay'
p3805
aS'one'
p3806
aS'ten'
p3807
aaa(lp3808
S'TAMMY'
p3809
a(lp3810
S'mhm'
p3811
aaa(lp3812
S'BRAD'
p3813
a(lp3814
S'uh'
p3815
aaa(lp3816
g3813
a(lp3817
S'we'
p3818
aS'could'
p3819
aS'do'
p3820
aS'four'
p3821
aS'hundred'
p3822
aS'and'
p3823
aS'fortyfive'
p3824
aaa(lp3825
S'TAMMY'
p3826
a(lp3827
S'right'
p3828
aaa(lp3829
S'BRAD'
p3830
a(lp3831
S'and'
p3832
aS'the'
p3833
aS'kay'
p3834
aS'one'
p3835
aS'ten'
p3836
aS'doubleu'
p3837
aaa(lp3838
g3830
a(lp3839
S'uh'
p3840
aS'we'
p3841
aS'could'
p3842
aS'do'
p3843
aS'five'
p3844
aS'thirty'
p3845
aS'nine'
p3846
aaa(lp3847
S'TAMMY'
p3848
a(lp3849
S'mhm'
p3850
aaa(lp3851
g3848
a(lp3852
S'okay'
p3853
aaa(lp3854
g3848
a(lp3855
S'Well'
p3856
aaa(lp3857
g3848
a(lp3858
S'that'
p3859
aS'looks'
p3860
aS'great'
p3861
aaa(lp3862
S'BRAD'
p3863
a(lp3864
S'And'
p3865
ag8
aS'th'
p3866
aaa(lp3867
g3863
a(lp3868
g8
aS'believe'
p3869
aaa(lp3870
g3863
a(lp3871
S'theres'
p3872
aS'one'
p3873
aS'that'
p3874
aS'we'
p3875
aS'didnt'
p3876
aS'talk'
p3877
aS'about'
p3878
aaa(lp3879
g3863
a(lp3880
S'and'
p3881
aS'thats'
p3882
aS'the'
p3883
aS'kay'
p3884
aS'one'
p3885
aS'twelve'
p3886
aaa(lp3887
S'TAMMY'
p3888
a(lp3889
S'Mhm'
p3890
aaa(lp3891
S'BRAD'
p3892
a(lp3893
S'Okay'
p3894
aaa(lp3895
g3892
a(lp3896
S'and'
p3897
aS'the'
p3898
aS'kay'
p3899
aS'one'
p3900
aS'twelve'
p3901
aS'is'
p3902
aS'basically'
p3903
aS'the'
p3904
aS'audiophiles'
p3905
aS'dream'
p3906
aS'cassette'
p3907
aS'deck'
p3908
aaa(lp3909
S'TAMMY'
p3910
a(lp3911
aa(lp3912
S'BRAD'
p3913
a(lp3914
S'Okay'
p3915
aaa(lp3916
S'TAMMY'
p3917
a(lp3918
S'mhm'
p3919
aaa(lp3920
S'BRAD'
p3921
a(lp3922
S'its'
p3923
ag38
aaa(lp3924
g3921
a(lp3925
S'its'
p3926
ag38
aS'single'
p3927
aS'cassette'
p3928
aaa(lp3929
g3921
a(lp3930
S'and'
p3931
aS'its'
p3932
aS'single'
p3933
aS'direction'
p3934
aaa(lp3935
S'TAMMY'
p3936
a(lp3937
S'mhm'
p3938
aaa(lp3939
S'BRAD'
p3940
a(lp3941
S'where'
p3942
aS'it'
p3943
aS'doesnt'
p3944
aS'flip'
p3945
aS'over'
p3946
aS'by'
p3947
aS'itself'
p3948
aaa(lp3949
S'TAMMY'
p3950
a(lp3951
S'right'
p3952
aaa(lp3953
S'BRAD'
p3954
a(lp3955
S'What'
p3956
aS'sets'
p3957
aS'it'
p3958
aS'apart'
p3959
aaa(lp3960
g3954
a(lp3961
S'is'
p3962
aS'it'
p3963
aS'has'
p3964
aS'three'
p3965
aS'discrete'
p3966
aS'heads'
p3967
aaa(lp3968
S'TAMMY'
p3969
a(lp3970
S'hunh'
p3971
aaa(lp3972
S'BRAD'
p3973
a(lp3974
S'Okay'
p3975
aaa(lp3976
g3973
a(lp3977
S'and'
p3978
aS'this'
p3979
aS'will'
p3980
aS'make'
p3981
ag38
aS'superior'
p3982
aS'tape'
p3983
aS'copy'
p3984
aaa(lp3985
S'TAMMY'
p3986
a(lp3987
S'Hm'
p3988
aaa(lp3989
S'BRAD'
p3990
a(lp3991
S'um'
p3992
aaa(lp3993
g3990
a(lp3994
S'or'
p3995
ag38
aS'superior'
p3996
aS'tape'
p3997
aS'period'
p3998
aaa(lp3999
g3990
a(lp4000
S'Um'
p4001
aaa(lp4002
S'TAMMY'
p4003
a(lp4004
S'Hm'
p4005
aaa(lp4006
S'BRAD'
p4007
a(lp4008
S'because'
p4009
aS'it'
p4010
aS'has'
p4011
aS'three'
p4012
aS'heads'
p4013
aaa(lp4014
S'TAMMY'
p4015
a(lp4016
S'Hm'
p4017
aaa(lp4018
S'BRAD'
p4019
a(lp4020
S'And'
p4021
aS'what'
p4022
aS'it'
p4023
aS'does'
p4024
aaa(lp4025
g4019
a(lp4026
S'is'
p4027
aS'that'
p4028
aS'it'
p4029
aS'has'
p4030
ag38
aS'separate'
p4031
aS'head'
p4032
aS'for'
p4033
aS'record'
p4034
aaa(lp4035
g4019
a(lp4036
g38
aS'separate'
p4037
aS'head'
p4038
aS'for'
p4039
aS'play'
p4040
aaa(lp4041
S'TAMMY'
p4042
a(lp4043
S'Hm'
p4044
aaa(lp4045
S'BRAD'
p4046
a(lp4047
S'Where'
p4048
aS'most'
p4049
aS'decks'
p4050
aS'have'
p4051
ag38
aS'combination'
p4052
aS'record'
p4053
aS'play'
p4054
aS'head'
p4055
aaa(lp4056
S'TAMMY'
p4057
a(lp4058
S'Unhunh'
p4059
aaa(lp4060
S'BRAD'
p4061
a(lp4062
S'And'
p4063
aaa(lp4064
g4061
a(lp4065
S'um'
p4066
aaa(lp4067
g4061
a(lp4068
S'this'
p4069
aS'also'
p4070
aS'has'
p4071
aS'some'
p4072
aS'adjustments'
p4073
aS'on'
p4074
aS'it'
p4075
aaa(lp4076
g4061
a(lp4077
S'uh'
p4078
aS'such'
p4079
aS'as'
p4080
aS'bias'
p4081
aS'fine'
p4082
aS'trim'
p4083
aaa(lp4084
S'TAMMY'
p4085
a(lp4086
S'Hm'
p4087
aaa(lp4088
S'BRAD'
p4089
a(lp4090
S'uh'
p4091
aaa(lp4092
g4089
a(lp4093
S'which'
p4094
aS'allows'
p4095
aS'you'
p4096
aS'to'
p4097
aaa(lp4098
g4089
a(lp4099
S'tailor'
p4100
aS'the'
p4101
aS'cassette'
p4102
aS'decks'
p4103
aS'electronics'
p4104
aaa(lp4105
g4089
a(lp4106
S'to'
p4107
aS'the'
p4108
aS'specific'
p4109
aS'tape'
p4110
aS'youre'
p4111
aS'using'
p4112
aaa(lp4113
S'TAMMY'
p4114
a(lp4115
S'Mhm'
p4116
aaa(lp4117
S'BRAD'
p4118
a(lp4119
S'So'
p4120
aS'obviously'
p4121
aS'you'
p4122
aS'can'
p4123
aS'see'
p4124
aS'theres'
p4125
aaa(lp4126
S'TAMMY'
p4127
a(lp4128
S'right'
p4129
aaa(lp4130
S'BRAD'
p4131
a(lp4132
g38
aS'b'
p4133
aaa(lp4134
g4131
a(lp4135
g38
aS'bit'
p4136
aS'more'
p4137
aS'involved'
p4138
aS'with'
p4139
aS'it'
p4140
aaa(lp4141
S'TAMMY'
p4142
a(lp4143
S'Yeah'
p4144
aaa(lp4145
g4142
a(lp4146
S'Yeah'
p4147
aaa(lp4148
S'BRAD'
p4149
a(lp4150
S'For'
p4151
aS'the'
p4152
aS'purist'
p4153
aaa(lp4154
g4149
a(lp4155
S'this'
p4156
aS'is'
p4157
aS'the'
p4158
aS'way'
p4159
aS'to'
p4160
aS'go'
p4161
aaa(lp4162
g4149
a(lp4163
S'YWN'
p4164
aS'Here'
p4165
aS'youre'
p4166
aS'looking'
p4167
aS'at'
p4168
aS'six'
p4169
aS'hundred'
p4170
aS'dollars'
p4171
aS'YWN'
p4172
aaa(lp4173
S'TAMMY'
p4174
a(lp4175
S'Okay'
p4176
aaa(lp4177
S'BRAD'
p4178
a(lp4179
aa(lp4180
S'TAMMY'
p4181
a(lp4182
S'Okay'
p4183
aaa(lp4184
g4181
a(lp4185
S'Right'
p4186
aaa(lp4187
g4181
a(lp4188
S'Okay'
p4189
aaa(lp4190
g4181
a(lp4191
S'well'
p4192
aS'this'
p4193
aS'is'
p4194
aS'very'
p4195
aS'helpful'
p4196
aaa(lp4197
g4181
a(lp4198
S'Let'
p4199
aS'me'
p4200
aS'ask'
p4201
aS'you'
p4202
aS'one'
p4203
aS'other'
p4204
aS'thing'
p4205
aaa(lp4206
S'BRAD'
p4207
a(lp4208
g30
aaa(lp4209
S'TAMMY'
p4210
a(lp4211
S'Suppose'
p4212
aS'that'
p4213
aaa(lp4214
g4210
a(lp4215
g8
aS'wanna'
p4216
aS'use'
p4217
aS'this'
p4218
aS'tape'
p4219
aS'deck'
p4220
aaa(lp4221
g4210
a(lp4222
S'to'
p4223
aS'record'
p4224
aaa(lp4225
g4210
a(lp4226
S'um'
p4227
aaa(lp4228
g4210
a(lp4229
S'conversation'
p4230
aaa(lp4231
g4210
a(lp4232
S'Like'
p4233
aS'we'
p4234
aS'do'
p4235
aS'in'
p4236
aaa(lp4237
g4210
a(lp4238
g30
aS'in'
p4239
ag30
aS'linguistics'
p4240
aaa(lp4241
g4210
a(lp4242
S'Between'
p4243
aS'Matt'
p4244
aS'and'
p4245
aS'me'
p4246
aaa(lp4247
g4210
a(lp4248
S'or'
p4249
aS'something'
p4250
aS'like'
p4251
aS'that'
p4252
aaa(lp4253
S'BRAD'
p4254
a(lp4255
S'Okay'
p4256
aaa(lp4257
S'TAMMY'
p4258
a(lp4259
S'Then'
p4260
aaa(lp4261
g4258
a(lp4262
S'how'
p4263
aS'does'
p4264
aS'it'
p4265
aS'work'
p4266
aaa(lp4267
g4258
a(lp4268
S'Lets'
p4269
aS'say'
p4270
aS'go'
p4271
aS'back'
p4272
aS'to'
p4273
aS'the'
p4274
aS'kay'
p4275
aS'one'
p4276
aS'ten'
p4277
aaa(lp4278
S'BRAD'
p4279
a(lp4280
S'Uh'
p4281
aaa(lp4282
S'TAMMY'
p4283
a(lp4284
S'Or'
p4285
aS'the'
p4286
aS'one'
p4287
aaa(lp4288
S'BRAD'
p4289
a(lp4290
S'theres'
p4291
aS'one'
p4292
aS'deck'
p4293
aS'here'
p4294
aaa(lp4295
g4289
a(lp4296
g8
aS'think'
p4297
aaa(lp4298
g4289
a(lp4299
S'thats'
p4300
aS'set'
p4301
aS'up'
p4302
aS'for'
p4303
aS'that'
p4304
aaa(lp4305
S'TAMMY'
p4306
a(lp4307
S'or'
p4308
aS'the'
p4309
aS'one'
p4310
aS'el'
p4311
aS'eleven'
p4312
aaa(lp4313
S'BRAD'
p4314
a(lp4315
S'Lets'
p4316
aS'take'
p4317
ag38
aS'look'
p4318
aS'here'
p4319
aaa(lp4320
g4314
a(lp4321
S'The'
p4322
aS'kay'
p4323
aS'one'
p4324
aS'ten'
p4325
aaa(lp4326
S'TAMMY'
p4327
a(lp4328
S'Mhm'
p4329
aaa(lp4330
S'BRAD'
p4331
a(lp4332
S'has'
p4333
aS'provisions'
p4334
aaa(lp4335
g4331
a(lp4336
S'for'
p4337
aS'microphones'
p4338
aaa(lp4339
g4331
a(lp4340
S'on'
p4341
aS'the'
p4342
aS'front'
p4343
aaa(lp4344
S'TAMMY'
p4345
a(lp4346
S'unhunh'
p4347
aaa(lp4348
S'BRAD'
p4349
a(lp4350
S'And'
p4351
aS'its'
p4352
aS'one'
p4353
aS'of'
p4354
aS'the'
p4355
aS'few'
p4356
aS'cassette'
p4357
aS'decks'
p4358
aaa(lp4359
S'TAMMY'
p4360
a(lp4361
S'Okay'
p4362
aaa(lp4363
S'BRAD'
p4364
a(lp4365
S'made'
p4366
aS'for'
p4367
aS'the'
p4368
aS'consumer'
p4369
aS'hi'
p4370
aS'fi'
p4371
aS'market'
p4372
aS'today'
p4373
aaa(lp4374
S'TAMMY'
p4375
a(lp4376
aa(lp4377
S'BRAD'
p4378
a(lp4379
S'that'
p4380
aS'do'
p4381
aS'have'
p4382
aS'that'
p4383
aaa(lp4384
S'TAMMY'
p4385
a(lp4386
S'okay'
p4387
aaa(lp4388
S'BRAD'
p4389
a(lp4390
S'And'
p4391
aS'so'
p4392
aaa(lp4393
g4389
a(lp4394
S'you'
p4395
aS'can'
p4396
aS'plug'
p4397
aS'in'
p4398
aS'one'
p4399
aS'microphone'
p4400
aaa(lp4401
S'TAMMY'
p4402
a(lp4403
S'Yeah'
p4404
aaa(lp4405
S'BRAD'
p4406
a(lp4407
S'uh'
p4408
aaa(lp4409
g4406
a(lp4410
S'where'
p4411
aS'it'
p4412
aS'has'
p4413
ag38
aS'position'
p4414
aaa(lp4415
g4406
a(lp4416
S'uh'
p4417
aaa(lp4418
g4406
a(lp4419
S'thats'
p4420
aS'mono'
p4421
aaa(lp4422
S'TAMMY'
p4423
a(lp4424
S'Mhhunh'
p4425
aaa(lp4426
S'BRAD'
p4427
a(lp4428
S'and'
p4429
aS'it'
p4430
aS'will'
p4431
aS'record'
p4432
aS'it'
p4433
aS'on'
p4434
aS'both'
p4435
aS'tracks'
p4436
aS'of'
p4437
aS'it'
p4438
aaa(lp4439
S'TAMMY'
p4440
a(lp4441
S'Mhm'
p4442
aaa(lp4443
S'BRAD'
p4444
a(lp4445
aa(lp4446
S'TAMMY'
p4447
a(lp4448
S'mhm'
p4449
aaa(lp4450
S'BRAD'
p4451
a(lp4452
S'and'
p4453
aS'then'
p4454
aS'if'
p4455
aS'you'
p4456
aS'want'
p4457
aaa(lp4458
S'TAMMY'
p4459
a(lp4460
S'hm'
p4461
aaa(lp4462
S'BRAD'
p4463
a(lp4464
S'you'
p4465
aS'can'
p4466
aS'plug'
p4467
aS'in'
p4468
aS'two'
p4469
aS'mics'
p4470
aaa(lp4471
g4463
a(lp4472
S'and'
p4473
aS'it'
p4474
aS'senses'
p4475
aS'when'
p4476
aS'you'
p4477
aS'plug'
p4478
aS'in'
p4479
aS'the'
p4480
aS'second'
p4481
aS'mic'
p4482
aaa(lp4483
S'TAMMY'
p4484
a(lp4485
S'Hm'
p4486
aaa(lp4487
g4484
a(lp4488
S'okay'
p4489
aaa(lp4490
S'BRAD'
p4491
a(lp4492
S'and'
p4493
aS'so'
p4494
aS'itll'
p4495
aS'record'
p4496
aS'in'
p4497
aS'stereo'
p4498
aaa(lp4499
S'TAMMY'
p4500
a(lp4501
aa(lp4502
g4500
a(lp4503
S'Okay'
p4504
aaa(lp4505
S'BRAD'
p4506
a(lp4507
S'And'
p4508
aS'then'
p4509
aS'it'
p4510
aS'has'
p4511
ag38
aS'record'
p4512
aS'level'
p4513
aS'on'
p4514
aS'it'
p4515
aaa(lp4516
S'TAMMY'
p4517
a(lp4518
S'Hmhm'
p4519
aaa(lp4520
S'BRAD'
p4521
a(lp4522
S'so'
p4523
aS'you'
p4524
aS'can'
p4525
aS'adjust'
p4526
aS'the'
p4527
aS'record'
p4528
aS'level'
p4529
aaa(lp4530
S'TAMMY'
p4531
a(lp4532
S'mhm'
p4533
aaa(lp4534
S'BRAD'
p4535
a(lp4536
S'dependent'
p4537
aS'on'
p4538
aS'how'
p4539
aS'loud'
p4540
aS'youre'
p4541
aS'talking'
p4542
aaa(lp4543
S'TAMMY'
p4544
a(lp4545
S'mhm'
p4546
aaa(lp4547
S'BRAD'
p4548
a(lp4549
S'and'
p4550
aS'then'
p4551
aS'also'
p4552
aS'the'
p4553
aS'type'
p4554
aS'of'
p4555
aS'tape'
p4556
aS'youre'
p4557
aS'using'
p4558
aaa(lp4559
S'TAMMY'
p4560
a(lp4561
S'mhm'
p4562
aaa(lp4563
S'BRAD'
p4564
a(lp4565
S'and'
p4566
aS'the'
p4567
aS'level'
p4568
aS'you'
p4569
aS'want'
p4570
aS'on'
p4571
aS'the'
p4572
aS'tape'
p4573
aaa(lp4574
S'TAMMY'
p4575
a(lp4576
S'hm'
p4577
aaa(lp4578
g4575
a(lp4579
S'Hm'
p4580
aaa(lp4581
S'BRAD'
p4582
a(lp4583
S'Uh'
p4584
aaa(lp4585
g4582
a(lp4586
S'so'
p4587
aS'the'
p4588
aS'kay'
p4589
aS'one'
p4590
aS'ten'
p4591
aS'would'
p4592
aS'be'
p4593
aS'set'
p4594
aS'up'
p4595
aS'for'
p4596
aS'that'
p4597
aaa(lp4598
S'TAMMY'
p4599
a(lp4600
S'Hunh'
p4601
aaa(lp4602
S'BRAD'
p4603
a(lp4604
S'Any'
p4605
aS'of'
p4606
aS'the'
p4607
aS'other'
p4608
aaa(lp4609
g4603
a(lp4610
S'um'
p4611
aaa(lp4612
g4603
a(lp4613
S'cassette'
p4614
aS'decks'
p4615
aS'here'
p4616
aaa(lp4617
S'TAMMY'
p4618
a(lp4619
S'Mhm'
p4620
aaa(lp4621
S'BRAD'
p4622
a(lp4623
S'the'
p4624
aS'kay'
p4625
aS'one'
p4626
aS'eleven'
p4627
aS'has'
p4628
aS'it'
p4629
aS'too'
p4630
aaa(lp4631
g4622
a(lp4632
g8
aS'Take'
p4633
aaa(lp4634
S'TAMMY'
p4635
a(lp4636
S'hunh'
p4637
aaa(lp4638
S'BRAD'
p4639
a(lp4640
g8
aaa(lp4641
g4639
a(lp4642
g8
aS'take'
p4643
aS'it'
p4644
aS'back'
p4645
aaa(lp4646
S'TAMMY'
p4647
a(lp4648
S'Huh'
p4649
aaa(lp4650
S'BRAD'
p4651
a(lp4652
g8
aS'didnt'
p4653
aS'think'
p4654
aS'the'
p4655
aS'kay'
p4656
aS'ele'
p4657
aS'lev'
p4658
aS'one'
p4659
aS'eleven'
p4660
aS'did'
p4661
aaa(lp4662
S'TAMMY'
p4663
a(lp4664
S'Unhunh'
p4665
aaa(lp4666
g4663
a(lp4667
S'unhunh'
p4668
aaa(lp4669
S'BRAD'
p4670
a(lp4671
S'Okay'
p4672
aS'its'
p4673
aS'the'
p4674
aaa(lp4675
g4670
a(lp4676
S'its'
p4677
aS'the'
p4678
aS'dual'
p4679
aS'one'
p4680
aS'that'
p4681
aS'doesnt'
p4682
aaa(lp4683
S'TAMMY'
p4684
a(lp4685
S'okay'
p4686
aaa(lp4687
S'BRAD'
p4688
a(lp4689
S'The'
p4690
aS'dual'
p4691
aS'one'
p4692
aS'does'
p4693
aS'not'
p4694
aS'have'
p4695
aS'those'
p4696
aS'provisions'
p4697
aaa(lp4698
g4688
a(lp4699
S'now'
p4700
aS'that'
p4701
aS'doesnt'
p4702
aS'mean'
p4703
aS'that'
p4704
aS'it'
p4705
aS'cannot'
p4706
aS'be'
p4707
aS'done'
p4708
aaa(lp4709
S'TAMMY'
p4710
a(lp4711
S'Right'
p4712
aaa(lp4713
S'BRAD'
p4714
a(lp4715
S'What'
p4716
aS'has'
p4717
aS'to'
p4718
aS'happen'
p4719
aS'then'
p4720
aS'is'
p4721
aaa(lp4722
g4714
a(lp4723
S'uh'
p4724
aaa(lp4725
g4714
a(lp4726
S'one'
p4727
ag38
aaa(lp4728
S'TAMMY'
p4729
a(lp4730
S'Mhm'
p4731
aaa(lp4732
S'BRAD'
p4733
a(lp4734
g38
aS'separate'
p4735
aS'outboard'
p4736
aS'piece'
p4737
aaa(lp4738
g4733
a(lp4739
S'called'
p4740
ag38
aS'microphone'
p4741
aS'amp'
p4742
aaa(lp4743
S'TAMMY'
p4744
a(lp4745
S'okay'
p4746
aaa(lp4747
S'BRAD'
p4748
a(lp4749
S'Okay'
p4750
aaa(lp4751
g4748
a(lp4752
S'and'
p4753
aS'so'
p4754
aS'what'
p4755
aS'happens'
p4756
aS'is'
p4757
aaa(lp4758
g4748
a(lp4759
S'your'
p4760
aS'mic'
p4761
aS'runs'
p4762
aS'into'
p4763
aS'it'
p4764
aaa(lp4765
S'TAMMY'
p4766
a(lp4767
S'Mhm'
p4768
aaa(lp4769
S'BRAD'
p4770
a(lp4771
S'and'
p4772
aS'then'
p4773
aS'it'
p4774
aS'plugs'
p4775
aS'into'
p4776
aS'your'
p4777
aS'receiver'
p4778
aaa(lp4779
S'TAMMY'
p4780
a(lp4781
S'mhm'
p4782
aaa(lp4783
S'BRAD'
p4784
a(lp4785
S'into'
p4786
aS'one'
p4787
aS'of'
p4788
aS'its'
p4789
aS'inputs'
p4790
aaa(lp4791
S'TAMMY'
p4792
a(lp4793
S'okay'
p4794
aaa(lp4795
S'BRAD'
p4796
a(lp4797
S'And'
p4798
aS'so'
p4799
aS'one'
p4800
aS'of'
p4801
aS'your'
p4802
aS'inputs'
p4803
aS'on'
p4804
aS'your'
p4805
aS'receiver'
p4806
aaa(lp4807
S'TAMMY'
p4808
a(lp4809
aa(lp4810
S'BRAD'
p4811
a(lp4812
S'lets'
p4813
aS'say'
p4814
aS'tape'
p4815
aS'two'
p4816
aaa(lp4817
S'TODD'
p4818
a(lp4819
S'YELL'
p4820
ag30
aS'Paul'
p4821
ag30
aaa(lp4822
S'TAMMY'
p4823
a(lp4824
S'Mhm'
p4825
aaa(lp4826
S'BRAD'
p4827
a(lp4828
S'would'
p4829
aS'actually'
p4830
aS'be'
p4831
ag38
aS'microphone'
p4832
aaa(lp4833
S'TODD'
p4834
a(lp4835
S'run'
p4836
aaa(lp4837
g4834
a(lp4838
S'run'
p4839
aaa(lp4840
S'TAMMY'
p4841
a(lp4842
S'mhm'
p4843
aaa(lp4844
S'TODD'
p4845
a(lp4846
S'Yeah'
p4847
aaa(lp4848
S'BRAD'
p4849
a(lp4850
S'And'
p4851
aS'so'
p4852
aS'you'
p4853
aS'would'
p4854
aS'hit'
p4855
aS'that'
p4856
aaa(lp4857
S'TODD'
p4858
a(lp4859
S'Yeah'
p4860
aaa(lp4861
S'TAMMY'
p4862
a(lp4863
S'mhm'
p4864
aaa(lp4865
S'BRAD'
p4866
a(lp4867
S'and'
p4868
aS'that'
p4869
aS'would'
p4870
aaa(lp4871
g4866
a(lp4872
S'um'
p4873
aaa(lp4874
S'TODD'
p4875
a(lp4876
S'Paul'
p4877
aS'saved'
p4878
aS'my'
p4879
aS'ass'
p4880
aS'YELL'
p4881
aaa(lp4882
S'BRAD'
p4883
a(lp4884
S'go'
p4885
aS'over'
p4886
aaa(lp4887
S'TAMMY'
p4888
a(lp4889
S'mhm'
p4890
aaa(lp4891
S'BRAD'
p4892
a(lp4893
S'um'
p4894
aaa(lp4895
S'TAMMY'
p4896
a(lp4897
S'nkay'
p4898
aaa(lp4899
S'BRAD'
p4900
a(lp4901
S'into'
p4902
aS'your'
p4903
aS'tape'
p4904
aS'deck'
p4905
aaa(lp4906
g4900
a(lp4907
S'if'
p4908
aS'you'
p4909
aS'wanted'
p4910
aS'to'
p4911
aS'record'
p4912
ag38
aS'tape'
p4913
aaa(lp4914
S'TAMMY'
p4915
a(lp4916
S'Right'
p4917
aaa(lp4918
g4915
a(lp4919
S'Right'
p4920
aaa(lp4921
g4915
a(lp4922
S'Okay'
p4923
aaa(lp4924
g4915
a(lp4925
S'So'
p4926
aS'um'
p4927
aaa(lp4928
g4915
a(lp4929
g2052
aaa(lp4930
S'BRAD'
p4931
a(lp4932
S'So'
p4933
aS'the'
p4934
aS'kay'
p4935
aS'one'
p4936
aS'ten'
p4937
aaa(lp4938
g4931
a(lp4939
S'which'
p4940
aS'is'
p4941
aS'the'
p4942
aS'single'
p4943
aS'auto'
p4944
aS'reverse'
p4945
aaa(lp4946
S'TAMMY'
p4947
a(lp4948
S'Yeah'
p4949
aaa(lp4950
S'BRAD'
p4951
a(lp4952
S'has'
p4953
aS'the'
p4954
aS'mic'
p4955
aS'provisions'
p4956
aaa(lp4957
S'TAMMY'
p4958
a(lp4959
S'Right'
p4960
aaa(lp4961
S'BRAD'
p4962
a(lp4963
S'has'
p4964
aS'the'
p4965
aS'mic'
p4966
aS'provisions'
p4967
aaa(lp4968
S'TAMMY'
p4969
a(lp4970
S'And'
p4971
aS'sos'
p4972
aS'the'
p4973
aS'kay'
p4974
aS'one'
p4975
aaa(lp4976
g4969
a(lp4977
S'Okay'
p4978
aaa(lp4979
g4969
a(lp4980
S'Great'
p4981
aaa(lp4982
g4969
a(lp4983
S'Okay'
p4984
aaa(lp4985
S'BRAD'
p4986
a(lp4987
S'The'
p4988
ag4133
aaa(lp4989
g4986
a(lp4990
S'the'
p4991
aS'benefit'
p4992
aS'of'
p4993
aS'the'
p4994
aS'one'
p4995
aS'ten'
p4996
aaa(lp4997
g4986
a(lp4998
S'The'
p4999
aS'big'
p5000
aS'benefit'
p5001
aS'is'
p5002
aS'the'
p5003
aS'auto'
p5004
aS'reverse'
p5005
aaa(lp5006
S'TAMMY'
p5007
a(lp5008
S'Right'
p5009
aaa(lp5010
S'BRAD'
p5011
a(lp5012
S'Um'
p5013
aaa(lp5014
S'TAMMY'
p5015
a(lp5016
S'Im'
p5017
aS'one'
p5018
aS'of'
p5019
aS'these'
p5020
aS'weird'
p5021
aS'people'
p5022
aS'that'
p5023
aS'has'
p5024
aS'trouble'
p5025
aS'with'
p5026
aS'auto'
p5027
aS'reverse'
p5028
aaa(lp5029
S'BRAD'
p5030
a(lp5031
S'oh'
p5032
aS'yeah'
p5033
aaa(lp5034
S'TAMMY'
p5035
a(lp5036
g8
aS'dont'
p5037
aS'know'
p5038
aS'why'
p5039
aaa(lp5040
g5035
a(lp5041
S'The'
p5042
aS'first'
p5043
aS'time'
p5044
aaa(lp5045
g5035
a(lp5046
g8
aS'mean'
p5047
aaa(lp5048
g5035
a(lp5049
S'this'
p5050
aS'is'
p5051
aS'the'
p5052
aS'first'
p5053
aS'time'
p5054
aS'Ive'
p5055
aS'had'
p5056
aS'it'
p5057
aaa(lp5058
g5035
a(lp5059
S'on'
p5060
aS'my'
p5061
aS'boombox'
p5062
aaa(lp5063
g5035
a(lp5064
S'And'
p5065
aS'for'
p5066
aS'some'
p5067
aS'reason'
p5068
aaa(lp5069
g5035
a(lp5070
S'maybe'
p5071
ag8
aS'just'
p5072
aS'have'
p5073
aS'to'
p5074
aS'learn'
p5075
aaa(lp5076
g5035
a(lp5077
S'when'
p5078
ag8
aS'put'
p5079
aS'the'
p5080
aS'tape'
p5081
aS'in'
p5082
aaa(lp5083
g5035
a(lp5084
g8
aS'never'
p5085
aS'know'
p5086
aS'which'
p5087
aS'direction'
p5088
aS'its'
p5089
aS'gonna'
p5090
aS'go'
p5091
aaa(lp5092
g5035
a(lp5093
S'So'
p5094
ag8
aS'have'
p5095
ag38
aS'hard'
p5096
aS'time'
p5097
aS'finding'
p5098
aaa(lp5099
S'BRAD'
p5100
a(lp5101
S'What'
p5102
aS'you'
p5103
aS'want'
p5104
aaa(lp5105
S'TAMMY'
p5106
a(lp5107
S'making'
p5108
aS'it'
p5109
aS'play'
p5110
aS'what'
p5111
ag8
aS'want'
p5112
aS'it'
p5113
aS'to'
p5114
aS'play'
p5115
aaa(lp5116
S'BRAD'
p5117
a(lp5118
S'Okay'
p5119
aaa(lp5120
g5117
a(lp5121
S'The'
p5122
aS'way'
p5123
aS'it'
p5124
aS'usually'
p5125
aS'works'
p5126
aS'is'
p5127
aaa(lp5128
S'TAMMY'
p5129
a(lp5130
aa(lp5131
S'BRAD'
p5132
a(lp5133
S'um'
p5134
aaa(lp5135
S'TAMMY'
p5136
a(lp5137
aa(lp5138
S'BRAD'
p5139
a(lp5140
S'the'
p5141
aS'side'
p5142
aS'of'
p5143
aS'the'
p5144
aS'tape'
p5145
aS'thats'
p5146
aS'out'
p5147
aaa(lp5148
g5139
a(lp5149
S'Or'
p5150
aS'facing'
p5151
aS'you'
p5152
aaa(lp5153
g5139
a(lp5154
S'that'
p5155
aS'label'
p5156
aS'side'
p5157
aaa(lp5158
S'TAMMY'
p5159
a(lp5160
S'Mhm'
p5161
aaa(lp5162
g5159
a(lp5163
S'mhm'
p5164
aaa(lp5165
S'BRAD'
p5166
a(lp5167
S'corresponds'
p5168
aS'with'
p5169
aS'the'
p5170
aS'arrow'
p5171
aaa(lp5172
g5166
a(lp5173
S'that'
p5174
aS'will'
p5175
aS'point'
p5176
aS'to'
p5177
aS'the'
p5178
aS'right'
p5179
aaa(lp5180
g5166
a(lp5181
S'Theres'
p5182
aS'usually'
p5183
aS'two'
p5184
aS'little'
p5185
aS'arrows'
p5186
aS'that'
p5187
aS'will'
p5188
aS'light'
p5189
aS'up'
p5190
aaa(lp5191
S'TAMMY'
p5192
a(lp5193
S'nkay'
p5194
aaa(lp5195
g5192
a(lp5196
S'Yeah'
p5197
aaa(lp5198
S'BRAD'
p5199
a(lp5200
S'telling'
p5201
aS'you'
p5202
aS'which'
p5203
aS'direction'
p5204
aS'its'
p5205
aS'playing'
p5206
aaa(lp5207
S'TAMMY'
p5208
a(lp5209
S'right'
p5210
aaa(lp5211
g5208
a(lp5212
S'Right'
p5213
aaa(lp5214
S'BRAD'
p5215
a(lp5216
S'Okay'
p5217
aS'the'
p5218
aS'arrow'
p5219
aS'that'
p5220
aS'points'
p5221
aS'to'
p5222
aS'the'
p5223
aS'right'
p5224
aaa(lp5225
S'TAMMY'
p5226
a(lp5227
g8
aS'see'
p5228
aaa(lp5229
S'BRAD'
p5230
a(lp5231
S'is'
p5232
aaa(lp5233
g5230
a(lp5234
S'the'
p5235
aS'label'
p5236
aS'side'
p5237
aS'of'
p5238
aS'the'
p5239
aS'tape'
p5240
aS'thats'
p5241
aS'facing'
p5242
aS'you'
p5243
aaa(lp5244
S'TAMMY'
p5245
a(lp5246
S'Okay'
p5247
aaa(lp5248
S'BRAD'
p5249
a(lp5250
S'That'
p5251
aS'you'
p5252
aS'can'
p5253
aS'see'
p5254
aaa(lp5255
S'TAMMY'
p5256
a(lp5257
S'Okay'
p5258
aaa(lp5259
S'BRAD'
p5260
a(lp5261
S'Okay'
p5262
aS'thats'
p5263
aS'the'
p5264
aS'way'
p5265
aS'it'
p5266
aS'usually'
p5267
aS'works'
p5268
aaa(lp5269
S'TAMMY'
p5270
a(lp5271
S'Okay'
p5272
aaa(lp5273
S'BRAD'
p5274
a(lp5275
S'Now'
p5276
aS'the'
p5277
aS'other'
p5278
aS'thing'
p5279
aS'that'
p5280
aS'throws'
p5281
aS'people'
p5282
aS'off'
p5283
aS'is'
p5284
aaa(lp5285
S'TAMMY'
p5286
a(lp5287
aa(lp5288
S'BRAD'
p5289
a(lp5290
S'fast'
p5291
aS'forward'
p5292
aS'and'
p5293
aS'rewind'
p5294
aaa(lp5295
S'TAMMY'
p5296
a(lp5297
S'Mhm'
p5298
aaa(lp5299
S'BRAD'
p5300
a(lp5301
S'will'
p5302
aS'vary'
p5303
aaa(lp5304
g5300
a(lp5305
S'depending'
p5306
aS'on'
p5307
aS'which'
p5308
aS'side'
p5309
aS'of'
p5310
aS'the'
p5311
aS'tape'
p5312
aS'youre'
p5313
aS'on'
p5314
aaa(lp5315
S'TAMMY'
p5316
a(lp5317
S'right'
p5318
aaa(lp5319
g5316
a(lp5320
S'Right'
p5321
aaa(lp5322
g5316
a(lp5323
S'Right'
p5324
aaa(lp5325
S'BRAD'
p5326
a(lp5327
S'Okay'
p5328
aaa(lp5329
g5326
a(lp5330
S'thats'
p5331
aS'what'
p5332
aS'throws'
p5333
aS'people'
p5334
aS'off'
p5335
aaa(lp5336
S'TAMMY'
p5337
a(lp5338
S'Yeah'
p5339
aaa(lp5340
S'BRAD'
p5341
a(lp5342
S'all'
p5343
aS'the'
p5344
aS'time'
p5345
aaa(lp5346
S'TAMMY'
p5347
a(lp5348
S'Yeah'
p5349
aaa(lp5350
g5347
a(lp5351
g8
aS'just'
p5352
aS'um'
p5353
aaa(lp5354
g5347
a(lp5355
S'Ill'
p5356
aaa(lp5357
g5347
a(lp5358
S'Ill'
p5359
aS'work'
p5360
aS'on'
p5361
aS'getting'
p5362
aS'used'
p5363
aS'to'
p5364
aS'that'
p5365
aaa(lp5366
g5347
a(lp5367
S'But'
p5368
ag8
aS'just'
p5369
aS'might'
p5370
aS'go'
p5371
aS'with'
p5372
aS'the'
p5373
aS'single'
p5374
aaa(lp5375
g5347
a(lp5376
S'you'
p5377
aS'know'
p5378
aaa(lp5379
g5347
a(lp5380
S'the'
p5381
aS'one'
p5382
aS'that'
p5383
ag8
aS'have'
p5384
aS'to'
p5385
aS'turn'
p5386
aS'it'
p5387
aS'over'
p5388
aaa(lp5389
S'BRAD'
p5390
a(lp5391
S'HI'
p5392
aS'Oh'
p5393
aaa(lp5394
S'TAMMY'
p5395
a(lp5396
g8
aS'mean'
p5397
aaa(lp5398
S'BRAD'
p5399
a(lp5400
S'you'
p5401
aS'know'
p5402
aaa(lp5403
g5399
a(lp5404
S'thats'
p5405
aS'fine'
p5406
aS'HI'
p5407
aaa(lp5408
S'TAMMY'
p5409
a(lp5410
S'you'
p5411
aS'know'
p5412
aaa(lp5413
S'BRAD'
p5414
a(lp5415
S'Thats'
p5416
aS'fine'
p5417
aaa(lp5418
g5414
a(lp5419
S'Um'
p5420
aaa(lp5421
S'TAMMY'
p5422
a(lp5423
aa(lp5424
S'BRAD'
p5425
a(lp5426
S'Im'
p5427
aS'trying'
p5428
aaa(lp5429
g5425
a(lp5430
g8
aS'mean'
p5431
ag8
aS'had'
p5432
ag38
aS'couple'
p5433
aS'recently'
p5434
aaa(lp5435
g5425
a(lp5436
S'uh'
p5437
aaa(lp5438
g5425
a(lp5439
S'Bodeckers'
p5440
aaa(lp5441
g5425
a(lp5442
S'uh'
p5443
aaa(lp5444
g5425
a(lp5445
S'got'
p5446
aS'the'
p5447
aS'kay'
p5448
aS'one'
p5449
aS'eleven'
p5450
aaa(lp5451
g5425
a(lp5452
S'and'
p5453
aaa(lp5454
g5425
a(lp5455
S'and'
p5456
aS'they'
p5457
aS'love'
p5458
aS'it'
p5459
aaa(lp5460
S'TAMMY'
p5461
a(lp5462
S'Yeah'
p5463
aaa(lp5464
S'BRAD'
p5465
a(lp5466
S'They'
p5467
aS'dont'
p5468
aS'play'
p5469
aS'tapes'
p5470
aS'that'
p5471
aS'much'
p5472
aaa(lp5473
S'TAMMY'
p5474
a(lp5475
S'Yeah'
p5476
aaa(lp5477
g5474
a(lp5478
S'Thats'
p5479
aS'the'
p5480
aS'same'
p5481
aS'with'
p5482
aS'me'
p5483
aaa(lp5484
g5474
a(lp5485
S'too'
p5486
aaa(lp5487
g5474
a(lp5488
S'Yeah'
p5489
aaa(lp5490
g5474
a(lp5491
S'Im'
p5492
aS'really'
p5493
aS'into'
p5494
aS'CDs'
p5495
aS'now'
p5496
aaa(lp5497
S'BRAD'
p5498
a(lp5499
S'Unhunh'
p5500
aaa(lp5501
g5498
a(lp5502
S'yeah'
p5503
aaa(lp5504
S'TAMMY'
p5505
a(lp5506
S'So'
p5507
aaa(lp5508
S'BRAD'
p5509
a(lp5510
S'But'
p5511
aS'they'
p5512
aS'have'
p5513
ag38
aS'couple'
p5514
aS'of'
p5515
aS'these'
p5516
aS'box'
p5517
aS'sets'
p5518
aS'of'
p5519
aS'uh'
p5520
aaa(lp5521
S'TAMMY'
p5522
a(lp5523
aa(lp5524
g5522
a(lp5525
S'right'
p5526
aaa(lp5527
S'BRAD'
p5528
a(lp5529
S'symphonies'
p5530
aaa(lp5531
S'TAMMY'
p5532
a(lp5533
S'right'
p5534
aaa(lp5535
S'BRAD'
p5536
a(lp5537
S'and'
p5538
aS'then'
p5539
ag8
aS'think'
p5540
aS'they'
p5541
aS'even'
p5542
aS'have'
p5543
ag38
aS'couple'
p5544
aS'books'
p5545
aS'on'
p5546
aS'tape'
p5547
aaa(lp5548
S'TAMMY'
p5549
a(lp5550
S'Yeah'
p5551
aaa(lp5552
S'BRAD'
p5553
a(lp5554
S'and'
p5555
aS'for'
p5556
aS'that'
p5557
aS'its'
p5558
aS'perfect'
p5559
aaa(lp5560
S'TAMMY'
p5561
a(lp5562
S'right'
p5563
aaa(lp5564
S'BRAD'
p5565
a(lp5566
S'You'
p5567
aS'know'
p5568
aaa(lp5569
g5565
a(lp5570
S'its'
p5571
aS'probably'
p5572
ag174
aS'more'
p5573
aS'than'
p5574
aS'enough'
p5575
aaa(lp5576
S'TAMMY'
p5577
a(lp5578
S'Right'
p5579
aaa(lp5580
S'BRAD'
p5581
a(lp5582
aa(lp5583
S'TAMMY'
p5584
a(lp5585
S'Right'
p5586
aaa(lp5587
S'BRAD'
p5588
a(lp5589
S'Um'
p5590
aaa(lp5591
g5588
a(lp5592
S'Im'
p5593
aS'just'
p5594
aS'trying'
p5595
aS'to'
p5596
aS'look'
p5597
aS'and'
p5598
aS'see'
p5599
aS'what'
p5600
aS'other'
p5601
aS'differences'
p5602
aS'there'
p5603
aS'are'
p5604
aaa(lp5605
S'TAMMY'
p5606
a(lp5607
S'Okay'
p5608
aaa(lp5609
S'BRAD'
p5610
a(lp5611
g8
ag8
aS'mean'
p5612
aaa(lp5613
g5610
a(lp5614
g8
aS'really'
p5615
aS'think'
p5616
aS'those'
p5617
aS'are'
p5618
aS'the'
p5619
aaa(lp5620
g5610
a(lp5621
S'thats'
p5622
aS'the'
p5623
aS'big'
p5624
aS'difference'
p5625
aaa(lp5626
S'TAMMY'
p5627
a(lp5628
S'this'
p5629
aS'is'
p5630
aaa(lp5631
g5627
a(lp5632
S'No'
p5633
aaa(lp5634
g5627
a(lp5635
S'this'
p5636
aS'is'
p5637
aS'great'
p5638
aaa(lp5639
S'BRAD'
p5640
a(lp5641
S'Um'
p5642
aaa(lp5643
g5640
a(lp5644
S'SING'
p5645
aS'doo'
p5646
aS'doo'
p5647
aS'SING'
p5648
aaa(lp5649
g5640
a(lp5650
g8
aS'believe'
p5651
aaa(lp5652
g5640
a(lp5653
S'yeah'
p5654
aaa(lp5655
g5640
a(lp5656
g8
aS'think'
p5657
aS'thats'
p5658
aS'the'
p5659
aS'basic'
p5660
aS'difference'
p5661
aaa(lp5662
g5640
a(lp5663
S'is'
p5664
aS'that'
p5665
aS'auto'
p5666
aS'reverse'
p5667
aaa(lp5668
S'TAMMY'
p5669
a(lp5670
aa(lp5671
g5669
a(lp5672
S'Let'
p5673
aS'me'
p5674
aS'ask'
p5675
aS'you'
p5676
aaa(lp5677
g5669
a(lp5678
S'do'
p5679
aS'you'
p5680
aS'sell'
p5681
aS'microphones'
p5682
aaa(lp5683
S'BRAD'
p5684
a(lp5685
aa(lp5686
S'TAMMY'
p5687
a(lp5688
S'Here'
p5689
aaa(lp5690
S'BRAD'
p5691
a(lp5692
S'Uh'
p5693
aaa(lp5694
g5691
a(lp5695
S'we'
p5696
aS'dont'
p5697
aS'really'
p5698
aaa(lp5699
S'JONATHAN'
p5700
a(lp5701
S'SING'
p5702
aS'Nya'
p5703
aS'nya'
p5704
aS'nya'
p5705
aS'nya'
p5706
aS'nya'
p5707
aS'nya'
p5708
aaa(lp5709
S'TAMMY'
p5710
a(lp5711
S'Kay'
p5712
aaa(lp5713
S'BRAD'
p5714
a(lp5715
S'get'
p5716
aS'into'
p5717
aS'them'
p5718
aaa(lp5719
S'TAMMY'
p5720
a(lp5721
S'Nkay'
p5722
aaa(lp5723
S'BRAD'
p5724
a(lp5725
S'Um'
p5726
aaa(lp5727
g5724
a(lp5728
S'we'
p5729
aS'are'
p5730
aaa(lp5731
S'JONATHAN'
p5732
a(lp5733
S'Nya'
p5734
aS'nya'
p5735
aS'nya'
p5736
aS'nya'
p5737
aS'nya'
p5738
aS'nya'
p5739
aaa(lp5740
S'BRAD'
p5741
a(lp5742
S'um'
p5743
aaa(lp5744
S'JONATHAN'
p5745
a(lp5746
S'You'
p5747
aS'cant'
p5748
aS'get'
p5749
aS'me'
p5750
aS'SING'
p5751
aaa(lp5752
S'BRAD'
p5753
a(lp5754
S'connected'
p5755
aS'with'
p5756
ag38
aS'distributor'
p5757
aS'that'
p5758
aS'does'
p5759
aS'deal'
p5760
aS'with'
p5761
aS'them'
p5762
aaa(lp5763
S'TAMMY'
p5764
a(lp5765
S'Okay'
p5766
aaa(lp5767
S'BRAD'
p5768
a(lp5769
S'And'
p5770
aS'so'
p5771
aS'we'
p5772
aaa(lp5773
g5768
a(lp5774
S'weve'
p5775
aS'gotten'
p5776
aS'them'
p5777
aS'for'
p5778
aS'clients'
p5779
aS'time'
p5780
aS'to'
p5781
aS'time'
p5782
aaa(lp5783
S'JONATHAN'
p5784
a(lp5785
S'Try'
p5786
aS'to'
p5787
aS'get'
p5788
aS'me'
p5789
aaa(lp5790
S'TAMMY'
p5791
a(lp5792
S'Okay'
p5793
aaa(lp5794
S'BRAD'
p5795
a(lp5796
S'um'
p5797
aaa(lp5798
g5795
a(lp5799
g8
aS'think'
p5800
aS'we'
p5801
aS'have'
p5802
aS'them'
p5803
aS'available'
p5804
aS'from'
p5805
aS'Sony'
p5806
aaa(lp5807
g5795
a(lp5808
S'And'
p5809
aaa(lp5810
g5795
a(lp5811
S'Id'
p5812
aS'really'
p5813
aS'have'
p5814
aS'to'
p5815
aS'l'
p5816
aS'research'
p5817
aS'that'
p5818
ag38
aS'bit'
p5819
aS'for'
p5820
aS'you'
p5821
aaa(lp5822
S'TAMMY'
p5823
a(lp5824
S'thats'
p5825
aS'okay'
p5826
aaa(lp5827
g5823
a(lp5828
g8
aaa(lp5829
g5823
a(lp5830
g8
aS'can'
p5831
aS'follow'
p5832
aS'through'
p5833
aS'on'
p5834
aS'that'
p5835
aaa(lp5836
g5823
a(lp5837
S'You'
p5838
aS'have'
p5839
aS'any'
p5840
aS'idea'
p5841
aS'how'
p5842
aS'much'
p5843
ag38
aS'good'
p5844
aaa(lp5845
S'BRAD'
p5846
a(lp5847
S'Okay'
p5848
aaa(lp5849
S'TAMMY'
p5850
a(lp5851
S'sort'
p5852
aS'of'
p5853
aS'um'
p5854
aaa(lp5855
g5850
a(lp5856
S'table'
p5857
aS'mic'
p5858
aS'would'
p5859
aS'cost'
p5860
aaa(lp5861
g5850
a(lp5862
S'Um'
p5863
aaa(lp5864
S'BRAD'
p5865
a(lp5866
S'Well'
p5867
aaa(lp5868
g5865
a(lp5869
S'um'
p5870
aaa(lp5871
g5865
a(lp5872
S'you'
p5873
aS'can'
p5874
aS'get'
p5875
aS'one'
p5876
aaa(lp5877
S'TAMMY'
p5878
a(lp5879
aa(lp5880
S'BRAD'
p5881
a(lp5882
g666
aS'ah'
p5883
aS's'
p5884
aaa(lp5885
g5881
a(lp5886
g8
aS'would'
p5887
aS'say'
p5888
aaa(lp5889
g5881
a(lp5890
g8
aS'would'
p5891
aS'expect'
p5892
aS'to'
p5893
aS'pay'
p5894
aaa(lp5895
g5881
a(lp5896
S'maybe'
p5897
ag666
ag666
aS'forty'
p5898
aS'dollars'
p5899
aaa(lp5900
g5881
a(lp5901
S'and'
p5902
aS'up'
p5903
aaa(lp5904
S'TAMMY'
p5905
a(lp5906
S'Okay'
p5907
aaa(lp5908
S'BRAD'
p5909
a(lp5910
g8
aS'mean'
p5911
aS'really'
p5912
aaa(lp5913
g5909
a(lp5914
S'the'
p5915
aS'skys'
p5916
aS'the'
p5917
aS'limit'
p5918
aS'with'
p5919
aS'microphones'
p5920
aaa(lp5921
S'TAMMY'
p5922
a(lp5923
S'Right'
p5924
aaa(lp5925
g5922
a(lp5926
S'right'
p5927
aaa(lp5928
S'BRAD'
p5929
a(lp5930
g8
aS'mean'
p5931
aS'you'
p5932
aS'can'
p5933
aS'get'
p5934
aaa(lp5935
S'TAMMY'
p5936
a(lp5937
S'Okay'
p5938
aaa(lp5939
S'BRAD'
p5940
a(lp5941
S'n'
p5942
aaa(lp5943
g5940
a(lp5944
S'thousand'
p5945
aS'dollar'
p5946
aS'microphones'
p5947
aaa(lp5948
S'TAMMY'
p5949
a(lp5950
aa(lp5951
g5949
a(lp5952
S'Okay'
p5953
aaa(lp5954
S'BRAD'
p5955
a(lp5956
S'But'
p5957
aaa(lp5958
g5955
a(lp5959
S'um'
p5960
aaa(lp5961
g5955
a(lp5962
S'you'
p5963
aS'would'
p5964
aS'proba'
p5965
aaa(lp5966
g5955
a(lp5967
g8
aS'would'
p5968
aS'spend'
p5969
aaa(lp5970
g5955
a(lp5971
S'you'
p5972
aS'know'
p5973
ag8
aS'wouldnt'
p5974
aS'spend'
p5975
aS'nineteen'
p5976
aS'dollars'
p5977
aaa(lp5978
S'TAMMY'
p5979
a(lp5980
S'Mhm'
p5981
aaa(lp5982
g5979
a(lp5983
S'mhm'
p5984
aaa(lp5985
S'BRAD'
p5986
a(lp5987
S'Id'
p5988
aS'spend'
p5989
aS'forty'
p5990
aS'bucks'
p5991
aaa(lp5992
S'TAMMY'
p5993
a(lp5994
S'yeah'
p5995
aaa(lp5996
g5993
a(lp5997
S'Yeah'
p5998
aaa(lp5999
g5993
a(lp6000
S'Okay'
p6001
aaa(lp6002
S'BRAD'
p6003
a(lp6004
S'and'
p6005
aS'then'
p6006
aaa(lp6007
g6003
a(lp6008
S'maybe'
p6009
ag38
aS'little'
p6010
aS'up'
p6011
aS'above'
p6012
aS'that'
p6013
aaa(lp6014
S'TAMMY'
p6015
a(lp6016
S'Nkay'
p6017
aaa(lp6018
g6015
a(lp6019
S'mhm'
p6020
aaa(lp6021
S'BRAD'
p6022
a(lp6023
S'For'
p6024
aS'what'
p6025
aS'you'
p6026
aS'wanna'
p6027
aS'do'
p6028
aaa(lp6029
g6022
a(lp6030
g8
ag8
aS'dont'
p6031
aS'ever'
p6032
aS'see'
p6033
aS'paying'
p6034
aaa(lp6035
g6022
a(lp6036
S'you'
p6037
aS'know'
p6038
aaa(lp6039
g6022
a(lp6040
g38
aS'couple'
p6041
aS'hundred'
p6042
aS'dollars'
p6043
aaa(lp6044
S'TAMMY'
p6045
a(lp6046
S'mhm'
p6047
aaa(lp6048
S'BRAD'
p6049
a(lp6050
S'that'
p6051
aaa(lp6052
g6049
a(lp6053
S'that'
p6054
aS'would'
p6055
aS'probably'
p6056
aS'be'
p6057
aaa(lp6058
S'TAMMY'
p6059
a(lp6060
S'right'
p6061
aaa(lp6062
S'BRAD'
p6063
a(lp6064
g666
aS'very'
p6065
aS'overkill'
p6066
aaa(lp6067
S'TAMMY'
p6068
a(lp6069
S'Okay'
p6070
aaa(lp6071
S'BRAD'
p6072
a(lp6073
S'So'
p6074
aS'that'
p6075
aS'kind'
p6076
aS'of'
p6077
aS'gives'
p6078
aS'you'
p6079
aS'an'
p6080
aS'idea'
p6081
aaa(lp6082
S'TAMMY'
p6083
a(lp6084
S'Mhm'
p6085
aS'right'
p6086
aaa(lp6087
S'BRAD'
p6088
a(lp6089
aa(lp6090
S'TAMMY'
p6091
a(lp6092
S'Okay'
p6093
aaa(lp6094
S'BRAD'
p6095
a(lp6096
S'Um'
p6097
aaa(lp6098
g6095
a(lp6099
S'theres'
p6100
ag38
aS'place'
p6101
aS'to'
p6102
aS'look'
p6103
aaa(lp6104
g6095
a(lp6105
S'um'
p6106
aaa(lp6107
g6095
a(lp6108
S'called'
p6109
aS'Sound'
p6110
aS'Advice'
p6111
aaa(lp6112
S'TAMMY'
p6113
a(lp6114
S'Yeah'
p6115
aaa(lp6116
g6113
a(lp6117
S'Alright'
p6118
aaa(lp6119
S'BRAD'
p6120
a(lp6121
S'Okay'
p6122
aaa(lp6123
g6120
a(lp6124
S'theres'
p6125
ag38
aS'guy'
p6126
aS'there'
p6127
aS'named'
p6128
aS'Wayne'
p6129
aaa(lp6130
S'TAMMY'
p6131
a(lp6132
S'Yeah'
p6133
aaa(lp6134
g6131
a(lp6135
S'Okay'
p6136
aaa(lp6137
S'BRAD'
p6138
a(lp6139
S'Hes'
p6140
aS'uh'
p6141
aaa(lp6142
S'TAMMY'
p6143
a(lp6144
S'thats'
p6145
ag38
aS'good'
p6146
aS'idea'
p6147
aaa(lp6148
S'BRAD'
p6149
a(lp6150
S'one'
p6151
aS'of'
p6152
aS'the'
p6153
aS'principals'
p6154
aS'there'
p6155
aaa(lp6156
g6149
a(lp6157
S'Wayne'
p6158
aaa(lp6159
S'TAMMY'
p6160
a(lp6161
S'Okay'
p6162
aaa(lp6163
S'BRAD'
p6164
a(lp6165
g8
aS'think'
p6166
aS'his'
p6167
aS'name'
p6168
aS'is'
p6169
aS'Shaybeck'
p6170
aaa(lp6171
S'TAMMY'
p6172
a(lp6173
S'Alright'
p6174
aaa(lp6175
S'BRAD'
p6176
a(lp6177
S'Saybeck'
p6178
aS'Shaybeck'
p6179
aaa(lp6180
g6176
a(lp6181
S'something'
p6182
aS'like'
p6183
aS'that'
p6184
aaa(lp6185
g6176
a(lp6186
S'And'
p6187
aS'hes'
p6188
ag38
aS'really'
p6189
aS'knowledgeable'
p6190
aS'guy'
p6191
aaa(lp6192
S'TAMMY'
p6193
a(lp6194
S'Okay'
p6195
aaa(lp6196
S'BRAD'
p6197
a(lp6198
S'hes'
p6199
aS'been'
p6200
aS'in'
p6201
aS'the'
p6202
aS'business'
p6203
aS'for'
p6204
ag38
aS'long'
p6205
aS'time'
p6206
aaa(lp6207
S'TAMMY'
p6208
a(lp6209
S'great'
p6210
aaa(lp6211
S'BRAD'
p6212
a(lp6213
S'uh'
p6214
aaa(lp6215
g6212
a(lp6216
S'and'
p6217
aS'theyre'
p6218
aS'good'
p6219
aS'guys'
p6220
aS'there'
p6221
aaa(lp6222
S'TAMMY'
p6223
a(lp6224
S'Okay'
p6225
aaa(lp6226
S'BRAD'
p6227
a(lp6228
S'So'
p6229
aS'that'
p6230
aS'would'
p6231
aS'be'
p6232
aaa(lp6233
g6227
a(lp6234
g38
ag38
aS'place'
p6235
aS'to'
p6236
aS'look'
p6237
aS'at'
p6238
ag38
aS'mic'
p6239
aaa(lp6240
S'TAMMY'
p6241
a(lp6242
S'okay'
p6243
aaa(lp6244
g6241
a(lp6245
S'thatd'
p6246
aS'be'
p6247
aS'great'
p6248
aaa(lp6249
g6241
a(lp6250
S'Yeah'
p6251
aaa(lp6252
g6241
a(lp6253
S'Um'
p6254
aaa(lp6255
g6241
a(lp6256
S'if'
p6257
aS'we'
p6258
aS'needed'
p6259
aS'to'
p6260
aS'd'
p6261
aS'get'
p6262
ag38
aS'price'
p6263
aS'on'
p6264
ag38
aS'tape'
p6265
ag3172
aS'recorder'
p6266
aaa(lp6267
g6241
a(lp6268
S'that'
p6269
aS'we'
p6270
aS'lost'
p6271
aaa(lp6272
g6241
a(lp6273
S'See'
p6274
aS'what'
p6275
aS'we'
p6276
aS'lost'
p6277
aS'was'
p6278
ag38
aS'tape'
p6279
aS'recorder'
p6280
aaa(lp6281
g6241
a(lp6282
S'not'
p6283
ag38
aS'tape'
p6284
aS'deck'
p6285
aaa(lp6286
S'BRAD'
p6287
a(lp6288
S'Okay'
p6289
aaa(lp6290
S'TAMMY'
p6291
a(lp6292
S'It'
p6293
aS'was'
p6294
ag38
aS'fancy'
p6295
aS'Uher'
p6296
aaa(lp6297
g6291
a(lp6298
S'That'
p6299
aS'name'
p6300
aS'rings'
p6301
ag38
aS'bell'
p6302
aaa(lp6303
S'BRAD'
p6304
a(lp6305
S'Are'
p6306
ag1171
aaa(lp6307
g6304
a(lp6308
S'Oh'
p6309
aS'really'
p6310
aaa(lp6311
g6304
a(lp6312
S'It'
p6313
aS'was'
p6314
aaa(lp6315
S'TAMMY'
p6316
a(lp6317
S'Yeah'
p6318
aaa(lp6319
S'BRAD'
p6320
a(lp6321
S'Oh'
p6322
aS'gosh'
p6323
aaa(lp6324
S'TAMMY'
p6325
a(lp6326
S'Right'
p6327
aaa(lp6328
S'BRAD'
p6329
a(lp6330
S'Th'
p6331
aS'thats'
p6332
aaa(lp6333
S'TAMMY'
p6334
a(lp6335
aa(lp6336
S'BRAD'
p6337
a(lp6338
S'like'
p6339
aaa(lp6340
S'TAMMY'
p6341
a(lp6342
S'But'
p6343
aaa(lp6344
S'BRAD'
p6345
a(lp6346
S'considered'
p6347
aaa(lp6348
g6345
a(lp6349
g8
aS'mean'
p6350
aS'theres'
p6351
ag38
aS'lot'
p6352
aS'of'
p6353
aS'different'
p6354
aS'models'
p6355
aS'of'
p6356
aS'Uhers'
p6357
aaa(lp6358
S'TAMMY'
p6359
a(lp6360
S'Mhm'
p6361
aaa(lp6362
S'BRAD'
p6363
a(lp6364
S'but'
p6365
aS'uh'
p6366
aaa(lp6367
g6363
a(lp6368
S'theyve'
p6369
aS'always'
p6370
aS'been'
p6371
aS'considered'
p6372
aaa(lp6373
g6363
a(lp6374
S'probably'
p6375
aS'one'
p6376
aS'of'
p6377
aS'the'
p6378
aS'finest'
p6379
aS'portable'
p6380
aS'cassette'
p6381
aS'recorders'
p6382
aaa(lp6383
S'TAMMY'
p6384
a(lp6385
S'mhm'
p6386
aaa(lp6387
g6384
a(lp6388
S'mhm'
p6389
aaa(lp6390
g6384
a(lp6391
S'yeah'
p6392
aaa(lp6393
g6384
a(lp6394
S'Right'
p6395
aaa(lp6396
S'BRAD'
p6397
a(lp6398
S'uh'
p6399
ag174
aaa(lp6400
g6397
a(lp6401
S'our'
p6402
aS'blue'
p6403
aS'book'
p6404
aS'usually'
p6405
aS'shows'
p6406
aS'the'
p6407
aS'Uhers'
p6408
aaa(lp6409
S'TAMMY'
p6410
a(lp6411
S'Yeah'
p6412
aaa(lp6413
S'BRAD'
p6414
a(lp6415
S'Our'
p6416
aS'older'
p6417
aS'Uhers'
p6418
aaa(lp6419
S'TAMMY'
p6420
a(lp6421
S'Okay'
p6422
aaa(lp6423
S'BRAD'
p6424
a(lp6425
S'So'
p6426
ag8
aS'could'
p6427
aS'show'
p6428
aS'you'
p6429
aS'what'
p6430
aS'the'
p6431
aS'blue'
p6432
aS'book'
p6433
aS'price'
p6434
aS'was'
p6435
aaa(lp6436
S'TAMMY'
p6437
a(lp6438
S'Then'
p6439
aS'if'
p6440
ag8
aaa(lp6441
g6437
a(lp6442
S'Nkay'
p6443
aaa(lp6444
S'BRAD'
p6445
a(lp6446
S'its'
p6447
aS'gonna'
p6448
aS'be'
p6449
aS'hard'
p6450
aS'to'
p6451
ag6261
aaa(lp6452
S'TAMMY'
p6453
a(lp6454
S'Okay'
p6455
aaa(lp6456
S'BRAD'
p6457
a(lp6458
g8
aS'dont'
p6459
aS'know'
p6460
aS'Uhers'
p6461
aS'that'
p6462
aS'well'
p6463
aaa(lp6464
g6457
a(lp6465
S'its'
p6466
aS'gonna'
p6467
aS'be'
p6468
aS'hard'
p6469
aS'to'
p6470
aS'determine'
p6471
aaa(lp6472
S'TAMMY'
p6473
a(lp6474
S'Mhm'
p6475
aaa(lp6476
S'BRAD'
p6477
a(lp6478
S'what'
p6479
aS'would'
p6480
aS'be'
p6481
ag38
aS'comparable'
p6482
aS'replacement'
p6483
aS'today'
p6484
aaa(lp6485
S'TAMMY'
p6486
a(lp6487
g8
aS'know'
p6488
aaa(lp6489
g6486
a(lp6490
S'Right'
p6491
aaa(lp6492
g6486
a(lp6493
S'Yeah'
p6494
aaa(lp6495
S'BRAD'
p6496
a(lp6497
S'And'
p6498
aS'that'
p6499
aS'would'
p6500
aS'be'
p6501
aS'something'
p6502
aS'you'
p6503
aS'may'
p6504
aS'wanna'
p6505
aS'run'
p6506
aS'by'
p6507
aS'Wayne'
p6508
aaa(lp6509
S'TAMMY'
p6510
a(lp6511
S'Okay'
p6512
aaa(lp6513
g6510
a(lp6514
S'Great'
p6515
aaa(lp6516
g6510
a(lp6517
S'Nkay'
p6518
aaa(lp6519
g6510
a(lp6520
S'You'
p6521
aS'dont'
p6522
aS'sell'
p6523
aS'that'
p6524
aS'kind'
p6525
aS'of'
p6526
aS'thing'
p6527
aS'here'
p6528
aaa(lp6529
g6510
a(lp6530
S'Right'
p6531
aaa(lp6532
g6510
a(lp6533
S'Cause'
p6534
aS'this'
p6535
aS'is'
p6536
aS'an'
p6537
aS'audio'
p6538
aaa(lp6539
S'BRAD'
p6540
a(lp6541
S'Thats'
p6542
aS'right'
p6543
aaa(lp6544
S'TAMMY'
p6545
a(lp6546
S'place'
p6547
aaa(lp6548
S'BRAD'
p6549
a(lp6550
S'well'
p6551
ag8
aS'mean'
p6552
aaa(lp6553
S'TAMMY'
p6554
a(lp6555
S'Okay'
p6556
aaa(lp6557
S'BRAD'
p6558
a(lp6559
S'to'
p6560
aS'tell'
p6561
aS'you'
p6562
aS'the'
p6563
aS'truth'
p6564
aaa(lp6565
g6558
a(lp6566
S'th'
p6567
aS'sometimes'
p6568
aS'we'
p6569
aS'do'
p6570
aS'get'
p6571
aS'them'
p6572
aS'for'
p6573
aS'people'
p6574
aaa(lp6575
S'TAMMY'
p6576
a(lp6577
S'Mhm'
p6578
aaa(lp6579
g6576
a(lp6580
S'okay'
p6581
aaa(lp6582
S'BRAD'
p6583
a(lp6584
S'Through'
p6585
aS'the'
p6586
aS'distributors'
p6587
aS'we'
p6588
aS'deal'
p6589
aS'with'
p6590
aaa(lp6591
S'TAMMY'
p6592
a(lp6593
S'Yeah'
p6594
aaa(lp6595
S'BRAD'
p6596
a(lp6597
S'But'
p6598
aS'uh'
p6599
aaa(lp6600
S'TAMMY'
p6601
a(lp6602
S'Yeah'
p6603
aaa(lp6604
g6601
a(lp6605
S'Okay'
p6606
aaa(lp6607
S'BRAD'
p6608
a(lp6609
S'overall'
p6610
aaa(lp6611
S'TAMMY'
p6612
a(lp6613
S'Well'
p6614
aaa(lp6615
S'BRAD'
p6616
a(lp6617
S'usually'
p6618
aS'we'
p6619
aS'dont'
p6620
aaa(lp6621
S'TAMMY'
p6622
a(lp6623
S'this'
p6624
aS'is'
p6625
aS'great'
p6626
aaa(lp6627
g6622
a(lp6628
S'Yeah'
p6629
aaa(lp6630
g6622
a(lp6631
S'What'
p6632
ag8
aS'think'
p6633
aS'Ill'
p6634
aS'do'
p6635
aS'is'
p6636
aS'um'
p6637
aaa(lp6638
g6622
a(lp6639
S'take'
p6640
aS'these'
p6641
aS'ideas'
p6642
aS'back'
p6643
aS'to'
p6644
aS'Matt'
p6645
aaa(lp6646
S'BRAD'
p6647
a(lp6648
S'Okay'
p6649
aaa(lp6650
S'TAMMY'
p6651
a(lp6652
S'and'
p6653
aS'Ill'
p6654
aS'be'
p6655
aS'back'
p6656
aaa(lp6657
S'BRAD'
p6658
a(lp6659
S'Sleep'
p6660
aS'on'
p6661
aS'it'
p6662
aaa(lp6663
S'TAMMY'
p6664
a(lp6665
S'then'
p6666
aS'yeah'
p6667
aaa(lp6668
S'BRAD'
p6669
a(lp6670
S'yeah'
p6671
aaa(lp6672
S'TAMMY'
p6673
a(lp6674
S'Yeah'
p6675
aaa(lp6676
g6673
a(lp6677
g8
aS'need'
p6678
aS'to'
p6679
aS'think'
p6680
aS'about'
p6681
aS'what'
p6682
aS'you'
p6683
aS'told'
p6684
aS'me'
p6685
aaa(lp6686
S'BRAD'
p6687
a(lp6688
g133
aaa(lp6689
S'TAMMY'
p6690
a(lp6691
S'But'
p6692
aS'this'
p6693
aS'is'
p6694
aS'very'
p6695
aS'helpful'
p6696
aS'for'
p6697
aS'me'
p6698
aaa(lp6699
S'BRAD'
p6700
a(lp6701
S'okay'
p6702
aaa(lp6703
S'TAMMY'
p6704
a(lp6705
g8
aS'really'
p6706
aS'appreciate'
p6707
aS'it'
p6708
aaa(lp6709
S'BRAD'
p6710
a(lp6711
S'just'
p6712
aS'for'
p6713
aS'your'
p6714
aS'knowledge'
p6715
aaa(lp6716
g6710
a(lp6717
S'um'
p6718
aaa(lp6719
S'TAMMY'
p6720
a(lp6721
aa(lp6722
S'BRAD'
p6723
a(lp6724
S'the'
p6725
aS'kay'
p6726
aS'one'
p6727
aS'ten'
p6728
aaa(lp6729
g6723
a(lp6730
S'and'
p6731
aS'the'
p6732
aS'kay'
p6733
ag6261
aS'one'
p6734
aS'ten'
p6735
aS'doubleu'
p6736
aaa(lp6737
S'TAMMY'
p6738
a(lp6739
S'Mhm'
p6740
aaa(lp6741
S'BRAD'
p6742
a(lp6743
S'thats'
p6744
aS'the'
p6745
aS'auto'
p6746
aS'rev'
p6747
aaa(lp6748
g6742
a(lp6749
S'single'
p6750
aS'auto'
p6751
aS'reverse'
p6752
aaa(lp6753
S'TAMMY'
p6754
a(lp6755
S'right'
p6756
aaa(lp6757
S'BRAD'
p6758
a(lp6759
S'and'
p6760
aS'double'
p6761
aS'auto'
p6762
aS'reverse'
p6763
aaa(lp6764
g6758
a(lp6765
S'we'
p6766
aS'have'
p6767
aS'in'
p6768
aS'stock'
p6769
aaa(lp6770
S'TAMMY'
p6771
a(lp6772
S'Okay'
p6773
aaa(lp6774
S'BRAD'
p6775
a(lp6776
S'The'
p6777
aS'kay'
p6778
aS'one'
p6779
aS'eleven'
p6780
aaa(lp6781
S'TAMMY'
p6782
a(lp6783
S'Hm'
p6784
aaa(lp6785
S'BRAD'
p6786
a(lp6787
S'um'
p6788
aaa(lp6789
g6786
a(lp6790
g8
aS'dont'
p6791
aS'believe'
p6792
ag8
aS'have'
p6793
aS'in'
p6794
aS'stock'
p6795
aaa(lp6796
g6786
a(lp6797
S'but'
p6798
aS'were'
p6799
aS'gonna'
p6800
aS'be'
p6801
aS'placing'
p6802
ag38
aS'Luxman'
p6803
aS'order'
p6804
aS'soon'
p6805
aaa(lp6806
g6786
a(lp6807
S'And'
p6808
aaa(lp6809
g6786
a(lp6810
S'since'
p6811
aS'they'
p6812
aS'ship'
p6813
aS'out'
p6814
aS'of'
p6815
aS'Torrance'
p6816
aaa(lp6817
S'TAMMY'
p6818
a(lp6819
S'Mhm'
p6820
aaa(lp6821
S'BRAD'
p6822
a(lp6823
S'um'
p6824
aaa(lp6825
g6822
a(lp6826
S'you'
p6827
aS'know'
p6828
aaa(lp6829
g6822
a(lp6830
S'lead'
p6831
aS'time'
p6832
aS'isnt'
p6833
aS'too'
p6834
aS'bad'
p6835
aS'on'
p6836
aS'it'
p6837
aaa(lp6838
g6822
a(lp6839
S'but'
p6840
aS'just'
p6841
aS'know'
p6842
aS'that'
p6843
aaa(lp6844
S'TAMMY'
p6845
a(lp6846
S'mhm'
p6847
aaa(lp6848
S'BRAD'
p6849
a(lp6850
S'you'
p6851
aS'couldnt'
p6852
aS'call'
p6853
aS'me'
p6854
aS'up'
p6855
aS'and'
p6856
aS'then'
p6857
aS'listen'
p6858
aS'to'
p6859
ag38
aS'tape'
p6860
aS'that'
p6861
aS'night'
p6862
aaa(lp6863
S'TAMMY'
p6864
a(lp6865
S'right'
p6866
aaa(lp6867
g6864
a(lp6868
S'Okay'
p6869
aaa(lp6870
g6864
a(lp6871
S'Thats'
p6872
aS'fine'
p6873
aaa(lp6874
S'BRAD'
p6875
a(lp6876
S'Okay'
p6877
aaa(lp6878
S'TAMMY'
p6879
a(lp6880
S'Okay'
p6881
aaa(lp6882
g6879
a(lp6883
S'Um'
p6884
aaa(lp6885
g6879
a(lp6886
S'but'
p6887
aaa(lp6888
g6879
a(lp6889
S'were'
p6890
aS'talking'
p6891
aS'like'
p6892
aS'maybe'
p6893
ag38
aS'week'
p6894
aS'or'
p6895
aS'something'
p6896
aaa(lp6897
S'BRAD'
p6898
a(lp6899
S'Oh'
p6900
aaa(lp6901
g6898
a(lp6902
S'Yeah'
p6903
aaa(lp6904
S'TAMMY'
p6905
a(lp6906
S'Okay'
p6907
aaa(lp6908
S'BRAD'
p6909
a(lp6910
S'Yeah'
p6911
aaa(lp6912
S'TAMMY'
p6913
a(lp6914
S'No'
p6915
aS'problem'
p6916
aaa(lp6917
S'BRAD'
p6918
a(lp6919
S'If'
p6920
aS'that'
p6921
aaa(lp6922
S'TAMMY'
p6923
a(lp6924
g8
aS'mean'
p6925
aS'listen'
p6926
aaa(lp6927
S'BRAD'
p6928
a(lp6929
S'If'
p6930
aS'that'
p6931
aaa(lp6932
S'TAMMY'
p6933
a(lp6934
aa(lp6935
g6933
a(lp6936
S'Im'
p6937
aS'not'
p6938
aS'that'
p6939
aS'uh'
p6940
aaa(lp6941
S'BRAD'
p6942
a(lp6943
S'Okay'
p6944
aaa(lp6945
S'TAMMY'
p6946
a(lp6947
S'th'
p6948
aS'SM'
p6949
aS'the'
p6950
aS'timing'
p6951
aS'isnt'
p6952
aS'that'
p6953
aS'tight'
p6954
aaa(lp6955
g6946
a(lp6956
S'Ive'
p6957
aS'waited'
p6958
ag38
aS'long'
p6959
aS'time'
p6960
aaa(lp6961
S'BRAD'
p6962
a(lp6963
S'Okay'
p6964
aaa(lp6965
S'TAMMY'
p6966
a(lp6967
S'for'
p6968
ag38
aS'lot'
p6969
aS'of'
p6970
aS'stuff'
p6971
aaa(lp6972
g6966
a(lp6973
S'so'
p6974
aS'SM'
p6975
aaa(lp6976
g6966
a(lp6977
S'no'
p6978
aaa(lp6979
S'BRAD'
p6980
a(lp6981
S'Okay'
p6982
aaa(lp6983
S'TAMMY'
p6984
a(lp6985
S'Its'
p6986
aS'not'
p6987
ag38
aS'big'
p6988
aS'problem'
p6989
aaa(lp6990
g6984
a(lp6991
S'But'
p6992
ag8
aS'appreciate'
p6993
aS'your'
p6994
aS'letting'
p6995
aS'me'
p6996
aS'know'
p6997
aS'about'
p6998
aS'that'
p6999
aaa(lp7000
S'BRAD'
p7001
a(lp7002
S'okay'
p7003
aaa(lp7004
g7001
a(lp7005
S'Okay'
p7006
aaa(lp7007
g7001
a(lp7008
S'Um'
p7009
aaa(lp7010
S'TAMMY'
p7011
a(lp7012
S'Okay'
p7013
aaa(lp7014
S'BRAD'
p7015
a(lp7016
S'Pete'
p7017
aS'had'
p7018
aS'told'
p7019
aS'me'
p7020
aS'Matt'
p7021
aS'came'
p7022
aS'by'
p7023
aaa(lp7024
g7015
a(lp7025
S'and'
p7026
aS'picked'
p7027
aS'up'
p7028
aS'some'
p7029
aS'literature'
p7030
aS'on'
p7031
aaa(lp7032
g7015
a(lp7033
g8
aS'th'
p7034
aS'guess'
p7035
aS'the'
p7036
ag5816
ag5816
aaa(lp7037
g7015
a(lp7038
g5884
aS'the'
p7039
aS'little'
p7040
aS'speakers'
p7041
aaa(lp7042
g7015
a(lp7043
g1171
aS'we'
p7044
aS'were'
p7045
aS'talking'
p7046
aS'about'
p7047
aaa(lp7048
S'TAMMY'
p7049
a(lp7050
S'right'
p7051
aaa(lp7052
S'BRAD'
p7053
a(lp7054
g8
aS'dont'
p7055
aaa(lp7056
g7053
a(lp7057
g8
aS'dont'
p7058
aaa(lp7059
S'TAMMY'
p7060
a(lp7061
S'Okay'
p7062
aaa(lp7063
S'BRAD'
p7064
a(lp7065
g8
aS'dont'
p7066
aS'know'
p7067
aS'if'
p7068
aS'he'
p7069
aS'actually'
p7070
aS'got'
p7071
aS'the'
p7072
aS'exact'
p7073
aS'one'
p7074
ag8
aS'recommended'
p7075
aaa(lp7076
g7064
a(lp7077
S'or'
p7078
aS'not'
p7079
aaa(lp7080
S'TAMMY'
p7081
a(lp7082
S'Yeah'
p7083
aaa(lp7084
S'BRAD'
p7085
a(lp7086
S'and'
p7087
aS'then'
p7088
aaa(lp7089
g7085
a(lp7090
S'uh'
p7091
aaa(lp7092
g7085
a(lp7093
S'there'
p7094
aS'was'
p7095
aS'an'
p7096
aS'article'
p7097
aS'on'
p7098
aS'uh'
p7099
aaa(lp7100
g7085
a(lp7101
S'FM'
p7102
aS'antennas'
p7103
aaa(lp7104
g7085
a(lp7105
g8
aS'had'
p7106
aS'recommended'
p7107
aS'to'
p7108
aS'him'
p7109
aaa(lp7110
S'TAMMY'
p7111
a(lp7112
S'Mhm'
p7113
aaa(lp7114
S'BRAD'
p7115
a(lp7116
S'And'
p7117
aS'Pete'
p7118
aS'made'
p7119
ag38
aS'copy'
p7120
aS'of'
p7121
aS'it'
p7122
aS'for'
p7123
aS'him'
p7124
aaa(lp7125
S'TAMMY'
p7126
a(lp7127
S'Yeah'
p7128
aaa(lp7129
g7126
a(lp7130
S'Okay'
p7131
aaa(lp7132
S'BRAD'
p7133
a(lp7134
S'Okay'
p7135
aaa(lp7136
S'TAMMY'
p7137
a(lp7138
S'Thats'
p7139
aS'great'
p7140
aaa(lp7141
S'BRAD'
p7142
a(lp7143
aa(lp7144
S'TAMMY'
p7145
a(lp7146
S'Yeah'
p7147
aaa(lp7148
g7145
a(lp7149
S'That'
p7150
aS'was'
p7151
aS'really'
p7152
aS'helpful'
p7153
aaa(lp7154
S'BRAD'
p7155
a(lp7156
S'So'
p7157
aaa(lp7158
g7155
a(lp7159
S'Do'
p7160
aS'you'
p7161
aaa(lp7162
S'TAMMY'
p7163
a(lp7164
aa(lp7165
S'BRAD'
p7166
a(lp7167
S'had'
p7168
aS'you'
p7169
aS'heard'
p7170
aS'anything'
p7171
aaa(lp7172
g7166
a(lp7173
S'ha'
p7174
aS'has'
p7175
aS'he'
p7176
aS'read'
p7177
aS'that'
p7178
aS'and'
p7179
aS'hes'
p7180
aS'thinking'
p7181
aaa(lp7182
S'TAMMY'
p7183
a(lp7184
aa(lp7185
g7183
a(lp7186
S'Right'
p7187
aaa(lp7188
S'BRAD'
p7189
a(lp7190
S'thinking'
p7191
aaa(lp7192
S'TAMMY'
p7193
a(lp7194
S'Yeah'
p7195
aaa(lp7196
S'BRAD'
p7197
a(lp7198
S'Okay'
p7199
aS'good'
p7200
aaa(lp7201
S'TAMMY'
p7202
a(lp7203
S'That'
p7204
aS'was'
p7205
aS'part'
p7206
aS'of'
p7207
aS'what'
p7208
aS'we'
p7209
aS'had'
p7210
aS'to'
p7211
aS'That'
p7212
aS'was'
p7213
aS'part'
p7214
aS'of'
p7215
aS'what'
p7216
aS'we'
p7217
aS'had'
p7218
aS'to'
p7219
aS'put'
p7220
aS'in'
p7221
aS'the'
p7222
aS'specs'
p7223
aaa(lp7224
g7202
a(lp7225
S'We'
p7226
aS'needed'
p7227
aS'to'
p7228
aS'know'
p7229
aS'the'
p7230
aS'size'
p7231
aaa(lp7232
g7202
a(lp7233
S'and'
p7234
aS'this'
p7235
aS'whole'
p7236
aS'antenna'
p7237
aS'question'
p7238
aaa(lp7239
g7202
a(lp7240
S'whether'
p7241
aS'you'
p7242
aS'could'
p7243
aS'put'
p7244
aS'an'
p7245
aS'antenna'
p7246
aaa(lp7247
g7202
a(lp7248
S'you'
p7249
aS'talked'
p7250
aS'about'
p7251
aS'this'
p7252
aS'with'
p7253
aS'him'
p7254
aaa(lp7255
S'BRAD'
p7256
a(lp7257
S'Okay'
p7258
aaa(lp7259
S'TAMMY'
p7260
a(lp7261
S'un'
p7262
aaa(lp7263
g7260
a(lp7264
S'under'
p7265
aS'the'
p7266
aS'roof'
p7267
aS'and'
p7268
aS'everyth'
p7269
aaa(lp7270
S'BRAD'
p7271
a(lp7272
S'Yes'
p7273
aaa(lp7274
S'TAMMY'
p7275
a(lp7276
S'cause'
p7277
aS'you'
p7278
aS'know'
p7279
aaa(lp7280
g7275
a(lp7281
S'You'
p7282
aS'cant'
p7283
aS'have'
p7284
aS'that'
p7285
aS'stuff'
p7286
aS'showing'
p7287
aaa(lp7288
S'BRAD'
p7289
a(lp7290
S'Thats'
p7291
aS'right'
p7292
aaa(lp7293
S'TAMMY'
p7294
a(lp7295
aa(lp7296
S'BRAD'
p7297
a(lp7298
S'Thats'
p7299
aS'right'
p7300
aaa(lp7301
S'TAMMY'
p7302
a(lp7303
S'Not'
p7304
aS'where'
p7305
aS'we'
p7306
aS'are'
p7307
aaa(lp7308
S'BRAD'
p7309
a(lp7310
S'Yeah'
p7311
aaa(lp7312
S'TAMMY'
p7313
a(lp7314
S'Yeah'
p7315
aaa(lp7316
S'BRAD'
p7317
a(lp7318
S'Uh'
p7319
aaa(lp7320
S'TAMMY'
p7321
a(lp7322
S'Okay'
p7323
aaa(lp7324
S'BRAD'
p7325
a(lp7326
S'hows'
p7327
aS'the'
p7328
aS'house'
p7329
aS'moving'
p7330
aS'along'
p7331
aaa(lp7332
S'TAMMY'
p7333
a(lp7334
aa(lp7335
g7333
a(lp7336
S'Coming'
p7337
aS'along'
p7338
aaa(lp7339
g7333
a(lp7340
S'Were'
p7341
aS'gonna'
p7342
aS'be'
p7343
aaa(lp7344
g7333
a(lp7345
S'putting'
p7346
aS'the'
p7347
aS'uh'
p7348
aaa(lp7349
g7333
a(lp7350
S'specs'
p7351
aS'out'
p7352
aS'for'
p7353
aS'bids'
p7354
aaa(lp7355
S'BRAD'
p7356
a(lp7357
S'Great'
p7358
aaa(lp7359
S'TAMMY'
p7360
a(lp7361
S'Within'
p7362
aS'the'
p7363
aS'month'
p7364
aaa(lp7365
g7360
a(lp7366
S'So'
p7367
aaa(lp7368
S'BRAD'
p7369
a(lp7370
S'Great'
p7371
aaa(lp7372
S'TAMMY'
p7373
a(lp7374
S'yeah'
p7375
aaa(lp7376
S'BRAD'
p7377
a(lp7378
S'Thats'
p7379
aS'progress'
p7380
aaa(lp7381
S'TAMMY'
p7382
a(lp7383
S'So'
p7384
aaa(lp7385
g7382
a(lp7386
S'thats'
p7387
aaa(lp7388
S'BRAD'
p7389
a(lp7390
S'isnt'
p7391
aS'it'
p7392
aaa(lp7393
S'TAMMY'
p7394
a(lp7395
S'Its'
p7396
aS'progress'
p7397
aaa(lp7398
S'BRAD'
p7399
a(lp7400
aa(lp7401
S'TAMMY'
p7402
a(lp7403
S'Yeah'
p7404
aaa(lp7405
g7402
a(lp7406
S'Were'
p7407
aS'going'
p7408
aS'as'
p7409
aS'fast'
p7410
aS'as'
p7411
aS'we'
p7412
aS'can'
p7413
aaa(lp7414
g7402
a(lp7415
S'Were'
p7416
aS'gonna'
p7417
aS'have'
p7418
aaa(lp7419
g7402
a(lp7420
S'like'
p7421
aaa(lp7422
g7402
a(lp7423
S'four'
p7424
aS'weeks'
p7425
aS'we'
p7426
aS'just'
p7427
aS'have'
p7428
aS'to'
p7429
aS'wait'
p7430
aaa(lp7431
g7402
a(lp7432
S'While'
p7433
aS'the'
p7434
aS'bidding'
p7435
aaa(lp7436
S'BRAD'
p7437
a(lp7438
S'Exactly'
p7439
aaa(lp7440
S'TAMMY'
p7441
a(lp7442
S'And'
p7443
aS'um'
p7444
aaa(lp7445
g7441
a(lp7446
S'but'
p7447
ag30
aaa(lp7448
S'BRAD'
p7449
a(lp7450
S'Well'
p7451
aaa(lp7452
g7449
a(lp7453
S'then'
p7454
aS'if'
p7455
aaa(lp7456
g7449
a(lp7457
S'then'
p7458
aS'if'
p7459
aS'you'
p7460
aS'sit'
p7461
aS'up'
p7462
aS'at'
p7463
aS'night'
p7464
aS'thinking'
p7465
aaa(lp7466
S'TAMMY'
p7467
a(lp7468
S'Then'
p7469
aaa(lp7470
S'BRAD'
p7471
a(lp7472
S'should'
p7473
aS'we'
p7474
aS'go'
p7475
aS'for'
p7476
aS'him'
p7477
aaa(lp7478
S'TAMMY'
p7479
a(lp7480
g8
aS'know'
p7481
aS'it'
p7482
aaa(lp7483
S'BRAD'
p7484
a(lp7485
S'or'
p7486
aS'should'
p7487
aS'we'
p7488
aS'go'
p7489
aS'for'
p7490
aS'him'
p7491
aaa(lp7492
S'TAMMY'
p7493
a(lp7494
S'Its'
p7495
aS'just'
p7496
aS'what'
p7497
ag8
aS'was'
p7498
aS'telling'
p7499
aS'Jeff'
p7500
aaa(lp7501
g7493
a(lp7502
g8
aS'said'
p7503
aS'we'
p7504
aS'got'
p7505
aS'all'
p7506
aS'these'
p7507
aS'places'
p7508
aS'in'
p7509
aS'the'
p7510
aS'specs'
p7511
aaa(lp7512
g7493
a(lp7513
S'where'
p7514
aS'were'
p7515
aaa(lp7516
g7493
a(lp7517
S'were'
p7518
aS'having'
p7519
aS'to'
p7520
aS'say'
p7521
aaa(lp7522
g7493
a(lp7523
S'you'
p7524
aS'know'
p7525
aaa(lp7526
g7493
a(lp7527
S'K'
p7528
aaa(lp7529
g7493
a(lp7530
S'Figure'
p7531
aS'this'
p7532
aS'one'
p7533
aS'separately'
p7534
aaa(lp7535
g7493
a(lp7536
S'cause'
p7537
aS'we'
p7538
aS'may'
p7539
aS'have'
p7540
aS'to'
p7541
aS'axe'
p7542
aS'it'
p7543
aaa(lp7544
g7493
a(lp7545
S'You'
p7546
aS'know'
p7547
aaa(lp7548
g7493
a(lp7549
S'And'
p7550
aS'were'
p7551
aS'just'
p7552
aaa(lp7553
g7493
a(lp7554
S'biting'
p7555
aS'our'
p7556
aS'nails'
p7557
aaa(lp7558
g7493
a(lp7559
S'cause'
p7560
aS'we'
p7561
aS'dont'
p7562
aS'know'
p7563
aaa(lp7564
g7493
a(lp7565
S'what'
p7566
aS'th'
p7567
aS'the'
p7568
aS'bottom'
p7569
aS'line'
p7570
aS'is'
p7571
aS'gonna'
p7572
aS'be'
p7573
aaa(lp7574
S'BRAD'
p7575
a(lp7576
S'Sure'
p7577
aaa(lp7578
g7575
a(lp7579
S'Th'
p7580
aaa(lp7581
g7575
a(lp7582
S'Yeah'
p7583
aaa(lp7584
S'TAMMY'
p7585
a(lp7586
g494
aS'So'
p7587
ag494
aaa(lp7588
g7585
a(lp7589
S'maybe'
p7590
aS'uh'
p7591
aaa(lp7592
g7585
a(lp7593
S'anyway'
p7594
aaa(lp7595
S'BRAD'
p7596
a(lp7597
S'Some'
p7598
aS'parts'
p7599
aS'of'
p7600
aS'it'
p7601
aS'will'
p7602
aS'really'
p7603
aS'surprise'
p7604
aS'you'
p7605
aaa(lp7606
S'TAMMY'
p7607
a(lp7608
S'BR'
p7609
aS'Yeah'
p7610
aS'BR'
p7611
aaa(lp7612
S'BRAD'
p7613
a(lp7614
S'and'
p7615
aS'some'
p7616
aS'parts'
p7617
aS'will'
p7618
aaa(lp7619
g7613
a(lp7620
S'be'
p7621
ag38
aS'lot'
p7622
aS'less'
p7623
aS'than'
p7624
aS'you'
p7625
aS'thought'
p7626
aaa(lp7627
S'TAMMY'
p7628
a(lp7629
S'Yeah'
p7630
aaa(lp7631
g7628
a(lp7632
S'Like'
p7633
aS'windows'
p7634
aS'arent'
p7635
aS'as'
p7636
aS'expensive'
p7637
aS'as'
p7638
ag8
aS'thought'
p7639
aaa(lp7640
g7628
a(lp7641
S'So'
p7642
aaa(lp7643
g7628
a(lp7644
S'its'
p7645
aaa(lp7646
S'BRAD'
p7647
a(lp7648
S'Oh'
p7649
aaa(lp7650
S'TAMMY'
p7651
a(lp7652
S'Thats'
p7653
aS'how'
p7654
aS'its'
p7655
aS'going'
p7656
aaa(lp7657
S'BRAD'
p7658
a(lp7659
S'Well'
p7660
aS'thats'
p7661
aS'good'
p7662
aaa(lp7663
S'TAMMY'
p7664
a(lp7665
S'Yeah'
p7666
aaa(lp7667
S'BRAD'
p7668
a(lp7669
S'Well'
p7670
aS'you'
p7671
aS'have'
p7672
aS'to'
p7673
aS'do'
p7674
aaa(lp7675
g7668
a(lp7676
S'double'
p7677
aS'glazed'
p7678
aS'up'
p7679
aS'there'
p7680
aS'now'
p7681
aaa(lp7682
S'TAMMY'
p7683
a(lp7684
S'Yeah'
p7685
aaa(lp7686
g7683
a(lp7687
S'Thats'
p7688
aS'true'
p7689
aaa(lp7690
S'BRAD'
p7691
a(lp7692
aa(lp7693
S'TAMMY'
p7694
a(lp7695
S'Right'
p7696
aaa(lp7697
g7694
a(lp7698
S'Yeah'
p7699
aaa(lp7700
S'BRAD'
p7701
a(lp7702
S'Um'
p7703
aaa(lp7704
g7701
a(lp7705
S'which'
p7706
aS'some'
p7707
aS't'
p7708
aaa(lp7709
g7701
a(lp7710
S'which'
p7711
aS'adds'
p7712
ag38
aS'bit'
p7713
aaa(lp7714
S'TAMMY'
p7715
a(lp7716
S'Yeah'
p7717
aaa(lp7718
S'BRAD'
p7719
a(lp7720
S'To'
p7721
aS'the'
p7722
aS'cost'
p7723
ag30
aS'goes'
p7724
aS'up'
p7725
ag30
aaa(lp7726
S'TAMMY'
p7727
a(lp7728
S'Well'
p7729
aaa(lp7730
g7727
a(lp7731
S'well'
p7732
aS'keep'
p7733
aS'you'
p7734
aS'posted'
p7735
aS'on'
p7736
aaa(lp7737
S'BRAD'
p7738
a(lp7739
S'Okay'
p7740
aaa(lp7741
S'TAMMY'
p7742
a(lp7743
S'how'
p7744
aS'its'
p7745
aS'all'
p7746
aS'going'
p7747
aaa(lp7748
S'BRAD'
p7749
a(lp7750
S'Just'
p7751
aS'let'
p7752
aS'me'
p7753
aS'know'
p7754
aaa(lp7755
S'TAMMY'
p7756
a(lp7757
S'and'
p7758
aS'Ill'
p7759
aS'certainly'
p7760
aS'let'
p7761
aS'you'
p7762
aS'know'
p7763
aS'about'
p7764
aS'this'
p7765
aS'thing'
p7766
aaa(lp7767
g7756
a(lp7768
S'um'
p7769
aaa(lp7770
g7756
a(lp7771
S'Ill'
p7772
aS'be'
p7773
aS'calling'
p7774
aS'you'
p7775
aS'back'
p7776
aaa(lp7777
S'BRAD'
p7778
a(lp7779
S'Okay'
p7780
aaa(lp7781
S'TAMMY'
p7782
a(lp7783
S'Within'
p7784
ag38
aS'few'
p7785
aS'days'
p7786
aaa(lp7787
S'BRAD'
p7788
a(lp7789
S'And'
p7790
ag8
aaa(lp7791
g7788
a(lp7792
g8
aS'think'
p7793
ag8
aS'had'
p7794
aS'given'
p7795
aS'you'
p7796
aS'some'
p7797
aS'literature'
p7798
aS'before'
p7799
aaa(lp7800
S'TAMMY'
p7801
a(lp7802
S'Yeah'
p7803
aaa(lp7804
S'BRAD'
p7805
a(lp7806
S'On'
p7807
aS'that'
p7808
aaa(lp7809
g7805
a(lp7810
S'And'
p7811
aS'it'
p7812
aS'shows'
p7813
aS'those'
p7814
aS'cassette'
p7815
aS'decks'
p7816
aS'in'
p7817
aS'there'
p7818
aaa(lp7819
S'TAMMY'
p7820
a(lp7821
S'Okay'
p7822
aaa(lp7823
S'BRAD'
p7824
a(lp7825
S'If'
p7826
aS'you'
p7827
aS'need'
p7828
ag30
aS'an'
p7829
ag30
aS'additional'
p7830
aS'piece'
p7831
aaa(lp7832
S'TAMMY'
p7833
a(lp7834
S'Thats'
p7835
aS'right'
p7836
aaa(lp7837
S'BRAD'
p7838
a(lp7839
g8
aS'can'
p7840
aaa(lp7841
g7838
a(lp7842
g8
ag8
aS'can'
p7843
aS'get'
p7844
aS'you'
p7845
aS'one'
p7846
aaa(lp7847
S'TAMMY'
p7848
a(lp7849
g133
aS'no'
p7850
aS'youre'
p7851
aaa(lp7852
g7848
a(lp7853
g8
aS'think'
p7854
aS'youre'
p7855
aS'right'
p7856
aaa(lp7857
S'BRAD'
p7858
a(lp7859
S'Okay'
p7860
aaa(lp7861
S'TAMMY'
p7862
a(lp7863
S'Yeah'
p7864
aS'thats'
p7865
aS'what'
p7866
ag8
aS'had'
p7867
aS'looked'
p7868
aS'at'
p7869
aaa(lp7870
g7862
a(lp7871
S'So'
p7872
aaa(lp7873
g7862
a(lp7874
g8
aS'think'
p7875
aaa(lp7876
g7862
a(lp7877
S'is'
p7878
ag174
aaa(lp7879
g7862
a(lp7880
S'no'
p7881
aaa(lp7882
g7862
a(lp7883
S'You'
p7884
aS'dont'
p7885
aS'have'
p7886
aS'the'
p7887
aaa(lp7888
S'BRAD'
p7889
a(lp7890
g8
aS'have'
p7891
aS'the'
p7892
ag6261
aS'the'
p7893
aaa(lp7894
S'TAMMY'
p7895
a(lp7896
S'one'
p7897
aaa(lp7898
S'BRAD'
p7899
a(lp7900
S'the'
p7901
aS'double'
p7902
aS'one'
p7903
aS'here'
p7904
aaa(lp7905
S'TAMMY'
p7906
a(lp7907
S'right'
p7908
aaa(lp7909
g7906
a(lp7910
S'Right'
p7911
aaa(lp7912
S'BRAD'
p7913
a(lp7914
S'And'
p7915
ag8
aS'have'
p7916
aS'the'
p7917
aaa(lp7918
S'TAMMY'
p7919
a(lp7920
S'Thats'
p7921
aS'what'
p7922
ag8
aS'saw'
p7923
aaa(lp7924
S'BRAD'
p7925
a(lp7926
S'the'
p7927
aS'real'
p7928
aS'high'
p7929
aS'end'
p7930
aaa(lp7931
g7925
a(lp7932
S'um'
p7933
aaa(lp7934
S'TAMMY'
p7935
a(lp7936
S'Mhm'
p7937
aaa(lp7938
S'BRAD'
p7939
a(lp7940
S'single'
p7941
aS'one'
p7942
aaa(lp7943
S'TAMMY'
p7944
a(lp7945
S'yeah'
p7946
aaa(lp7947
g7944
a(lp7948
S'Okay'
p7949
aaa(lp7950
S'BRAD'
p7951
a(lp7952
aa(lp7953
S'TAMMY'
p7954
a(lp7955
S'Alright'
p7956
aaa(lp7957
S'BRAD'
p7958
a(lp7959
S'The'
p7960
aS'other'
p7961
ag7708
aaa(lp7962
g7958
a(lp7963
S'the'
p7964
aS'other'
p7965
aaa(lp7966
g7958
a(lp7967
S'the'
p7968
aS'single'
p7969
aS'auto'
p7970
aS'reverse'
p7971
aaa(lp7972
g7958
a(lp7973
g8
aS'have'
p7974
aS'in'
p7975
aS'stock'
p7976
aaa(lp7977
g7958
a(lp7978
g8
aS'just'
p7979
aS'dont'
p7980
aS'have'
p7981
aS'on'
p7982
aS'display'
p7983
aaa(lp7984
S'TAMMY'
p7985
a(lp7986
S'Yeah'
p7987
aaa(lp7988
g7985
a(lp7989
S'Thats'
p7990
aS'alright'
p7991
aaa(lp7992
g7985
a(lp7993
S'Yeah'
p7994
aaa(lp7995
S'BRAD'
p7996
a(lp7997
S'Okay'
p7998
aaa(lp7999
S'TAMMY'
p8000
a(lp8001
S'Okay'
p8002
aaa(lp8003
g8000
a(lp8004
S'Good'
p8005
aaa(lp8006
g8000
a(lp8007
S'Thanks'
p8008
aS'so'
p8009
aS'much'
p8010
aaa(lp8011
S'BRAD'
p8012
a(lp8013
S'Well'
p8014
aS'that'
p8015
aS'gives'
p8016
aS'you'
p8017
aS'an'
p8018
aS'idea'
p8019
aaa(lp8020
S'TAMMY'
p8021
a(lp8022
S'Alright'
p8023
aaa(lp8024
g8021
a(lp8025
S'Good'
p8026
aaa(lp8027
S'BRAD'
p8028
a(lp8029
S'Okay'
p8030
aS'good'
p8031
aaa(lp8032
S'TAMMY'
p8033
a(lp8034
g8
aS'kept'
p8035
aS'you'
p8036
aS'five'
p8037
aS'minutes'
p8038
aaa(lp8039
g8033
a(lp8040
S'but'
p8041
ag8
aS'bet'
p8042
aaa(lp8043
S'BRAD'
p8044
a(lp8045
S'Oh'
p8046
aaa(lp8047
S'TAMMY'
p8048
a(lp8049
g8
aS'bet'
p8050
aS'its'
p8051
aS'been'
p8052
aS'worse'
p8053
aS'than'
p8054
aS'that'
p8055
aS'before'
p8056
aaa(lp8057
S'BRAD'
p8058
a(lp8059
S'Its'
p8060
aaa(lp8061
g8058
a(lp8062
S'its'
p8063
aaa(lp8064
g8058
a(lp8065
S'Oh'
p8066
aaa(lp8067
g8058
a(lp8068
S'This'
p8069
aS'is'
p8070
aS'nothing'
p8071
aaa(lp8072
S'TAMMY'
p8073
a(lp8074
aa(lp8075
S'BRAD'
p8076
a(lp8077
S'Yeah'
p8078
aaa(lp8079
g8076
a(lp8080
S'This'
p8081
aS'is'
p8082
aS'nothing'
p8083
aaa(lp8084
g8076
a(lp8085
S'This'
p8086
aS'is'
p8087
ag38
aS'joy'
p8088
aaa(lp8089
S'TAMMY'
p8090
a(lp8091
S'Hunh'
p8092
aaa(lp8093
S'BRAD'
p8094
a(lp8095
S'To'
p8096
aS'tell'
p8097
aS'you'
p8098
aS'the'
p8099
aS'truth'
p8100
aaa(lp8101
S'TAMMY'
p8102
a(lp8103
S'Good'
p8104
aaa(lp8105
g8102
a(lp8106
S'Good'
p8107
aaa(lp8108
S'BRAD'
p8109
a(lp8110
aa(lp8111
S'TAMMY'
p8112
a(lp8113
aa(lp8114
g8112
a(lp8115
S'Well'
p8116
ag8
aS'think'
p8117
aS'youve'
p8118
aS'got'
p8119
aS'another'
p8120
aS'sale'
p8121
aaa(lp8122
S'BRAD'
p8123
a(lp8124
S'Okay'
p8125
aaa(lp8126
S'TAMMY'
p8127
a(lp8128
S'So'
p8129
aaa(lp8130
S'BRAD'
p8131
a(lp8132
S'Okay'
p8133
aaa(lp8134
g8131
a(lp8135
S'Well'
p8136
aaa(lp8137
S'TAMMY'
p8138
a(lp8139
S'just'
p8140
aS'have'
p8141
aS'to'
p8142
aS'talk'
p8143
aS'to'
p8144
aS'Matt'
p8145
aaa(lp8146
S'BRAD'
p8147
a(lp8148
S'thank'
p8149
aS'you'
p8150
aaa(lp8151
S'TAMMY'
p8152
a(lp8153
S'Yeah'
p8154
aaa.