(lp0
(lp1
S'STEVEN'
p2
a(lp3
S'Heres'
p4
aS'a'
p5
aS'nice'
p6
aS'place'
p7
aS'to'
p8
aS'put'
p9
aS'my'
p10
aS'shoes'
p11
aaa(lp12
S'SHERIYeah'
p13
a(lp14
S'there'
p15
aS'it'
p16
aS'is'
p17
aaa(lp18
S'STEVEN'
p19
a(lp20
S'Mom'
p21
aS'look'
p22
aaa(lp23
S'SHERIUnhunh'
p24
a(lp25
S'what'
p26
aaa(lp27
S'STEVENLook'
p28
a(lp29
S'at'
p30
aS'my'
p31
aS'shoes'
p32
aaa(lp33
S'SHERI'
p34
a(lp35
aa(lp36
g34
a(lp37
S'They'
p38
aS'look'
p39
aS'like'
p40
aS'the'
p41
aS'phantom'
p42
aS'stairsteppers'
p43
aaa(lp44
g34
a(lp45
S'Hunh'
p46
aaa(lp47
S'STEVEN'
p48
a(lp49
S'Nono'
p50
aaa(lp51
g48
a(lp52
S'it'
p53
aS'looks'
p54
aS'like'
p55
aS'the'
p56
aS'Invisible'
p57
aS'Man'
p58
aaa(lp59
S'SHERIIt'
p60
a(lp61
S'does'
p62
aS'look'
p63
aS'like'
p64
aS'the'
p65
aS'Invisible'
p66
aS'Man'
p67
aaa(lp68
g60
a(lp69
S'Ohho'
p70
aS'burp'
p71
aaa(lp72
g60
a(lp73
S'That'
p74
aS'felt'
p75
aS'good'
p76
aaa(lp77
S'STEVENWasnt'
p78
a(lp79
S'there'
p80
ag5
aS'guy'
p81
aS'called'
p82
aS'the'
p83
aS'Invisible'
p84
aS'Man'
p85
aaa(lp86
S'SHERIYes'
p87
a(lp88
S'there'
p89
aS'was'
p90
aaa(lp91
S'STEVEN'
p92
a(lp93
S'Was'
p94
aS'he'
p95
aS'in'
p96
ag5
aS'movie'
p97
aaa(lp98
S'SHERI'
p99
a(lp100
S'Yes'
p101
aS'he'
p102
aS'was'
p103
aaa(lp104
S'STEVEN'
p105
a(lp106
S'What'
p107
aS'was'
p108
aS'it'
p109
aS'called'
p110
aaa(lp111
S'SHERI'
p112
a(lp113
S'The'
p114
aS'Invisible'
p115
aS'Man'
p116
aaa(lp117
g112
a(lp118
S'It'
p119
aS'was'
p120
aS'kind'
p121
aS'of'
p122
ag5
aS'show'
p123
aS'kinda'
p124
aS'like'
p125
aS'The'
p126
aS'Shadow'
p127
aS'was'
p128
aaa(lp129
g112
a(lp130
S'You'
p131
aS'know'
p132
aS'it'
p133
aS'was'
p134
ag5
aaa(lp135
g112
a(lp136
S'Actually'
p137
aS'though'
p138
aaa(lp139
g112
a(lp140
S'I'
p141
aS'think'
p142
aS'they'
p143
aS'made'
p144
ag5
aS'remake'
p145
aS'of'
p146
aS'it'
p147
aaa(lp148
g112
a(lp149
S'with'
p150
aS'Chevy'
p151
aS'Chase'
p152
aaa(lp153
g112
a(lp154
S'that'
p155
aS'was'
p156
aS'really'
p157
aS'lousy'
p158
aS'though'
p159
aaa(lp160
g112
a(lp161
S'Steven'
p162
aaa(lp163
g112
a(lp164
S'You'
p165
aS'know'
p166
aS'what'
p167
aS'you'
p168
aS'could'
p169
aS'do'
p170
aaa(lp171
g112
a(lp172
S'that'
p173
aS'would'
p174
aS'be'
p175
aS'just'
p176
aS'really'
p177
aS'helpful'
p178
aaa(lp179
S'STEVEN'
p180
a(lp181
S'Say'
p182
aS'it'
p183
aaa(lp184
S'SHERI'
p185
a(lp186
aa(lp187
g185
a(lp188
S'You'
p189
aS'could'
p190
aS'p'
p191
aS'take'
p192
aS'these'
p193
aS'Coke'
p194
aS'cans'
p195
aaa(lp196
g185
a(lp197
S'and'
p198
aS'put'
p199
aS'them'
p200
aS'in'
p201
aS'the'
p202
aS'bag'
p203
aS'full'
p204
aS'of'
p205
aS'Coke'
p206
aS'cans'
p207
aS'that'
p208
aS'are'
p209
aS'in'
p210
aS'your'
p211
aS'bedroom'
p212
aaa(lp213
g185
a(lp214
S'and'
p215
aS'then'
p216
aS'we'
p217
aS'can'
p218
aS'do'
p219
aS'can'
p220
aS'squish'
p221
aaa(lp222
g185
a(lp223
S'And'
p224
aS'squish'
p225
aS'em'
p226
aaa(lp227
g185
a(lp228
S'For'
p229
aS'the'
p230
aS'recycling'
p231
aS'bin'
p232
aaa(lp233
g185
a(lp234
S'Okay'
p235
aaa(lp236
S'STEVENTomorrow'
p237
a(lp238
S'please'
p239
aaa(lp240
g237
a(lp241
S'my'
p242
aS'feet'
p243
aS'are'
p244
aS'hurting'
p245
aaa(lp246
S'SHERITomorrow'
p247
a(lp248
aa(lp249
g247
a(lp250
S'Well'
p251
aS'can'
p252
aS'you'
p253
aS'just'
p254
aS'put'
p255
aS'em'
p256
aS'in'
p257
aS'the'
p258
aS'bag'
p259
aaa(lp260
g247
a(lp261
S'in'
p262
aS'there'
p263
aS'for'
p264
aS'now'
p265
aaa(lp266
g247
a(lp267
S'okay'
p268
aaa(lp269
S'STEVEN'
p270
a(lp271
S'Okay'
p272
aaa(lp273
S'SHERICause'
p274
a(lp275
g141
aS'gotta'
p276
aS'clean'
p277
aS'up'
p278
aS'in'
p279
aS'here'
p280
aaa(lp281
g274
a(lp282
S'this'
p283
aS'place'
p284
aS'is'
p285
aS'just'
p286
aS'totally'
p287
aS'trashed'
p288
aaa(lp289
g274
a(lp290
S'cause'
p291
aS'Ive'
p292
aS'done'
p293
aS'nothing'
p294
aS'this'
p295
aS'week'
p296
aS'but'
p297
aaa(lp298
g274
a(lp299
S'study'
p300
aS'and'
p301
aS'be'
p302
aS'sick'
p303
aaa(lp304
g274
a(lp305
S'Ive'
p306
aS'got'
p307
ag5
aS'really'
p308
aS'bad'
p309
aS'dental'
p310
aS'problem'
p311
aaa(lp312
g274
a(lp313
S'Or'
p314
aS'something'
p315
aS'with'
p316
aS'my'
p317
aS'mouth'
p318
aaa(lp319
S'STEVEN'
p320
a(lp321
S'Poor'
p322
aS'Mom'
p323
aaa(lp324
S'SHERIThink'
p325
a(lp326
S'Ive'
p327
aS'got'
p328
ag5
aS'sinus'
p329
aS'infection'
p330
aS'or'
p331
aS'something'
p332
aaa(lp333
g325
a(lp334
S'Dont'
p335
aS'Steven'
p336
aaa(lp337
S'STEVEN'
p338
a(lp339
S'Mmkay'
p340
aaa(lp341
S'SHERIPlease'
p342
a(lp343
aa(lp344
g342
a(lp345
g141
aS'know'
p346
aS'its'
p347
aS'tempting'
p348
aaa(lp349
g342
a(lp350
S'What'
p351
aS'Id'
p352
aS'like'
p353
aS'you'
p354
aS'to'
p355
aS'do'
p356
aS'is'
p357
aS'put'
p358
aS'those'
p359
aS'cans'
p360
aS'away'
p361
aS'please'
p362
aaa(lp363
S'STEVEN'
p364
a(lp365
S'Where'
p366
aaa(lp367
g364
a(lp368
S'Where'
p369
aaa(lp370
g364
a(lp371
S'Oh'
p372
aS'there'
p373
aS'they'
p374
aS'are'
p375
aaa(lp376
S'SHERIYeah'
p377
a(lp378
aa(lp379
g377
a(lp380
S'there'
p381
aS'they'
p382
aS'are'
p383
aaa(lp384
S'STEVEN'
p385
a(lp386
S'A'
p387
aS'one'
p388
aaa(lp389
g385
a(lp390
g387
aS'two'
p391
aaa(lp392
g385
a(lp393
S'Lets'
p394
aS'make'
p395
aS'the'
p396
aS'L'
p397
aS'statue'
p398
aS'of'
p399
aS'hamburger'
p400
aS'city'
p401
ag397
aaa(lp402
S'SHERI'
p403
a(lp404
S'Mm'
p405
aaa(lp406
S'STEVEN'
p407
a(lp408
S'The'
p409
aS'statue'
p410
aS'of'
p411
aS'Coke'
p412
aaa(lp413
S'SHERI'
p414
a(lp415
S'Yeah'
p416
aaa(lp417
S'STEVEN'
p418
a(lp419
S'The'
p420
aS'swinging'
p421
aS'X'
p422
aS'barn'
p423
ag422
aaa(lp424
S'SHERI'
p425
a(lp426
S'Youre'
p427
aS'just'
p428
ag5
aS'swinging'
p429
aS'kid'
p430
aS'Steve'
p431
aaa(lp432
S'STEVEN'
p433
a(lp434
S'VOX'
p435
aS'Yeah'
p436
aS'VOX'
p437
aaa(lp438
g433
a(lp439
S'You'
p440
aS'dont'
p441
aS'know'
p442
aS'the'
p443
aS'half'
p444
aS'of'
p445
aS'it'
p446
aaa(lp447
S'SHERI'
p448
a(lp449
g141
aS'dont'
p450
aS'know'
p451
aS'the'
p452
aS'half'
p453
aS'of'
p454
aS'it'
p455
aaa(lp456
g448
a(lp457
S'do'
p458
ag141
aaa(lp459
g448
a(lp460
S'Yeah'
p461
aaa(lp462
g448
a(lp463
S'Oh'
p464
aS'man'
p465
aaa(lp466
g448
a(lp467
S'Hey'
p468
aS'Steve'
p469
aaa(lp470
g448
a(lp471
S'why'
p472
aS'dont'
p473
aS'you'
p474
aS'give'
p475
aS'your'
p476
aS'iguana'
p477
ag5
aS'little'
p478
aS'bit'
p479
aS'of'
p480
aS'banana'
p481
aS'too'
p482
aaa(lp483
g448
a(lp484
S'hed'
p485
aS'probably'
p486
aS'really'
p487
aS'like'
p488
aS'some'
p489
aaa(lp490
g448
a(lp491
S'Hed'
p492
aS'probably'
p493
aS'really'
p494
aS'like'
p495
aS'some'
p496
aS'banana'
p497
aaa(lp498
S'STEVEN'
p499
a(lp500
S'Thanks'
p501
aS'for'
p502
aS'XXXXX'
p503
aS'Mom'
p504
aaa(lp505
S'SHERI'
p506
a(lp507
aa(lp508
g506
a(lp509
S'Oh'
p510
aS'and'
p511
ag141
aS'think'
p512
aS'this'
p513
aS'is'
p514
aS'Robbies'
p515
aS'shirt'
p516
aaa(lp517
g506
a(lp518
S'and'
p519
aS'his'
p520
aS'uh'
p521
aaa(lp522
g506
a(lp523
S'HarleyDavidson'
p524
aS'scarf'
p525
aaa(lp526
g506
a(lp527
S'Right'
p528
aaa(lp529
S'STEVEN'
p530
a(lp531
S'Hmm'
p532
aaa(lp533
S'SHERI'
p534
a(lp535
S'Isnt'
p536
aS'that'
p537
aS'Robbies'
p538
aS'shirt'
p539
aaa(lp540
g534
a(lp541
S'and'
p542
aS'uh'
p543
aS'HarleyDavidson'
p544
aS'scarf'
p545
aS'from'
p546
aS'this'
p547
aS'summer'
p548
aaa(lp549
g534
a(lp550
g141
aS'wanted'
p551
aS'to'
p552
aS'give'
p553
aS'that'
p554
aS'back'
p555
aS'to'
p556
aS'them'
p557
aaa(lp558
g534
a(lp559
S'tomorrow'
p560
aaa(lp561
g534
a(lp562
S'when'
p563
aS'we'
p564
aS'go'
p565
aS'over'
p566
aS'for'
p567
aS'his'
p568
aS'birthday'
p569
aaa(lp570
S'STEVENVOX'
p571
a(lp572
S'XX'
p573
ag422
aS'VOXX'
p574
aaa(lp575
g571
a(lp576
g141
aS'need'
p577
aS'to'
p578
aS'get'
p579
aS'Robbie'
p580
ag5
aS'um'
p581
aS'present'
p582
aS'too'
p583
aaa(lp584
S'SHERIYeah'
p585
a(lp586
aa(lp587
g585
a(lp588
S'what'
p589
aS'do'
p590
aS'you'
p591
aS'think'
p592
aS'hed'
p593
aS'like'
p594
aS'to'
p595
aS'have'
p596
aaa(lp597
S'STEVEN'
p598
a(lp599
S'HI'
p600
aS'Im'
p601
aS'not'
p602
aS'sure'
p603
aS'HI'
p604
aaa(lp605
g598
a(lp606
S'but'
p607
aS'we'
p608
aS'could'
p609
aS'go'
p610
aS'over'
p611
aS'to'
p612
aS'Toys'
p613
aS'R'
p614
aS'Us'
p615
aaa(lp616
S'SHERIit'
p617
a(lp618
S'seems'
p619
aS'to'
p620
aS'me'
p621
ag141
aS'brought'
p622
aS'the'
p623
aS'Toys'
p624
ag614
aS'Us'
p625
aS'catalog'
p626
aS'back'
p627
aS'with'
p628
aS'me'
p629
aaa(lp630
S'STEVENIts'
p631
a(lp632
S'right'
p633
aS'over'
p634
aS'there'
p635
aaa(lp636
S'SHERIOkay'
p637
a(lp638
aa(lp639
S'STEVENIts'
p640
a(lp641
S'over'
p642
aS'there'
p643
aaa(lp644
S'SHERIwhy'
p645
a(lp646
S'dont'
p647
aS'you'
p648
aS'have'
p649
ag5
aS'look'
p650
aS'at'
p651
aS'it'
p652
aaa(lp653
g645
a(lp654
S'and'
p655
aS'see'
p656
aS'if'
p657
aaa(lp658
g645
a(lp659
S'anything'
p660
aS'comes'
p661
aS'to'
p662
aS'mind'
p663
aaa(lp664
g645
a(lp665
S'for'
p666
aS'something'
p667
aS'you'
p668
aS'think'
p669
aS'Robbie'
p670
aS'would'
p671
aS'like'
p672
aS'to'
p673
aS'have'
p674
aaa(lp675
g645
a(lp676
S'for'
p677
aS'his'
p678
aS'birthday'
p679
aaa(lp680
S'STEVENWell'
p681
a(lp682
g141
aS'have'
p683
aS'some'
p684
aS'things'
p685
aS'in'
p686
aS'here'
p687
aS'for'
p688
aS'Christmas'
p689
aaa(lp690
S'SHERIYeah'
p691
a(lp692
aa(lp693
g691
a(lp694
g141
aS'know'
p695
aS'you'
p696
aS'probably'
p697
aS'see'
p698
aS'things'
p699
aS'in'
p700
aS'there'
p701
aS'that'
p702
aS'you'
p703
aS'want'
p704
aS'for'
p705
aS'Christmas'
p706
aaa(lp707
g691
a(lp708
S'but'
p709
aS'right'
p710
aS'now'
p711
aS'were'
p712
aS'thinking'
p713
aS'about'
p714
aS'him'
p715
aS'and'
p716
aS'his'
p717
aS'birthday'
p718
aaa(lp719
S'STEVEN'
p720
a(lp721
S'SIGH'
p722
aS'Okay'
p723
aS'SIGH'
p724
aaa(lp725
S'SHERIAnd'
p726
a(lp727
g141
aS'gotta'
p728
aS's'
p729
aS'get'
p730
aS'started'
p731
aS'on'
p732
aS'this'
p733
aS'chicken'
p734
aS'pizza'
p735
aS'or'
p736
aaa(lp737
g726
a(lp738
S'if'
p739
aS'anybody'
p740
aS'actually'
p741
aS'takes'
p742
aS'me'
p743
aS'up'
p744
aS'on'
p745
aS'this'
p746
aS'and'
p747
aS'comes'
p748
aaa(lp749
S'STEVENTheres'
p750
a(lp751
S'coupons'
p752
aS'in'
p753
aS'here'
p754
aS'too'
p755
aS'Mom'
p756
aaa(lp757
g750
a(lp758
S'so'
p759
aaa(lp760
g750
a(lp761
S'Mom'
p762
aS'theres'
p763
aS'coupons'
p764
aS'in'
p765
aS'here'
p766
aaa(lp767
S'ENV'
p768
a(lp769
aa(lp770
S'STEVENso'
p771
a(lp772
S'we'
p773
aS'can'
p774
aS'get'
p775
aS'some'
p776
aS'things'
p777
aaa(lp778
S'SHERIMhm'
p779
a(lp780
aa(lp781
g779
a(lp782
S'Really'
p783
aaa(lp784
S'STEVEN'
p785
a(lp786
S'Yeah'
p787
aaa(lp788
S'SHERI'
p789
a(lp790
S'Are'
p791
aS'they'
p792
aS'good'
p793
aS'things'
p794
aaa(lp795
S'STEVEN'
p796
a(lp797
S'Yeah'
p798
aaa(lp799
g796
a(lp800
S'And'
p801
aS'theres'
p802
aS'um'
p803
aaa(lp804
g796
a(lp805
S'also'
p806
aaa(lp807
g796
a(lp808
S'theres'
p809
aS'also'
p810
ag5
aS'Nickelodean'
p811
aS'free'
p812
aaa(lp813
S'SHERIXXX'
p814
a(lp815
aa(lp816
S'STEVEN'
p817
a(lp818
S'um'
p819
aS'box'
p820
aS'there'
p821
aaa(lp822
S'SHERI'
p823
a(lp824
S'Really'
p825
aaa(lp826
S'STEVENAnd'
p827
a(lp828
S'its'
p829
ag422
ag5
aS'bowl'
p830
ag422
aS'with'
p831
aS'goodies'
p832
aS'and'
p833
aS'coupons'
p834
aaa(lp835
S'SHERIOh'
p836
a(lp837
S'wow'
p838
aaa(lp839
S'STEVEN'
p840
a(lp841
S'And'
p842
aS'thats'
p843
aS'why'
p844
ag141
aS'wanna'
p845
aS'get'
p846
aS'that'
p847
aaa(lp848
g840
a(lp849
g141
aS'know'
p850
aS'something'
p851
aS'that'
p852
aS'Robbie'
p853
aS'may'
p854
aS'like'
p855
aaa(lp856
g840
a(lp857
S'Let'
p858
aS'me'
p859
aS'try'
p860
aS'to'
p861
aS'find'
p862
aS'it'
p863
aaa(lp864
S'SHERIYeah'
p865
a(lp866
S'unhunh'
p867
aaa(lp868
S'STEVEN'
p869
a(lp870
S'Its'
p871
ag5
aS'Yack'
p872
aS'Pack'
p873
aaa(lp874
S'SHERI'
p875
a(lp876
S'Is'
p877
aS'that'
p878
aS'um'
p879
aaa(lp880
g875
a(lp881
S'full'
p882
aS'of'
p883
aS'yucky'
p884
aS'stuff'
p885
aaa(lp886
g875
a(lp887
S'Or'
p888
aS'what'
p889
aaa(lp890
S'STEVENNo'
p891
a(lp892
aa(lp893
S'SHERI'
p894
a(lp895
S'Are'
p896
aS'you'
p897
aS'sure'
p898
aaa(lp899
S'STEVEN'
p900
a(lp901
S'No'
p902
aaa(lp903
g900
a(lp904
S'Its'
p905
aS'kinda'
p906
aS'like'
p907
ag5
aS'tape'
p908
aS'recorder'
p909
aaa(lp910
S'SHERI'
p911
a(lp912
aa(lp913
g911
a(lp914
S'Oh'
p915
aaa(lp916
g911
a(lp917
S'It'
p918
aS'is'
p919
aaa(lp920
S'STEVENSee'
p921
a(lp922
S'you'
p923
aS'um'
p924
aaa(lp925
g921
a(lp926
S'Like'
p927
aS'you'
p928
aS'tape'
p929
aS'record'
p930
aS'your'
p931
aS'dad'
p932
aS'saying'
p933
aaa(lp934
g921
a(lp935
S'VOX'
p936
aS'clean'
p937
aS'your'
p938
aS'room'
p939
aS'VOX'
p940
aaa(lp941
S'SHERI'
p942
a(lp943
S'Unhunh'
p944
aaa(lp945
S'STEVENAnd'
p946
a(lp947
S'then'
p948
aS'theres'
p949
aS'this'
p950
aS'girl'
p951
aS'on'
p952
aS'TV'
p953
aaa(lp954
g946
a(lp955
S'and'
p956
aS'you'
p957
aS'play'
p958
aS'it'
p959
aaa(lp960
g946
a(lp961
S'and'
p962
aS'it'
p963
ag729
aaa(lp964
g946
a(lp965
S'And'
p966
aS'the'
p967
aS'girl'
p968
aS'says'
p969
aaa(lp970
g946
a(lp971
S'VOX'
p972
aS'clean'
p973
aS'your'
p974
aS'room'
p975
aS'VOX'
p976
aaa(lp977
S'SHERI'
p978
a(lp979
S'So'
p980
aS'is'
p981
aS'it'
p982
aS'kinda'
p983
aS'like'
p984
aS'one'
p985
aS'of'
p986
aS'those'
p987
aS'Talkboys'
p988
aaa(lp989
g978
a(lp990
S'like'
p991
aS'that'
p992
aS'was'
p993
aS'in'
p994
aaa(lp995
S'STEVENYeah'
p996
a(lp997
aa(lp998
S'SHERI'
p999
a(lp1000
S'What'
p1001
aS'do'
p1002
aS'you'
p1003
aS'call'
p1004
aS'it'
p1005
aaa(lp1006
g999
a(lp1007
S'what'
p1008
aS'was'
p1009
aS'that'
p1010
aaa(lp1011
g999
a(lp1012
S'How'
p1013
aS'much'
p1014
aS'would'
p1015
aS'something'
p1016
aS'like'
p1017
aS'that'
p1018
aS'cost'
p1019
aaa(lp1020
S'STEVEN'
p1021
a(lp1022
S'Um'
p1023
aaa(lp1024
g1021
a(lp1025
S'let'
p1026
aS'me'
p1027
aS'look'
p1028
aS'for'
p1029
aS'it'
p1030
aaa(lp1031
g1021
a(lp1032
S'Its'
p1033
aS'in'
p1034
aS'here'
p1035
aaa(lp1036
g1021
a(lp1037
S'Cause'
p1038
ag141
aS'circled'
p1039
aS'it'
p1040
aaa(lp1041
g1021
a(lp1042
S'Okay'
p1043
aS'it'
p1044
aS'costs'
p1045
aaa(lp1046
g1021
a(lp1047
S'nine'
p1048
aS'ninetynine'
p1049
aaa(lp1050
S'SHERI'
p1051
a(lp1052
S'Are'
p1053
aS'you'
p1054
aS'sure'
p1055
aaa(lp1056
S'STEVEN'
p1057
a(lp1058
S'Yeah'
p1059
aaa(lp1060
g1057
a(lp1061
S'thats'
p1062
aS'it'
p1063
aaa(lp1064
S'SHERIWell'
p1065
a(lp1066
S'we'
p1067
aS'could'
p1068
aS'probably'
p1069
aS'afford'
p1070
aS'that'
p1071
aaa(lp1072
g1065
a(lp1073
S'hunh'
p1074
aaa(lp1075
S'STEVEN'
p1076
a(lp1077
S'Oh'
p1078
aS'wait'
p1079
ag5
aS'minute'
p1080
aaa(lp1081
g1076
a(lp1082
g141
aS'think'
p1083
aS'it'
p1084
aS'says'
p1085
aS'twelve'
p1086
aS'ninetynine'
p1087
aaa(lp1088
S'SHERITwelve'
p1089
a(lp1090
S'ninetynine'
p1091
aaa(lp1092
S'STEVENX'
p1093
a(lp1094
S'Thirteen'
p1095
ag422
aS'XX'
p1096
aaa(lp1097
g1093
a(lp1098
S'Come'
p1099
aS'over'
p1100
aS'here'
p1101
aS'and'
p1102
aS'look'
p1103
aaa(lp1104
g1093
a(lp1105
S'And'
p1106
aaa(lp1107
S'SHERI'
p1108
a(lp1109
S'Alright'
p1110
aaa(lp1111
g1108
a(lp1112
S'Hang'
p1113
aS'on'
p1114
aS'just'
p1115
ag5
aS'second'
p1116
aS'honey'
p1117
aaa(lp1118
S'STEVEN'
p1119
a(lp1120
g141
aS'think'
p1121
aS'it'
p1122
aS'says'
p1123
aaa(lp1124
g1119
a(lp1125
S'it'
p1126
aS'says'
p1127
aS'th'
p1128
aaa(lp1129
g1119
a(lp1130
S'twelve'
p1131
aS'ninetynine'
p1132
aaa(lp1133
g1119
a(lp1134
S'and'
p1135
aS'then'
p1136
aS'right'
p1137
aS'here'
p1138
aS'it'
p1139
aS'says'
p1140
aS'Yack'
p1141
aS'Pack'
p1142
aaa(lp1143
g1119
a(lp1144
S'nine'
p1145
aS'ninetynine'
p1146
aaa(lp1147
S'SHERI'
p1148
a(lp1149
S'Ah'
p1150
aaa(lp1151
S'STEVEN'
p1152
a(lp1153
S'Maybe'
p1154
aS'it'
p1155
aS'means'
p1156
aS'Yack'
p1157
aS'Pack'
p1158
aS'one'
p1159
aaa(lp1160
g1152
a(lp1161
S'and'
p1162
aS'this'
p1163
aS'is'
p1164
aS'Yack'
p1165
aS'Pack'
p1166
aS'two'
p1167
aaa(lp1168
S'SHERIYack'
p1169
a(lp1170
aa(lp1171
g1169
a(lp1172
S'Yack'
p1173
aS'Pack'
p1174
aS'two'
p1175
aaa(lp1176
S'STEVENTwo'
p1177
a(lp1178
aa(lp1179
S'SHERIUnhunh'
p1180
a(lp1181
aa(lp1182
S'STEVEN'
p1183
a(lp1184
S'Yeah'
p1185
aaa(lp1186
S'SHERI'
p1187
a(lp1188
S'Hunh'
p1189
aaa(lp1190
S'STEVEN'
p1191
a(lp1192
S'Should'
p1193
aS'we'
p1194
aS'get'
p1195
aS'it'
p1196
aaa(lp1197
S'SHERI'
p1198
a(lp1199
g141
aS'dont'
p1200
aS'know'
p1201
aaa(lp1202
g1198
a(lp1203
S'Why'
p1204
aS'dont'
p1205
aS'we'
p1206
aS'go'
p1207
aS'to'
p1208
aS'Toys'
p1209
ag614
aS'Us'
p1210
aS'tomorrow'
p1211
aaa(lp1212
g1198
a(lp1213
S'and'
p1214
aS'well'
p1215
aaa(lp1216
g1198
a(lp1217
S'uh'
p1218
aaa(lp1219
S'STEVEN'
p1220
a(lp1221
g422
aS'look'
p1222
aS'for'
p1223
aS'it'
p1224
ag422
aaa(lp1225
S'SHERIResearch'
p1226
a(lp1227
S'it'
p1228
aaa(lp1229
g1226
a(lp1230
S'Well'
p1231
aS'see'
p1232
aaa(lp1233
S'STEVENTheres'
p1234
a(lp1235
S'also'
p1236
ag5
aS'um'
p1237
aaa(lp1238
S'SHERIWhat'
p1239
a(lp1240
S'it'
p1241
aS'says'
p1242
aS'they'
p1243
aS'are'
p1244
aS'there'
p1245
aaa(lp1246
S'STEVEN'
p1247
a(lp1248
S'Yeah'
p1249
aS'it'
p1250
aS'does'
p1251
aaa(lp1252
g1247
a(lp1253
S'And'
p1254
aS'theres'
p1255
aaa(lp1256
S'SHERICause'
p1257
a(lp1258
g141
aS'really'
p1259
aS'dont'
p1260
aS'know'
p1261
aaa(lp1262
g1257
a(lp1263
S'its'
p1264
aS'hard'
p1265
aS'to'
p1266
aS'tell'
p1267
aS'you'
p1268
aS'know'
p1269
aaa(lp1270
g1257
a(lp1271
S'if'
p1272
ag141
aS'can'
p1273
aS'afford'
p1274
aS'it'
p1275
aaa(lp1276
g1257
a(lp1277
S'unless'
p1278
ag141
aS'know'
p1279
aS'exactly'
p1280
aS'what'
p1281
aS'the'
p1282
aS'price'
p1283
aS'is'
p1284
aS'on'
p1285
aS'it'
p1286
aaa(lp1287
S'STEVEN'
p1288
a(lp1289
S'Theres'
p1290
aS'also'
p1291
aS'some'
p1292
aS'movies'
p1293
ag141
aS'want'
p1294
aaa(lp1295
S'SHERI'
p1296
a(lp1297
S'Really'
p1298
aaa(lp1299
g1296
a(lp1300
S'And'
p1301
aS'what'
p1302
aS'are'
p1303
aS'those'
p1304
aaa(lp1305
S'STEVENLike'
p1306
a(lp1307
S'Batman'
p1308
aS'Forever'
p1309
aaa(lp1310
S'SHERIMhm'
p1311
a(lp1312
aa(lp1313
S'STEVENand'
p1314
a(lp1315
S'The'
p1316
aS'Santa'
p1317
aS'Clause'
p1318
aaa(lp1319
g1314
a(lp1320
S'With'
p1321
aS'Tim'
p1322
aS'Allen'
p1323
aaa(lp1324
S'SHERI'
p1325
a(lp1326
aa(lp1327
g1325
a(lp1328
S'Who'
p1329
aS'was'
p1330
aS'it'
p1331
aS'who'
p1332
aS'was'
p1333
aS'saying'
p1334
aS'they'
p1335
aS'were'
p1336
aS'gonna'
p1337
aS'buy'
p1338
aS'the'
p1339
aS'movie'
p1340
aS'Casper'
p1341
aS'the'
p1342
aS'Ghost'
p1343
aS'today'
p1344
aaa(lp1345
g1325
a(lp1346
S'Was'
p1347
aS'that'
p1348
aS'Jack'
p1349
aaa(lp1350
S'STEVENZach'
p1351
a(lp1352
aa(lp1353
g1351
a(lp1354
S'Yeah'
p1355
aaa(lp1356
S'SHERI'
p1357
a(lp1358
S'Ah'
p1359
aaa(lp1360
S'STEVENAnd'
p1361
a(lp1362
aa(lp1363
g1361
a(lp1364
S'And'
p1365
aS'Mom'
p1366
aaa(lp1367
g1361
a(lp1368
S'you'
p1369
aS'know'
p1370
aS'what'
p1371
aS'the'
p1372
aS'fun'
p1373
aaa(lp1374
g1361
a(lp1375
S'the'
p1376
aS'f'
p1377
aaa(lp1378
g1361
a(lp1379
S'Its'
p1380
aS'kind'
p1381
aS'of'
p1382
aS'l'
p1383
ag5
aS'game'
p1384
aaa(lp1385
g1361
a(lp1386
S'except'
p1387
aS'um'
p1388
aS'you'
p1389
aaa(lp1390
S'SHERIUnhunh'
p1391
a(lp1392
aa(lp1393
S'STEVENyou'
p1394
a(lp1395
S'ask'
p1396
aS'your'
p1397
aS'cosmic'
p1398
aS'questions'
p1399
aaa(lp1400
g1394
a(lp1401
S'oja'
p1402
aaa(lp1403
g1394
a(lp1404
S'Oija'
p1405
aaa(lp1406
S'SHERI'
p1407
a(lp1408
S'Ouija'
p1409
aaa(lp1410
S'STEVEN'
p1411
a(lp1412
S'Ouija'
p1413
aaa(lp1414
S'SHERI'
p1415
a(lp1416
S'Yeah'
p1417
aS'like'
p1418
ag5
aS'Ouiji'
p1419
aaa(lp1420
g1415
a(lp1421
S'We'
p1422
aS'used'
p1423
aS'to'
p1424
aS'call'
p1425
aS'em'
p1426
aS'Ouija'
p1427
aS'boards'
p1428
aaa(lp1429
g1415
a(lp1430
S'Oh'
p1431
aS'god'
p1432
aS'my'
p1433
aS'head'
p1434
aS'hurts'
p1435
aaa(lp1436
S'STEVENDid'
p1437
a(lp1438
S'you'
p1439
aS'like'
p1440
aS'it'
p1441
aaa(lp1442
S'SHERIOh'
p1443
a(lp1444
aa(lp1445
g1443
a(lp1446
S'Hunh'
p1447
aaa(lp1448
S'STEVEN'
p1449
a(lp1450
S'Did'
p1451
aS'you'
p1452
aS'like'
p1453
aS'it'
p1454
aaa(lp1455
S'SHERIYeah'
p1456
a(lp1457
g141
aS'used'
p1458
aS'to'
p1459
aS'love'
p1460
aS'Ouija'
p1461
aS'boards'
p1462
aS'when'
p1463
ag141
aS'was'
p1464
ag5
aS'little'
p1465
aS'girl'
p1466
aaa(lp1467
g1456
a(lp1468
g141
aS'thought'
p1469
aS'they'
p1470
aS'were'
p1471
aS'really'
p1472
aS'fun'
p1473
aaa(lp1474
g1456
a(lp1475
S'Course'
p1476
aS'we'
p1477
aS'always'
p1478
aS'asked'
p1479
aS'em'
p1480
aS'questions'
p1481
aS'we'
p1482
aS'already'
p1483
aS'knew'
p1484
aS'the'
p1485
aS'answer'
p1486
aS'to'
p1487
aaa(lp1488
S'STEVEN'
p1489
a(lp1490
S'Like'
p1491
aS'what'
p1492
aaa(lp1493
g1489
a(lp1494
S'your'
p1495
aS'homework'
p1496
aaa(lp1497
S'SHERIOh'
p1498
a(lp1499
S'man'
p1500
aaa(lp1501
g1498
a(lp1502
g141
aS'feel'
p1503
aS'like'
p1504
aS'my'
p1505
aS'brains'
p1506
aS'are'
p1507
aS'gonna'
p1508
aS'to'
p1509
aS'come'
p1510
aS'out'
p1511
aaa(lp1512
S'STEVEN'
p1513
a(lp1514
S'Like'
p1515
aS'that'
p1516
aaa(lp1517
S'SHERI'
p1518
a(lp1519
S'Hunh'
p1520
aaa(lp1521
S'STEVEN'
p1522
a(lp1523
S'Like'
p1524
aS'man'
p1525
aaa(lp1526
g1522
a(lp1527
S'my'
p1528
aS'brains'
p1529
aS'feel'
p1530
aS'like'
p1531
aS'theyre'
p1532
aS'gonna'
p1533
aS'come'
p1534
aS'out'
p1535
aaa(lp1536
S'SHERI'
p1537
a(lp1538
S'Well'
p1539
aaa(lp1540
g1537
a(lp1541
S'Ive'
p1542
aS'either'
p1543
aS'got'
p1544
ag5
aS'sinus'
p1545
aaa(lp1546
g1537
a(lp1547
S'Really'
p1548
aS'bad'
p1549
aS'sinus'
p1550
aS'infection'
p1551
aaa(lp1552
g1537
a(lp1553
S'or'
p1554
aS'Ive'
p1555
aS'got'
p1556
aS'an'
p1557
aS'impacted'
p1558
aS'tooth'
p1559
aaa(lp1560
g1537
a(lp1561
S'or'
p1562
aS'something'
p1563
aaa(lp1564
g1537
a(lp1565
S'But'
p1566
aS'my'
p1567
aaa(lp1568
g1537
a(lp1569
S'My'
p1570
aS'head'
p1571
aS'hurts'
p1572
aS'all'
p1573
aS'the'
p1574
aS'way'
p1575
aS'up'
p1576
aS'my'
p1577
aS'nose'
p1578
aS'and'
p1579
aaa(lp1580
g1537
a(lp1581
S'my'
p1582
aS'teeth'
p1583
aS'hurt'
p1584
aS'and'
p1585
aaa(lp1586
g1537
a(lp1587
S'basically'
p1588
ag141
aS'just'
p1589
aaa(lp1590
g1537
a(lp1591
S'am'
p1592
ag5
aS'mess'
p1593
aS'babe'
p1594
aaa(lp1595
S'STEVEN'
p1596
a(lp1597
S'You'
p1598
aS'dont'
p1599
aS'know'
p1600
aS'the'
p1601
aS'half'
p1602
aS'of'
p1603
aS'it'
p1604
aaa(lp1605
S'SHERI'
p1606
a(lp1607
S'Mhm'
p1608
aaa(lp1609
g1606
a(lp1610
g422
aS'Yeah'
p1611
ag422
aaa(lp1612
S'STEVEN'
p1613
a(lp1614
S'Robbie'
p1615
aS'does'
p1616
aS'like'
p1617
aS'remote'
p1618
aS'control'
p1619
aS'cars'
p1620
aaa(lp1621
g1613
a(lp1622
g141
aS'see'
p1623
aS'lots'
p1624
aS'of'
p1625
aS'em'
p1626
aS'in'
p1627
aS'here'
p1628
aaa(lp1629
S'SHERI'
p1630
a(lp1631
S'Oh'
p1632
aS'does'
p1633
aS'he'
p1634
aaa(lp1635
g1630
a(lp1636
S'He'
p1637
aS'likes'
p1638
aS'those'
p1639
aaa(lp1640
S'STEVENYeah'
p1641
a(lp1642
aa(lp1643
S'SHERI'
p1644
a(lp1645
S'Well'
p1646
aS'his'
p1647
aS'Dads'
p1648
aS'into'
p1649
aS'that'
p1650
aS'too'
p1651
aaa(lp1652
S'STEVENBut'
p1653
a(lp1654
aa(lp1655
S'SHERIcause'
p1656
a(lp1657
S'hes'
p1658
aS'into'
p1659
aS'those'
p1660
aS'HarleyDavidsons'
p1661
aS'and'
p1662
aS'stuff'
p1663
aaa(lp1664
g1656
a(lp1665
S'Isnt'
p1666
aS'he'
p1667
aaa(lp1668
S'STEVEN'
p1669
a(lp1670
S'Yeah'
p1671
aS'but'
p1672
aaa(lp1673
g1669
a(lp1674
S'there'
p1675
aS'is'
p1676
aS'something'
p1677
aS'in'
p1678
aS'here'
p1679
aS'that'
p1680
aaa(lp1681
S'SHERIUnhunh'
p1682
a(lp1683
aa(lp1684
S'STEVEN'
p1685
a(lp1686
S'The'
p1687
aS'Doctor'
p1688
aS'Dreadful'
p1689
ag1377
aS'drink'
p1690
aS'lab'
p1691
aaa(lp1692
S'SHERI'
p1693
a(lp1694
S'The'
p1695
aS'who'
p1696
aS'what'
p1697
aaa(lp1698
S'STEVEN'
p1699
a(lp1700
S'VOX'
p1701
aS'The'
p1702
aS'Doctor'
p1703
aS'Dreadful'
p1704
aS'drink'
p1705
aS'lab'
p1706
aS'VOX'
p1707
aaa(lp1708
S'SHERI'
p1709
a(lp1710
S'The'
p1711
aS'Doctor'
p1712
aS'Dreadful'
p1713
aS'drink'
p1714
aS'lab'
p1715
aaa(lp1716
g1709
a(lp1717
S'Oh'
p1718
aS'boy'
p1719
aaa(lp1720
S'STEVEN'
p1721
a(lp1722
S'Yeah'
p1723
aaa(lp1724
S'ENVWATER_RUNNING_IN_SINK'
p1725
a(lp1726
aa(lp1727
S'STEVENHe'
p1728
a(lp1729
S'makes'
p1730
aS'some'
p1731
aS'really'
p1732
aaa(lp1733
g1728
a(lp1734
S'XX'
p1735
aS'nasty'
p1736
aS'drinks'
p1737
aS'that'
p1738
aS'taste'
p1739
aS'great'
p1740
aaa(lp1741
S'SHERI'
p1742
a(lp1743
S'Really'
p1744
aaa(lp1745
S'STEVEN'
p1746
a(lp1747
S'XX'
p1748
aaa(lp1749
S'SHERI'
p1750
a(lp1751
S'This'
p1752
aS'place'
p1753
aS'is'
p1754
aS'such'
p1755
ag5
aS'mess'
p1756
aaa(lp1757
S'ENVWATER_RUNNING_IN_SINK'
p1758
a(lp1759
aa(lp1760
S'SHERIHey'
p1761
a(lp1762
S'Steve'
p1763
aaa(lp1764
g1761
a(lp1765
S'remind'
p1766
aS'me'
p1767
aS'tomorrow'
p1768
aS'when'
p1769
aS'we'
p1770
aS'go'
p1771
aS'shopping'
p1772
aaa(lp1773
g1761
a(lp1774
S'That'
p1775
ag141
aS'wanna'
p1776
aS'get'
p1777
aS'some'
p1778
aS'potting'
p1779
aS'soil'
p1780
aaa(lp1781
S'STEVENYeah'
p1782
a(lp1783
aa(lp1784
S'SHERICause'
p1785
a(lp1786
g141
aS'wanna'
p1787
aS'put'
p1788
aS'these'
p1789
aS'uh'
p1790
aaa(lp1791
g1785
a(lp1792
S'geraniums'
p1793
aaa(lp1794
g1785
a(lp1795
S'in'
p1796
ag5
aS'pot'
p1797
aaa(lp1798
g1785
a(lp1799
S'Because'
p1800
aaa(lp1801
g1785
a(lp1802
S'why'
p1803
aS'they'
p1804
aS'arent'
p1805
aS'dead'
p1806
ag141
aS'dont'
p1807
aS'know'
p1808
aaa(lp1809
g1785
a(lp1810
S'because'
p1811
aS'all'
p1812
ag141
aS'do'
p1813
aS'is'
p1814
aS'take'
p1815
aS'them'
p1816
aS'to'
p1817
aS'the'
p1818
aS'brink'
p1819
aS'of'
p1820
aS'death'
p1821
aS'all'
p1822
aS'the'
p1823
aS'time'
p1824
aS'and'
p1825
aaa(lp1826
g1785
a(lp1827
S'and'
p1828
aS'somehow'
p1829
aS'they'
p1830
aS'manage'
p1831
aS'to'
p1832
aS'keep'
p1833
aS'surviving'
p1834
aS'me'
p1835
aaa(lp1836
g1785
a(lp1837
S'and'
p1838
aS'all'
p1839
aS'my'
p1840
aS'neglect'
p1841
aaa(lp1842
g1785
a(lp1843
S'But'
p1844
ag141
aS'wanna'
p1845
aS'get'
p1846
aS'em'
p1847
aS'in'
p1848
ag5
aS'pot'
p1849
aaa(lp1850
g1785
a(lp1851
S'Because'
p1852
aS'one'
p1853
aS'of'
p1854
aS'ems'
p1855
aS'gonna'
p1856
aS'flower'
p1857
aaa(lp1858
g1785
a(lp1859
S'Its'
p1860
aS'so'
p1861
aS'pretty'
p1862
aaa(lp1863
g1785
a(lp1864
S'And'
p1865
aS'if'
p1866
aS'they'
p1867
aS'were'
p1868
aaa(lp1869
g1785
a(lp1870
S'you'
p1871
aS'know'
p1872
aaa(lp1873
g1785
a(lp1874
S'in'
p1875
ag5
aS'pot'
p1876
aS'with'
p1877
aS'good'
p1878
aS'soil'
p1879
aS'and'
p1880
aS'water'
p1881
aaa(lp1882
g1785
a(lp1883
S'theyd'
p1884
aS'be'
p1885
aS'just'
p1886
aS'beautiful'
p1887
aaa(lp1888
g1785
a(lp1889
S'Theyd'
p1890
aS'be'
p1891
aaa(lp1892
g1785
a(lp1893
S'up'
p1894
aS'and'
p1895
aS'rolling'
p1896
aaa(lp1897
g1785
a(lp1898
S'See'
p1899
aS'if'
p1900
ag141
aS'can'
p1901
aS'find'
p1902
aS'the'
p1903
aS'recipe'
p1904
aS'for'
p1905
aS'my'
p1906
aS'Malaysian'
p1907
aS'chicken'
p1908
aS'pizza'
p1909
aaa(lp1910
g1785
a(lp1911
S'Man'
p1912
aaa(lp1913
g1785
a(lp1914
g141
aS'had'
p1915
aS'the'
p1916
aS'longest'
p1917
aS'day'
p1918
aS'at'
p1919
aS'work'
p1920
aS'today'
p1921
aaa(lp1922
S'ENVWATER_RUNNING_AND_DISH_NOISE'
p1923
a(lp1924
aa(lp1925
S'SHERIJust'
p1926
a(lp1927
S'took'
p1928
aS'forever'
p1929
aaa(lp1930
S'ENVWATER_RUNNING_AND_DISH_NOISE'
p1931
a(lp1932
aa(lp1933
S'SHERIOkay'
p1934
a(lp1935
aa(lp1936
g1934
a(lp1937
S'Mm'
p1938
aS'burp'
p1939
aaa(lp1940
g1934
a(lp1941
S'XP'
p1942
aS'Okay'
p1943
aS'PX'
p1944
aaa(lp1945
g1934
a(lp1946
S'Lets'
p1947
aS'see'
p1948
ag141
aS'gotta'
p1949
aS'find'
p1950
aS'my'
p1951
aS'recipe'
p1952
aaa(lp1953
g1934
a(lp1954
S'Thisll'
p1955
aS'be'
p1956
aS'the'
p1957
aS'tough'
p1958
aS'part'
p1959
aaa(lp1960
g1934
a(lp1961
S'Geez'
p1962
aS'Id'
p1963
aS'lose'
p1964
aS'my'
p1965
aS'head'
p1966
aS'if'
p1967
aS'it'
p1968
aS'wasnt'
p1969
aS'sewn'
p1970
aS'on'
p1971
aaa(lp1972
g1934
a(lp1973
g141
aS'hope'
p1974
aS'nobody'
p1975
aaa(lp1976
g1934
a(lp1977
g141
aS'almost'
p1978
aS'hope'
p1979
aS'nobody'
p1980
aS'does'
p1981
aS'show'
p1982
aS'up'
p1983
aS'for'
p1984
aS'this'
p1985
aS'thing'
p1986
aaa(lp1987
g1934
a(lp1988
S'cause'
p1989
aS'Im'
p1990
aS'not'
p1991
aS'at'
p1992
aS'all'
p1993
aS'ready'
p1994
aaa(lp1995
S'STEVEN'
p1996
a(lp1997
aa(lp1998
g1996
a(lp1999
S'Now'
p2000
aS'look'
p2001
ag141
aS'got'
p2002
aS'the'
p2003
aS'sniffles'
p2004
aaa(lp2005
S'SHERI'
p2006
a(lp2007
S'Do'
p2008
aS'you'
p2009
aS'honey'
p2010
aaa(lp2011
g2006
a(lp2012
S'Got'
p2013
ag5
aS'cold'
p2014
aS'going'
p2015
aaa(lp2016
S'STEVENYeah'
p2017
a(lp2018
aa(lp2019
S'SHERI'
p2020
a(lp2021
S'Aw'
p2022
aaa(lp2023
S'STEVEN'
p2024
a(lp2025
S'Look'
p2026
aS'at'
p2027
aS'Sneaker'
p2028
aS'Mom'
p2029
aaa(lp2030
S'SHERIIm'
p2031
a(lp2032
S'sorry'
p2033
aaa(lp2034
S'STEVENlook'
p2035
a(lp2036
S'on'
p2037
aS'his'
p2038
aS'hand'
p2039
aaa(lp2040
g2035
a(lp2041
S'hes'
p2042
aS'shedding'
p2043
aS'on'
p2044
aS'his'
p2045
aS'hand'
p2046
aaa(lp2047
S'SHERIIm'
p2048
a(lp2049
S'know'
p2050
aaa(lp2051
g2048
a(lp2052
S'he'
p2053
aS'is'
p2054
aS'shedding'
p2055
aS'on'
p2056
aS'his'
p2057
aS'hands'
p2058
aaa(lp2059
g2048
a(lp2060
S'Youre'
p2061
aS'right'
p2062
aaa(lp2063
S'STEVEN'
p2064
a(lp2065
S'Hes'
p2066
aS'such'
p2067
ag5
ag422
aS'good'
p2068
aS'little'
p2069
aS'old'
p2070
ag422
aS'boy'
p2071
aaa(lp2072
S'SHERIHe'
p2073
a(lp2074
S'is'
p2075
aaa(lp2076
g2073
a(lp2077
g141
aS'wanna'
p2078
aS'put'
p2079
aS'some'
p2080
aS'grow'
p2081
aS'lights'
p2082
aS'in'
p2083
aS'here'
p2084
aS'for'
p2085
aS'him'
p2086
aaa(lp2087
g2073
a(lp2088
g422
aS'so'
p2089
aS'we'
p2090
aS'have'
p2091
ag422
aaa(lp2092
g2073
a(lp2093
g422
aS'what'
p2094
aS'the'
p2095
ag422
aS'heck'
p2096
aaa(lp2097
g2073
a(lp2098
S'There'
p2099
aS'we'
p2100
aS'go'
p2101
aaa(lp2102
g2073
a(lp2103
S'theres'
p2104
aS'my'
p2105
aS'pizza'
p2106
aS'recipe'
p2107
aaa(lp2108
g2073
a(lp2109
S'Um'
p2110
aaa(lp2111
S'STEVENX'
p2112
a(lp2113
S'At'
p2114
aS'least'
p2115
ag422
aS'hes'
p2116
aS'not'
p2117
aS'sitting'
p2118
aS'on'
p2119
aS'his'
p2120
aS'feet'
p2121
aaa(lp2122
g2112
a(lp2123
g422
aS'when'
p2124
ag141
aS'pet'
p2125
aS'him'
p2126
aS'now'
p2127
ag422
aaa(lp2128
S'SHERI'
p2129
a(lp2130
S'Well'
p2131
ag141
aS'got'
p2132
aS'the'
p2133
aS'heat'
p2134
aS'turned'
p2135
aaa(lp2136
g2129
a(lp2137
S'Oh'
p2138
aS'Steven'
p2139
aaa(lp2140
g2129
a(lp2141
S'that'
p2142
aS'reminds'
p2143
aS'me'
p2144
aaa(lp2145
g2129
a(lp2146
S'Ive'
p2147
aS'got'
p2148
aS'the'
p2149
aS'heat'
p2150
aS'turned'
p2151
aS'on'
p2152
aS'in'
p2153
aS'here'
p2154
aaa(lp2155
g2129
a(lp2156
S'so'
p2157
aS'weve'
p2158
aS'got'
p2159
ag5
aS'gas'
p2160
aS'heater'
p2161
aaa(lp2162
g2129
a(lp2163
S'in'
p2164
aS'here'
p2165
aaa(lp2166
g2129
a(lp2167
S'So'
p2168
aS'every'
p2169
aS'once'
p2170
aS'in'
p2171
ag5
aS'while'
p2172
aS'itll'
p2173
aS'fire'
p2174
aS'on'
p2175
aS'and'
p2176
aS'youll'
p2177
aS'see'
p2178
aS'like'
p2179
aaa(lp2180
g2129
a(lp2181
S'flames'
p2182
aS'go'
p2183
aS'on'
p2184
aS'or'
p2185
aS'something'
p2186
aaa(lp2187
g2129
a(lp2188
S'dont'
p2189
aS'be'
p2190
aS'scared'
p2191
aaa(lp2192
g2129
a(lp2193
S'but'
p2194
aS'dont'
p2195
aS'mess'
p2196
aS'with'
p2197
aS'this'
p2198
aS'here'
p2199
aaa(lp2200
g2129
a(lp2201
S'and'
p2202
aS'this'
p2203
aS'plate'
p2204
aS'in'
p2205
aS'your'
p2206
aS'bedroom'
p2207
aaa(lp2208
g2129
a(lp2209
S'Steven'
p2210
aaa(lp2211
S'STEVEN'
p2212
a(lp2213
S'Mhm'
p2214
aaa(lp2215
S'SHERIThe'
p2216
a(lp2217
S'landlords'
p2218
aS'gotta'
p2219
aS'put'
p2220
ag5
aS'vent'
p2221
aS'over'
p2222
aS'it'
p2223
aaa(lp2224
g2216
a(lp2225
S'Come'
p2226
aS'here'
p2227
aaa(lp2228
g2216
a(lp2229
g141
aS'wanna'
p2230
aS'show'
p2231
aS'you'
p2232
aaa(lp2233
g2216
a(lp2234
S'Please'
p2235
aS'come'
p2236
aS'here'
p2237
aaa(lp2238
S'STEVEN'
p2239
a(lp2240
S'Mhm'
p2241
aaa(lp2242
S'SHERI'
p2243
a(lp2244
S'Dont'
p2245
aS'touch'
p2246
aS'this'
p2247
aS'cause'
p2248
aS'you'
p2249
aS'could'
p2250
aS'burn'
p2251
aS'yourself'
p2252
aaa(lp2253
g2243
a(lp2254
S'Okay'
p2255
aaa(lp2256
S'STEVEN'
p2257
a(lp2258
S'With'
p2259
aS'the'
p2260
aS'gas'
p2261
aS'heater'
p2262
aaa(lp2263
S'SHERIDont'
p2264
a(lp2265
S'touch'
p2266
aS'this'
p2267
aaa(lp2268
g2264
a(lp2269
S'And'
p2270
aS'dont'
p2271
aS'mess'
p2272
aS'with'
p2273
aS'this'
p2274
aS'uh'
p2275
aS'pipe'
p2276
aS'here'
p2277
aS'at'
p2278
aS'all'
p2279
aaa(lp2280
g2264
a(lp2281
S'cause'
p2282
aS'thats'
p2283
aS'where'
p2284
aS'the'
p2285
aS'gas'
p2286
aS'goes'
p2287
aS'through'
p2288
aaa(lp2289
g2264
a(lp2290
S'Okay'
p2291
aaa(lp2292
S'STEVENMhm'
p2293
a(lp2294
aa(lp2295
S'SHERI'
p2296
a(lp2297
S'So'
p2298
aS'with'
p2299
aS'that'
p2300
aS'in'
p2301
aS'mind'
p2302
aaa(lp2303
g2296
a(lp2304
S'cause'
p2305
aS'thats'
p2306
aS'not'
p2307
aS'up'
p2308
aS't'
p2309
aaa(lp2310
S'STEVENXXX'
p2311
a(lp2312
S'XXXX'
p2313
aaa(lp2314
S'SHERIThats'
p2315
a(lp2316
S'not'
p2317
aS'up'
p2318
aS'to'
p2319
aS'building'
p2320
aS'code'
p2321
aaa(lp2322
g2315
a(lp2323
S'Um'
p2324
aaa(lp2325
g2315
a(lp2326
S'the'
p2327
aS'gas'
p2328
aS'guy'
p2329
aaa(lp2330
g2315
a(lp2331
S'when'
p2332
aS'he'
p2333
aS'came'
p2334
aS'in'
p2335
aS'he'
p2336
aS'told'
p2337
aS'me'
p2338
aaa(lp2339
g2315
a(lp2340
S'thats'
p2341
aS'not'
p2342
aS'code'
p2343
aaa(lp2344
g2315
a(lp2345
S'and'
p2346
aS'he'
p2347
aS'said'
p2348
aS'it'
p2349
aS'wasnt'
p2350
aS'that'
p2351
aS'it'
p2352
aS'was'
p2353
aS'unsafe'
p2354
aS'but'
p2355
aaa(lp2356
g2315
a(lp2357
S'we'
p2358
aS'still'
p2359
aS'need'
p2360
aS'to'
p2361
aS'be'
p2362
aS'very'
p2363
aS'careful'
p2364
aS'about'
p2365
aS'it'
p2366
aaa(lp2367
g2315
a(lp2368
S'Alright'
p2369
aaa(lp2370
S'STEVEN'
p2371
a(lp2372
S'Alright'
p2373
aS'Mom'
p2374
aaa(lp2375
S'SHERIDid'
p2376
a(lp2377
S'you'
p2378
aS'hear'
p2379
aS'me'
p2380
aS'okay'
p2381
aaa(lp2382
S'STEVEN'
p2383
a(lp2384
S'Yeah'
p2385
aaa(lp2386
S'SHERI'
p2387
a(lp2388
S'Okay'
p2389
aaa(lp2390
g2387
a(lp2391
S'So'
p2392
aS'come'
p2393
aS'here'
p2394
aaa(lp2395
g2387
a(lp2396
S'what'
p2397
aS'do'
p2398
aS'you'
p2399
aS'want'
p2400
aS'me'
p2401
aS'to'
p2402
aS'put'
p2403
aS'on'
p2404
aS'your'
p2405
aS'pizza'
p2406
aaa(lp2407
g2387
a(lp2408
S'Steve'
p2409
aaa(lp2410
S'STEVEN'
p2411
a(lp2412
aa(lp2413
S'SHERIL'
p2414
a(lp2415
S'Esteban'
p2416
ag397
aaa(lp2417
S'STEVEN'
p2418
a(lp2419
aa(lp2420
S'SHERIYoure'
p2421
a(lp2422
S'gonna'
p2423
aS'have'
p2424
aS'pepperoni'
p2425
aaa(lp2426
g2421
a(lp2427
S'and'
p2428
aS'stuff'
p2429
aS'on'
p2430
aS'your'
p2431
aS'pizza'
p2432
aaa(lp2433
g2421
a(lp2434
S'or'
p2435
aS'are'
p2436
aS'you'
p2437
aS'not'
p2438
aS'hungry'
p2439
aS'right'
p2440
aS'now'
p2441
aaa(lp2442
S'STEVENI'
p2443
a(lp2444
S'want'
p2445
aS'some'
p2446
ag397
aS'pepperoni'
p2447
ag397
aaa(lp2448
S'SHERIMhm'
p2449
a(lp2450
aa(lp2451
S'STEVEN'
p2452
a(lp2453
S'Some'
p2454
aS'hmm'
p2455
aaa(lp2456
S'SHERI'
p2457
a(lp2458
S'Mhm'
p2459
aaa(lp2460
S'STEVENXX'
p2461
a(lp2462
S'SNAP'
p2463
aS'cheese'
p2464
aS'SNAP'
p2465
aaa(lp2466
S'SHERI'
p2467
a(lp2468
S'Okay'
p2469
aaa(lp2470
g2467
a(lp2471
S'You'
p2472
aS'want'
p2473
aS'mozzarella'
p2474
aaa(lp2475
S'STEVEN'
p2476
a(lp2477
S'Whats'
p2478
aS'that'
p2479
aaa(lp2480
S'SHERI'
p2481
a(lp2482
g397
aS'Mozzarella'
p2483
ag397
aaa(lp2484
g2481
a(lp2485
S'Thats'
p2486
aS'that'
p2487
aS'white'
p2488
aS'cheese'
p2489
aS'that'
p2490
aS'gets'
p2491
aS'all'
p2492
aS'stringy'
p2493
aS'and'
p2494
aS'melted'
p2495
aaa(lp2496
S'STEVEN'
p2497
a(lp2498
S'You'
p2499
aS'mean'
p2500
aS'the'
p2501
aS'one'
p2502
aS'that'
p2503
ag141
aaa(lp2504
g2497
a(lp2505
S'Kinda'
p2506
aS'like'
p2507
aS'um'
p2508
aS'Figaro'
p2509
aaa(lp2510
S'SHERI'
p2511
a(lp2512
S'Hmm'
p2513
aaa(lp2514
g2511
a(lp2515
S'Im'
p2516
aS'making'
p2517
aS'Malaysian'
p2518
aS'chicken'
p2519
aS'pizza'
p2520
aaa(lp2521
g2511
a(lp2522
S'Where'
p2523
aS'are'
p2524
aS'you'
p2525
aaa(lp2526
S'STEVENNo'
p2527
a(lp2528
S'chicken'
p2529
aS'pizza'
p2530
aaa(lp2531
S'SHERIYou'
p2532
a(lp2533
S'want'
p2534
aaa(lp2535
g2532
a(lp2536
S'No'
p2537
aaa(lp2538
g2532
a(lp2539
S'its'
p2540
aS'wonderful'
p2541
aaa(lp2542
g2532
a(lp2543
S'Steven'
p2544
aaa(lp2545
g2532
a(lp2546
S'its'
p2547
aS'better'
p2548
aS'than'
p2549
aaa(lp2550
S'STEVENMRC'
p2551
a(lp2552
g141
aS'do'
p2553
aS'not'
p2554
aS'like'
p2555
aS'chicken'
p2556
aS'in'
p2557
aS'my'
p2558
aS'pizza'
p2559
aS'MRC'
p2560
aaa(lp2561
S'SHERIWell'
p2562
a(lp2563
aa(lp2564
S'STEVEN'
p2565
a(lp2566
aa(lp2567
S'SHERII'
p2568
a(lp2569
S'know'
p2570
aS'peanut'
p2571
aS'butter'
p2572
aS'seems'
p2573
aS'weird'
p2574
aS'to'
p2575
aS'have'
p2576
aS'on'
p2577
aS'pizza'
p2578
aaa(lp2579
g2568
a(lp2580
S'but'
p2581
aS'its'
p2582
aS'really'
p2583
aS'good'
p2584
aaa(lp2585
S'STEVEN'
p2586
a(lp2587
S'SNAP'
p2588
aS'No'
p2589
aS'SNAP'
p2590
ag141
aS'said'
p2591
aS'ch'
p2592
aaa(lp2593
S'SHERICome'
p2594
a(lp2595
S'here'
p2596
aS'please'
p2597
aaa(lp2598
S'STEVENYou'
p2599
a(lp2600
S'said'
p2601
aS'chicken'
p2602
aaa(lp2603
g2599
a(lp2604
g422
aS'and'
p2605
ag422
aaa(lp2606
S'SHERIYeah'
p2607
a(lp2608
g141
aS'know'
p2609
aaa(lp2610
g2607
a(lp2611
S'Oh'
p2612
aS'man'
p2613
aaa(lp2614
g2607
a(lp2615
g141
aS'forgot'
p2616
aS'to'
p2617
aS'get'
p2618
aS'the'
p2619
aS'Pam'
p2620
aS'cooking'
p2621
aS'spray'
p2622
aaa(lp2623
g2607
a(lp2624
S'Doggone'
p2625
aS'it'
p2626
aaa(lp2627
S'Steven'
p2628
a(lp2629
aa(lp2630
S'SHERI'
p2631
a(lp2632
S'Do'
p2633
aS'you'
p2634
aS'need'
p2635
aS'an'
p2636
aS'asthma'
p2637
aS'treatment'
p2638
aaa(lp2639
S'STEVEN'
p2640
a(lp2641
S'No'
p2642
aaa(lp2643
g2640
a(lp2644
S'Just'
p2645
aS'got'
p2646
ag5
aS'cough'
p2647
aaa(lp2648
S'SHERIAre'
p2649
a(lp2650
S'you'
p2651
aS'sure'
p2652
aaa(lp2653
S'STEVEN'
p2654
a(lp2655
S'Yes'
p2656
aaa(lp2657
S'SHERI'
p2658
a(lp2659
S'Did'
p2660
aS'you'
p2661
aS'give'
p2662
aS'Sneaker'
p2663
aS'some'
p2664
aS'fresh'
p2665
aS'lettuce'
p2666
aaa(lp2667
S'STEVEN'
p2668
a(lp2669
S'Yeah'
p2670
aaa(lp2671
S'SHERI'
p2672
a(lp2673
S'Okay'
p2674
aaa(lp2675
g2672
a(lp2676
S'Ive'
p2677
aS'got'
p2678
aS'chicken'
p2679
aS'cacciatore'
p2680
aS'here'
p2681
aS'too'
p2682
aS'honey'
p2683
aaa(lp2684
g2672
a(lp2685
S'that'
p2686
ag141
aS'can'
p2687
aS'heat'
p2688
aS'up'
p2689
aS'for'
p2690
aS'you'
p2691
aS'if'
p2692
aS'youre'
p2693
aS'hungry'
p2694
aaa(lp2695
g2672
a(lp2696
S'If'
p2697
aS'it'
p2698
aS'takes'
p2699
aS'too'
p2700
aS'long'
p2701
aS'for'
p2702
aS'me'
p2703
aS'to'
p2704
aS'make'
p2705
aS'the'
p2706
aS'pizza'
p2707
aaa(lp2708
S'STEVEN'
p2709
a(lp2710
S'Okay'
p2711
aaa(lp2712
S'SHERI'
p2713
a(lp2714
S'Okay'
p2715
aaa(lp2716
S'STEVEN'
p2717
a(lp2718
S'Okay'
p2719
aaa(lp2720
S'SHERII'
p2721
a(lp2722
S'know'
p2723
aS'youre'
p2724
aS'probably'
p2725
aS'hungry'
p2726
aaa(lp2727
g2721
a(lp2728
S'Tell'
p2729
aS'you'
p2730
aS'what'
p2731
aaa(lp2732
g2721
a(lp2733
S'Ill'
p2734
aS'make'
p2735
aS'your'
p2736
aS'pizza'
p2737
aS'first'
p2738
aaa(lp2739
g2721
a(lp2740
S'cause'
p2741
aS'yours'
p2742
aS'is'
p2743
aS'easy'
p2744
aS'to'
p2745
aS'make'
p2746
aaa(lp2747
g2721
a(lp2748
S'And'
p2749
aS'then'
p2750
aS'Ill'
p2751
aS'make'
p2752
aS'this'
p2753
aS'fancy'
p2754
aS'one'
p2755
aS'second'
p2756
aaa(lp2757
S'STEVENOkay'
p2758
a(lp2759
aa(lp2760
S'SHERI'
p2761
a(lp2762
S'That'
p2763
aS'way'
p2764
aS'you'
p2765
aS'wont'
p2766
aS'have'
p2767
aS'to'
p2768
aS'wait'
p2769
aS'very'
p2770
aS'long'
p2771
aS'to'
p2772
aS'eat'
p2773
aaa(lp2774
g2761
a(lp2775
S'Cause'
p2776
ag141
aS'dont'
p2777
aS'know'
p2778
aaa(lp2779
g2761
a(lp2780
g141
aS'dont'
p2781
aS'know'
p2782
aS'if'
p2783
aaa(lp2784
g2761
a(lp2785
S'These'
p2786
aS'people'
p2787
aS'may'
p2788
aS'not'
p2789
aS'even'
p2790
aS'show'
p2791
aS'up'
p2792
aaa(lp2793
g2761
a(lp2794
g422
aS'You'
p2795
aS'know'
p2796
ag422
aS'theyre'
p2797
aS'kind'
p2798
aS'of'
p2799
aS'flaky'
p2800
aaa(lp2801
S'STEVENThink'
p2802
a(lp2803
S'theyll'
p2804
aS'ever'
p2805
aaa(lp2806
g2802
a(lp2807
g141
aS'think'
p2808
aS'theyll'
p2809
aS'just'
p2810
aS'stay'
p2811
aS'home'
p2812
aaa(lp2813
S'SHERI'
p2814
a(lp2815
aa(lp2816
g2814
a(lp2817
S'Well'
p2818
ag141
aS'dont'
p2819
aS'know'
p2820
aaa(lp2821
S'STEVENThere'
p2822
a(lp2823
S'm'
p2824
aaa(lp2825
g2822
a(lp2826
S'Here'
p2827
aS'it'
p2828
aS'is'
p2829
aS'Mom'
p2830
aaa(lp2831
g2822
a(lp2832
S'The'
p2833
aS'free'
p2834
aS'Nickelodean'
p2835
aS'treat'
p2836
aS'box'
p2837
aaa(lp2838
S'SHERI'
p2839
a(lp2840
S'Free'
p2841
aaa(lp2842
S'STEVENREAD'
p2843
a(lp2844
S'Bring'
p2845
aS'this'
p2846
aS'coupon'
p2847
aS'to'
p2848
aS'Toys'
p2849
ag614
aS'Us'
p2850
aaa(lp2851
g2843
a(lp2852
S'and'
p2853
aS'get'
p2854
aS'your'
p2855
aS'free'
p2856
aS'Nickelodean'
p2857
aS'PAR'
p2858
aS'ar'
p2859
aS'PAR'
p2860
aS'treat'
p2861
aS'box'
p2862
aaa(lp2863
S'SHERI'
p2864
a(lp2865
S'Hm'
p2866
aaa(lp2867
S'STEVENfilled'
p2868
a(lp2869
S'with'
p2870
aS'goodies'
p2871
aS'and'
p2872
aS'coupons'
p2873
aS'READ'
p2874
aaa(lp2875
S'SHERI'
p2876
a(lp2877
S'Mmkay'
p2878
aaa(lp2879
S'ENV'
p2880
a(lp2881
aa(lp2882
S'SHERIMmkay'
p2883
a(lp2884
aa(lp2885
g2883
a(lp2886
S'were'
p2887
aS'going'
p2888
aS'to'
p2889
aS'make'
p2890
aS'yours'
p2891
aaa(lp2892
g2883
a(lp2893
S'quick'
p2894
aS'and'
p2895
aS'dirty'
p2896
aS'kid'
p2897
aaa(lp2898
g2883
a(lp2899
S'Lets'
p2900
aS'see'
p2901
aaa(lp2902
g2883
a(lp2903
S'Wheres'
p2904
aS'that'
p2905
aS'stuff'
p2906
aaa(lp2907
g2883
a(lp2908
S'Aw'
p2909
aS'man'
p2910
aaa(lp2911
g2883
a(lp2912
S'This'
p2913
aS'stuff'
p2914
aS'can'
p2915
aS'go'
p2916
aS'over'
p2917
aS'here'
p2918
aaa(lp2919
g2883
a(lp2920
S'so'
p2921
aS'Steve'
p2922
aaa(lp2923
g2883
a(lp2924
S'you'
p2925
aS'going'
p2926
aS'to'
p2927
ag5
aS'computer'
p2928
aS'lab'
p2929
aS'now'
p2930
aaa(lp2931
g2883
a(lp2932
S'at'
p2933
aS'the'
p2934
aS'Hemingway'
p2935
aS'Learning'
p2936
aS'Institute'
p2937
aaa(lp2938
g2883
a(lp2939
S'Is'
p2940
aS'that'
p2941
aS'fun'
p2942
aaa(lp2943
S'STEVEN'
p2944
a(lp2945
S'Hmm'
p2946
aaa(lp2947
S'SHERI'
p2948
a(lp2949
S'Yeah'
p2950
aaa(lp2951
S'STEVEN'
p2952
a(lp2953
S'Well'
p2954
ag141
aS'never'
p2955
aaa(lp2956
g2952
a(lp2957
S'Well'
p2958
ag141
aS'didnt'
p2959
aS'go'
p2960
aS'last'
p2961
aS'Friday'
p2962
aaa(lp2963
g2952
a(lp2964
S'because'
p2965
ag141
aS'forgot'
p2966
aaa(lp2967
S'SHERI'
p2968
a(lp2969
S'Oh'
p2970
aS'did'
p2971
aS'you'
p2972
aaa(lp2973
S'STEVEN'
p2974
a(lp2975
S'Yeah'
p2976
aaa(lp2977
S'SHERI'
p2978
a(lp2979
S'Cause'
p2980
aS'it'
p2981
aS'just'
p2982
aS'started'
p2983
aS'huh'
p2984
aaa(lp2985
S'STEVEN'
p2986
a(lp2987
S'Yeah'
p2988
aaa(lp2989
S'SHERI'
p2990
a(lp2991
S'Yeah'
p2992
aaa(lp2993
S'STEVENIm'
p2994
a(lp2995
S'not'
p2996
aS'sure'
p2997
aS'if'
p2998
aS'they'
p2999
aS'counted'
p3000
aS'me'
p3001
aaa(lp3002
S'SHERI'
p3003
a(lp3004
S'Oh'
p3005
ag141
aS'dont'
p3006
aS'know'
p3007
aS'babe'
p3008
aaa(lp3009
g3003
a(lp3010
S'Did'
p3011
aS'your'
p3012
aS'dad'
p3013
aS'go'
p3014
aS'to'
p3015
aS'California'
p3016
aS'this'
p3017
aS'weekend'
p3018
aaa(lp3019
S'STEVEN'
p3020
a(lp3021
S'Hes'
p3022
aaa(lp3023
g3020
a(lp3024
S'He'
p3025
aS'just'
p3026
aS'le'
p3027
aS'left'
p3028
aS'today'
p3029
aS'before'
p3030
ag141
aS'woke'
p3031
aS'up'
p3032
aaa(lp3033
S'SHERI'
p3034
a(lp3035
S'Oh'
p3036
aaa(lp3037
g3034
a(lp3038
S'he'
p3039
aS'left'
p3040
aS'this'
p3041
aS'morning'
p3042
aaa(lp3043
S'STEVEN'
p3044
a(lp3045
g422
aS'Yeah'
p3046
ag422
aaa(lp3047
S'SHERI'
p3048
a(lp3049
S'California'
p3050
aaa(lp3051
S'STEVEN'
p3052
a(lp3053
S'Yeah'
p3054
aaa(lp3055
S'SHERIKay'
p3056
a(lp3057
aa(lp3058
S'STEVEN'
p3059
a(lp3060
aa(lp3061
S'SHERI'
p3062
a(lp3063
S'Steven'
p3064
aaa(lp3065
g3062
a(lp3066
S'do'
p3067
aS'you'
p3068
aS'know'
p3069
aS'how'
p3070
aS'to'
p3071
aS'grate'
p3072
aS'cheese'
p3073
aaa(lp3074
S'STEVEN'
p3075
a(lp3076
S'Grate'
p3077
aS'cheese'
p3078
aaa(lp3079
S'SHERIYes'
p3080
a(lp3081
aa(lp3082
S'STEVEN'
p3083
a(lp3084
g422
aS'Yeah'
p3085
aS'why'
p3086
ag422
aaa(lp3087
g3083
a(lp3088
S'You'
p3089
aS'dont'
p3090
aS'know'
p3091
aS'how'
p3092
aS'to'
p3093
aS'Mom'
p3094
aaa(lp3095
S'SHERII'
p3096
a(lp3097
S'beg'
p3098
aS'your'
p3099
aS'pardon'
p3100
aaa(lp3101
S'STEVEN'
p3102
a(lp3103
S'You'
p3104
aS'dont'
p3105
aS'know'
p3106
aS'how'
p3107
aS'to'
p3108
aaa(lp3109
S'SHERI'
p3110
a(lp3111
S'Im'
p3112
aS'sorry'
p3113
aaa(lp3114
g3110
a(lp3115
g141
aS'cant'
p3116
aS'hear'
p3117
aS'you'
p3118
aaa(lp3119
S'STEVENDo'
p3120
a(lp3121
S'you'
p3122
aaa(lp3123
g3120
a(lp3124
S'You'
p3125
aS'dont'
p3126
aS'know'
p3127
aS'how'
p3128
aS'to'
p3129
aaa(lp3130
S'SHERINo'
p3131
a(lp3132
aa(lp3133
g3131
a(lp3134
g141
aS'do'
p3135
aS'know'
p3136
aS'how'
p3137
aS'to'
p3138
aaa(lp3139
g3131
a(lp3140
S'Im'
p3141
aS'wondering'
p3142
aS'if'
p3143
aS'you'
p3144
aS'would'
p3145
aS'like'
p3146
aS'to'
p3147
aS'grate'
p3148
aS'some'
p3149
aS'cheese'
p3150
aS'to'
p3151
aS'put'
p3152
aS'on'
p3153
aS'your'
p3154
aS'pizza'
p3155
aaa(lp3156
S'STEVEN'
p3157
a(lp3158
S'Sure'
p3159
aaa(lp3160
S'SHERI'
p3161
a(lp3162
S'Or'
p3163
aS'are'
p3164
aS'you'
p3165
aS'enjoying'
p3166
aS'just'
p3167
aS'looking'
p3168
aS'at'
p3169
aS'your'
p3170
aS'catalog'
p3171
aaa(lp3172
g3161
a(lp3173
S'You'
p3174
aS'dont'
p3175
aS'have'
p3176
aS'to'
p3177
aS'do'
p3178
aS'that'
p3179
aS'if'
p3180
aS'you'
p3181
aS'dont'
p3182
aS'want'
p3183
aS'to'
p3184
aaa(lp3185
S'STEVEN'
p3186
a(lp3187
S'Ill'
p3188
aS'grate'
p3189
aS'em'
p3190
aaa(lp3191
g3186
a(lp3192
S'XXX'
p3193
aS'XX'
p3194
aS'wants'
p3195
aS'to'
p3196
aS'XX'
p3197
aaa(lp3198
S'SHERIMkay'
p3199
a(lp3200
aa(lp3201
g3199
a(lp3202
S'Were'
p3203
aS'gonna'
p3204
aS'need'
p3205
aS'to'
p3206
aS'put'
p3207
aS'sauce'
p3208
aS'on'
p3209
aS'the'
p3210
aS'uh'
p3211
aaa(lp3212
g3199
a(lp3213
S'Oh'
p3214
aS'boy'
p3215
aS'my'
p3216
aS'face'
p3217
aS'hurts'
p3218
aaa(lp3219
S'STEVENX'
p3220
a(lp3221
S'thing'
p3222
ag422
aS'first'
p3223
aaa(lp3224
S'SHERI'
p3225
a(lp3226
S'Yeah'
p3227
aaa(lp3228
g3225
a(lp3229
S'Ive'
p3230
aS'gotta'
p3231
aaa(lp3232
S'STEVENOkay'
p3233
a(lp3234
aa(lp3235
g3233
a(lp3236
S'Ill'
p3237
aS'wait'
p3238
aS'until'
p3239
aS'after'
p3240
aS'that'
p3241
aaa(lp3242
S'SHERI'
p3243
a(lp3244
S'Well'
p3245
aaa(lp3246
g3243
a(lp3247
S'putting'
p3248
aS'sauce'
p3249
aS'on'
p3250
aS'its'
p3251
aS'real'
p3252
aS'simple'
p3253
aaa(lp3254
g3243
a(lp3255
S'All'
p3256
ag141
aS'have'
p3257
aS'to'
p3258
aS'do'
p3259
aS'is'
p3260
aS'open'
p3261
ag5
aS'can'
p3262
aaa(lp3263
g3243
a(lp3264
S'and'
p3265
aS'dump'
p3266
aS'it'
p3267
aS'on'
p3268
aaa(lp3269
g3243
a(lp3270
S'Its'
p3271
aaa(lp3272
g3243
a(lp3273
S'Were'
p3274
aS'doing'
p3275
aS'things'
p3276
aS'very'
p3277
aS'simple'
p3278
aS'tonight'
p3279
aaa(lp3280
S'STEVENMom'
p3281
a(lp3282
aa(lp3283
g3281
a(lp3284
S'they'
p3285
aS'have'
p3286
aS'costumes'
p3287
aS'in'
p3288
aS'here'
p3289
aS'too'
p3290
aaa(lp3291
S'SHERIDo'
p3292
a(lp3293
S'they'
p3294
aS'have'
p3295
ag5
aS'Tick'
p3296
aS'costume'
p3297
aaa(lp3298
g3292
a(lp3299
S'that'
p3300
aS'you'
p3301
aS'wanted'
p3302
aaa(lp3303
S'STEVEN'
p3304
a(lp3305
S'No'
p3306
aaa(lp3307
g3304
a(lp3308
S'they'
p3309
aS'dont'
p3310
aaa(lp3311
S'SHERIHm'
p3312
a(lp3313
aa(lp3314
S'STEVENThey'
p3315
a(lp3316
S'have'
p3317
aS'Spider'
p3318
aS'Man'
p3319
aaa(lp3320
g3315
a(lp3321
S'Jaws'
p3322
aaa(lp3323
g3315
a(lp3324
g5
aS'gargoyle'
p3325
aaa(lp3326
g3315
a(lp3327
g422
aS'some'
p3328
ag422
aaa(lp3329
g3315
a(lp3330
g5
aS'ninja'
p3331
aaa(lp3332
g3315
a(lp3333
S'clown'
p3334
aS'and'
p3335
ag5
aS'witch'
p3336
aaa(lp3337
S'SHERI'
p3338
a(lp3339
S'Unhunh'
p3340
aaa(lp3341
S'STEVEN'
p3342
a(lp3343
g141
aS'think'
p3344
aS'the'
p3345
aS'clown'
p3346
aaa(lp3347
g3342
a(lp3348
S'or'
p3349
aS'the'
p3350
aS'ninja'
p3351
aS'would'
p3352
aS'be'
p3353
aS'good'
p3354
aaa(lp3355
S'SHERI'
p3356
a(lp3357
S'Well'
p3358
aS'would'
p3359
aS'you'
p3360
aS'wanna'
p3361
aS'be'
p3362
ag5
aS'clown'
p3363
aS'or'
p3364
ag5
aS'ninja'
p3365
aaa(lp3366
g3356
a(lp3367
S'instead'
p3368
aS'of'
p3369
aS'the'
p3370
aS'Tick'
p3371
aaa(lp3372
g3356
a(lp3373
S'Or'
p3374
aaa(lp3375
S'STEVENI'
p3376
a(lp3377
S'wanna'
p3378
aS'be'
p3379
aS'the'
p3380
aS'Tick'
p3381
aaa(lp3382
S'SHERI'
p3383
a(lp3384
S'Okay'
p3385
aaa(lp3386
g3383
a(lp3387
g141
aS'think'
p3388
aS'the'
p3389
aS'Ticks'
p3390
aS'pretty'
p3391
aS'classy'
p3392
aS'myself'
p3393
aaa(lp3394
g3383
a(lp3395
g141
aS'was'
p3396
aS'telling'
p3397
aS'everybody'
p3398
aS'at'
p3399
aS'work'
p3400
aaa(lp3401
g3383
a(lp3402
S'that'
p3403
aS'you'
p3404
aS'wanted'
p3405
aS'to'
p3406
aS'be'
p3407
aS'the'
p3408
aS'Tick'
p3409
aS'for'
p3410
aS'Halloween'
p3411
aaa(lp3412
g3383
a(lp3413
S'and'
p3414
aS'they'
p3415
aS'thought'
p3416
aS'that'
p3417
aS'was'
p3418
aS'cool'
p3419
aaa(lp3420
g3383
a(lp3421
S'cause'
p3422
aS'everybody'
p3423
aS'at'
p3424
aS'work'
p3425
aS'watches'
p3426
aS'the'
p3427
aS'Tick'
p3428
aaa(lp3429
g3383
a(lp3430
S'and'
p3431
aS'they'
p3432
aS'like'
p3433
aS'it'
p3434
aS'too'
p3435
aaa(lp3436
S'STEVEN'
p3437
a(lp3438
aa(lp3439
S'SHERI'
p3440
a(lp3441
g141
aS'thought'
p3442
aS'that'
p3443
aS'was'
p3444
aS'pretty'
p3445
aS'funny'
p3446
aS'myself'
p3447
aaa(lp3448
S'STEVENThats'
p3449
a(lp3450
aa(lp3451
g3449
a(lp3452
S'Thats'
p3453
aS'we'
p3454
aaa(lp3455
g3449
a(lp3456
S'Thats'
p3457
aS'really'
p3458
aS'amuses'
p3459
aS'me'
p3460
aS'because'
p3461
aaa(lp3462
g3449
a(lp3463
S'you'
p3464
aS'know'
p3465
aaa(lp3466
g3449
a(lp3467
S'did'
p3468
aS'they'
p3469
aS'think'
p3470
aS'hes'
p3471
aS'really'
p3472
aS'dumb'
p3473
aaa(lp3474
g3449
a(lp3475
S'C'
p3476
aaa(lp3477
S'SHERI'
p3478
a(lp3479
S'No'
p3480
aaa(lp3481
g3478
a(lp3482
S'they'
p3483
aS'think'
p3484
aS'hes'
p3485
aS'very'
p3486
aS'funny'
p3487
aaa(lp3488
S'STEVEN'
p3489
a(lp3490
g141
aS'know'
p3491
aaa(lp3492
g3489
a(lp3493
S'thats'
p3494
aS'why'
p3495
aaa(lp3496
g3489
a(lp3497
g422
aS'cause'
p3498
ag422
aS'hes'
p3499
aS'so'
p3500
aS'dumb'
p3501
aS'that'
p3502
aS'hes'
p3503
aS'funny'
p3504
aaa(lp3505
S'SHERIYeah'
p3506
a(lp3507
aa(lp3508
g3506
a(lp3509
S'hes'
p3510
aS'kind'
p3511
aS'of'
p3512
ag5
aaa(lp3513
S'STEVEN'
p3514
a(lp3515
S'Showoff'
p3516
aaa(lp3517
S'SHERIYeah'
p3518
a(lp3519
aa(lp3520
g3518
a(lp3521
S'he'
p3522
aS'is'
p3523
aaa(lp3524
g3518
a(lp3525
g141
aS'guess'
p3526
aaa(lp3527
S'STEVENArthurs'
p3528
a(lp3529
S'better'
p3530
aS'than'
p3531
aS'him'
p3532
aaa(lp3533
S'SHERIHunh'
p3534
a(lp3535
aa(lp3536
S'STEVEN'
p3537
a(lp3538
aa(lp3539
g3537
a(lp3540
S'At'
p3541
aS'least'
p3542
aS'Arthur'
p3543
aS'has'
p3544
aS'brains'
p3545
aaa(lp3546
S'SHERI'
p3547
a(lp3548
S'Aw'
p3549
aaa(lp3550
S'STEVEN'
p3551
a(lp3552
S'What'
p3553
aaa(lp3554
S'SHERIArthurs'
p3555
a(lp3556
S'the'
p3557
aS'moth'
p3558
aaa(lp3559
g3555
a(lp3560
S'Right'
p3561
aaa(lp3562
g3555
a(lp3563
S'Hes'
p3564
aS'the'
p3565
aaa(lp3566
S'STEVEN'
p3567
a(lp3568
S'Um'
p3569
aaa(lp3570
g3567
a(lp3571
S'they'
p3572
aS'um'
p3573
aS'call'
p3574
aS'him'
p3575
aS'the'
p3576
aS'funny'
p3577
aS'rabbit'
p3578
aaa(lp3579
S'SHERI'
p3580
a(lp3581
g387
aS'bunny'
p3582
aS'rabbit'
p3583
aaa(lp3584
S'STEVENYeah'
p3585
a(lp3586
aa(lp3587
g3585
a(lp3588
g422
aaa(lp3589
S'SHERIDoes'
p3590
a(lp3591
S'he'
p3592
aS'look'
p3593
aS'like'
p3594
ag5
aS'bunny'
p3595
aS'rabbit'
p3596
aaa(lp3597
S'STEVENYeah'
p3598
a(lp3599
aa(lp3600
g3598
a(lp3601
S'and'
p3602
aS'his'
p3603
aS'little'
p3604
aS'long'
p3605
aS'ear'
p3606
aS'things'
p3607
aaa(lp3608
S'SHERI'
p3609
a(lp3610
S'But'
p3611
ag141
aS'mean'
p3612
aaa(lp3613
g3609
a(lp3614
S'hes'
p3615
aS'supposed'
p3616
aS'to'
p3617
aS'be'
p3618
ag5
aS'moth'
p3619
aS'in'
p3620
aS'real'
p3621
aS'life'
p3622
aaa(lp3623
g3609
a(lp3624
S'right'
p3625
aaa(lp3626
S'STEVENyeah'
p3627
a(lp3628
aa(lp3629
g3627
a(lp3630
S'Yeah'
p3631
aaa(lp3632
S'SHERI'
p3633
a(lp3634
S'Aw'
p3635
aS'man'
p3636
aaa(lp3637
g3633
a(lp3638
S'we'
p3639
aS'gotta'
p3640
aS'get'
p3641
aS'rid'
p3642
aS'of'
p3643
aS'some'
p3644
aS'of'
p3645
aS'this'
p3646
aS'stuff'
p3647
aaa(lp3648
g3633
a(lp3649
S'Ive'
p3650
aS'got'
p3651
aS'more'
p3652
aS'stuff'
p3653
aS'in'
p3654
aS'here'
p3655
aS'than'
p3656
aS'sense'
p3657
aaa(lp3658
g3633
a(lp3659
S'Okay'
p3660
aaa(lp3661
g3633
a(lp3662
S'Okay'
p3663
aaa(lp3664
g3633
a(lp3665
S'Oy'
p3666
aS'WH'
p3667
aS'yeah'
p3668
aS'WH'
p3669
aaa(lp3670
g3633
a(lp3671
S'Now'
p3672
aS'where'
p3673
aS'are'
p3674
aS'we'
p3675
aS'at'
p3676
aaa(lp3677
g3633
a(lp3678
g141
aS'still'
p3679
aS'havent'
p3680
aS'found'
p3681
aS'the'
p3682
aS'sauce'
p3683
aaa(lp3684
g3633
a(lp3685
S'Okay'
p3686
aaa(lp3687
g3633
a(lp3688
S'Oh'
p3689
ag141
aS'gotta'
p3690
aS'take'
p3691
aS'some'
p3692
aS'Tylenol'
p3693
aaa(lp3694
S'STEVEN'
p3695
a(lp3696
S'Yack'
p3697
aS'Pack'
p3698
aS'two'
p3699
aaa(lp3700
g3695
a(lp3701
S'READ'
p3702
aS'with'
p3703
aS'playback'
p3704
aS'and'
p3705
aS'record'
p3706
aaa(lp3707
g3695
a(lp3708
S'speed'
p3709
aS'adjustment'
p3710
aS'point'
p3711
aS'six'
p3712
aS'READ'
p3713
aaa(lp3714
S'SHERI'
p3715
a(lp3716
S'Mhm'
p3717
aaa(lp3718
S'STEVENREAD'
p3719
a(lp3720
S'second'
p3721
aS'memory'
p3722
aaa(lp3723
g3719
a(lp3724
S'Batteries'
p3725
aS'included'
p3726
aaa(lp3727
g3719
a(lp3728
S'ages'
p3729
aS'seven'
p3730
aS'up'
p3731
aS'READ'
p3732
aaa(lp3733
S'SHERIHm'
p3734
a(lp3735
aa(lp3736
g3734
a(lp3737
S'Really'
p3738
aaa(lp3739
S'STEVENIts'
p3740
a(lp3741
S'from'
p3742
aS'Yess'
p3743
aS'Entertainment'
p3744
aaa(lp3745
S'SHERIAnd'
p3746
a(lp3747
S'you'
p3748
aS'think'
p3749
aS'thats'
p3750
aS'what'
p3751
aS'Robbie'
p3752
aS'would'
p3753
aS'like'
p3754
aS'for'
p3755
aS'his'
p3756
aS'birthday'
p3757
aS'more'
p3758
aS'than'
p3759
aS'anything'
p3760
aaa(lp3761
g3746
a(lp3762
S'Hunh'
p3763
aaa(lp3764
S'STEVEN'
p3765
a(lp3766
S'Id'
p3767
aS'say'
p3768
aS'so'
p3769
aaa(lp3770
S'SHERI'
p3771
a(lp3772
S'Okay'
p3773
aaa(lp3774
g3771
a(lp3775
S'Well'
p3776
aS'then'
p3777
aS'thats'
p3778
aS'what'
p3779
aS'well'
p3780
aS'get'
p3781
aS'him'
p3782
aaa(lp3783
g3771
a(lp3784
S'if'
p3785
aS'thats'
p3786
aS'what'
p3787
aS'you'
p3788
aS'think'
p3789
aaa(lp3790
g3771
a(lp3791
g141
aS'think'
p3792
aS'thats'
p3793
aS'nice'
p3794
aS'that'
p3795
aaa(lp3796
g3771
a(lp3797
S'they'
p3798
aS'invited'
p3799
aS'you'
p3800
aS'to'
p3801
aS'his'
p3802
aS'birthday'
p3803
aaa(lp3804
S'STEVEN'
p3805
a(lp3806
g422
aS'He'
p3807
aS'did'
p3808
ag422
ag422
aaa(lp3809
S'SHERIYeah'
p3810
a(lp3811
S'Im'
p3812
aS'glad'
p3813
aS'you'
p3814
aS'guys'
p3815
aS'got'
p3816
aS'to'
p3817
aS'be'
p3818
aS'friends'
p3819
aaa(lp3820
g3810
a(lp3821
S'Where'
p3822
aS'in'
p3823
aS'the'
p3824
aS'heck'
p3825
aS'did'
p3826
ag141
aS'put'
p3827
aS'that'
p3828
aS'spaghe'
p3829
aaa(lp3830
g3810
a(lp3831
S'that'
p3832
aS'pizza'
p3833
aS'sauce'
p3834
aaa(lp3835
S'STEVEN'
p3836
a(lp3837
S'Pizza'
p3838
aS'sauce'
p3839
aaa(lp3840
g3836
a(lp3841
S'Maybe'
p3842
ag141
aS'put'
p3843
aS'it'
p3844
aS'in'
p3845
aS'the'
p3846
aS'fridge'
p3847
aaa(lp3848
S'SHERI'
p3849
a(lp3850
S'Oh'
p3851
aS'do'
p3852
aS'you'
p3853
aS'think'
p3854
aS'you'
p3855
aS'mightve'
p3856
aaa(lp3857
g3849
a(lp3858
S'Cause'
p3859
ag141
aS'cant'
p3860
aS'find'
p3861
aS'it'
p3862
aS'any'
p3863
aS'place'
p3864
aaa(lp3865
g3849
a(lp3866
S'Its'
p3867
aS'driving'
p3868
aS'me'
p3869
aS'crazy'
p3870
aaa(lp3871
S'STEVENOkay'
p3872
a(lp3873
aa(lp3874
g3872
a(lp3875
S'over'
p3876
aS'here'
p3877
aaa(lp3878
g3872
a(lp3879
S'Whats'
p3880
aS'here'
p3881
aaa(lp3882
g3872
a(lp3883
S'You'
p3884
aS'mean'
p3885
aS'this'
p3886
aaa(lp3887
g3872
a(lp3888
S'Pizza'
p3889
aS'sauce'
p3890
aaa(lp3891
S'SHERI'
p3892
a(lp3893
S'Yep'
p3894
aaa(lp3895
g3892
a(lp3896
S'thats'
p3897
aS'exactly'
p3898
aS'what'
p3899
ag141
aS'was'
p3900
aS'looking'
p3901
aS'for'
p3902
aaa(lp3903
S'STEVENIt'
p3904
a(lp3905
S'was'
p3906
aS'right'
p3907
aS'here'
p3908
aaa(lp3909
S'SHERI'
p3910
a(lp3911
S'Thank'
p3912
aS'you'
p3913
aS'babe'
p3914
aaa(lp3915
S'STEVEN'
p3916
a(lp3917
S'Maybe'
p3918
aS'youre'
p3919
aS'getting'
p3920
aS'blind'
p3921
aaa(lp3922
g3916
a(lp3923
S'Well'
p3924
aS'at'
p3925
aS'least'
p3926
aS'youre'
p3927
aS'my'
p3928
aS'mom'
p3929
aaa(lp3930
S'SHERI'
p3931
a(lp3932
aa(lp3933
g3931
a(lp3934
S'Hm'
p3935
aS'yeah'
p3936
aaa(lp3937
S'STEVEN'
p3938
a(lp3939
S'Mom'
p3940
aS'why'
p3941
aS'is'
p3942
aS'the'
p3943
aS'green'
p3944
aS'ball'
p3945
aS'out'
p3946
aS'there'
p3947
aaa(lp3948
g3938
a(lp3949
S'Did'
p3950
aS'anyone'
p3951
aS'play'
p3952
aS'croquet'
p3953
aS'or'
p3954
aaa(lp3955
S'SHERIYou'
p3956
a(lp3957
S'know'
p3958
aS'that'
p3959
aS'balls'
p3960
aS'been'
p3961
aS'sitting'
p3962
aS'out'
p3963
aS'there'
p3964
aS'forever'
p3965
aaa(lp3966
S'STEVEN'
p3967
a(lp3968
S'Were'
p3969
aS'also'
p3970
aS'missing'
p3971
ag5
aS'black'
p3972
aS'one'
p3973
aaa(lp3974
g3967
a(lp3975
S'But'
p3976
aS'that'
p3977
aS'wasnt'
p3978
aS'Robbies'
p3979
aS'fault'
p3980
aaa(lp3981
S'SHERI'
p3982
a(lp3983
S'Alright'
p3984
aaa(lp3985
g3982
a(lp3986
S'One'
p3987
aS'pepperoni'
p3988
aS'pizza'
p3989
aS'coming'
p3990
aS'up'
p3991
aaa(lp3992
g3982
a(lp3993
S'Kid'
p3994
aaa(lp3995
S'STEVEN'
p3996
a(lp3997
S'Thank'
p3998
aS'you'
p3999
aS'Mom'
p4000
aaa(lp4001
S'SHERI'
p4002
a(lp4003
S'Youre'
p4004
aS'welcome'
p4005
aaa(lp4006
S'STEVEN'
p4007
a(lp4008
S'Hey'
p4009
aS'Mom'
p4010
aaa(lp4011
S'SHERIHey'
p4012
a(lp4013
S'what'
p4014
aaa(lp4015
S'STEVEN'
p4016
a(lp4017
S'guess'
p4018
aS'what'
p4019
aS'they'
p4020
aS'had'
p4021
aS'on'
p4022
aS'movie'
p4023
aS'back'
p4024
aS'there'
p4025
aaa(lp4026
g4016
a(lp4027
S'um'
p4028
aaa(lp4029
g4016
a(lp4030
S'at'
p4031
aS'um'
p4032
aS'Albertsons'
p4033
aaa(lp4034
S'SHERII'
p4035
a(lp4036
S'give'
p4037
aS'up'
p4038
aaa(lp4039
g4035
a(lp4040
S'whatd'
p4041
aS'they'
p4042
aS'have'
p4043
aaa(lp4044
S'STEVEN'
p4045
a(lp4046
S'Ill'
p4047
aS'give'
p4048
aS'you'
p4049
ag5
aS'hint'
p4050
aaa(lp4051
g4045
a(lp4052
S'Its'
p4053
aS'the'
p4054
aaa(lp4055
g4045
a(lp4056
S'the'
p4057
aS'guy'
p4058
aS'who'
p4059
aS'wrote'
p4060
aS'it'
p4061
aaa(lp4062
g4045
a(lp4063
S'was'
p4064
aS'the'
p4065
aS'same'
p4066
aS'person'
p4067
aS'who'
p4068
aS'wrote'
p4069
aS'The'
p4070
aS'S'
p4071
aaa(lp4072
g4045
a(lp4073
S'The'
p4074
aS'Secret'
p4075
aS'Garden'
p4076
aaa(lp4077
g4045
a(lp4078
S'Give'
p4079
aS'up'
p4080
aaa(lp4081
S'SHERIMhm'
p4082
a(lp4083
aa(lp4084
S'STEVEN'
p4085
a(lp4086
g387
aS'Little'
p4087
aS'Princess'
p4088
aaa(lp4089
S'SHERI'
p4090
a(lp4091
S'Oh'
p4092
aaa(lp4093
g4090
a(lp4094
S'thats'
p4095
aS'right'
p4096
aaa(lp4097
S'STEVEN'
p4098
a(lp4099
S'Its'
p4100
aS'also'
p4101
aS'on'
p4102
aS'video'
p4103
aS'on'
p4104
aS'here'
p4105
aaa(lp4106
g4098
a(lp4107
S'in'
p4108
aS'Toys'
p4109
ag614
aS'Us'
p4110
aaa(lp4111
S'SHERIMhm'
p4112
a(lp4113
aa(lp4114
g4112
a(lp4115
S'Now'
p4116
aS'for'
p4117
aS'some'
p4118
aS'reason'
p4119
aS'that'
p4120
aS'didnt'
p4121
aS'do'
p4122
aS'real'
p4123
aS'we'
p4124
aS'well'
p4125
aS'at'
p4126
aS'the'
p4127
aS'movie'
p4128
aS'theaters'
p4129
aaa(lp4130
g4112
a(lp4131
S'Did'
p4132
aS'it'
p4133
aaa(lp4134
g4112
a(lp4135
S'What'
p4136
aS'in'
p4137
aS'the'
p4138
aS'hell'
p4139
aS'is'
p4140
aS'this'
p4141
aaa(lp4142
S'STEVENHunh'
p4143
a(lp4144
aa(lp4145
S'SHERI'
p4146
a(lp4147
S'Oh'
p4148
aaa(lp4149
S'STEVENNo'
p4150
a(lp4151
S'Mom'
p4152
aaa(lp4153
g4150
a(lp4154
S'It'
p4155
aS'did'
p4156
aS'great'
p4157
aaa(lp4158
S'SHERIIn'
p4159
a(lp4160
S'the'
p4161
aS'movie'
p4162
aS'theaters'
p4163
aaa(lp4164
g4159
a(lp4165
S'It'
p4166
aS'did'
p4167
aaa(lp4168
S'STEVEN'
p4169
a(lp4170
S'Yeah'
p4171
aaa(lp4172
S'SHERI'
p4173
a(lp4174
S'Hunh'
p4175
aaa(lp4176
g4173
a(lp4177
S'For'
p4178
aS'some'
p4179
aS'reason'
p4180
ag141
aS'was'
p4181
aS'under'
p4182
aS'the'
p4183
aS'impression'
p4184
aS'that'
p4185
aS'it'
p4186
aS'didnt'
p4187
aaa(lp4188
g4173
a(lp4189
S'That'
p4190
aS'it'
p4191
aS'didnt'
p4192
aS'do'
p4193
aS'that'
p4194
aS'well'
p4195
aS'honey'
p4196
aaa(lp4197
g4173
a(lp4198
S'But'
p4199
aaa(lp4200
g4173
a(lp4201
g141
aS'could'
p4202
aS'be'
p4203
aS'wrong'
p4204
aaa(lp4205
g4173
a(lp4206
S'Oh'
p4207
aS'man'
p4208
aaa(lp4209
S'ENVWATER_RUNNING'
p4210
a(lp4211
aa(lp4212
S'SHERIHey'
p4213
a(lp4214
S'Steven'
p4215
aaa(lp4216
g4213
a(lp4217
S'Come'
p4218
aS'on'
p4219
aS'over'
p4220
aS'here'
p4221
aaa(lp4222
g4213
a(lp4223
g141
aS'want'
p4224
aS'you'
p4225
aS'to'
p4226
aS'grate'
p4227
aS'this'
p4228
aS'cheese'
p4229
aS'for'
p4230
aS'me'
p4231
aaa(lp4232
g4213
a(lp4233
S'Okay'
p4234
aaa(lp4235
S'STEVEN'
p4236
a(lp4237
S'SING'
p4238
aS'Salami'
p4239
aS'too'
p4240
aS'SING'
p4241
aaa(lp4242
S'SHERI'
p4243
a(lp4244
S'You'
p4245
aS'know'
p4246
aS'what'
p4247
aS'to'
p4248
aS'do'
p4249
aaa(lp4250
S'STEVENSING'
p4251
a(lp4252
S'hot'
p4253
aS'salami'
p4254
aS'SING'
p4255
aaa(lp4256
S'SHERIDo'
p4257
a(lp4258
S'you'
p4259
aS'know'
p4260
aS'how'
p4261
aS'to'
p4262
aaa(lp4263
S'ENVWATER_RUNNING'
p4264
a(lp4265
aa(lp4266
S'SHERIYou'
p4267
a(lp4268
S'know'
p4269
aS'how'
p4270
aS'to'
p4271
aS'do'
p4272
aS'this'
p4273
aaa(lp4274
S'STEVENYeah'
p4275
a(lp4276
aa(lp4277
g4275
a(lp4278
g141
aS'just'
p4279
aS'scrape'
p4280
aS'it'
p4281
aaa(lp4282
S'SHERIOkay'
p4283
a(lp4284
aa(lp4285
g4283
a(lp4286
S'So'
p4287
aaa(lp4288
g4283
a(lp4289
S'yeah'
p4290
aaa(lp4291
g4283
a(lp4292
S'dont'
p4293
aaa(lp4294
g4283
a(lp4295
S'Dont'
p4296
aS'get'
p4297
aS'your'
p4298
aS'knuckles'
p4299
aS'all'
p4300
aS'bloody'
p4301
aS'though'
p4302
aaa(lp4303
g4283
a(lp4304
S'You'
p4305
aS'know'
p4306
aS'you'
p4307
aS'gotta'
p4308
aS'be'
p4309
aS'careful'
p4310
aaa(lp4311
g4283
a(lp4312
S'Okay'
p4313
aaa(lp4314
S'STEVEN'
p4315
a(lp4316
aa(lp4317
S'SHERIAnd'
p4318
a(lp4319
S'Im'
p4320
aS'gonna'
p4321
aS'take'
p4322
aS'this'
p4323
aS'pizza'
p4324
aS'crust'
p4325
aS'off'
p4326
aS'the'
p4327
aS'dish'
p4328
aS'rack'
p4329
aS'here'
p4330
aS'so'
p4331
aaa(lp4332
S'STEVEN'
p4333
a(lp4334
aa(lp4335
S'SHERI'
p4336
a(lp4337
S'This'
p4338
aS'kitchen'
p4339
aS'is'
p4340
aS'so'
p4341
aS'small'
p4342
aaa(lp4343
S'STEVEN'
p4344
a(lp4345
S'Mm'
p4346
aaa(lp4347
g4344
a(lp4348
S'Mm'
p4349
aaa(lp4350
g4344
a(lp4351
S'Mm'
p4352
aaa(lp4353
S'SHERIYou'
p4354
a(lp4355
S'know'
p4356
ag141
aS'kinda'
p4357
aS'hope'
p4358
aS'nobody'
p4359
aS'shows'
p4360
aS'up'
p4361
aaa(lp4362
g4354
a(lp4363
S'cause'
p4364
aS'this'
p4365
aS'place'
p4366
aS'is'
p4367
aS'such'
p4368
ag5
aS'dirty'
p4369
aS'mess'
p4370
aaa(lp4371
S'STEVEN'
p4372
a(lp4373
g141
aS'hope'
p4374
aS'they'
p4375
ag422
aS'do'
p4376
ag422
aS'too'
p4377
aaa(lp4378
g4372
a(lp4379
g141
aS'look'
p4380
aS'like'
p4381
ag5
aS'mess'
p4382
aS'too'
p4383
aaa(lp4384
S'SHERINah'
p4385
a(lp4386
aa(lp4387
g4385
a(lp4388
S'You'
p4389
aS'look'
p4390
aS'great'
p4391
aaa(lp4392
S'STEVEN'
p4393
a(lp4394
S'Slice'
p4395
aaa(lp4396
g4393
a(lp4397
S'Slice'
p4398
aaa(lp4399
S'SHERIIm'
p4400
a(lp4401
S'glad'
p4402
aS'you'
p4403
aS'were'
p4404
aS'good'
p4405
aS'for'
p4406
aS'Jack'
p4407
aS'and'
p4408
aS'Joanne'
p4409
aS'too'
p4410
aaa(lp4411
g4400
a(lp4412
S'when'
p4413
aS'they'
p4414
aS'drove'
p4415
aS'you'
p4416
aS'over'
p4417
aaa(lp4418
g4400
a(lp4419
S'That'
p4420
aS'was'
p4421
aS'nice'
p4422
aS'of'
p4423
aS'them'
p4424
aS'to'
p4425
aS'do'
p4426
aaa(lp4427
S'STEVEN'
p4428
a(lp4429
S'Yeah'
p4430
aaa(lp4431
S'SHERIWas'
p4432
a(lp4433
S'it'
p4434
aS'hard'
p4435
aS'sitting'
p4436
aS'in'
p4437
aS'the'
p4438
aS'back'
p4439
aS'of'
p4440
aS'their'
p4441
aS'truck'
p4442
aaa(lp4443
g4432
a(lp4444
S'They'
p4445
aS'gotta'
p4446
aS'pretty'
p4447
aS'small'
p4448
aS'truck'
p4449
aaa(lp4450
g4432
a(lp4451
S'hunh'
p4452
aaa(lp4453
S'STEVEN'
p4454
a(lp4455
S'Well'
p4456
aaa(lp4457
g4454
a(lp4458
S'Shred'
p4459
aS'said'
p4460
aaa(lp4461
g4454
a(lp4462
S'VOX'
p4463
ag141
aS'wanna'
p4464
aS'sit'
p4465
aS'back'
p4466
aS'there'
p4467
aS'VOX'
p4468
aaa(lp4469
g4454
a(lp4470
S'And'
p4471
aaa(lp4472
g4454
a(lp4473
S'you'
p4474
aS'know'
p4475
aaa(lp4476
g4454
a(lp4477
S'Missus'
p4478
aS'um'
p4479
aS'Taylor'
p4480
aS'said'
p4481
aaa(lp4482
S'SHERI'
p4483
a(lp4484
aa(lp4485
S'STEVEN'
p4486
a(lp4487
S'VOX'
p4488
aS'No'
p4489
aS'Shred'
p4490
aaa(lp4491
g4486
a(lp4492
S'theres'
p4493
aS'no'
p4494
aS'room'
p4495
aS'VOX'
p4496
aaa(lp4497
S'SHERI'
p4498
a(lp4499
aa(lp4500
g4498
a(lp4501
S'Unhunh'
p4502
aaa(lp4503
S'STEVEN'
p4504
a(lp4505
S'There'
p4506
aS'was'
p4507
aS'only'
p4508
aS'room'
p4509
aS'for'
p4510
aS'me'
p4511
aS'and'
p4512
aS'Zach'
p4513
aaa(lp4514
g4504
a(lp4515
S'And'
p4516
aS'we'
p4517
aS'were'
p4518
aS'on'
p4519
aS'opposite'
p4520
aS'sides'
p4521
aS'from'
p4522
aS'each'
p4523
aS'other'
p4524
aaa(lp4525
S'SHERIAh'
p4526
a(lp4527
aa(lp4528
g4526
a(lp4529
S'So'
p4530
aS'did'
p4531
aS'they'
p4532
aS'put'
p4533
aS'Shred'
p4534
aS'in'
p4535
aS'the'
p4536
aS'front'
p4537
aS'seat'
p4538
aS'between'
p4539
aS'them'
p4540
aaa(lp4541
S'STEVEN'
p4542
a(lp4543
S'Yeah'
p4544
aaa(lp4545
S'SHERI'
p4546
a(lp4547
S'Yeah'
p4548
aaa(lp4549
S'STEVEN'
p4550
a(lp4551
S'Poor'
p4552
aS'Shred'
p4553
aaa(lp4554
g4550
a(lp4555
S'And'
p4556
aS'guess'
p4557
aS'what'
p4558
aaa(lp4559
S'SHERI'
p4560
a(lp4561
S'What'
p4562
aaa(lp4563
S'STEVENShred'
p4564
a(lp4565
S'chased'
p4566
ag5
aS'um'
p4567
aS'ground'
p4568
aS'squirrel'
p4569
aaa(lp4570
S'SHERI'
p4571
a(lp4572
S'He'
p4573
aS'did'
p4574
aaa(lp4575
g4571
a(lp4576
S'Did'
p4577
aS'he'
p4578
aS'catch'
p4579
aS'him'
p4580
aaa(lp4581
S'STEVEN'
p4582
a(lp4583
S'No'
p4584
aaa(lp4585
S'SHERI'
p4586
a(lp4587
S'Hm'
p4588
aaa(lp4589
S'STEVENZach'
p4590
a(lp4591
S'al'
p4592
aaa(lp4593
g4590
a(lp4594
S'Zach'
p4595
aS'caught'
p4596
aS'one'
p4597
aaa(lp4598
g4590
a(lp4599
S'Except'
p4600
aS'it'
p4601
aS'bit'
p4602
aS'him'
p4603
aaa(lp4604
S'SHERI'
p4605
a(lp4606
S'Uhoh'
p4607
aaa(lp4608
g4605
a(lp4609
S'Hope'
p4610
aS'he'
p4611
aS'has'
p4612
aS'rabies'
p4613
aS'shots'
p4614
aaa(lp4615
g4605
a(lp4616
S'How'
p4617
aS'was'
p4618
aS'their'
p4619
aS'soccer'
p4620
aS'game'
p4621
aaa(lp4622
g4605
a(lp4623
S'Did'
p4624
aS'they'
p4625
aS'win'
p4626
aS'their'
p4627
aS'soccer'
p4628
aS'game'
p4629
aaa(lp4630
g4605
a(lp4631
S'Or'
p4632
aaa(lp4633
S'STEVENI'
p4634
a(lp4635
S'didnt'
p4636
aS'ask'
p4637
aaa(lp4638
S'SHERIOh'
p4639
a(lp4640
aa(lp4641
S'STEVEN'
p4642
a(lp4643
S'He'
p4644
aS'ca'
p4645
aaa(lp4646
g4642
a(lp4647
S'Um'
p4648
aS'someone'
p4649
aS'said'
p4650
aaa(lp4651
g4642
a(lp4652
S'VOX'
p4653
aS'hi'
p4654
aS'Steve'
p4655
aS'VOX'
p4656
aaa(lp4657
S'SHERI'
p4658
a(lp4659
S'Mhm'
p4660
aaa(lp4661
S'STEVENThat'
p4662
a(lp4663
S'was'
p4664
aS'probably'
p4665
aS'Shred'
p4666
aS'on'
p4667
aS'the'
p4668
aS'corner'
p4669
aaa(lp4670
g4662
a(lp4671
g141
aS'said'
p4672
aaa(lp4673
g4662
a(lp4674
g141
aS'looked'
p4675
aS'around'
p4676
aS'and'
p4677
aaa(lp4678
g4662
a(lp4679
S'n'
p4680
ag141
aS'shrugged'
p4681
aaa(lp4682
g4662
a(lp4683
S'Probably'
p4684
aS'the'
p4685
aS'wind'
p4686
ag141
aS'thought'
p4687
aaa(lp4688
S'SHERI'
p4689
a(lp4690
S'Ah'
p4691
aaa(lp4692
S'STEVEN'
p4693
a(lp4694
S'It'
p4695
aS'was'
p4696
aS'actually'
p4697
aS'Shred'
p4698
aS'saying'
p4699
aaa(lp4700
g4693
a(lp4701
S'VOX'
p4702
aS'hi'
p4703
aS'Steve'
p4704
aS'VOX'
p4705
aaa(lp4706
S'SHERI'
p4707
a(lp4708
S'Mhm'
p4709
aaa(lp4710
g4707
a(lp4711
S'Is'
p4712
aS'your'
p4713
aS'grandmother'
p4714
aS'feeling'
p4715
aS'better'
p4716
aaa(lp4717
S'STEVEN'
p4718
a(lp4719
S'Yeah'
p4720
aaa(lp4721
g4718
a(lp4722
S'she'
p4723
aS'wanted'
p4724
aS'to'
p4725
aS'go'
p4726
aS'home'
p4727
aS'and'
p4728
aS'sleep'
p4729
aaa(lp4730
g4718
a(lp4731
S'afterward'
p4732
aaa(lp4733
S'SHERIYeah'
p4734
a(lp4735
aa(lp4736
g4734
a(lp4737
S'Well'
p4738
aS'shes'
p4739
aS'supposed'
p4740
aS'to'
p4741
aS'go'
p4742
aS'to'
p4743
aS'the'
p4744
aS'Dixie'
p4745
aS'Land'
p4746
aS'Jazz'
p4747
aS'Festival'
p4748
aS'this'
p4749
aS'weekend'
p4750
aaa(lp4751
S'STEVENXX'
p4752
a(lp4753
aa(lp4754
S'SHERIOne'
p4755
a(lp4756
S'of'
p4757
aS'the'
p4758
aS'venues'
p4759
aaa(lp4760
g4755
a(lp4761
S'Or'
p4762
aS'something'
p4763
aS'so'
p4764
aaa(lp4765
S'STEVENShe'
p4766
a(lp4767
S'did'
p4768
aaa(lp4769
g4766
a(lp4770
S'um'
p4771
aaa(lp4772
g4766
a(lp4773
S'yesterday'
p4774
aS'and'
p4775
aaa(lp4776
S'SHERIYeah'
p4777
a(lp4778
aa(lp4779
S'STEVEN'
p4780
a(lp4781
S'me'
p4782
aS'and'
p4783
aS'Grandpa'
p4784
aS'had'
p4785
ag5
aS'hard'
p4786
aS'time'
p4787
aS'trying'
p4788
aS'to'
p4789
aS'track'
p4790
aS'her'
p4791
aS'down'
p4792
aaa(lp4793
S'SHERI'
p4794
a(lp4795
aa(lp4796
S'STEVENShe'
p4797
a(lp4798
S'told'
p4799
aS'Grandpa'
p4800
aS'to'
p4801
aaa(lp4802
g4797
a(lp4803
S'tr'
p4804
aaa(lp4805
g4797
a(lp4806
S'tr'
p4807
aaa(lp4808
g4797
a(lp4809
S'To'
p4810
aS'get'
p4811
aS'me'
p4812
aaa(lp4813
g4797
a(lp4814
S'and'
p4815
aS'bring'
p4816
aS'me'
p4817
aS'over'
p4818
aS'there'
p4819
aaa(lp4820
g4797
a(lp4821
S'And'
p4822
aS'then'
p4823
aS'we'
p4824
aS'could'
p4825
aS'not'
p4826
aS'find'
p4827
aS'her'
p4828
aaa(lp4829
S'SHERIUnhunh'
p4830
a(lp4831
aa(lp4832
g4830
a(lp4833
S'Oh'
p4834
aaa(lp4835
g4830
a(lp4836
S'Well'
p4837
aS'thats'
p4838
aS'usually'
p4839
aS'pretty'
p4840
aS'crowded'
p4841
aS'and'
p4842
aS'busy'
p4843
aS'over'
p4844
aS'there'
p4845
aaa(lp4846
S'STEVEN'
p4847
a(lp4848
S'Yeah'
p4849
aaa(lp4850
g4847
a(lp4851
S'Down'
p4852
aS'to'
p4853
aS'two'
p4854
aS'cheeses'
p4855
aS'Mom'
p4856
aaa(lp4857
S'SHERIOkay'
p4858
a(lp4859
aa(lp4860
S'ENV'
p4861
a(lp4862
S'WATER_RUNNING_AND_DISH_NOISE'
p4863
aaa(lp4864
S'STEVEN'
p4865
a(lp4866
aa(lp4867
S'SHERI'
p4868
a(lp4869
S'So'
p4870
aS'did'
p4871
aS'your'
p4872
aS'dad'
p4873
aS'take'
p4874
aS'Mary'
p4875
aS'Ann'
p4876
aS'with'
p4877
aS'him'
p4878
aS'to'
p4879
aS'San'
p4880
aS'Francisco'
p4881
aaa(lp4882
g4868
a(lp4883
S'or'
p4884
aS'did'
p4885
aS'he'
p4886
aS'just'
p4887
aS'go'
p4888
aS'by'
p4889
aS'himself'
p4890
aaa(lp4891
S'STEVEN'
p4892
a(lp4893
g141
aS'dont'
p4894
aS'know'
p4895
aaa(lp4896
S'SHERIYou'
p4897
a(lp4898
S'dont'
p4899
aS'know'
p4900
aaa(lp4901
S'STEVENX'
p4902
a(lp4903
g141
aS'didnt'
p4904
aS'ask'
p4905
aS'him'
p4906
aS'about'
p4907
aS'that'
p4908
ag422
aaa(lp4909
g4902
a(lp4910
g141
aS'dont'
p4911
aaa(lp4912
g4902
a(lp4913
g141
aS'dont'
p4914
aS'know'
p4915
aS'why'
p4916
aS'he'
p4917
aS'even'
p4918
aaa(lp4919
g4902
a(lp4920
S'he'
p4921
aS'even'
p4922
aS'went'
p4923
aS'there'
p4924
aaa(lp4925
g4902
a(lp4926
S'He'
p4927
aS'did'
p4928
aS'not'
p4929
aS'tell'
p4930
aS'me'
p4931
aaa(lp4932
g4902
a(lp4933
g422
aaa(lp4934
S'SHERIMhm'
p4935
a(lp4936
aa(lp4937
g4935
a(lp4938
g141
aS'think'
p4939
aS'he'
p4940
aS'just'
p4941
aS'wanted'
p4942
aS'to'
p4943
aS'get'
p4944
aS'out'
p4945
aS'of'
p4946
aS'the'
p4947
aS'Valley'
p4948
aS'for'
p4949
ag5
aS'while'
p4950
aS'and'
p4951
aaa(lp4952
g4935
a(lp4953
S'have'
p4954
ag5
aS'break'
p4955
aaa(lp4956
S'STEVEN'
p4957
a(lp4958
S'Hunh'
p4959
aaa(lp4960
S'SHERI'
p4961
a(lp4962
g141
aS'said'
p4963
ag141
aS'think'
p4964
aS'he'
p4965
aS'just'
p4966
aS'wanted'
p4967
aS'to'
p4968
aaa(lp4969
S'ENVWATER_RUNNING_AND_DISH_NOISE'
p4970
a(lp4971
aa(lp4972
S'SHERII'
p4973
a(lp4974
S'think'
p4975
aS'he'
p4976
aS'just'
p4977
aS'wanted'
p4978
aS'to'
p4979
aS'get'
p4980
aS'out'
p4981
aS'of'
p4982
aS'the'
p4983
aS'Valley'
p4984
aS'for'
p4985
ag5
aS'while'
p4986
aaa(lp4987
g4973
a(lp4988
g141
aS'think'
p4989
aS'he'
p4990
aS'just'
p4991
aS'needed'
p4992
ag5
aS'break'
p4993
aaa(lp4994
S'ENV'
p4995
a(lp4996
S'WATER_AND_DISH_NOISE'
p4997
aaa(lp4998
S'SHERIHe'
p4999
a(lp5000
S'hasnt'
p5001
aS'really'
p5002
aS'had'
p5003
ag5
aS'vacation'
p5004
aaa(lp5005
S'STEVEN'
p5006
a(lp5007
S'He'
p5008
aS'has'
p5009
aaa(lp5010
g5006
a(lp5011
S'with'
p5012
aS'Mary'
p5013
aS'Ann'
p5014
aaa(lp5015
S'SHERI'
p5016
a(lp5017
S'Oh'
p5018
aS'did'
p5019
aS'they'
p5020
aS'go'
p5021
aS'on'
p5022
aS'vacation'
p5023
aaa(lp5024
S'STEVENX'
p5025
a(lp5026
S'One'
p5027
aS'time'
p5028
aaa(lp5029
g5025
a(lp5030
S'yeah'
p5031
ag422
aaa(lp5032
S'SHERI'
p5033
a(lp5034
S'Yeah'
p5035
aaa(lp5036
S'STEVENX'
p5037
a(lp5038
S'You'
p5039
aS'see'
p5040
ag422
aS'Mom'
p5041
aaa(lp5042
g5037
a(lp5043
S'does'
p5044
aS'that'
p5045
aS'look'
p5046
aS'good'
p5047
aaa(lp5048
S'SHERI'
p5049
a(lp5050
S'Yeah'
p5051
aaa(lp5052
g5049
a(lp5053
g141
aS'think'
p5054
aS'so'
p5055
aaa(lp5056
S'STEVEN'
p5057
a(lp5058
S'Some'
p5059
aS'of'
p5060
aS'them'
p5061
ag422
ag141
ag422
aS'went'
p5062
aS'through'
p5063
aS'right'
p5064
aS'here'
p5065
aaa(lp5066
S'SHERI'
p5067
a(lp5068
S'Yeah'
p5069
aaa(lp5070
S'ENVWATER_AND_DISH_NOISE'
p5071
a(lp5072
aa(lp5073
S'SHERI'
p5074
a(lp5075
S'Well'
p5076
aS'thats'
p5077
aS'fine'
p5078
aaa(lp5079
g5074
a(lp5080
S'you'
p5081
aS'know'
p5082
aS'what'
p5083
aaa(lp5084
g5074
a(lp5085
S'lets'
p5086
aS'open'
p5087
aS'that'
p5088
aS'box'
p5089
aS'of'
p5090
aaa(lp5091
g5074
a(lp5092
S'or'
p5093
aS'that'
p5094
aS'package'
p5095
aS'of'
p5096
aS'pastrami'
p5097
aaa(lp5098
g5074
a(lp5099
S'PAR'
p5100
aS'not'
p5101
aS'pastrami'
p5102
aS'PAR'
p5103
aaa(lp5104
g5074
a(lp5105
S'pepperoni'
p5106
aaa(lp5107
S'STEVEN'
p5108
a(lp5109
S'Let'
p5110
aS'me'
p5111
aS'put'
p5112
aS'these'
p5113
aS'on'
p5114
aS'there'
p5115
aaa(lp5116
S'SHERI'
p5117
a(lp5118
S'You'
p5119
aS'wanna'
p5120
aS'put'
p5121
aS'the'
p5122
aaa(lp5123
g5117
a(lp5124
S'You'
p5125
aS'want'
p5126
aS'the'
p5127
aS'pepperoni'
p5128
aS'under'
p5129
aS'the'
p5130
aS'cheese'
p5131
aaa(lp5132
g5117
a(lp5133
S'or'
p5134
aS'the'
p5135
aS'pepperoni'
p5136
aS'on'
p5137
aS'top'
p5138
aS'of'
p5139
aS'the'
p5140
aS'cheese'
p5141
aaa(lp5142
S'STEVEN'
p5143
a(lp5144
S'P'
p5145
aS'On'
p5146
aS'top'
p5147
aS'of'
p5148
aS'the'
p5149
aS'cheese'
p5150
ag5145
aaa(lp5151
S'SHERIOkay'
p5152
a(lp5153
aa(lp5154
g5152
a(lp5155
S'so'
p5156
aaa(lp5157
S'STEVENSING'
p5158
a(lp5159
S'Da_da_da_da'
p5160
aS'da_da_da_da'
p5161
aS'da_da_da_da'
p5162
aS'doo'
p5163
aS'SING'
p5164
aaa(lp5165
S'SHERIYeah'
p5166
a(lp5167
aa(lp5168
g5166
a(lp5169
S'sprinkle'
p5170
aS'the'
p5171
aS'cheese'
p5172
aS'around'
p5173
aaa(lp5174
g5166
a(lp5175
S'Thats'
p5176
ag5
aS'good'
p5177
aS'idea'
p5178
aaa(lp5179
S'STEVEN'
p5180
a(lp5181
S'SING'
p5182
aS'Hot'
p5183
aS'salami'
p5184
aS'hot'
p5185
aS'salami'
p5186
aS'hey'
p5187
aaa(lp5188
g5180
a(lp5189
S'hot'
p5190
aS'salami'
p5191
aS'for'
p5192
aS'you'
p5193
aaa(lp5194
g5180
a(lp5195
S'NONSENSE'
p5196
aS'aneeba'
p5197
aS'abacubby'
p5198
aS'an'
p5199
aS'vutsalayvoopdeedoo'
p5200
aS'NONSENSE'
p5201
aaa(lp5202
g5180
a(lp5203
S'Salami'
p5204
aS'hot'
p5205
aS'salami'
p5206
aS'hey'
p5207
aS'hot'
p5208
aS'salami'
p5209
aS'for'
p5210
aS'you'
p5211
aS'SING'
p5212
aaa(lp5213
S'SHERI'
p5214
a(lp5215
aa(lp5216
S'STEVENMm'
p5217
a(lp5218
aa(lp5219
g5217
a(lp5220
S'SING'
p5221
aS'eat'
p5222
aS'it'
p5223
aS'up'
p5224
aS'while'
p5225
aS'its'
p5226
aS'still'
p5227
ag5
aS'sizzlin'
p5228
aS'SING'
p5229
aaa(lp5230
g5217
a(lp5231
S'Bugs'
p5232
aS'Bunny'
p5233
aS'used'
p5234
aS'to'
p5235
aS'sing'
p5236
aS'that'
p5237
aaa(lp5238
S'SHERIYeah'
p5239
a(lp5240
g141
aS'remember'
p5241
aS'that'
p5242
aS'from'
p5243
aS'the'
p5244
aS'Bugs'
p5245
aS'Bunny'
p5246
aS'show'
p5247
aaa(lp5248
g5239
a(lp5249
S'Hunh'
p5250
aaa(lp5251
S'STEVENThat'
p5252
a(lp5253
S'one'
p5254
aaa(lp5255
g5252
a(lp5256
S'That'
p5257
ag141
aS'rented'
p5258
aaa(lp5259
g5252
a(lp5260
g141
aS'li'
p5261
aaa(lp5262
g5252
a(lp5263
g141
aS'like'
p5264
aS'those'
p5265
aS'ones'
p5266
aaa(lp5267
S'SHERI'
p5268
a(lp5269
S'Yeah'
p5270
aaa(lp5271
S'STEVENThen'
p5272
a(lp5273
S'my'
p5274
aS'favoritest'
p5275
aS'one'
p5276
aaa(lp5277
g5272
a(lp5278
S'was'
p5279
aS'when'
p5280
aS'um'
p5281
aaa(lp5282
g5272
a(lp5283
S'it'
p5284
aS'was'
p5285
aS'the'
p5286
aS'Daffy'
p5287
aS'Duck'
p5288
aS'one'
p5289
aaa(lp5290
g5272
a(lp5291
S'Quackbusters'
p5292
aaa(lp5293
S'SHERIMhm'
p5294
a(lp5295
aa(lp5296
g5294
a(lp5297
S'Mhm'
p5298
aaa(lp5299
S'STEVEN'
p5300
a(lp5301
S'That'
p5302
aS'was'
p5303
aS'my'
p5304
aS'favorite'
p5305
aaa(lp5306
g5300
a(lp5307
S'Or'
p5308
aS'theres'
p5309
aS'one'
p5310
aaa(lp5311
g5300
a(lp5312
S'where'
p5313
aS'Bugs'
p5314
aS'Bunny'
p5315
aS'w'
p5316
aS'was'
p5317
aS'talking'
p5318
aS'to'
p5319
aS'that'
p5320
aS'vampire'
p5321
aaa(lp5322
g5300
a(lp5323
S'you'
p5324
aS'know'
p5325
aaa(lp5326
S'SHERI'
p5327
a(lp5328
S'Oh'
p5329
aaa(lp5330
g5327
a(lp5331
S'where'
p5332
aS'he'
p5333
aS'was'
p5334
aaa(lp5335
S'STEVENI'
p5336
a(lp5337
S'used'
p5338
aS'to'
p5339
aS'crack'
p5340
aS'up'
p5341
aaa(lp5342
S'SHERI'
p5343
a(lp5344
S'where'
p5345
aS'he'
p5346
aS'would'
p5347
aS'turn'
p5348
aS'into'
p5349
aS'the'
p5350
aS'bat'
p5351
aaa(lp5352
S'STEVENwell'
p5353
a(lp5354
S'he'
p5355
aS'said'
p5356
aaa(lp5357
S'SHERIand'
p5358
a(lp5359
S'then'
p5360
aS'he'
p5361
aS'would'
p5362
aS'turn'
p5363
aS'into'
p5364
aS'the'
p5365
aS'umpire'
p5366
aaa(lp5367
S'STEVENhe'
p5368
a(lp5369
S'said'
p5370
aaa(lp5371
g5368
a(lp5372
S'uh'
p5373
aS'he'
p5374
aS'said'
p5375
aaa(lp5376
S'SHERIand'
p5377
a(lp5378
aa(lp5379
S'STEVEN'
p5380
a(lp5381
S'He'
p5382
aaa(lp5383
g5380
a(lp5384
S'umpire'
p5385
aaa(lp5386
g5380
a(lp5387
S'Y'
p5388
aS'he'
p5389
aS'says'
p5390
aaa(lp5391
S'SHERI'
p5392
a(lp5393
aa(lp5394
S'STEVEN'
p5395
a(lp5396
S'VOX'
p5397
ag141
aS'am'
p5398
ag5
aS'vampire'
p5399
aS'VOX'
p5400
aaa(lp5401
S'SHERI'
p5402
a(lp5403
aa(lp5404
S'STEVENhe'
p5405
a(lp5406
S'says'
p5407
aaa(lp5408
g5405
a(lp5409
S'VOX'
p5410
aS'Well'
p5411
aS'hocuspocus'
p5412
aaa(lp5413
g5405
a(lp5414
S'Im'
p5415
aS'an'
p5416
aS'umpire'
p5417
aS'VOX'
p5418
aaa(lp5419
S'SHERI'
p5420
a(lp5421
aa(lp5422
S'STEVENHe'
p5423
a(lp5424
S'said'
p5425
aaa(lp5426
g5423
a(lp5427
S'VOX'
p5428
aS'Well'
p5429
aS'hocuspocus'
p5430
aaa(lp5431
S'SHERI'
p5432
a(lp5433
aa(lp5434
S'STEVENIm'
p5435
a(lp5436
g5
aS'bat'
p5437
aS'VOX'
p5438
aaa(lp5439
g5435
a(lp5440
S'VOX'
p5441
aS'Im'
p5442
ag5
aS'bat'
p5443
aS'too'
p5444
aaa(lp5445
g5435
a(lp5446
S'Abracadabra'
p5447
aS'VOX'
p5448
aaa(lp5449
g5435
a(lp5450
S'SINGVOX'
p5451
aS'You'
p5452
aS'wouldnt'
p5453
aS'hit'
p5454
ag5
aS'bat'
p5455
aS'with'
p5456
aS'glasses'
p5457
aS'on'
p5458
aS'SING'
p5459
aaa(lp5460
g5435
a(lp5461
S'would'
p5462
aS'you'
p5463
aS'VOX'
p5464
aaa(lp5465
g5435
a(lp5466
S'Whack'
p5467
aaa(lp5468
S'SHERI'
p5469
a(lp5470
aa(lp5471
g5469
a(lp5472
S'Silly'
p5473
aaa(lp5474
g5469
a(lp5475
S'Do'
p5476
aS'you'
p5477
aS'want'
p5478
aS'more'
p5479
aS'cheese'
p5480
aS'than'
p5481
aS'this'
p5482
aaa(lp5483
g5469
a(lp5484
S'kiddo'
p5485
aaa(lp5486
S'STEVEN'
p5487
a(lp5488
S'Mm'
p5489
aaa(lp5490
S'SHERIDoes'
p5491
a(lp5492
S'that'
p5493
aS'look'
p5494
aS'like'
p5495
aS'enough'
p5496
aaa(lp5497
S'STEVEN'
p5498
a(lp5499
S'Lets'
p5500
aS'put'
p5501
aS'little'
p5502
aS'bit'
p5503
aS'more'
p5504
aaa(lp5505
S'SHERILet'
p5506
a(lp5507
S'me'
p5508
aaa(lp5509
g5506
a(lp5510
S'let'
p5511
aS'me'
p5512
aS'cut'
p5513
aS'some'
p5514
aS'more'
p5515
aS'off'
p5516
aaa(lp5517
g5506
a(lp5518
S'Let'
p5519
aS'me'
p5520
aS'move'
p5521
aS'these'
p5522
aS'dishes'
p5523
aS'into'
p5524
aS'the'
p5525
aS'sink'
p5526
aaa(lp5527
S'STEVENXX'
p5528
a(lp5529
aa(lp5530
S'SHERIOkay'
p5531
a(lp5532
S'here'
p5533
aaa(lp5534
g5531
a(lp5535
S'slide'
p5536
aS'over'
p5537
aaa(lp5538
g5531
a(lp5539
S'this'
p5540
aS'is'
p5541
aS'really'
p5542
aS'kind'
p5543
aS'of'
p5544
ag5
aS'tough'
p5545
aS'kitchen'
p5546
aS'to'
p5547
aS'work'
p5548
aS'in'
p5549
aaa(lp5550
g5531
a(lp5551
S'cause'
p5552
aS'its'
p5553
aS'so'
p5554
aS'teenytiny'
p5555
aaa(lp5556
g5531
a(lp5557
S'and'
p5558
ag141
aS'have'
p5559
aS'all'
p5560
aS'my'
p5561
aS'books'
p5562
aS'and'
p5563
aS'everything'
p5564
aS'on'
p5565
aS'this'
p5566
aS'counter'
p5567
aS'too'
p5568
aS'and'
p5569
aaa(lp5570
g5531
a(lp5571
S'XXX'
p5572
aaa(lp5573
S'STEVENSlice'
p5574
a(lp5575
aa(lp5576
S'SHERIstuff'
p5577
a(lp5578
aa(lp5579
g5577
a(lp5580
S'Okay'
p5581
aaa(lp5582
g5577
a(lp5583
S'Yeah'
p5584
aaa(lp5585
S'STEVEN'
p5586
a(lp5587
aa(lp5588
S'SHERIokay'
p5589
a(lp5590
aa(lp5591
g5589
a(lp5592
S'And'
p5593
aS'Ill'
p5594
aS'open'
p5595
aS'up'
p5596
aS'the'
p5597
aS'pastra'
p5598
aaa(lp5599
g5589
a(lp5600
S'PAR'
p5601
aS'Ha'
p5602
aS'pastrami'
p5603
aS'PAR'
p5604
aaa(lp5605
g5589
a(lp5606
S'Pepperoni'
p5607
aaa(lp5608
g5589
a(lp5609
S'Im'
p5610
aS'tired'
p5611
aaa(lp5612
S'STEVENS'
p5613
a(lp5614
S'hot'
p5615
aS'salami'
p5616
aaa(lp5617
S'SHERIBoy'
p5618
a(lp5619
aa(lp5620
S'STEVEN'
p5621
a(lp5622
S'You'
p5623
aS'were'
p5624
aS'gonna'
p5625
aS'say'
p5626
aS'hot'
p5627
aS'salami'
p5628
aaa(lp5629
S'SHERINo'
p5630
a(lp5631
aa(lp5632
g5630
a(lp5633
g141
aS'was'
p5634
aS'gonna'
p5635
aS'say'
p5636
aS'pastrami'
p5637
aaa(lp5638
g5630
a(lp5639
S'Instead'
p5640
aS'of'
p5641
aS'pepperoni'
p5642
aaa(lp5643
g5630
a(lp5644
S'Its'
p5645
aS'because'
p5646
aS'Im'
p5647
aS'having'
p5648
ag5
aS'dumb'
p5649
aS'attack'
p5650
aaa(lp5651
S'STEVEN'
p5652
a(lp5653
S'No'
p5654
aS'youre'
p5655
aS'having'
p5656
ag5
aS'mom'
p5657
aS'attack'
p5658
aaa(lp5659
S'SHERIYeah'
p5660
a(lp5661
aa(lp5662
g5660
a(lp5663
g141
aS'guess'
p5664
aS'so'
p5665
aaa(lp5666
S'STEVENYou'
p5667
a(lp5668
S'are'
p5669
aS'entering'
p5670
aS'the'
p5671
aS'mom'
p5672
aS'zone'
p5673
aaa(lp5674
S'SHERIMom'
p5675
a(lp5676
S'zone'
p5677
aaa(lp5678
g5675
a(lp5679
S'Hows'
p5680
aS'Robbie'
p5681
aS'doing'
p5682
aaa.