(lp0
(lp1
S'AUD'
p2
a(lp3
S'Come'
p4
aS'on'
p5
aS'Walter'
p6
aaa(lp7
S'AUD'
p8
a(lp9
S'amen'
p10
aS'Walter'
p11
aaa(lp12
S'AUD'
p13
a(lp14
S'Walt'
p15
aaa(lp16
S'AUD'
p17
a(lp18
S'Amen'
p19
aS'Walt'
p20
aaa(lp21
S'AUD'
p22
a(lp23
S'Walt'
p24
aaa(lp25
S'AUD'
p26
a(lp27
S'good'
p28
aS'job'
p29
aaa(lp30
S'AUD'
p31
a(lp32
aa(lp33
S'AUD'
p34
a(lp35
S'Woo'
p36
aaa(lp37
S'WALT'
p38
a(lp39
S'Good'
p40
aS'morning'
p41
aaa(lp42
S'MANY'
p43
a(lp44
aa(lp45
S'WALT'
p46
a(lp47
S'Amen'
p48
aaa(lp49
g46
a(lp50
S'Well'
p51
aaa(lp52
g46
a(lp53
S'Its'
p54
aS'certainly'
p55
aS'been'
p56
aS'a'
p57
aaa(lp58
g46
a(lp59
S'PAR'
p60
aS'is'
p61
aS'THUMP_MICROPHONE'
p62
aS'this'
p63
aS'X'
p64
aS'one'
p65
ag64
aS'working'
p66
aS'THUMP_MICROPHONEPAR'
p67
aaa(lp68
S'MANY'
p69
a(lp70
S'Yeah'
p71
aaa(lp72
S'WALT'
p73
a(lp74
g64
aS'Can'
p75
ag64
aS'you'
p76
aS'hear'
p77
aS'me'
p78
aS'okay'
p79
aaa(lp80
S'AUD'
p81
a(lp82
S'Yeah'
p83
aaa(lp84
S'AUD'
p85
a(lp86
S'Amen'
p87
aaa(lp88
S'WALT'
p89
a(lp90
S'Been'
p91
ag57
aS'k'
p92
aS'great'
p93
aS'morning'
p94
aaa(lp95
g89
a(lp96
S'so'
p97
aS'far'
p98
aaa(lp99
g89
a(lp100
S'um'
p101
aaa(lp102
S'MANY'
p103
a(lp104
S'Amen'
p105
aaa(lp106
S'WALT'
p107
a(lp108
S'I'
p109
aS'really'
p110
aS'appreciate'
p111
aS'Brians'
p112
aaa(lp113
g107
a(lp114
S'uh'
p115
aaa(lp116
g107
a(lp117
S'communion'
p118
aS'this'
p119
aS'morning'
p120
aaa(lp121
S'AUD'
p122
a(lp123
S'Yeah'
p124
aaa(lp125
S'MANY'
p126
a(lp127
S'Amen'
p128
aaa(lp129
S'WALT'
p130
a(lp131
S'Um'
p132
aaa(lp133
g130
a(lp134
S'Sometimes'
p135
aS'we'
p136
aS'want'
p137
aS'the'
p138
aS'blessings'
p139
aaa(lp140
g130
a(lp141
S'but'
p142
aS'we'
p143
aS'dont'
p144
aS'wanna'
p145
aS'SM'
p146
aS'drink'
p147
aS'the'
p148
aS'cup'
p149
aaa(lp150
g130
a(lp151
S'right'
p152
aS'SM'
p153
aaa(lp154
S'AUD'
p155
a(lp156
aa(lp157
S'MANY'
p158
a(lp159
S'Yeah'
p160
aaa(lp161
S'WALT'
p162
a(lp163
S'So'
p164
ag109
aS'dont'
p165
aS'know'
p166
aS'about'
p167
aS'you'
p168
aaa(lp169
g162
a(lp170
S'when'
p171
aS'you'
p172
aS'were'
p173
aS'reflecting'
p174
aaa(lp175
g162
a(lp176
S'as'
p177
aS'we'
p178
aS'were'
p179
aS'taking'
p180
aS'the'
p181
aS'uh'
p182
aaa(lp183
g162
a(lp184
S'the'
p185
aS'wine'
p186
aS'there'
p187
aaa(lp188
g162
a(lp189
g109
aS'was'
p190
aS'thinking'
p191
aaa(lp192
g162
a(lp193
S'Lord'
p194
aaa(lp195
g162
a(lp196
S'help'
p197
aS'me'
p198
aS'to'
p199
aS'drink'
p200
aS'the'
p201
aS'cups'
p202
aaa(lp203
S'MANY'
p204
a(lp205
S'Amen'
p206
aaa(lp207
S'WALT'
p208
a(lp209
S'Help'
p210
aS'me'
p211
aS'to'
p212
aS'drink'
p213
aS'the'
p214
aS'cups'
p215
aaa(lp216
g208
a(lp217
S'and'
p218
aS'thank'
p219
aS'you'
p220
aS'Brian'
p221
aaa(lp222
S'AUD'
p223
a(lp224
aa(lp225
S'WALT'
p226
a(lp227
S'for'
p228
aS'reminding'
p229
aS'us'
p230
aS'through'
p231
aS'Gods'
p232
aS'word'
p233
aS'of'
p234
aS'the'
p235
aS'cups'
p236
aaa(lp237
S'AUD'
p238
a(lp239
S'amen'
p240
aaa(lp241
S'AUD'
p242
a(lp243
S'Yep'
p244
aaa(lp245
S'WALT'
p246
a(lp247
S'uh'
p248
aS'that'
p249
aS'we'
p250
aS'do'
p251
aS'need'
p252
aS'to'
p253
aS'drink'
p254
aaa(lp255
g246
a(lp256
S'that'
p257
aS'was'
p258
aS'really'
p259
aS'great'
p260
aaa(lp261
g246
a(lp262
S'thanks'
p263
aaa(lp264
g246
a(lp265
g57
aS'couple'
p266
aS'of'
p267
aS'announcements'
p268
aaa(lp269
g246
a(lp270
S'before'
p271
aS'we'
p272
aS'go'
p273
aS'ahead'
p274
aS'and'
p275
aS'uh'
p276
aS'get'
p277
aS'started'
p278
aS'here'
p279
aS'on'
p280
aS'the'
p281
aS'sermon'
p282
aaa(lp283
g246
a(lp284
S'Number'
p285
aS'one'
p286
aS'is'
p287
aaa(lp288
g246
a(lp289
S'uh'
p290
aaa(lp291
g246
a(lp292
S'those'
p293
aS'of'
p294
aS'you'
p295
aS'who'
p296
aS'took'
p297
aS'those'
p298
aS'medical'
p299
aS'forms'
p300
aaa(lp301
g246
a(lp302
S'for'
p303
aS'the'
p304
aS'Hope'
p305
aS'Clinic'
p306
aaa(lp307
g246
a(lp308
S'downtown'
p309
aS'Boston'
p310
aaa(lp311
g246
a(lp312
S'the'
p313
aS'medical'
p314
aS'clinic'
p315
aaa(lp316
g246
a(lp317
S'we'
p318
aS'need'
p319
aS'to'
p320
aS'turn'
p321
aS'those'
p322
aS'in'
p323
aaa(lp324
g246
a(lp325
S'today'
p326
aaa(lp327
g246
a(lp328
S'If'
p329
aS'you'
p330
aS'do'
p331
aS'not'
p332
aS'have'
p333
aS'them'
p334
aaa(lp335
g246
a(lp336
g109
aS'need'
p337
aS'to'
p338
aS'turn'
p339
aS'them'
p340
aS'in'
p341
aS'on'
p342
aS'Tuesday'
p343
aaa(lp344
g246
a(lp345
S'at'
p346
aS'my'
p347
aS'meeting'
p348
aaa(lp349
g246
a(lp350
S'So'
p351
aaa(lp352
g246
a(lp353
S'uh'
p354
aaa(lp355
g246
a(lp356
S'if'
p357
aS'you'
p358
aS'could'
p359
aS'get'
p360
aS'them'
p361
aS'to'
p362
aS'me'
p363
aaa(lp364
g246
a(lp365
g109
aS'would'
p366
aS'be'
p367
aS'd'
p368
aS'deeply'
p369
aS'appreciative'
p370
aaa(lp371
g246
a(lp372
S'Also'
p373
aaa(lp374
g246
a(lp375
S'uh'
p376
aaa(lp377
g246
a(lp378
S'church'
p379
aS'service'
p380
aS'next'
p381
aS'Sunday'
p382
aS'is'
p383
aS'at'
p384
aS'the'
p385
aS'Boston'
p386
aS'Garden'
p387
aaa(lp388
g246
a(lp389
S'We'
p390
aS'know'
p391
aS'that'
p392
aaa(lp393
S'AUD'
p394
a(lp395
S'Woo'
p396
aaa(lp397
S'AUD'
p398
a(lp399
g64
aS'does'
p400
aS'it'
p401
aS'start'
p402
aS'at'
p403
aS'ten'
p404
ag64
aaa(lp405
S'WALT'
p406
a(lp407
S'Okay'
p408
aaa(lp409
g406
a(lp410
S'now'
p411
aS'theres'
p412
ag57
aS'change'
p413
aS'in'
p414
aS'time'
p415
aaa(lp416
g406
a(lp417
S'Its'
p418
aS'at'
p419
aS'nine'
p420
aS'thirty'
p421
aaa(lp422
S'AUD'
p423
a(lp424
S'Amen'
p425
aaa(lp426
S'WALT'
p427
a(lp428
S'Its'
p429
aS'not'
p430
aS'at'
p431
aS'ten'
p432
aaa(lp433
g427
a(lp434
S'Its'
p435
aS'at'
p436
aS'nine'
p437
aS'thirty'
p438
aaa(lp439
g427
a(lp440
S'What'
p441
aS'time'
p442
aS'is'
p443
aS'it'
p444
aS'at'
p445
aaa(lp446
S'MANY'
p447
a(lp448
S'SHOUT'
p449
aS'nine'
p450
aS'thirty'
p451
aS'SHOUT'
p452
aaa(lp453
S'WALT'
p454
a(lp455
S'Right'
p456
aaa(lp457
g454
a(lp458
S'Okay'
p459
aaa(lp460
g454
a(lp461
S'Now'
p462
aS'we'
p463
aS'all'
p464
aS'remember'
p465
aaa(lp466
g454
a(lp467
S'its'
p468
aS'at'
p469
aS'nine'
p470
aS'thirty'
p471
aaa(lp472
S'AUD'
p473
a(lp474
aa(lp475
S'WALT'
p476
a(lp477
S'and'
p478
aaa(lp479
g476
a(lp480
S'let'
p481
aS'me'
p482
aS'say'
p483
aaa(lp484
g476
a(lp485
S'they'
p486
aS'may'
p487
aS'examine'
p488
aS'bags'
p489
aS'again'
p490
aaa(lp491
S'AUD'
p492
a(lp493
S'Alright'
p494
aaa(lp495
S'WALT'
p496
a(lp497
S'Like'
p498
aS'they'
p499
aS'did'
p500
aaa(lp501
g496
a(lp502
S'uh'
p503
aaa(lp504
g496
a(lp505
S'several'
p506
aS'weeks'
p507
aS'ago'
p508
aaa(lp509
g496
a(lp510
S'so'
p511
aS'my'
p512
aS'suggestion'
p513
aS'is'
p514
aaa(lp515
g496
a(lp516
S'that'
p517
aS'we'
p518
aS'get'
p519
aS'there'
p520
aS'plenty'
p521
aS'early'
p522
aaa(lp523
S'AUD'
p524
a(lp525
S'Yep'
p526
aaa(lp527
S'WALT'
p528
a(lp529
S'Okay'
p530
aaa(lp531
S'AUD'
p532
a(lp533
S'Amen'
p534
aaa(lp535
S'WALT'
p536
a(lp537
S'Also'
p538
aaa(lp539
g536
a(lp540
S'um'
p541
aaa(lp542
g536
a(lp543
S'we'
p544
aS'have'
p545
aS'the'
p546
aS'marriage'
p547
aS'get'
p548
aS'away'
p549
aaa(lp550
S'AUD'
p551
a(lp552
S'Amen'
p553
aaa(lp554
S'MANY'
p555
a(lp556
S'Amen'
p557
aaa(lp558
S'WALT'
p559
a(lp560
S'coming'
p561
aS'up'
p562
aaa(lp563
g559
a(lp564
S'the'
p565
aS'first'
p566
aS'weekend'
p567
aS'in'
p568
aS'April'
p569
aaa(lp570
g559
a(lp571
S'please'
p572
aS'uh'
p573
aaa(lp574
g559
a(lp575
S'get'
p576
aS'your'
p577
aS'registration'
p578
aaa(lp579
g559
a(lp580
S'uh'
p581
aS'to'
p582
aS'uh'
p583
aaa(lp584
g559
a(lp585
S'Craige'
p586
aS'Laibi'
p587
aaa(lp588
g559
a(lp589
S'uh'
p590
aS'and'
p591
aS'thats'
p592
aS'gonna'
p593
aS'be'
p594
ag57
aS'really'
p595
aS'exciting'
p596
aS'time'
p597
aaa(lp598
g559
a(lp599
S'Im'
p600
aS'looking'
p601
aS'forward'
p602
aS'to'
p603
aS'that'
p604
aaa(lp605
S'MANY'
p606
a(lp607
S'Amen'
p608
aaa(lp609
S'WALT'
p610
a(lp611
S'Also'
p612
aS'next'
p613
aS'Saturday'
p614
aaa(lp615
g610
a(lp616
S'we'
p617
aS'have'
p618
aS'the'
p619
aS'womens'
p620
aS'day'
p621
aaa(lp622
g610
a(lp623
S'Amen'
p624
aaa(lp625
S'MANY'
p626
a(lp627
aa(lp628
S'WALT'
p629
a(lp630
S'and'
p631
aS'uh'
p632
aaa(lp633
g629
a(lp634
S'Thats'
p635
aS'gonna'
p636
aS'be'
p637
ag57
aS'tremendous'
p638
aS'time'
p639
aaa(lp640
g629
a(lp641
S'if'
p642
aS'youre'
p643
aS'visiting'
p644
aS'with'
p645
aS'us'
p646
aaa(lp647
g629
a(lp648
S'and'
p649
aS'you'
p650
aS'are'
p651
ag57
aS'woman'
p652
aaa(lp653
g629
a(lp654
S'then'
p655
aS'uh'
p656
aaa(lp657
S'AUD'
p658
a(lp659
aa(lp660
S'WALT'
p661
a(lp662
g109
aS'would'
p663
aS'suggest'
p664
aS'you'
p665
aS'see'
p666
aS'someone'
p667
aS'about'
p668
aS'it'
p669
aaa(lp670
g661
a(lp671
S'because'
p672
aS'its'
p673
aS'g'
p674
aS'really'
p675
aS'gonna'
p676
aS'be'
p677
ag57
aS'lifechanging'
p678
aS'event'
p679
aaa(lp680
g661
a(lp681
S'next'
p682
aS'Saturday'
p683
aaa(lp684
S'AUD'
p685
a(lp686
S'XXXX'
p687
aaa(lp688
S'WALT'
p689
a(lp690
S'Um'
p691
aaa(lp692
g689
a(lp693
S'So'
p694
aS'were'
p695
aS'excited'
p696
aS'about'
p697
aS'that'
p698
aS'as'
p699
aS'well'
p700
aaa(lp701
g689
a(lp702
S'Before'
p703
aS'we'
p704
aS'go'
p705
aS'ahead'
p706
aS'and'
p707
aS'get'
p708
aS'started'
p709
aaa(lp710
g689
a(lp711
S'lets'
p712
aS'go'
p713
aS'to'
p714
aS'our'
p715
aaa(lp716
g689
a(lp717
S'our'
p718
aS'Father'
p719
aS'in'
p720
aS'prayer'
p721
aaa(lp722
g689
a(lp723
S'F'
p724
aS'Father'
p725
aS'God'
p726
aS'in'
p727
aS'heaven'
p728
aaa(lp729
g689
a(lp730
S'we'
p731
aS'are'
p732
aS'just'
p733
aS'so'
p734
aS'grateful'
p735
aS'that'
p736
aS'were'
p737
aS'able'
p738
aS'to'
p739
ag724
aaa(lp740
g689
a(lp741
S'just'
p742
aS'be'
p743
aS'here'
p744
aaa(lp745
g689
a(lp746
S'Lord'
p747
aS'to'
p748
aS'have'
p749
aS'life'
p750
aaa(lp751
g689
a(lp752
S'God'
p753
aS'Im'
p754
aS'grateful'
p755
aS'that'
p756
ag109
aS'have'
p757
aS'legs'
p758
aS'that'
p759
ag109
aS'can'
p760
aS'walk'
p761
aS'on'
p762
aaa(lp763
g689
a(lp764
S'and'
p765
aaa(lp766
g689
a(lp767
S'eyes'
p768
aS'that'
p769
ag109
aS'can'
p770
aS'see'
p771
aaa(lp772
S'AUD'
p773
a(lp774
aa(lp775
S'WALT'
p776
a(lp777
S'and'
p778
aaa(lp779
g776
a(lp780
S'hands'
p781
aS'that'
p782
ag109
aS'can'
p783
aS'touch'
p784
aaa(lp785
g776
a(lp786
S'And'
p787
aS'God'
p788
aS'Im'
p789
aS'just'
p790
aS'grateful'
p791
aS'that'
p792
aS'youve'
p793
aS'given'
p794
aS'me'
p795
aS'children'
p796
aaa(lp797
S'MANY'
p798
a(lp799
aa(lp800
S'WALT'
p801
a(lp802
S'h'
p803
aaa(lp804
g801
a(lp805
S'that'
p806
aS'bring'
p807
aS'me'
p808
aS'so'
p809
aS'much'
p810
aS'joy'
p811
aaa(lp812
g801
a(lp813
S'Lord'
p814
aS'Im'
p815
aS'grateful'
p816
aS'for'
p817
aS'the'
p818
aS'wife'
p819
aaa(lp820
g801
a(lp821
S'that'
p822
aS'youve'
p823
aS'given'
p824
aS'me'
p825
aaa(lp826
g801
a(lp827
S'who'
p828
aS'has'
p829
aaa(lp830
g801
a(lp831
S'truly'
p832
aS'stuck'
p833
aS'by'
p834
aS'my'
p835
aS'side'
p836
aaa(lp837
g801
a(lp838
S'for'
p839
aS'these'
p840
aS'last'
p841
aS'nineteen'
p842
aS'years'
p843
aaa(lp844
g801
a(lp845
S'and'
p846
ag57
aS'half'
p847
aaa(lp848
g801
a(lp849
S'God'
p850
aaa(lp851
g801
a(lp852
S'Im'
p853
aS'just'
p854
aS'grateful'
p855
aS'for'
p856
aS'your'
p857
aS'church'
p858
aaa(lp859
g801
a(lp860
S'Im'
p861
aS'grateful'
p862
aS'for'
p863
aS'every'
p864
aS'single'
p865
aS'brother'
p866
aS'and'
p867
aS'sister'
p868
aaa(lp869
g801
a(lp870
S'that'
p871
aS'is'
p872
aS'here'
p873
aaa(lp874
g801
a(lp875
S'Who'
p876
aS'has'
p877
aS'impacted'
p878
aS'and'
p879
aS'changed'
p880
aS'my'
p881
aS'life'
p882
aaa(lp883
g801
a(lp884
S'God'
p885
aS'Im'
p886
aS'grateful'
p887
aS'for'
p888
aS'those'
p889
aS'that'
p890
aS'arent'
p891
aS'here'
p892
aS'that'
p893
aaa(lp894
g801
a(lp895
S'have'
p896
aS'changed'
p897
aS'my'
p898
aS'life'
p899
aS'and'
p900
aS'impacted'
p901
aS'me'
p902
aaa(lp903
g801
a(lp904
S'and'
p905
aS'Im'
p906
aS'just'
p907
aS'grateful'
p908
aS'to'
p909
aS'be'
p910
aS'in'
p911
aS'your'
p912
aS'kingdom'
p913
aaa(lp914
S'AUD'
p915
a(lp916
S'Mm'
p917
aaa(lp918
S'WALT'
p919
a(lp920
S'Lord'
p921
aaa(lp922
g919
a(lp923
S'youre'
p924
aS'such'
p925
ag57
aS'good'
p926
aS'God'
p927
aaa(lp928
S'MANY'
p929
a(lp930
aa(lp931
S'WALT'
p932
a(lp933
S'Youre'
p934
aS'so'
p935
aS'patient'
p936
aS'and'
p937
aS'kind'
p938
aaa(lp939
g932
a(lp940
S'Merciful'
p941
aaa(lp942
g932
a(lp943
S'Strong'
p944
aaa(lp945
g932
a(lp946
S'Full'
p947
aS'of'
p948
aS'wisdom'
p949
aaa(lp950
g932
a(lp951
S'And'
p952
aS'mercy'
p953
aaa(lp954
g932
a(lp955
S'And'
p956
aS'God'
p957
aaa(lp958
g932
a(lp959
S'we'
p960
aS'just'
p961
aS'owe'
p962
aS'you'
p963
aS'our'
p964
aS'lives'
p965
aaa(lp966
g932
a(lp967
S'And'
p968
aS'we'
p969
aS'thank'
p970
aS'you'
p971
aS'for'
p972
aS'our'
p973
aS'lives'
p974
aaa(lp975
g932
a(lp976
S'and'
p977
aaa(lp978
g932
a(lp979
S'we'
p980
aS'pray'
p981
aS'that'
p982
aS'our'
p983
aS'lives'
p984
aS'will'
p985
aS'be'
p986
aaa(lp987
g932
a(lp988
S'in'
p989
aS'any'
p990
aS'way'
p991
aS'we'
p992
aS'can'
p993
aaa(lp994
g932
a(lp995
S'worthy'
p996
aaa(lp997
g932
a(lp998
S'of'
p999
aS'what'
p1000
aS'youve'
p1001
aS'called'
p1002
aS'us'
p1003
aS'to'
p1004
aaa(lp1005
S'MANY'
p1006
a(lp1007
aa(lp1008
S'WALT'
p1009
a(lp1010
S'Lord'
p1011
aS'we'
p1012
aS'love'
p1013
aS'you'
p1014
aaa(lp1015
g1009
a(lp1016
S'we'
p1017
aS'look'
p1018
aS'forward'
p1019
aS'to'
p1020
aS'the'
p1021
aS'day'
p1022
aS'of'
p1023
aS'being'
p1024
aS'in'
p1025
aS'heaven'
p1026
aS'with'
p1027
aS'you'
p1028
aaa(lp1029
S'MANY'
p1030
a(lp1031
aa(lp1032
S'WALT'
p1033
a(lp1034
S'celebrating'
p1035
aaa(lp1036
g1033
a(lp1037
S'partying'
p1038
aaa(lp1039
S'AUD'
p1040
a(lp1041
S'Amen'
p1042
aaa(lp1043
S'WALT'
p1044
a(lp1045
S'in'
p1046
ag57
aS'spiritual'
p1047
aS'way'
p1048
aaa(lp1049
S'MANY'
p1050
a(lp1051
aa(lp1052
S'WALT'
p1053
a(lp1054
S'uh'
p1055
aS'Lord'
p1056
aS'uh'
p1057
aaa(lp1058
g1053
a(lp1059
S'the'
p1060
aS'great'
p1061
aS'victories'
p1062
aaa(lp1063
g1053
a(lp1064
S'that'
p1065
aS'you'
p1066
aS'have'
p1067
aS'brought'
p1068
aS'about'
p1069
aaa(lp1070
g1053
a(lp1071
S'That'
p1072
aS'have'
p1073
aS'changed'
p1074
aS'the'
p1075
aS'world'
p1076
aaa(lp1077
g1053
a(lp1078
S'We'
p1079
aS'love'
p1080
aS'you'
p1081
aaa(lp1082
g1053
a(lp1083
S'Father'
p1084
aaa(lp1085
g1053
a(lp1086
S'thank'
p1087
aS'you'
p1088
aS'for'
p1089
aS'liking'
p1090
aS'us'
p1091
aaa(lp1092
g1053
a(lp1093
S'Being'
p1094
aS'our'
p1095
aS'friend'
p1096
aaa(lp1097
g1053
a(lp1098
S'our'
p1099
aS'support'
p1100
aaa(lp1101
g1053
a(lp1102
S'our'
p1103
aS'courage'
p1104
aaa(lp1105
g1053
a(lp1106
S'and'
p1107
aS'our'
p1108
aS'life'
p1109
aaa(lp1110
g1053
a(lp1111
g64
aS'Its'
p1112
aS'in'
p1113
ag64
aS'the'
p1114
aS'name'
p1115
aS'of'
p1116
aS'Jesus'
p1117
aaa(lp1118
g1053
a(lp1119
S'your'
p1120
aS'Son'
p1121
aaa(lp1122
g1053
a(lp1123
S'our'
p1124
aS'brother'
p1125
aaa(lp1126
g1053
a(lp1127
S'we'
p1128
aS'pray'
p1129
aaa(lp1130
g1053
a(lp1131
S'Amen'
p1132
aaa(lp1133
S'MANY'
p1134
a(lp1135
S'Amen'
p1136
aaa(lp1137
S'WALT'
p1138
a(lp1139
S'Mark'
p1140
aS'chapter'
p1141
aS'five'
p1142
aaa(lp1143
g1138
a(lp1144
S'Im'
p1145
aS'gonna'
p1146
aS'start'
p1147
aS'over'
p1148
aS'there'
p1149
aaa(lp1150
g1138
a(lp1151
S'Hey'
p1152
aS'have'
p1153
aS'you'
p1154
aS'ever'
p1155
aS'been'
p1156
aS'afraid'
p1157
aS'of'
p1158
aS'anything'
p1159
aaa(lp1160
S'AUD'
p1161
a(lp1162
aa(lp1163
S'MANY'
p1164
a(lp1165
aa(lp1166
S'AUD'
p1167
a(lp1168
aa(lp1169
S'WALT'
p1170
a(lp1171
S'You'
p1172
aS'know'
p1173
ag109
aS'remember'
p1174
aS'some'
p1175
aS'things'
p1176
ag109
aS'was'
p1177
aS'afraid'
p1178
aS'of'
p1179
aaa(lp1180
S'AUD'
p1181
a(lp1182
aa(lp1183
S'AUD'
p1184
a(lp1185
aa(lp1186
S'WALT'
p1187
a(lp1188
S'All'
p1189
aS'of'
p1190
aS'us'
p1191
aS'have'
p1192
aS'been'
p1193
aS'afraid'
p1194
aS'of'
p1195
aS'something'
p1196
aaa(lp1197
g1187
a(lp1198
S'havent'
p1199
aS'we'
p1200
aaa(lp1201
S'MANY'
p1202
a(lp1203
aa(lp1204
S'WALT'
p1205
a(lp1206
S'Or'
p1207
aS'somebody'
p1208
aaa(lp1209
S'MANY'
p1210
a(lp1211
S'Yeah'
p1212
aaa(lp1213
S'AUD'
p1214
a(lp1215
aa(lp1216
S'WALT'
p1217
a(lp1218
S'You'
p1219
aS'know'
p1220
ag109
aS'remember'
p1221
aS'uh'
p1222
aaa(lp1223
g1217
a(lp1224
S'when'
p1225
ag109
aS'was'
p1226
ag57
aS'kid'
p1227
aaa(lp1228
g1217
a(lp1229
S'And'
p1230
aS'uh'
p1231
aaa(lp1232
g1217
a(lp1233
S'maybe'
p1234
aS'Paulll'
p1235
aS'remember'
p1236
aS'this'
p1237
aaa(lp1238
g1217
a(lp1239
S'But'
p1240
aaa(lp1241
g1217
a(lp1242
S'we'
p1243
aS'uh'
p1244
aaa(lp1245
g1217
a(lp1246
S'we'
p1247
aS'had'
p1248
aS'this'
p1249
aS'one'
p1250
aaa(lp1251
g1217
a(lp1252
S'we'
p1253
aS'lived'
p1254
aS'in'
p1255
ag57
ag57
aS'small'
p1256
aS'cottage'
p1257
aaa(lp1258
g1217
a(lp1259
S'in'
p1260
aS'back'
p1261
aS'of'
p1262
ag57
aS'threetenement'
p1263
aS'house'
p1264
aaa(lp1265
g1217
a(lp1266
S'on'
p1267
aS'uh'
p1268
aS'Prospect'
p1269
aS'Street'
p1270
aS'in'
p1271
aS'Lynne'
p1272
aaa(lp1273
g1217
a(lp1274
S'number'
p1275
aS'twentyeight'
p1276
aaa(lp1277
g1217
a(lp1278
S'You'
p1279
aS'remember'
p1280
aS'that'
p1281
aS'Paul'
p1282
aaa(lp1283
g1217
a(lp1284
S'And'
p1285
aS'uh'
p1286
aaa(lp1287
S'AUD'
p1288
a(lp1289
aa(lp1290
S'AUD'
p1291
a(lp1292
aa(lp1293
S'WALT'
p1294
a(lp1295
S'it'
p1296
aS'was'
p1297
aaa(lp1298
S'AUD'
p1299
a(lp1300
aa(lp1301
S'WALT'
p1302
a(lp1303
S'it'
p1304
aS'was'
p1305
aS'kind'
p1306
aS'of'
p1307
ag57
aS'small'
p1308
aS'house'
p1309
aS'upstairs'
p1310
aaa(lp1311
S'WALT'
p1312
a(lp1313
S'it'
p1314
aS'had'
p1315
aS'uh'
p1316
aaa(lp1317
g1312
a(lp1318
S'one'
p1319
aS'large'
p1320
aS'bedroom'
p1321
aaa(lp1322
g1312
a(lp1323
S'actually'
p1324
aS'two'
p1325
aS'large'
p1326
aS'bedrooms'
p1327
aaa(lp1328
g1312
a(lp1329
S'which'
p1330
aS'my'
p1331
aS'mom'
p1332
aS'and'
p1333
aS'dad'
p1334
aS'slept'
p1335
aS'in'
p1336
aaa(lp1337
g1312
a(lp1338
S'and'
p1339
aS'the'
p1340
aS'other'
p1341
aS'bedroom'
p1342
aaa(lp1343
g1312
a(lp1344
S'uh'
p1345
aaa(lp1346
g1312
a(lp1347
S'it'
p1348
aS'was'
p1349
aS'all'
p1350
aS'us'
p1351
aS'five'
p1352
aS'boys'
p1353
aaa(lp1354
g1312
a(lp1355
S'in'
p1356
aS'that'
p1357
aS'one'
p1358
aS'bedroom'
p1359
aaa(lp1360
S'AUD'
p1361
a(lp1362
aa(lp1363
S'WALT'
p1364
a(lp1365
S'with'
p1366
aS'two'
p1367
aS'beds'
p1368
aaa(lp1369
S'AUD'
p1370
a(lp1371
aa(lp1372
S'AUD'
p1373
a(lp1374
S'Whoa'
p1375
aaa(lp1376
S'WALT'
p1377
a(lp1378
S'You'
p1379
aS'know'
p1380
aaa(lp1381
g1377
a(lp1382
S'And'
p1383
aS'my'
p1384
aS'sister'
p1385
aaa(lp1386
S'AUD'
p1387
a(lp1388
aa(lp1389
S'AUD'
p1390
a(lp1391
aa(lp1392
S'WALT'
p1393
a(lp1394
S'had'
p1395
aS'her'
p1396
aS'own'
p1397
aS'room'
p1398
aaa(lp1399
g1393
a(lp1400
S'cause'
p1401
aS'shes'
p1402
aS'the'
p1403
aS'only'
p1404
aS'girl'
p1405
aaa(lp1406
S'AUD'
p1407
a(lp1408
g64
aaa(lp1409
S'WALT'
p1410
a(lp1411
S'But'
p1412
aS'it'
p1413
aS'was'
p1414
ag57
aS'little'
p1415
aS'smaller'
p1416
aaa(lp1417
S'AUD'
p1418
a(lp1419
aa(lp1420
S'WALT'
p1421
a(lp1422
S'So'
p1423
aS'we'
p1424
aS'had'
p1425
aaa(lp1426
g1421
a(lp1427
S'uh'
p1428
aaa(lp1429
g1421
a(lp1430
S'we'
p1431
aS'had'
p1432
aS'this'
p1433
aS'one'
p1434
aS'big'
p1435
aS'bedroom'
p1436
aaa(lp1437
S'WALT'
p1438
a(lp1439
S'and'
p1440
aS'there'
p1441
aS'was'
p1442
aS'two'
p1443
aS'beds'
p1444
aS'in'
p1445
aS'the'
p1446
aS'room'
p1447
aaa(lp1448
g1438
a(lp1449
S'so'
p1450
aS'that'
p1451
aS'meant'
p1452
aaa(lp1453
g1438
a(lp1454
S'three'
p1455
aS'of'
p1456
aS'us'
p1457
aS'slept'
p1458
aS'in'
p1459
aS'one'
p1460
aS'bed'
p1461
aaa(lp1462
g1438
a(lp1463
S'and'
p1464
aS'two'
p1465
aS'of'
p1466
aS'us'
p1467
aS'slept'
p1468
aS'in'
p1469
aS'the'
p1470
aS'other'
p1471
aS'bed'
p1472
aaa(lp1473
g1438
a(lp1474
S'And'
p1475
aS'uh'
p1476
aaa(lp1477
g1438
a(lp1478
g109
aS'remember'
p1479
aS'those'
p1480
aS'days'
p1481
aaa(lp1482
g1438
a(lp1483
g109
aS'remember'
p1484
aS'those'
p1485
aS'days'
p1486
aaa(lp1487
g1438
a(lp1488
g803
aaa(lp1489
g1438
a(lp1490
S'being'
p1491
aS'with'
p1492
aS'those'
p1493
aS'guys'
p1494
aaa(lp1495
g1438
a(lp1496
S'trying'
p1497
aS'to'
p1498
aS'get'
p1499
aS'the'
p1500
aS'covers'
p1501
aaa(lp1502
g1438
a(lp1503
S'and'
p1504
aS'many'
p1505
aS'days'
p1506
ag109
aS'woke'
p1507
aS'up'
p1508
aS'with'
p1509
aS'no'
p1510
aS'covers'
p1511
aaa(lp1512
g1438
a(lp1513
S'you'
p1514
aS'know'
p1515
aS'what'
p1516
ag109
aS'mean'
p1517
aaa(lp1518
S'AUD'
p1519
a(lp1520
aa(lp1521
S'WALT'
p1522
a(lp1523
S'And'
p1524
aS'one'
p1525
aS'of'
p1526
aS'my'
p1527
aS'brothers'
p1528
aS'wet'
p1529
aS'the'
p1530
aS'bed'
p1531
aaa(lp1532
g1522
a(lp1533
S'so'
p1534
aaa(lp1535
g1522
a(lp1536
g109
aS'mean'
p1537
aaa(lp1538
g1522
a(lp1539
S'it'
p1540
aS'was'
p1541
aS'like'
p1542
aaa(lp1543
S'MANY'
p1544
a(lp1545
aa(lp1546
S'AUD'
p1547
a(lp1548
S'Ugh'
p1549
aaa(lp1550
S'WALT'
p1551
a(lp1552
S'ugh'
p1553
aaa(lp1554
g1551
a(lp1555
S'One'
p1556
aS'of'
p1557
aS'those'
p1558
aS'days'
p1559
aS'you'
p1560
aS'woke'
p1561
aS'up'
p1562
aS'cold'
p1563
aaa(lp1564
g1551
a(lp1565
S'and'
p1566
ag57
aS'little'
p1567
aS'damp'
p1568
aaa(lp1569
g1551
a(lp1570
S'You'
p1571
aS'know'
p1572
aaa(lp1573
S'MANY'
p1574
a(lp1575
aa(lp1576
S'AUD'
p1577
a(lp1578
S'Oh'
p1579
aaa(lp1580
S'MANY'
p1581
a(lp1582
S'MURMUR'
p1583
aaa(lp1584
S'WALT'
p1585
a(lp1586
S'Thats'
p1587
aS'kind'
p1588
aS'of'
p1589
aS'gross'
p1590
aaa(lp1591
g1585
a(lp1592
S'isnt'
p1593
aS'it'
p1594
aaa(lp1595
S'AUD'
p1596
a(lp1597
aa(lp1598
S'WALT'
p1599
a(lp1600
S'Well'
p1601
aS'thats'
p1602
aS'how'
p1603
ag109
aS'grew'
p1604
aS'up'
p1605
aaa(lp1606
g1599
a(lp1607
S'But'
p1608
aS'in'
p1609
aS'this'
p1610
aS'bedroom'
p1611
aaa(lp1612
S'MANY'
p1613
a(lp1614
S'MURMUR'
p1615
aaa(lp1616
S'WALT'
p1617
a(lp1618
S'um'
p1619
aaa(lp1620
g1617
a(lp1621
S'Maybe'
p1622
aS'thats'
p1623
aS'why'
p1624
ag109
aS'turned'
p1625
aS'out'
p1626
aS'this'
p1627
aS'way'
p1628
aaa(lp1629
g1617
a(lp1630
g109
aS'dont'
p1631
aS'know'
p1632
aaa(lp1633
g1617
a(lp1634
S'Just'
p1635
aS'kind'
p1636
aS'of'
p1637
aS'crazy'
p1638
aaa(lp1639
S'MANY'
p1640
a(lp1641
aa(lp1642
S'WALT'
p1643
a(lp1644
S'You'
p1645
aS'know'
p1646
aaa(lp1647
g1643
a(lp1648
S'From'
p1649
ag57
aS'young'
p1650
aS'age'
p1651
aaa(lp1652
g1643
a(lp1653
g109
aS'guess'
p1654
aaa(lp1655
S'AUD'
p1656
a(lp1657
aa(lp1658
S'WALT'
p1659
a(lp1660
S'But'
p1661
aS'in'
p1662
aS'that'
p1663
aaa(lp1664
g1659
a(lp1665
S'in'
p1666
aS'that'
p1667
aaa(lp1668
g1659
a(lp1669
S'uh'
p1670
aaa(lp1671
g1659
a(lp1672
S'bedroom'
p1673
aaa(lp1674
g1659
a(lp1675
S'was'
p1676
ag57
aS'closet'
p1677
aaa(lp1678
S'AUD'
p1679
a(lp1680
S'Yep'
p1681
aaa(lp1682
S'WALT'
p1683
a(lp1684
S'Well'
p1685
aaa(lp1686
g1683
a(lp1687
S'Pauls'
p1688
aS'saying'
p1689
aaa(lp1690
g1683
a(lp1691
S'VOX'
p1692
aS'oh'
p1693
aS'yeah'
p1694
aaa(lp1695
g1683
a(lp1696
g109
aS'remember'
p1697
aS'that'
p1698
aS'closet'
p1699
aaa(lp1700
g1683
a(lp1701
S'You'
p1702
aS'know'
p1703
aS'VOX'
p1704
aaa(lp1705
S'AUD'
p1706
a(lp1707
aa(lp1708
S'WALT'
p1709
a(lp1710
S'And'
p1711
aS'this'
p1712
aS'closet'
p1713
aS'was'
p1714
aS'there'
p1715
aaa(lp1716
g1709
a(lp1717
S'And'
p1718
aS'it'
p1719
aS'was'
p1720
aS'this'
p1721
aS'VOX'
p1722
aS'incredible'
p1723
aS'closet'
p1724
aS'VOX'
p1725
aaa(lp1726
g1709
a(lp1727
S'And'
p1728
aS'uh'
p1729
aaa(lp1730
S'AUD'
p1731
a(lp1732
aa(lp1733
S'WALT'
p1734
a(lp1735
S'Every'
p1736
aS'night'
p1737
aS'before'
p1738
ag109
aS'went'
p1739
aS'to'
p1740
aS'bed'
p1741
aaa(lp1742
g1734
a(lp1743
g109
aS'wanted'
p1744
aS'to'
p1745
aS'make'
p1746
aS'sure'
p1747
aaa(lp1748
g1734
a(lp1749
S'that'
p1750
aS'closet'
p1751
aS'door'
p1752
aaa(lp1753
g1734
a(lp1754
S'was'
p1755
aS'closed'
p1756
aaa(lp1757
S'AUD'
p1758
a(lp1759
S'Oh'
p1760
aS'yeah'
p1761
aaa(lp1762
S'MANY'
p1763
a(lp1764
aa(lp1765
S'WALT'
p1766
a(lp1767
S'Cause'
p1768
ag109
aS'knew'
p1769
aaa(lp1770
g1766
a(lp1771
S'if'
p1772
aS'that'
p1773
aS'closet'
p1774
aS'door'
p1775
aS'was'
p1776
aS'open'
p1777
aaa(lp1778
S'AUD'
p1779
a(lp1780
aa(lp1781
S'WALT'
p1782
a(lp1783
g109
aS'wasnt'
p1784
aS'gonna'
p1785
aS'sleep'
p1786
aaa(lp1787
S'AUD'
p1788
a(lp1789
aa(lp1790
S'AUD'
p1791
a(lp1792
aa(lp1793
S'WALT'
p1794
a(lp1795
S'Cause'
p1796
aS'inside'
p1797
aS'that'
p1798
aS'closet'
p1799
aaa(lp1800
S'AUD'
p1801
a(lp1802
aa(lp1803
S'WALT'
p1804
a(lp1805
S'there'
p1806
aS'was'
p1807
ag57
aS'nasty'
p1808
aS'old'
p1809
aS'boogyman'
p1810
aaa(lp1811
S'MANY'
p1812
a(lp1813
aa(lp1814
S'WALT'
p1815
a(lp1816
aa(lp1817
g1815
a(lp1818
S'Right'
p1819
aS'Paul'
p1820
aaa(lp1821
S'AUD'
p1822
a(lp1823
S'XXXXX'
p1824
aaa(lp1825
S'WALT'
p1826
a(lp1827
S'And'
p1828
ag109
aS'was'
p1829
aS'afraid'
p1830
aS'of'
p1831
aS'that'
p1832
aS'boogyman'
p1833
aaa(lp1834
S'AUD'
p1835
a(lp1836
aa(lp1837
S'AUD'
p1838
a(lp1839
aa(lp1840
S'WALT'
p1841
a(lp1842
S'You'
p1843
aS'know'
p1844
aaa(lp1845
g1841
a(lp1846
S'during'
p1847
aS'the'
p1848
aS'day'
p1849
aaa(lp1850
g1841
a(lp1851
S'Id'
p1852
aS'go'
p1853
aS'in'
p1854
aS'there'
p1855
aaa(lp1856
g1841
a(lp1857
S'and'
p1858
aS'look'
p1859
aS'around'
p1860
aaa(lp1861
g1841
a(lp1862
S'and'
p1863
aS'see'
p1864
aS'if'
p1865
ag109
aS'could'
p1866
aS'find'
p1867
aS'him'
p1868
aaa(lp1869
g1841
a(lp1870
S'And'
p1871
aS'Id'
p1872
aS'be'
p1873
aS'amidst'
p1874
aS'the'
p1875
aS'shoes'
p1876
aaa(lp1877
g1841
a(lp1878
S'and'
p1879
aS'all'
p1880
aS'the'
p1881
aS'junk'
p1882
aS'and'
p1883
aS'stuff'
p1884
aS'in'
p1885
aS'there'
p1886
aaa(lp1887
g1841
a(lp1888
S'and'
p1889
aS'he'
p1890
aS'wasnt'
p1891
aS'there'
p1892
aaa(lp1893
g1841
a(lp1894
S'but'
p1895
aS'at'
p1896
aS'night'
p1897
aaa(lp1898
g1841
a(lp1899
S'VOX'
p1900
aS'thats'
p1901
aS'where'
p1902
aS'his'
p1903
aS'home'
p1904
aS'was'
p1905
aaa(lp1906
S'AUD'
p1907
a(lp1908
aa(lp1909
S'WALT'
p1910
a(lp1911
S'And'
p1912
ag109
aS'was'
p1913
aS'scared'
p1914
aS'of'
p1915
aS'that'
p1916
aS'VOX'
p1917
aaa(lp1918
S'AUD'
p1919
a(lp1920
S'Yeah'
p1921
aaa(lp1922
S'AUD'
p1923
a(lp1924
aa(lp1925
S'WALT'
p1926
a(lp1927
S'Were'
p1928
aS'you'
p1929
aS'afraid'
p1930
aS'of'
p1931
aS'him'
p1932
aS'Paul'
p1933
aaa(lp1934
g1926
a(lp1935
S'as'
p1936
aS'well'
p1937
aaa(lp1938
g1926
a(lp1939
g109
aS'dont'
p1940
aS'know'
p1941
aaa(lp1942
S'AUD'
p1943
a(lp1944
aa(lp1945
S'WALT'
p1946
a(lp1947
S'Were'
p1948
aS'you'
p1949
aS'afraid'
p1950
aS'of'
p1951
aS'that'
p1952
aS'closet'
p1953
aaa(lp1954
S'AUD'
p1955
a(lp1956
g64
aaa(lp1957
S'WALT'
p1958
a(lp1959
S'Yeah'
p1960
aS'he'
p1961
aS'was'
p1962
aS'too'
p1963
aaa(lp1964
S'MANY'
p1965
a(lp1966
aa(lp1967
S'WALT'
p1968
a(lp1969
S'so'
p1970
aaa(lp1971
g1968
a(lp1972
S'Id'
p1973
aS'never'
p1974
aS'asked'
p1975
aS'him'
p1976
aS'that'
p1977
aS'before'
p1978
aaa(lp1979
g1968
a(lp1980
S'so'
p1981
aaa(lp1982
S'MANY'
p1983
a(lp1984
aa(lp1985
S'WALT'
p1986
a(lp1987
S'Ill'
p1988
aS'have'
p1989
aS'to'
p1990
aS'ask'
p1991
aS'my'
p1992
aS'other'
p1993
aS'brothers'
p1994
aS'as'
p1995
aS'well'
p1996
aaa(lp1997
g1986
a(lp1998
S'You'
p1999
aS'know'
p2000
aaa(lp2001
g1986
a(lp2002
g109
aS'remember'
p2003
aS'some'
p2004
aS'other'
p2005
aS'things'
p2006
ag109
aS'was'
p2007
aS'afraid'
p2008
aS'of'
p2009
aaa(lp2010
g1986
a(lp2011
g109
aS'remember'
p2012
aaa(lp2013
g1986
a(lp2014
S'at'
p2015
aS'times'
p2016
aaa(lp2017
g1986
a(lp2018
S'uh'
p2019
aaa(lp2020
g1986
a(lp2021
S'we'
p2022
aS'grew'
p2023
aS'up'
p2024
aS'in'
p2025
ag57
aS'navyh'
p2026
aS'neighborhood'
p2027
aS'that'
p2028
aS'was'
p2029
aS'multiracial'
p2030
aaa(lp2031
g1986
a(lp2032
S'And'
p2033
aS'uh'
p2034
aaa(lp2035
S'AUD'
p2036
a(lp2037
aa(lp2038
S'WALT'
p2039
a(lp2040
S'Some'
p2041
aS'of'
p2042
aS'us'
p2043
aS'didnt'
p2044
aS'get'
p2045
aS'along'
p2046
aaa(lp2047
g2039
a(lp2048
S'And'
p2049
aS'it'
p2050
aS'was'
p2051
aS'always'
p2052
aS'interesting'
p2053
aaa(lp2054
g2039
a(lp2055
S'that'
p2056
aS'when'
p2057
aS'you'
p2058
aaa(lp2059
g2039
a(lp2060
S'got'
p2061
aS'into'
p2062
aS'trouble'
p2063
aaa(lp2064
g2039
a(lp2065
S'you'
p2066
aS'ended'
p2067
aS'up'
p2068
aS'dealing'
p2069
aS'with'
p2070
ag57
aS'number'
p2071
aS'of'
p2072
aS'kids'
p2073
aaa(lp2074
g2039
a(lp2075
S'besides'
p2076
aS'just'
p2077
aS'one'
p2078
aaa(lp2079
g2039
a(lp2080
S'So'
p2081
ag109
aS'know'
p2082
ag64
aS'of'
p2083
ag64
aS'several'
p2084
aS'times'
p2085
aaa(lp2086
g2039
a(lp2087
g109
aS'had'
p2088
aS'an'
p2089
aaa(lp2090
g2039
a(lp2091
S'uh'
p2092
aaa(lp2093
g2039
a(lp2094
g57
aS'kid'
p2095
aS'that'
p2096
aS'was'
p2097
aS'after'
p2098
aS'me'
p2099
aaa(lp2100
g2039
a(lp2101
S'and'
p2102
aS'uh'
p2103
aaa(lp2104
g2039
a(lp2105
S'he'
p2106
aS'would'
p2107
aS'bring'
p2108
aS'all'
p2109
aS'his'
p2110
aS'friends'
p2111
aaa(lp2112
g2039
a(lp2113
S'and'
p2114
aS'thered'
p2115
aS'be'
p2116
aS'about'
p2117
aS'ten'
p2118
aS'kids'
p2119
aS'waiting'
p2120
aS'for'
p2121
aS'me'
p2122
aaa(lp2123
g2039
a(lp2124
S'After'
p2125
aS'school'
p2126
aaa(lp2127
S'AUD'
p2128
a(lp2129
aa(lp2130
S'WALT'
p2131
a(lp2132
S'Cause'
p2133
ag109
aS'went'
p2134
aS'to'
p2135
ag57
aS'different'
p2136
aS'school'
p2137
aS'than'
p2138
aS'they'
p2139
aS'went'
p2140
aS'to'
p2141
aaa(lp2142
g2131
a(lp2143
S'and'
p2144
aS'they'
p2145
aS'got'
p2146
aS'out'
p2147
aS'earlier'
p2148
aS'than'
p2149
aS'we'
p2150
aS'did'
p2151
aaa(lp2152
S'AUD'
p2153
a(lp2154
S'Uhoh'
p2155
aaa(lp2156
S'AUD'
p2157
a(lp2158
aa(lp2159
S'WALT'
p2160
a(lp2161
S'So'
p2162
aS'its'
p2163
aS'kinda'
p2164
aS'like'
p2165
aaa(lp2166
g2160
a(lp2167
S'VOX'
p2168
aS'uhoh'
p2169
aaa(lp2170
S'AUD'
p2171
a(lp2172
S'M'
p2173
aaa(lp2174
S'WALT'
p2175
a(lp2176
S'There'
p2177
aS'they'
p2178
aS'are'
p2179
aaa(lp2180
g2175
a(lp2181
S'what'
p2182
aS'am'
p2183
ag109
aS'gonna'
p2184
aS'do'
p2185
aS'VOX'
p2186
aaa(lp2187
g2175
a(lp2188
S'And'
p2189
aS'they'
p2190
aS'cant'
p2191
aS'come'
p2192
aS'in'
p2193
aS'the'
p2194
aS'schoolyard'
p2195
aaa(lp2196
g2175
a(lp2197
S'You'
p2198
aS'know'
p2199
aaa(lp2200
g2175
a(lp2201
S'Cause'
p2202
aS'the'
p2203
aS'adultsll'
p2204
aS'put'
p2205
aS'em'
p2206
aS'out'
p2207
aaa(lp2208
g2175
a(lp2209
S'But'
p2210
aS'theyre'
p2211
aS'out'
p2212
aS'there'
p2213
aS'waiting'
p2214
aaa(lp2215
g2175
a(lp2216
S'saying'
p2217
aS'VOX'
p2218
aS'were'
p2219
aS'gonna'
p2220
aS'get'
p2221
aS'you'
p2222
aS'Walt'
p2223
aaa(lp2224
g2175
a(lp2225
S'were'
p2226
aS'gonna'
p2227
aS'get'
p2228
aS'you'
p2229
aaa(lp2230
S'AUD'
p2231
a(lp2232
aa(lp2233
S'WALT'
p2234
a(lp2235
S'you'
p2236
aS'know'
p2237
aaa(lp2238
g2234
a(lp2239
S'Were'
p2240
aS'after'
p2241
aS'you'
p2242
aS'VOX'
p2243
aaa(lp2244
g2234
a(lp2245
S'and'
p2246
aaa(lp2247
g2234
a(lp2248
S'and'
p2249
aS'uh'
p2250
aaa(lp2251
g2234
a(lp2252
S'and'
p2253
aS'what'
p2254
ag109
aS'would'
p2255
aS'do'
p2256
aS'is'
p2257
aaa(lp2258
g2234
a(lp2259
S'go'
p2260
aS'all'
p2261
aS'the'
p2262
aS'way'
p2263
aS'around'
p2264
aaa(lp2265
S'MANY'
p2266
a(lp2267
S'LAUGHTER'
p2268
aaa(lp2269
S'WALT'
p2270
a(lp2271
S'VOX'
p2272
aS'Jumping'
p2273
aS'fences'
p2274
aaa(lp2275
g2270
a(lp2276
S'going'
p2277
aS'through'
p2278
aS'yards'
p2279
aaa(lp2280
g2270
a(lp2281
S'you'
p2282
aS'know'
p2283
aaa(lp2284
g2270
a(lp2285
S'ducking'
p2286
aS'down'
p2287
aS'behind'
p2288
aS'cars'
p2289
aS'VOX'
p2290
aaa(lp2291
S'MANY'
p2292
a(lp2293
S'LAUGHTER'
p2294
aaa(lp2295
S'WALT'
p2296
a(lp2297
S'so'
p2298
aS'those'
p2299
aS'guys'
p2300
aS'couldnt'
p2301
aS'get'
p2302
aS'me'
p2303
aaa(lp2304
g2296
a(lp2305
S'cause'
p2306
ag109
aS'was'
p2307
aS'afraid'
p2308
aaa(lp2309
g2296
a(lp2310
g109
aS'knew'
p2311
aS'what'
p2312
aS'was'
p2313
aS'gonna'
p2314
aS'happen'
p2315
aaa(lp2316
g2296
a(lp2317
S'Those'
p2318
aS'guys'
p2319
aS'were'
p2320
aS'gonna'
p2321
aS'beat'
p2322
aS'the'
p2323
aS'tar'
p2324
aS'out'
p2325
aS'of'
p2326
aS'me'
p2327
aaa(lp2328
S'MANY'
p2329
a(lp2330
aa(lp2331
S'WALT'
p2332
a(lp2333
S'Its'
p2334
ag57
aS'good'
p2335
aS'reason'
p2336
aS'to'
p2337
aS'be'
p2338
aS'afraid'
p2339
aaa(lp2340
g2332
a(lp2341
S'Isnt'
p2342
aS'it'
p2343
aaa(lp2344
S'MANY'
p2345
a(lp2346
aa(lp2347
S'WALT'
p2348
a(lp2349
g109
aS'think'
p2350
aS'so'
p2351
aaa(lp2352
S'AUD'
p2353
a(lp2354
S'Smart'
p2355
aaa(lp2356
S'WALT'
p2357
a(lp2358
S'Throwing'
p2359
aS'rocks'
p2360
aS'at'
p2361
aS'you'
p2362
aaa(lp2363
g2357
a(lp2364
S'and'
p2365
aS'things'
p2366
aS'like'
p2367
aS'that'
p2368
aaa(lp2369
g2357
a(lp2370
S'But'
p2371
aS'anyway'
p2372
aaa(lp2373
g2357
a(lp2374
S'there'
p2375
aS'was'
p2376
ag57
aS'time'
p2377
aS'that'
p2378
aS'eventually'
p2379
aaa(lp2380
g2357
a(lp2381
S'eventually'
p2382
aaa(lp2383
g2357
a(lp2384
g109
aS'couldnt'
p2385
aS'run'
p2386
aaa(lp2387
g2357
a(lp2388
S'eventually'
p2389
ag109
aS'had'
p2390
aS'to'
p2391
aS'deal'
p2392
aS'with'
p2393
aS'my'
p2394
aS'fear'
p2395
aaa(lp2396
g2357
a(lp2397
S'and'
p2398
aS'confront'
p2399
aaa(lp2400
S'AUD'
p2401
a(lp2402
S'Yep'
p2403
aaa(lp2404
S'WALT'
p2405
a(lp2406
S'those'
p2407
aS'people'
p2408
aaa(lp2409
g2405
a(lp2410
g109
aS'still'
p2411
aS'did'
p2412
aS'get'
p2413
aS'the'
p2414
aS'daylights'
p2415
aS'beat'
p2416
aS'out'
p2417
aS'of'
p2418
aS'me'
p2419
aaa(lp2420
g2405
a(lp2421
S'And'
p2422
aS'uh'
p2423
aaa(lp2424
g2405
a(lp2425
S'But'
p2426
ag109
aS'confronted'
p2427
aS'my'
p2428
aS'fear'
p2429
aaa(lp2430
g2405
a(lp2431
S'You'
p2432
aS'know'
p2433
ag109
aS'wanna'
p2434
aS'talk'
p2435
ag57
aS'little'
p2436
aS'bit'
p2437
aS'about'
p2438
aS'fear'
p2439
aS'today'
p2440
aaa(lp2441
S'AUD'
p2442
a(lp2443
g64
aaa(lp2444
S'WALT'
p2445
a(lp2446
S'Uh'
p2447
aaa(lp2448
g2445
a(lp2449
S'cause'
p2450
ag109
aS'believe'
p2451
aS'its'
p2452
aS'something'
p2453
aS'that'
p2454
aS'keeps'
p2455
aS'us'
p2456
aaa(lp2457
g2445
a(lp2458
S'from'
p2459
aS'doing'
p2460
aS'everything'
p2461
aS'we'
p2462
aS'can'
p2463
aS'do'
p2464
aaa(lp2465
g2445
a(lp2466
S'as'
p2467
aS'human'
p2468
aS'beings'
p2469
aaa(lp2470
g2445
a(lp2471
S'the'
p2472
aS'potential'
p2473
aS'that'
p2474
aS'God'
p2475
aS'has'
p2476
aS'given'
p2477
aS'us'
p2478
aaa(lp2479
g2445
a(lp2480
S'and'
p2481
ag109
aS'believe'
p2482
aS'it'
p2483
aS'also'
p2484
aaa(lp2485
g2445
a(lp2486
S'really'
p2487
aS'keeps'
p2488
aS'us'
p2489
aS'from'
p2490
aaa(lp2491
S'AUD'
p2492
a(lp2493
aa(lp2494
S'WALT'
p2495
a(lp2496
g57
aaa(lp2497
g2495
a(lp2498
S'strong'
p2499
aS'spiritual'
p2500
aS'walk'
p2501
aS'with'
p2502
aS'God'
p2503
aaa(lp2504
S'MANY'
p2505
a(lp2506
aa(lp2507
S'AUD'
p2508
a(lp2509
aa(lp2510
S'WALT'
p2511
a(lp2512
S'Lets'
p2513
aS'open'
p2514
aS'to'
p2515
aS'Mark'
p2516
aS'chapter'
p2517
aS'uh'
p2518
aaa(lp2519
g2511
a(lp2520
S'five'
p2521
aaa(lp2522
g2511
a(lp2523
S'verse'
p2524
aS'thirtyfive'
p2525
aaa(lp2526
g2511
a(lp2527
S'READ'
p2528
aS'That'
p2529
aS'day'
p2530
aS'when'
p2531
aS'evening'
p2532
aS'came'
p2533
aaa(lp2534
g2511
a(lp2535
S'he'
p2536
aS'said'
p2537
aS'to'
p2538
aS'his'
p2539
aS'disciples'
p2540
aaa(lp2541
g2511
a(lp2542
S'Let'
p2543
aS'us'
p2544
aS'go'
p2545
aS'over'
p2546
aS'to'
p2547
aS'the'
p2548
aS'other'
p2549
aS'side'
p2550
aaa(lp2551
g2511
a(lp2552
S'Leaving'
p2553
aS'the'
p2554
aS'crowds'
p2555
aS'behind'
p2556
aaa(lp2557
g2511
a(lp2558
S'they'
p2559
aS'took'
p2560
aS'him'
p2561
aS'along'
p2562
aaa(lp2563
g2511
a(lp2564
S'just'
p2565
aS'as'
p2566
aS'he'
p2567
aS'was'
p2568
aaa(lp2569
g2511
a(lp2570
S'In'
p2571
aS'the'
p2572
aS'boat'
p2573
aaa(lp2574
g2511
a(lp2575
S'There'
p2576
aS'were'
p2577
aS'also'
p2578
aS'other'
p2579
aS'boats'
p2580
aS'with'
p2581
aS'him'
p2582
aaa(lp2583
g2511
a(lp2584
S'A'
p2585
aS'furious'
p2586
aS'squall'
p2587
aS'came'
p2588
aS'up'
p2589
aaa(lp2590
g2511
a(lp2591
S'and'
p2592
aS'the'
p2593
aS'waves'
p2594
aS'broke'
p2595
aS'over'
p2596
aS'the'
p2597
aS'boat'
p2598
aaa(lp2599
g2511
a(lp2600
S'so'
p2601
aS'that'
p2602
aS'it'
p2603
aS'was'
p2604
aS'nearly'
p2605
aS'swamped'
p2606
aaa(lp2607
g2511
a(lp2608
S'Jesus'
p2609
aS'was'
p2610
aS'in'
p2611
aS'the'
p2612
aS'stern'
p2613
aaa(lp2614
g2511
a(lp2615
S'Sleeping'
p2616
aS'on'
p2617
ag57
aS'cushion'
p2618
aS'READ'
p2619
aaa(lp2620
g2511
a(lp2621
S'VOX'
p2622
aS'Hey'
p2623
aaa(lp2624
g2511
a(lp2625
S'Man'
p2626
aS'VOX'
p2627
aaa(lp2628
g2511
a(lp2629
S'READ'
p2630
aS'The'
p2631
aS'disciples'
p2632
aS'woke'
p2633
aS'him'
p2634
aS'and'
p2635
aS'said'
p2636
aS'to'
p2637
aS'him'
p2638
aaa(lp2639
g2511
a(lp2640
S'Q'
p2641
aS'teacher'
p2642
aaa(lp2643
g2511
a(lp2644
S'Dont'
p2645
aS'you'
p2646
aS'care'
p2647
aS'if'
p2648
aS'we'
p2649
aS'drown'
p2650
ag2641
aaa(lp2651
g2511
a(lp2652
S'He'
p2653
aS'got'
p2654
aS'up'
p2655
aaa(lp2656
g2511
a(lp2657
S'rebuked'
p2658
aS'the'
p2659
aS'wind'
p2660
aaa(lp2661
g2511
a(lp2662
S'and'
p2663
aS'said'
p2664
aS'to'
p2665
aS'the'
p2666
aS'waves'
p2667
aaa(lp2668
g2511
a(lp2669
S'Quiet'
p2670
aaa(lp2671
g2511
a(lp2672
S'Be'
p2673
aS'still'
p2674
aaa(lp2675
g2511
a(lp2676
S'Then'
p2677
aS'the'
p2678
aS'wind'
p2679
aS'died'
p2680
aS'down'
p2681
aaa(lp2682
g2511
a(lp2683
S'and'
p2684
aS'it'
p2685
aS'was'
p2686
aS'completely'
p2687
aS'calm'
p2688
aaa(lp2689
g2511
a(lp2690
S'He'
p2691
aS'said'
p2692
aS'to'
p2693
aS'his'
p2694
aS'disciples'
p2695
aaa(lp2696
g2511
a(lp2697
S'Why'
p2698
aS'are'
p2699
aS'you'
p2700
aS'so'
p2701
aS'afraid'
p2702
aaa(lp2703
g2511
a(lp2704
S'Do'
p2705
aS'you'
p2706
aS'still'
p2707
aS'have'
p2708
aS'no'
p2709
aS'faith'
p2710
aaa(lp2711
S'AUD'
p2712
a(lp2713
aa(lp2714
S'READ'
p2715
a(lp2716
S'They'
p2717
aS'were'
p2718
aS'terrified'
p2719
aaa(lp2720
g2715
a(lp2721
S'and'
p2722
aS'asked'
p2723
aS'each'
p2724
aS'other'
p2725
aaa(lp2726
g2715
a(lp2727
g2641
aS'Who'
p2728
aS'is'
p2729
aS'this'
p2730
ag2641
aaa(lp2731
g2715
a(lp2732
S'Even'
p2733
aS'the'
p2734
aS'wind'
p2735
aS'and'
p2736
aS'the'
p2737
aS'waves'
p2738
aaa(lp2739
g2715
a(lp2740
S'obey'
p2741
aS'him'
p2742
aS'READ'
p2743
aaa(lp2744
g2715
a(lp2745
S'Lets'
p2746
aS'go'
p2747
aS'on'
p2748
aaa(lp2749
g2715
a(lp2750
S'of'
p2751
aS'Geras'
p2752
aaa(lp2753
g2715
a(lp2754
S'uh'
p2755
aS'Gerasenes'
p2756
aaa(lp2757
g2715
a(lp2758
S'when'
p2759
aS'Jesus'
p2760
aS'got'
p2761
aS'out'
p2762
aS'of'
p2763
aS'the'
p2764
aS'boat'
p2765
aaa(lp2766
g2715
a(lp2767
g57
aS'man'
p2768
aS'with'
p2769
aS'an'
p2770
aS'evil'
p2771
aS'spirit'
p2772
aaa(lp2773
g2715
a(lp2774
S'came'
p2775
aS'from'
p2776
aS'the'
p2777
aS'tombs'
p2778
aS'to'
p2779
aS'meet'
p2780
aS'him'
p2781
aS'READ'
p2782
aaa(lp2783
g2715
a(lp2784
g109
aS'dont'
p2785
aS'think'
p2786
aS'he'
p2787
aS'walked'
p2788
aS'up'
p2789
aS'and'
p2790
aS'shook'
p2791
aS'his'
p2792
aS'hand'
p2793
aaa(lp2794
g2715
a(lp2795
S'were'
p2796
aS'gonna'
p2797
aS'see'
p2798
aS'that'
p2799
aS'in'
p2800
ag57
aS'second'
p2801
aaa(lp2802
S'WALT'
p2803
a(lp2804
S'READ'
p2805
aS'This'
p2806
aS'man'
p2807
aS'lived'
p2808
aS'in'
p2809
aS'the'
p2810
aS'tombs'
p2811
aaa(lp2812
g2803
a(lp2813
S'and'
p2814
aS'no'
p2815
aS'one'
p2816
aS'could'
p2817
aS'bind'
p2818
aS'him'
p2819
aS'anymore'
p2820
aaa(lp2821
g2803
a(lp2822
S'not'
p2823
aS'even'
p2824
aS'with'
p2825
ag57
aS'chain'
p2826
aaa(lp2827
S'AUD'
p2828
a(lp2829
aa(lp2830
S'WALT'
p2831
a(lp2832
S'For'
p2833
aS'he'
p2834
aS'had'
p2835
aS'often'
p2836
aS'been'
p2837
aS'chained'
p2838
aaa(lp2839
g2831
a(lp2840
S'hand'
p2841
aS'and'
p2842
aS'foot'
p2843
aaa(lp2844
g2831
a(lp2845
S'But'
p2846
aS'he'
p2847
aS'tore'
p2848
aS'the'
p2849
aS'chains'
p2850
aS'apart'
p2851
aaa(lp2852
g2831
a(lp2853
S'and'
p2854
aS'broke'
p2855
aS'the'
p2856
aS'irons'
p2857
aS'on'
p2858
aS'his'
p2859
aS'feet'
p2860
aaa(lp2861
g2831
a(lp2862
S'No'
p2863
aS'one'
p2864
aS'was'
p2865
aS'strong'
p2866
aS'enough'
p2867
aS'to'
p2868
aS'subdue'
p2869
aS'him'
p2870
aaa(lp2871
g2831
a(lp2872
S'Night'
p2873
aS'and'
p2874
aS'day'
p2875
aS'among'
p2876
aS'the'
p2877
aS'tombs'
p2878
aS'and'
p2879
aS'in'
p2880
aS'the'
p2881
aS'hills'
p2882
aaa(lp2883
g2831
a(lp2884
S'he'
p2885
aS'would'
p2886
aS'cry'
p2887
aS'out'
p2888
aS'and'
p2889
aS'cut'
p2890
aS'himself'
p2891
aaa(lp2892
g2831
a(lp2893
S'with'
p2894
aS'stones'
p2895
aaa(lp2896
g2831
a(lp2897
S'When'
p2898
aS'he'
p2899
aS'saw'
p2900
aS'Jesus'
p2901
aS'from'
p2902
ag57
aS'distance'
p2903
aaa(lp2904
g2831
a(lp2905
S'He'
p2906
aS'ran'
p2907
aS'and'
p2908
aS'fell'
p2909
aS'on'
p2910
aS'his'
p2911
aS'knees'
p2912
aS'in'
p2913
aS'front'
p2914
aS'of'
p2915
aS'him'
p2916
aaa(lp2917
g2831
a(lp2918
S'He'
p2919
aS'shouted'
p2920
aS'at'
p2921
aS'the'
p2922
aS'top'
p2923
aS'of'
p2924
aS'his'
p2925
aS'voice'
p2926
aaa(lp2927
g2831
a(lp2928
g724
aS'What'
p2929
aS'do'
p2930
aS'you'
p2931
aS'want'
p2932
aS'with'
p2933
aS'me'
p2934
aS'Jesus'
p2935
ag724
aaa(lp2936
g2831
a(lp2937
S'Son'
p2938
aS'of'
p2939
aS'the'
p2940
aS'Most'
p2941
aS'High'
p2942
aS'God'
p2943
aaa(lp2944
g2831
a(lp2945
g724
aS'Swear'
p2946
aS'to'
p2947
aS'God'
p2948
aS'that'
p2949
aS'you'
p2950
aS'wont'
p2951
aS'torture'
p2952
aS'me'
p2953
ag724
aaa(lp2954
g2831
a(lp2955
S'for'
p2956
aS'Jesus'
p2957
aS'had'
p2958
aS'said'
p2959
aS'to'
p2960
aS'him'
p2961
aaa(lp2962
g2831
a(lp2963
g2641
aS'Come'
p2964
aS'out'
p2965
aS'of'
p2966
aS'this'
p2967
aS'man'
p2968
aaa(lp2969
g2831
a(lp2970
S'you'
p2971
aS'evil'
p2972
aS'spirit'
p2973
ag2641
aaa(lp2974
g2831
a(lp2975
S'Then'
p2976
aS'Jesus'
p2977
aS'asked'
p2978
aS'him'
p2979
aaa(lp2980
g2831
a(lp2981
S'What'
p2982
aS'is'
p2983
aS'your'
p2984
aS'name'
p2985
aaa(lp2986
g2831
a(lp2987
g2641
aS'My'
p2988
aS'name'
p2989
aS'is'
p2990
aS'legion'
p2991
ag2641
aaa(lp2992
g2831
a(lp2993
S'he'
p2994
aS'replied'
p2995
aaa(lp2996
g2831
a(lp2997
g2641
aS'for'
p2998
aS'we'
p2999
aS'are'
p3000
aS'many'
p3001
ag2641
aaa(lp3002
g2831
a(lp3003
S'And'
p3004
aS'he'
p3005
aS'begged'
p3006
aS'Jesus'
p3007
aS'again'
p3008
aS'and'
p3009
aS'again'
p3010
aaa(lp3011
g2831
a(lp3012
S'not'
p3013
aS'to'
p3014
aS'send'
p3015
aS'them'
p3016
aS'out'
p3017
aS'into'
p3018
aS'the'
p3019
aS'area'
p3020
aaa(lp3021
g2831
a(lp3022
g2585
aS'large'
p3023
aS'herd'
p3024
aS'of'
p3025
aS'pigs'
p3026
aS'was'
p3027
aS'feeding'
p3028
aS'on'
p3029
aS'the'
p3030
aS'nearby'
p3031
aS'hillside'
p3032
aaa(lp3033
g2831
a(lp3034
S'The'
p3035
aS'demons'
p3036
aS'begged'
p3037
aS'Jesus'
p3038
aaa(lp3039
g2831
a(lp3040
g2641
aS'send'
p3041
aS'us'
p3042
aS'among'
p3043
aS'the'
p3044
aS'pigs'
p3045
aaa(lp3046
g2831
a(lp3047
S'allow'
p3048
aS'us'
p3049
aS'to'
p3050
aS'go'
p3051
aS'into'
p3052
aS'them'
p3053
ag2641
aaa(lp3054
g2831
a(lp3055
S'He'
p3056
aS'gave'
p3057
aS'them'
p3058
aS'permission'
p3059
aaa(lp3060
g2831
a(lp3061
S'and'
p3062
aS'the'
p3063
aS'evil'
p3064
aS'spirits'
p3065
aaa(lp3066
g2831
a(lp3067
S'came'
p3068
aS'out'
p3069
aS'and'
p3070
aS'went'
p3071
aS'into'
p3072
aS'the'
p3073
aS'pigs'
p3074
aaa(lp3075
g2831
a(lp3076
S'aa'
p3077
aS'The'
p3078
aS'herd'
p3079
aS'about'
p3080
aS'two'
p3081
aS'thousand'
p3082
aS'in'
p3083
aS'number'
p3084
aaa(lp3085
g2831
a(lp3086
S'rushed'
p3087
aS'down'
p3088
aS'the'
p3089
aS'steep'
p3090
aS'bank'
p3091
aS'into'
p3092
aS'the'
p3093
aS'lake'
p3094
aaa(lp3095
g2831
a(lp3096
S'and'
p3097
aS'were'
p3098
aS'drowned'
p3099
aaa(lp3100
g2831
a(lp3101
S'Those'
p3102
aS'tending'
p3103
aS'the'
p3104
aS'pigs'
p3105
aS'ran'
p3106
aS'off'
p3107
aaa(lp3108
g2831
a(lp3109
S'and'
p3110
aS'reported'
p3111
aS'this'
p3112
aS'in'
p3113
aS'the'
p3114
aS'town'
p3115
aaa(lp3116
g2831
a(lp3117
S'and'
p3118
aS'countryside'
p3119
aaa(lp3120
g2831
a(lp3121
S'And'
p3122
aS'the'
p3123
aS'people'
p3124
aS'went'
p3125
aS'out'
p3126
aS'to'
p3127
aS'see'
p3128
aS'what'
p3129
aS'had'
p3130
aS'happened'
p3131
aaa(lp3132
g2831
a(lp3133
S'When'
p3134
aS'they'
p3135
aS'came'
p3136
aS'to'
p3137
aS'Jesus'
p3138
aaa(lp3139
g2831
a(lp3140
S'They'
p3141
aS'saw'
p3142
aS'the'
p3143
aS'man'
p3144
aS'who'
p3145
aS'had'
p3146
aS'been'
p3147
aS'possessed'
p3148
aS'by'
p3149
aS'the'
p3150
aS'legion'
p3151
aS'of'
p3152
aS'demons'
p3153
aaa(lp3154
g2831
a(lp3155
S'Sitting'
p3156
aS'there'
p3157
aaa(lp3158
g2831
a(lp3159
S'dressed'
p3160
aS'in'
p3161
aS'his'
p3162
aS'right'
p3163
aS'mind'
p3164
aaa(lp3165
g2831
a(lp3166
S'And'
p3167
aS'they'
p3168
aS'were'
p3169
aS'afraid'
p3170
aaa(lp3171
g2831
a(lp3172
S'Those'
p3173
aS'who'
p3174
aS'had'
p3175
aS'seen'
p3176
aS'it'
p3177
aS'told'
p3178
aS'the'
p3179
aS'people'
p3180
aS'what'
p3181
aS'had'
p3182
aS'happened'
p3183
aaa(lp3184
g2831
a(lp3185
S'T'
p3186
aS'what'
p3187
aS'had'
p3188
aS'happened'
p3189
aS'to'
p3190
aS'the'
p3191
aS'demonpossessed'
p3192
aS'man'
p3193
aaa(lp3194
g2831
a(lp3195
S'and'
p3196
aS'he'
p3197
aS'told'
p3198
aS'about'
p3199
aS'the'
p3200
aS'pigs'
p3201
aaa(lp3202
g2831
a(lp3203
S'as'
p3204
aS'well'
p3205
aaa(lp3206
g2831
a(lp3207
S'Then'
p3208
aS'the'
p3209
aS'people'
p3210
aS'MRC'
p3211
aS'began'
p3212
aS'to'
p3213
aS'plead'
p3214
aS'with'
p3215
aS'Jesus'
p3216
aS'MRC'
p3217
aaa(lp3218
g2831
a(lp3219
S'to'
p3220
aS'leave'
p3221
aS'their'
p3222
aS'region'
p3223
aS'READ'
p3224
aaa(lp3225
g2831
a(lp3226
S'P'
p3227
aS'and'
p3228
aS'Im'
p3229
aS'gonna'
p3230
aS'stop'
p3231
aS'right'
p3232
aS'there'
p3233
ag3227
aaa(lp3234
g2831
a(lp3235
S'You'
p3236
aS'know'
p3237
aaa(lp3238
g2831
a(lp3239
S'as'
p3240
aS'we'
p3241
aS'look'
p3242
aS'at'
p3243
aS'this'
p3244
aS'we'
p3245
aS'see'
p3246
aS'that'
p3247
aaa(lp3248
g2831
a(lp3249
S'were'
p3250
aS'afraid'
p3251
aaa(lp3252
g2831
a(lp3253
S'They'
p3254
aS'were'
p3255
aS'terrified'
p3256
aaa(lp3257
g2831
a(lp3258
S'Of'
p3259
aS'what'
p3260
aS'had'
p3261
aS'happened'
p3262
aS'in'
p3263
aS'the'
p3264
aS'boat'
p3265
aaa(lp3266
g2831
a(lp3267
S'You'
p3268
aS'know'
p3269
aS'what'
p3270
aS'its'
p3271
aS'like'
p3272
aS'to'
p3273
aS'be'
p3274
aS'terrified'
p3275
aaa(lp3276
g2831
a(lp3277
S'Have'
p3278
aS'you'
p3279
aS'ever'
p3280
aS'been'
p3281
aS'terrified'
p3282
aaa(lp3283
S'AUD'
p3284
a(lp3285
aa(lp3286
S'MANY'
p3287
a(lp3288
aa(lp3289
S'WALT'
p3290
a(lp3291
g109
aS'mean'
p3292
ag64
aS'thats'
p3293
ag64
ag57
aS'pretty'
p3294
aS'scary'
p3295
aS'thing'
p3296
aaa(lp3297
g3290
a(lp3298
S'Isnt'
p3299
aS'it'
p3300
aaa(lp3301
S'MANY'
p3302
a(lp3303
aa(lp3304
S'WALT'
p3305
a(lp3306
S'Being'
p3307
aS'terrified'
p3308
aS'is'
p3309
ag57
aS'very'
p3310
aS'very'
p3311
aS'scary'
p3312
aS'word'
p3313
aaa(lp3314
g3305
a(lp3315
S'especially'
p3316
aS'if'
p3317
aS'youve'
p3318
aS'experienced'
p3319
aS'it'
p3320
aaa(lp3321
g3305
a(lp3322
S'Maybe'
p3323
aS'you'
p3324
aS'were'
p3325
aS'in'
p3326
ag57
aS'car'
p3327
aS'wreck'
p3328
aS'one'
p3329
aS'time'
p3330
aaa(lp3331
g3305
a(lp3332
g109
aS'was'
p3333
aS'in'
p3334
ag57
aS'car'
p3335
aS'wreck'
p3336
aS'coming'
p3337
aS'back'
p3338
aS'from'
p3339
aS'Indianapolis'
p3340
aS'one'
p3341
aS'time'
p3342
aaa(lp3343
g3305
a(lp3344
S'we'
p3345
aS'were'
p3346
aS'going'
p3347
aS'sixty'
p3348
aS'miles'
p3349
aS'an'
p3350
aS'hour'
p3351
aaa(lp3352
g3305
a(lp3353
S'and'
p3354
aS'were'
p3355
aS'going'
p3356
aS'down'
p3357
aS'the'
p3358
aS'freeway'
p3359
aaa(lp3360
g3305
a(lp3361
S'and'
p3362
aS'all'
p3363
aS'of'
p3364
ag57
aS'sudden'
p3365
aS'this'
p3366
aS'woman'
p3367
aS'pulls'
p3368
aS'out'
p3369
aS'of'
p3370
aS'the'
p3371
aS'ramp'
p3372
aaa(lp3373
g3305
a(lp3374
S'trailor'
p3375
aS'truck'
p3376
aS'hits'
p3377
aS'his'
p3378
aS'brakes'
p3379
aaa(lp3380
g3305
a(lp3381
S'he'
p3382
aS's'
p3383
aaa(lp3384
g3305
a(lp3385
S'hes'
p3386
aaa(lp3387
g3305
a(lp3388
S'hes'
p3389
aS'behind'
p3390
aS'us'
p3391
aaa(lp3392
g3305
a(lp3393
g109
aS'thought'
p3394
aS'hes'
p3395
aS'coming'
p3396
aS'through'
p3397
aS'us'
p3398
aaa(lp3399
g3305
a(lp3400
S'another'
p3401
aS'person'
p3402
aS'smashes'
p3403
aS'us'
p3404
aaa(lp3405
g3305
a(lp3406
S'were'
p3407
aS'spinning'
p3408
aS'around'
p3409
aS'the'
p3410
aS'highway'
p3411
aaa(lp3412
g3305
a(lp3413
S'glass'
p3414
aS'is'
p3415
aS'flying'
p3416
aS'everywhere'
p3417
aaa(lp3418
g3305
a(lp3419
S'and'
p3420
aS'Im'
p3421
aS'saying'
p3422
aS'Lord'
p3423
aS'take'
p3424
aS'me'
p3425
aS'quickly'
p3426
aaa(lp3427
g3305
a(lp3428
g109
aS'was'
p3429
aS'scared'
p3430
aS'to'
p3431
aS'death'
p3432
aaa(lp3433
g3305
a(lp3434
g109
aS'was'
p3435
aS'terrified'
p3436
aaa(lp3437
g3305
a(lp3438
S'We'
p3439
aS'ended'
p3440
aS'up'
p3441
aS'in'
p3442
aS'the'
p3443
aS'middle'
p3444
aS'of'
p3445
aS'the'
p3446
aS'median'
p3447
aaa(lp3448
g3305
a(lp3449
g803
aaa(lp3450
g3305
a(lp3451
S'and'
p3452
aaa(lp3453
g3305
a(lp3454
g109
aS'had'
p3455
aS'to'
p3456
aS'crawl'
p3457
aS'out'
p3458
aS'through'
p3459
ag57
aS'window'
p3460
aaa(lp3461
g3305
a(lp3462
S'to'
p3463
aS'get'
p3464
aS'out'
p3465
aS'of'
p3466
aS'the'
p3467
aS'car'
p3468
aaa(lp3469
g3305
a(lp3470
g109
aS'was'
p3471
aS'terrified'
p3472
aaa(lp3473
g3305
a(lp3474
g109
aS'know'
p3475
aS'that'
p3476
aS'feeling'
p3477
aaa(lp3478
g3305
a(lp3479
S'Thats'
p3480
aS'what'
p3481
aS'the'
p3482
aS'disciples'
p3483
aS'were'
p3484
aS'feeling'
p3485
aS'at'
p3486
aS'that'
p3487
aS'time'
p3488
aaa(lp3489
g3305
a(lp3490
S'they'
p3491
aS'were'
p3492
aS'terrified'
p3493
aaa(lp3494
g3305
a(lp3495
S'They'
p3496
aS'didnt'
p3497
aS'understand'
p3498
aaa(lp3499
g3305
a(lp3500
S'What'
p3501
aS'was'
p3502
aS'going'
p3503
aS'on'
p3504
aaa(lp3505
g3305
a(lp3506
S'And'
p3507
aS'then'
p3508
aS'we'
p3509
aS'see'
p3510
aS'the'
p3511
aS'demonpossessed'
p3512
aS'man'
p3513
aaa(lp3514
g3305
a(lp3515
S'He'
p3516
aS'was'
p3517
aS'um'
p3518
aaa(lp3519
g3305
a(lp3520
S'really'
p3521
aaa(lp3522
g3305
a(lp3523
S'think'
p3524
aS'about'
p3525
aS'how'
p3526
aS'possessed'
p3527
aS'he'
p3528
aS'really'
p3529
aS'was'
p3530
aaa(lp3531
g3305
a(lp3532
S'He'
p3533
aS'was'
p3534
aS'strong'
p3535
aS'enough'
p3536
aS'to'
p3537
aS'break'
p3538
aS'irons'
p3539
aaa(lp3540
S'AUD'
p3541
a(lp3542
S'Yep'
p3543
aaa(lp3544
S'WALT'
p3545
a(lp3546
S'on'
p3547
aS'his'
p3548
aS'wrists'
p3549
aaa(lp3550
g3545
a(lp3551
S'and'
p3552
aS'to'
p3553
aS'free'
p3554
aS'himself'
p3555
aS'from'
p3556
aS'the'
p3557
aS'shackles'
p3558
aaa(lp3559
g3545
a(lp3560
S'that'
p3561
aS'were'
p3562
aS'on'
p3563
aS'his'
p3564
aS'feet'
p3565
aaa(lp3566
g3545
a(lp3567
S'And'
p3568
aS'he'
p3569
aS'cried'
p3570
aS'out'
p3571
aS'in'
p3572
aS'the'
p3573
aS'evening'
p3574
aaa(lp3575
g3545
a(lp3576
S'with'
p3577
aS'stones'
p3578
aaa(lp3579
g3545
a(lp3580
g109
aS'mean'
p3581
aS'he'
p3582
aS'was'
p3583
ag57
aS'pretty'
p3584
aS'wild'
p3585
aS'guy'
p3586
aaa(lp3587
g3545
a(lp3588
S'wasnt'
p3589
aS'he'
p3590
aaa(lp3591
S'AUD'
p3592
a(lp3593
S'Yep'
p3594
aaa(lp3595
S'MANY'
p3596
a(lp3597
aa(lp3598
S'WALT'
p3599
a(lp3600
S'But'
p3601
aS'Jesus'
p3602
aS'took'
p3603
aS'good'
p3604
aS'care'
p3605
aS'of'
p3606
aS'him'
p3607
aaa(lp3608
g3599
a(lp3609
S'He'
p3610
aS'gave'
p3611
aS'him'
p3612
aS'back'
p3613
aS'his'
p3614
aS'sanity'
p3615
aaa(lp3616
S'AUD'
p3617
a(lp3618
S'Amen'
p3619
aaa(lp3620
S'WALT'
p3621
a(lp3622
S'He'
p3623
aS'gave'
p3624
aS'him'
p3625
aS'back'
p3626
aS'his'
p3627
aS'mind'
p3628
aaa(lp3629
S'AUD'
p3630
a(lp3631
S'Yep'
p3632
aaa(lp3633
S'WALT'
p3634
a(lp3635
S'And'
p3636
aS'the'
p3637
aS'people'
p3638
aS'came'
p3639
aS'out'
p3640
aS'to'
p3641
aS'see'
p3642
aS'what'
p3643
aS'had'
p3644
aS'happened'
p3645
aaa(lp3646
g3634
a(lp3647
S'cause'
p3648
aS'they'
p3649
aS'heard'
p3650
aS'about'
p3651
aS'the'
p3652
aS'pigs'
p3653
aaa(lp3654
S'WALT'
p3655
a(lp3656
S'And'
p3657
aS'they'
p3658
aS'came'
p3659
aS'out'
p3660
aS'it'
p3661
aS'says'
p3662
aaa(lp3663
g3655
a(lp3664
S'they'
p3665
aS'were'
p3666
aS'afraid'
p3667
aS'too'
p3668
aaa(lp3669
g3655
a(lp3670
S'They'
p3671
aS'were'
p3672
aS'afraid'
p3673
aaa(lp3674
g3655
a(lp3675
S'Just'
p3676
aS'like'
p3677
aS'the'
p3678
aS'disciples'
p3679
aS'were'
p3680
aS'afraid'
p3681
aaa(lp3682
g3655
a(lp3683
S'They'
p3684
aS'were'
p3685
aS'afraid'
p3686
aaa(lp3687
g3655
a(lp3688
S'and'
p3689
aS'they'
p3690
aS'asked'
p3691
aS'Jesus'
p3692
aaa(lp3693
g3655
a(lp3694
S'to'
p3695
aS'leave'
p3696
aaa(lp3697
g3655
a(lp3698
S'the'
p3699
aS'region'
p3700
aaa(lp3701
g3655
a(lp3702
S'You'
p3703
aS'know'
p3704
aS'its'
p3705
aS'amazing'
p3706
aS'but'
p3707
aaa(lp3708
g3655
a(lp3709
S'that'
p3710
aS'fear'
p3711
aaa(lp3712
g3655
a(lp3713
S'because'
p3714
aS'they'
p3715
aS'didnt'
p3716
aS'understand'
p3717
aaa(lp3718
g3655
a(lp3719
S'And'
p3720
aS'they'
p3721
aS'wanted'
p3722
aS'to'
p3723
aS'control'
p3724
aaa(lp3725
g3655
a(lp3726
S'the'
p3727
aS'situation'
p3728
aaa(lp3729
g3655
a(lp3730
S'You'
p3731
aS'know'
p3732
aS'fear'
p3733
aS'is'
p3734
aS'o'
p3735
aS'crippling'
p3736
aaa(lp3737
S'AUD'
p3738
a(lp3739
S'XX'
p3740
aaa(lp3741
S'WALT'
p3742
a(lp3743
g109
aS'mean'
p3744
aS'it'
p3745
aS'just'
p3746
aS'knocks'
p3747
aS'on'
p3748
aS'our'
p3749
aS'door'
p3750
aaa(lp3751
g3742
a(lp3752
S'every'
p3753
aS'single'
p3754
aS'day'
p3755
aaa(lp3756
g3742
a(lp3757
S'Every'
p3758
aS'single'
p3759
aS'day'
p3760
aS'we'
p3761
aS'get'
p3762
aS'up'
p3763
aaa(lp3764
g3742
a(lp3765
S'it'
p3766
aS'knocks'
p3767
aS'on'
p3768
aS'our'
p3769
aS'door'
p3770
aaa(lp3771
S'AUD'
p3772
a(lp3773
S'Amen'
p3774
aaa(lp3775
S'WALT'
p3776
a(lp3777
S'We'
p3778
aS'all'
p3779
aS'have'
p3780
aS'different'
p3781
aS'fears'
p3782
aaa(lp3783
g3776
a(lp3784
S'pulls'
p3785
aS'us'
p3786
aS'in'
p3787
aaa(lp3788
g3776
a(lp3789
g64
aS'it'
p3790
ag64
aS'entraps'
p3791
aS'us'
p3792
aaa(lp3793
g3776
a(lp3794
S'from'
p3795
aS'moving'
p3796
aaa(lp3797
g3776
a(lp3798
S'We'
p3799
aS'become'
p3800
aS'immobile'
p3801
aaa(lp3802
g3776
a(lp3803
S'And'
p3804
aS'that'
p3805
aS'truly'
p3806
aS'is'
p3807
aaa(lp3808
g3776
a(lp3809
S'what'
p3810
aS'was'
p3811
aS'happening'
p3812
aaa(lp3813
g3776
a(lp3814
S'to'
p3815
aS'the'
p3816
aS'people'
p3817
aaa(lp3818
g3776
a(lp3819
S'Their'
p3820
aS'response'
p3821
aS'was'
p3822
aaa(lp3823
g3776
a(lp3824
g2641
aS'no'
p3825
aS'thi'
p3826
aaa(lp3827
g3776
a(lp3828
S'this'
p3829
aS'is'
p3830
aS'incredible'
p3831
aaa(lp3832
g3776
a(lp3833
S'This'
p3834
aS'is'
p3835
aS'the'
p3836
aS'son'
p3837
aS'of'
p3838
aS'God'
p3839
aaa(lp3840
g3776
a(lp3841
S'Look'
p3842
aS'at'
p3843
aS'the'
p3844
aS'great'
p3845
aS'miracle'
p3846
aS'that'
p3847
aS'hes'
p3848
aS'performed'
p3849
aaa(lp3850
g3776
a(lp3851
S'Hes'
p3852
aS'given'
p3853
aS'this'
p3854
aS'man'
p3855
aS'peace'
p3856
aaa(lp3857
g3776
a(lp3858
S'Hes'
p3859
aS'given'
p3860
aS'this'
p3861
aS'man'
p3862
aS'sanity'
p3863
aaa(lp3864
g3776
a(lp3865
S'Hes'
p3866
aS'given'
p3867
aS'this'
p3868
aS'man'
p3869
aS'life'
p3870
aS'again'
p3871
aaa(lp3872
g3776
a(lp3873
S'And'
p3874
aS'were'
p3875
aS'grateful'
p3876
aS'to'
p3877
aS'you'
p3878
aS'Jesus'
p3879
aaa(lp3880
g3776
a(lp3881
S'Were'
p3882
aS'happy'
p3883
aS'Jesus'
p3884
aaa(lp3885
g3776
a(lp3886
S'Were'
p3887
aS'excited'
p3888
aS'about'
p3889
aS'what'
p3890
aS'youre'
p3891
aS'doing'
p3892
aS'here'
p3893
aaa(lp3894
g3776
a(lp3895
S'SHOUT'
p3896
aS'please'
p3897
aS'stay'
p3898
aS'with'
p3899
aS'us'
p3900
aaa(lp3901
g3776
a(lp3902
S'forever'
p3903
aaa(lp3904
g3776
a(lp3905
S'well'
p3906
aS'feed'
p3907
aS'you'
p3908
aaa(lp3909
g3776
a(lp3910
S'well'
p3911
aS'take'
p3912
aS'care'
p3913
aS'of'
p3914
aS'you'
p3915
aaa(lp3916
g3776
a(lp3917
S'Well'
p3918
aS'become'
p3919
aS'your'
p3920
aS'friends'
p3921
aaa(lp3922
g3776
a(lp3923
S'Well'
p3924
aS'sit'
p3925
aS'at'
p3926
aS'your'
p3927
aS'feet'
p3928
aaa(lp3929
g3776
a(lp3930
S'Well'
p3931
aS'pray'
p3932
aS'with'
p3933
aS'you'
p3934
aS'well'
p3935
aS'learn'
p3936
aS'from'
p3937
aS'you'
p3938
aS'SHOUTQ'
p3939
aaa(lp3940
g3776
a(lp3941
S'wrong'
p3942
aaa(lp3943
g3776
a(lp3944
g2641
aS'Jesus'
p3945
aaa(lp3946
g3776
a(lp3947
S'you'
p3948
aS'just'
p3949
aS'need'
p3950
aS'to'
p3951
aS'leave'
p3952
aS'our'
p3953
aS'region'
p3954
ag2641
aaa(lp3955
g3776
a(lp3956
S'Cause'
p3957
aS'they'
p3958
aS'were'
p3959
aS'afraid'
p3960
aaa(lp3961
S'AUD'
p3962
a(lp3963
S'Mhm'
p3964
aaa(lp3965
S'WALT'
p3966
a(lp3967
S'Because'
p3968
aS'they'
p3969
aS'MRC'
p3970
aS'didnt'
p3971
aS'understand'
p3972
aS'MRC'
p3973
aaa(lp3974
g3966
a(lp3975
S'And'
p3976
aS'they'
p3977
aS'were'
p3978
aS'no'
p3979
aS'longer'
p3980
aS'in'
p3981
aS'control'
p3982
aaa(lp3983
g3966
a(lp3984
S'But'
p3985
aS'Jesus'
p3986
aaa(lp3987
g3966
a(lp3988
S'was'
p3989
aS'in'
p3990
aS'control'
p3991
aaa(lp3992
g3966
a(lp3993
S'They'
p3994
aS'realized'
p3995
aaa(lp3996
g3966
a(lp3997
S'that'
p3998
aS'what'
p3999
aS'Jesus'
p4000
aS'had'
p4001
aS'done'
p4002
aaa(lp4003
g3966
a(lp4004
S'no'
p4005
aS'other'
p4006
aS'man'
p4007
aaa(lp4008
g3966
a(lp4009
S'could'
p4010
aS'possibly'
p4011
aS'do'
p4012
aaa(lp4013
g3966
a(lp4014
S'That'
p4015
aS'there'
p4016
aS'was'
p4017
aS'something'
p4018
aS'different'
p4019
aS'about'
p4020
aS'Jesus'
p4021
aaa(lp4022
S'AUD'
p4023
a(lp4024
S'Thats'
p4025
aS'right'
p4026
aaa(lp4027
S'WALT'
p4028
a(lp4029
S'But'
p4030
aS'their'
p4031
aS'fear'
p4032
aS'kept'
p4033
aS'them'
p4034
aS'from'
p4035
aS'finding'
p4036
aS'out'
p4037
aS'exactly'
p4038
aS'who'
p4039
aS'Jesus'
p4040
aS'was'
p4041
aaa(lp4042
g4028
a(lp4043
S'exactly'
p4044
aS'who'
p4045
aS'Jesus'
p4046
aS'is'
p4047
aaa(lp4048
g4028
a(lp4049
S'relationship'
p4050
aS'with'
p4051
aS'God'
p4052
aaa(lp4053
g4028
a(lp4054
S'relationship'
p4055
aS'with'
p4056
aS'God'
p4057
aaa(lp4058
S'AUD'
p4059
a(lp4060
aa(lp4061
S'WALT'
p4062
a(lp4063
S'More'
p4064
aS'than'
p4065
aS'just'
p4066
aS'going'
p4067
aS'to'
p4068
aS'church'
p4069
aS'on'
p4070
aS'Sunday'
p4071
aaa(lp4072
g4062
a(lp4073
S'going'
p4074
aS'to'
p4075
ag57
aS'midweek'
p4076
aS'service'
p4077
aaa(lp4078
g4062
a(lp4079
S'or'
p4080
aaa(lp4081
g4062
a(lp4082
S'even'
p4083
aS'going'
p4084
aS'to'
p4085
aS'Bible'
p4086
aS'talks'
p4087
aaa(lp4088
g4062
a(lp4089
S'Or'
p4090
aS'group'
p4091
aS'discussions'
p4092
aaa(lp4093
g4062
a(lp4094
S'Or'
p4095
aS'oneonone'
p4096
aS'study'
p4097
aaa(lp4098
g4062
a(lp4099
S'relationship'
p4100
aS'with'
p4101
aS'God'
p4102
aaa(lp4103
S'AUD'
p4104
a(lp4105
S'XX'
p4106
aaa(lp4107
S'WALT'
p4108
a(lp4109
S'Does'
p4110
aS'your'
p4111
aS'fear'
p4112
aS'keep'
p4113
aS'you'
p4114
aS'from'
p4115
aaa(lp4116
g4108
a(lp4117
S'deep'
p4118
aS'personal'
p4119
aS'relationships'
p4120
aS'with'
p4121
aS'one'
p4122
aS'another'
p4123
aaa(lp4124
S'MANY'
p4125
a(lp4126
aa(lp4127
S'WALT'
p4128
a(lp4129
S'You'
p4130
aS'know'
p4131
aS'the'
p4132
aS'world'
p4133
aS'is'
p4134
aS'an'
p4135
aS'interesting'
p4136
aS'place'
p4137
aaa(lp4138
g4128
a(lp4139
S'We'
p4140
aS'all'
p4141
aS'crave'
p4142
aS'that'
p4143
aaa(lp4144
g4128
a(lp4145
S'Dont'
p4146
aS'we'
p4147
aaa(lp4148
g4128
a(lp4149
S'as'
p4150
aS'human'
p4151
aS'beings'
p4152
aaa(lp4153
g4128
a(lp4154
g57
aS'personal'
p4155
aS'relationship'
p4156
aaa(lp4157
g4128
a(lp4158
S'were'
p4159
aS'looking'
p4160
aS'for'
p4161
aS'personal'
p4162
aS'relationships'
p4163
aaa(lp4164
g4128
a(lp4165
S'were'
p4166
aS'looking'
p4167
aS'for'
p4168
aS'friendship'
p4169
aaa(lp4170
g4128
a(lp4171
S'Arent'
p4172
aS'we'
p4173
aaa(lp4174
S'MANY'
p4175
a(lp4176
aa(lp4177
S'WALT'
p4178
a(lp4179
S'You'
p4180
aS'know'
p4181
aaa(lp4182
g4178
a(lp4183
S'C'
p4184
aS'uh'
p4185
aaa(lp4186
g4178
a(lp4187
S'Craig'
p4188
aS'was'
p4189
aS'uh'
p4190
aaa(lp4191
g4178
a(lp4192
S'uh'
p4193
aS'Greg'
p4194
aS'was'
p4195
aaa(lp4196
g4178
a(lp4197
S'PAR'
p4198
ag109
aS'always'
p4199
aS'get'
p4200
aS'those'
p4201
aS'two'
p4202
aS'mixed'
p4203
aS'up'
p4204
aaa(lp4205
g4178
a(lp4206
S'Greg'
p4207
aS'and'
p4208
aS'Craig'
p4209
aaa(lp4210
g4178
a(lp4211
S'You'
p4212
aS'look'
p4213
aS'so'
p4214
aS'much'
p4215
aS'arike'
p4216
aS'like'
p4217
aS'yeah'
p4218
aS'PAR'
p4219
aaa(lp4220
S'MANY'
p4221
a(lp4222
aa(lp4223
S'WALT'
p4224
a(lp4225
S'Greg'
p4226
aS'was'
p4227
aS'sharing'
p4228
aS'something'
p4229
aS'with'
p4230
aS'me'
p4231
aaa(lp4232
g4224
a(lp4233
S'that'
p4234
aaa(lp4235
g4224
a(lp4236
S'last'
p4237
aS'Sunday'
p4238
aaa(lp4239
g4224
a(lp4240
S'when'
p4241
aS'we'
p4242
aS'were'
p4243
aS'in'
p4244
aS'the'
p4245
aS'middle'
p4246
aS'of'
p4247
aS'the'
p4248
aS'snow'
p4249
aS'storm'
p4250
aaa(lp4251
g4224
a(lp4252
S'he'
p4253
aS'decided'
p4254
aaa(lp4255
g4224
a(lp4256
S'and'
p4257
aS'the'
p4258
ag674
aS'and'
p4259
aS'and'
p4260
aS'the'
p4261
aS'and'
p4262
aS'the'
p4263
aS'brothers'
p4264
aS'in'
p4265
aS'that'
p4266
aS'apartment'
p4267
aaa(lp4268
g4224
a(lp4269
S'they'
p4270
aS'were'
p4271
aS'gonna'
p4272
aS'go'
p4273
aS'out'
p4274
aS'and'
p4275
aS'knock'
p4276
aS'on'
p4277
aS'all'
p4278
aS'the'
p4279
aS'doors'
p4280
aaa(lp4281
g4224
a(lp4282
S'in'
p4283
aS'their'
p4284
aS'apartment'
p4285
aaa(lp4286
g4224
a(lp4287
S'invite'
p4288
aS'people'
p4289
aS'to'
p4290
aS'come'
p4291
aS'to'
p4292
aS'the'
p4293
aS'worship'
p4294
aS'service'
p4295
aaa(lp4296
g4224
a(lp4297
S'cause'
p4298
aS'no'
p4299
aS'one'
p4300
aS'could'
p4301
aS'get'
p4302
aS'out'
p4303
aaa(lp4304
g4224
a(lp4305
S'they'
p4306
aS'were'
p4307
aS'all'
p4308
aS'snowed'
p4309
aS'in'
p4310
aaa(lp4311
g4224
a(lp4312
S'So'
p4313
aS'he'
p4314
aS'went'
p4315
aS'around'
p4316
aS'the'
p4317
aS'building'
p4318
aaa(lp4319
g4224
a(lp4320
S'knocking'
p4321
aS'on'
p4322
aS'doors'
p4323
aaa(lp4324
g4224
a(lp4325
S'which'
p4326
aS'f'
p4327
aS'in'
p4328
aS'itself'
p4329
aS'is'
p4330
aS'crazy'
p4331
aaa(lp4332
g4224
a(lp4333
S'Right'
p4334
aaa(lp4335
S'MANY'
p4336
a(lp4337
aa(lp4338
S'WALT'
p4339
a(lp4340
S'Yeah'
p4341
aaa(lp4342
g4339
a(lp4343
S'it'
p4344
aS'is'
p4345
aaa(lp4346
g4339
a(lp4347
S'Its'
p4348
aS'crazy'
p4349
aaa(lp4350
g4339
a(lp4351
g109
aS'mean'
p4352
aaa(lp4353
g4339
a(lp4354
S'you'
p4355
aS'know'
p4356
aaa(lp4357
g4339
a(lp4358
S'How'
p4359
aS'many'
p4360
aS'times'
p4361
aS'have'
p4362
aS'you'
p4363
aS'done'
p4364
aS'that'
p4365
aS'in'
p4366
aS'your'
p4367
aS'life'
p4368
aaa(lp4369
g4339
a(lp4370
S'm_its'
p4371
aS'crazy'
p4372
aaa(lp4373
g4339
a(lp4374
S'Its'
p4375
aS'out'
p4376
aS'of'
p4377
aS'the'
p4378
aaa(lp4379
g4339
a(lp4380
S'out'
p4381
aS'of'
p4382
aS'the'
p4383
aS'ordinary'
p4384
aaa(lp4385
g4339
a(lp4386
S'Maybe'
p4387
ag57
aS'little'
p4388
aS'bit'
p4389
aS'insane'
p4390
aaa(lp4391
g4339
a(lp4392
S'But'
p4393
aS'anyway'
p4394
aaa(lp4395
g4339
a(lp4396
S'they'
p4397
aS'went'
p4398
aS'around'
p4399
aaa(lp4400
g4339
a(lp4401
S'knocking'
p4402
aS'on'
p4403
aS'doors'
p4404
aaa(lp4405
g4339
a(lp4406
S'inviting'
p4407
aS'people'
p4408
aS'to'
p4409
aS'come'
p4410
aS'down'
p4411
aaa(lp4412
g4339
a(lp4413
S'he'
p4414
aS'said'
p4415
aS'it'
p4416
aS'was'
p4417
aS'amazing'
p4418
aaa(lp4419
g4339
a(lp4420
g109
aS'could'
p4421
aS'hear'
p4422
aS'people'
p4423
aS'there'
p4424
aaa(lp4425
g4339
a(lp4426
S'but'
p4427
aS'they'
p4428
aS'wouldnt'
p4429
aS'come'
p4430
aS'to'
p4431
aS'the'
p4432
aS'door'
p4433
aaa(lp4434
S'AUD'
p4435
a(lp4436
aa(lp4437
S'WALT'
p4438
a(lp4439
S'And'
p4440
aS'then'
p4441
aS'there'
p4442
aS'were'
p4443
aS'others'
p4444
aS'he'
p4445
aS'knocked'
p4446
aS'on'
p4447
aaa(lp4448
g4438
a(lp4449
S'the'
p4450
aS'people'
p4451
aS'would'
p4452
aS'come'
p4453
aS'to'
p4454
aS'the'
p4455
aS'door'
p4456
aaa(lp4457
g4438
a(lp4458
S'they'
p4459
aS'would'
p4460
aS'talk'
p4461
aaa(lp4462
g4438
a(lp4463
S'but'
p4464
aS'they'
p4465
aS'wouldnt'
p4466
aS'open'
p4467
aS'the'
p4468
aS'door'
p4469
aaa(lp4470
g4438
a(lp4471
S'Then'
p4472
aS'there'
p4473
aS'were'
p4474
aS'others'
p4475
aaa(lp4476
g4438
a(lp4477
S'who'
p4478
aS'opened'
p4479
aS'the'
p4480
aS'door'
p4481
aS'just'
p4482
ag57
aS'little'
p4483
aS'bit'
p4484
aaa(lp4485
S'AUD'
p4486
a(lp4487
aa(lp4488
S'WALT'
p4489
a(lp4490
S'VOX'
p4491
aS'Just'
p4492
aS't'
p4493
aaa(lp4494
g4489
a(lp4495
S'to'
p4496
aS'see'
p4497
aS'who'
p4498
aS'was'
p4499
aS'there'
p4500
aaa(lp4501
g4489
a(lp4502
S'you'
p4503
aS'know'
p4504
aS'VOX'
p4505
aaa(lp4506
S'MANY'
p4507
a(lp4508
aa(lp4509
S'WALT'
p4510
a(lp4511
S'Or'
p4512
aS'you'
p4513
aS'look'
p4514
aS'out'
p4515
aS'that'
p4516
aS'peep'
p4517
aS'hole'
p4518
aaa(lp4519
g4510
a(lp4520
S'VOX'
p4521
aS'let'
p4522
aS'me'
p4523
aS'just'
p4524
aS'see'
p4525
aS'VOX'
p4526
aaa(lp4527
g4510
a(lp4528
S'the'
p4529
aS'holes'
p4530
aS'about'
p4531
aS'this'
p4532
aS'big'
p4533
aaa(lp4534
S'AUD'
p4535
a(lp4536
aa(lp4537
S'WALT'
p4538
a(lp4539
S'VOX'
p4540
aS'and'
p4541
aS'you'
p4542
aS'stick'
p4543
aS'your'
p4544
aaa(lp4545
g4538
a(lp4546
S'you'
p4547
aS'know'
p4548
aaa(lp4549
g4538
a(lp4550
S'youre'
p4551
aS'looking'
p4552
aS'like'
p4553
aS'this'
p4554
aS'VOX'
p4555
aaa(lp4556
S'MANY'
p4557
a(lp4558
aa(lp4559
S'WALT'
p4560
a(lp4561
S'Right'
p4562
aaa(lp4563
S'AUD'
p4564
a(lp4565
S'Oh'
p4566
aS'Lord'
p4567
aaa(lp4568
S'WALT'
p4569
a(lp4570
S'And'
p4571
aS'then'
p4572
aS'there'
p4573
aS'were'
p4574
aS'others'
p4575
aaa(lp4576
g4569
a(lp4577
S'who'
p4578
aS'opened'
p4579
aS'their'
p4580
aS'door'
p4581
aaa(lp4582
g4569
a(lp4583
S'and'
p4584
aS'went'
p4585
aS'to'
p4586
aS'the'
p4587
aS'service'
p4588
aaa(lp4589
g4569
a(lp4590
S'and'
p4591
aS'it'
p4592
aS'changed'
p4593
aS'their'
p4594
aS'lives'
p4595
aaa(lp4596
S'MANY'
p4597
a(lp4598
S'Amen'
p4599
aaa(lp4600
S'WALT'
p4601
a(lp4602
S'But'
p4603
aS'fear'
p4604
aaa(lp4605
g4601
a(lp4606
S'keeps'
p4607
aS'us'
p4608
aS'from'
p4609
aS'those'
p4610
aS'personal'
p4611
aS'relationships'
p4612
aaa(lp4613
g4601
a(lp4614
S'with'
p4615
aS'one'
p4616
aS'another'
p4617
aaa(lp4618
g4601
a(lp4619
S'Were'
p4620
aS'so'
p4621
aS'concerned'
p4622
aS'about'
p4623
aaa(lp4624
g4601
a(lp4625
S'what'
p4626
aS'everybody'
p4627
aS'else'
p4628
aS'thinks'
p4629
aaa(lp4630
S'AUD'
p4631
a(lp4632
S'Yep'
p4633
aaa(lp4634
S'WALT'
p4635
a(lp4636
S'about'
p4637
aS'us'
p4638
aaa(lp4639
S'AUD'
p4640
a(lp4641
S'Thats'
p4642
aS'right'
p4643
aaa(lp4644
S'MANY'
p4645
a(lp4646
aa(lp4647
S'WALT'
p4648
a(lp4649
S'Doesnt'
p4650
aS'that'
p4651
aS'cripple'
p4652
aS'you'
p4653
aaa(lp4654
S'MANY'
p4655
a(lp4656
S'Yeah'
p4657
aaa(lp4658
S'WALT'
p4659
a(lp4660
S'Whats'
p4661
aS'someone'
p4662
aS'gonna'
p4663
aS'think'
p4664
aaa(lp4665
g4659
a(lp4666
S'if'
p4667
aS'they'
p4668
aS'find'
p4669
aS'out'
p4670
aS'Im'
p4671
ag57
aS'Christian'
p4672
aaa(lp4673
g4659
a(lp4674
S'What'
p4675
aS'is'
p4676
aS'someone'
p4677
aS'gonna'
p4678
aS'think'
p4679
aaa(lp4680
g4659
a(lp4681
S'when'
p4682
ag109
aS'tell'
p4683
aS'em'
p4684
aS'Im'
p4685
ag57
aS'disciple'
p4686
aaa(lp4687
g4659
a(lp4688
S'That'
p4689
ag109
aS'dont'
p4690
aS'do'
p4691
aS'these'
p4692
aS'things'
p4693
aS'anymore'
p4694
aaa(lp4695
g4659
a(lp4696
S'Jeez'
p4697
aaa(lp4698
g4659
a(lp4699
S'what'
p4700
aS'are'
p4701
aS'they'
p4702
aS'gonna'
p4703
aS'think'
p4704
aaa(lp4705
g4659
a(lp4706
S'if'
p4707
ag109
aS'invite'
p4708
aS'them'
p4709
aaa(lp4710
g4659
a(lp4711
S'to'
p4712
aS'learn'
p4713
aS'about'
p4714
aS'Jesus'
p4715
aaa(lp4716
g4659
a(lp4717
S'And'
p4718
aS'to'
p4719
aS'study'
p4720
aS'the'
p4721
aS'Bible'
p4722
aaa(lp4723
g4659
a(lp4724
S'See'
p4725
aS'were'
p4726
aS'so'
p4727
aS'concerned'
p4728
aaa(lp4729
g4659
a(lp4730
S'were'
p4731
aS'afraid'
p4732
aaa(lp4733
g4659
a(lp4734
S'were'
p4735
aS'fearful'
p4736
aaa(lp4737
g4659
a(lp4738
S'and'
p4739
aS'that'
p4740
aS'fear'
p4741
aS'robs'
p4742
aS'us'
p4743
aaa(lp4744
g4659
a(lp4745
S'of'
p4746
aS'that'
p4747
aS'deep'
p4748
aS'personal'
p4749
aS'relationship'
p4750
aS'with'
p4751
aS'God'
p4752
aaa(lp4753
g4659
a(lp4754
S'and'
p4755
aS'that'
p4756
aS'deep'
p4757
aS'personal'
p4758
aS'relationship'
p4759
aS'with'
p4760
aS'one'
p4761
aS'another'
p4762
aaa(lp4763
S'AUD'
p4764
a(lp4765
aa(lp4766
S'WALT'
p4767
a(lp4768
S'We'
p4769
aS'all'
p4770
aS'experience'
p4771
aS'it'
p4772
aaa(lp4773
g4767
a(lp4774
S'It'
p4775
aS'keeps'
p4776
aS'us'
p4777
aaa(lp4778
g4767
a(lp4779
S'fear'
p4780
aS'keeps'
p4781
aS'us'
p4782
aS'from'
p4783
aS'changing'
p4784
aS'our'
p4785
aS'lives'
p4786
aaa(lp4787
S'MANY'
p4788
a(lp4789
aa(lp4790
S'AUD'
p4791
a(lp4792
S'Preach'
p4793
aS'it'
p4794
aS'Walter'
p4795
aaa(lp4796
S'WALT'
p4797
a(lp4798
S'Fear'
p4799
aS'keeps'
p4800
aS'us'
p4801
aS'from'
p4802
aS'changing'
p4803
aS'the'
p4804
aS'world'
p4805
aaa(lp4806
S'MANY'
p4807
a(lp4808
S'_AGREEMENT'
p4809
aaa(lp4810
S'WALT'
p4811
a(lp4812
aa(lp4813
g4811
a(lp4814
S'needed'
p4815
aS'to'
p4816
aS'overcome'
p4817
aS'their'
p4818
aS'fears'
p4819
aaa(lp4820
g4811
a(lp4821
S'In'
p4822
aS'order'
p4823
aS'that'
p4824
aS'they'
p4825
aS'might'
p4826
aS'have'
p4827
aS'that'
p4828
aS'radical'
p4829
aS'relationship'
p4830
aS'with'
p4831
aS'God'
p4832
aaa(lp4833
g4811
a(lp4834
S'The'
p4835
aS'disciples'
p4836
aS'needed'
p4837
aS'to'
p4838
aS'overcome'
p4839
aS'their'
p4840
aS'fears'
p4841
aaa(lp4842
g4811
a(lp4843
S'in'
p4844
aS'order'
p4845
aS'to'
p4846
aS'have'
p4847
ag57
aS'deep'
p4848
aS'personal'
p4849
aS'relationship'
p4850
aS'with'
p4851
aS'one'
p4852
aS'another'
p4853
aaa(lp4854
g4811
a(lp4855
S'The'
p4856
aS'disciples'
p4857
aaa(lp4858
g4811
a(lp4859
S'needed'
p4860
aS'to'
p4861
aS'overcome'
p4862
aaa(lp4863
g4811
a(lp4864
S'their'
p4865
aS'fears'
p4866
aaa(lp4867
g4811
a(lp4868
S'in'
p4869
aS'order'
p4870
aS'to'
p4871
aaa(lp4872
g4811
a(lp4873
S'change'
p4874
aS'their'
p4875
aS'lives'
p4876
aaa(lp4877
g4811
a(lp4878
S'The'
p4879
aS'disciples'
p4880
aaa(lp4881
g4811
a(lp4882
S'needed'
p4883
aS'to'
p4884
aS'overcome'
p4885
aS'their'
p4886
aS'fears'
p4887
aaa(lp4888
g4811
a(lp4889
S'in'
p4890
aS'order'
p4891
aS'to'
p4892
aS'change'
p4893
aS'the'
p4894
aS'world'
p4895
aaa(lp4896
S'AUD'
p4897
a(lp4898
S'Thats'
p4899
aS'right'
p4900
aaa(lp4901
S'WALT'
p4902
a(lp4903
S'And'
p4904
aS'if'
p4905
aS'we'
p4906
aS'go'
p4907
aS'back'
p4908
aS'and'
p4909
aS'we'
p4910
aS'examine'
p4911
aS'the'
p4912
aS'Gospels'
p4913
aaa(lp4914
S'AUD'
p4915
a(lp4916
S'Amen'
p4917
aaa(lp4918
S'WALT'
p4919
a(lp4920
S'we'
p4921
aS'see'
p4922
aaa(lp4923
g4919
a(lp4924
S'very'
p4925
aS'clearly'
p4926
aaa(lp4927
g4919
a(lp4928
S'that'
p4929
aS'all'
p4930
aS'the'
p4931
aS'time'
p4932
aS'that'
p4933
aS'Jesus'
p4934
aS'spent'
p4935
aS'with'
p4936
aS'them'
p4937
aaa(lp4938
g4919
a(lp4939
S'they'
p4940
aS'were'
p4941
aS'afraid'
p4942
aaa(lp4943
g4919
a(lp4944
S'Peter'
p4945
aS'was'
p4946
aS'afraid'
p4947
aaa(lp4948
g4919
a(lp4949
S'Thomas'
p4950
aS'was'
p4951
aS'afraid'
p4952
aaa(lp4953
g4919
a(lp4954
S'They'
p4955
aS'were'
p4956
aS'many'
p4957
aS'many'
p4958
aS'times'
p4959
aS'afraid'
p4960
aaa(lp4961
g4919
a(lp4962
S'But'
p4963
aS'they'
p4964
aaa(lp4965
g4919
a(lp4966
S'they'
p4967
aS'understood'
p4968
aaa(lp4969
g4919
a(lp4970
S'the'
p4971
aS'only'
p4972
aS'way'
p4973
aS'they'
p4974
aS'would'
p4975
aS'overcome'
p4976
aS'their'
p4977
aS'fear'
p4978
aaa(lp4979
g4919
a(lp4980
S'would'
p4981
aS'be'
p4982
aaa(lp4983
g4919
a(lp4984
S'through'
p4985
aS'Jesus'
p4986
aS'Christ'
p4987
aaa(lp4988
S'AUD'
p4989
a(lp4990
aa(lp4991
S'WALT'
p4992
a(lp4993
S'And'
p4994
aS'his'
p4995
aS'example'
p4996
aaa(lp4997
g4992
a(lp4998
S'Because'
p4999
aS'the'
p5000
aS'Lord'
p5001
aS'had'
p5002
aS'many'
p5003
aS'challenging'
p5004
aS'times'
p5005
aaa(lp5006
g4992
a(lp5007
S'in'
p5008
aS'his'
p5009
aS'life'
p5010
aaa(lp5011
g4992
a(lp5012
S'Where'
p5013
aS'fair'
p5014
aaa(lp5015
g4992
a(lp5016
S'Where'
p5017
aS'fear'
p5018
aaa(lp5019
g4992
a(lp5020
S'could'
p5021
aS'be'
p5022
aS'the'
p5023
aS'dominant'
p5024
aS'factor'
p5025
aaa(lp5026
S'AUD'
p5027
a(lp5028
aa(lp5029
S'WALT'
p5030
a(lp5031
S'That'
p5032
aS'could'
p5033
aS'take'
p5034
aS'away'
p5035
aaa(lp5036
g5030
a(lp5037
S'his'
p5038
aS'relationship'
p5039
aaa(lp5040
g5030
a(lp5041
S'with'
p5042
aS'God'
p5043
aaa(lp5044
S'AUD'
p5045
a(lp5046
g64
aS'Amen'
p5047
ag64
aaa(lp5048
S'WALT'
p5049
a(lp5050
g109
aS'mean'
p5051
aS'think'
p5052
aS'about'
p5053
aS'it'
p5054
aaa(lp5055
g5049
a(lp5056
S'You'
p5057
aS'know'
p5058
ag109
aS'was'
p5059
aS'uh'
p5060
aaa(lp5061
g5049
a(lp5062
S'thinking'
p5063
aS'about'
p5064
aS'fear'
p5065
aaa(lp5066
g5049
a(lp5067
S'And'
p5068
ag109
aS'guess'
p5069
aS'that'
p5070
aaa(lp5071
g5049
a(lp5072
S'what'
p5073
aS'prompted'
p5074
aS'me'
p5075
aS'about'
p5076
aS'this'
p5077
aaa(lp5078
g5049
a(lp5079
S'is'
p5080
aS'cause'
p5081
aS'Im'
p5082
aS'fearful'
p5083
aS'person'
p5084
aaa(lp5085
S'AUD'
p5086
a(lp5087
aa(lp5088
S'WALT'
p5089
a(lp5090
S'You'
p5091
aS'say'
p5092
aS'VOX'
p5093
aS'oh'
p5094
aaa(lp5095
g5089
a(lp5096
S'well'
p5097
aS'youre'
p5098
aS'getting'
p5099
aS'up'
p5100
aS'here'
p5101
aS'and'
p5102
aS'speak'
p5103
aS'in'
p5104
aS'front'
p5105
aS'of'
p5106
aaa(lp5107
g5089
a(lp5108
S'two'
p5109
aS'or'
p5110
aS'three'
p5111
aS'hundred'
p5112
aS'people'
p5113
aaa(lp5114
g5089
a(lp5115
S'and'
p5116
aS'you'
p5117
aS'know'
p5118
aaa(lp5119
g5089
a(lp5120
S'youve'
p5121
aS'done'
p5122
aS'this'
p5123
aaa(lp5124
g5089
a(lp5125
S'and'
p5126
aS'youve'
p5127
aS'done'
p5128
aS'that'
p5129
aaa(lp5130
g5089
a(lp5131
S'and'
p5132
aS'youve'
p5133
aS'done'
p5134
aS'this'
p5135
aS'VOX'
p5136
aaa(lp5137
g5089
a(lp5138
S'and'
p5139
aS'Im'
p5140
aS'like'
p5141
aaa(lp5142
g5089
a(lp5143
S'Well'
p5144
aaa(lp5145
g5089
a(lp5146
S'Yeah'
p5147
aaa(lp5148
g5089
a(lp5149
S'amen'
p5150
aaa(lp5151
g5089
a(lp5152
S'But'
p5153
aS'Im'
p5154
aS'still'
p5155
ag57
aS'fearful'
p5156
aS'person'
p5157
aaa(lp5158
S'MANY'
p5159
a(lp5160
aa(lp5161
S'WALT'
p5162
a(lp5163
S'But'
p5164
ag109
aS'really'
p5165
aS'wanna'
p5166
aS'overcome'
p5167
aS'my'
p5168
aS'fears'
p5169
aaa(lp5170
S'MANY'
p5171
a(lp5172
aa(lp5173
S'WALT'
p5174
a(lp5175
g109
aS'wanna'
p5176
aS'get'
p5177
aaa(lp5178
S'AUD'
p5179
a(lp5180
S'amen'
p5181
aaa(lp5182
S'WALT'
p5183
a(lp5184
S'deeper'
p5185
aS'and'
p5186
aS'deeper'
p5187
aS'with'
p5188
aS'the'
p5189
aS'Lord'
p5190
aaa(lp5191
g5183
a(lp5192
g109
aS'wanna'
p5193
aS'get'
p5194
aS'deeper'
p5195
aS'and'
p5196
aS'deeper'
p5197
aS'with'
p5198
aS'you'
p5199
aaa(lp5200
g5183
a(lp5201
g109
aS'wanna'
p5202
aS'get'
p5203
ag368
aaa(lp5204
g5183
a(lp5205
g109
aS'wanna'
p5206
aS'be'
p5207
aS'able'
p5208
aS'to'
p5209
aS'change'
p5210
aS'my'
p5211
aS'life'
p5212
aaa(lp5213
g5183
a(lp5214
S'and'
p5215
ag109
aS'wanna'
p5216
aS'be'
p5217
aS'able'
p5218
aS'to'
p5219
aS'change'
p5220
aS'the'
p5221
aS'world'
p5222
aaa(lp5223
S'MANY'
p5224
a(lp5225
aa(lp5226
S'WALT'
p5227
a(lp5228
S'You'
p5229
aS'know'
p5230
aS'Ive'
p5231
aS'had'
p5232
aS'the'
p5233
aS'opportunity'
p5234
aaa(lp5235
g5227
a(lp5236
S'to'
p5237
aS'r'
p5238
aS'to'
p5239
aS'to'
p5240
aS'just'
p5241
aS'really'
p5242
aS'go'
p5243
aS'back'
p5244
aaa(lp5245
g5227
a(lp5246
S'and'
p5247
aS'read'
p5248
aS'some'
p5249
aS'things'
p5250
aaa(lp5251
g5227
a(lp5252
S'outside'
p5253
aS'of'
p5254
aS'the'
p5255
aS'Bible'
p5256
aaa(lp5257
g5227
a(lp5258
S'uh'
p5259
aaa(lp5260
g5227
a(lp5261
S'on'
p5262
aS'Martin'
p5263
aS'Luther'
p5264
aS'King'
p5265
aS'Junior'
p5266
aaa(lp5267
g5227
a(lp5268
S'Cause'
p5269
aS'the'
p5270
aS'guy'
p5271
aS'blows'
p5272
aS'my'
p5273
aS'mind'
p5274
aaa(lp5275
g5227
a(lp5276
S'He'
p5277
aS'blows'
p5278
aS'my'
p5279
aaa(lp5280
g5227
a(lp5281
S'heres'
p5282
ag57
aS'man'
p5283
aS'who'
p5284
aS'died'
p5285
aaa(lp5286
g5227
a(lp5287
S'for'
p5288
aS'what'
p5289
aS'he'
p5290
aS'believed'
p5291
aaa(lp5292
g5227
a(lp5293
S'He'
p5294
aS'died'
p5295
aS'to'
p5296
aS'see'
p5297
aS'justice'
p5298
aaa(lp5299
g5227
a(lp5300
S'equality'
p5301
aaa(lp5302
g5227
a(lp5303
S'peace'
p5304
aaa(lp5305
S'WALT'
p5306
a(lp5307
S'He'
p5308
aS'died'
p5309
aS'for'
p5310
aS'that'
p5311
aaa(lp5312
g5306
a(lp5313
S'And'
p5314
aS'Im'
p5315
aS'thinking'
p5316
aaa(lp5317
g5306
a(lp5318
S'He'
p5319
aS'is'
p5320
aS'willing'
p5321
aS'to'
p5322
aS'MRC'
p5323
aS'drink'
p5324
aS'that'
p5325
aS'cup'
p5326
aS'MRC'
p5327
aaa(lp5328
g5306
a(lp5329
S'He'
p5330
aS'was'
p5331
aS'afraid'
p5332
aS'many'
p5333
aS'times'
p5334
aaa(lp5335
g5306
a(lp5336
S'but'
p5337
aS'he'
p5338
aS'pushed'
p5339
aS'through'
p5340
aS'his'
p5341
aS'fears'
p5342
aaa(lp5343
g5306
a(lp5344
S'In'
p5345
aS'order'
p5346
aS'to'
p5347
aS'succeed'
p5348
aS'and'
p5349
aS'have'
p5350
aS'victory'
p5351
aaa(lp5352
g5306
a(lp5353
S'For'
p5354
aS'himself'
p5355
aaa(lp5356
g5306
a(lp5357
S'and'
p5358
aS'for'
p5359
aS'the'
p5360
aS'people'
p5361
aaa(lp5362
g5306
a(lp5363
S'that'
p5364
aS'were'
p5365
aS'around'
p5366
aS'him'
p5367
aaa(lp5368
g5306
a(lp5369
S'The'
p5370
aS'Black'
p5371
aS'nation'
p5372
aS'of'
p5373
aS'America'
p5374
aaa(lp5375
g5306
a(lp5376
S'You'
p5377
aS'know'
p5378
aS'we'
p5379
aS'need'
p5380
aS'to'
p5381
aS'learn'
p5382
aaa(lp5383
g5306
a(lp5384
S'number'
p5385
aS'one'
p5386
aaa(lp5387
g5306
a(lp5388
S'if'
p5389
aS'we'
p5390
aS'are'
p5391
aS'gonna'
p5392
aS'overcome'
p5393
aS'our'
p5394
aS'fears'
p5395
aaa(lp5396
g5306
a(lp5397
S'The'
p5398
aS'first'
p5399
aS'point'
p5400
aS'is'
p5401
aS'to'
p5402
aS'face'
p5403
aS'our'
p5404
aS'fears'
p5405
aaa(lp5406
g5306
a(lp5407
S'In'
p5408
aS'order'
p5409
aS'to'
p5410
aS'overcome'
p5411
aS'our'
p5412
aS'fears'
p5413
aaa(lp5414
g5306
a(lp5415
S'our'
p5416
aS'fears'
p5417
aaa(lp5418
S'AUD'
p5419
a(lp5420
S'Amen'
p5421
aaa(lp5422
S'AUD'
p5423
a(lp5424
S'Thats'
p5425
aS'right'
p5426
aaa(lp5427
S'WALT'
p5428
a(lp5429
g109
aS'w'
p5430
aaa(lp5431
S'AUD'
p5432
a(lp5433
S'Amen'
p5434
aaa(lp5435
S'WALT'
p5436
a(lp5437
g109
aS'had'
p5438
aS'the'
p5439
aS'opportunity'
p5440
aaa(lp5441
g5436
a(lp5442
S'as'
p5443
aS'you'
p5444
aS'know'
p5445
aaa(lp5446
g5436
a(lp5447
S'to'
p5448
aS'spend'
p5449
ag57
aS'lot'
p5450
aS'of'
p5451
aS'time'
p5452
aS'with'
p5453
aS'my'
p5454
aS'brother'
p5455
aaa(lp5456
g5436
a(lp5457
S'hes'
p5458
aS'moved'
p5459
aS'in'
p5460
aS'with'
p5461
aS'us'
p5462
aaa(lp5463
g5436
a(lp5464
S'and'
p5465
aS'just'
p5466
aS'to'
p5467
aS'talk'
p5468
aaa(lp5469
g5436
a(lp5470
S'And'
p5471
aS'and'
p5472
aS'as'
p5473
aS'we'
p5474
aS'were'
p5475
aS'talking'
p5476
aaa(lp5477
g5436
a(lp5478
S'what'
p5479
aS'came'
p5480
aS'out'
p5481
aaa(lp5482
g5436
a(lp5483
S'is'
p5484
aS'really'
p5485
aaa(lp5486
g5436
a(lp5487
S'his'
p5488
aS'fears'
p5489
aaa(lp5490
g5436
a(lp5491
S'What'
p5492
aS'he'
p5493
aS'was'
p5494
aS'afraid'
p5495
aS'of'
p5496
aaa(lp5497
g5436
a(lp5498
S'In'
p5499
aS'becoming'
p5500
ag57
aS'disciple'
p5501
aaa(lp5502
g5436
a(lp5503
S'In'
p5504
aS'becoming'
p5505
ag57
aS'Christian'
p5506
aaa(lp5507
g5436
a(lp5508
S'And'
p5509
aS'it'
p5510
aS'brought'
p5511
aS'me'
p5512
aS'back'
p5513
aaa(lp5514
g5436
a(lp5515
S'to'
p5516
aS'the'
p5517
aS'time'
p5518
aS'when'
p5519
ag109
aS'was'
p5520
aS'studying'
p5521
aS'the'
p5522
aS'Bible'
p5523
aaa(lp5524
g5436
a(lp5525
S'And'
p5526
ag109
aS'remember'
p5527
aS'all'
p5528
aS'of'
p5529
aS'the'
p5530
aS'fears'
p5531
aS'that'
p5532
aS'were'
p5533
aS'in'
p5534
aS'my'
p5535
aS'life'
p5536
aaa(lp5537
g5436
a(lp5538
S'in'
p5539
aS'c'
p5540
aS'in'
p5541
aS'in'
p5542
aS'making'
p5543
ag57
aS'decision'
p5544
aaa(lp5545
g5436
a(lp5546
S'to'
p5547
aS'follow'
p5548
aS'Christ'
p5549
aaa(lp5550
g5436
a(lp5551
S'You'
p5552
aS'know'
p5553
ag109
aS'can'
p5554
aS'remember'
p5555
aS'the'
p5556
aS'fear'
p5557
aS'of'
p5558
aaa(lp5559
g5436
a(lp5560
S'they'
p5561
aS'all'
p5562
aS'wanna'
p5563
aS'take'
p5564
aS'my'
p5565
aS'money'
p5566
aaa(lp5567
S'MANY'
p5568
a(lp5569
aa(lp5570
S'WALT'
p5571
a(lp5572
S'That'
p5573
aS'was'
p5574
ag57
aS'fear'
p5575
aS'for'
p5576
aS'me'
p5577
aaa(lp5578
g5571
a(lp5579
S'That'
p5580
aS'was'
p5581
aS'real'
p5582
aaa(lp5583
g5571
a(lp5584
g109
aS'worked'
p5585
aS'hard'
p5586
aS'for'
p5587
aS'my'
p5588
aS'money'
p5589
aaa(lp5590
g5571
a(lp5591
g109
aS'was'
p5592
aS'concerned'
p5593
aS'about'
p5594
aS'this'
p5595
aaa(lp5596
g5571
a(lp5597
S'MRC'
p5598
aS'POUND'
p5599
aS'cultic'
p5600
aS'organization'
p5601
aS'MRC'
p5602
aaa(lp5603
g5571
a(lp5604
S'trying'
p5605
aS'to'
p5606
aS'take'
p5607
aS'my'
p5608
aS'money'
p5609
aS'POUND'
p5610
aaa(lp5611
g5571
a(lp5612
S'You'
p5613
aS'know'
p5614
aaa(lp5615
g5571
a(lp5616
S'Id'
p5617
aS'look'
p5618
aS'at'
p5619
aS'the'
p5620
aS'checkbook'
p5621
aaa(lp5622
g5571
a(lp5623
S'My'
p5624
aS'wife'
p5625
aS'would'
p5626
aS'write'
p5627
ag57
aS'check'
p5628
aS'for'
p5629
aS'ten'
p5630
aS'dollars'
p5631
aaa(lp5632
g5571
a(lp5633
S'Id'
p5634
aS'go'
p5635
aS'crazy'
p5636
aaa(lp5637
S'MANY'
p5638
a(lp5639
aa(lp5640
S'WALT'
p5641
a(lp5642
S'Cause'
p5643
ag109
aS'was'
p5644
aS'afraid'
p5645
aaa(lp5646
g5641
a(lp5647
S'They'
p5648
aS'would'
p5649
aS'take'
p5650
aS'my'
p5651
aS'money'
p5652
aaa(lp5653
g5641
a(lp5654
S'Right'
p5655
aS'Paul'
p5656
aaa(lp5657
g5641
a(lp5658
S'Yeah'
p5659
aaa(lp5660
g5641
a(lp5661
S'Sure'
p5662
aaa(lp5663
S'MANY'
p5664
a(lp5665
aa(lp5666
S'AUD'
p5667
a(lp5668
aa(lp5669
S'WALT'
p5670
a(lp5671
g109
aS'was'
p5672
aS'afraid'
p5673
ag109
aS'was'
p5674
aS'gonna'
p5675
aS'lose'
p5676
aS'my'
p5677
aS'personality'
p5678
aaa(lp5679
g5670
a(lp5680
S'as'
p5681
aS'you'
p5682
aS'can'
p5683
aS'see'
p5684
aaa(lp5685
S'MANY'
p5686
a(lp5687
aa(lp5688
S'WALT'
p5689
a(lp5690
S'Ive'
p5691
aS'not'
p5692
aS'lost'
p5693
aS'it'
p5694
aaa(lp5695
S'MANY'
p5696
a(lp5697
aa(lp5698
S'AUD'
p5699
a(lp5700
S'Amen'
p5701
aaa(lp5702
g5699
a(lp5703
S'Amen'
p5704
aaa(lp5705
S'WALT'
p5706
a(lp5707
S'Its'
p5708
aS'been'
p5709
aS'matured'
p5710
aaa(lp5711
S'MANY'
p5712
a(lp5713
aa(lp5714
S'AUD'
p5715
a(lp5716
S'Yeah'
p5717
aaa(lp5718
g5715
a(lp5719
S'thats'
p5720
aaa(lp5721
g5715
a(lp5722
S'yeah'
p5723
aaa(lp5724
g5715
a(lp5725
S'Amen'
p5726
aaa(lp5727
S'WALT'
p5728
a(lp5729
g109
aS'was'
p5730
aS'afraid'
p5731
ag109
aS'was'
p5732
aS'gonna'
p5733
aS'lose'
p5734
aS'my'
p5735
aS'identity'
p5736
aaa(lp5737
g5728
a(lp5738
S'Well'
p5739
aS'as'
p5740
aS'you'
p5741
aS'can'
p5742
aS'see'
p5743
aaa(lp5744
S'AUD'
p5745
a(lp5746
aa(lp5747
S'AUD'
p5748
a(lp5749
S'XXX'
p5750
aaa(lp5751
S'WALT'
p5752
a(lp5753
S'Still'
p5754
aS'got'
p5755
aS'one'
p5756
aaa(lp5757
S'AUD'
p5758
a(lp5759
S'Amen'
p5760
aaa(lp5761
S'WALT'
p5762
a(lp5763
S'Maybe'
p5764
aS'it'
p5765
aS'needs'
p5766
aS'to'
p5767
aS'change'
p5768
aS'some'
p5769
aaa(lp5770
g5762
a(lp5771
S'but'
p5772
ag109
aS'still'
p5773
aS'have'
p5774
aS'it'
p5775
aaa(lp5776
g5762
a(lp5777
g109
aS'was'
p5778
aS'afraid'
p5779
aS'that'
p5780
aaa(lp5781
g5762
a(lp5782
g724
aS'Id'
p5783
aS'be'
p5784
aS'robbed'
p5785
aS'of'
p5786
aS'my'
p5787
aS'individuality'
p5788
aaa(lp5789
g5762
a(lp5790
S'Id'
p5791
aS'be'
p5792
aS'robbed'
p5793
aS'of'
p5794
aS'my'
p5795
aS'independence'
p5796
aS'and'
p5797
aS'my'
p5798
aS'free'
p5799
aS'will'
p5800
ag724
aaa(lp5801
g5762
a(lp5802
S'Well'
p5803
aS'let'
p5804
aS'me'
p5805
aS'tell'
p5806
aS'you'
p5807
aaa(lp5808
g5762
a(lp5809
S'Im'
p5810
aS'plenty'
p5811
aS'independent'
p5812
aaa(lp5813
S'AUD'
p5814
a(lp5815
aa(lp5816
S'AUD'
p5817
a(lp5818
S'Uhoh'
p5819
aaa(lp5820
S'WALT'
p5821
a(lp5822
S'And'
p5823
ag109
aS'have'
p5824
ag4327
ag57
aS'free'
p5825
aS'will'
p5826
aS'to'
p5827
aS'choose'
p5828
aS'and'
p5829
aS'pick'
p5830
aaa(lp5831
g5821
a(lp5832
S'what'
p5833
ag109
aS'want'
p5834
aS'to'
p5835
aS'do'
p5836
aS'with'
p5837
aS'my'
p5838
aS'life'
p5839
aaa(lp5840
S'MANY'
p5841
a(lp5842
aa(lp5843
S'WALT'
p5844
a(lp5845
S'But'
p5846
aS'what'
p5847
aS'Ive'
p5848
aS'chose'
p5849
aaa(lp5850
g5844
a(lp5851
S'is'
p5852
aS'to'
p5853
aS'overcome'
p5854
aS'my'
p5855
aS'fears'
p5856
aaa(lp5857
g5844
a(lp5858
S'and'
p5859
aS'give'
p5860
aS'my'
p5861
aS'life'
p5862
aaa(lp5863
g5844
a(lp5864
S'to'
p5865
aS'Jesus'
p5866
aS'Christ'
p5867
aaa(lp5868
S'MANY'
p5869
a(lp5870
S'Amen'
p5871
aaa(lp5872
S'WALT'
p5873
a(lp5874
S'But'
p5875
aS'we'
p5876
aS'must'
p5877
aS'face'
p5878
aS'our'
p5879
aS'fears'
p5880
aaa(lp5881
g5873
a(lp5882
S'Ask'
p5883
aS'yourselves'
p5884
aaa(lp5885
g5873
a(lp5886
S'why'
p5887
aS'are'
p5888
aS'you'
p5889
aS'afraid'
p5890
aaa(lp5891
g5873
a(lp5892
S'Think'
p5893
aS'about'
p5894
aS'your'
p5895
aS'own'
p5896
aS'fears'
p5897
aaa(lp5898
g5873
a(lp5899
S'Think'
p5900
aS'about'
p5901
aS'your'
p5902
aS'own'
p5903
aS'personal'
p5904
aS'fears'
p5905
aaa(lp5906
g5873
a(lp5907
S'inside'
p5908
aS'your'
p5909
aS'life'
p5910
aaa(lp5911
g5873
a(lp5912
S'The'
p5913
aS'deep'
p5914
aS'ones'
p5915
aaa(lp5916
g5873
a(lp5917
S'Not'
p5918
aS'the'
p5919
aS'outside'
p5920
aS'ones'
p5921
aS'about'
p5922
aS'money'
p5923
aS'and'
p5924
aS'stuff'
p5925
aaa(lp5926
S'WALT'
p5927
a(lp5928
S'But'
p5929
aS'the'
p5930
aS'deep'
p5931
aS'deep'
p5932
aS'truths'
p5933
aS'in'
p5934
aS'your'
p5935
aS'heart'
p5936
aaa(lp5937
g5927
a(lp5938
S'Cause'
p5939
aS'each'
p5940
aS'one'
p5941
aS'of'
p5942
aS'us'
p5943
aaa(lp5944
g5927
a(lp5945
S'have'
p5946
aS'some'
p5947
aS'things'
p5948
aS'in'
p5949
aS'our'
p5950
aS'life'
p5951
aaa(lp5952
g5927
a(lp5953
S'that'
p5954
aS'were'
p5955
aS'very'
p5956
aS'fearful'
p5957
aS'about'
p5958
aaa(lp5959
g5927
a(lp5960
S'Ask'
p5961
aS'yourself'
p5962
aaa(lp5963
g5927
a(lp5964
S'Why'
p5965
aS'am'
p5966
ag109
aS'afraid'
p5967
aaa(lp5968
S'AUD'
p5969
a(lp5970
aa(lp5971
S'WALT'
p5972
a(lp5973
S'See'
p5974
aS'we'
p5975
aS'need'
p5976
aS'to'
p5977
aS'ask'
p5978
aS'ourselves'
p5979
aS'that'
p5980
aS'question'
p5981
aaa(lp5982
g5972
a(lp5983
S'every'
p5984
aS'single'
p5985
aS'day'
p5986
aaa(lp5987
g5972
a(lp5988
S'We'
p5989
aS'need'
p5990
aS'to'
p5991
aS'ask'
p5992
aS'ourselves'
p5993
aS'that'
p5994
aS'question'
p5995
aaa(lp5996
g5972
a(lp5997
S'every'
p5998
aS'single'
p5999
aS'time'
p6000
aaa(lp6001
g5972
a(lp6002
S'it'
p6003
aS'comes'
p6004
aS'up'
p6005
aaa(lp6006
g5972
a(lp6007
S'Because'
p6008
aS'in'
p6009
aS'that'
p6010
aS'way'
p6011
aaa(lp6012
g5972
a(lp6013
S'confronting'
p6014
aS'our'
p6015
aS'fears'
p6016
aaa(lp6017
g5972
a(lp6018
S'It'
p6019
aS'will'
p6020
aS'give'
p6021
aS'us'
p6022
aaa(lp6023
g5972
a(lp6024
g57
aS'measure'
p6025
aS'of'
p6026
aS'success'
p6027
aaa(lp6028
g5972
a(lp6029
S'It'
p6030
aS'will'
p6031
aS'give'
p6032
aS'us'
p6033
ag57
aS'measure'
p6034
aS'of'
p6035
aS'power'
p6036
aaa(lp6037
g5972
a(lp6038
S'It'
p6039
aS'doesnt'
p6040
aS'mean'
p6041
aS'weve'
p6042
aS'done'
p6043
aS'it'
p6044
aS'yet'
p6045
aaa(lp6046
g5972
a(lp6047
S'but'
p6048
aS'when'
p6049
aS'we'
p6050
aS'bring'
p6051
aS'it'
p6052
aS'up'
p6053
aaa(lp6054
g5972
a(lp6055
S'it'
p6056
aS'will'
p6057
aS'give'
p6058
aS'us'
p6059
ag57
aS'measure'
p6060
aS'of'
p6061
aS'that'
p6062
aS'power'
p6063
aaa(lp6064
g5972
a(lp6065
S'It'
p6066
aS'will'
p6067
aS'give'
p6068
aS'us'
p6069
ag57
aS'measure'
p6070
aS'of'
p6071
aS'success'
p6072
aaa(lp6073
S'AUD'
p6074
a(lp6075
aa(lp6076
S'WALT'
p6077
a(lp6078
S'Not'
p6079
aS'the'
p6080
aS'total'
p6081
aS'victory'
p6082
aaa(lp6083
g6077
a(lp6084
S'but'
p6085
ag57
aS'small'
p6086
aS'measure'
p6087
aS'to'
p6088
aS'understand'
p6089
aaa(lp6090
g6077
a(lp6091
S'where'
p6092
aS'were'
p6093
aS'really'
p6094
aS'at'
p6095
aaa(lp6096
S'AUD'
p6097
a(lp6098
S'Yeah'
p6099
aaa(lp6100
S'AUD'
p6101
a(lp6102
S'Amen'
p6103
aaa(lp6104
S'WALT'
p6105
a(lp6106
S'You'
p6107
aS'know'
p6108
aaa(lp6109
g6105
a(lp6110
S'the'
p6111
aS'thing'
p6112
aS'about'
p6113
aS'fears'
p6114
aaa(lp6115
g6105
a(lp6116
S'The'
p6117
aS'more'
p6118
aS'we'
p6119
aS'attempt'
p6120
aS'to'
p6121
aS'ignore'
p6122
aS'or'
p6123
aS'repress'
p6124
aS'them'
p6125
aaa(lp6126
g6105
a(lp6127
S'the'
p6128
aS'more'
p6129
aS'we'
p6130
aS'multiply'
p6131
aS'the'
p6132
aS'conflict'
p6133
aS'inside'
p6134
aaa(lp6135
S'AUD'
p6136
a(lp6137
S'Wow'
p6138
aaa(lp6139
S'MANY'
p6140
a(lp6141
aa(lp6142
S'AUD'
p6143
a(lp6144
S'Thats'
p6145
aS'right'
p6146
aaa(lp6147
S'WALT'
p6148
a(lp6149
S'Isnt'
p6150
aS'that'
p6151
aS'true'
p6152
aaa(lp6153
S'CONGR'
p6154
a(lp6155
aa(lp6156
S'WALT'
p6157
a(lp6158
S'You'
p6159
aS'know'
p6160
aS'when'
p6161
aS'youre'
p6162
aS'afraid'
p6163
aS'to'
p6164
aS'deal'
p6165
aS'with'
p6166
aS'something'
p6167
aaa(lp6168
g6157
a(lp6169
S'and'
p6170
aS'youre'
p6171
aS'afraid'
p6172
aaa(lp6173
g6157
a(lp6174
S'and'
p6175
aS'then'
p6176
aS'all'
p6177
aS'of'
p6178
ag57
aS'sudden'
p6179
aaa(lp6180
g6157
a(lp6181
S'it'
p6182
aS'starts'
p6183
aS'multiplying'
p6184
aaa(lp6185
S'MANY'
p6186
a(lp6187
aa(lp6188
S'WALT'
p6189
a(lp6190
S'And'
p6191
aS'now'
p6192
aS'youre'
p6193
aS'really'
p6194
aS'afraid'
p6195
aaa(lp6196
g6189
a(lp6197
S'Right'
p6198
aaa(lp6199
S'MANY'
p6200
a(lp6201
aa(lp6202
S'WALT'
p6203
a(lp6204
S'And'
p6205
aS'now'
p6206
aS'you'
p6207
aS'dont'
p6208
aS'want'
p6209
aS'to'
p6210
aS'say'
p6211
aS'anything'
p6212
aS'to'
p6213
aS'any'
p6214
aS'about'
p6215
aS'anything'
p6216
aaa(lp6217
g6203
a(lp6218
S'Right'
p6219
aaa(lp6220
S'MANY'
p6221
a(lp6222
aa(lp6223
S'WALT'
p6224
a(lp6225
S'Cause'
p6226
aS'its'
p6227
aS'started'
p6228
aS'to'
p6229
aS'multiply'
p6230
aaa(lp6231
g6224
a(lp6232
S'And'
p6233
aS'the'
p6234
aS'longer'
p6235
aS'that'
p6236
aS'fear'
p6237
aS'goes'
p6238
aaa(lp6239
g6224
a(lp6240
S'the'
p6241
aS'more'
p6242
aS'it'
p6243
aS'multiplies'
p6244
aaa(lp6245
g6224
a(lp6246
S'till'
p6247
aS'it'
p6248
aS'gets'
p6249
aS'to'
p6250
aS'the'
p6251
aS'point'
p6252
aS'where'
p6253
aS'it'
p6254
aS'totally'
p6255
aS'immobilizes'
p6256
aS'you'
p6257
aaa(lp6258
S'AUD'
p6259
a(lp6260
S'Right'
p6261
aaa(lp6262
g6259
a(lp6263
S'Till'
p6264
aS'you'
p6265
aS'become'
p6266
aaa(lp6267
g6259
a(lp6268
S'totally'
p6269
aaa(lp6270
g6259
a(lp6271
S'unable'
p6272
aS'to'
p6273
aS'move'
p6274
aaa(lp6275
S'MANY'
p6276
a(lp6277
aa(lp6278
S'WALT'
p6279
a(lp6280
S'You'
p6281
aS'become'
p6282
aS'stymied'
p6283
aaa(lp6284
S'AUD'
p6285
a(lp6286
S'Mm'
p6287
aaa(lp6288
S'WALT'
p6289
a(lp6290
S'Still'
p6291
aaa(lp6292
S'AUD'
p6293
a(lp6294
aa(lp6295
S'WALT'
p6296
a(lp6297
S'And'
p6298
aS'we'
p6299
aS'know'
p6300
aS'as'
p6301
aS'human'
p6302
aS'beings'
p6303
aaa(lp6304
g6296
a(lp6305
S'just'
p6306
aS'like'
p6307
aS'nature'
p6308
aaa(lp6309
g6296
a(lp6310
S'if'
p6311
aS'were'
p6312
aS'not'
p6313
aS'growing'
p6314
aaa(lp6315
g6296
a(lp6316
S'were'
p6317
aS'dying'
p6318
aaa(lp6319
S'MANY'
p6320
a(lp6321
aa(lp6322
S'WALT'
p6323
a(lp6324
S'And'
p6325
aS'that'
p6326
aS'fear'
p6327
aaa(lp6328
g6323
a(lp6329
S'starts'
p6330
aS'to'
p6331
aS'eat'
p6332
aS'away'
p6333
aaa(lp6334
g6323
a(lp6335
S'at'
p6336
aS'you'
p6337
aaa(lp6338
g6323
a(lp6339
S'You'
p6340
aS'know'
p6341
aS'the'
p6342
aS'great'
p6343
aS'thing'
p6344
aS'about'
p6345
aS'bringing'
p6346
aS'your'
p6347
aS'fears'
p6348
aS'up'
p6349
aS'too'
p6350
aaa(lp6351
g6323
a(lp6352
S'Is'
p6353
aS'that'
p6354
aS'when'
p6355
aS'you'
p6356
aS'bring'
p6357
aS'your'
p6358
aS'fears'
p6359
aS'up'
p6360
aaa(lp6361
g6323
a(lp6362
S'what'
p6363
aS'we'
p6364
aS'find'
p6365
aS'out'
p6366
aS'many'
p6367
aS'times'
p6368
aaa(lp6369
g6323
a(lp6370
S'is'
p6371
aS'that'
p6372
aS'theyre'
p6373
aS'more'
p6374
aS'imaginary'
p6375
aaa(lp6376
g6323
a(lp6377
S'than'
p6378
aS'they'
p6379
aS'are'
p6380
aS'real'
p6381
aaa(lp6382
S'AUD'
p6383
a(lp6384
S'Yes'
p6385
aaa(lp6386
S'MANY'
p6387
a(lp6388
aa(lp6389
S'WALT'
p6390
a(lp6391
S'Isnt'
p6392
aS'that'
p6393
aS'true'
p6394
aaa(lp6395
S'MANY'
p6396
a(lp6397
aa(lp6398
S'WALT'
p6399
a(lp6400
S'Its'
p6401
aS'like'
p6402
aaa(lp6403
g6399
a(lp6404
g109
aS'need'
p6405
aS'to'
p6406
aS'talk'
p6407
aS'to'
p6408
aS'Windham'
p6409
aaa(lp6410
g6399
a(lp6411
S'about'
p6412
aS'this'
p6413
aaa(lp6414
g6399
a(lp6415
S'Its'
p6416
aS'like'
p6417
aaa(lp6418
g6399
a(lp6419
S'VOX'
p6420
aS'oh'
p6421
aaa(lp6422
g6399
a(lp6423
g109
aS'dont'
p6424
aS'know'
p6425
aS'if'
p6426
ag109
aS'wanna'
p6427
aS'talk'
p6428
aS'to'
p6429
aS'Windham'
p6430
aS'about'
p6431
aS'this'
p6432
aS'VOX'
p6433
aaa(lp6434
g6399
a(lp6435
S'And'
p6436
aS'then'
p6437
ag109
aS'start'
p6438
aaa(lp6439
g6399
a(lp6440
S'Then'
p6441
aS'this'
p6442
aS'fear'
p6443
aS'start'
p6444
aS'to'
p6445
aS'multiply'
p6446
aaa(lp6447
S'AUD'
p6448
a(lp6449
aa(lp6450
S'AUD'
p6451
a(lp6452
aa(lp6453
S'WALT'
p6454
a(lp6455
S'You'
p6456
aS'know'
p6457
aS'what'
p6458
ag109
aS'mean'
p6459
aaa(lp6460
S'AUD'
p6461
a(lp6462
S'Yeah'
p6463
aaa(lp6464
S'WALT'
p6465
a(lp6466
S'SHOUT'
p6467
aS'Then'
p6468
ag109
aS'dont'
p6469
aS'wanna'
p6470
aS'talk'
p6471
aS'SHOUT'
p6472
aaa(lp6473
g6465
a(lp6474
S'Right'
p6475
aaa(lp6476
g6465
a(lp6477
S'Then'
p6478
aaa(lp6479
g6465
a(lp6480
S'then'
p6481
ag109
aS'go'
p6482
aS'and'
p6483
aS'talk'
p6484
aaa(lp6485
g6465
a(lp6486
S'VOX'
p6487
aS'oh'
p6488
aS'hes'
p6489
aS'gonna'
p6490
aS'say'
p6491
aS'this'
p6492
aS'and'
p6493
aaa(lp6494
g6465
a(lp6495
S'hes'
p6496
aS'gonna'
p6497
aS'say'
p6498
aS'that'
p6499
aS'and'
p6500
aaa(lp6501
g6465
a(lp6502
S'hes'
p6503
aS'gonna'
p6504
aS'be'
p6505
aS'in'
p6506
aS'my'
p6507
aS'face'
p6508
aS'and'
p6509
aaa(lp6510
g6465
a(lp6511
S'danadanadanadana'
p6512
aS'VOX'
p6513
aaa(lp6514
g6465
a(lp6515
S'And'
p6516
aS'Im'
p6517
aS'like'
p6518
aaa(lp6519
g6465
a(lp6520
S'and'
p6521
aS'then'
p6522
ag109
aS'go'
p6523
aS'and'
p6524
ag109
aS'talk'
p6525
aS'to'
p6526
aS'him'
p6527
aaa(lp6528
g6465
a(lp6529
g109
aS'muster'
p6530
aS'up'
p6531
aaa(lp6532
g6465
a(lp6533
S'PAR'
p6534
aS'which'
p6535
aS'is'
p6536
aS'm'
p6537
aS'our'
p6538
aS'second'
p6539
aS'point'
p6540
aaa(lp6541
g6465
a(lp6542
S'which'
p6543
aS'is'
p6544
aS'courage'
p6545
aS'PAR'
p6546
aaa(lp6547
S'AUD'
p6548
a(lp6549
S'Amen'
p6550
aaa(lp6551
S'MANY'
p6552
a(lp6553
aa(lp6554
S'WALT'
p6555
a(lp6556
g109
aS'muster'
p6557
aS'up'
p6558
aS'the'
p6559
aS'courage'
p6560
aaa(lp6561
g6555
a(lp6562
S'and'
p6563
ag109
aS'talk'
p6564
aS'to'
p6565
aS'Windham'
p6566
aaa(lp6567
g6555
a(lp6568
S'And'
p6569
aS'you'
p6570
aS'know'
p6571
aS'what'
p6572
aaa(lp6573
g6555
a(lp6574
S'Im'
p6575
aS'like'
p6576
aaa(lp6577
g6555
a(lp6578
S'wow'
p6579
aaa(lp6580
g6555
a(lp6581
S'That'
p6582
aS'isnt'
p6583
aS'anything'
p6584
aS'like'
p6585
ag109
aS'thought'
p6586
aaa(lp6587
S'MANY'
p6588
a(lp6589
aa(lp6590
S'WALT'
p6591
a(lp6592
S'Isnt'
p6593
aS'that'
p6594
aS'true'
p6595
aaa(lp6596
S'MANY'
p6597
a(lp6598
aa(lp6599
S'WALT'
p6600
a(lp6601
S'And'
p6602
ag109
aS'feel'
p6603
aS'so'
p6604
aS'much'
p6605
aS'better'
p6606
aaa(lp6607
g6600
a(lp6608
S'Im'
p6609
aS'like'
p6610
aaa(lp6611
g6600
a(lp6612
g109
aS'cant'
p6613
aS'believe'
p6614
ag109
aS'did'
p6615
aS'that'
p6616
aaa(lp6617
g6600
a(lp6618
S'What'
p6619
ag57
aS'dummy'
p6620
aaa(lp6621
g6600
a(lp6622
S'VOX'
p6623
aS'What'
p6624
ag57
aS'fool'
p6625
aS'VOX'
p6626
aaa(lp6627
S'X'
p6628
a(lp6629
aa(lp6630
S'WALT'
p6631
a(lp6632
S'that'
p6633
ag109
aS'would'
p6634
aS'think'
p6635
aS'those'
p6636
aS'things'
p6637
aaa(lp6638
g6631
a(lp6639
S'See'
p6640
aS'because'
p6641
ag57
aS'lot'
p6642
aS'of'
p6643
aS'times'
p6644
aS'our'
p6645
aS'fears'
p6646
aaa(lp6647
g6631
a(lp6648
S'really'
p6649
aS'are'
p6650
aaa(lp6651
g6631
a(lp6652
S'imaginary'
p6653
aaa(lp6654
g6631
a(lp6655
S'See'
p6656
aaa(lp6657
g6631
a(lp6658
S'fear'
p6659
aaa(lp6660
g6631
a(lp6661
S'really'
p6662
aS'involves'
p6663
aS'the'
p6664
aS'misuse'
p6665
aS'of'
p6666
aS'our'
p6667
aS'imagination'
p6668
aaa(lp6669
S'AUD'
p6670
a(lp6671
S'Yeah'
p6672
aS'thats'
p6673
aS'right'
p6674
aaa(lp6675
S'AUD'
p6676
a(lp6677
S'Mm'
p6678
aaa(lp6679
S'WALT'
p6680
a(lp6681
S'You'
p6682
aS'know'
p6683
aS'when'
p6684
aS'youre'
p6685
aS'talking'
p6686
aS'about'
p6687
aS'being'
p6688
ag57
aS'disciple'
p6689
aaa(lp6690
g6680
a(lp6691
S'and'
p6692
aS'you'
p6693
aS'hear'
p6694
aS'these'
p6695
aS'incredibly'
p6696
aS'VOX'
p6697
aS'hard'
p6698
aS'sermons'
p6699
aS'VOX'
p6700
aaa(lp6701
g6680
a(lp6702
S'And'
p6703
ag109
aS'do'
p6704
aS'preach'
p6705
ag57
aS'few'
p6706
aS'hard'
p6707
aS'sermons'
p6708
aaa(lp6709
S'MANY'
p6710
a(lp6711
S'Amen'
p6712
aaa(lp6713
S'WALT'
p6714
a(lp6715
S'Todays'
p6716
aS'not'
p6717
aS'one'
p6718
aS'of'
p6719
aS'those'
p6720
aS'real'
p6721
aS'hard'
p6722
aS'ones'
p6723
aaa(lp6724
S'AUD'
p6725
a(lp6726
S'No'
p6727
aaa(lp6728
S'WALT'
p6729
a(lp6730
g109
aS'thought'
p6731
aS'Id'
p6732
aS'give'
p6733
aS'you'
p6734
ag57
aS'break'
p6735
aaa(lp6736
S'MANY'
p6737
a(lp6738
aa(lp6739
S'AUD'
p6740
a(lp6741
S'Thanks'
p6742
aS'bro'
p6743
aaa(lp6744
S'WALT'
p6745
a(lp6746
S'Maybe'
p6747
ag109
aS'needed'
p6748
ag57
aS'break'
p6749
aaa(lp6750
S'MANY'
p6751
a(lp6752
aa(lp6753
S'WALT'
p6754
a(lp6755
S'Ive'
p6756
aS'had'
p6757
ag57
aS'few'
p6758
aS'this'
p6759
aS'week'
p6760
aaa(lp6761
g6754
a(lp6762
S'But'
p6763
aS'really'
p6764
aaa(lp6765
g6754
a(lp6766
S'its'
p6767
aS'true'
p6768
aaa(lp6769
g6754
a(lp6770
g109
aS'mean'
p6771
aaa(lp6772
g6754
a(lp6773
S'we'
p6774
aS'we'
p6775
aS'and'
p6776
aS'you'
p6777
aS'hear'
p6778
aS'these'
p6779
ag2585
aS'incredibly'
p6780
aS'hard'
p6781
aS'sermons'
p6782
ag2585
aaa(lp6783
g6754
a(lp6784
S'FAVOX'
p6785
aS'well'
p6786
aS'what'
p6787
aS'do'
p6788
aS'they'
p6789
aS'mean'
p6790
aS'about'
p6791
aS'this'
p6792
aaa(lp6793
g6754
a(lp6794
S'and'
p6795
aS'what'
p6796
aS'do'
p6797
aS'they'
p6798
aS'mean'
p6799
aS'about'
p6800
aS'that'
p6801
aaa(lp6802
g6754
a(lp6803
S'ha'
p6804
aS'oh'
p6805
aS'ha'
p6806
aS'VOXAF'
p6807
aaa(lp6808
S'MANY'
p6809
a(lp6810
aa(lp6811
S'WALT'
p6812
a(lp6813
g109
aS'mean'
p6814
ag109
aS'do'
p6815
aS'that'
p6816
aaa(lp6817
g6812
a(lp6818
g109
aS'used'
p6819
aS'to'
p6820
aS'hear'
p6821
aS'Kip'
p6822
aS'preach'
p6823
aS'in'
p6824
aS'the'
p6825
aS'opera'
p6826
aS'house'
p6827
aaa(lp6828
S'AUD'
p6829
a(lp6830
S'Woohoo'
p6831
aaa(lp6832
S'WALT'
p6833
a(lp6834
S'and'
p6835
aS'Id'
p6836
aS'be'
p6837
aS'like'
p6838
aaa(lp6839
g6833
a(lp6840
S'FVOX'
p6841
aS'Oh'
p6842
aaa(lp6843
g6833
a(lp6844
S'Who'
p6845
aS'is'
p6846
aS'this'
p6847
aS'man'
p6848
aaa(lp6849
g6833
a(lp6850
S'Oh'
p6851
ag109
aS'cant'
p6852
aS'believe'
p6853
aS'he'
p6854
aS'said'
p6855
aS'that'
p6856
aS'VOXF'
p6857
aaa(lp6858
S'MANY'
p6859
a(lp6860
aa(lp6861
S'WALT'
p6862
a(lp6863
S'And'
p6864
aS'Id'
p6865
aS'go'
p6866
aS'there'
p6867
aaa(lp6868
g6862
a(lp6869
S'even'
p6870
aS'before'
p6871
aS'we'
p6872
aS'even'
p6873
aS'got'
p6874
aS'there'
p6875
aaa(lp6876
g6862
a(lp6877
S'Id'
p6878
aS'be'
p6879
aS'sharing'
p6880
aaa(lp6881
g6862
a(lp6882
S'wed'
p6883
aS'go'
p6884
aaa(lp6885
g6862
a(lp6886
S'wed'
p6887
aS'be'
p6888
aS'with'
p6889
aS'Laurie'
p6890
aaa(lp6891
g6862
a(lp6892
S'and'
p6893
aS'Id'
p6894
aS'invite'
p6895
aS'someone'
p6896
aS'to'
p6897
aS'come'
p6898
aS'to'
p6899
aS'church'
p6900
aS'with'
p6901
aS'me'
p6902
aaa(lp6903
g6862
a(lp6904
S'and'
p6905
aS'they'
p6906
aS'would'
p6907
aS'come'
p6908
aaa(lp6909
g6862
a(lp6910
S'and'
p6911
aS'Id'
p6912
aS'say'
p6913
aaa(lp6914
g6862
a(lp6915
S'VOX'
p6916
aS'Boy'
p6917
aaa(lp6918
g6862
a(lp6919
g109
aS'hope'
p6920
aS'he'
p6921
aS'doesnt'
p6922
aS'preach'
p6923
aS'this'
p6924
aS'and'
p6925
aaa(lp6926
g6862
a(lp6927
g109
aS'hope'
p6928
aS'he'
p6929
aS'doesnt'
p6930
aS'preach'
p6931
aS'that'
p6932
aS'and'
p6933
aaa(lp6934
S'MANY'
p6935
a(lp6936
aa(lp6937
S'WALT'
p6938
a(lp6939
g109
aS'hope'
p6940
aS'he'
p6941
aS'doesnt'
p6942
aS'say'
p6943
aS'this'
p6944
aS'and'
p6945
aaa(lp6946
g6938
a(lp6947
g109
aS'hope'
p6948
aS'he'
p6949
aS'doesnt'
p6950
aS'say'
p6951
aS'that'
p6952
aS'VOX'
p6953
aaa(lp6954
S'MANY'
p6955
a(lp6956
aa(lp6957
S'WALT'
p6958
a(lp6959
S'You'
p6960
aS'ever'
p6961
aS'felt'
p6962
aS'that'
p6963
aS'way'
p6964
aaa(lp6965
S'MANY'
p6966
a(lp6967
aa(lp6968
S'WALT'
p6969
a(lp6970
S'See'
p6971
aS'and'
p6972
aS'we'
p6973
aaa(lp6974
g6969
a(lp6975
S'all'
p6976
aS'of'
p6977
ag57
aS'sudden'
p6978
aS'the'
p6979
aS'fear'
p6980
aS'starts'
p6981
aaa(lp6982
S'MANY'
p6983
a(lp6984
aa(lp6985
S'WALT'
p6986
a(lp6987
g64
aS'you'
p6988
aS'know'
p6989
aS'what'
p6990
ag109
aS'mean'
p6991
ag64
aaa(lp6992
g6986
a(lp6993
S'and'
p6994
aS'it'
p6995
aS'totally'
p6996
aaa(lp6997
g6986
a(lp6998
S'our'
p6999
aS'imagination'
p7000
aS'runs'
p7001
aS'wild'
p7002
aaa(lp7003
S'MANY'
p7004
a(lp7005
aa(lp7006
S'WALT'
p7007
a(lp7008
g3227
aS'See'
p7009
aS'um'
p7010
aaa(lp7011
g7007
a(lp7012
S'fear'
p7013
aaa(lp7014
g7007
a(lp7015
S'is'
p7016
aS'really'
p7017
aaa(lp7018
g7007
a(lp7019
S'the'
p7020
aS'misuse'
p7021
aS'of'
p7022
aS'our'
p7023
aS'imagination'
p7024
aaa(lp7025
S'MANY'
p7026
a(lp7027
aa(lp7028
S'WALT'
p7029
a(lp7030
S'to'
p7031
aS'focus'
p7032
aS'on'
p7033
aS'the'
p7034
aS'negative'
p7035
aaa(lp7036
S'AUD'
p7037
a(lp7038
S'Wow'
p7039
aaa(lp7040
S'WALT'
p7041
a(lp7042
S'as'
p7043
aS'opposed'
p7044
aS'to'
p7045
aS'the'
p7046
aS'positive'
p7047
aaa(lp7048
g7041
a(lp7049
S'You'
p7050
aS'could'
p7051
aS'use'
p7052
aS'that'
p7053
aS'imagination'
p7054
aaa(lp7055
g7041
a(lp7056
S'in'
p7057
ag57
aS'great'
p7058
aS'positive'
p7059
aS'way'
p7060
aaa(lp7061
g7041
a(lp7062
S'to'
p7063
aS'give'
p7064
aS'you'
p7065
aS'courage'
p7066
ag3227
aaa(lp7067
g7041
a(lp7068
S'And'
p7069
aS'thats'
p7070
aS'really'
p7071
aS'my'
p7072
aS'second'
p7073
aS'point'
p7074
aaa(lp7075
g7041
a(lp7076
S'to'
p7077
aS'overcome'
p7078
aS'fears'
p7079
aaa(lp7080
g7041
a(lp7081
S'we'
p7082
aS'really'
p7083
aS'need'
p7084
aS'to'
p7085
aaa(lp7086
g7041
a(lp7087
S'be'
p7088
aS'able'
p7089
aS'to'
p7090
aaa(lp7091
g7041
a(lp7092
S'have'
p7093
aS'courage'
p7094
aaa(lp7095
g7041
a(lp7096
g64
aS'Look'
p7097
aS'it'
p7098
aS'at'
p7099
ag64
aS'first'
p7100
aS'John'
p7101
aS'chapter'
p7102
aS'four'
p7103
aaa(lp7104
g7041
a(lp7105
S'Actually'
p7106
aaa(lp7107
g7041
a(lp7108
g109
aS'do'
p7109
ag109
aS'dont'
p7110
aS'wanna'
p7111
aS'leave'
p7112
aS'this'
p7113
aS'first'
p7114
aS'point'
p7115
aaa(lp7116
g7041
a(lp7117
S'till'
p7118
ag109
aS'make'
p7119
aS'this'
p7120
aaa(lp7121
g7041
a(lp7122
S'this'
p7123
aS'point'
p7124
aS'within'
p7125
aS'the'
p7126
aS'point'
p7127
aaa.