(lp0
(lp1
S'KIRSTEN'
p2
a(lp3
S'Um'
p4
aaa(lp5
g2
a(lp6
S'first'
p7
aS'of'
p8
aS'all'
p9
aaa(lp10
g2
a(lp11
S'maybe'
p12
aS'you'
p13
aS'guys'
p14
aaa(lp15
g2
a(lp16
S'can'
p17
aS'tell'
p18
aS'me'
p19
aaa(lp20
g2
a(lp21
S'we'
p22
aS'talked'
p23
aS'a'
p24
aS'little'
p25
aS'bit'
p26
aS'about'
p27
aS'it'
p28
aaa(lp29
g2
a(lp30
S'last'
p31
aS'time'
p32
aS'you'
p33
aS'were'
p34
aS'here'
p35
aaa(lp36
g2
a(lp37
S'Or'
p38
aS'did'
p39
aS'we'
p40
aS'not'
p41
aaa(lp42
g2
a(lp43
S'talk'
p44
aS'about'
p45
aS'the'
p46
aS'history'
p47
aS'of'
p48
aS'the'
p49
aS'penguins'
p50
aaa(lp51
S'AMY'
p52
a(lp53
S'X'
p54
aS'Thanks'
p55
ag54
aaa(lp56
S'DON'
p57
a(lp58
S'I'
p59
aS'wasnt'
p60
aS'here'
p61
aS'that'
p62
aS'weekend'
p63
aaa(lp64
S'LORI'
p65
a(lp66
S'No'
p67
aaa(lp68
g65
a(lp69
S'No'
p70
aaa(lp71
S'KIRSTEN'
p72
a(lp73
S'Okay'
p74
aaa(lp75
S'LORI'
p76
a(lp77
S'We'
p78
aS'talked'
p79
aS'about'
p80
aS'the'
p81
aS'endangered'
p82
aS'species'
p83
aaa(lp84
S'KIRSTEN'
p85
a(lp86
S'Okay'
p87
aaa(lp88
g85
a(lp89
S'We'
p90
aS'have'
p91
aaa(lp92
S'LORI'
p93
a(lp94
aa(lp95
S'KIRSTEN'
p96
a(lp97
S'on'
p98
aS'exhibit'
p99
aS'now'
p100
aaa(lp101
g96
a(lp102
S'about'
p103
aS'L'
p104
aS'twentyfive'
p105
aS'of'
p106
aS'the'
p107
aS'thirty'
p108
aS'penguin'
p109
aS'chicks'
p110
ag104
aaa(lp111
S'AMY'
p112
a(lp113
S'Wow'
p114
aaa(lp115
S'KIRSTEN'
p116
a(lp117
S'That'
p118
aS'you'
p119
aS'have'
p120
aaa(lp121
S'ENV'
p122
a(lp123
aa(lp124
S'KIRSTEN'
p125
a(lp126
S'Um'
p127
aaa(lp128
S'LORI'
p129
a(lp130
S'Oops'
p131
aaa(lp132
S'KIRSTEN'
p133
a(lp134
S'Last'
p135
aS'year'
p136
aaa(lp137
g133
a(lp138
g59
aS's'
p139
aS'want'
p140
aS'to'
p141
aS'say'
p142
aS'around'
p143
aS'Christmas'
p144
aS'time'
p145
aaa(lp146
g133
a(lp147
S'we'
p148
aS'went'
p149
aS'down'
p150
aaa(lp151
g133
a(lp152
S'the'
p153
aS'Shed'
p154
aS'Aquarium'
p155
aaa(lp156
g133
a(lp157
S'as'
p158
aS'well'
p159
aS'as'
p160
aS'other'
p161
aS'researchers'
p162
aS'and'
p163
aS'scientists'
p164
aaa(lp165
g133
a(lp166
S'went'
p167
aS'down'
p168
aS'to'
p169
aS'Antarctica'
p170
aaa(lp171
g133
a(lp172
S'to'
p173
aS'collect'
p174
aaa(lp175
S'LORI'
p176
a(lp177
S'Mm'
p178
aaa(lp179
S'KIRSTEN'
p180
a(lp181
S'Gentu'
p182
aS'penguin'
p183
aS'eggs'
p184
aaa(lp185
g180
a(lp186
S'Okay'
p187
aaa(lp188
g180
a(lp189
S'so'
p190
aaa(lp191
g180
a(lp192
g59
aS'want'
p193
aS'to'
p194
aS'go'
p195
aS'into'
p196
ag24
aS'little'
p197
aS'bit'
p198
aS'about'
p199
aaa(lp200
g180
a(lp201
S'the'
p202
aS'history'
p203
aS'of'
p204
aS'the'
p205
aS'Gentus'
p206
aS'here'
p207
aaa(lp208
g180
a(lp209
S'um'
p210
aaa(lp211
g180
a(lp212
S'for'
p213
aS'you'
p214
aaa(lp215
g180
a(lp216
S'For'
p217
aS'Don'
p218
aS'and'
p219
aS'Lori'
p220
aaa(lp221
g180
a(lp222
S'where'
p223
aaa(lp224
g180
a(lp225
S'Where'
p226
aS'did'
p227
aS'our'
p228
aS'original'
p229
aS'Gentu'
p230
aS'penguins'
p231
aS'come'
p232
aS'from'
p233
aaa(lp234
S'DON'
p235
a(lp236
S'Uh'
p237
aaa(lp238
g235
a(lp239
S'Faulklands'
p240
aaa(lp241
g235
a(lp242
S'Wasnt'
p243
aS'it'
p244
aaa(lp245
S'KIRSTEN'
p246
a(lp247
S'Where'
p248
aS'did'
p249
aS'the'
p250
aaa(lp251
g246
a(lp252
S'But'
p253
aaa(lp254
g246
a(lp255
S'specifically'
p256
aaa(lp257
S'DON'
p258
a(lp259
S'Oh'
p260
aS'specifically'
p261
aaa(lp262
g258
a(lp263
S'in'
p264
aS'the'
p265
aS'islands'
p266
aaa(lp267
S'KIRSTEN'
p268
a(lp269
S'Where'
p270
aS'did'
p271
aS'we'
p272
aS'get'
p273
aS'them'
p274
aaa(lp275
g268
a(lp276
S'for'
p277
aS'display'
p278
aS'here'
p279
aS'at'
p280
aS'the'
p281
aS'Shed'
p282
aS'Aquarium'
p283
aaa(lp284
S'DON'
p285
a(lp286
S'Oh'
p287
aaa(lp288
g285
a(lp289
S'From'
p290
aS'the'
p291
aS'um'
p292
aaa(lp293
g285
a(lp294
S'was'
p295
aS'it'
p296
aS'Edinburgh'
p297
aS'uh'
p298
aS'Zoo'
p299
aaa(lp300
S'KIRSTEN'
p301
a(lp302
S'Yeah'
p303
aaa(lp304
g301
a(lp305
S'Great'
p306
aaa(lp307
S'DON'
p308
a(lp309
S'Yeah'
p310
aaa(lp311
S'KIRSTEN'
p312
a(lp313
S'In'
p314
aS'Scotland'
p315
aaa(lp316
S'DON'
p317
a(lp318
S'Yeah'
p319
aaa(lp320
g317
a(lp321
S'Right'
p322
aaa(lp323
S'KIRSTEN'
p324
a(lp325
S'Okay'
p326
aaa(lp327
S'AMY'
p328
a(lp329
S'Are'
p330
aS'those'
p331
aS'the'
p332
aS'ones'
p333
aS'that'
p334
aS'dont'
p335
aS'like'
p336
aS'people'
p337
aaa(lp338
g328
a(lp339
S'The'
p340
aS'handsoff'
p341
aS'ones'
p342
aaa(lp343
S'KIRSTEN'
p344
a(lp345
S'P'
p346
aS'Handsoff'
p347
aS'ones'
p348
ag346
aaa(lp349
S'AMY'
p350
a(lp351
S'That'
p352
aS'came'
p353
aS'from'
p354
aaa(lp355
g350
a(lp356
S'Wheres'
p357
aS'Ten'
p358
aS'from'
p359
aaa(lp360
S'KIRSTEN'
p361
a(lp362
S'There'
p363
aaa(lp364
S'AMY'
p365
a(lp366
S'Or'
p367
aS'is'
p368
aS'that'
p369
aaa(lp370
g365
a(lp371
S'Oh'
p372
aS'okay'
p373
aaa(lp374
S'KIRSTEN'
p375
a(lp376
S'Yeah'
p377
aaa(lp378
S'AMY'
p379
a(lp380
S'Well'
p381
aS'is'
p382
aaa(lp383
g379
a(lp384
S'Whats'
p385
aS'the'
p386
aS'other'
p387
aS'species'
p388
aaa(lp389
S'KIRSTEN'
p390
a(lp391
S'Rockhoppers'
p392
aaa(lp393
S'AMY'
p394
a(lp395
S'The'
p396
aaa(lp397
g394
a(lp398
S'No'
p399
aaa(lp400
S'KIRSTEN'
p401
a(lp402
S'Magellanics'
p403
aaa(lp404
S'DON'
p405
a(lp406
S'Magellanic'
p407
aaa(lp408
S'LORI'
p409
a(lp410
S'XXXX'
p411
aaa(lp412
S'AMY'
p413
a(lp414
S'Yeah'
p415
aaa(lp416
g413
a(lp417
S'Okay'
p418
aaa(lp419
S'KIRSTEN'
p420
a(lp421
S'Ra'
p422
aaa(lp423
g420
a(lp424
S'Magellanics'
p425
aS'came'
p426
aaa(lp427
g420
a(lp428
S'from'
p429
aS'the'
p430
aS'John'
p431
aS'Ball'
p432
aS'Zoo'
p433
aaa(lp434
g420
a(lp435
S'in'
p436
aS'Grand'
p437
aS'Rapids'
p438
aS'Michigan'
p439
aaa(lp440
S'DON'
p441
a(lp442
S'Mhm'
p443
aaa(lp444
S'KIRSTEN'
p445
a(lp446
S'So'
p447
aaa(lp448
g445
a(lp449
S'the'
p450
aS'Gentus'
p451
aaa(lp452
g445
a(lp453
S'which'
p454
aaa(lp455
g445
a(lp456
g59
aS'take'
p457
aS'it'
p458
aS'you'
p459
aS'work'
p460
aS'mammals'
p461
aS'as'
p462
aS'well'
p463
aaa(lp464
S'AMY'
p465
a(lp466
S'Yeah'
p467
aaa(lp468
S'KIRSTEN'
p469
a(lp470
S'Okay'
p471
aaa(lp472
g469
a(lp473
S'so'
p474
aS'feel'
p475
aS'free'
p476
aS'to'
p477
aS'add'
p478
aS'in'
p479
aaa(lp480
S'AMY'
p481
a(lp482
g59
aS'worked'
p483
aS'with'
p484
aS'the'
p485
aS'baby'
p486
aS'penguins'
p487
aaa(lp488
g481
a(lp489
S'when'
p490
aaa(lp491
g481
a(lp492
S'cause'
p493
aS'Ive'
p494
aS'only'
p495
aS'worked'
p496
aS'like'
p497
ag24
aS'weekend'
p498
aaa(lp499
g481
a(lp500
S'but'
p501
aS'both'
p502
aS'days'
p503
aS'were'
p504
aS'spent'
p505
aS'with'
p506
aS'the'
p507
aS'penguins'
p508
aaa(lp509
g481
a(lp510
S'Feeding'
p511
aS'the'
p512
aS'baby'
p513
aS'penguins'
p514
aS'and'
p515
aS'then'
p516
aaa(lp517
g481
a(lp518
S'Ten'
p519
aS'and'
p520
aaa(lp521
g481
a(lp522
S'all'
p523
aS'of'
p524
aS'them'
p525
aaa(lp526
S'KIRSTEN'
p527
a(lp528
S'Great'
p529
aaa(lp530
g527
a(lp531
S'Great'
p532
aaa(lp533
g527
a(lp534
S'So'
p535
aaa(lp536
g527
a(lp537
S'feel'
p538
aS'free'
p539
aaa(lp540
g527
a(lp541
S'after'
p542
aS'Ive'
p543
aS'go'
p544
aS'through'
p545
aS'this'
p546
aS'information'
p547
aaa(lp548
g527
a(lp549
S'you'
p550
aS'know'
p551
aaa(lp552
S'LORI'
p553
a(lp554
S'XX'
p555
aaa(lp556
S'KIRSTEN'
p557
a(lp558
S'share'
p559
aS'any'
p560
aS'information'
p561
aS'you'
p562
aS'might'
p563
aS'have'
p564
aaa(lp565
S'LORI'
p566
a(lp567
S'Mhm'
p568
aaa(lp569
S'AMY'
p570
a(lp571
S'Well'
p572
aS'Ill'
p573
aS'probably'
p574
aS'have'
p575
ag24
aS'lot'
p576
aS'of'
p577
aS'questions'
p578
aS'for'
p579
aS'you'
p580
aaa(lp581
S'KIRSTEN'
p582
a(lp583
S'from'
p584
aS'your'
p585
aS'experiences'
p586
aaa(lp587
S'AMY'
p588
a(lp589
S'Okay'
p590
aaa(lp591
S'KIRSTEN'
p592
a(lp593
S'Cause'
p594
aS'thats'
p595
aaa(lp596
g592
a(lp597
S'you'
p598
aS'know'
p599
aaa(lp600
S'LORI'
p601
a(lp602
S'Mhm'
p603
aaa(lp604
S'KIRSTEN'
p605
a(lp606
S'usually'
p607
aS'the'
p608
aS'best'
p609
aS'way'
p610
aS'that'
p611
aS'we'
p612
aS'can'
p613
aS'get'
p614
aaa(lp615
g605
a(lp616
S'some'
p617
aS'good'
p618
aS'detailed'
p619
aS'information'
p620
aS'is'
p621
aS'from'
p622
aaa(lp623
g605
a(lp624
S'volunteers'
p625
aaa(lp626
g605
a(lp627
S'that'
p628
aS'actually'
p629
aS'work'
p630
aaa(lp631
g605
a(lp632
S'in'
p633
aS'mammals'
p634
aaa(lp635
g605
a(lp636
S'So'
p637
aaa(lp638
g605
a(lp639
S'we'
p640
aS'love'
p641
aS'that'
p642
aaa(lp643
g605
a(lp644
S'Um'
p645
aaa(lp646
g605
a(lp647
S'anyway'
p648
aaa(lp649
g605
a(lp650
S'so'
p651
aaa(lp652
g605
a(lp653
S'we'
p654
aS'got'
p655
aS'the'
p656
aS'penguins'
p657
aaa(lp658
g605
a(lp659
S'our'
p660
aS'original'
p661
aS'batch'
p662
aS'of'
p663
aS'penguins'
p664
aaa(lp665
g605
a(lp666
S'from'
p667
aaa(lp668
g605
a(lp669
S'from'
p670
aS'this'
p671
aS'zoo'
p672
aS'in'
p673
aS'Scotland'
p674
aaa(lp675
g605
a(lp676
S'and'
p677
aaa(lp678
g605
a(lp679
S'um'
p680
aaa(lp681
g605
a(lp682
S'you'
p683
aS'know'
p684
aaa(lp685
g605
a(lp686
S'as'
p687
aS'you'
p688
aS'know'
p689
aaa(lp690
g605
a(lp691
S'you'
p692
aS'ship'
p693
aS'them'
p694
aS'over'
p695
aaa(lp696
g605
a(lp697
S'and'
p698
aS'they'
p699
aS'go'
p700
aS'into'
p701
ag24
aS'quarantine'
p702
aS'period'
p703
aaa(lp704
g605
a(lp705
S'And'
p706
aaa(lp707
g605
a(lp708
g59
aS'do'
p709
aS'believe'
p710
aS'it'
p711
aS'was'
p712
aS'thirty'
p713
aS'days'
p714
aaa(lp715
g605
a(lp716
S'Dont'
p717
aS'dont'
p718
aaa(lp719
g605
a(lp720
S'its'
p721
aS'in'
p722
aS'my'
p723
aS'literature'
p724
aS'right'
p725
aS'there'
p726
aaa(lp727
g605
a(lp728
S'Ill'
p729
aS'check'
p730
aS'for'
p731
aS'certain'
p732
aaa(lp733
g605
a(lp734
S'Uh'
p735
aaa(lp736
g605
a(lp737
S'that'
p738
aS'is'
p739
aS'required'
p740
aS'by'
p741
aS'the'
p742
aS'USDA'
p743
aaa(lp744
g605
a(lp745
S'basically'
p746
aS'theres'
p747
aaa(lp748
g605
a(lp749
S'theres'
p750
ag24
aS'disease'
p751
aS'called'
p752
aS'n'
p753
aS'Newcastles'
p754
aS'Disease'
p755
aaa(lp756
g605
a(lp757
S'that'
p758
aaa(lp759
g605
a(lp760
S'is'
p761
aS'is'
p762
aS'very'
p763
aS'contagious'
p764
aS'apparently'
p765
aaa(lp766
g605
a(lp767
S'and'
p768
aS'so'
p769
aS'theres'
p770
aS'always'
p771
aS'the'
p772
aS'potential'
p773
aaa(lp774
g605
a(lp775
S'of'
p776
aaa(lp777
g605
a(lp778
S'when'
p779
aS'you'
p780
aS'bring'
p781
ag24
aS'bird'
p782
aS'over'
p783
aaa(lp784
g605
a(lp785
S'contamidate'
p786
aaa(lp787
g605
a(lp788
S'Contaminating'
p789
aS'the'
p790
aS'poultry'
p791
aaa(lp792
S'AMY'
p793
a(lp794
S'Mm'
p795
aaa(lp796
S'KIRSTEN'
p797
a(lp798
S'Business'
p799
aaa(lp800
g797
a(lp801
S'Okay'
p802
aaa(lp803
g797
a(lp804
S'and'
p805
aS'so'
p806
aS'that'
p807
aS'is'
p808
aaa(lp809
g797
a(lp810
S'th'
p811
aS'background'
p812
aS'information'
p813
aaa(lp814
g797
a(lp815
S'for'
p816
aS'the'
p817
aS'reason'
p818
aS'for'
p819
aS'quarantining'
p820
aaa(lp821
g797
a(lp822
S'Um'
p823
aaa(lp824
g797
a(lp825
S'with'
p826
aS'our'
p827
aS'other'
p828
aS'penguins'
p829
aaa(lp830
g797
a(lp831
S'uh'
p832
aS'we'
p833
aS'brought'
p834
aS'them'
p835
aS'over'
p836
aaa(lp837
g797
a(lp838
S'from'
p839
aS'Scotland'
p840
aaa(lp841
g797
a(lp842
S'and'
p843
aaa(lp844
g797
a(lp845
S'as'
p846
aS'it'
p847
aS'turned'
p848
aS'out'
p849
aaa(lp850
g797
a(lp851
S'in'
p852
ag24
aS'quarantine'
p853
aS'period'
p854
aS'that'
p855
aS'they'
p856
aS'had'
p857
aaa(lp858
g797
a(lp859
S'that'
p860
ag24
aS'vi'
p861
aaa(lp862
g797
a(lp863
S'or'
p864
ag59
aS'should'
p865
aS'say'
p866
ag24
aS'fungus'
p867
aaa(lp868
g797
a(lp869
S'okay'
p870
aS'this'
p871
aS'Aspergillosis'
p872
aS'fungus'
p873
aaa(lp874
g797
a(lp875
S'had'
p876
aS'come'
p877
aS'to'
p878
aS'fruition'
p879
aaa(lp880
g797
a(lp881
S'and'
p882
aS'we'
p883
aS'had'
p884
aS'lost'
p885
aaa(lp886
g797
a(lp887
S'you'
p888
aS'know'
p889
ag24
aS'good'
p890
aS'portion'
p891
aS'of'
p892
aS'penguins'
p893
aaa(lp894
g797
a(lp895
S'So'
p896
aaa(lp897
S'AMY'
p898
a(lp899
g54
aS'Wow'
p900
ag54
aaa(lp901
S'KIRSTEN'
p902
a(lp903
S'okay'
p904
aaa(lp905
g902
a(lp906
S'now'
p907
aS'its'
p908
aS'time'
p909
aS'to'
p910
aS'consider'
p911
aS'replacing'
p912
aS'these'
p913
aS'penguins'
p914
aaa(lp915
g902
a(lp916
S'how'
p917
aS'do'
p918
aS'we'
p919
aS'want'
p920
aS'to'
p921
aS'go'
p922
aS'about'
p923
aS'doing'
p924
aS'that'
p925
aaa(lp926
g902
a(lp927
S'Well'
p928
aaa(lp929
g902
a(lp930
S'really'
p931
aS'didnt'
p932
aS'want'
p933
aS'to'
p934
aS'go'
p935
aaa(lp936
g902
a(lp937
S'through'
p938
aaa(lp939
g902
a(lp940
S'transporting'
p941
aS'the'
p942
aS'birds'
p943
aaa(lp944
g902
a(lp945
S'Didnt'
p946
aS'work'
p947
aS'last'
p948
aS'time'
p949
aaa(lp950
g902
a(lp951
g24
aS'potential'
p952
aS'for'
p953
aS'bringing'
p954
aS'over'
p955
aS'diseases'
p956
aaa(lp957
g902
a(lp958
S'is'
p959
aS'obviously'
p960
aS'there'
p961
aaa(lp962
g902
a(lp963
S'so'
p964
aaa(lp965
g902
a(lp966
S'the'
p967
aS'thought'
p968
aS'was'
p969
aS'okay'
p970
aS'lets'
p971
aS'get'
p972
aS'some'
p973
aS'eggs'
p974
aaa(lp975
g902
a(lp976
S'Um'
p977
aaa(lp978
g902
a(lp979
S'Sea'
p980
aS'World'
p981
aS'San'
p982
aS'Diego'
p983
aS'has'
p984
aS'Gentus'
p985
aaa(lp986
g902
a(lp987
S'and'
p988
aaa(lp989
g902
a(lp990
S'apparently'
p991
aS'just'
p992
aS'not'
p993
aS'enough'
p994
aS'eggs'
p995
aS'to'
p996
aS'share'
p997
aaa(lp998
g902
a(lp999
S'If'
p1000
aS'they'
p1001
aS'had'
p1002
aS'them'
p1003
aS'they'
p1004
aS'would'
p1005
aS'gladly'
p1006
aaa(lp1007
g902
a(lp1008
S'Same'
p1009
aS'situation'
p1010
aS'with'
p1011
aS'the'
p1012
aS'Edinburgh'
p1013
aS'Zoo'
p1014
aaa(lp1015
g902
a(lp1016
S'they'
p1017
aS'would'
p1018
aS'gladly'
p1019
aS'send'
p1020
aS'us'
p1021
aS'birds'
p1022
aaa(lp1023
g902
a(lp1024
S'but'
p1025
aaa(lp1026
g902
a(lp1027
S'they'
p1028
aS'didnt'
p1029
aS'feel'
p1030
aS'that'
p1031
aS'they'
p1032
aS'had'
p1033
aS'enough'
p1034
aS'eggs'
p1035
aaa(lp1036
g902
a(lp1037
S'to'
p1038
aS'send'
p1039
aS'over'
p1040
aaa(lp1041
g902
a(lp1042
S'So'
p1043
aaa(lp1044
g902
a(lp1045
S'we'
p1046
aS'really'
p1047
aS'didnt'
p1048
aS'want'
p1049
aS'to'
p1050
aS'go'
p1051
aS'the'
p1052
aS'bird'
p1053
aS'route'
p1054
aaa(lp1055
g902
a(lp1056
S'and'
p1057
aS'so'
p1058
aaa(lp1059
g902
a(lp1060
S'that'
p1061
aS'left'
p1062
aS'us'
p1063
aS'the'
p1064
aS'choice'
p1065
aS'of'
p1066
aS'going'
p1067
aS'down'
p1068
aS'to'
p1069
aS'Antarctica'
p1070
aaa(lp1071
g902
a(lp1072
S'and'
p1073
aS'collecting'
p1074
aS'some'
p1075
aS'peng'
p1076
aaa(lp1077
g902
a(lp1078
S'some'
p1079
aS'penguin'
p1080
aS'eggs'
p1081
aS'ourselves'
p1082
aaa(lp1083
g902
a(lp1084
S'So'
p1085
aS'they'
p1086
aS'went'
p1087
aS'to'
p1088
aaa(lp1089
g902
a(lp1090
S'and'
p1091
ag59
aS'dont'
p1092
aS'know'
p1093
aS'if'
p1094
aS'this'
p1095
aS'is'
p1096
aS'pronounced'
p1097
aS'correctly'
p1098
aaa(lp1099
g902
a(lp1100
S'Wiencke'
p1101
aS'Island'
p1102
aaa(lp1103
S'LORI'
p1104
a(lp1105
S'Yeah'
p1106
aaa(lp1107
g1104
a(lp1108
S'thats'
p1109
aS'where'
p1110
ag24
aS'lot'
p1111
aS'of'
p1112
aS'seals'
p1113
aS'are'
p1114
aS'from'
p1115
aS'as'
p1116
aS'well'
p1117
aaa(lp1118
S'DON'
p1119
a(lp1120
S'Hm'
p1121
aaa(lp1122
S'KIRSTEN'
p1123
a(lp1124
S'Okay'
p1125
aaa(lp1126
S'LORI'
p1127
a(lp1128
S'Mhm'
p1129
aaa(lp1130
S'KIRSTEN'
p1131
a(lp1132
S'Cool'
p1133
aaa(lp1134
S'LORI'
p1135
a(lp1136
S'Mhm'
p1137
aaa(lp1138
S'KIRSTEN'
p1139
a(lp1140
S'Cool'
p1141
aaa(lp1142
S'DON'
p1143
a(lp1144
S'Thatll'
p1145
aS'fit'
p1146
aS'in'
p1147
aS'with'
p1148
aS'your'
p1149
aS'class'
p1150
aaa(lp1151
S'LORI'
p1152
a(lp1153
g59
aS'know'
p1154
aaa(lp1155
S'KIRSTEN'
p1156
a(lp1157
S'Yeah'
p1158
aaa(lp1159
S'ALICE'
p1160
a(lp1161
S'Nicole'
p1162
aS'is'
p1163
aS'here'
p1164
aaa(lp1165
S'KIRSTEN'
p1166
a(lp1167
S'Hi'
p1168
aaa(lp1169
g1166
a(lp1170
S'Nicole'
p1171
aaa(lp1172
S'NICOLE'
p1173
a(lp1174
S'Hi'
p1175
aaa(lp1176
S'ALICE'
p1177
a(lp1178
S'Hey'
p1179
aS'let'
p1180
aS'me'
p1181
aaa(lp1182
S'KIRSTEN'
p1183
a(lp1184
S'how'
p1185
aS'you'
p1186
aS'doing'
p1187
aaa(lp1188
S'ALICE'
p1189
a(lp1190
S'Can'
p1191
ag59
aS'just'
p1192
aS'interrupt'
p1193
aS'for'
p1194
aS'one'
p1195
aS'minute'
p1196
aaa(lp1197
S'NICOLE'
p1198
a(lp1199
g54
aS'Oh'
p1200
ag54
aS'okay'
p1201
aaa(lp1202
S'ALICE'
p1203
a(lp1204
S'can'
p1205
ag59
aS'see'
p1206
aS'your'
p1207
aS'ID'
p1208
aaa(lp1209
S'NICOLE'
p1210
a(lp1211
S'Mine'
p1212
aaa(lp1213
S'ALICE'
p1214
a(lp1215
g59
aS'dont'
p1216
aS'think'
p1217
aS'Darren'
p1218
aS'put'
p1219
aS'anything'
p1220
aS'on'
p1221
aS'it'
p1222
aaa(lp1223
S'NICOLE'
p1224
a(lp1225
S'HI'
p1226
aS'Mhm'
p1227
aS'HI'
p1228
aaa(lp1229
S'ALICE'
p1230
a(lp1231
S'Right'
p1232
aaa(lp1233
g1230
a(lp1234
S'Okay'
p1235
aaa(lp1236
S'KIRSTEN'
p1237
a(lp1238
S'Why'
p1239
aS'dont'
p1240
aS'you'
p1241
aS'have'
p1242
ag24
aS'seat'
p1243
aaa(lp1244
S'NICOLE'
p1245
a(lp1246
S'Sure'
p1247
aaa(lp1248
S'LORI'
p1249
a(lp1250
aa(lp1251
g1249
a(lp1252
S'PX'
p1253
aS'Oh'
p1254
aS'Im'
p1255
aS'tired'
p1256
aS'XP'
p1257
aaa(lp1258
S'KIRSTEN'
p1259
a(lp1260
S'So'
p1261
aaa(lp1262
g1259
a(lp1263
S'they'
p1264
aS'went'
p1265
aS'to'
p1266
aS'Wiencke'
p1267
aS'Island'
p1268
aaa(lp1269
g1259
a(lp1270
S'where'
p1271
ag24
aS'lot'
p1272
aS'of'
p1273
aS'seals'
p1274
aS'are'
p1275
aS'from'
p1276
aaa(lp1277
g1259
a(lp1278
S'and'
p1279
aaa(lp1280
S'LORI'
p1281
a(lp1282
S'Mhm'
p1283
aaa(lp1284
S'AMY'
p1285
a(lp1286
S'XXXX'
p1287
aaa(lp1288
S'LORI'
p1289
a(lp1290
aa(lp1291
S'NICOLE'
p1292
a(lp1293
g54
aaa(lp1294
S'KIRSTEN'
p1295
a(lp1296
S'collected'
p1297
aS'eggs'
p1298
aaa(lp1299
S'LORI'
p1300
a(lp1301
S'Mhm'
p1302
aaa(lp1303
S'KIRSTEN'
p1304
a(lp1305
S'Okay'
p1306
aaa(lp1307
g1304
a(lp1308
S'so'
p1309
aaa(lp1310
g1304
a(lp1311
S'the'
p1312
aS'process'
p1313
aS'was'
p1314
aaa(lp1315
g1304
a(lp1316
S'Im'
p1317
aS'just'
p1318
aS'gonna'
p1319
aS'finish'
p1320
aS'up'
p1321
aS'on'
p1322
aS'my'
p1323
aS'story'
p1324
aaa(lp1325
g1304
a(lp1326
S'the'
p1327
aS'process'
p1328
aS'was'
p1329
aaa(lp1330
g1304
a(lp1331
S'was'
p1332
aS'they'
p1333
aaa(lp1334
g1304
a(lp1335
S'um'
p1336
aaa(lp1337
g1304
a(lp1338
S'they'
p1339
aS'went'
p1340
aS'to'
p1341
aS'the'
p1342
aS'nest'
p1343
aaa(lp1344
g1304
a(lp1345
S'okay'
p1346
aS'from'
p1347
aS'our'
p1348
aS'staff'
p1349
aaa(lp1350
g1304
a(lp1351
S'it'
p1352
aS'was'
p1353
aS'Mark'
p1354
aS'Ryan'
p1355
aS'from'
p1356
aS'marine'
p1357
aS'mammals'
p1358
aaa(lp1359
g1304
a(lp1360
S'and'
p1361
aS'Mike'
p1362
aS'Mulligan'
p1363
aS'from'
p1364
aS'fishes'
p1365
aaa(lp1366
g1304
a(lp1367
S'and'
p1368
aaa(lp1369
g1304
a(lp1370
S'frankly'
p1371
ag59
aS'Im'
p1372
aS'not'
p1373
aS'quite'
p1374
aS'sure'
p1375
aS'who'
p1376
aS'the'
p1377
aS'entourage'
p1378
aS'of'
p1379
aS'other'
p1380
aS'people'
p1381
aS'were'
p1382
aaa(lp1383
g1304
a(lp1384
S'But'
p1385
aaa(lp1386
g1304
a(lp1387
S'they'
p1388
aS'went'
p1389
aS'to'
p1390
aS'the'
p1391
aS'nest'
p1392
aaa(lp1393
g1304
a(lp1394
S'and'
p1395
aS'basically'
p1396
aaa(lp1397
g1304
a(lp1398
S'waited'
p1399
aS'for'
p1400
aS'the'
p1401
aS'penguin'
p1402
aS'to'
p1403
aS'stand'
p1404
aS'up'
p1405
aaa(lp1406
g1304
a(lp1407
S'and'
p1408
aS'checked'
p1409
aS'to'
p1410
aS'see'
p1411
aS'if'
p1412
aS'there'
p1413
aS'were'
p1414
aS'two'
p1415
aS'eggs'
p1416
aS'there'
p1417
aaa(lp1418
S'AMY'
p1419
a(lp1420
S'Hm'
p1421
aaa(lp1422
S'KIRSTEN'
p1423
a(lp1424
S'Gentu'
p1425
aS'penguins'
p1426
aaa(lp1427
g1423
a(lp1428
S'and'
p1429
aS'this'
p1430
aS'isn'
p1431
aaa(lp1432
g1423
a(lp1433
S'isnt'
p1434
aS'true'
p1435
aS'of'
p1436
aS'all'
p1437
aS'penguins'
p1438
aaa(lp1439
g1423
a(lp1440
S'often'
p1441
aaa(lp1442
g1423
a(lp1443
S'when'
p1444
ag24
aS'penguin'
p1445
aS'lays'
p1446
aS'eggs'
p1447
aaa(lp1448
g1423
a(lp1449
S'if'
p1450
aS'it'
p1451
aS'lays'
p1452
aS'two'
p1453
aaa(lp1454
g1423
a(lp1455
S'one'
p1456
aS'is'
p1457
aS'smaller'
p1458
aS'than'
p1459
aS'the'
p1460
aS'other'
p1461
aaa(lp1462
g1423
a(lp1463
S'Gentus'
p1464
aS'lay'
p1465
aS'two'
p1466
aS'equally'
p1467
aS'sized'
p1468
aS'eggs'
p1469
aaa(lp1470
g1423
a(lp1471
S'Okay'
p1472
aaa(lp1473
g1423
a(lp1474
S'um'
p1475
aaa(lp1476
S'LORI'
p1477
a(lp1478
S'Hm'
p1479
aaa(lp1480
S'KIRSTEN'
p1481
a(lp1482
S'the'
p1483
aS'reason'
p1484
ag59
aS'mentioned'
p1485
aS'that'
p1486
aS'was'
p1487
aaa(lp1488
g1481
a(lp1489
S'if'
p1490
aS'one'
p1491
aS'was'
p1492
aS'smaller'
p1493
aaa(lp1494
g1481
a(lp1495
S'he'
p1496
aS'would'
p1497
aS'have'
p1498
aS'went'
p1499
aS'for'
p1500
aS'the'
p1501
aS'smaller'
p1502
aS'egg'
p1503
aaa(lp1504
g1481
a(lp1505
S'Okay'
p1506
aaa(lp1507
S'DON'
p1508
a(lp1509
S'Why'
p1510
aaa(lp1511
S'KIRSTEN'
p1512
a(lp1513
S'Because'
p1514
aS'that'
p1515
aS'would'
p1516
aS'probably'
p1517
aS'mean'
p1518
aS'that'
p1519
aaa(lp1520
S'LORI'
p1521
a(lp1522
S'Female'
p1523
aaa(lp1524
S'KIRSTEN'
p1525
a(lp1526
S'Do'
p1527
aS'you'
p1528
aS'remember'
p1529
aS'reading'
p1530
aaa(lp1531
g1525
a(lp1532
S'in'
p1533
aS'the'
p1534
aS'exhibit'
p1535
aS'for'
p1536
aS'the'
p1537
aS'Rockhopper'
p1538
aS'penguins'
p1539
aaa(lp1540
g1525
a(lp1541
S'downstairs'
p1542
aaa(lp1543
g1525
a(lp1544
S'they'
p1545
aS'lay'
p1546
aS'two'
p1547
aS'different'
p1548
aS'sized'
p1549
aS'eggs'
p1550
aaa(lp1551
S'DON'
p1552
a(lp1553
S'Mhm'
p1554
aaa(lp1555
S'KIRSTEN'
p1556
a(lp1557
S'Depending'
p1558
aS'on'
p1559
aS'the'
p1560
aS'year'
p1561
aaa(lp1562
g1556
a(lp1563
S'and'
p1564
aS'depending'
p1565
aS'on'
p1566
aS'the'
p1567
aS'conditions'
p1568
aS'of'
p1569
aS'light'
p1570
aaa(lp1571
g1556
a(lp1572
S'um'
p1573
aaa(lp1574
g1556
a(lp1575
S'if'
p1576
aS'its'
p1577
ag24
aS'bad'
p1578
aS'year'
p1579
aaa(lp1580
g1556
a(lp1581
S'or'
p1582
aS'theres'
p1583
aS'just'
p1584
aS'not'
p1585
ag24
aS'lot'
p1586
aS'of'
p1587
aS'food'
p1588
aS'resources'
p1589
aaa(lp1590
g1556
a(lp1591
S'um'
p1592
aaa(lp1593
g1556
a(lp1594
S'environmental'
p1595
aS'conditions'
p1596
aS'are'
p1597
aS'rough'
p1598
aaa(lp1599
g1556
a(lp1600
S'its'
p1601
ag24
aS'stormy'
p1602
aS'bad'
p1603
aS'year'
p1604
aaa(lp1605
S'LORI'
p1606
a(lp1607
S'Mhm'
p1608
aaa(lp1609
S'KIRSTEN'
p1610
a(lp1611
S'A'
p1612
aS'penguin'
p1613
aS'might'
p1614
aS'lay'
p1615
aS'two'
p1616
aS'eggs'
p1617
aaa(lp1618
g1610
a(lp1619
S'and'
p1620
aS'at'
p1621
aS'that'
p1622
aS'point'
p1623
aaa(lp1624
g1610
a(lp1625
g346
ag59
aS'dont'
p1626
ag346
aaa(lp1627
g1610
a(lp1628
g59
aS'dont'
p1629
aS'really'
p1630
aS'wanna'
p1631
aS'use'
p1632
aS'the'
p1633
aS'word'
p1634
aS'VOX'
p1635
aS'decide'
p1636
aS'VOX'
p1637
aaa(lp1638
S'LORI'
p1639
a(lp1640
S'Mhm'
p1641
aaa(lp1642
S'KIRSTEN'
p1643
a(lp1644
S'thats'
p1645
aS'kind'
p1646
aS'of'
p1647
aS'anthropomorphic'
p1648
aaa(lp1649
g1643
a(lp1650
S'but'
p1651
aaa(lp1652
g1643
a(lp1653
S'somehow'
p1654
aS'figure'
p1655
aS'out'
p1656
aaa(lp1657
g1643
a(lp1658
S'Q'
p1659
aS'at'
p1660
aS'this'
p1661
aS'point'
p1662
aS'Im'
p1663
aS'gonna'
p1664
aS'kick'
p1665
aS'out'
p1666
aS'an'
p1667
aS'egg'
p1668
ag1659
aaa(lp1669
S'LORI'
p1670
a(lp1671
S'Determine'
p1672
aaa(lp1673
S'DON'
p1674
a(lp1675
S'Ah'
p1676
aaa(lp1677
S'LORI'
p1678
a(lp1679
S'Mhm'
p1680
aaa(lp1681
S'KIRSTEN'
p1682
a(lp1683
S'Im'
p1684
aS'going'
p1685
aS'to'
p1686
aS'determine'
p1687
aaa(lp1688
g1682
a(lp1689
S'through'
p1690
aS'whatever'
p1691
aaa(lp1692
S'AMY'
p1693
a(lp1694
S'Mm'
p1695
aaa(lp1696
S'KIRSTEN'
p1697
a(lp1698
S'however'
p1699
aS'it'
p1700
aS'does'
p1701
aS'determine'
p1702
aS'to'
p1703
aS'do'
p1704
aS'so'
p1705
aaa(lp1706
S'NICOLE'
p1707
a(lp1708
S'Hm'
p1709
aaa(lp1710
S'KIRSTEN'
p1711
a(lp1712
S'will'
p1713
aS'kick'
p1714
aS'out'
p1715
aS'an'
p1716
aS'egg'
p1717
aaa(lp1718
S'NICOLE'
p1719
a(lp1720
aa(lp1721
S'KIRSTEN'
p1722
a(lp1723
S'Otherwise'
p1724
aaa(lp1725
g1722
a(lp1726
S'it'
p1727
aS'will'
p1728
aS'brood'
p1729
aS'the'
p1730
aS'two'
p1731
aS'eggs'
p1732
aaa(lp1733
g1722
a(lp1734
S'and'
p1735
aS'hatch'
p1736
aS'em'
p1737
aS'out'
p1738
aaa(lp1739
g1722
a(lp1740
S'Its'
p1741
aS'not'
p1742
aS'uncommon'
p1743
aS'that'
p1744
aaa(lp1745
g1722
a(lp1746
S'at'
p1747
aS'this'
p1748
aS'point'
p1749
aaa(lp1750
g1722
a(lp1751
S'theyll'
p1752
aS'kick'
p1753
aS'out'
p1754
aS'the'
p1755
aS'smaller'
p1756
aS'chick'
p1757
aaa(lp1758
S'DON'
p1759
a(lp1760
S'Right'
p1761
aaa(lp1762
S'KIRSTEN'
p1763
a(lp1764
S'If'
p1765
aS'at'
p1766
aS'that'
p1767
aS'point'
p1768
aS'conditions'
p1769
aS'dont'
p1770
aS'seem'
p1771
aS'to'
p1772
aS'be'
p1773
aS'sufficient'
p1774
aS'to'
p1775
aS'support'
p1776
aS'raising'
p1777
aS'two'
p1778
aS'of'
p1779
aS'em'
p1780
aaa(lp1781
g1763
a(lp1782
S'its'
p1783
aS'kind'
p1784
aS'of'
p1785
aS'like'
p1786
aaa(lp1787
g1763
a(lp1788
S'hey'
p1789
aaa(lp1790
g1763
a(lp1791
S'why'
p1792
aS'bother'
p1793
aaa(lp1794
S'LORI'
p1795
a(lp1796
S'Mhm'
p1797
aaa(lp1798
S'KIRSTEN'
p1799
a(lp1800
S'And'
p1801
aS'kick'
p1802
aS'out'
p1803
aaa(lp1804
g1799
a(lp1805
S'one'
p1806
aS'of'
p1807
aaa(lp1808
g1799
a(lp1809
S'One'
p1810
aS'of'
p1811
aS'the'
p1812
aS'chicks'
p1813
aaa(lp1814
g1799
a(lp1815
S'If'
p1816
aS'its'
p1817
ag24
aS'F'
p1818
aS'great'
p1819
aS'year'
p1820
aaa(lp1821
g1799
a(lp1822
S'on'
p1823
aS'fat'
p1824
aaa(lp1825
g1799
a(lp1826
S'theres'
p1827
aS'food'
p1828
aaa(lp1829
g1799
a(lp1830
S'di'
p1831
aS'its'
p1832
ag24
aS'beautiful'
p1833
aS'day'
p1834
ag1818
aaa(lp1835
S'DON'
p1836
a(lp1837
S'Its'
p1838
aS'called'
p1839
aS'penguin'
p1840
aS'euthanasia'
p1841
aaa(lp1842
S'LORI'
p1843
a(lp1844
aa(lp1845
S'KIRSTEN'
p1846
a(lp1847
S'Okay'
p1848
aaa(lp1849
S'DON'
p1850
a(lp1851
aa(lp1852
S'KIRSTEN'
p1853
a(lp1854
aa(lp1855
S'DON'
p1856
a(lp1857
S'WH'
p1858
aS'WH'
p1859
aaa(lp1860
S'KIRSTEN'
p1861
a(lp1862
S'Theyll'
p1863
aS'theyll'
p1864
aaa(lp1865
g1861
a(lp1866
S'theyll'
p1867
aS'try'
p1868
aS'to'
p1869
aS'raise'
p1870
aS'both'
p1871
aaa(lp1872
S'LORI'
p1873
a(lp1874
aa(lp1875
S'KIRSTEN'
p1876
a(lp1877
S'So'
p1878
aaa(lp1879
S'LORI'
p1880
a(lp1881
aa(lp1882
S'KIRSTEN'
p1883
a(lp1884
g59
aS'didnt'
p1885
aS'catch'
p1886
aS'that'
p1887
aaa(lp1888
g1883
a(lp1889
S'What'
p1890
aS'wa'
p1891
aaa(lp1892
S'DON'
p1893
a(lp1894
S'Its'
p1895
aS'called'
p1896
aS'penguin'
p1897
aS'euthanasia'
p1898
aaa(lp1899
S'KIRSTEN'
p1900
a(lp1901
S'Sh'
p1902
aaa(lp1903
S'LORI'
p1904
a(lp1905
aa(lp1906
S'KIRSTEN'
p1907
a(lp1908
S'Ch'
p1909
aaa(lp1910
g1907
a(lp1911
S'WH'
p1912
aS'Yeah'
p1913
aS'WH'
p1914
aaa(lp1915
S'LORI'
p1916
a(lp1917
aa(lp1918
S'KIRSTEN'
p1919
a(lp1920
S'Um'
p1921
aaa(lp1922
g1919
a(lp1923
S'so'
p1924
aaa(lp1925
g1919
a(lp1926
S'anyway'
p1927
aaa(lp1928
g1919
a(lp1929
S'Apparently'
p1930
aS'what'
p1931
aS'th'
p1932
aS'what'
p1933
aS'they'
p1934
aaa(lp1935
g1919
a(lp1936
S'Now'
p1937
aS'at'
p1938
aS'this'
p1939
aS'point'
p1940
aS'they'
p1941
aS'wanted'
p1942
aS'to'
p1943
aS'see'
p1944
aaa(lp1945
g1919
a(lp1946
S'okay'
p1947
aaa(lp1948
g1919
a(lp1949
S'now'
p1950
aaa(lp1951
g1919
a(lp1952
S'is'
p1953
aS'there'
p1954
aS'actually'
p1955
ag24
aS'fertile'
p1956
aaa(lp1957
g1919
a(lp1958
S'Is'
p1959
aS'there'
p1960
ag24
aS'fertile'
p1961
aS'chick'
p1962
aaa(lp1963
g1919
a(lp1964
S'or'
p1965
aS'developing'
p1966
aS'chick'
p1967
aS'inside'
p1968
aaa(lp1969
S'LORI'
p1970
a(lp1971
S'Mhm'
p1972
aaa(lp1973
S'KIRSTEN'
p1974
a(lp1975
S'And'
p1976
aaa(lp1977
g1974
a(lp1978
S'apparently'
p1979
aS'it'
p1980
aS'was'
p1981
aS'very'
p1982
aS'very'
p1983
aS'muddy'
p1984
aaa(lp1985
g1974
a(lp1986
S'it'
p1987
aS'was'
p1988
aS'abnormally'
p1989
aS'warm'
p1990
aaa(lp1991
g1974
a(lp1992
S'and'
p1993
aS'it'
p1994
aS'was'
p1995
aS'just'
p1996
ag24
aS'big'
p1997
aS'mudbath'
p1998
aS'out'
p1999
aS'there'
p2000
aaa(lp2001
g1974
a(lp2002
S'and'
p2003
aS'they'
p2004
aS'couldnt'
p2005
aaa(lp2006
g1974
a(lp2007
S'They'
p2008
aS'couldnt'
p2009
aS'clean'
p2010
aS'off'
p2011
aS'the'
p2012
aS'mud'
p2013
aS'enough'
p2014
aaa(lp2015
g1974
a(lp2016
S'to'
p2017
aS'be'
p2018
aS'able'
p2019
aS'to'
p2020
aS'see'
p2021
aS'inside'
p2022
aaa(lp2023
g1974
a(lp2024
S'To'
p2025
aS'see'
p2026
aS'if'
p2027
aaa(lp2028
g1974
a(lp2029
S'if'
p2030
aS'it'
p2031
aS'was'
p2032
aS'viable'
p2033
aaa(lp2034
g1974
a(lp2035
S'So'
p2036
aaa(lp2037
g1974
a(lp2038
S'they'
p2039
aS'took'
p2040
aS'an'
p2041
aS'egg'
p2042
aS'from'
p2043
aS'nests'
p2044
aaa(lp2045
g1974
a(lp2046
S'that'
p2047
aS'had'
p2048
aS'two'
p2049
aS'eggs'
p2050
aaa(lp2051
g1974
a(lp2052
S'And'
p2053
ag59
aS'think'
p2054
aS'this'
p2055
aS'this'
p2056
aS'report'
p2057
aS'says'
p2058
aaa(lp2059
g1974
a(lp2060
S'within'
p2061
aS'thirtyone'
p2062
aS'hours'
p2063
aaa(lp2064
g1974
a(lp2065
S'the'
p2066
aS'eggs'
p2067
aS'were'
p2068
aS'back'
p2069
aS'here'
p2070
aS'in'
p2071
aS'Chicago'
p2072
aaa(lp2073
S'LORI'
p2074
a(lp2075
S'Wow'
p2076
aaa(lp2077
S'KIRSTEN'
p2078
a(lp2079
S'Thats'
p2080
aS'pretty'
p2081
aS'neat'
p2082
aaa(lp2083
S'NICOLE'
p2084
a(lp2085
S'Oh'
p2086
aaa(lp2087
S'KIRSTEN'
p2088
a(lp2089
S'And'
p2090
aS'then'
p2091
aaa(lp2092
g2088
a(lp2093
S'they'
p2094
aS'took'
p2095
aS'them'
p2096
aS'to'
p2097
aS'an'
p2098
ag104
aS'offsite'
p2099
aS'incubation'
p2100
aS'area'
p2101
ag104
aaa(lp2102
g2088
a(lp2103
S'in'
p2104
aS'Addison'
p2105
aaa(lp2106
g2088
a(lp2107
S'Is'
p2108
aS'anybody'
p2109
aS'from'
p2110
aS'Addison'
p2111
aaa(lp2112
g2088
a(lp2113
g59
aS'dont'
p2114
aS'know'
p2115
aS'where'
p2116
aS'Addison'
p2117
aS'is'
p2118
aaa(lp2119
S'NICOLE'
p2120
a(lp2121
g54
ag59
aS'dont'
p2122
aS'either'
p2123
ag139
ag54
aaa(lp2124
S'X'
p2125
a(lp2126
S'Its'
p2127
ag24
aS'west'
p2128
aS'suburb'
p2129
aaa(lp2130
S'KIRSTEN'
p2131
a(lp2132
S'West'
p2133
aaa(lp2134
S'AMY'
p2135
a(lp2136
g54
aS'Yes'
p2137
ag54
aaa(lp2138
S'KIRSTEN'
p2139
a(lp2140
S'So'
p2141
aS'they'
p2142
aS'were'
p2143
aS'out'
p2144
aS'in'
p2145
aS'the'
p2146
aS'west'
p2147
aS'suburbs'
p2148
aaa(lp2149
g2139
a(lp2150
S'And'
p2151
aS'incubated'
p2152
aS'there'
p2153
aaa(lp2154
S'X'
p2155
a(lp2156
aa(lp2157
S'AMY'
p2158
a(lp2159
aa(lp2160
S'LORI'
p2161
a(lp2162
S'Mm'
p2163
aaa(lp2164
S'AMY'
p2165
a(lp2166
aa(lp2167
S'KIRSTEN'
p2168
a(lp2169
S'And'
p2170
aaa(lp2171
g2168
a(lp2172
S'apparently'
p2173
aS'now'
p2174
aS'theyre'
p2175
aS'about'
p2176
aaa(lp2177
g2168
a(lp2178
S'six'
p2179
aS'to'
p2180
aS'seven'
p2181
aS'weeks'
p2182
aS'old'
p2183
aaa(lp2184
S'NICOLE'
p2185
a(lp2186
S'Wow'
p2187
aaa(lp2188
S'AMY'
p2189
a(lp2190
S'When'
p2191
ag59
aS'was'
p2192
aS'here'
p2193
aS'two'
p2194
aS'weeks'
p2195
aS'ago'
p2196
aaa(lp2197
g2189
a(lp2198
S'they'
p2199
aS'were'
p2200
aS'sixty'
p2201
aS'days'
p2202
aaa(lp2203
S'KIRSTEN'
p2204
a(lp2205
S'T'
p2206
ag139
aS'two'
p2207
aS'weeks'
p2208
aS'ago'
p2209
aS'it'
p2210
aS'was'
p2211
aS'sixty'
p2212
aS'days'
p2213
aaa(lp2214
S'AMY'
p2215
a(lp2216
g59
aS'think'
p2217
aaa(lp2218
g2215
a(lp2219
S'maybe'
p2220
aS'it'
p2221
aS'was'
p2222
aS'four'
p2223
aS'weeks'
p2224
aS'ago'
p2225
aaa(lp2226
S'KIRSTEN'
p2227
a(lp2228
S'Okay'
p2229
aaa(lp2230
S'AMY'
p2231
a(lp2232
S'Yeah'
p2233
aaa(lp2234
S'KIRSTEN'
p2235
a(lp2236
g59
aS'think'
p2237
aaa(lp2238
g2235
a(lp2239
g59
aS'think'
p2240
aS'theyre'
p2241
aS'around'
p2242
aS'six'
p2243
aS'weeks'
p2244
aS'old'
p2245
aaa(lp2246
S'LORI'
p2247
a(lp2248
S'Mm'
p2249
aaa(lp2250
S'KIRSTEN'
p2251
a(lp2252
S'Okay'
p2253
aaa(lp2254
g2251
a(lp2255
S'But'
p2256
aS'when'
p2257
aS'you'
p2258
aS'see'
p2259
aS'them'
p2260
aaa(lp2261
g2251
a(lp2262
S'youll'
p2263
aS'see'
p2264
aS'that'
p2265
aS'theyre'
p2266
aS'just'
p2267
aS'about'
p2268
aS'as'
p2269
aS'big'
p2270
aS'as'
p2271
aS'number'
p2272
aS'ten'
p2273
aaa(lp2274
g2251
a(lp2275
S'Theyre'
p2276
aS'big'
p2277
aaa(lp2278
S'LORI'
p2279
a(lp2280
S'Nkay'
p2281
aaa(lp2282
S'AMY'
p2283
a(lp2284
S'Yeah'
p2285
aaa(lp2286
g2283
a(lp2287
S'When'
p2288
ag59
aaa(lp2289
g2283
a(lp2290
S'Yeah'
p2291
aaa(lp2292
g2283
a(lp2293
S'when'
p2294
ag59
aS'was'
p2295
aS'here'
p2296
aS'they'
p2297
aS'had'
p2298
aaa(lp2299
g2283
a(lp2300
S'they'
p2301
aS'were'
p2302
aS'losing'
p2303
aS'all'
p2304
aS'of'
p2305
aS'their'
p2306
aS'hair'
p2307
aaa(lp2308
g2283
a(lp2309
S'And'
p2310
aS'they'
p2311
aS'looked'
p2312
aaa(lp2313
g2283
a(lp2314
S'the'
p2315
aS'two'
p2316
aS'oldest'
p2317
aS'ones'
p2318
aS'looked'
p2319
aS'like'
p2320
aS'Ten'
p2321
aaa(lp2322
S'KIRSTEN'
p2323
a(lp2324
S'Right'
p2325
aaa(lp2326
g2323
a(lp2327
S'Right'
p2328
aaa(lp2329
g2323
a(lp2330
S'So'
p2331
aS'basically'
p2332
aaa(lp2333
g2323
a(lp2334
S'what'
p2335
aS'the'
p2336
aS'process'
p2337
aS'has'
p2338
aS'been'
p2339
aS'is'
p2340
aaa(lp2341
g2323
a(lp2342
S'we'
p2343
aS'brought'
p2344
aS'them'
p2345
aS'here'
p2346
aS'as'
p2347
aS'chicks'
p2348
aaa(lp2349
g2323
a(lp2350
S'but'
p2351
aS'they'
p2352
aS'still'
p2353
aS'had'
p2354
aS'their'
p2355
aS'downy'
p2356
aS'feathers'
p2357
aaa(lp2358
g2323
a(lp2359
S'Okay'
p2360
aaa(lp2361
g2323
a(lp2362
S'so'
p2363
aaa(lp2364
g2323
a(lp2365
S'as'
p2366
aS'they'
p2367
aS'lost'
p2368
aS'their'
p2369
aS'downy'
p2370
aS'feathers'
p2371
aaa(lp2372
g2323
a(lp2373
S'they'
p2374
aS'became'
p2375
aS'eligible'
p2376
aS'to'
p2377
aS'go'
p2378
aS'out'
p2379
aS'onto'
p2380
aS'exhibit'
p2381
aaa(lp2382
g2323
a(lp2383
S'And'
p2384
aS'so'
p2385
aS'what'
p2386
aS'they'
p2387
aS'did'
p2388
aS'last'
p2389
aS'time'
p2390
aS'you'
p2391
aS'guys'
p2392
aS'were'
p2393
aS'here'
p2394
aaa(lp2395
g2323
a(lp2396
S'there'
p2397
aS'was'
p2398
aS'maybe'
p2399
aS'ten'
p2400
aaa(lp2401
g2323
a(lp2402
S'That'
p2403
aS'were'
p2404
aaa(lp2405
g2323
a(lp2406
S'you'
p2407
aS'know'
p2408
aaa(lp2409
g2323
a(lp2410
g59
aS'say'
p2411
aS'eligible'
p2412
aaa(lp2413
g2323
a(lp2414
S'to'
p2415
aS'be'
p2416
aS'out'
p2417
aS'on'
p2418
aS'exhibit'
p2419
aaa(lp2420
S'NICOLE'
p2421
a(lp2422
aa(lp2423
S'KIRSTEN'
p2424
a(lp2425
S'and'
p2426
aS'what'
p2427
aS'they'
p2428
aS'would'
p2429
aS'do'
p2430
aS'is'
p2431
aaa(lp2432
g2424
a(lp2433
S'they'
p2434
aS'would'
p2435
aS'carry'
p2436
aS'them'
p2437
aS'in'
p2438
aaa(lp2439
g2424
a(lp2440
S'let'
p2441
aS'them'
p2442
aS'hang'
p2443
aS'out'
p2444
aS'for'
p2445
aS'about'
p2446
ag24
aS'half'
p2447
aS'an'
p2448
aS'hour'
p2449
aaa(lp2450
g2424
a(lp2451
S'get'
p2452
aS'acclimated'
p2453
aS'to'
p2454
aS'what'
p2455
aS'was'
p2456
aS'going'
p2457
aS'on'
p2458
aaa(lp2459
g2424
a(lp2460
S'and'
p2461
aS'then'
p2462
aS'take'
p2463
aS'them'
p2464
aS'off'
p2465
aaa(lp2466
g2424
a(lp2467
S'And'
p2468
aS'do'
p2469
aS'this'
p2470
aaa(lp2471
g2424
a(lp2472
S'Now'
p2473
aS'theyre'
p2474
aS'out'
p2475
aaa(lp2476
g2424
a(lp2477
S'Now'
p2478
aS'theyre'
p2479
aaa(lp2480
g2424
a(lp2481
S'they'
p2482
aS'are'
p2483
aS'out'
p2484
aS'on'
p2485
aS'exhibit'
p2486
aaa(lp2487
S'DON'
p2488
a(lp2489
S'All'
p2490
aS'of'
p2491
aS'them'
p2492
aaa(lp2493
S'KIRSTEN'
p2494
a(lp2495
S'Almost'
p2496
aS'all'
p2497
aS'of'
p2498
aS'em'
p2499
aaa(lp2500
g2494
a(lp2501
S'Two'
p2502
aS'days'
p2503
aS'ago'
p2504
aS'there'
p2505
aS'was'
p2506
aS'twentyfive'
p2507
aS'out'
p2508
aS'on'
p2509
aS'exhibit'
p2510
aaa(lp2511
g2494
a(lp2512
S'So'
p2513
aS'we'
p2514
aS'have'
p2515
aS'thirty'
p2516
aS'chicks'
p2517
aS'total'
p2518
aaa(lp2519
S'DON'
p2520
a(lp2521
S'Right'
p2522
aaa(lp2523
S'LORI'
p2524
a(lp2525
S'Hm'
p2526
aaa(lp2527
S'KIRSTEN'
p2528
a(lp2529
S'So'
p2530
aaa(lp2531
g2528
a(lp2532
S'twentyfive'
p2533
aS'plus'
p2534
aS'are'
p2535
aS'out'
p2536
aS'on'
p2537
aS'exhibit'
p2538
aaa(lp2539
S'DON'
p2540
a(lp2541
S'Okay'
p2542
aaa(lp2543
S'KIRSTEN'
p2544
a(lp2545
S'Um'
p2546
aaa(lp2547
g2544
a(lp2548
S'thing'
p2549
aS'of'
p2550
aS'it'
p2551
aS'is'
p2552
aaa(lp2553
g2544
a(lp2554
S'is'
p2555
aS'lets'
p2556
aS'think'
p2557
ag24
aS'little'
p2558
aS'bit'
p2559
aS'about'
p2560
aS'penguin'
p2561
aS'natural'
p2562
aS'history'
p2563
aaa(lp2564
g2544
a(lp2565
S'Okay'
p2566
aaa(lp2567
g2544
a(lp2568
S'How'
p2569
aaa(lp2570
g2544
a(lp2571
S'how'
p2572
aS'long'
p2573
aS'do'
p2574
aS'penguins'
p2575
aS'spend'
p2576
aS'on'
p2577
aS'land'
p2578
aaa(lp2579
S'DON'
p2580
a(lp2581
S'Three'
p2582
aS'months'
p2583
ag59
aS'think'
p2584
aaa(lp2585
S'KIRSTEN'
p2586
a(lp2587
S'Whats'
p2588
aS'your'
p2589
aS'guess'
p2590
aaa(lp2591
S'LORI'
p2592
a(lp2593
S'Uh'
p2594
aaa(lp2595
S'DON'
p2596
a(lp2597
S'Three'
p2598
aS'or'
p2599
aS'is'
p2600
aS'it'
p2601
aaa(lp2602
g2596
a(lp2603
S'three'
p2604
aS'to'
p2605
aS'six'
p2606
aS'months'
p2607
aaa(lp2608
S'KIRSTEN'
p2609
a(lp2610
S'Okay'
p2611
aaa(lp2612
S'LORI'
p2613
a(lp2614
S'Um'
p2615
aaa(lp2616
g2613
a(lp2617
S'four'
p2618
aaa(lp2619
g2613
a(lp2620
S'Five'
p2621
aaa(lp2622
S'KIRSTEN'
p2623
a(lp2624
S'Six'
p2625
aaa(lp2626
S'DON'
p2627
a(lp2628
S'Six'
p2629
aaa(lp2630
S'KIRSTEN'
p2631
a(lp2632
S'Okay'
p2633
aaa(lp2634
S'NICOLE'
p2635
a(lp2636
S'Six'
p2637
aS'months'
p2638
aaa(lp2639
S'KIRSTEN'
p2640
a(lp2641
S'So'
p2642
aaa(lp2643
g2640
a(lp2644
S'its'
p2645
aS'its'
p2646
aS'basically'
p2647
aaa(lp2648
S'NICOLE'
p2649
a(lp2650
S'Wow'
p2651
aaa(lp2652
S'KIRSTEN'
p2653
a(lp2654
S'its'
p2655
aS'an'
p2656
aS'even'
p2657
aS'even'
p2658
aS'split'
p2659
aaa(lp2660
S'DON'
p2661
a(lp2662
aa(lp2663
S'KIRSTEN'
p2664
a(lp2665
S'between'
p2666
aaa(lp2667
g2664
a(lp2668
S'life'
p2669
aS'out'
p2670
aS'at'
p2671
aS'sea'
p2672
aS'and'
p2673
aS'life'
p2674
aS'on'
p2675
aS'land'
p2676
aaa(lp2677
g2664
a(lp2678
S'So'
p2679
aS'the'
p2680
aS'sequence'
p2681
aS'of'
p2682
aS'events'
p2683
aS'is'
p2684
aaa(lp2685
g2664
a(lp2686
S'they'
p2687
aS'come'
p2688
aS'on'
p2689
aS'to'
p2690
aS'shore'
p2691
aaa(lp2692
g2664
a(lp2693
S'springtime'
p2694
aaa(lp2695
g2664
a(lp2696
S'they'
p2697
aS'hook'
p2698
aS'up'
p2699
aS'with'
p2700
aS'their'
p2701
aS'mate'
p2702
aaa(lp2703
g2664
a(lp2704
S'they'
p2705
aS'build'
p2706
ag24
aS'nest'
p2707
aaa(lp2708
g2664
a(lp2709
S'they'
p2710
aS'mate'
p2711
aaa(lp2712
g2664
a(lp2713
S'they'
p2714
aS'lay'
p2715
aS'their'
p2716
aS'eggs'
p2717
aaa(lp2718
g2664
a(lp2719
S'they'
p2720
aS'brood'
p2721
aS'their'
p2722
aS'eggs'
p2723
aaa(lp2724
g2664
a(lp2725
S'they'
p2726
aS'hatch'
p2727
aS'their'
p2728
aS'chicks'
p2729
aaa(lp2730
g2664
a(lp2731
S'they'
p2732
aS'brood'
p2733
aS'their'
p2734
aS'chicks'
p2735
aaa(lp2736
g2664
a(lp2737
S'they'
p2738
aS'feed'
p2739
aS'their'
p2740
aS'chicks'
p2741
aaa(lp2742
g2664
a(lp2743
S'they'
p2744
aS'molt'
p2745
aaa(lp2746
g2664
a(lp2747
S'and'
p2748
aS'then'
p2749
aS'theyre'
p2750
aS'out'
p2751
aS'to'
p2752
aS'sea'
p2753
aaa(lp2754
g2664
a(lp2755
S'So'
p2756
aS'all'
p2757
aS'of'
p2758
aS'that'
p2759
aS'has'
p2760
aS'to'
p2761
aS'happen'
p2762
aaa(lp2763
g2664
a(lp2764
S'within'
p2765
aS'that'
p2766
aS'sixmonth'
p2767
aS'period'
p2768
aaa(lp2769
g2664
a(lp2770
S'thats'
p2771
ag24
aS'pretty'
p2772
aS'busy'
p2773
aS'bird'
p2774
aaa(lp2775
S'LORI'
p2776
a(lp2777
aa(lp2778
S'NICOLE'
p2779
a(lp2780
aa(lp2781
S'KIRSTEN'
p2782
a(lp2783
S'so'
p2784
aaa(lp2785
S'DON'
p2786
a(lp2787
S'WH'
p2788
aS'WH'
p2789
aaa(lp2790
S'KIRSTEN'
p2791
a(lp2792
S'the'
p2793
aS'penguins'
p2794
aS'need'
p2795
aS'to'
p2796
aS'grow'
p2797
aaa(lp2798
g2791
a(lp2799
S'the'
p2800
aS'chicks'
p2801
aaa(lp2802
g2791
a(lp2803
S'in'
p2804
aS'order'
p2805
aS'to'
p2806
aS'be'
p2807
aS'ready'
p2808
aaa(lp2809
g2791
a(lp2810
S'to'
p2811
aS'go'
p2812
aS'out'
p2813
aS'there'
p2814
aaa(lp2815
g2791
a(lp2816
S'for'
p2817
aS'six'
p2818
aS'months'
p2819
aS'out'
p2820
aS'at'
p2821
aS'sea'
p2822
aaa(lp2823
g2791
a(lp2824
S'really'
p2825
aS'need'
p2826
aS'to'
p2827
aS'be'
p2828
aS'very'
p2829
aS'well'
p2830
aS'suited'
p2831
aS'for'
p2832
aS'that'
p2833
aaa(lp2834
S'DON'
p2835
a(lp2836
aa(lp2837
S'KIRSTEN'
p2838
a(lp2839
S'So'
p2840
aS'they'
p2841
aS'nee'
p2842
aS'need'
p2843
aS'to'
p2844
aS'be'
p2845
aS'big'
p2846
aaa(lp2847
g2838
a(lp2848
S'they'
p2849
aS'need'
p2850
aS'to'
p2851
aS'be'
p2852
aS'hefty'
p2853
aaa(lp2854
g2838
a(lp2855
S'they'
p2856
aS'need'
p2857
aS'to'
p2858
aS'have'
p2859
aS'their'
p2860
aS'adult'
p2861
aS'feathers'
p2862
aaa(lp2863
g2838
a(lp2864
S'so'
p2865
aaa(lp2866
S'AMY'
p2867
a(lp2868
S'Mm'
p2869
aaa(lp2870
S'KIRSTEN'
p2871
a(lp2872
S'between'
p2873
aS'the'
p2874
aS'time'
p2875
aS'that'
p2876
aS'they'
p2877
aS'actually'
p2878
aS'hatch'
p2879
aS'out'
p2880
aaa(lp2881
g2871
a(lp2882
S'and'
p2883
aS'the'
p2884
aS'time'
p2885
aS'that'
p2886
aS'theyre'
p2887
aS'ready'
p2888
aS'to'
p2889
aS'go'
p2890
aS'out'
p2891
aS'to'
p2892
aS'sea'
p2893
aaa(lp2894
g2871
a(lp2895
S'is'
p2896
aS'just'
p2897
ag24
aS'couple'
p2898
aS'of'
p2899
aS'months'
p2900
aaa(lp2901
S'NICOLE'
p2902
a(lp2903
S'How'
p2904
aS'long'
p2905
aS'does'
p2906
aS'it'
p2907
aS'take'
p2908
aS'for'
p2909
aS'them'
p2910
aS'to'
p2911
aS'hatch'
p2912
aaa(lp2913
S'KIRSTEN'
p2914
a(lp2915
S'Well'
p2916
aS'the'
p2917
aS'incubation'
p2918
aS'period'
p2919
aaa(lp2920
S'NICOLE'
p2921
a(lp2922
S'Or'
p2923
aS'um'
p2924
aaa(lp2925
g2921
a(lp2926
g54
aS'to'
p2927
aS'have'
p2928
aS'experience'
p2929
ag54
aaa(lp2930
S'KIRSTEN'
p2931
a(lp2932
S'is'
p2933
aS'anywhere'
p2934
aaa(lp2935
g2931
a(lp2936
S'depends'
p2937
aS'on'
p2938
aS'the'
p2939
aS'species'
p2940
aaa(lp2941
g2931
a(lp2942
S'its'
p2943
aS'its'
p2944
aS'one'
p2945
aS'month'
p2946
aS'to'
p2947
aS'two'
p2948
aS'months'
p2949
aaa(lp2950
S'NICOLE'
p2951
a(lp2952
S'Oh'
p2953
aS'okay'
p2954
aaa(lp2955
S'KIRSTEN'
p2956
a(lp2957
S'Okay'
p2958
aaa(lp2959
g2956
a(lp2960
S'so'
p2961
aaa(lp2962
g2956
a(lp2963
S'therefore'
p2964
aaa(lp2965
g2956
a(lp2966
S'you'
p2967
aS'know'
p2968
aS'basically'
p2969
aaa(lp2970
g2956
a(lp2971
S'between'
p2972
aS'building'
p2973
ag24
aS'nest'
p2974
aaa(lp2975
g2956
a(lp2976
S'and'
p2977
aS'mating'
p2978
aaa(lp2979
g2956
a(lp2980
S'and'
p2981
aS'all'
p2982
aS'of'
p2983
aS'that'
p2984
aS'other'
p2985
aS'stuff'
p2986
aaa(lp2987
g2956
a(lp2988
S'you'
p2989
aS'know'
p2990
aS'they'
p2991
aaa(lp2992
g2956
a(lp2993
g59
aS'would'
p2994
aS'say'
p2995
aS'that'
p2996
aS'they'
p2997
aS'have'
p2998
aS'three'
p2999
aS'months'
p3000
aaa(lp3001
g2956
a(lp3002
S'to'
p3003
aS'to'
p3004
aS'grow'
p3005
aS'and'
p3006
aS'get'
p3007
aS'ready'
p3008
aaa(lp3009
g2956
a(lp3010
S'Okay'
p3011
aaa(lp3012
g2956
a(lp3013
S'So'
p3014
aS'theyre'
p3015
aS'big'
p3016
aaa(lp3017
g2956
a(lp3018
S'Now'
p3019
aS'the'
p3020
aS'funny'
p3021
aS'thing'
p3022
aS'is'
p3023
aaa(lp3024
g2956
a(lp3025
S'is'
p3026
aS'that'
p3027
aaa(lp3028
g2956
a(lp3029
S'according'
p3030
aS'to'
p3031
aS'Mark'
p3032
aS'Ryan'
p3033
aaa(lp3034
g2956
a(lp3035
S'VOX'
p3036
aS'well'
p3037
aS'VOX'
p3038
aaa(lp3039
g2956
a(lp3040
S'hmm'
p3041
aaa(lp3042
S'NICOLE'
p3043
a(lp3044
aa(lp3045
S'KIRSTEN'
p3046
a(lp3047
S'Or'
p3048
aS'just'
p3049
aS'interesting'
p3050
aaa(lp3051
g3046
a(lp3052
g59
aS'guess'
p3053
aaa(lp3054
g3046
a(lp3055
S'Go'
p3056
aS'watch'
p3057
aS'them'
p3058
aaa(lp3059
g3046
a(lp3060
S'um'
p3061
aaa(lp3062
S'LORI'
p3063
a(lp3064
S'Mhm'
p3065
aaa(lp3066
S'KIRSTEN'
p3067
a(lp3068
S'if'
p3069
aS'you'
p3070
aS'watch'
p3071
aS'the'
p3072
aS'trainers'
p3073
aaa(lp3074
g3067
a(lp3075
S'they'
p3076
aS'walk'
p3077
aS'into'
p3078
aS'the'
p3079
aS'exhibit'
p3080
aaa(lp3081
g3067
a(lp3082
S'and'
p3083
aS'they'
p3084
aS'start'
p3085
aS'throwing'
p3086
aS'penguins'
p3087
aS'into'
p3088
aS'the'
p3089
aS'water'
p3090
aaa(lp3091
g3067
a(lp3092
S'And'
p3093
aS'pushing'
p3094
aS'them'
p3095
aS'in'
p3096
aaa(lp3097
g3067
a(lp3098
S'and'
p3099
aS'theyre'
p3100
aS'all'
p3101
aS'over'
p3102
aS'the'
p3103
aS'place'
p3104
aaa(lp3105
g3067
a(lp3106
S'um'
p3107
aaa(lp3108
S'NICOLE'
p3109
a(lp3110
aa(lp3111
S'KIRSTEN'
p3112
a(lp3113
S'they'
p3114
aS'try'
p3115
aS'to'
p3116
aS'get'
p3117
aS'out'
p3118
aaa(lp3119
g3112
a(lp3120
S'sometimes'
p3121
aS'they'
p3122
aS'make'
p3123
aS'it'
p3124
aaa(lp3125
g3112
a(lp3126
S'sometimes'
p3127
aS'they'
p3128
aS'fall'
p3129
aS'back'
p3130
aS'in'
p3131
aaa(lp3132
g3112
a(lp3133
S'Gentus'
p3134
aS'usually'
p3135
aS'dive'
p3136
aS'in'
p3137
aS'head'
p3138
aS'first'
p3139
aaa(lp3140
g3112
a(lp3141
S'these'
p3142
aS'guys'
p3143
aS'are'
p3144
aS'falling'
p3145
aS'in'
p3146
aaa(lp3147
S'AMY'
p3148
a(lp3149
aa(lp3150
S'KIRSTEN'
p3151
a(lp3152
S'jumping'
p3153
aS'in'
p3154
aaa(lp3155
g3151
a(lp3156
S'diving'
p3157
aS'in'
p3158
aaa(lp3159
g3151
a(lp3160
S'so'
p3161
aS'their'
p3162
aS'behaviors'
p3163
aS'if'
p3164
aS'you'
p3165
aS'will'
p3166
aS'are'
p3167
aaa(lp3168
g3151
a(lp3169
S'are'
p3170
aS'really'
p3171
aS'interesting'
p3172
aaa(lp3173
g3151
a(lp3174
S'Okay'
p3175
aaa(lp3176
S'LORI'
p3177
a(lp3178
S'Mhm'
p3179
aaa(lp3180
S'KIRSTEN'
p3181
a(lp3182
S'Its'
p3183
aS'just'
p3184
aaa(lp3185
g3181
a(lp3186
S'its'
p3187
aS'just'
p3188
ag24
aS'lot'
p3189
aS'of'
p3190
aS'fun'
p3191
aS'to'
p3192
aS'watch'
p3193
aS'them'
p3194
aaa(lp3195
g3181
a(lp3196
S'Um'
p3197
aaa(lp3198
g3181
a(lp3199
S'theyre'
p3200
aS'doing'
p3201
aS'something'
p3202
aS'different'
p3203
aS'with'
p3204
aS'these'
p3205
aS'chicks'
p3206
aS'than'
p3207
aS'weve'
p3208
aS'done'
p3209
aS'with'
p3210
aS'the'
p3211
aS'other'
p3212
aS'penguins'
p3213
aaa(lp3214
g3181
a(lp3215
S'is'
p3216
aS'that'
p3217
aS'theyre'
p3218
aS'trying'
p3219
aS'to'
p3220
aS'feed'
p3221
aS'them'
p3222
aS'crill'
p3223
aaa(lp3224
g3181
a(lp3225
S'Um'
p3226
aaa(lp3227
g3181
a(lp3228
S'yesterday'
p3229
ag59
aS'think'
p3230
aS'is'
p3231
aS'th'
p3232
aS'is'
p3233
aS'th'
p3234
aS'is'
p3235
aS'when'
p3236
aS'they'
p3237
aS'tried'
p3238
aS'it'
p3239
aS'for'
p3240
aS'the'
p3241
aS'first'
p3242
aS'time'
p3243
aaa(lp3244
g3181
a(lp3245
S'and'
p3246
aS'that'
p3247
aS'crill'
p3248
aaa(lp3249
g3181
a(lp3250
S'is'
p3251
aS'about'
p3252
aS'as'
p3253
aS'big'
p3254
aS'as'
p3255
aaa(lp3256
S'LORI'
p3257
a(lp3258
S'Mhm'
p3259
aaa(lp3260
S'KIRSTEN'
p3261
a(lp3262
S'you'
p3263
aS'know'
p3264
aS'from'
p3265
aS'my'
p3266
aS'joint'
p3267
aaa(lp3268
g3261
a(lp3269
S'up'
p3270
aS'to'
p3271
aS'the'
p3272
aS'top'
p3273
aS'of'
p3274
aS'my'
p3275
aS'finger'
p3276
aS'here'
p3277
aaa(lp3278
g3261
a(lp3279
S'so'
p3280
aS'its'
p3281
aS'very'
p3282
aS'difficult'
p3283
aS'for'
p3284
ag24
aS'person'
p3285
aS'to'
p3286
aS'hold'
p3287
ag24
aS'crill'
p3288
aaa(lp3289
S'NICOLE'
p3290
a(lp3291
aa(lp3292
S'KIRSTEN'
p3293
a(lp3294
S'and'
p3295
aS'drop'
p3296
aS'it'
p3297
aS'into'
p3298
ag24
aS'penguins'
p3299
aS'mouth'
p3300
aaa(lp3301
g3293
a(lp3302
S'So'
p3303
aaa(lp3304
g3293
a(lp3305
S'very'
p3306
aS'good'
p3307
aS'f'
p3308
ag139
aS'food'
p3309
aS'source'
p3310
aS'for'
p3311
aS'them'
p3312
aaa(lp3313
g3293
a(lp3314
S'thats'
p3315
aS'what'
p3316
aS'they'
p3317
aS'would'
p3318
aS'feed'
p3319
aS'on'
p3320
aS'in'
p3321
aS'the'
p3322
aS'wild'
p3323
aaa(lp3324
g3293
a(lp3325
S'in'
p3326
aS'addition'
p3327
aS'to'
p3328
aS'other'
p3329
aS'things'
p3330
aaa(lp3331
g3293
a(lp3332
S'so'
p3333
aaa(lp3334
g3293
a(lp3335
S'what'
p3336
aS'theyre'
p3337
aS'trying'
p3338
aS'to'
p3339
aS'do'
p3340
aS'is'
p3341
aaa(lp3342
g3293
a(lp3343
S'theyre'
p3344
aS'throwing'
p3345
aS'the'
p3346
aS'crill'
p3347
aS'into'
p3348
aS'the'
p3349
aS'water'
p3350
aaa(lp3351
g3293
a(lp3352
S'and'
p3353
aS'seeing'
p3354
aS'if'
p3355
aS'the'
p3356
aS'chicksll'
p3357
aS'go'
p3358
aS'for'
p3359
aS'it'
p3360
aaa(lp3361
g3293
a(lp3362
S'So'
p3363
aS'they'
p3364
aS'tried'
p3365
aS'it'
p3366
aS'yesterday'
p3367
aaa(lp3368
g3293
a(lp3369
S'and'
p3370
aS'they'
p3371
aS'had'
p3372
aS'some'
p3373
aS'mixed'
p3374
aS'success'
p3375
aaa(lp3376
g3293
a(lp3377
S'you'
p3378
aS'know'
p3379
aS'some'
p3380
aS'animals'
p3381
aS'were'
p3382
aS'interested'
p3383
aaa(lp3384
g3293
a(lp3385
S'others'
p3386
aS'werent'
p3387
aaa(lp3388
g3293
a(lp3389
S'So'
p3390
aaa(lp3391
g3293
a(lp3392
S'y'
p3393
ag24
aS'apparently'
p3394
aS'they'
p3395
aS'theyll'
p3396
aS'keep'
p3397
aS'doing'
p3398
aS'this'
p3399
aaa(lp3400
g3293
a(lp3401
S'So'
p3402
aaa(lp3403
g3293
a(lp3404
S'Did'
p3405
aaa(lp3406
g3293
a(lp3407
S'Were'
p3408
aS'they'
p3409
aS'werent'
p3410
aS'doing'
p3411
aS'that'
p3412
aS'when'
p3413
aS'you'
p3414
aS'were'
p3415
aS'in'
p3416
aS'there'
p3417
aaa(lp3418
S'AMY'
p3419
a(lp3420
S'No'
p3421
aaa(lp3422
g3419
a(lp3423
S'No'
p3424
aS'no'
p3425
aS'no'
p3426
aaa(lp3427
S'KIRSTEN'
p3428
a(lp3429
S'Okay'
p3430
aaa(lp3431
g3428
a(lp3432
S'When'
p3433
aS'they'
p3434
aS'were'
p3435
aS'chicks'
p3436
aaa(lp3437
g3428
a(lp3438
S'cause'
p3439
aS'what'
p3440
aS'is'
p3441
aS'it'
p3442
aaa(lp3443
g3428
a(lp3444
S'How'
p3445
aS'does'
p3446
ag24
aS'mother'
p3447
aS'feed'
p3448
ag24
aS'penguin'
p3449
aS'chick'
p3450
aaa(lp3451
S'LORI'
p3452
a(lp3453
S'Doesnt'
p3454
aS'she'
p3455
aS'bring'
p3456
aS'food'
p3457
aS'to'
p3458
aS'it'
p3459
aaa(lp3460
S'AMY'
p3461
a(lp3462
S'She'
p3463
aS'regurgitates'
p3464
aS'it'
p3465
aaa(lp3466
S'KIRSTEN'
p3467
a(lp3468
S'She'
p3469
aS'regurgitates'
p3470
aS'it'
p3471
aaa(lp3472
S'LORI'
p3473
a(lp3474
S'Oh'
p3475
aaa(lp3476
S'KIRSTEN'
p3477
a(lp3478
g59
aS'sh'
p3479
aS'shouldnt'
p3480
aS'say'
p3481
aS'she'
p3482
aaa(lp3483
g3477
a(lp3484
S'cause'
p3485
aS'mother'
p3486
aS'and'
p3487
aS'father'
p3488
aS'share'
p3489
aaa(lp3490
S'LORI'
p3491
a(lp3492
S'Both'
p3493
aaa(lp3494
S'NICOLE'
p3495
a(lp3496
S'Oh'
p3497
aaa(lp3498
S'KIRSTEN'
p3499
a(lp3500
S'share'
p3501
aS'the'
p3502
aS'duties'
p3503
aaa(lp3504
g3499
a(lp3505
S'okay'
p3506
aaa(lp3507
g3499
a(lp3508
S'But'
p3509
aS'yeah'
p3510
aaa(lp3511
g3499
a(lp3512
S'they'
p3513
aS'go'
p3514
aS'out'
p3515
aaa(lp3516
g3499
a(lp3517
S'they'
p3518
aS'feed'
p3519
aaa(lp3520
g3499
a(lp3521
S'and'
p3522
aS'they'
p3523
aS'regurgitate'
p3524
aS'up'
p3525
aS'the'
p3526
aS'food'
p3527
aaa(lp3528
g3499
a(lp3529
S'and'
p3530
aS'thats'
p3531
aS'how'
p3532
aS'they'
p3533
aS'feed'
p3534
aS'the'
p3535
aS'chicks'
p3536
aaa(lp3537
S'NICOLE'
p3538
a(lp3539
S'Mm'
p3540
aaa(lp3541
S'LORI'
p3542
a(lp3543
S'Actually'
p3544
aS'other'
p3545
aS'birds'
p3546
aS'do'
p3547
aS'that'
p3548
aS'as'
p3549
aS'well'
p3550
aaa(lp3551
S'KIRSTEN'
p3552
a(lp3553
g1612
aS'lot'
p3554
aaa(lp3555
S'AMY'
p3556
a(lp3557
S'Mhm'
p3558
aaa(lp3559
S'LORI'
p3560
a(lp3561
S'Dont'
p3562
aS'they'
p3563
aaa(lp3564
g3560
a(lp3565
g24
aS'lot'
p3566
aS'of'
p3567
aS'birds'
p3568
aS'do'
p3569
aaa(lp3570
S'AMY'
p3571
a(lp3572
S'Yeah'
p3573
aaa(lp3574
S'KIRSTEN'
p3575
a(lp3576
S'Yeah'
p3577
aaa(lp3578
g3575
a(lp3579
g1612
aS'lot'
p3580
aS'of'
p3581
aS'birds'
p3582
aS'do'
p3583
aaa(lp3584
S'LORI'
p3585
a(lp3586
S'Thats'
p3587
aS'right'
p3588
aaa(lp3589
S'KIRSTEN'
p3590
a(lp3591
S'They'
p3592
aS'never'
p3593
aS'really'
p3594
aS'did'
p3595
aS'any'
p3596
aaa(lp3597
g3590
a(lp3598
S'well'
p3599
aaa(lp3600
g3590
a(lp3601
S'we'
p3602
aS'h'
p3603
aS'didnt'
p3604
aS'regurgitate'
p3605
aS'for'
p3606
aS'them'
p3607
aaa(lp3608
g3590
a(lp3609
S'but'
p3610
aaa(lp3611
S'LORI'
p3612
a(lp3613
aa(lp3614
S'KIRSTEN'
p3615
a(lp3616
S'they'
p3617
aS'started'
p3618
aS'them'
p3619
aS'off'
p3620
aS'with'
p3621
aS'um'
p3622
aS'strips'
p3623
aS'of'
p3624
aS'fish'
p3625
aaa(lp3626
g3615
a(lp3627
S'and'
p3628
aS'they'
p3629
aS'actually'
p3630
aS'dipped'
p3631
aS'it'
p3632
aS'in'
p3633
ag24
aS'vitamin'
p3634
aS'and'
p3635
aS'um'
p3636
aS'pureed'
p3637
aS'crill'
p3638
aS'batter'
p3639
aaa(lp3640
S'LORI'
p3641
a(lp3642
S'Mm'
p3643
aaa(lp3644
S'NICOLE'
p3645
a(lp3646
aa(lp3647
S'KIRSTEN'
p3648
a(lp3649
S'Dipped'
p3650
aS'it'
p3651
aS'in'
p3652
aaa(lp3653
g3648
a(lp3654
S'and'
p3655
aS'then'
p3656
aS'gave'
p3657
aS'it'
p3658
aS'to'
p3659
aS'the'
p3660
aS'penguin'
p3661
aS'chicks'
p3662
aaa(lp3663
g3648
a(lp3664
S'So'
p3665
aS'theyve'
p3666
aS'been'
p3667
aS'on'
p3668
aS'solid'
p3669
aS'food'
p3670
aaa(lp3671
S'LORI'
p3672
a(lp3673
S'Hm'
p3674
aaa(lp3675
S'KIRSTEN'
p3676
a(lp3677
S'for'
p3678
aS'quite'
p3679
aS'some'
p3680
aS'time'
p3681
aaa(lp3682
g3676
a(lp3683
S'and'
p3684
aS'now'
p3685
aS'its'
p3686
aS'just'
p3687
aS'interesting'
p3688
aS'to'
p3689
aS'see'
p3690
aS'if'
p3691
aS'theyll'
p3692
aS'just'
p3693
aS'go'
p3694
aS'for'
p3695
aS'the'
p3696
aS'crill'
p3697
aS'itself'
p3698
aaa(lp3699
S'AMY'
p3700
a(lp3701
S'Are'
p3702
aS'they'
p3703
aaa(lp3704
g3700
a(lp3705
g59
aS'mean'
p3706
aaa(lp3707
g3700
a(lp3708
S'are'
p3709
aS'they'
p3710
aS'being'
p3711
aS'hesitant'
p3712
aS'about'
p3713
aS'it'
p3714
aaa(lp3715
S'KIRSTEN'
p3716
a(lp3717
g59
aS'didnt'
p3718
aS'see'
p3719
aS'it'
p3720
aaa(lp3721
g3716
a(lp3722
S'Yesterday'
p3723
aS'was'
p3724
aS'the'
p3725
aS'first'
p3726
aS'time'
p3727
aaa(lp3728
S'AMY'
p3729
a(lp3730
S'Because'
p3731
aaa(lp3732
S'KIRSTEN'
p3733
a(lp3734
S'they'
p3735
aS'did'
p3736
aS'it'
p3737
aS'at'
p3738
aS'eleven'
p3739
aS'thirty'
p3740
aS'and'
p3741
aS'four'
p3742
aS'oclock'
p3743
aaa(lp3744
g3733
a(lp3745
S'Where'
p3746
aS'the'
p3747
aaa(lp3748
S'AMY'
p3749
a(lp3750
S'Thats'
p3751
aS'really'
p3752
aS'interesting'
p3753
aaa(lp3754
g3749
a(lp3755
S'because'
p3756
aaa(lp3757
g3749
a(lp3758
g59
aS'mean'
p3759
aaa(lp3760
g3749
a(lp3761
S'going'
p3762
aS'from'
p3763
aS'being'
p3764
aS'handfed'
p3765
aaa(lp3766
S'KIRSTEN'
p3767
a(lp3768
S'Right'
p3769
aaa(lp3770
g3767
a(lp3771
S'Right'
p3772
aaa(lp3773
g3767
a(lp3774
S'So'
p3775
ag59
aS'dont'
p3776
aS'know'
p3777
aaa(lp3778
g3767
a(lp3779
S'So'
p3780
ag59
aS'would'
p3781
aS'say'
p3782
aaa(lp3783
g3767
a(lp3784
S'if'
p3785
aS'youve'
p3786
aS'got'
p3787
aS'the'
p3788
aS'time'
p3789
aaa(lp3790
g3767
a(lp3791
S'or'
p3792
aS'if'
p3793
aS'you'
p3794
aS'wanna'
p3795
aS'make'
p3796
aS'the'
p3797
aS'time'
p3798
aS'to'
p3799
aS'be'
p3800
aS'down'
p3801
aS'there'
p3802
aS'at'
p3803
aS'four'
p3804
aS'thirty'
p3805
aaa(lp3806
g3767
a(lp3807
S'hopefully'
p3808
aS'theyll'
p3809
aS'do'
p3810
aS'it'
p3811
aS'again'
p3812
aS'today'
p3813
aaa(lp3814
g3767
a(lp3815
S'and'
p3816
aS'itll'
p3817
aS'be'
p3818
aS'interesting'
p3819
aS'to'
p3820
aS'see'
p3821
aaa(lp3822
g3767
a(lp3823
S'so'
p3824
aaa(lp3825
g3767
a(lp3826
S'Ill'
p3827
aS'find'
p3828
aS'out'
p3829
aS'from'
p3830
aS'Mark'
p3831
aaa(lp3832
g3767
a(lp3833
S'Um'
p3834
aaa(lp3835
g3767
a(lp3836
S'you'
p3837
aS'know'
p3838
aS'what'
p3839
aS'the'
p3840
aS'response'
p3841
aS'with'
p3842
aS'that'
p3843
aS'is'
p3844
aaa(lp3845
S'LORI'
p3846
a(lp3847
S'So'
p3848
aS'four'
p3849
aS'thirtys'
p3850
aS'chick'
p3851
aS'feeding'
p3852
aaa(lp3853
S'KIRSTEN'
p3854
a(lp3855
S'Yes'
p3856
aaa(lp3857
S'DON'
p3858
a(lp3859
S'Are'
p3860
aS'there'
p3861
aS'any'
p3862
aS'particular'
p3863
aS'trainers'
p3864
aS'working'
p3865
aS'with'
p3866
aS'the'
p3867
aS'penguins'
p3868
aaa(lp3869
g3858
a(lp3870
S'uh'
p3871
aaa(lp3872
g3858
a(lp3873
S'hm'
p3874
aaa(lp3875
g3858
a(lp3876
S'Are'
p3877
aS'all'
p3878
aS'the'
p3879
aS'trainers'
p3880
aS'allowed'
p3881
aS'to'
p3882
aS'work'
p3883
aS'with'
p3884
aS'the'
p3885
aS'penguins'
p3886
aaa(lp3887
S'KIRSTEN'
p3888
a(lp3889
S'Yeah'
p3890
aaa(lp3891
g3888
a(lp3892
S'Well'
p3893
aS'basically'
p3894
aS'here'
p3895
aaa(lp3896
g3888
a(lp3897
S'um'
p3898
aaa(lp3899
g3888
a(lp3900
S'all'
p3901
aS'of'
p3902
aS'the'
p3903
aS'trainers'
p3904
aS'work'
p3905
aS'with'
p3906
aS'all'
p3907
aS'of'
p3908
aS'the'
p3909
aS'animals'
p3910
aaa(lp3911
g3888
a(lp3912
S'So'
p3913
aaa(lp3914
g3888
a(lp3915
S'they'
p3916
aS'rotate'
p3917
aS'them'
p3918
aS'around'
p3919
aaa(lp3920
g3888
a(lp3921
S'basically'
p3922
aaa(lp3923
g3888
a(lp3924
g346
aS'Excuse'
p3925
aS'me'
p3926
ag346
aaa(lp3927
g3888
a(lp3928
S'So'
p3929
aS'that'
p3930
aS'the'
p3931
aS'animals'
p3932
aS'dont'
p3933
aS'get'
p3934
aS'attached'
p3935
aS'to'
p3936
aS'one'
p3937
aS'person'
p3938
aaa(lp3939
g3888
a(lp3940
S'Because'
p3941
aS'if'
p3942
aS'that'
p3943
aS'person'
p3944
aS'decides'
p3945
aS'to'
p3946
aS'leave'
p3947
aaa(lp3948
g3888
a(lp3949
S'then'
p3950
aaa(lp3951
g3888
a(lp3952
S'that'
p3953
aS'could'
p3954
aS'be'
p3955
aS'detrimental'
p3956
aS'to'
p3957
aS'the'
p3958
aS'animals'
p3959
aaa(lp3960
g3888
a(lp3961
S'But'
p3962
aaa(lp3963
g3888
a(lp3964
S'we'
p3965
aS'do'
p3966
aS'have'
p3967
ag24
aS'lead'
p3968
aaa(lp3969
g3888
a(lp3970
g24
aS'lead'
p3971
aS'person'
p3972
aS'for'
p3973
aS'each'
p3974
aS'animal'
p3975
aaa(lp3976
S'LORI'
p3977
a(lp3978
aa(lp3979
S'KIRSTEN'
p3980
a(lp3981
S'Mark'
p3982
aS'Ryan'
p3983
aS'is'
p3984
aS'lead'
p3985
aS'penguins'
p3986
aaa(lp3987
S'DON'
p3988
a(lp3989
S'Mhm'
p3990
aaa(lp3991
S'KIRSTEN'
p3992
a(lp3993
S'Meg'
p3994
aS'is'
p3995
aS'lead'
p3996
aS'otter'
p3997
aaa(lp3998
g3992
a(lp3999
S'Lisa'
p4000
aS'Takaki'
p4001
aS'was'
p4002
aS'lead'
p4003
aS'lag'
p4004
aaa(lp4005
S'DON'
p4006
a(lp4007
g54
aaa(lp4008
S'LORI'
p4009
a(lp4010
S'Mhm'
p4011
aaa(lp4012
S'KIRSTEN'
p4013
a(lp4014
S'Greg'
p4015
aS'is'
p4016
aS'lead'
p4017
aS'seal'
p4018
aaa(lp4019
g4013
a(lp4020
S'So'
p4021
aaa(lp4022
g4013
a(lp4023
S'Mark'
p4024
aS'is'
p4025
aS'basically'
p4026
aS'calling'
p4027
aS'the'
p4028
aS'shots'
p4029
aaa(lp4030
g4013
a(lp4031
S'for'
p4032
aS'how'
p4033
aS'the'
p4034
aS'programs'
p4035
aS'gonna'
p4036
aS'be'
p4037
aS'structured'
p4038
aaa(lp4039
g4013
a(lp4040
S'So'
p4041
aS'hes'
p4042
aaa(lp4043
g4013
a(lp4044
S'hes'
p4045
aS'the'
p4046
aS'penguin'
p4047
aS'trivia'
p4048
aS'guy'
p4049
aaa(lp4050
g4013
a(lp4051
S'So'
p4052
aaa(lp4053
g4013
a(lp4054
S'its'
p4055
ag24
aS'neat'
p4056
aS'story'
p4057
aaa(lp4058
S'LORI'
p4059
a(lp4060
S'Mhm'
p4061
aaa(lp4062
S'KIRSTEN'
p4063
a(lp4064
S'its'
p4065
aS'its'
p4066
ag24
aS'very'
p4067
aS'neat'
p4068
aS'background'
p4069
aS'story'
p4070
aaa(lp4071
g4063
a(lp4072
S'and'
p4073
aaa(lp4074
g4063
a(lp4075
g59
aS'think'
p4076
aaa(lp4077
g4063
a(lp4078
S'you'
p4079
aS'know'
p4080
aaa(lp4081
g4063
a(lp4082
S'for'
p4083
ag139
aS'for'
p4084
aS'some'
p4085
aS'of'
p4086
aS'us'
p4087
aaa(lp4088
g4063
a(lp4089
S'underwater'
p4090
aS'viewing'
p4091
aS'gallery'
p4092
aS'has'
p4093
aS'not'
p4094
aS'been'
p4095
aS'your'
p4096
aS'favorite'
p4097
aS'place'
p4098
aaa(lp4099
g4063
a(lp4100
S'so'
p4101
aaa(lp4102
g4063
a(lp4103
S'this'
p4104
aS'could'
p4105
aaa(lp4106
g4063
a(lp4107
S'this'
p4108
aS'could'
p4109
aS'bring'
p4110
aS'new'
p4111
aS'light'
p4112
aS'to'
p4113
aS'the'
p4114
aS'underwater'
p4115
aS'viewing'
p4116
aS'gallery'
p4117
aaa(lp4118
S'LORI'
p4119
a(lp4120
S'Could'
p4121
aS'be'
p4122
ag24
aS'gift'
p4123
aaa(lp4124
S'KIRSTEN'
p4125
a(lp4126
S'and'
p4127
aS'actually'
p4128
aaa(lp4129
g4125
a(lp4130
S'just'
p4131
aS'give'
p4132
ag24
aS'new'
p4133
aS'focus'
p4134
aS'on'
p4135
aS'the'
p4136
aS'penguins'
p4137
aaa(lp4138
g4125
a(lp4139
S'We'
p4140
aS'havent'
p4141
aS'done'
p4142
aS'as'
p4143
aS'much'
p4144
aS'interpretation'
p4145
aS'with'
p4146
aS'the'
p4147
aS'penguins'
p4148
aaa(lp4149
g4125
a(lp4150
S'as'
p4151
aS'we'
p4152
aS'do'
p4153
aS'with'
p4154
aS'the'
p4155
aS'other'
p4156
aS'animals'
p4157
aaa(lp4158
g4125
a(lp4159
S'so'
p4160
aaa(lp4161
g4125
a(lp4162
S'you'
p4163
aS'actually'
p4164
aS'have'
p4165
aS'some'
p4166
aS'kinda'
p4167
aS'neat'
p4168
aS'things'
p4169
aS'to'
p4170
aS'interpret'
p4171
aS'here'
p4172
aaa(lp4173
g4125
a(lp4174
S'As'
p4175
aS'far'
p4176
aS'as'
p4177
aS'whats'
p4178
aS'going'
p4179
aS'on'
p4180
aaa(lp4181
g4125
a(lp4182
S'Some'
p4183
aS'other'
p4184
aS'things'
p4185
aS'that'
p4186
aS'you'
p4187
aS'might'
p4188
aS'see'
p4189
aaa(lp4190
g4125
a(lp4191
S'the'
p4192
aS'penguins'
p4193
aS'segregate'
p4194
aS'themselves'
p4195
aaa(lp4196
g4125
a(lp4197
S'The'
p4198
aS'species'
p4199
aS'dont'
p4200
aS'intermix'
p4201
aaa(lp4202
g4125
a(lp4203
S'Okay'
p4204
aaa(lp4205
g4125
a(lp4206
S'if'
p4207
aS'youve'
p4208
aS'noticed'
p4209
aS'that'
p4210
aS'before'
p4211
aaa(lp4212
S'NICOLE'
p4213
a(lp4214
S'Mm'
p4215
aaa(lp4216
S'KIRSTEN'
p4217
a(lp4218
S'the'
p4219
aS'Rockhoppers'
p4220
aS'pretty'
p4221
aS'much'
p4222
aS'station'
p4223
aS'themselves'
p4224
aS'in'
p4225
aS'the'
p4226
aS'center'
p4227
aaa(lp4228
g4217
a(lp4229
S'the'
p4230
aS'Magellanics'
p4231
aS'used'
p4232
aS'to'
p4233
aS'be'
p4234
aS'off'
p4235
aS'to'
p4236
aS'the'
p4237
aS'right'
p4238
aaa(lp4239
S'DON'
p4240
a(lp4241
aa(lp4242
S'KIRSTEN'
p4243
a(lp4244
S'and'
p4245
aS'then'
p4246
aaa(lp4247
g4243
a(lp4248
S'well'
p4249
aS'number'
p4250
aS'ten'
p4251
aaa(lp4252
g4243
a(lp4253
S'could'
p4254
aS'do'
p4255
aS'whatever'
p4256
aS'she'
p4257
aS'wanted'
p4258
aaa(lp4259
S'AMY'
p4260
a(lp4261
aa(lp4262
S'DON'
p4263
a(lp4264
S'The'
p4265
aS'Gentu'
p4266
aaa(lp4267
S'KIRSTEN'
p4268
a(lp4269
S'But'
p4270
aaa(lp4271
S'NICOLE'
p4272
a(lp4273
S'Whats'
p4274
aS'number'
p4275
aS'ten'
p4276
aaa(lp4277
g4272
a(lp4278
g59
aS'k'
p4279
aaa(lp4280
S'KIRSTEN'
p4281
a(lp4282
S'Im'
p4283
aS'sorry'
p4284
aaa(lp4285
S'NICOLE'
p4286
a(lp4287
g59
ag59
ag4279
ag139
aaa(lp4288
S'AMY'
p4289
a(lp4290
aa(lp4291
S'NICOLE'
p4292
a(lp4293
g59
ag4279
ag59
aS'keep'
p4294
aS'going'
p4295
aaa(lp4296
S'KIRSTEN'
p4297
a(lp4298
S'Number'
p4299
aS'ten'
p4300
aaa(lp4301
S'NICOLE'
p4302
a(lp4303
S'whats'
p4304
aS'number'
p4305
aS'ten'
p4306
aS'here'
p4307
aaa(lp4308
S'AMY'
p4309
a(lp4310
aa(lp4311
S'NICOLE'
p4312
a(lp4313
aa(lp4314
S'KIRSTEN'
p4315
a(lp4316
S'Kay'
p4317
aaa(lp4318
g4315
a(lp4319
S'the'
p4320
aS'the'
p4321
aS'penguins'
p4322
aS'are'
p4323
aS'numbered'
p4324
aaa(lp4325
S'NICOLE'
p4326
a(lp4327
S'Oh'
p4328
aS'okay'
p4329
aaa(lp4330
S'KIRSTEN'
p4331
a(lp4332
S'Each'
p4333
aS'penguin'
p4334
aS'is'
p4335
aS'numbered'
p4336
aaa(lp4337
S'NICOLE'
p4338
a(lp4339
aa(lp4340
S'KIRSTEN'
p4341
a(lp4342
S'And'
p4343
aS'on'
p4344
aaa(lp4345
g4341
a(lp4346
S'on'
p4347
aS'the'
p4348
aS'arm'
p4349
aaa(lp4350
S'LORI'
p4351
a(lp4352
g54
aS'Wing'
p4353
ag54
aaa(lp4354
S'DON'
p4355
a(lp4356
aa(lp4357
S'KIRSTEN'
p4358
a(lp4359
S'okay'
p4360
aaa(lp4361
g4358
a(lp4362
S'the'
p4363
aS'the'
p4364
aS'joint'
p4365
aS'here'
p4366
aaa(lp4367
g4358
a(lp4368
S'well'
p4369
aaa(lp4370
g4358
a(lp4371
S'what'
p4372
aS'do'
p4373
aS'you'
p4374
aS'call'
p4375
aS'this'
p4376
aaa(lp4377
S'DON'
p4378
a(lp4379
S'The'
p4380
aS'wing'
p4381
aaa(lp4382
S'X'
p4383
a(lp4384
g346
aS'Humerus'
p4385
ag346
aaa(lp4386
S'DON'
p4387
a(lp4388
S'Hm'
p4389
aaa(lp4390
S'KIRSTEN'
p4391
a(lp4392
S'At'
p4393
aS'the'
p4394
aS'humerus'
p4395
aaa(lp4396
S'DON'
p4397
a(lp4398
S'Hu'
p4399
aaa(lp4400
S'KIRSTEN'
p4401
a(lp4402
S'We'
p4403
aS'would'
p4404
aS'have'
p4405
ag24
aS'tag'
p4406
aaa(lp4407
S'LORI'
p4408
a(lp4409
S'Mhm'
p4410
aaa(lp4411
S'KIRSTEN'
p4412
a(lp4413
S'and'
p4414
aS'theyre'
p4415
aS'colorcoded'
p4416
aaa(lp4417
g4412
a(lp4418
S'so'
p4419
aaa(lp4420
g4412
a(lp4421
S'if'
p4422
aS'you'
p4423
aS'were'
p4424
aS'like'
p4425
aS'to'
p4426
aS'see'
p4427
aaa(lp4428
g4412
a(lp4429
S'well'
p4430
aS'how'
p4431
aS'does'
p4432
aS'it'
p4433
aS'work'
p4434
aaa(lp4435
g4412
a(lp4436
S'Give'
p4437
aS'me'
p4438
ag24
aS'number'
p4439
aaa(lp4440
S'AMY'
p4441
a(lp4442
S'Well'
p4443
aS'they'
p4444
aS'wear'
p4445
aS'colors'
p4446
aaa(lp4447
g4441
a(lp4448
S'When'
p4449
ag59
aS'was'
p4450
aS'there'
p4451
aaa(lp4452
S'KIRSTEN'
p4453
a(lp4454
S'Okay'
p4455
aaa(lp4456
S'AMY'
p4457
a(lp4458
S'Just'
p4459
aS'seven'
p4460
aaa(lp4461
g4457
a(lp4462
S'Did'
p4463
aS'they'
p4464
aS'move'
p4465
aS'em'
p4466
aS'to'
p4467
aS'numbers'
p4468
aaa(lp4469
S'KIRSTEN'
p4470
a(lp4471
aa(lp4472
S'AMY'
p4473
a(lp4474
S'They'
p4475
aS'were'
p4476
aS'going'
p4477
aS'to'
p4478
aaa(lp4479
S'KIRSTEN'
p4480
a(lp4481
S'What'
p4482
aS'it'
p4483
aS'is'
p4484
aS'is'
p4485
aS'that'
p4486
aaa(lp4487
g4480
a(lp4488
S'green'
p4489
aaa(lp4490
g4480
a(lp4491
S'lets'
p4492
aS'say'
p4493
aS'for'
p4494
aS'example'
p4495
aaa(lp4496
g4480
a(lp4497
S'green'
p4498
aS'stands'
p4499
aS'for'
p4500
aS'one'
p4501
aaa(lp4502
g4480
a(lp4503
S'black'
p4504
aS'stands'
p4505
aS'for'
p4506
aS'two'
p4507
aaa(lp4508
g4480
a(lp4509
S'Thats'
p4510
aS'number'
p4511
aS'twelve'
p4512
aaa(lp4513
S'AMY'
p4514
a(lp4515
S'Is'
p4516
aS'that'
p4517
aS'how'
p4518
aS'it'
p4519
aS'works'
p4520
aaa(lp4521
S'KIRSTEN'
p4522
a(lp4523
S'Yeah'
p4524
aaa(lp4525
S'AMY'
p4526
a(lp4527
S'Okay'
p4528
aaa(lp4529
S'KIRSTEN'
p4530
a(lp4531
S'So'
p4532
aaa(lp4533
g4530
a(lp4534
S'they'
p4535
aS'number'
p4536
aS'them'
p4537
aaa(lp4538
g4530
a(lp4539
S'so'
p4540
aS'that'
p4541
aaa(lp4542
g4530
a(lp4543
S'when'
p4544
aS'theyre'
p4545
aS'feeding'
p4546
aS'them'
p4547
aaa(lp4548
g4530
a(lp4549
S'and'
p4550
aS'theyre'
p4551
aS'taking'
p4552
aS'down'
p4553
aS'the'
p4554
aS'records'
p4555
aS'of'
p4556
aaa(lp4557
g4530
a(lp4558
S'okay'
p4559
aS'number'
p4560
aS'twelve'
p4561
aS'ate'
p4562
aS'five'
p4563
aS'Columbia'
p4564
aS'River'
p4565
aS'smelts'
p4566
aaa(lp4567
g4530
a(lp4568
S'and'
p4569
aS'two'
p4570
aaa(lp4571
S'NICOLE'
p4572
a(lp4573
aa(lp4574
S'KIRSTEN'
p4575
a(lp4576
S'Capelands'
p4577
aaa(lp4578
S'LORI'
p4579
a(lp4580
S'Mhm'
p4581
aaa(lp4582
S'KIRSTEN'
p4583
a(lp4584
S'They'
p4585
aS'can'
p4586
aS'keep'
p4587
ag24
aS'record'
p4588
aS'of'
p4589
aS'what'
p4590
aS'the'
p4591
aS'animal'
p4592
aS'eats'
p4593
aaa(lp4594
g4583
a(lp4595
S'Okay'
p4596
aaa(lp4597
g4583
a(lp4598
S'so'
p4599
aS'they'
p4600
aS'dont'
p4601
aS'have'
p4602
aS'names'
p4603
aaa(lp4604
g4583
a(lp4605
S'but'
p4606
aaa(lp4607
g4583
a(lp4608
S'she'
p4609
aaa(lp4610
g4583
a(lp4611
S'because'
p4612
aS'sh'
p4613
aaa(lp4614
g4583
a(lp4615
S'Because'
p4616
aS'shes'
p4617
aS'the'
p4618
aS'lone'
p4619
aS'feisty'
p4620
aS'penguin'
p4621
aaa(lp4622
g4583
a(lp4623
S'number'
p4624
aS'ten'
p4625
aS'has'
p4626
aS'become'
p4627
aS'kind'
p4628
aS'of'
p4629
aS'famous'
p4630
aaa(lp4631
g4583
a(lp4632
S'in'
p4633
aS'the'
p4634
aS'penguin'
p4635
aS'world'
p4636
aS'downstairs'
p4637
aaa(lp4638
g4583
a(lp4639
S'So'
p4640
aaa(lp4641
g4583
a(lp4642
S'it'
p4643
aS'it'
p4644
aS'its'
p4645
ag24
aS'female'
p4646
aaa(lp4647
S'NICOLE'
p4648
a(lp4649
aa(lp4650
S'KIRSTEN'
p4651
a(lp4652
S'th'
p4653
aS'the'
p4654
aS'only'
p4655
aS'female'
p4656
aS'Gentu'
p4657
aS'penguin'
p4658
aaa(lp4659
g4651
a(lp4660
S'that'
p4661
aS'we'
p4662
aS'had'
p4663
aS'prior'
p4664
aS'to'
p4665
aS'the'
p4666
aS'chicks'
p4667
aS'coming'
p4668
aS'in'
p4669
aaa(lp4670
S'NICOLE'
p4671
a(lp4672
S'Okay'
p4673
aaa(lp4674
S'KIRSTEN'
p4675
a(lp4676
S'Okay'
p4677
aaa(lp4678
g4675
a(lp4679
S'so'
p4680
aaa(lp4681
g4675
a(lp4682
S'um'
p4683
aaa(lp4684
g4675
a(lp4685
S'now'
p4686
aS'youll'
p4687
aS'see'
p4688
aS'that'
p4689
aS'theyre'
p4690
aS'segregated'
p4691
aaa(lp4692
g4675
a(lp4693
S'actually'
p4694
aS'the'
p4695
aS'Gentus'
p4696
aS'have'
p4697
aS'kind'
p4698
aS'of'
p4699
aS'broken'
p4700
aS'up'
p4701
aS'into'
p4702
aS'clumps'
p4703
aaa(lp4704
g4675
a(lp4705
S'and'
p4706
aS'theres'
p4707
aaa(lp4708
g4675
a(lp4709
S'From'
p4710
aS'what'
p4711
ag59
aS'saw'
p4712
aS'yesterday'
p4713
aaa(lp4714
g4675
a(lp4715
S'three'
p4716
aS'different'
p4717
aS'clumps'
p4718
aaa(lp4719
g4675
a(lp4720
S'um'
p4721
aaa(lp4722
g4675
a(lp4723
S'lets'
p4724
aS'see'
p4725
aaa(lp4726
g4675
a(lp4727
S'Lets'
p4728
aaa(lp4729
g4675
a(lp4730
S'G'
p4731
aaa(lp4732
g4675
a(lp4733
S'Lets'
p4734
aS'interpret'
p4735
aS'some'
p4736
aS'of'
p4737
aS'the'
p4738
aS'behaviors'
p4739
aS'we'
p4740
aS'might'
p4741
aS'see'
p4742
aaa(lp4743
g4675
a(lp4744
S'Okay'
p4745
aaa(lp4746
g4675
a(lp4747
S'what'
p4748
aS'is'
p4749
aaa(lp4750
g4675
a(lp4751
S'what'
p4752
aS'is'
p4753
ag24
aS'penguin'
p4754
aS'standing'
p4755
aS'out'
p4756
aS'with'
p4757
aS'its'
p4758
aS'arms'
p4759
aS'like'
p4760
aS'this'
p4761
aaa(lp4762
g4675
a(lp4763
g59
aS'shouldnt'
p4764
aS'say'
p4765
aS'arms'
p4766
aaa(lp4767
g4675
a(lp4768
S'Its'
p4769
aaa(lp4770
S'NICOLE'
p4771
a(lp4772
aa(lp4773
S'LORI'
p4774
a(lp4775
S'Wings'
p4776
aaa(lp4777
S'AMY'
p4778
a(lp4779
aa(lp4780
S'DON'
p4781
a(lp4782
S'Wings'
p4783
aaa(lp4784
S'KIRSTEN'
p4785
a(lp4786
S'Its'
p4787
aS'wings'
p4788
aaa(lp4789
S'NICOLE'
p4790
a(lp4791
S'Wings'
p4792
aaa(lp4793
S'AMY'
p4794
a(lp4795
aa(lp4796
S'KIRSTEN'
p4797
a(lp4798
aa(lp4799
S'LORI'
p4800
a(lp4801
aa(lp4802
S'KIRSTEN'
p4803
a(lp4804
S'Right'
p4805
aaa(lp4806
S'LORI'
p4807
a(lp4808
S'Um'
p4809
aaa(lp4810
S'DON'
p4811
a(lp4812
S'Perspiring'
p4813
aaa(lp4814
S'LORI'
p4815
a(lp4816
S'actually'
p4817
aS'cooling'
p4818
aS'off'
p4819
aaa(lp4820
S'DON'
p4821
a(lp4822
S'Cooling'
p4823
aS'off'
p4824
aaa(lp4825
S'LORI'
p4826
a(lp4827
S'isnt'
p4828
aS'it'
p4829
aaa(lp4830
S'KIRSTEN'
p4831
a(lp4832
S'Yeah'
p4833
aaa(lp4834
g4831
a(lp4835
S'Yeah'
p4836
aaa(lp4837
S'LORI'
p4838
a(lp4839
S'Mhm'
p4840
aaa(lp4841
S'KIRSTEN'
p4842
a(lp4843
S'So'
p4844
aS'right'
p4845
aS'here'
p4846
aaa(lp4847
g4842
a(lp4848
S'is'
p4849
aS'where'
p4850
aS'you'
p4851
aS'dont'
p4852
aaa(lp4853
g4842
a(lp4854
S'where'
p4855
aS'the'
p4856
aS'penguins'
p4857
aS'dont'
p4858
aS'have'
p4859
ag24
ag24
aS'dense'
p4860
aS'covering'
p4861
aS'of'
p4862
aS'feathers'
p4863
aaa(lp4864
g4842
a(lp4865
S'So'
p4866
aS'if'
p4867
aS'they'
p4868
aS'wanna'
p4869
aS'cool'
p4870
aS'off'
p4871
aaa(lp4872
g4842
a(lp4873
S'they'
p4874
aS'tend'
p4875
aS'to'
p4876
aS'do'
p4877
aS'this'
p4878
aaa(lp4879
g4842
a(lp4880
S'Okay'
p4881
aS'if'
p4882
ag59
aS'was'
p4883
aS'to'
p4884
aS'see'
p4885
ag24
aS'penguin'
p4886
aS'doing'
p4887
aS'this'
p4888
aaa(lp4889
g4842
a(lp4890
S'lifting'
p4891
aS'one'
p4892
aS'leg'
p4893
aS'up'
p4894
aaa(lp4895
S'LORI'
p4896
a(lp4897
S'Its'
p4898
aS'resting'
p4899
aaa(lp4900
g4896
a(lp4901
S'Isnt'
p4902
aS'it'
p4903
aaa(lp4904
S'KIRSTEN'
p4905
a(lp4906
S'What'
p4907
aS'else'
p4908
aS'could'
p4909
aS'it'
p4910
aS'be'
p4911
aaa(lp4912
S'AMY'
p4913
a(lp4914
S'Sleeping'
p4915
aaa(lp4916
g4913
a(lp4917
g346
aS'No'
p4918
ag346
aaa(lp4919
S'NICOLE'
p4920
a(lp4921
S'Balance'
p4922
aaa(lp4923
g4920
a(lp4924
g59
aS'guess'
p4925
aaa(lp4926
S'KIRSTEN'
p4927
a(lp4928
S'Its'
p4929
aS'balancing'
p4930
aaa(lp4931
S'AMY'
p4932
a(lp4933
aa(lp4934
S'KIRSTEN'
p4935
a(lp4936
S'its'
p4937
aS'doing'
p4938
aS'thinking'
p4939
aS'tricks'
p4940
aaa(lp4941
S'NICOLE'
p4942
a(lp4943
aa(lp4944
S'DON'
p4945
a(lp4946
aa(lp4947
S'AMY'
p4948
a(lp4949
aa(lp4950
S'KIRSTEN'
p4951
a(lp4952
S'Um'
p4953
aaa(lp4954
S'NICOLE'
p4955
a(lp4956
aa(lp4957
S'KIRSTEN'
p4958
a(lp4959
S'actually'
p4960
aaa(lp4961
g4958
a(lp4962
S'it'
p4963
aS'would'
p4964
aS'be'
p4965
aS'conserving'
p4966
aS'heat'
p4967
aaa(lp4968
g4958
a(lp4969
S'Okay'
p4970
aaa(lp4971
S'NICOLE'
p4972
a(lp4973
S'Oh'
p4974
aaa(lp4975
S'DON'
p4976
a(lp4977
S'Hm'
p4978
aaa(lp4979
S'KIRSTEN'
p4980
a(lp4981
S'So'
p4982
aaa(lp4983
g4980
a(lp4984
S'the'
p4985
aS'wings'
p4986
aaa(lp4987
g4980
a(lp4988
S'and'
p4989
aS'the'
p4990
ag3308
aS'legs'
p4991
aaa(lp4992
g4980
a(lp4993
S'feet'
p4994
aaa(lp4995
S'LORI'
p4996
a(lp4997
S'Mhm'
p4998
aaa(lp4999
S'KIRSTEN'
p5000
a(lp5001
S'theres'
p5002
aS'no'
p5003
aS'dense'
p5004
aS'feather'
p5005
aS'coverage'
p5006
aS'on'
p5007
aS'the'
p5008
aaa(lp5009
g5000
a(lp5010
S'on'
p5011
aS'the'
p5012
aS'legs'
p5013
aaa(lp5014
g5000
a(lp5015
S'so'
p5016
aS'they'
p5017
aS'might'
p5018
aS'be'
p5019
aS'conserving'
p5020
aS'heat'
p5021
aaa(lp5022
g5000
a(lp5023
S'Okay'
p5024
aaa(lp5025
g5000
a(lp5026
S'um'
p5027
aaa(lp5028
g5000
a(lp5029
S'if'
p5030
aaa(lp5031
g5000
a(lp5032
g59
aS'saw'
p5033
ag24
aS'penguin'
p5034
aaa(lp5035
g5000
a(lp5036
S'sneezing'
p5037
aaa(lp5038
S'NICOLE'
p5039
a(lp5040
aa(lp5041
S'KIRSTEN'
p5042
a(lp5043
S'What'
p5044
aS'might'
p5045
aS'be'
p5046
aS'happening'
p5047
aS'there'
p5048
aaa(lp5049
S'NICOLE'
p5050
a(lp5051
S'Allergic'
p5052
aaa(lp5053
g5050
a(lp5054
S'To'
p5055
aS'food'
p5056
aaa(lp5057
S'KIRSTEN'
p5058
a(lp5059
aa(lp5060
S'AMY'
p5061
a(lp5062
S'Sick'
p5063
aaa(lp5064
S'DON'
p5065
a(lp5066
S'Ive'
p5067
aS'never'
p5068
aS'heard'
p5069
ag24
aS'penguin'
p5070
aS'sneezing'
p5071
aS'but'
p5072
aaa(lp5073
S'AMY'
p5074
a(lp5075
aa(lp5076
S'NICOLE'
p5077
a(lp5078
aa(lp5079
S'AMY'
p5080
a(lp5081
aa(lp5082
S'NICOLE'
p5083
a(lp5084
S'Cold'
p5085
aaa(lp5086
S'DON'
p5087
a(lp5088
aa(lp5089
S'KIRSTEN'
p5090
a(lp5091
S'Okay'
p5092
aaa(lp5093
S'DON'
p5094
a(lp5095
aa(lp5096
S'LORI'
p5097
a(lp5098
S'It'
p5099
aS'actually'
p5100
aS'kind'
p5101
aS'of'
p5102
aS'sneezes'
p5103
aaa(lp5104
S'NICOLE'
p5105
a(lp5106
g59
aS'know'
p5107
aaa(lp5108
g5105
a(lp5109
S'could'
p5110
aS'you'
p5111
aS'hear'
p5112
aS'it'
p5113
aaa(lp5114
S'AMY'
p5115
a(lp5116
aa(lp5117
S'NICOLE'
p5118
a(lp5119
S'How'
p5120
aS'can'
p5121
aS'you'
p5122
aS'tell'
p5123
aS'from'
p5124
aS'it'
p5125
aaa(lp5126
g5118
a(lp5127
S'like'
p5128
aS'shaking'
p5129
aS'his'
p5130
aS'head'
p5131
aaa(lp5132
S'KIRSTEN'
p5133
a(lp5134
S'Youll'
p5135
aaa(lp5136
S'NICOLE'
p5137
a(lp5138
S'or'
p5139
aS'sneezing'
p5140
aaa(lp5141
S'KIRSTEN'
p5142
a(lp5143
S'youll'
p5144
aS'see'
p5145
aS'him'
p5146
aaa(lp5147
g5142
a(lp5148
S'Youll'
p5149
aS'see'
p5150
aS'him'
p5151
aaa(lp5152
g5142
a(lp5153
S'just'
p5154
aS'like'
p5155
ag54
aS'what'
p5156
ag54
ag24
aS'person'
p5157
aS'sneezing'
p5158
aaa(lp5159
S'NICOLE'
p5160
a(lp5161
S'Oh'
p5162
aaa(lp5163
g5160
a(lp5164
S'okay'
p5165
aaa(lp5166
S'KIRSTEN'
p5167
a(lp5168
S'you'
p5169
aS'can'
p5170
aS'tell'
p5171
aaa(lp5172
S'DON'
p5173
a(lp5174
S'Mhm'
p5175
aaa(lp5176
S'KIRSTEN'
p5177
a(lp5178
S'When'
p5179
aS'they'
p5180
aS'jerk'
p5181
aS'their'
p5182
aS'head'
p5183
aS'like'
p5184
aS'that'
p5185
aaa(lp5186
g5177
a(lp5187
S'How'
p5188
aS'was'
p5189
aaa(lp5190
g5177
a(lp5191
S'how'
p5192
aS'does'
p5193
ag24
aS'penguin'
p5194
aS'get'
p5195
aS'its'
p5196
aS'fresh'
p5197
aS'water'
p5198
aaa(lp5199
g5177
a(lp5200
S'How'
p5201
aS'does'
p5202
ag24
aS'penguin'
p5203
aS'drink'
p5204
aaa(lp5205
S'NICOLE'
p5206
a(lp5207
S'Oh'
p5208
aaa(lp5209
S'LORI'
p5210
a(lp5211
g59
aS'havent'
p5212
aS'studied'
p5213
aS'penguins'
p5214
aS'in'
p5215
ag24
aS'while'
p5216
aaa(lp5217
g5210
a(lp5218
S'Don'
p5219
aaa(lp5220
g5210
a(lp5221
S'do'
p5222
aS'you'
p5223
aS'know'
p5224
aaa(lp5225
S'DON'
p5226
a(lp5227
S'No'
p5228
aaa(lp5229
S'LORI'
p5230
a(lp5231
S'Hmmm'
p5232
aaa(lp5233
S'DON'
p5234
a(lp5235
S'From'
p5236
aaa(lp5237
g5234
a(lp5238
g59
aS'thought'
p5239
ag24
aS'way'
p5240
aS'w'
p5241
aaa(lp5242
g5234
a(lp5243
S'Drank'
p5244
aS'from'
p5245
aS'pools'
p5246
aaa(lp5247
g5234
a(lp5248
S'Just'
p5249
aaa(lp5250
S'KIRSTEN'
p5251
a(lp5252
S'Theyll'
p5253
aS'drink'
p5254
aS'salt'
p5255
aS'water'
p5256
aaa(lp5257
S'DON'
p5258
a(lp5259
S'Salt'
p5260
aS'water'
p5261
aaa(lp5262
S'KIRSTEN'
p5263
a(lp5264
S'all'
p5265
aS'also'
p5266
aaa(lp5267
g5263
a(lp5268
S'you'
p5269
aS'know'
p5270
aaa(lp5271
g5263
a(lp5272
S'like'
p5273
aS'the'
p5274
aS'dolphins'
p5275
aaa(lp5276
g5263
a(lp5277
S'they'
p5278
aS'actually'
p5279
aS'metabolize'
p5280
aS'the'
p5281
aS'water'
p5282
aaa(lp5283
g5263
a(lp5284
S'thats'
p5285
aS'stored'
p5286
aS'in'
p5287
aS'in'
p5288
aS'the'
p5289
aS'fat'
p5290
aS'of'
p5291
aS'the'
p5292
aS'fish'
p5293
aS'that'
p5294
aS'they'
p5295
aS'eat'
p5296
aaa(lp5297
g5263
a(lp5298
S'And'
p5299
aS'thats'
p5300
aS'how'
p5301
aS'they'
p5302
aS'get'
p5303
aS'their'
p5304
aS'water'
p5305
aS'source'
p5306
aaa(lp5307
S'LORI'
p5308
a(lp5309
S'Mhm'
p5310
aaa(lp5311
S'KIRSTEN'
p5312
a(lp5313
S'But'
p5314
aS'basically'
p5315
aaa(lp5316
g5312
a(lp5317
S'youve'
p5318
aS'gotta'
p5319
aS'separate'
p5320
aaa(lp5321
g5312
a(lp5322
S'the'
p5323
aS'fresh'
p5324
aS'water'
p5325
aS'from'
p5326
aS'the'
p5327
aS'salt'
p5328
aS'water'
p5329
aaa(lp5330
g5312
a(lp5331
S'actually'
p5332
aS'just'
p5333
aS'have'
p5334
aS'to'
p5335
aS'separate'
p5336
aS'out'
p5337
aS'that'
p5338
aS'salt'
p5339
aaa(lp5340
g5312
a(lp5341
S'So'
p5342
aS'they'
p5343
aS'have'
p5344
ag24
aS'special'
p5345
ag139
aaa(lp5346
S'NICOLE'
p5347
a(lp5348
S'They'
p5349
aS'have'
p5350
aS'to'
p5351
aS'do'
p5352
aS'that'
p5353
aaa(lp5354
S'LORI'
p5355
a(lp5356
S'So'
p5357
aS'thats'
p5358
aS'how'
p5359
aS'theyre'
p5360
aS'do'
p5361
aaa(lp5362
S'NICOLE'
p5363
a(lp5364
S'Oh'
p5365
aaa(lp5366
S'LORI'
p5367
a(lp5368
S'Thats'
p5369
aS'what'
p5370
aS'theyre'
p5371
aS'doing'
p5372
aS'when'
p5373
aS'they'
p5374
aS'sneeze'
p5375
aaa(lp5376
g5367
a(lp5377
S'is'
p5378
aS'theyre'
p5379
aS'getting'
p5380
aS'rid'
p5381
aS'of'
p5382
aS'the'
p5383
aS'salt'
p5384
aaa(lp5385
S'KIRSTEN'
p5386
a(lp5387
S'Salt'
p5388
aaa(lp5389
S'NICOLE'
p5390
a(lp5391
S'Oh'
p5392
aaa(lp5393
S'KIRSTEN'
p5394
a(lp5395
S'That'
p5396
aS'they'
p5397
aS'have'
p5398
aS'accumulated'
p5399
aaa(lp5400
g5394
a(lp5401
S'They'
p5402
aS'have'
p5403
ag24
aS'salt'
p5404
aS'gland'
p5405
aaa(lp5406
g5394
a(lp5407
S'In'
p5408
aS'the'
p5409
aS'beak'
p5410
aaa(lp5411
g5394
a(lp5412
S'And'
p5413
aS'that'
p5414
aS'is'
p5415
aS'what'
p5416
aS'separates'
p5417
aS'the'
p5418
aS'salt'
p5419
aS'out'
p5420
aaa(lp5421
S'DON'
p5422
a(lp5423
S'Did'
p5424
aS'you'
p5425
aS'know'
p5426
aS'that'
p5427
aS'before'
p5428
aaa(lp5429
S'KIRSTEN'
p5430
a(lp5431
S'And'
p5432
aS'to'
p5433
aS'get'
p5434
aS'rid'
p5435
aS'of'
p5436
aS'that'
p5437
aS'salt'
p5438
aS'they'
p5439
aaa(lp5440
S'LORI'
p5441
a(lp5442
S'Hmmm'
p5443
aaa(lp5444
S'DON'
p5445
a(lp5446
S'Me'
p5447
aS'neither'
p5448
aaa(lp5449
S'KIRSTEN'
p5450
a(lp5451
aa(lp5452
g5450
a(lp5453
S'they'
p5454
aS'sneeze'
p5455
aaa(lp5456
S'LORI'
p5457
a(lp5458
S'Yeah'
p5459
aS'actually'
p5460
aaa(lp5461
S'NICOLE'
p5462
a(lp5463
S'Oh'
p5464
aaa(lp5465
g5462
a(lp5466
g59
aS'never'
p5467
aS'even'
p5468
aS'thought'
p5469
aS'of'
p5470
aS'that'
p5471
aaa(lp5472
S'LORI'
p5473
a(lp5474
g59
aS'remember'
p5475
aS'doing'
p5476
aS'the'
p5477
aS'penguin'
p5478
aS'thing'
p5479
ag24
aS'year'
p5480
aS'ago'
p5481
aaa(lp5482
g5473
a(lp5483
S'but'
p5484
ag59
aS'dont'
p5485
aS'remember'
p5486
aS'that'
p5487
aS'adaptation'
p5488
aaa(lp5489
S'DON'
p5490
a(lp5491
S'No'
p5492
aaa(lp5493
S'LORI'
p5494
a(lp5495
S'Oh'
p5496
aS'well'
p5497
aaa(lp5498
S'KIRSTEN'
p5499
a(lp5500
S'Um'
p5501
aaa(lp5502
g5499
a(lp5503
S'were'
p5504
aS'gonna'
p5505
aS'have'
p5506
aS'to'
p5507
aS'go'
p5508
aS'up'
p5509
aS'and'
p5510
aS'do'
p5511
ag1659
aS'and'
p5512
ag1612
aaa(lp5513
g5499
a(lp5514
S'in'
p5515
aS'three'
p5516
aS'minutes'
p5517
aaa(lp5518
g5499
a(lp5519
S'Just'
p5520
aS'looking'
p5521
aS'at'
p5522
aS'the'
p5523
aS'clock'
p5524
aaa(lp5525
S'LORI'
p5526
a(lp5527
S'Whos'
p5528
aS'do'
p5529
aaa(lp5530
S'KIRSTEN'
p5531
a(lp5532
S'Im'
p5533
aS'facing'
p5534
aS'the'
p5535
aS'clock'
p5536
aaa(lp5537
S'LORI'
p5538
a(lp5539
S'Whos'
p5540
aS'the'
p5541
aS'diver'
p5542
aaa(lp5543
S'KIRSTEN'
p5544
a(lp5545
g59
aS'dont'
p5546
aaa(lp5547
g5544
a(lp5548
S'Oh'
p5549
aaa(lp5550
g5544
a(lp5551
S'probably'
p5552
aS'Bernie'
p5553
aaa(lp5554
g5544
a(lp5555
S'Um'
p5556
aaa(lp5557
S'NICOLE'
p5558
a(lp5559
S'Do'
p5560
aS'they'
p5561
aS'have'
p5562
aS'different'
p5563
aS'divers'
p5564
aaa(lp5565
g5558
a(lp5566
S'every'
p5567
aaa(lp5568
S'LORI'
p5569
a(lp5570
S'Mhm'
p5571
aaa(lp5572
S'NICOLE'
p5573
a(lp5574
S'time'
p5575
aaa(lp5576
S'KIRSTEN'
p5577
a(lp5578
S'Yeah'
p5579
aaa(lp5580
g5577
a(lp5581
S'every'
p5582
aS'day'
p5583
aaa(lp5584
g5577
a(lp5585
g346
aS'Every'
p5586
aS'day'
p5587
ag346
aaa(lp5588
S'NICOLE'
p5589
a(lp5590
S'Oh'
p5591
aaa(lp5592
S'KIRSTEN'
p5593
a(lp5594
S'So'
p5595
aS'that'
p5596
aS'would'
p5597
aS'be'
p5598
aS'excreting'
p5599
aS'salt'
p5600
aaa(lp5601
g5593
a(lp5602
S'Um'
p5603
aaa(lp5604
g5593
a(lp5605
S'when'
p5606
ag59
aS'see'
p5607
ag24
aS'penguin'
p5608
aS'picking'
p5609
aS'its'
p5610
aS'butt'
p5611
aaa(lp5612
g5593
a(lp5613
S'What'
p5614
aS'is'
p5615
aS'it'
p5616
aS'doing'
p5617
aaa(lp5618
S'NICOLE'
p5619
a(lp5620
aa(lp5621
S'AMY'
p5622
a(lp5623
aa(lp5624
S'LORI'
p5625
a(lp5626
aa(lp5627
g5625
a(lp5628
S'Kinda'
p5629
aS'like'
p5630
aaa(lp5631
g5625
a(lp5632
S'picking'
p5633
aS'at'
p5634
aS'its'
p5635
aS'feathers'
p5636
aaa(lp5637
S'DON'
p5638
a(lp5639
S'Preening'
p5640
aaa(lp5641
g5638
a(lp5642
S'Preening'
p5643
aaa(lp5644
S'KIRSTEN'
p5645
a(lp5646
S'Okay'
p5647
aaa(lp5648
S'LORI'
p5649
a(lp5650
S'Preening'
p5651
aaa(lp5652
S'KIRSTEN'
p5653
a(lp5654
S'Its'
p5655
aS'preening'
p5656
aaa(lp5657
g5653
a(lp5658
S'what'
p5659
aS'is'
p5660
aS'it'
p5661
aS'doing'
p5662
aaa(lp5663
g5653
a(lp5664
S'Whats'
p5665
aS'at'
p5666
aS'the'
p5667
aS'base'
p5668
aS'of'
p5669
aS'the'
p5670
aS'tail'
p5671
aaa(lp5672
S'DON'
p5673
a(lp5674
aa(lp5675
S'KIRSTEN'
p5676
a(lp5677
S'This'
p5678
aS'is'
p5679
aS'fun'
p5680
aS'you'
p5681
aS'guys'
p5682
aaa(lp5683
S'DON'
p5684
a(lp5685
S'Yeah'
p5686
aaa(lp5687
g5684
a(lp5688
S'right'
p5689
aaa(lp5690
S'AMY'
p5691
a(lp5692
aa(lp5693
S'LORI'
p5694
a(lp5695
S'Its'
p5696
aS'at'
p5697
aS'the'
p5698
aaa(lp5699
S'NICOLE'
p5700
a(lp5701
S'It'
p5702
aS'is'
p5703
aS'fun'
p5704
aaa(lp5705
S'KIRSTEN'
p5706
a(lp5707
aa(lp5708
S'DON'
p5709
a(lp5710
aa(lp5711
S'LORI'
p5712
a(lp5713
aa(lp5714
S'KIRSTEN'
p5715
a(lp5716
S'SM'
p5717
aS'Whats'
p5718
aS'at'
p5719
aS'the'
p5720
aS'base'
p5721
aS'of'
p5722
aS'the'
p5723
aS'tail'
p5724
aS'SM'
p5725
aaa(lp5726
S'NICOLE'
p5727
a(lp5728
g59
ag54
aS'wouldntve'
p5729
ag54
aS'even'
p5730
aS'thought'
p5731
aS'of'
p5732
aS'these'
p5733
aS'things'
p5734
aaa(lp5735
S'DON'
p5736
a(lp5737
S'Well'
p5738
aS'the'
p5739
aS'anus'
p5740
aS'is'
p5741
aS'at'
p5742
aS'the'
p5743
aS'end'
p5744
aS'of'
p5745
aS'the'
p5746
aS'tail'
p5747
aaa(lp5748
S'NICOLE'
p5749
a(lp5750
S'its'
p5751
aS'like'
p5752
aaa(lp5753
g5749
a(lp5754
S'oh'
p5755
aaa(lp5756
g5749
a(lp5757
S'didnt'
p5758
aS'know'
p5759
aS'they'
p5760
aS'had'
p5761
aS'meaning'
p5762
aaa(lp5763
S'KIRSTEN'
p5764
a(lp5765
S'Pardon'
p5766
aS'me'
p5767
aaa(lp5768
S'DON'
p5769
a(lp5770
S'Right'
p5771
aaa(lp5772
g5769
a(lp5773
S'The'
p5774
aS'anus'
p5775
aS'is'
p5776
aS'at'
p5777
aS'the'
p5778
aS'end'
p5779
aS'of'
p5780
aS'the'
p5781
aS'tail'
p5782
aaa(lp5783
S'KIRSTEN'
p5784
a(lp5785
S'That'
p5786
aS'is'
p5787
aaa(lp5788
g5784
a(lp5789
S'that'
p5790
aS'is'
p5791
aS'very'
p5792
aS'true'
p5793
aaa(lp5794
S'DON'
p5795
a(lp5796
S'Right'
p5797
aaa(lp5798
S'KIRSTEN'
p5799
a(lp5800
S'but'
p5801
aaa(lp5802
S'DON'
p5803
a(lp5804
S'But'
p5805
aaa(lp5806
S'KIRSTEN'
p5807
a(lp5808
S'lets'
p5809
aS'say'
p5810
aS'near'
p5811
aS'the'
p5812
aS'anus'
p5813
aaa(lp5814
g5807
a(lp5815
S'What'
p5816
aS'might'
p5817
aS'be'
p5818
aS'there'
p5819
aaa(lp5820
S'DON'
p5821
a(lp5822
S'Why'
p5823
aS'dont'
p5824
aS'you'
p5825
aS'answer'
p5826
aS'this'
p5827
aS'question'
p5828
aaa(lp5829
S'LORI'
p5830
a(lp5831
g59
aS'got'
p5832
aS'preening'
p5833
aaa(lp5834
S'DON'
p5835
a(lp5836
aa(lp5837
S'LORI'
p5838
a(lp5839
aa(lp5840
S'NICOLE'
p5841
a(lp5842
S'Ah'
p5843
aaa(lp5844
S'KIRSTEN'
p5845
a(lp5846
S'Its'
p5847
aS'okay'
p5848
aaa(lp5849
S'LORI'
p5850
a(lp5851
S'Its'
p5852
aaa(lp5853
S'KIRSTEN'
p5854
a(lp5855
S'Its'
p5856
aS'the'
p5857
aS'preening'
p5858
aS'gland'
p5859
aaa(lp5860
S'DON'
p5861
a(lp5862
S'Yeah'
p5863
aaa(lp5864
S'LORI'
p5865
a(lp5866
S'Oh'
p5867
aaa(lp5868
g5865
a(lp5869
S'okay'
p5870
aaa(lp5871
S'KIRSTEN'
p5872
a(lp5873
S'Okay'
p5874
aaa(lp5875
g5872
a(lp5876
S'so'
p5877
aS'its'
p5878
ag24
aS'gland'
p5879
aaa(lp5880
g5872
a(lp5881
S'that'
p5882
aS'stores'
p5883
aS'oil'
p5884
aaa(lp5885
g5872
a(lp5886
S'so'
p5887
aS'what'
p5888
ag24
aS'penguin'
p5889
aS'will'
p5890
aS'do'
p5891
aaa(lp5892
g5872
a(lp5893
S'is'
p5894
aS'itll'
p5895
aS'go'
p5896
aS'back'
p5897
aaa(lp5898
g5872
a(lp5899
S'itll'
p5900
aS'squeeze'
p5901
aS'the'
p5902
aS'gland'
p5903
aaa(lp5904
S'DON'
p5905
a(lp5906
aa(lp5907
S'KIRSTEN'
p5908
a(lp5909
S'itll'
p5910
aS'get'
p5911
aS'some'
p5912
aS'oil'
p5913
aS'on'
p5914
aS'its'
p5915
aS'beak'
p5916
aaa(lp5917
g5908
a(lp5918
S'and'
p5919
aS'then'
p5920
aaa(lp5921
g5908
a(lp5922
S'its'
p5923
aS'rubbing'
p5924
aS'that'
p5925
aS'waterproofing'
p5926
aaa(lp5927
S'LORI'
p5928
a(lp5929
S'So'
p5930
aS'it'
p5931
aS'can'
p5932
aS'keep'
p5933
aS'itself'
p5934
aS'waterproof'
p5935
aaa(lp5936
g5928
a(lp5937
S'right'
p5938
aaa(lp5939
S'DON'
p5940
a(lp5941
S'Mm'
p5942
aaa(lp5943
S'KIRSTEN'
p5944
a(lp5945
S'waterproofing'
p5946
aaa(lp5947
S'LORI'
p5948
a(lp5949
S'Mhm'
p5950
aaa(lp5951
S'NICOLE'
p5952
a(lp5953
S'Oh'
p5954
aaa(lp5955
S'KIRSTEN'
p5956
a(lp5957
S'all'
p5958
aS'over'
p5959
aS'its'
p5960
aS'feathers'
p5961
aaa(lp5962
S'AMY'
p5963
a(lp5964
S'Hm'
p5965
aaa(lp5966
S'LORI'
p5967
a(lp5968
S'Mhm'
p5969
aaa(lp5970
S'KIRSTEN'
p5971
a(lp5972
S'Preening'
p5973
aaa(lp5974
g5971
a(lp5975
S'also'
p5976
aS'consists'
p5977
aS'of'
p5978
aaa(lp5979
g5971
a(lp5980
S'working'
p5981
aS'an'
p5982
aS'air'
p5983
aS'layer'
p5984
aaa(lp5985
g5971
a(lp5986
S'at'
p5987
aS'the'
p5988
aS'base'
p5989
aS'of'
p5990
aS'the'
p5991
aS'feathers'
p5992
aaa(lp5993
g5971
a(lp5994
S'because'
p5995
aS'air'
p5996
aS'is'
p5997
ag24
aS'better'
p5998
aS'insulator'
p5999
aS'than'
p6000
aS'water'
p6001
aaa(lp6002
g5971
a(lp6003
S'If'
p6004
aS'there'
p6005
aS'was'
p6006
aS'water'
p6007
aS'touching'
p6008
aS'the'
p6009
aS'skin'
p6010
aaa(lp6011
S'LORI'
p6012
a(lp6013
S'Hm'
p6014
aaa(lp6015
S'KIRSTEN'
p6016
a(lp6017
S'water'
p6018
aS'is'
p6019
aS'like'
p6020
ag24
aS'vacuum'
p6021
aS'cleaner'
p6022
aaa(lp6023
g6016
a(lp6024
S'It'
p6025
aS'is'
p6026
aS'just'
p6027
aS'gonna'
p6028
aS'suck'
p6029
aS'the'
p6030
aS'heat'
p6031
aS'away'
p6032
aaa(lp6033
S'LORI'
p6034
a(lp6035
S'Mhm'
p6036
aaa(lp6037
S'KIRSTEN'
p6038
a(lp6039
S'so'
p6040
aS'by'
p6041
aS'having'
p6042
aS'the'
p6043
aS'air'
p6044
aS'there'
p6045
aaa(lp6046
g6038
a(lp6047
S'its'
p6048
ag24
aS'better'
p6049
aS'insulator'
p6050
aaa(lp6051
g6038
a(lp6052
S'So'
p6053
aS'when'
p6054
ag59
aS'see'
p6055
ag24
aS'penguin'
p6056
aS'dive'
p6057
aS'into'
p6058
aS'the'
p6059
aS'water'
p6060
aaa(lp6061
g6038
a(lp6062
S'and'
p6063
ag59
aS'see'
p6064
aS'all'
p6065
aS'of'
p6066
aS'these'
p6067
aS'little'
p6068
aS'air'
p6069
aS'bubbles'
p6070
aS'coming'
p6071
aS'out'
p6072
aaa(lp6073
g6038
a(lp6074
S'what'
p6075
aS'am'
p6076
ag59
aS'seeing'
p6077
aaa(lp6078
S'LORI'
p6079
a(lp6080
S'The'
p6081
aS'air'
p6082
aS'is'
p6083
aS'r'
p6084
aaa(lp6085
g6079
a(lp6086
S'Is'
p6087
aaa(lp6088
S'DON'
p6089
a(lp6090
S'Escaping'
p6091
aS'from'
p6092
aS'the'
p6093
aS'feathers'
p6094
aaa(lp6095
S'LORI'
p6096
a(lp6097
S'escaping'
p6098
aaa(lp6099
g6096
a(lp6100
S'Right'
p6101
aaa(lp6102
S'KIRSTEN'
p6103
a(lp6104
S'Is'
p6105
aS'compressed'
p6106
aS'out'
p6107
aaa(lp6108
S'LORI'
p6109
a(lp6110
S'From'
p6111
aS'the'
p6112
aaa(lp6113
S'KIRSTEN'
p6114
a(lp6115
aa(lp6116
g6114
a(lp6117
S'so'
p6118
aS'the'
p6119
aS'penguin'
p6120
aS'comes'
p6121
aS'up'
p6122
aS'on'
p6123
aS'land'
p6124
aaa(lp6125
g6114
a(lp6126
S'and'
p6127
aS'lets'
p6128
aS'start'
p6129
aS'again'
p6130
aaa(lp6131
S'LORI'
p6132
a(lp6133
S'Mhm'
p6134
aaa(lp6135
S'KIRSTEN'
p6136
a(lp6137
S'And'
p6138
aS'will'
p6139
aS'start'
p6140
aS'preening'
p6141
aaa(lp6142
g6136
a(lp6143
S'working'
p6144
aS'that'
p6145
aS'air'
p6146
aS'layer'
p6147
aS'in'
p6148
aaa(lp6149
g6136
a(lp6150
S'getting'
p6151
aS'some'
p6152
aS'oil'
p6153
aaa(lp6154
S'LORI'
p6155
a(lp6156
aa(lp6157
S'KIRSTEN'
p6158
a(lp6159
S'spreading'
p6160
aS'it'
p6161
aS'out'
p6162
aaa(lp6163
S'LORI'
p6164
a(lp6165
S'How'
p6166
aS'often'
p6167
aS'do'
p6168
aS'the'
p6169
aaa(lp6170
S'DON'
p6171
a(lp6172
S'Mm'
p6173
aaa(lp6174
S'LORI'
p6175
a(lp6176
S'How'
p6177
aS'd'
p6178
aS'often'
p6179
aS'does'
p6180
aS'the'
p6181
aS'bird'
p6182
aS'molt'
p6183
aaa(lp6184
S'KIRSTEN'
p6185
a(lp6186
aa(lp6187
S'LORI'
p6188
a(lp6189
S'Once'
p6190
ag24
aS'year'
p6191
aaa(lp6192
S'KIRSTEN'
p6193
a(lp6194
S'Once'
p6195
ag24
aS'year'
p6196
aaa(lp6197
S'LORI'
p6198
a(lp6199
S'Okay'
p6200
aaa(lp6201
S'KIRSTEN'
p6202
a(lp6203
S'Some'
p6204
aS'speciesll'
p6205
aS'molt'
p6206
aS'twice'
p6207
aaa(lp6208
S'LORI'
p6209
a(lp6210
S'Twice'
p6211
aaa(lp6212
S'KIRSTEN'
p6213
a(lp6214
S'But'
p6215
aS'basically'
p6216
aaa(lp6217
g6213
a(lp6218
S'if'
p6219
aS'you'
p6220
aS'think'
p6221
aS'about'
p6222
aS'it'
p6223
aaa(lp6224
g6213
a(lp6225
S'you'
p6226
aS'know'
p6227
aaa(lp6228
g6213
a(lp6229
g24
aS'year'
p6230
aaa(lp6231
g6213
a(lp6232
S'of'
p6233
aS'picking'
p6234
aS'at'
p6235
aS'the'
p6236
aS'feathers'
p6237
aaa(lp6238
g6213
a(lp6239
S'the'
p6240
aS'feathers'
p6241
aS'are'
p6242
aS'gonna'
p6243
aS'wear'
p6244
aS'out'
p6245
aaa(lp6246
S'LORI'
p6247
a(lp6248
S'Mhm'
p6249
aaa(lp6250
S'KIRSTEN'
p6251
a(lp6252
S'So'
p6253
aS'the'
p6254
aS'last'
p6255
aS'thing'
p6256
aS'that'
p6257
ag24
aS'penguin'
p6258
aS'does'
p6259
aaa(lp6260
g6251
a(lp6261
S'before'
p6262
aS'it'
p6263
aS'goes'
p6264
aS'out'
p6265
aS'to'
p6266
aS'sea'
p6267
aaa(lp6268
g6251
a(lp6269
S'is'
p6270
aaa(lp6271
S'LORI'
p6272
a(lp6273
S'Shed'
p6274
aS'its'
p6275
aaa(lp6276
g6272
a(lp6277
S'yeah'
p6278
aaa(lp6279
S'NICOLE'
p6280
a(lp6281
S'Okay'
p6282
aaa(lp6283
S'KIRSTEN'
p6284
a(lp6285
S'It'
p6286
aS'does'
p6287
ag24
aS'clean'
p6288
aS'sweep'
p6289
aaa(lp6290
S'LORI'
p6291
a(lp6292
S'Mhm'
p6293
aaa(lp6294
S'KIRSTEN'
p6295
a(lp6296
S'And'
p6297
aaa(lp6298
g6295
a(lp6299
S'molts'
p6300
aS'all'
p6301
aS'of'
p6302
aS'its'
p6303
aS'feathers'
p6304
aS'off'
p6305
aaa(lp6306
g6295
a(lp6307
S'And'
p6308
aS'then'
p6309
aS'gets'
p6310
aS'the'
p6311
aS'new'
p6312
aS'feathers'
p6313
aS'on'
p6314
aaa(lp6315
g6295
a(lp6316
S'Okay'
p6317
aaa(lp6318
g6295
a(lp6319
S'So'
p6320
aaa(lp6321
g6295
a(lp6322
S'other'
p6323
aS'than'
p6324
aS'that'
p6325
aaa(lp6326
g6295
a(lp6327
S'um'
p6328
aaa(lp6329
g6295
a(lp6330
S'really'
p6331
aS'the'
p6332
aS'only'
p6333
aS'training'
p6334
aaa(lp6335
g6295
a(lp6336
S'That'
p6337
aS'they'
p6338
aS'do'
p6339
aS'with'
p6340
aS'the'
p6341
aS'penguins'
p6342
aaa(lp6343
g6295
a(lp6344
S'You'
p6345
aS'know'
p6346
aaa(lp6347
g6295
a(lp6348
S'we'
p6349
aS'train'
p6350
aS'all'
p6351
aS'kinds'
p6352
aS'of'
p6353
aS'behaviors'
p6354
aaa(lp6355
g6295
a(lp6356
S'with'
p6357
aS'the'
p6358
aS'other'
p6359
aS'animals'
p6360
aaa(lp6361
g6295
a(lp6362
S'The'
p6363
aS'the'
p6364
aS'the'
p6365
aS'the'
p6366
aS'training'
p6367
aS'that'
p6368
aS'they'
p6369
aS'do'
p6370
aS'with'
p6371
aS'the'
p6372
aS'penguins'
p6373
aaa(lp6374
g6295
a(lp6375
S'is'
p6376
aS'basically'
p6377
aaa(lp6378
g6295
a(lp6379
S'that'
p6380
aS'they'
p6381
aS'have'
p6382
aS'feeding'
p6383
aS'stations'
p6384
aS'for'
p6385
aS'them'
p6386
aaa(lp6387
S'DON'
p6388
a(lp6389
S'Hm'
p6390
aaa(lp6391
S'KIRSTEN'
p6392
a(lp6393
S'Uh'
p6394
aS'Rockhoppers'
p6395
aS'is'
p6396
aS'here'
p6397
aaa(lp6398
g6392
a(lp6399
S'uh'
p6400
aS'Gentus'
p6401
aS'is'
p6402
aS'here'
p6403
aaa(lp6404
g6392
a(lp6405
S'Magellanics'
p6406
aS'is'
p6407
aS'here'
p6408
aaa(lp6409
g6392
a(lp6410
S'and'
p6411
aS'you'
p6412
aS'are'
p6413
aS'not'
p6414
aS'gonna'
p6415
aS'get'
p6416
ag24
aS'fish'
p6417
aaa(lp6418
g6392
a(lp6419
S'unless'
p6420
aS'you'
p6421
aS'come'
p6422
aS'to'
p6423
aS'your'
p6424
aS'feeding'
p6425
aS'station'
p6426
aaa(lp6427
S'LORI'
p6428
a(lp6429
S'Do'
p6430
aS'they'
p6431
aS'pretty'
p6432
aS'much'
p6433
aS'know'
p6434
aS'that'
p6435
aS'by'
p6436
aS'now'
p6437
aaa(lp6438
g6428
a(lp6439
S'Have'
p6440
aS'they'
p6441
aS'pretty'
p6442
aS'much'
p6443
aS'adapted'
p6444
aS'to'
p6445
aS'that'
p6446
aaa(lp6447
S'AMY'
p6448
a(lp6449
S'They'
p6450
aS'were'
p6451
aS'still'
p6452
aS'in'
p6453
aS'the'
p6454
aS'room'
p6455
aaa(lp6456
S'KIRSTEN'
p6457
a(lp6458
S'Okay'
p6459
aaa(lp6460
S'AMY'
p6461
a(lp6462
S'When'
p6463
aaa(lp6464
g6461
a(lp6465
S'when'
p6466
ag59
aS'was'
p6467
aS'here'
p6468
aaa(lp6469
g6461
a(lp6470
S'And'
p6471
aaa(lp6472
g6461
a(lp6473
S'they'
p6474
aS'were'
p6475
aaa(lp6476
g6461
a(lp6477
S'they'
p6478
aS'were'
p6479
aS'pretty'
p6480
aS'random'
p6481
aS'about'
p6482
aS'it'
p6483
aaa(lp6484
g6461
a(lp6485
S'because'
p6486
aS'Mark'
p6487
aS'would'
p6488
aS'take'
p6489
aaa(lp6490
g6461
a(lp6491
S'you'
p6492
aS'know'
p6493
ag24
aS'bucket'
p6494
aS'over'
p6495
aS'here'
p6496
aaa(lp6497
S'KIRSTEN'
p6498
a(lp6499
S'Right'
p6500
aaa(lp6501
g6498
a(lp6502
S'And'
p6503
aS'that'
p6504
aS'was'
p6505
aS'with'
p6506
aS'the'
p6507
aS'chicks'
p6508
aaa(lp6509
S'AMY'
p6510
a(lp6511
S'and'
p6512
aS'then'
p6513
aaa(lp6514
g6510
a(lp6515
S'whoever'
p6516
aaa(lp6517
g6510
a(lp6518
S'yeah'
p6519
aaa(lp6520
S'KIRSTEN'
p6521
a(lp6522
S'Okay'
p6523
aaa(lp6524
S'AMY'
p6525
a(lp6526
S'With'
p6527
aS'the'
p6528
aaa(lp6529
g6525
a(lp6530
S'HI'
p6531
aS'yeah'
p6532
aS'HI'
p6533
aaa(lp6534
g6525
a(lp6535
g59
aS'mean'
p6536
aaa(lp6537
g6525
a(lp6538
S'the'
p6539
aS'ones'
p6540
aS'that'
p6541
aS'were'
p6542
aS'in'
p6543
aS'there'
p6544
aaa(lp6545
S'LORI'
p6546
a(lp6547
S'The'
p6548
aS'adult'
p6549
aS'penguins'
p6550
aaa(lp6551
S'AMY'
p6552
a(lp6553
S'they'
p6554
aaa(lp6555
g6552
a(lp6556
S'yeah'
p6557
aaa(lp6558
g6552
a(lp6559
S'the'
p6560
aS'adult'
p6561
aS'ones'
p6562
aS'were'
p6563
aS'fine'
p6564
aS'about'
p6565
aS'it'
p6566
aaa(lp6567
S'LORI'
p6568
a(lp6569
S'Mhm'
p6570
aaa(lp6571
S'AMY'
p6572
a(lp6573
S'you'
p6574
aS'know'
p6575
aaa(lp6576
g6572
a(lp6577
S'someone'
p6578
aS'set'
p6579
aS'up'
p6580
aS'over'
p6581
aS'here'
p6582
aaa(lp6583
g6572
a(lp6584
S'and'
p6585
aS'someone'
p6586
aS'over'
p6587
aS'here'
p6588
aaa(lp6589
g6572
a(lp6590
S'and'
p6591
aS'they'
p6592
aS'pretty'
p6593
aS'much'
p6594
aS'went'
p6595
aaa(lp6596
g6572
a(lp6597
S'where'
p6598
aS'they'
p6599
aS'were'
p6600
aS'supposed'
p6601
aS'to'
p6602
aaa(lp6603
S'LORI'
p6604
a(lp6605
S'So'
p6606
aS'they'
p6607
aS'knew'
p6608
aaa(lp6609
g6604
a(lp6610
S'to'
p6611
aS'go'
p6612
aS'to'
p6613
aS'station'
p6614
aS'one'
p6615
aaa(lp6616
S'AMY'
p6617
a(lp6618
S'Yeah'
p6619
aaa(lp6620
g6617
a(lp6621
S'Versus'
p6622
aS'station'
p6623
aS'two'
p6624
aaa(lp6625
S'KIRSTEN'
p6626
a(lp6627
S'Right'
p6628
aaa(lp6629
S'AMY'
p6630
a(lp6631
S'Yeah'
p6632
aaa(lp6633
S'LORI'
p6634
a(lp6635
S'Okay'
p6636
aaa(lp6637
S'KIRSTEN'
p6638
a(lp6639
S'So'
p6640
aaa(lp6641
g6638
a(lp6642
g59
aS'guess'
p6643
aaa(lp6644
g6638
a(lp6645
S'Not'
p6646
aS'Im'
p6647
aS'not'
p6648
aaa(lp6649
g6638
a(lp6650
S'Im'
p6651
aS'not'
p6652
aS'sure'
p6653
aaa(lp6654
g6638
a(lp6655
S'but'
p6656
aaa(lp6657
g6638
a(lp6658
S'its'
p6659
aS'just'
p6660
aS'kind'
p6661
aS'of'
p6662
aS'interesting'
p6663
aaa(lp6664
g6638
a(lp6665
S'because'
p6666
aaa(lp6667
g6638
a(lp6668
S'other'
p6669
aS'facilities'
p6670
aaa(lp6671
g6638
a(lp6672
S'as'
p6673
aS'far'
p6674
aS'as'
p6675
aS'Im'
p6676
aS'aware'
p6677
aaa(lp6678
g6638
a(lp6679
S'its'
p6680
aS'like'
p6681
aS'with'
p6682
aS'the'
p6683
aS'sea'
p6684
aS'otters'
p6685
aS'as'
p6686
aS'well'
p6687
aaa(lp6688
g6638
a(lp6689
S'you'
p6690
aS'know'
p6691
aaa(lp6692
g6638
a(lp6693
S'the'
p6694
aS'training'
p6695
aS'that'
p6696
aS'they'
p6697
aS'do'
p6698
aS'with'
p6699
aS'these'
p6700
aS'animals'
p6701
aS'is'
p6702
aS'pretty'
p6703
aS'minimal'
p6704
aaa(lp6705
g6638
a(lp6706
S'With'
p6707
aS'the'
p6708
aS'sea'
p6709
aS'otters'
p6710
aaa(lp6711
g6638
a(lp6712
S'theyre'
p6713
aS'pretty'
p6714
aaa(lp6715
g6638
a(lp6716
S'They'
p6717
aS'can'
p6718
aS'be'
p6719
aS'aggressive'
p6720
aaa(lp6721
g6638
a(lp6722
S'they'
p6723
aS'have'
p6724
aS'big'
p6725
aS'teeth'
p6726
aaa(lp6727
g6638
a(lp6728
S'People'
p6729
aS'have'
p6730
aS'historically'
p6731
aS'done'
p6732
aS'more'
p6733
aS'training'
p6734
aaa(lp6735
g6638
a(lp6736
S'with'
p6737
aS'cetaceans'
p6738
aaa(lp6739
g6638
a(lp6740
S'than'
p6741
aS'they'
p6742
aS'have'
p6743
aS'with'
p6744
aS'other'
p6745
aS'animals'
p6746
aaa(lp6747
g6638
a(lp6748
S'and'
p6749
aS'we'
p6750
aaa(lp6751
g6638
a(lp6752
S'we'
p6753
aS'really'
p6754
aS'do'
p6755
aS'some'
p6756
aS'pretty'
p6757
aS'unique'
p6758
aS'training'
p6759
aS'here'
p6760
aaa(lp6761
g6638
a(lp6762
S'with'
p6763
aS'our'
p6764
aS'penguins'
p6765
aaa(lp6766
g6638
a(lp6767
S'with'
p6768
aS'our'
p6769
aS'sea'
p6770
aS'otters'
p6771
aaa(lp6772
g6638
a(lp6773
S'and'
p6774
aS'with'
p6775
aS'our'
p6776
aS'seals'
p6777
aaa(lp6778
S'LORI'
p6779
a(lp6780
S'Mhm'
p6781
aaa(lp6782
S'KIRSTEN'
p6783
a(lp6784
S'So'
p6785
aaa(lp6786
g6783
a(lp6787
S'Its'
p6788
aS'kinda'
p6789
aS'neat'
p6790
aS'stuff'
p6791
aaa(lp6792
S'LORI'
p6793
a(lp6794
S'Cool'
p6795
aaa(lp6796
S'KIRSTEN'
p6797
a(lp6798
S'Anything'
p6799
aS'else'
p6800
aaa(lp6801
g6797
a(lp6802
S'About'
p6803
aS'penguins'
p6804
aaa(lp6805
g6797
a(lp6806
S'that'
p6807
aS'we'
p6808
aS'should'
p6809
aS'discuss'
p6810
aaa(lp6811
g6797
a(lp6812
S'For'
p6813
aS'you'
p6814
aS'guys'
p6815
aaa(lp6816
g6797
a(lp6817
S'the'
p6818
aS'key'
p6819
aS'to'
p6820
aS'the'
p6821
aS'penguin'
p6822
aS'cart'
p6823
aaa(lp6824
g6797
a(lp6825
S'if'
p6826
aS'you'
p6827
ag6178
aaa(lp6828
g6797
a(lp6829
S'Well'
p6830
aaa(lp6831
g6797
a(lp6832
g59
aS'dont'
p6833
aaa(lp6834
S'LORI'
p6835
a(lp6836
S'The'
p6837
aS'puffin'
p6838
aS'cart'
p6839
aaa(lp6840
S'KIRSTEN'
p6841
a(lp6842
aa(lp6843
g6841
a(lp6844
S'Are'
p6845
aaa(lp6846
g6841
a(lp6847
S'Yeah'
p6848
aS'the'
p6849
aaa(lp6850
S'DON'
p6851
a(lp6852
S'Puffin'
p6853
aS'cart'
p6854
aaa(lp6855
S'LORI'
p6856
a(lp6857
S'Mhm'
p6858
aaa(lp6859
S'KIRSTEN'
p6860
a(lp6861
S'Is'
p6862
aS'on'
p6863
aaa(lp6864
g6860
a(lp6865
S'is'
p6866
aS'behind'
p6867
aS'the'
p6868
aS'tide'
p6869
aS'pool'
p6870
aaa(lp6871
g6860
a(lp6872
S'On'
p6873
aS'one'
p6874
aS'of'
p6875
aS're'
p6876
aS'the'
p6877
aS'reserve'
p6878
aS'tanks'
p6879
aaa(lp6880
g6860
a(lp6881
S'So'
p6882
aS'if'
p6883
aS'you'
p6884
aS'choose'
p6885
aS'to'
p6886
aS'pick'
p6887
ag24
aS'specimen'
p6888
aaa(lp6889
g6860
a(lp6890
S'you'
p6891
aS'dont'
p6892
aS'have'
p6893
aS'to'
p6894
aS'bring'
p6895
aS'the'
p6896
aS'whole'
p6897
aS'cart'
p6898
aS'out'
p6899
aaa(lp6900
g6860
a(lp6901
S'If'
p6902
aS'you'
p6903
aS'wanna'
p6904
aS'grab'
p6905
ag24
aS'specimen'
p6906
aaa(lp6907
S'DON'
p6908
a(lp6909
S'Hm'
p6910
aaa(lp6911
S'KIRSTEN'
p6912
a(lp6913
S'and'
p6914
aS'bring'
p6915
aS'it'
p6916
aS'out'
p6917
aS'to'
p6918
aS'the'
p6919
aS'exhibit'
p6920
aaa(lp6921
g6912
a(lp6922
S'thats'
p6923
aS'fine'
p6924
aaa(lp6925
g6912
a(lp6926
S'But'
p6927
aaa(lp6928
g6912
a(lp6929
g59
aS'suggest'
p6930
aS'that'
p6931
aS'you'
p6932
aS'check'
p6933
aS'it'
p6934
aS'out'
p6935
aS'today'
p6936
aaa(lp6937
g6912
a(lp6938
S'anyway'
p6939
aaa(lp6940
g6912
a(lp6941
S'um'
p6942
aaa(lp6943
g6912
a(lp6944
S'theres'
p6945
aS'just'
p6946
aaa(lp6947
g6912
a(lp6948
S'Theres'
p6949
aS'some'
p6950
aS'neat'
p6951
aS'things'
p6952
aS'to'
p6953
aS'interpret'
p6954
aaa(lp6955
g6912
a(lp6956
S'So'
p6957
aaa(lp6958
g6912
a(lp6959
S'Check'
p6960
aS'it'
p6961
aS'out'
p6962
aaa(lp6963
S'LORI'
p6964
a(lp6965
S'Youve'
p6966
aS'got'
p6967
aS'underwater'
p6968
aS'viewing'
p6969
aaa(lp6970
S'DON'
p6971
a(lp6972
S'Yeah'
p6973
aaa(lp6974
g6971
a(lp6975
S'At'
p6976
aS'three'
p6977
aaa(lp6978
S'KIRSTEN'
p6979
a(lp6980
S'Check'
p6981
aS'it'
p6982
aS'out'
p6983
aaa(lp6984
g6979
a(lp6985
S'So'
p6986
aS'if'
p6987
aS'theres'
p6988
ag24
aS'time'
p6989
aaa(lp6990
g6979
a(lp6991
S'you'
p6992
aS'know'
p6993
aS'for'
p6994
aS'Lori'
p6995
aS'to'
p6996
aS'go'
p6997
aS'do'
p6998
aS'it'
p6999
aaa(lp7000
S'LORI'
p7001
a(lp7002
S'Well'
p7003
aS'Ill'
p7004
aS'probably'
p7005
aS'go'
p7006
aS'between'
p7007
aS'coastal'
p7008
aaa(lp7009
g7001
a(lp7010
S'Ill'
p7011
aS'probably'
p7012
aS'meander'
p7013
aS'coastal'
p7014
aS'downstairs'
p7015
aaa(lp7016
S'KIRSTEN'
p7017
a(lp7018
S'Okay'
p7019
aaa(lp7020
S'LORI'
p7021
a(lp7022
S'Cause'
p7023
aS'theres'
p7024
ag24
aS'presentation'
p7025
aS'close'
p7026
aS'to'
p7027
aS'four'
p7028
aS'thirty'
p7029
aaa(lp7030
S'KIRSTEN'
p7031
a(lp7032
S'Okay'
p7033
aaa(lp7034
g7031
a(lp7035
S'Great'
p7036
aaa(lp7037
S'LORI'
p7038
a(lp7039
S'Oh'
p7040
aS'wait'
p7041
aaa(lp7042
g7038
a(lp7043
S'Never'
p7044
aS'mind'
p7045
aaa(lp7046
g7038
a(lp7047
S'Ill'
p7048
aS'do'
p7049
aS'it'
p7050
aS'then'
p7051
aaa(lp7052
g7038
a(lp7053
S'When'
p7054
aS'theres'
p7055
ag24
aS'presentation'
p7056
aS'at'
p7057
aS'three'
p7058
aaa(lp7059
S'KIRSTEN'
p7060
a(lp7061
S'VOX'
p7062
aS'Perfect'
p7063
aS'VOX'
p7064
aaa(lp7065
S'LORI'
p7066
a(lp7067
S'Mhm'
p7068
aaa(lp7069
S'KIRSTEN'
p7070
a(lp7071
S'So'
p7072
aS'that'
p7073
aS'is'
p7074
aS'penguin'
p7075
aS'stuff'
p7076
aaa(lp7077
g7070
a(lp7078
S'Um'
p7079
aaa(lp7080
g7070
a(lp7081
g59
aS'hate'
p7082
aS'to'
p7083
aS'say'
p7084
aS'it'
p7085
aaa(lp7086
g7070
a(lp7087
S'but'
p7088
aaa(lp7089
g7070
a(lp7090
S'can'
p7091
aS'you'
p7092
aS'guys'
p7093
aS'go'
p7094
aS'do'
p7095
ag1659
aS'and'
p7096
ag1612
aaa(lp7097
g7070
a(lp7098
S'or'
p7099
aS'who'
p7100
aaa(lp7101
g7070
a(lp7102
S'Or'
p7103
aS'Lori'
p7104
aS'are'
p7105
aS'you'
p7106
aS'doing'
p7107
ag1659
aS'and'
p7108
ag1612
aaa(lp7109
S'LORI'
p7110
a(lp7111
S'No'
p7112
aaa(lp7113
g7110
a(lp7114
g59
aS'dont'
p7115
aS'think'
p7116
aS'anyone'
p7117
aS'signed'
p7118
aS'up'
p7119
aS'for'
p7120
ag1659
aS'and'
p7121
ag1612
aaa(lp7122
S'DON'
p7123
a(lp7124
S'Nobody'
p7125
aS'signed'
p7126
aS'up'
p7127
aS'for'
p7128
ag1659
aS'and'
p7129
ag1612
aaa(lp7130
S'LORI'
p7131
a(lp7132
aa(lp7133
S'KIRSTEN'
p7134
a(lp7135
S'Nobodys'
p7136
aS'gonna'
p7137
aS'do'
p7138
ag1659
aS'and'
p7139
ag1612
aaa(lp7140
S'LORI'
p7141
a(lp7142
aa(lp7143
S'KIRSTEN'
p7144
a(lp7145
g59
aS'shouldve'
p7146
aS'cancelled'
p7147
aS'it'
p7148
aS'then'
p7149
aaa(lp7150
g7144
a(lp7151
S'WH'
p7152
aS'Guys'
p7153
ag54
aS'why'
p7154
aS'wont'
p7155
ag54
aS'somebody'
p7156
aS'do'
p7157
ag1659
aS'and'
p7158
ag1612
aS'WH'
p7159
aaa(lp7160
S'LORI'
p7161
a(lp7162
S'Well'
p7163
aaa(lp7164
g7161
a(lp7165
S'both'
p7166
aS'of'
p7167
aS'us'
p7168
aaa(lp7169
S'KIRSTEN'
p7170
a(lp7171
S'Do'
p7172
aS'it'
p7173
aS'together'
p7174
aaa(lp7175
S'DON'
p7176
a(lp7177
S'You'
p7178
aS'wanna'
p7179
aS'do'
p7180
aS'it'
p7181
aaa(lp7182
S'LORI'
p7183
a(lp7184
S'Yeah'
p7185
aaa(lp7186
g7183
a(lp7187
S'cause'
p7188
ag59
aS'cant'
p7189
aS'remember'
p7190
aS'the'
p7191
aS'questions'
p7192
aaa(lp7193
S'KIRSTEN'
p7194
a(lp7195
S'Do'
p7196
aS'it'
p7197
aS'together'
p7198
aaa(lp7199
S'LORI'
p7200
a(lp7201
S'You'
p7202
aS'have'
p7203
aS'to'
p7204
aS'remind'
p7205
aS'me'
p7206
aS'the'
p7207
aS'question'
p7208
aaa(lp7209
S'DON'
p7210
a(lp7211
g59
aS'gotta'
p7212
aS'be'
p7213
aS'down'
p7214
aS'at'
p7215
aS'the'
p7216
aS'tide'
p7217
aS'pool'
p7218
aS'at'
p7219
aS'two'
p7220
aS'thirty'
p7221
aaa(lp7222
S'LORI'
p7223
a(lp7224
S'Alright'
p7225
aaa(lp7226
g7223
a(lp7227
S'Thats'
p7228
aS'okay'
p7229
aaa(lp7230
S'KIRSTEN'
p7231
a(lp7232
S'Okay'
p7233
aaa(lp7234
g7231
a(lp7235
S'Okay'
p7236
aaa(lp7237
S'LORI'
p7238
a(lp7239
S'Well'
p7240
aS'do'
p7241
ag1659
aS'and'
p7242
ag1612
aaa(lp7243
g7238
a(lp7244
S'And'
p7245
aS'if'
p7246
aS'its'
p7247
aaa(lp7248
S'KIRSTEN'
p7249
a(lp7250
S'Thanks'
p7251
aS'guys'
p7252
aaa(lp7253
S'LORI'
p7254
a(lp7255
S'Uh'
p7256
aS'what'
p7257
aS'time'
p7258
aS'is'
p7259
ag1659
aS'and'
p7260
ag1612
aaa(lp7261
g7254
a(lp7262
S'two'
p7263
aS'twenty'
p7264
aaa(lp7265
S'KIRSTEN'
p7266
a(lp7267
S'Now'
p7268
aaa(lp7269
S'LORI'
p7270
a(lp7271
S'And'
p7272
aaa(lp7273
S'DON'
p7274
a(lp7275
S'Right'
p7276
aS'now'
p7277
aaa(lp7278
S'LORI'
p7279
a(lp7280
S'tell'
p7281
aS'me'
p7282
aS'when'
p7283
ag59
aS'can'
p7284
aS'get'
p7285
aS'checked'
p7286
aS'out'
p7287
aS'on'
p7288
aS'seals'
p7289
aaa(lp7290
S'DON'
p7291
a(lp7292
S'Two'
p7293
aS'fifteen'
p7294
aaa(lp7295
S'KIRSTEN'
p7296
a(lp7297
S'Okay'
p7298
aaa(lp7299
g7296
a(lp7300
S'Ill'
p7301
aS'find'
p7302
aS'you'
p7303
aaa(lp7304
S'LORI'
p7305
a(lp7306
S'Today'
p7307
aaa(lp7308
S'DON'
p7309
a(lp7310
S'Wheres'
p7311
ag54
aS'the'
p7312
aS'um'
p7313
ag54
aaa(lp7314
S'KIRSTEN'
p7315
a(lp7316
g59
aS'will'
p7317
aS'find'
p7318
aS'you'
p7319
aaa(lp7320
S'LORI'
p7321
a(lp7322
g59
aS'dont'
p7323
aS'wanna'
p7324
aS'do'
p7325
aS'it'
p7326
aS'in'
p7327
aS'two'
p7328
aS'weeks'
p7329
aaa(lp7330
g7321
a(lp7331
S'Ill'
p7332
aS'forget'
p7333
aaa(lp7334
S'DON'
p7335
a(lp7336
S'wheres'
p7337
aS'the'
p7338
aaa(lp7339
S'LORI'
p7340
a(lp7341
aa(lp7342
S'KIRSTEN'
p7343
a(lp7344
S'No'
p7345
ag59
aS'wont'
p7346
aaa(lp7347
g7343
a(lp7348
g59
aS'promise'
p7349
aaa.