(lp0
(lp1
S'ALAN'
p2
a(lp3
S'I'
p4
aS'got'
p5
aS'a'
p6
aS'story'
p7
aS'to'
p8
aS'tell'
p9
aS'you'
p10
aaa(lp11
g2
a(lp12
S'its'
p13
ag6
aS'shaggy'
p14
aS'dog'
p15
aS'story'
p16
aaa(lp17
g2
a(lp18
S'but'
p19
aS'as'
p20
aS'long'
p21
aS'as'
p22
aS'were'
p23
aS'talking'
p24
aS'about'
p25
aS'that'
p26
aS'recorder'
p27
aS'and'
p28
aS'sixhundred'
p29
aS'dollars'
p30
aaa(lp31
g2
a(lp32
S'Ill'
p33
aS'tell'
p34
aS'you'
p35
aS'the'
p36
aS'story'
p37
aaa(lp38
g2
a(lp39
S'oh'
p40
aS'gosh'
p41
aaa(lp42
g2
a(lp43
S'uh'
p44
aaa(lp45
g2
a(lp46
S'Rae'
p47
aS'and'
p48
ag4
aS'and'
p49
aS'Sue'
p50
aS'and'
p51
aS'Buddy'
p52
aaa(lp53
g2
a(lp54
S'took'
p55
ag6
aS'trip'
p56
aaa(lp57
g2
a(lp58
S'to'
p59
aS'Mexico'
p60
aS'City'
p61
aaa(lp62
S'JON'
p63
a(lp64
aa(lp65
S'ALAN'
p66
a(lp67
S'It'
p68
aS'mustve'
p69
aS'been'
p70
aaa(lp71
g66
a(lp72
S'four'
p73
aS'to'
p74
aS'six'
p75
aS'months'
p76
aS'after'
p77
aS'my'
p78
aS'dad'
p79
aS'died'
p80
aaa(lp81
g66
a(lp82
S'Thats'
p83
aS'how'
p84
ag4
aS'remember'
p85
aS'it'
p86
aaa(lp87
g66
a(lp88
S'he'
p89
aS'died'
p90
aS'in'
p91
aS'sixtys'
p92
aaa(lp93
S'JON'
p94
a(lp95
S'Oh'
p96
aS'God'
p97
aaa(lp98
S'ALAN'
p99
a(lp100
S'December'
p101
aS'sixtyseven'
p102
aaa(lp103
g99
a(lp104
S'so'
p105
aaa(lp106
g99
a(lp107
S'sometime'
p108
aS'in'
p109
aS'sixtyeight'
p110
aS'we'
p111
aS'took'
p112
aS'this'
p113
aS'trip'
p114
aaa(lp115
g99
a(lp116
S'wed'
p117
aS'been'
p118
aS'talking'
p119
aS'about'
p120
aS'it'
p121
aS'for'
p122
ag6
aS'while'
p123
aaa(lp124
g99
a(lp125
S'uh'
p126
aaa(lp127
g99
a(lp128
S'flew'
p129
aS'down'
p130
aS'to'
p131
aS'Mexico'
p132
aS'City'
p133
aaa(lp134
g99
a(lp135
S'uh'
p136
aS'we'
p137
aaa(lp138
g99
a(lp139
S'c'
p140
aS'think'
p141
aS'of'
p142
aS'the'
p143
aS'name'
p144
aS'of'
p145
aS'my'
p146
aS'hotel'
p147
aaa(lp148
g99
a(lp149
S'which'
p150
aS'wouldnt'
p151
aS'mean'
p152
aS'anything'
p153
aS'now'
p154
aaa(lp155
g99
a(lp156
S'but'
p157
aS'we'
p158
aS'ended'
p159
aS'up'
p160
aS'in'
p161
ag6
aS'fabulous'
p162
aS'hotel'
p163
aaa(lp164
g99
a(lp165
S'uh'
p166
aaa(lp167
g99
a(lp168
S'first'
p169
aS'night'
p170
aaa(lp171
g99
a(lp172
S'we'
p173
aS'were'
p174
aS'VOX'
p175
aS'very'
p176
aS'unhappy'
p177
aS'VOX'
p178
aS'with'
p179
aS'our'
p180
aS'rooms'
p181
aaa(lp182
g99
a(lp183
S'we'
p184
aS'got'
p185
aS'down'
p186
aS'there'
p187
aaa(lp188
g99
a(lp189
S'and'
p190
aS'the'
p191
aS'next'
p192
aS'morning'
p193
aaa(lp194
g99
a(lp195
S'Buddy'
p196
aaa(lp197
g99
a(lp198
S'whos'
p199
ag6
aS'early'
p200
aS'riser'
p201
aS'anyhow'
p202
aaa(lp203
g99
a(lp204
S'was'
p205
aS'probably'
p206
aS'up'
p207
aS'four'
p208
aS'oclock'
p209
aaa(lp210
g99
a(lp211
S'and'
p212
aS'he'
p213
aS'went'
p214
aS'down'
p215
aS'there'
p216
aS'complaining'
p217
aS'to'
p218
aS'the'
p219
aS'manager'
p220
aaa(lp221
g99
a(lp222
S'So'
p223
aaa(lp224
g99
a(lp225
S'cause'
p226
aS'it'
p227
aS'was'
p228
aS'not'
p229
aS'w'
p230
aS'the'
p231
aS'accommodation'
p232
aS'we'
p233
aS'were'
p234
aS'supposed'
p235
aS'to'
p236
aS'have'
p237
aS'had'
p238
aaa(lp239
g99
a(lp240
S'we'
p241
aS'checked'
p242
aS'in'
p243
aS'about'
p244
aS'eight'
p245
aS'oclock'
p246
aS'at'
p247
aS'night'
p248
aS'or'
p249
aS'so'
p250
aaa(lp251
g99
a(lp252
S'which'
p253
aS'is'
p254
aaa(lp255
g99
a(lp256
S'in'
p257
aS'Mexico'
p258
aS'is'
p259
aS'like'
p260
aaa(lp261
g99
a(lp262
S'you'
p263
aS'know'
p264
aaa(lp265
g99
a(lp266
S'X'
p267
aS'the'
p268
ag267
aaa(lp269
g99
a(lp270
S'Well'
p271
aS'we'
p272
aS'ended'
p273
aS'up'
p274
aS'with'
p275
ag6
aS'corner'
p276
aS'suite'
p277
aaa(lp278
g99
a(lp279
S'With'
p280
aaa(lp281
g99
a(lp282
S'It'
p283
aS'was'
p284
aS'so'
p285
aS'big'
p286
aaa(lp287
S'JON'
p288
a(lp289
aa(lp290
S'ALAN'
p291
a(lp292
S'we'
p293
aS'couldve'
p294
aS'had'
p295
ag6
aS'party'
p296
aS'for'
p297
aS'fifty'
p298
aS'people'
p299
aS'XXXXX'
p300
aaa(lp301
g291
a(lp302
S'Three'
p303
aS'bathrooms'
p304
aS'in'
p305
aS'it'
p306
aaa(lp307
g291
a(lp308
S'two'
p309
aS'bedrooms'
p310
aaa(lp311
g291
a(lp312
S'so'
p313
aS'they'
p314
aS'had'
p315
aaa(lp316
g291
a(lp317
S'but'
p318
aS'they'
p319
aS'had'
p320
aS'an'
p321
aS'extra'
p322
aS'guest'
p323
aS'bathroom'
p324
aS'XX'
p325
aaa(lp326
g291
a(lp327
S'big'
p328
aS'bar'
p329
aaa(lp330
g291
a(lp331
S'it'
p332
aS'was'
p333
aS'circ'
p334
aaa(lp335
g291
a(lp336
S'open'
p337
aS'on'
p338
aS'two'
p339
aS'sides'
p340
aaa(lp341
g291
a(lp342
S'of'
p343
aS'course'
p344
aS'we'
p345
aS'didnt'
p346
aS'have'
p347
aS'anybody'
p348
aS'there'
p349
aS'but'
p350
aS'the'
p351
aS'two'
p352
aS'of'
p353
aS'us'
p354
aaa(lp355
g291
a(lp356
S'And'
p357
ag4
aS'remember'
p358
aS'the'
p359
aS'New'
p360
aS'York'
p361
aS'Yankees'
p362
aS'were'
p363
aS'training'
p364
aS'there'
p365
aaa(lp366
g291
a(lp367
S'So'
p368
aS'it'
p369
aS'probably'
p370
aS'was'
p371
aaa(lp372
g291
a(lp373
S'the'
p374
aS'season'
p375
aS'opens'
p376
aS'in'
p377
aS'April'
p378
aaa(lp379
g291
a(lp380
S'so'
p381
aS'it'
p382
aS'probably'
p383
aS'was'
p384
aS'February'
p385
aS'or'
p386
aS'March'
p387
aaa(lp388
g291
a(lp389
S'Mickey'
p390
aS'Mantle'
p391
aaa(lp392
g291
a(lp393
S'and'
p394
aS'uh'
p395
aS'Whitey'
p396
aS'Ford'
p397
aS'and'
p398
aS'all'
p399
aS'of'
p400
aS'em'
p401
aaa(lp402
g291
a(lp403
g4
aS'wish'
p404
aS'Id'
p405
aS'been'
p406
aS'smart'
p407
aS'enough'
p408
aS'to'
p409
aS'know'
p410
aS'then'
p411
aS'that'
p412
aS'uh'
p413
aaa(lp414
g291
a(lp415
S'these'
p416
aS'baseball'
p417
aS'cards'
p418
aaa(lp419
g291
a(lp420
S'and'
p421
aS'those'
p422
aS'autographs'
p423
aaa(lp424
g291
a(lp425
S'would'
p426
aS'be'
p427
aS'selling'
p428
aS'for'
p429
aaa(lp430
g291
a(lp431
S'three'
p432
aS'or'
p433
aS'four'
p434
aS'hundred'
p435
aS'dollars'
p436
aaa(lp437
S'JON'
p438
a(lp439
aa(lp440
S'ALAN'
p441
a(lp442
S'but'
p443
aaa(lp444
g441
a(lp445
S'at'
p446
aS'any'
p447
aS'rate'
p448
aaa(lp449
g441
a(lp450
S'uh'
p451
aaa(lp452
g441
a(lp453
g4
aS'went'
p454
aS'down'
p455
aS'there'
p456
aS'with'
p457
ag6
aS'recorder'
p458
aaa(lp459
g441
a(lp460
S'We'
p461
aS'used'
p462
aS'to'
p463
aaa(lp464
g441
a(lp465
S'We'
p466
aS'had'
p467
aS'those'
p468
aS'things'
p469
aS'at'
p470
aS'the'
p471
aS'store'
p472
aaa(lp473
g441
a(lp474
S'that'
p475
aS'we'
p476
aS'used'
p477
aS'to'
p478
aS'use'
p479
aaa(lp480
g441
a(lp481
S'when'
p482
aS'wed'
p483
aS'go'
p484
aS'out'
p485
aS'of'
p486
aS'town'
p487
aS'and'
p488
aaa(lp489
S'JON'
p490
a(lp491
aa(lp492
S'ALAN'
p493
a(lp494
S'particularly'
p495
aS'if'
p496
aS'we'
p497
aS'were'
p498
aS'looking'
p499
aS'at'
p500
aS'some'
p501
aS'site'
p502
aaa(lp503
g493
a(lp504
S'or'
p505
aaa(lp506
g493
a(lp507
S'we'
p508
aS'were'
p509
aS'looking'
p510
aS'at'
p511
ag6
aS'store'
p512
aaa(lp513
S'JON'
p514
a(lp515
aa(lp516
S'ALAN'
p517
a(lp518
S'when'
p519
aS'we'
p520
aS'had'
p521
aS'some'
p522
aS'comments'
p523
aaa(lp524
g517
a(lp525
S'wed'
p526
aS'talk'
p527
aS'into'
p528
aS'those'
p529
aS'things'
p530
aaa(lp531
g517
a(lp532
S'We'
p533
aS'had'
p534
aS'four'
p535
aS'or'
p536
aS'five'
p537
aS'of'
p538
aS'em'
p539
aaa(lp540
g517
a(lp541
S'Aaron'
p542
aS'had'
p543
aS'one'
p544
aaa(lp545
g517
a(lp546
g4
aS'had'
p547
aS'one'
p548
aaa(lp549
g517
a(lp550
S'Mike'
p551
aS'had'
p552
aS'one'
p553
aaa(lp554
g517
a(lp555
S'XX'
p556
aS'had'
p557
aS'one'
p558
aaa(lp559
g517
a(lp560
g267
aS'from'
p561
aS'that'
p562
aS'financial'
p563
aS'guy'
p564
ag267
aaa(lp565
g517
a(lp566
S'Things'
p567
aS'sold'
p568
aS'at'
p569
aS'the'
p570
aS'time'
p571
aS'for'
p572
aS'about'
p573
aS'eight'
p574
aS'or'
p575
aS'ninehundred'
p576
aS'dollars'
p577
aaa(lp578
S'JON'
p579
a(lp580
S'Eight'
p581
aS'or'
p582
aS'ninehundred'
p583
aaa(lp584
S'ALAN'
p585
a(lp586
S'Eight'
p587
aaa(lp588
g585
a(lp589
S'Eight'
p590
aS'or'
p591
aS'ninehundred'
p592
aS'dollars'
p593
aaa(lp594
S'JON'
p595
a(lp596
aa(lp597
S'ALAN'
p598
a(lp599
S'Uh'
p600
aaa(lp601
g598
a(lp602
S'you'
p603
aS'got'
p604
ag6
aS'very'
p605
aS'sophisticated'
p606
aS'one'
p607
aaa(lp608
g598
a(lp609
S'but'
p610
aS'you'
p611
aS'know'
p612
aS'the'
p613
aS'little'
p614
aS'ones'
p615
aS'now'
p616
aS'about'
p617
aS'this'
p618
aS'size'
p619
aaa(lp620
g598
a(lp621
S'Well'
p622
aS'this'
p623
aS'son'
p624
aS'of'
p625
ag6
aS'bitch'
p626
aS'weighed'
p627
aS'about'
p628
aS'MRC'
p629
aS'fifteen'
p630
aS'pounds'
p631
aS'MRC'
p632
aaa(lp633
g598
a(lp634
S'It'
p635
aS'was'
p636
aS'MRC'
p637
aS'some'
p638
aS'heavy'
p639
aS'son'
p640
aS'of'
p641
ag6
aS'bitch'
p642
aS'MRC'
p643
aaa(lp644
S'JON'
p645
a(lp646
aa(lp647
S'ALAN'
p648
a(lp649
S'Had'
p650
ag6
aS'pouch'
p651
aaa(lp652
g648
a(lp653
S'like'
p654
aaa(lp655
g648
a(lp656
S'sorta'
p657
aS'like'
p658
aS'youve'
p659
aS'got'
p660
aaa(lp661
g648
a(lp662
g4
aS'carried'
p663
aS'it'
p664
aS'around'
p665
aaa(lp666
g648
a(lp667
S'Well'
p668
aS'any'
p669
aS'rate'
p670
aaa(lp671
g648
a(lp672
S'my'
p673
aS'wife'
p674
aS'had'
p675
aS'fallen'
p676
aS'in'
p677
aS'love'
p678
aaa(lp679
g648
a(lp680
S'with'
p681
ag6
aaa(lp682
g648
a(lp683
S'Mexican'
p684
aS'artist'
p685
aS'by'
p686
aS'the'
p687
aS'name'
p688
aS'of'
p689
aS'Nierman'
p690
aaa(lp691
g648
a(lp692
S'Forgot'
p693
aS'his'
p694
aS'first'
p695
aS'name'
p696
aaa(lp697
g648
a(lp698
S'Jewish'
p699
aS'guy'
p700
aaa(lp701
S'JON'
p702
a(lp703
S'Mm'
p704
aaa(lp705
S'ALAN'
p706
a(lp707
S'Mexican'
p708
aS'national'
p709
aaa(lp710
g706
a(lp711
S'His'
p712
aS'paintings'
p713
aS'sold'
p714
aaa(lp715
g706
a(lp716
S'f'
p717
aS'for'
p718
aS'generally'
p719
aaa(lp720
g706
a(lp721
g6
aS'thousand'
p722
aS'dollars'
p723
aS'plus'
p724
aaa(lp725
g706
a(lp726
S'Which'
p727
aS'was'
p728
aaa(lp729
g706
a(lp730
S'for'
p731
aS'me'
p732
aaa(lp733
S'JON'
p734
a(lp735
S'A'
p736
aS'lotta'
p737
aS'money'
p738
aS'in'
p739
aS'those'
p740
aS'days'
p741
aaa(lp742
S'ALAN'
p743
a(lp744
S'Twentyfive'
p745
aS'years'
p746
aS'ago'
p747
aaa(lp748
g743
a(lp749
g4
aS'was'
p750
aaa(lp751
g743
a(lp752
S'no'
p753
aS'way'
p754
ag4
aS'was'
p755
aS'gonna'
p756
aS'spend'
p757
aS'twe'
p758
ag6
aS'thou'
p759
aaa(lp760
g743
a(lp761
S'First'
p762
aS'of'
p763
aS'all'
p764
ag4
aS'didnt'
p765
aS'like'
p766
aS'him'
p767
aaa(lp768
g743
a(lp769
S'Very'
p770
aS'splashy'
p771
aaa(lp772
g743
a(lp773
S'Albert'
p774
aS'and'
p775
aS'Marcia'
p776
aS'had'
p777
aS'one'
p778
aS'of'
p779
aS'his'
p780
aS'paintings'
p781
aaa(lp782
g743
a(lp783
S'they'
p784
aS'had'
p785
aaa(lp786
g743
a(lp787
S'They'
p788
aS'had'
p789
aaa(lp790
g743
a(lp791
g4
ag4
aS'dont'
p792
aS'know'
p793
aaa(lp794
g743
a(lp795
S'Marcia'
p796
aS'had'
p797
ag6
aS'relative'
p798
aS'in'
p799
aS'Mexico'
p800
aaa(lp801
g743
a(lp802
S'or'
p803
aS'something'
p804
aaa(lp805
g743
a(lp806
S'But'
p807
aS'theyd'
p808
aS'been'
p809
aS'down'
p810
aS'there'
p811
aaa(lp812
g743
a(lp813
S'Many'
p814
aS'times'
p815
aS'and'
p816
aaa(lp817
g743
a(lp818
S'and'
p819
aS'they'
p820
aS'had'
p821
aS'his'
p822
aS'book'
p823
aaa(lp824
g743
a(lp825
S'and'
p826
aaa(lp827
g743
a(lp828
S'we'
p829
aS'got'
p830
aS'down'
p831
aS'there'
p832
aaa(lp833
g743
a(lp834
S'and'
p835
aS'he'
p836
aS'was'
p837
aaa(lp838
g743
a(lp839
S'uh'
p840
aaa(lp841
g743
a(lp842
S'all'
p843
aS'over'
p844
aS'the'
p845
aS'place'
p846
aaa(lp847
g743
a(lp848
S'His'
p849
aS'paintings'
p850
aS'were'
p851
aaa(lp852
g743
a(lp853
S'he'
p854
aS'lived'
p855
aS'in'
p856
aS'Mexico'
p857
aS'City'
p858
aaa(lp859
g743
a(lp860
S'And'
p861
aS'uh'
p862
aaa(lp863
S'JON'
p864
a(lp865
aa(lp866
S'ALAN'
p867
a(lp868
S'we'
p869
aS'had'
p870
ag6
aS'cab'
p871
aS'driver'
p872
aaa(lp873
g867
a(lp874
S'Uh'
p875
aaa(lp876
g867
a(lp877
S'that'
p878
aS'was'
p879
aS'gonna'
p880
aS'take'
p881
aS'us'
p882
aS'to'
p883
aaa(lp884
g867
a(lp885
S'wherever'
p886
aS'the'
p887
aS'place'
p888
aS'where'
p889
aS'the'
p890
aS'gold'
p891
aS'was'
p892
aaa(lp893
g867
a(lp894
g4
aS'cant'
p895
aS'remember'
p896
aaa(lp897
g867
a(lp898
S'one'
p899
aS'of'
p900
aS'the'
p901
aS'roughest'
p902
aS'rides'
p903
aaa(lp904
g867
a(lp905
S'and'
p906
aS'if'
p907
aS'you'
p908
aS'ever'
p909
aS'been'
p910
aS'to'
p911
aS'Mexico'
p912
aS'City'
p913
aaa(lp914
g867
a(lp915
S'you'
p916
aS'made'
p917
aS'that'
p918
aS'ride'
p919
aaa(lp920
S'JON'
p921
a(lp922
g267
aS'Yeah'
p923
ag267
aaa(lp924
S'ALAN'
p925
a(lp926
S'some'
p927
aS'kinda'
p928
aS'city'
p929
aaa(lp930
g925
a(lp931
S'about'
p932
aS'hundred'
p933
aS'miles'
p934
aS'away'
p935
aaa(lp936
g925
a(lp937
g4
aS'thought'
p938
aS'we'
p939
aS'were'
p940
aS'gonna'
p941
aS'die'
p942
aS'going'
p943
aS'down'
p944
aS'there'
p945
aaa(lp946
g925
a(lp947
S'An'
p948
aS'old'
p949
aS'car'
p950
aS'and'
p951
aaa(lp952
g925
a(lp953
S'anyway'
p954
aaa(lp955
g925
a(lp956
S'Well'
p957
aS'before'
p958
aS'that'
p959
aaa(lp960
g925
a(lp961
S'he'
p962
aS'took'
p963
aS'us'
p964
aS'around'
p965
aS'the'
p966
aS'city'
p967
aaa(lp968
g925
a(lp969
S'still'
p970
aS'got'
p971
aS'his'
p972
aS'card'
p973
aS'somewhere'
p974
aaa(lp975
g925
a(lp976
S'Slammed'
p977
aS'the'
p978
aS'damn'
p979
aS'door'
p980
aS'on'
p981
aS'this'
p982
aS'guy'
p983
aaa(lp984
g925
a(lp985
S'poor'
p986
aS'guys'
p987
aS'hand'
p988
aS'one'
p989
aS'day'
p990
aaa(lp991
g925
a(lp992
S'inadvertently'
p993
aaa(lp994
g925
a(lp995
S'we'
p996
aS'were'
p997
aS'getting'
p998
aS'out'
p999
aaa(lp1000
g925
a(lp1001
S'we'
p1002
aS'had'
p1003
aS'him'
p1004
aS'about'
p1005
aS'three'
p1006
aS'days'
p1007
aaa(lp1008
g925
a(lp1009
S'one'
p1010
aS'day'
p1011
aS'we'
p1012
aS'took'
p1013
aS'him'
p1014
aS'down'
p1015
aS'to'
p1016
aS'wherever'
p1017
aS'we'
p1018
aS'went'
p1019
aaa(lp1020
g925
a(lp1021
S'Buddy'
p1022
aS'and'
p1023
aS'Sue'
p1024
aS'didnt'
p1025
aS'go'
p1026
aaa(lp1027
g925
a(lp1028
S'but'
p1029
aS'he'
p1030
aS'took'
p1031
aS'us'
p1032
aS'to'
p1033
aS'the'
p1034
aS'ruins'
p1035
aaa(lp1036
g925
a(lp1037
S'and'
p1038
aS'all'
p1039
aS'that'
p1040
aS'stuff'
p1041
aaa(lp1042
g925
a(lp1043
S'You'
p1044
aS'know'
p1045
aaa(lp1046
g925
a(lp1047
S'uh'
p1048
aaa(lp1049
g925
a(lp1050
S'you'
p1051
aS'know'
p1052
aaa(lp1053
g925
a(lp1054
g4
aS'and'
p1055
ag4
ag4
aS'knew'
p1056
aS'then'
p1057
aaa(lp1058
g925
a(lp1059
S'and'
p1060
ag4
aS'know'
p1061
aS'now'
p1062
aaa(lp1063
g925
a(lp1064
S'that'
p1065
aS'those'
p1066
aS'guys'
p1067
aaa(lp1068
g925
a(lp1069
S'take'
p1070
aS'you'
p1071
aS'to'
p1072
ag6
aS'particular'
p1073
aS'place'
p1074
aaa(lp1075
g925
a(lp1076
S'they'
p1077
aS'get'
p1078
ag6
aS'commission'
p1079
aaa(lp1080
g925
a(lp1081
S'Well'
p1082
aaa(lp1083
g925
a(lp1084
S'they'
p1085
aS'took'
p1086
aS'us'
p1087
aS'to'
p1088
aS'this'
p1089
aS'guys'
p1090
aS'studio'
p1091
aaa(lp1092
S'JON'
p1093
a(lp1094
S'He'
p1095
aS'what'
p1096
aaa(lp1097
S'ALAN'
p1098
a(lp1099
S'Took'
p1100
aS'us'
p1101
aS'to'
p1102
aS'this'
p1103
aS'guy'
p1104
aS'artists'
p1105
aS'studio'
p1106
aaa(lp1107
g1098
a(lp1108
S'Uh'
p1109
aaa(lp1110
g1098
a(lp1111
S'and'
p1112
aS'uh'
p1113
aaa(lp1114
g1098
a(lp1115
S'Rae'
p1116
aaa(lp1117
g1098
a(lp1118
S'he'
p1119
aS'was'
p1120
aS'there'
p1121
aaa(lp1122
g1098
a(lp1123
S'And'
p1124
aS'she'
p1125
aS'saw'
p1126
ag6
aS'painting'
p1127
aS'she'
p1128
aS'liked'
p1129
aaa(lp1130
g1098
a(lp1131
S'And'
p1132
aaa(lp1133
g1098
a(lp1134
S'uh'
p1135
aaa(lp1136
g1098
a(lp1137
S'he'
p1138
aS'wanted'
p1139
aS'that'
p1140
aS'damn'
p1141
aS'recorder'
p1142
aaa(lp1143
g1098
a(lp1144
S'And'
p1145
aS'he'
p1146
aS'said'
p1147
ag4
aS'tell'
p1148
aS'you'
p1149
aS'what'
p1150
aS'Ill'
p1151
aS'do'
p1152
aaa(lp1153
g1098
a(lp1154
S'XX'
p1155
aS'make'
p1156
aS'you'
p1157
ag6
aS'deal'
p1158
aaa(lp1159
g1098
a(lp1160
S'He'
p1161
aS'said'
p1162
aS'Ill'
p1163
aaa(lp1164
g1098
a(lp1165
S'You'
p1166
aS'take'
p1167
aS'this'
p1168
aS'painting'
p1169
aaa(lp1170
g1098
a(lp1171
g4
aS'want'
p1172
aS'that'
p1173
aS'recorder'
p1174
aaa(lp1175
g1098
a(lp1176
S'Ill'
p1177
aS'take'
p1178
aS'it'
p1179
aaa(lp1180
g1098
a(lp1181
S'Could'
p1182
aaa(lp1183
g1098
a(lp1184
S'naw'
p1185
ag4
aS'cant'
p1186
aS'do'
p1187
aS'that'
p1188
aaa(lp1189
g1098
a(lp1190
S'its'
p1191
aS'not'
p1192
aS'mine'
p1193
aaa(lp1194
g1098
a(lp1195
S'It'
p1196
aS'was'
p1197
aaa(lp1198
g1098
a(lp1199
S'Its'
p1200
aS'about'
p1201
ag6
aS'thousand'
p1202
aS'dollar'
p1203
aS'swap'
p1204
aaa(lp1205
g1098
a(lp1206
S'Shit'
p1207
ag4
aS'thought'
p1208
aS'my'
p1209
aS'wife'
p1210
aS'was'
p1211
aS'gonna'
p1212
aS'have'
p1213
ag6
aS'fit'
p1214
aaa(lp1215
S'JON'
p1216
a(lp1217
aa(lp1218
S'ALAN'
p1219
a(lp1220
S'she'
p1221
aS'was'
p1222
aS'pissed'
p1223
aS'off'
p1224
aaa(lp1225
g1219
a(lp1226
S'Mexico'
p1227
aS'City'
p1228
aS'was'
p1229
ag6
aaa(lp1230
g1219
a(lp1231
S'uh'
p1232
aS'in'
p1233
aS'those'
p1234
aS'days'
p1235
aaa(lp1236
g1219
a(lp1237
S'probably'
p1238
aS'still'
p1239
aS'is'
p1240
aaa(lp1241
g1219
a(lp1242
S'not'
p1243
aaa(lp1244
g1219
a(lp1245
S'For'
p1246
aS'this'
p1247
aS'guy'
p1248
aS'he'
p1249
aS'was'
p1250
aS'very'
p1251
aS'successful'
p1252
aaa(lp1253
g1219
a(lp1254
S'Uh'
p1255
aaa(lp1256
g1219
a(lp1257
S'very'
p1258
aS'prolific'
p1259
aaa(lp1260
g1219
a(lp1261
S'But'
p1262
aS'it'
p1263
aS'was'
p1264
aS'an'
p1265
aS'art'
p1266
aS'colony'
p1267
aaa(lp1268
g1219
a(lp1269
S'and'
p1270
aS'there'
p1271
aS'were'
p1272
ag6
aS'lot'
p1273
aS'of'
p1274
aS'Americans'
p1275
aS'down'
p1276
aS'there'
p1277
aaa(lp1278
g1219
a(lp1279
S'He'
p1280
aS'was'
p1281
aS'not'
p1282
aS'an'
p1283
aS'American'
p1284
aaa(lp1285
g1219
a(lp1286
g736
aS'lot'
p1287
aS'of'
p1288
aS'Americans'
p1289
aS'down'
p1290
aS'there'
p1291
aaa(lp1292
g1219
a(lp1293
S'uh'
p1294
aS'because'
p1295
aaa(lp1296
g1219
a(lp1297
S'cost'
p1298
aS'of'
p1299
aS'living'
p1300
aS'was'
p1301
aS'so'
p1302
aS'cheap'
p1303
aS'at'
p1304
aS'the'
p1305
aS'time'
p1306
aaa(lp1307
g1219
a(lp1308
S'And'
p1309
aS'they'
p1310
aS'they'
p1311
aS'had'
p1312
aS'these'
p1313
aS'art'
p1314
aS'shows'
p1315
aS'everywhere'
p1316
aaa(lp1317
g1219
a(lp1318
S'Well'
p1319
aS'we'
p1320
aS'bought'
p1321
ag6
aS'painting'
p1322
aaa(lp1323
g1219
a(lp1324
S'uh'
p1325
aaa(lp1326
g1219
a(lp1327
S'of'
p1328
ag6
aS'little'
p1329
aS'Mexican'
p1330
aS'woman'
p1331
aaa(lp1332
g1219
a(lp1333
S'still'
p1334
aS'got'
p1335
aS'it'
p1336
aaa(lp1337
g1219
a(lp1338
S'with'
p1339
ag6
aS'watermelon'
p1340
aS'on'
p1341
aS'her'
p1342
aS'head'
p1343
aaa(lp1344
g1219
a(lp1345
S'like'
p1346
aS'it'
p1347
ag6
aS'lot'
p1348
aaa(lp1349
g1219
a(lp1350
S'Think'
p1351
ag4
aS'paid'
p1352
aS'VOX'
p1353
aS'thirty'
p1354
aS'dollars'
p1355
aS'for'
p1356
aS'it'
p1357
aS'VOX'
p1358
aaa(lp1359
g1219
a(lp1360
S'Well'
p1361
aS'that'
p1362
aS'was'
p1363
aS'about'
p1364
aS'my'
p1365
aS'price'
p1366
aS'range'
p1367
aaa(lp1368
g1219
a(lp1369
S'Uh'
p1370
aaa(lp1371
g1219
a(lp1372
S'while'
p1373
ag4
aS'was'
p1374
aS'down'
p1375
aS'there'
p1376
aaa(lp1377
g1219
a(lp1378
S'we'
p1379
aS'may'
p1380
aS'have'
p1381
aS'bought'
p1382
ag6
aS'couple'
p1383
aS'of'
p1384
aS'other'
p1385
aS'i'
p1386
aS'inexpensive'
p1387
aS'paintings'
p1388
aaa(lp1389
g1219
a(lp1390
S'maybe'
p1391
aS'collectively'
p1392
aS'we'
p1393
aS'bought'
p1394
aaa(lp1395
g1219
a(lp1396
S'maybe'
p1397
aS'spent'
p1398
ag6
aS'hundred'
p1399
aS'and'
p1400
aS'fifty'
p1401
aS'dollars'
p1402
aaa(lp1403
g1219
a(lp1404
S'Uh'
p1405
aaa(lp1406
g1219
a(lp1407
S'hell'
p1408
ag4
aS'was'
p1409
aS'not'
p1410
aS'an'
p1411
aS'art'
p1412
aaa(lp1413
g1219
a(lp1414
S'We'
p1415
aS'werent'
p1416
aS'art'
p1417
aS'collectors'
p1418
aaa(lp1419
g1219
a(lp1420
S'And'
p1421
aS'uh'
p1422
aaa(lp1423
g1219
a(lp1424
S'to'
p1425
aS'spend'
p1426
ag6
aS'thousand'
p1427
aS'dollars'
p1428
aaa(lp1429
g1219
a(lp1430
S'to'
p1431
aS'me'
p1432
aS'for'
p1433
ag6
aS'painting'
p1434
aaa(lp1435
g1219
a(lp1436
S'was'
p1437
aS'unthinkable'
p1438
aaa(lp1439
g1219
a(lp1440
S'Uh'
p1441
aaa(lp1442
g1219
a(lp1443
S'The'
p1444
aS's'
p1445
aS'first'
p1446
aS'painting'
p1447
ag4
aS'ever'
p1448
aS'bought'
p1449
aaa(lp1450
g1219
a(lp1451
S'my'
p1452
aS'fatherinlaw'
p1453
aS'bought'
p1454
aS'it'
p1455
aS'from'
p1456
aS'Geri'
p1457
ag717
aaa(lp1458
g1219
a(lp1459
S'Geri'
p1460
aS'Rae'
p1461
aaa(lp1462
g1219
a(lp1463
S'it'
p1464
aS'was'
p1465
aS'one'
p1466
aS'of'
p1467
aS'Geris'
p1468
aS'original'
p1469
aS'early'
p1470
aS'early'
p1471
aS'paintings'
p1472
aaa(lp1473
g1219
a(lp1474
S'which'
p1475
ag4
aS'thoroughly'
p1476
aS'enjoy'
p1477
aaa(lp1478
g1219
a(lp1479
S'shes'
p1480
aS'changed'
p1481
aS'styles'
p1482
aS'but'
p1483
aaa(lp1484
g1219
a(lp1485
S'While'
p1486
aS'we'
p1487
aS'were'
p1488
aS'down'
p1489
aS'there'
p1490
aaa(lp1491
g1219
a(lp1492
S'uh'
p1493
aaa(lp1494
S'JON'
p1495
a(lp1496
S'You'
p1497
aS'know'
p1498
ag4
aaa(lp1499
S'ALAN'
p1500
a(lp1501
S'This'
p1502
aaa(lp1503
g1500
a(lp1504
S'It'
p1505
aaa(lp1506
S'JON'
p1507
a(lp1508
S'Ive'
p1509
aS'seen'
p1510
aS'that'
p1511
aS'somewhere'
p1512
aS'before'
p1513
aaa(lp1514
S'ALAN'
p1515
a(lp1516
S'You'
p1517
aS'know'
p1518
aS'Ive'
p1519
aS'had'
p1520
aS'that'
p1521
aS'painting'
p1522
aS'for'
p1523
aS'thirtyfive'
p1524
aS'years'
p1525
ag4
aS'guess'
p1526
aaa(lp1527
g1515
a(lp1528
g4
aS'Ive'
p1529
aS'never'
p1530
aS'framed'
p1531
aS'it'
p1532
aaa(lp1533
g1515
a(lp1534
S'And'
p1535
ag4
aS'really'
p1536
aS'like'
p1537
aS'it'
p1538
aaa(lp1539
g1515
a(lp1540
S'Uh'
p1541
aaa(lp1542
g1515
a(lp1543
S'my'
p1544
aaa(lp1545
g1515
a(lp1546
S'My'
p1547
aS'my'
p1548
aS'fatherinlaw'
p1549
aS'wanted'
p1550
aS'to'
p1551
aS'give'
p1552
aS'me'
p1553
ag6
aS'painting'
p1554
aS'for'
p1555
aS'my'
p1556
aaa(lp1557
g1515
a(lp1558
S'Piece'
p1559
aS'of'
p1560
aS'art'
p1561
aS'for'
p1562
aS'my'
p1563
aS'office'
p1564
aaa(lp1565
g1515
a(lp1566
S'And'
p1567
aS'so'
p1568
ag4
aS'had'
p1569
ag6
aaa(lp1570
g1515
a(lp1571
S'We'
p1572
aS'had'
p1573
ag6
aS'display'
p1574
aS'guy'
p1575
aS'at'
p1576
aS'the'
p1577
aS'time'
p1578
aaa(lp1579
g1515
a(lp1580
S'by'
p1581
aS'the'
p1582
aS'name'
p1583
aS'of'
p1584
aS'Ben'
p1585
aS'Money'
p1586
aaa(lp1587
g1515
a(lp1588
S'fashioned'
p1589
aS'himself'
p1590
aS'as'
p1591
aS'an'
p1592
aS'artist'
p1593
aaa(lp1594
g1515
a(lp1595
S'And'
p1596
ag4
aS'said'
p1597
aS'Ben'
p1598
aaa(lp1599
g1515
a(lp1600
S'pick'
p1601
aS'me'
p1602
aS'out'
p1603
aS'something'
p1604
aaa(lp1605
g1515
a(lp1606
g267
aS'Youve'
p1607
aS'got'
p1608
ag267
aS'fifty'
p1609
aS'bucks'
p1610
aS'to'
p1611
aS'spend'
p1612
aaa(lp1613
g1515
a(lp1614
S'So'
p1615
aaa(lp1616
g1515
a(lp1617
S'he'
p1618
aS'got'
p1619
aS'this'
p1620
aS'from'
p1621
aS'Geri'
p1622
aaa(lp1623
g1515
a(lp1624
S'and'
p1625
ag4
aS'loved'
p1626
aS'it'
p1627
aaa(lp1628
g1515
a(lp1629
S'XX'
p1630
aaa(lp1631
S'JON'
p1632
a(lp1633
S'Its'
p1634
aS'beautiful'
p1635
aaa(lp1636
S'ALAN'
p1637
a(lp1638
S'And'
p1639
aS'and'
p1640
aaa(lp1641
g1637
a(lp1642
g4
aS'can'
p1643
aS'see'
p1644
aS'all'
p1645
aS'kinda'
p1646
aS'things'
p1647
aS'in'
p1648
aS'it'
p1649
aaa(lp1650
S'JON'
p1651
a(lp1652
S'Its'
p1653
aS'got'
p1654
ag6
aS'lotta'
p1655
aS'color'
p1656
aS'and'
p1657
aaa(lp1658
S'ALAN'
p1659
a(lp1660
S'Lotta'
p1661
aS'color'
p1662
aaa(lp1663
g1659
a(lp1664
g4
aS'see'
p1665
ag6
aS'Chinese'
p1666
aS'junk'
p1667
aaa(lp1668
g1659
a(lp1669
S'At'
p1670
aS'any'
p1671
aS'rate'
p1672
aaa(lp1673
g1659
a(lp1674
S'to'
p1675
aS'make'
p1676
ag6
aS'long'
p1677
ag1445
aaa(lp1678
g1659
a(lp1679
S'This'
p1680
aS'fellow'
p1681
aS'LeRoy'
p1682
aS'Neiman'
p1683
aaa(lp1684
g1659
a(lp1685
S'PAR'
p1686
aS'over'
p1687
aS'here'
p1688
aS'PAR'
p1689
aaa(lp1690
g1659
a(lp1691
S'Sports'
p1692
aS'artist'
p1693
aaa(lp1694
g1659
a(lp1695
S'Not'
p1696
aS'the'
p1697
aS'same'
p1698
aS'guy'
p1699
aaa(lp1700
g1659
a(lp1701
S'as'
p1702
aS'this'
p1703
aS'guy'
p1704
aS'Nierman'
p1705
aaa(lp1706
g1659
a(lp1707
S'Ive'
p1708
aS'forgotten'
p1709
aS'his'
p1710
aS'name'
p1711
aaa(lp1712
S'JON'
p1713
a(lp1714
S'Oh'
p1715
ag4
aS'thought'
p1716
aS'there'
p1717
aS'was'
p1718
ag6
aS'connection'
p1719
aaa(lp1720
S'ALAN'
p1721
a(lp1722
S'No'
p1723
aaa(lp1724
g1721
a(lp1725
S'No'
p1726
aS'connection'
p1727
aaa(lp1728
g1721
a(lp1729
S'K'
p1730
aS'there'
p1731
aS'is'
p1732
ag6
aS'connection'
p1733
aS'on'
p1734
aS'the'
p1735
aS'story'
p1736
aaa(lp1737
g1721
a(lp1738
S'Well'
p1739
aaa(lp1740
g1721
a(lp1741
S'we'
p1742
aS'looked'
p1743
aS'at'
p1744
ag6
aS'lot'
p1745
aS'of'
p1746
aS'art'
p1747
aaa(lp1748
g1721
a(lp1749
S'in'
p1750
aS'in'
p1751
aS'in'
p1752
aS'the'
p1753
aaa(lp1754
g1721
a(lp1755
S'in'
p1756
aS'the'
p1757
aaa(lp1758
g1721
a(lp1759
S'uh'
p1760
aS'parks'
p1761
aaa(lp1762
g1721
a(lp1763
S'and'
p1764
aS'there'
p1765
aS'at'
p1766
aS'least'
p1767
aS'it'
p1768
aS'was'
p1769
aaa(lp1770
g1721
a(lp1771
S'pleasant'
p1772
aS'weather'
p1773
aS'and'
p1774
aaa(lp1775
g1721
a(lp1776
S'Like'
p1777
aS'that'
p1778
aS'uh'
p1779
aaa(lp1780
g1721
a(lp1781
S'It'
p1782
aS'was'
p1783
aS'sorta'
p1784
aS'like'
p1785
aaa(lp1786
g1721
a(lp1787
S'uh'
p1788
aaa(lp1789
g1721
a(lp1790
S'What'
p1791
aS'the'
p1792
aS'hell'
p1793
aS'they'
p1794
aS'call'
p1795
aS'the'
p1796
aS'district'
p1797
aS'in'
p1798
aS'New'
p1799
aS'York'
p1800
aaa(lp1801
g1721
a(lp1802
S'where'
p1803
aS'on'
p1804
aS'Sunday'
p1805
aaa(lp1806
g1721
a(lp1807
S'they'
p1808
aS'put'
p1809
aS'all'
p1810
aS'the'
p1811
aS'artists'
p1812
aaa(lp1813
g1721
a(lp1814
S'put'
p1815
aS'their'
p1816
aS'paintings'
p1817
aS'out'
p1818
aaa(lp1819
g1721
a(lp1820
S'uh'
p1821
aaa(lp1822
g1721
a(lp1823
S'the'
p1824
aS'Village'
p1825
aaa(lp1826
g1721
a(lp1827
S'the'
p1828
aS'Village'
p1829
aaa(lp1830
S'JON'
p1831
a(lp1832
S'The'
p1833
aS'Village'
p1834
aaa(lp1835
S'ALAN'
p1836
a(lp1837
S'You'
p1838
aS'know'
p1839
aS'all'
p1840
aS'the'
p1841
aS'all'
p1842
aS'these'
p1843
aS'artists'
p1844
aS'put'
p1845
aS'their'
p1846
aaa(lp1847
g1836
a(lp1848
S'Well'
p1849
aS'they'
p1850
aS'had'
p1851
aaa(lp1852
g1836
a(lp1853
S'mustve'
p1854
aS'had'
p1855
aS'three'
p1856
aS'areas'
p1857
aS'like'
p1858
aS'that'
p1859
aaa(lp1860
g1836
a(lp1861
S'MRC'
p1862
aS'Parks'
p1863
aS'with'
p1864
aS'paintings'
p1865
aS'MRC'
p1866
aaa(lp1867
g1836
a(lp1868
S'and'
p1869
aS'my'
p1870
aS'god'
p1871
aaa(lp1872
g1836
a(lp1873
S'there'
p1874
aS'mustve'
p1875
aS'been'
p1876
aS'VOX'
p1877
aS'thousands'
p1878
aS'VOX'
p1879
aS'of'
p1880
aS'paintings'
p1881
aaa(lp1882
g1836
a(lp1883
S'And'
p1884
aS'uh'
p1885
aaa(lp1886
g1836
a(lp1887
S'most'
p1888
aS'of'
p1889
aS'em'
p1890
aaa(lp1891
g1836
a(lp1892
S'very'
p1893
aS'inexpensive'
p1894
aaa(lp1895
g1836
a(lp1896
S'Uh'
p1897
aS'starving'
p1898
aS'artists'
p1899
aS'that'
p1900
aS'were'
p1901
aS'down'
p1902
aS'there'
p1903
aaa(lp1904
g1836
a(lp1905
S'VOX'
p1906
aS'lots'
p1907
aS'of'
p1908
aS'VOX'
p1909
aS'American'
p1910
aaa(lp1911
S'JON'
p1912
a(lp1913
aa(lp1914
S'ALAN'
p1915
a(lp1916
S'Well'
p1917
aaa(lp1918
g1915
a(lp1919
S'uh'
p1920
aaa(lp1921
g1915
a(lp1922
S'we'
p1923
aS'wandered'
p1924
aS'around'
p1925
aS'down'
p1926
aS'in'
p1927
aS'the'
p1928
aaa(lp1929
g1915
a(lp1930
S'the'
p1931
aS'area'
p1932
aS'which'
p1933
aaa(lp1934
g1915
a(lp1935
S'Ive'
p1936
aS'forgotten'
p1937
aS'the'
p1938
aS'area'
p1939
aS'that'
p1940
aS'they'
p1941
aS'called'
p1942
aaa(lp1943
g1915
a(lp1944
S'in'
p1945
aS'Mexico'
p1946
aS'City'
p1947
aS'where'
p1948
aaa(lp1949
g1915
a(lp1950
S'uh'
p1951
aaa(lp1952
g1915
a(lp1953
S'most'
p1954
aS'of'
p1955
aS'the'
p1956
aS'jewelry'
p1957
aS'shops'
p1958
aS'are'
p1959
aS'and'
p1960
aS'things'
p1961
aaa(lp1962
g1915
a(lp1963
S'Its'
p1964
aS'got'
p1965
ag6
aS'name'
p1966
aaa(lp1967
g1915
a(lp1968
g4
aS'cant'
p1969
aS'remember'
p1970
aaa(lp1971
g1915
a(lp1972
S'Ive'
p1973
aS'never'
p1974
aS'been'
p1975
aS'back'
p1976
aaa(lp1977
g1915
a(lp1978
S'They'
p1979
aS'also'
p1980
aS'had'
p1981
ag6
aS'lot'
p1982
aS'of'
p1983
aaa(lp1984
g1915
a(lp1985
S'uh'
p1986
aaa(lp1987
g1915
a(lp1988
S'artist'
p1989
aS'galleries'
p1990
aS'down'
p1991
aS'there'
p1992
aaa(lp1993
g1915
a(lp1994
S'And'
p1995
ag4
aS'walked'
p1996
aS'into'
p1997
aS'this'
p1998
aS'gallery'
p1999
aaa(lp2000
g1915
a(lp2001
S'during'
p2002
aS'one'
p2003
aS'of'
p2004
aS'our'
p2005
aaa(lp2006
g1915
a(lp2007
S'We'
p2008
aS'were'
p2009
aS'down'
p2010
aS'there'
p2011
aS'maybe'
p2012
aS'ten'
p2013
aS'days'
p2014
aaa(lp2015
g1915
a(lp2016
S'And'
p2017
ag4
aS'saw'
p2018
aS'this'
p2019
aS'guy'
p2020
aS'Nierman'
p2021
aaa(lp2022
g1915
a(lp2023
g4
aS'never'
p2024
aS'heard'
p2025
aS'of'
p2026
aS'him'
p2027
aaa(lp2028
g1915
a(lp2029
S'at'
p2030
aS'that'
p2031
aS'time'
p2032
aaa(lp2033
g1915
a(lp2034
S'He'
p2035
aS'he'
p2036
aS'he'
p2037
aS'got'
p2038
aS'famous'
p2039
aS'at'
p2040
aS'the'
p2041
aS'nineteen'
p2042
aaa(lp2043
g1915
a(lp2044
S'uh'
p2045
aaa(lp2046
g1915
a(lp2047
S'probably'
p2048
aS'seventytwo'
p2049
aS'Olympics'
p2050
aaa(lp2051
g1915
a(lp2052
S'Uh'
p2053
aaa(lp2054
g1915
a(lp2055
S'but'
p2056
aS'his'
p2057
ag140
aaa(lp2058
g1915
a(lp2059
S'His'
p2060
aS'art'
p2061
aS'was'
p2062
aS'already'
p2063
aS'in'
p2064
aS'collections'
p2065
aS'of'
p2066
aS'guys'
p2067
aS'like'
p2068
aS'Edward'
p2069
aS'gee'
p2070
aS'Robinson'
p2071
aaa(lp2072
g1915
a(lp2073
S'it'
p2074
aS'was'
p2075
aS'very'
p2076
aS'popular'
p2077
aS'in'
p2078
aS'Hollywood'
p2079
aaa(lp2080
g1915
a(lp2081
S'He'
p2082
aS'also'
p2083
aS'was'
p2084
aS'very'
p2085
aS'prolific'
p2086
aaa(lp2087
g1915
a(lp2088
S'Big'
p2089
aS'handlebar'
p2090
aS'mustache'
p2091
aaa(lp2092
g1915
a(lp2093
S'And'
p2094
ag4
aS'walked'
p2095
aS'in'
p2096
aaa(lp2097
g1915
a(lp2098
S'and'
p2099
aS'there'
p2100
aS'must'
p2101
aS'have'
p2102
aS'been'
p2103
aS'about'
p2104
aaa(lp2105
g1915
a(lp2106
S'twelve'
p2107
aS'or'
p2108
aS'fifteen'
p2109
aS'paintings'
p2110
aS'in'
p2111
aS'there'
p2112
aaa(lp2113
g1915
a(lp2114
S'They'
p2115
aS'were'
p2116
aaa(lp2117
g1915
a(lp2118
S'uh'
p2119
aaa(lp2120
S'JON'
p2121
a(lp2122
S'You'
p2123
aS'walked'
p2124
aS'into'
p2125
aS'his'
p2126
aS'studio'
p2127
aaa(lp2128
g2121
a(lp2129
S'or'
p2130
aaa(lp2131
S'ALAN'
p2132
a(lp2133
S'It'
p2134
aS'was'
p2135
ag6
aS'gallery'
p2136
aaa(lp2137
g2132
a(lp2138
S'Uh'
p2139
aaa(lp2140
g2132
a(lp2141
S'he'
p2142
aS'didnt'
p2143
aS'live'
p2144
aS'there'
p2145
aaa(lp2146
g2132
a(lp2147
S'he'
p2148
aS'didnt'
p2149
aS'live'
p2150
aS'in'
p2151
aS'Mexico'
p2152
aaa(lp2153
S'JON'
p2154
a(lp2155
S'Okay'
p2156
aaa(lp2157
S'ALAN'
p2158
a(lp2159
S'The'
p2160
aS'oth'
p2161
aS'th'
p2162
aaa(lp2163
g2158
a(lp2164
S'The'
p2165
aS'guy'
p2166
aS'n'
p2167
aaa(lp2168
g2158
a(lp2169
S'Th'
p2170
aS'the'
p2171
aS'Jewish'
p2172
aS'fellow'
p2173
aaa(lp2174
g2158
a(lp2175
S'theyre'
p2176
aS'both'
p2177
aS'Jewish'
p2178
aaa(lp2179
S'JON'
p2180
a(lp2181
S'Okay'
p2182
aaa(lp2183
S'ALAN'
p2184
a(lp2185
S'Th'
p2186
aS'th'
p2187
aS'this'
p2188
aS'guy'
p2189
aS'Nierman'
p2190
aaa(lp2191
g2184
a(lp2192
S'who'
p2193
aS'was'
p2194
ag6
aS'Mexican'
p2195
aS'national'
p2196
aaa(lp2197
g2184
a(lp2198
S'lived'
p2199
aS'there'
p2200
aaa(lp2201
S'JON'
p2202
a(lp2203
S'Okay'
p2204
aaa(lp2205
S'ALAN'
p2206
a(lp2207
S'Forgotten'
p2208
aS'his'
p2209
aS'first'
p2210
aS'name'
p2211
aaa(lp2212
g2206
a(lp2213
S'Leonardo'
p2214
aS'Nierman'
p2215
aS'or'
p2216
aS'something'
p2217
aaa(lp2218
g2206
a(lp2219
S'But'
p2220
aS'any'
p2221
aS'rate'
p2222
aaa(lp2223
g2206
a(lp2224
S'but'
p2225
aS'uh'
p2226
aaa(lp2227
g2206
a(lp2228
S'this'
p2229
aS'guys'
p2230
aS'name'
p2231
aS'was'
p2232
aS'LeRoy'
p2233
aS'Neiman'
p2234
aaa(lp2235
g2206
a(lp2236
S'Id'
p2237
aS'never'
p2238
aS'heard'
p2239
aS'of'
p2240
aS'him'
p2241
aaa(lp2242
g2206
a(lp2243
S'well'
p2244
aS'Id'
p2245
aS'heard'
p2246
aS'of'
p2247
aS'Nierman'
p2248
aaa(lp2249
g2206
a(lp2250
S'Uh'
p2251
aaa(lp2252
g2206
a(lp2253
S'because'
p2254
aS'Rae'
p2255
aS'went'
p2256
aS'down'
p2257
aS'there'
p2258
aS'wanting'
p2259
aS'to'
p2260
aS'buy'
p2261
aS'one'
p2262
aS'of'
p2263
aS'those'
p2264
aS'paintings'
p2265
aaa(lp2266
g2206
a(lp2267
S'These'
p2268
aS'were'
p2269
aS'paintings'
p2270
aaa(lp2271
g2206
a(lp2272
S'which'
p2273
aS'Id'
p2274
aS'say'
p2275
aS'were'
p2276
aS'about'
p2277
aS'the'
p2278
aS'size'
p2279
aS'of'
p2280
aS'this'
p2281
aS'Joe'
p2282
aS'Namath'
p2283
aaa(lp2284
g2206
a(lp2285
S'there'
p2286
aaa(lp2287
g2206
a(lp2288
S'Which'
p2289
aS'is'
p2290
ag6
aS'seriograph'
p2291
aaa(lp2292
g2206
a(lp2293
S'And'
p2294
aaa(lp2295
g2206
a(lp2296
S'we'
p2297
aS'went'
p2298
aS'in'
p2299
aaa(lp2300
g2206
a(lp2301
S'and'
p2302
aS'uh'
p2303
aaa(lp2304
g2206
a(lp2305
S'they'
p2306
aS'were'
p2307
aS'just'
p2308
aS'back'
p2309
aS'from'
p2310
aS'Acapulco'
p2311
aaa(lp2312
g2206
a(lp2313
S'season'
p2314
aS'was'
p2315
aS'just'
p2316
aS'over'
p2317
aS'in'
p2318
aS'Acapulco'
p2319
aaa(lp2320
g2206
a(lp2321
S'And'
p2322
aS'he'
p2323
aS'had'
p2324
aS'about'
p2325
aS'fifteen'
p2326
aS'twenty'
p2327
aS'paintings'
p2328
aaa(lp2329
g2206
a(lp2330
S'twentyfive'
p2331
aS'paintings'
p2332
aaa(lp2333
g2206
a(lp2334
S'football'
p2335
aS'players'
p2336
aaa(lp2337
g2206
a(lp2338
S'horse'
p2339
aS'races'
p2340
aaa(lp2341
g2206
a(lp2342
S'thats'
p2343
aS'what'
p2344
aS'he'
p2345
aS'did'
p2346
aaa(lp2347
g2206
a(lp2348
S'they'
p2349
aS'were'
p2350
aS'about'
p2351
aS'that'
p2352
aS'size'
p2353
aaa(lp2354
g2206
a(lp2355
S'Id'
p2356
aS'been'
p2357
aS'in'
p2358
aS'there'
p2359
aaa(lp2360
g2206
a(lp2361
S'oh'
p2362
aS'God'
p2363
ag4
aS'looked'
p2364
aS'at'
p2365
aS'em'
p2366
aaa(lp2367
g2206
a(lp2368
S'they'
p2369
aS'just'
p2370
aS'struck'
p2371
aS'me'
p2372
aS'as'
p2373
aS'something'
p2374
aaa(lp2375
g2206
a(lp2376
g4
aS'loved'
p2377
aS'em'
p2378
aaa(lp2379
g2206
a(lp2380
S'They'
p2381
aS'were'
p2382
aS'great'
p2383
aaa(lp2384
g2206
a(lp2385
S'They'
p2386
aS'were'
p2387
aS'you'
p2388
aS'know'
p2389
aS'very'
p2390
aaa(lp2391
g2206
a(lp2392
S'Had'
p2393
ag6
aS'very'
p2394
aS'distinctive'
p2395
aS'style'
p2396
aaa(lp2397
g2206
a(lp2398
S'And'
p2399
aaa(lp2400
g2206
a(lp2401
S'uh'
p2402
aaa(lp2403
g2206
a(lp2404
S'the'
p2405
aS'guy'
p2406
aS'said'
p2407
aS'uh'
p2408
aaa(lp2409
g2206
a(lp2410
S'God'
p2411
aS'youve'
p2412
aS'been'
p2413
aS'in'
p2414
aS'here'
p2415
aaa(lp2416
g2206
a(lp2417
S'so'
p2418
aS'many'
p2419
aS'times'
p2420
aS'that'
p2421
aaa(lp2422
g2206
a(lp2423
S'said'
p2424
aS'Ill'
p2425
aS'make'
p2426
aS'you'
p2427
ag6
aS'deal'
p2428
aaa(lp2429
g2206
a(lp2430
S'You'
p2431
aS'pick'
p2432
aS'out'
p2433
aS'any'
p2434
aS'four'
p2435
aS'of'
p2436
aS'these'
p2437
aS'you'
p2438
aS'want'
p2439
aaa(lp2440
g2206
a(lp2441
S'Ill'
p2442
aS'give'
p2443
aS'em'
p2444
aS'to'
p2445
aS'you'
p2446
aS'for'
p2447
aS'fivehundred'
p2448
aS'dollars'
p2449
aaa(lp2450
g2206
a(lp2451
S'The'
p2452
aS'four'
p2453
aS'of'
p2454
aS'em'
p2455
aaa(lp2456
g2206
a(lp2457
S'Shit'
p2458
aaa(lp2459
g2206
a(lp2460
g4
aS'loved'
p2461
aS'those'
p2462
aS'things'
p2463
aaa(lp2464
g2206
a(lp2465
g4
aS'stewed'
p2466
aS'on'
p2467
aS'those'
p2468
aS'son'
p2469
aS'of'
p2470
aS'bitches'
p2471
aaa(lp2472
g2206
a(lp2473
S'stewed'
p2474
aS'on'
p2475
aS'those'
p2476
aS'son'
p2477
aS'of'
p2478
aS'bitches'
p2479
aaa(lp2480
g2206
a(lp2481
g4
aS'figured'
p2482
aaa(lp2483
g2206
a(lp2484
g4
aS'bought'
p2485
aS'those'
p2486
aS'fucking'
p2487
aS'paintings'
p2488
aaa(lp2489
g2206
a(lp2490
S'Id'
p2491
aS'have'
p2492
aS'to'
p2493
aS'buy'
p2494
aS'that'
p2495
aS'damn'
p2496
aS'thing'
p2497
aS'for'
p2498
aS'Rae'
p2499
aaa(lp2500
S'JON'
p2501
a(lp2502
aa(lp2503
S'ALAN'
p2504
a(lp2505
S'or'
p2506
aaa(lp2507
g2504
a(lp2508
S'Id'
p2509
aS'trade'
p2510
aS'that'
p2511
aS'camera'
p2512
aS'for'
p2513
ag6
aS'thousand'
p2514
aS'dollars'
p2515
aaa(lp2516
g2504
a(lp2517
S'and'
p2518
aS'ninehundred'
p2519
aS'dollars'
p2520
aS'to'
p2521
aS'buy'
p2522
aS'another'
p2523
aS'one'
p2524
aaa(lp2525
g2504
a(lp2526
g4
aS'promise'
p2527
aS'you'
p2528
aS'as'
p2529
aS'God'
p2530
aS'is'
p2531
aS'my'
p2532
aS'witness'
p2533
aaa(lp2534
g2504
a(lp2535
S'This'
p2536
aS'guys'
p2537
aS'originals'
p2538
aS'sell'
p2539
aS'for'
p2540
aS'MRC'
p2541
ag6
aS'hundred'
p2542
aS'thousand'
p2543
aS'dollars'
p2544
aS'apiece'
p2545
aS'or'
p2546
aS'more'
p2547
aS'MRC'
p2548
aaa(lp2549
S'JON'
p2550
a(lp2551
S'You'
p2552
aS'are'
p2553
aS'kidding'
p2554
aaa(lp2555
S'ALAN'
p2556
a(lp2557
S'They'
p2558
aS'were'
p2559
aaa(lp2560
g2556
a(lp2561
S'He'
p2562
aS'is'
p2563
aaa(lp2564
g2556
a(lp2565
S'big'
p2566
aaa(lp2567
g2556
a(lp2568
S'big'
p2569
aaa(lp2570
g2556
a(lp2571
S'Hes'
p2572
aS'the'
p2573
aS'MRC'
p2574
aS'premiere'
p2575
aS'sports'
p2576
aS'artist'
p2577
aS'in'
p2578
aS'the'
p2579
aS'world'
p2580
aS'MRC'
p2581
aaa(lp2582
S'JON'
p2583
a(lp2584
S'Really'
p2585
aaa(lp2586
S'ALAN'
p2587
a(lp2588
S'And'
p2589
aS'uh'
p2590
aaa(lp2591
g2587
a(lp2592
S'Id'
p2593
aS'never'
p2594
aS'heard'
p2595
aS'of'
p2596
aS'him'
p2597
aaa(lp2598
g2587
a(lp2599
S'And'
p2600
aaa(lp2601
g2587
a(lp2602
S'but'
p2603
aS'of'
p2604
aS'course'
p2605
aS'the'
p2606
aS'price'
p2607
aS'was'
p2608
aS'right'
p2609
aS'for'
p2610
aS'me'
p2611
aaa(lp2612
g2587
a(lp2613
S'but'
p2614
ag4
aS'didnt'
p2615
aS'buy'
p2616
aS'em'
p2617
aaa(lp2618
g2587
a(lp2619
S'That'
p2620
aS'was'
p2621
aS'about'
p2622
aaa(lp2623
g2587
a(lp2624
S'That'
p2625
aS'was'
p2626
aS'about'
p2627
aS'nineteen'
p2628
aaa(lp2629
g2587
a(lp2630
S'Spring'
p2631
aS'of'
p2632
aS'sixtyeight'
p2633
aaa(lp2634
g2587
a(lp2635
S'And'
p2636
ag4
aS'was'
p2637
aS'watching'
p2638
aS'the'
p2639
aS'Olympics'
p2640
aaa(lp2641
g2587
a(lp2642
S'of'
p2643
aS'nineteenseventytwo'
p2644
aaa(lp2645
g2587
a(lp2646
S'And'
p2647
aS'hed'
p2648
aS'been'
p2649
aS'engaged'
p2650
aS'by'
p2651
aS'the'
p2652
aS'Olympic'
p2653
aS'committee'
p2654
aaa(lp2655
g2587
a(lp2656
S'Uh'
p2657
aS'he'
p2658
aS'was'
p2659
aS'prominent'
p2660
aS'then'
p2661
aaa(lp2662
g2587
a(lp2663
S'but'
p2664
aS'not'
p2665
aS'world'
p2666
aS'famous'
p2667
aaa(lp2668
S'JON'
p2669
a(lp2670
aa(lp2671
S'ALAN'
p2672
a(lp2673
S'And'
p2674
aS'uh'
p2675
aaa(lp2676
g2672
a(lp2677
g4
aaa(lp2678
g2672
a(lp2679
S'He'
p2680
aS'was'
p2681
aS'up'
p2682
aS'all'
p2683
aS'over'
p2684
aaa(lp2685
g2672
a(lp2686
S'Hes'
p2687
aS'got'
p2688
ag6
aS'great'
p2689
aS'big'
p2690
aS'bull'
p2691
aS'of'
p2692
aaa(lp2693
g2672
a(lp2694
S'Bull'
p2695
aS'Moose'
p2696
aS'moustache'
p2697
aS'sort'
p2698
aS'of'
p2699
ag6
aS'deal'
p2700
aaa(lp2701
g2672
a(lp2702
S'General'
p2703
aS'Bull'
p2704
aS'Moose'
p2705
aS'if'
p2706
aS'you'
p2707
aS'remember'
p2708
aaa(lp2709
S'JON'
p2710
a(lp2711
S'Yep'
p2712
aaa(lp2713
S'ALAN'
p2714
a(lp2715
S'And'
p2716
aS'uh'
p2717
aaa(lp2718
g2714
a(lp2719
S'his'
p2720
aS'art'
p2721
aS'was'
p2722
aS'so'
p2723
aS'distinctive'
p2724
aaa(lp2725
g2714
a(lp2726
S'And'
p2727
aS'hes'
p2728
aaa(lp2729
g2714
a(lp2730
S'The'
p2731
aS'sketching'
p2732
aaa(lp2733
g2714
a(lp2734
g4
aS'said'
p2735
aS'Jesus'
p2736
aaa(lp2737
g2714
a(lp2738
S'Thats'
p2739
aS'my'
p2740
aS'man'
p2741
aaa(lp2742
g2714
a(lp2743
g4
aS'remember'
p2744
aS'seeing'
p2745
aS'at'
p2746
aS'the'
p2747
aS'Olympics'
p2748
aaa(lp2749
g2714
a(lp2750
g4
aS'hollered'
p2751
aS'and'
p2752
aS'screamed'
p2753
aaa(lp2754
g2714
a(lp2755
S'and'
p2756
ag4
aS'told'
p2757
aS'the'
p2758
aS'story'
p2759
aaa(lp2760
g2714
a(lp2761
S'Well'
p2762
aS'of'
p2763
aS'course'
p2764
aaa(lp2765
g2714
a(lp2766
S'since'
p2767
aS'that'
p2768
aS'time'
p2769
aaa(lp2770
g2714
a(lp2771
S'Im'
p2772
aS'on'
p2773
aS'his'
p2774
aS'mailing'
p2775
aS'list'
p2776
aaa(lp2777
g2714
a(lp2778
S'XX'
p2779
aS'XX'
p2780
ag267
ag267
aaa(lp2781
g2714
a(lp2782
S'one'
p2783
aS'main'
p2784
aS'gallery'
p2785
aS'in'
p2786
aS'New'
p2787
aS'York'
p2788
aaa(lp2789
g2714
a(lp2790
S'that'
p2791
aS'uh'
p2792
aaa(lp2793
g2714
a(lp2794
S'think'
p2795
aS'distributes'
p2796
aS'for'
p2797
aS'him'
p2798
aS'around'
p2799
aS'the'
p2800
aS'United'
p2801
aS'States'
p2802
aaa(lp2803
g2714
a(lp2804
S'and'
p2805
aS'Im'
p2806
aS'on'
p2807
aS'the'
p2808
aS'mailing'
p2809
aS'list'
p2810
aaa(lp2811
g2714
a(lp2812
S'and'
p2813
aS'they'
p2814
aS'get'
p2815
aS'today'
p2816
aaa(lp2817
g2714
a(lp2818
S'twentyfive'
p2819
aS'hundred'
p2820
aS'to'
p2821
aS'twentysevenfifty'
p2822
aS'for'
p2823
ag6
aS'seriograph'
p2824
aaa(lp2825
g2714
a(lp2826
S'Of'
p2827
aS'which'
p2828
aS'he'
p2829
aS'produces'
p2830
aS'maybe'
p2831
aS'three'
p2832
aS'to'
p2833
aS'fivehundred'
p2834
aS'of'
p2835
aS'em'
p2836
aaa(lp2837
g2714
a(lp2838
S'Depending'
p2839
aS'on'
p2840
aS'the'
p2841
aS'issue'
p2842
aaa(lp2843
g2714
a(lp2844
S'But'
p2845
aS'these'
p2846
aS'were'
p2847
aS'originals'
p2848
aaa(lp2849
g2714
a(lp2850
g4
aaa(lp2851
g2714
a(lp2852
S'Jon'
p2853
ag4
aS'promise'
p2854
aS'you'
p2855
aS'as'
p2856
aS'God'
p2857
aS'as'
p2858
aS'my'
p2859
aS'witness'
p2860
aaa(lp2861
g2714
a(lp2862
g4
aaa(lp2863
g2714
a(lp2864
S'He'
p2865
aS'was'
p2866
aaa(lp2867
g2714
a(lp2868
g4
aS'couldve'
p2869
aS'walked'
p2870
aS'away'
p2871
aS'with'
p2872
aS'those'
p2873
aS'things'
p2874
aS'and'
p2875
aaa(lp2876
g2714
a(lp2877
S'And'
p2878
aS'uh'
p2879
aaa(lp2880
g2714
a(lp2881
g4
ag4
ag4
aS'p'
p2882
aaa(lp2883
g2714
a(lp2884
S'But'
p2885
aS'thats'
p2886
aS'my'
p2887
aS'story'
p2888
aS'on'
p2889
aS'that'
p2890
aS'machine'
p2891
aaa(lp2892
g2714
a(lp2893
S'That'
p2894
aS'damn'
p2895
aS'thing'
p2896
aaa(lp2897
g2714
a(lp2898
S'and'
p2899
aS'of'
p2900
aS'course'
p2901
aaa(lp2902
g2714
a(lp2903
g4
aS'didnt'
p2904
aS'know'
p2905
aaa(lp2906
g2714
a(lp2907
S'Obviously'
p2908
ag4
aS'didnt'
p2909
aS'know'
p2910
aS'what'
p2911
ag4
aS'was'
p2912
aS'missing'
p2913
aaa(lp2914
g2714
a(lp2915
S'if'
p2916
aS'Id'
p2917
aS'done'
p2918
aS'Id'
p2919
aS'done'
p2920
aS'that'
p2921
aaa(lp2922
S'JON'
p2923
a(lp2924
aa(lp2925
g2923
a(lp2926
S'Obviously'
p2927
aaa(lp2928
S'ALAN'
p2929
a(lp2930
S'But'
p2931
aS'you'
p2932
aS'know'
p2933
aaa(lp2934
S'JON'
p2935
a(lp2936
aa(lp2937
S'ALAN'
p2938
a(lp2939
g267
aS'It'
p2940
aS'was'
p2941
ag267
aaa(lp2942
S'JON'
p2943
a(lp2944
S'But'
p2945
aS'still'
p2946
aS'fivehundred'
p2947
aS'dollars'
p2948
aS'was'
p2949
ag6
aS'lot'
p2950
aS'of'
p2951
aS'money'
p2952
aS'in'
p2953
aS'those'
p2954
aaa(lp2955
S'ALAN'
p2956
a(lp2957
S'Fivehundred'
p2958
aS'dollars'
p2959
aS'was'
p2960
aaa(lp2961
S'JON'
p2962
a(lp2963
S'You'
p2964
aS'didnt'
p2965
aS'spend'
p2966
aS'that'
p2967
aS'much'
p2968
aS'on'
p2969
aS'the'
p2970
aS'whole'
p2971
aS'trip'
p2972
aS'probably'
p2973
aaa(lp2974
S'ALAN'
p2975
a(lp2976
S'Oh'
p2977
aS'hell'
p2978
ag4
ag230
ag4
aaa(lp2979
g2975
a(lp2980
S'you'
p2981
aS'know'
p2982
ag4
ag230
ag4
aaa(lp2983
g2975
a(lp2984
g4
aS'would'
p2985
ag1445
ag4
aS'would'
p2986
aS'say'
p2987
aS'probably'
p2988
aaa(lp2989
g2975
a(lp2990
S'certainly'
p2991
aS'we'
p2992
aS'didnt'
p2993
aS'spend'
p2994
aS'fivehundred'
p2995
aS'dollars'
p2996
aS'for'
p2997
aaa(lp2998
g2975
a(lp2999
S'uh'
p3000
aaa(lp3001
g2975
a(lp3002
S'for'
p3003
aaa(lp3004
g2975
a(lp3005
S'novelties'
p3006
aS'and'
p3007
aS'things'
p3008
aS'of'
p3009
aS'that'
p3010
aS'nature'
p3011
aaa(lp3012
g2975
a(lp3013
S'you'
p3014
aS'know'
p3015
aS'it'
p3016
aS'was'
p3017
aaa(lp3018
g2975
a(lp3019
S'You'
p3020
aS'tal'
p3021
aS'you'
p3022
aS'talking'
p3023
aS'about'
p3024
ag6
aS'long'
p3025
aS'time'
p3026
aS'ago'
p3027
aaa(lp3028
g2975
a(lp3029
S'Mexico'
p3030
aS'City'
p3031
aS'was'
p3032
aS'cheap'
p3033
aaa(lp3034
g2975
a(lp3035
S'Jesus'
p3036
aS'Christ'
p3037
aaa(lp3038
S'JON'
p3039
a(lp3040
S'Oh'
p3041
aS'man'
p3042
aS'it'
p3043
aS'was'
p3044
aaa(lp3045
S'ALAN'
p3046
a(lp3047
g4
aS'mean'
p3048
aaa(lp3049
g3046
a(lp3050
S'We'
p3051
aS'we'
p3052
aS'we'
p3053
aS'stayed'
p3054
aS'in'
p3055
ag6
aS'first'
p3056
aS'rate'
p3057
aaa(lp3058
g3046
a(lp3059
g4
aS'guess'
p3060
aS'what'
p3061
aS'you'
p3062
aS'call'
p3063
aS'today'
p3064
ag6
aS'four'
p3065
aS'star'
p3066
aS'hotel'
p3067
aS'but'
p3068
aaa(lp3069
g3046
a(lp3070
S'hell'
p3071
aaa(lp3072
g3046
a(lp3073
g4
aS'dont'
p3074
aS'imagine'
p3075
aS'we'
p3076
aS'paid'
p3077
aaa(lp3078
g3046
a(lp3079
S'twenty'
p3080
aS'dollars'
p3081
aaa(lp3082
g3046
a(lp3083
S'twentyfive'
p3084
aS'dollars'
p3085
ag6
aS'night'
p3086
aaa(lp3087
g3046
a(lp3088
S'You'
p3089
aS'know'
p3090
aS'XX'
p3091
aS'uh'
p3092
aS'uh'
p3093
aaa(lp3094
S'JON'
p3095
a(lp3096
S'Probably'
p3097
aaa(lp3098
g3095
a(lp3099
S'Probably'
p3100
aaa(lp3101
S'ALAN'
p3102
a(lp3103
S'But'
p3104
aS'uh'
p3105
aaa(lp3106
g3102
a(lp3107
S'anyhow'
p3108
aaa(lp3109
g3102
a(lp3110
S'uh'
p3111
ag4
ag4
ag4
aaa(lp3112
g3102
a(lp3113
g267
aS'God'
p3114
ag267
ag4
aS'my'
p3115
aaa(lp3116
g3102
a(lp3117
g4
aS'give'
p3118
aS'my'
p3119
aS'wife'
p3120
aS'the'
p3121
aS'story'
p3122
aaa(lp3123
g3102
a(lp3124
S'Every'
p3125
aS'once'
p3126
aS'in'
p3127
ag6
aS'while'
p3128
aS'this'
p3129
aS'guys'
p3130
aS'name'
p3131
aaa(lp3132
g3102
a(lp3133
S'Cause'
p3134
aS'uh'
p3135
ag4
ag4
ag4
ag4
ag4
aS'like'
p3136
aS'this'
p3137
aS'guy'
p3138
aaa(lp3139
g3102
a(lp3140
S'love'
p3141
aS'him'
p3142
aaa(lp3143
g3102
a(lp3144
S'Uh'
p3145
aaa(lp3146
g3102
a(lp3147
S'and'
p3148
aS'of'
p3149
aS'course'
p3150
aaa(lp3151
g3102
a(lp3152
S'you'
p3153
aS'know'
p3154
aS'Ive'
p3155
aS'never'
p3156
aaa(lp3157
g3102
a(lp3158
S'uh'
p3159
aaa(lp3160
g3102
a(lp3161
S'XX'
p3162
aaa(lp3163
g3102
a(lp3164
S'This'
p3165
aS'one'
p3166
aS'over'
p3167
aS'here'
p3168
aS'on'
p3169
aS'the'
p3170
aS'right'
p3171
aaa(lp3172
g3102
a(lp3173
S'although'
p3174
aS'its'
p3175
aS'signed'
p3176
aS'by'
p3177
aaa(lp3178
g3102
a(lp3179
S'by'
p3180
ag2167
aaa(lp3181
g3102
a(lp3182
S'Nier'
p3183
aaa(lp3184
g3102
a(lp3185
S'By'
p3186
aaa(lp3187
g3102
a(lp3188
S'by'
p3189
aS'LeRoy'
p3190
aS'Neiman'
p3191
aaa(lp3192
g3102
a(lp3193
S'Paul'
p3194
aS'XX'
p3195
aaa(lp3196
g3102
a(lp3197
S'and'
p3198
ag6
aS'uh'
p3199
aaa(lp3200
g3102
a(lp3201
S'And'
p3202
aS'is'
p3203
aS'also'
p3204
aS'signed'
p3205
aS'by'
p3206
aS'the'
p3207
aS'artist'
p3208
aaa(lp3209
g3102
a(lp3210
S'it'
p3211
aS'was'
p3212
aS'done'
p3213
aS'for'
p3214
ag6
aaa(lp3215
g3102
a(lp3216
S'uh'
p3217
aaa(lp3218
S'JON'
p3219
a(lp3220
S'Poster'
p3221
aaa(lp3222
S'ALAN'
p3223
a(lp3224
g736
aS'benefit'
p3225
aaa(lp3226
g3223
a(lp3227
S'it'
p3228
aS'was'
p3229
ag6
aS'poster'
p3230
aaa(lp3231
g3223
a(lp3232
S'Thats'
p3233
aS'just'
p3234
aaa(lp3235
g3223
a(lp3236
S'Thats'
p3237
aS'not'
p3238
ag6
aaa(lp3239
g3223
a(lp3240
S'thats'
p3241
aS'not'
p3242
aS'what'
p3243
aS'they'
p3244
aS'call'
p3245
ag6
aS'seriograph'
p3246
aaa(lp3247
g3223
a(lp3248
S'the'
p3249
aS'Joe'
p3250
aS'N'
p3251
aaa(lp3252
g3223
a(lp3253
S'the'
p3254
aS'Joe'
p3255
aS'uh'
p3256
aS'Namath'
p3257
aaa(lp3258
g3223
a(lp3259
S'Who'
p3260
aS'was'
p3261
aS'of'
p3262
aS'course'
p3263
aS'an'
p3264
aS'Alabama'
p3265
aS'football'
p3266
aS'player'
p3267
aaa(lp3268
S'JON'
p3269
a(lp3270
S'Yeah'
p3271
aaa(lp3272
g3269
a(lp3273
S'Yeah'
p3274
aaa(lp3275
S'ALAN'
p3276
a(lp3277
S'is'
p3278
aaa(lp3279
g3276
a(lp3280
g4
aS'saw'
p3281
aS'it'
p3282
aS'out'
p3283
aS'in'
p3284
aS'San'
p3285
aS'Francisco'
p3286
aaa(lp3287
g3276
a(lp3288
S'and'
p3289
aS'my'
p3290
aaa(lp3291
g3276
a(lp3292
S'my'
p3293
aS'my'
p3294
aS'inlaws'
p3295
aS'bought'
p3296
aS'that'
p3297
aS'for'
p3298
aS'me'
p3299
aaa(lp3300
g3276
a(lp3301
S'uh'
p3302
aaa(lp3303
g3276
a(lp3304
S'but'
p3305
aS'uh'
p3306
aaa(lp3307
g3276
a(lp3308
S'uh'
p3309
aaa(lp3310
S'JON'
p3311
a(lp3312
S'Its'
p3313
ag6
aS'beauty'
p3314
aS'though'
p3315
aaa(lp3316
S'ALAN'
p3317
a(lp3318
S'Thats'
p3319
aS'my'
p3320
aaa(lp3321
g3317
a(lp3322
S'That'
p3323
aS'th'
p3324
aS'thats'
p3325
aS'my'
p3326
aS'r'
p3327
aaa(lp3328
g3317
a(lp3329
S'Thats'
p3330
aS'my'
p3331
aaa(lp3332
g3317
a(lp3333
S'my'
p3334
aS'experience'
p3335
aS'with'
p3336
aS'one'
p3337
aS'of'
p3338
aS'those'
p3339
aS'machines'
p3340
aaa(lp3341
g3317
a(lp3342
g4
aS'didnt'
p3343
aS'have'
p3344
aS'enough'
p3345
aS'judgment'
p3346
aS'to'
p3347
aaa(lp3348
g3317
a(lp3349
S'to'
p3350
aS'trade'
p3351
aS'him'
p3352
aS'that'
p3353
aS'fucking'
p3354
aS'machine'
p3355
aaa(lp3356
S'JON'
p3357
a(lp3358
S'To'
p3359
aS'give'
p3360
aS'him'
p3361
aS'the'
p3362
aS'machine'
p3363
aaa(lp3364
S'ALAN'
p3365
a(lp3366
S'because'
p3367
aS'Id'
p3368
aS'say'
p3369
aS'probably'
p3370
aS'it'
p3371
aS'wasnt'
p3372
aaa(lp3373
g3365
a(lp3374
S'Like'
p3375
aS'it'
p3376
aS'was'
p3377
aS'like'
p3378
aS'computers'
p3379
aaa(lp3380
g3365
a(lp3381
S'Well'
p3382
aS'in'
p3383
ag6
aS'year'
p3384
aS'or'
p3385
aS'so'
p3386
aS'after'
p3387
aS'that'
p3388
aaa(lp3389
g3365
a(lp3390
S'that'
p3391
aS'thing'
p3392
aS'was'
p3393
aS'so'
p3394
aS'impractical'
p3395
aaa(lp3396
g3365
a(lp3397
S'Cause'
p3398
aS'it'
p3399
aS'was'
p3400
ag1445
aaa(lp3401
g3365
a(lp3402
S'heavy'
p3403
aS'heavy'
p3404
aS'heavy'
p3405
aaa(lp3406
g3365
a(lp3407
S'You'
p3408
aaa(lp3409
g3365
a(lp3410
S'uh'
p3411
aS'and'
p3412
aaa(lp3413
S'JON'
p3414
a(lp3415
S'Well'
p3416
aS'theyre'
p3417
aaa(lp3418
g3414
a(lp3419
S'its'
p3420
aS'like'
p3421
aS'you'
p3422
aS'say'
p3423
ag4
aaa(lp3424
S'ALAN'
p3425
a(lp3426
S'XX'
p3427
aaa(lp3428
S'JON'
p3429
a(lp3430
S'Eloise'
p3431
aS'gave'
p3432
aS'me'
p3433
aS'one'
p3434
aS'for'
p3435
aS'Christmas'
p3436
aS'about'
p3437
aaa(lp3438
S'ALAN'
p3439
a(lp3440
g267
aaa(lp3441
g3439
a(lp3442
S'This'
p3443
aS'big'
p3444
aaa(lp3445
g3439
a(lp3446
S'You'
p3447
aS'know'
p3448
aaa(lp3449
g3439
a(lp3450
S'and'
p3451
aS'you'
p3452
aS'buy'
p3453
aS'one'
p3454
aS'for'
p3455
aaa(lp3456
g3439
a(lp3457
S'sixty'
p3458
aS'dollars'
p3459
aaa(lp3460
g3439
a(lp3461
S'Eighty'
p3462
aS'dollars'
p3463
aaa(lp3464
g3439
a(lp3465
g4
aS'got'
p3466
aS'one'
p3467
aaa(lp3468
g3439
a(lp3469
g4
aS'bought'
p3470
aS'from'
p3471
aS'Radio'
p3472
aS'Shack'
p3473
aaa(lp3474
g3439
a(lp3475
S'Its'
p3476
aaa(lp3477
S'JON'
p3478
a(lp3479
S'Well'
p3480
aS'did'
p3481
aS'Rae'
p3482
aS'ever'
p3483
aS'get'
p3484
aS'uh'
p3485
aS'Nierman'
p3486
aaa(lp3487
S'ALAN'
p3488
a(lp3489
S'XXX'
p3490
aaa(lp3491
g3488
a(lp3492
S'No'
p3493
aaa(lp3494
g3488
a(lp3495
S'Never'
p3496
aS'did'
p3497
aS'get'
p3498
aS'it'
p3499
aaa(lp3500
g3488
a(lp3501
S'But'
p3502
aS'she'
p3503
aS'nudged'
p3504
aS'me'
p3505
aS'when'
p3506
aS'she'
p3507
aS'got'
p3508
aS'back'
p3509
aaa(lp3510
g3488
a(lp3511
S'but'
p3512
aS'of'
p3513
aS'course'
p3514
aaa(lp3515
g3488
a(lp3516
g4
aS'guess'
p3517
aaa(lp3518
g3488
a(lp3519
g4
aS'havent'
p3520
aS'done'
p3521
aS'it'
p3522
aS'recently'
p3523
aaa(lp3524
g3488
a(lp3525
S'but'
p3526
aS'over'
p3527
aS'the'
p3528
aS'years'
p3529
ag4
aS'like'
p3530
aS'to'
p3531
aS'tell'
p3532
aS'her'
p3533
aS'this'
p3534
aS'story'
p3535
aaa(lp3536
S'JON'
p3537
a(lp3538
aa(lp3539
S'ALAN'
p3540
a(lp3541
S'tonight'
p3542
aaa(lp3543
g3540
a(lp3544
S'because'
p3545
ag4
aS'havent'
p3546
aS'thought'
p3547
aS'about'
p3548
aS'it'
p3549
aS'in'
p3550
ag6
aS'long'
p3551
aS'time'
p3552
aaa(lp3553
g3540
a(lp3554
S'And'
p3555
aS'shell'
p3556
aS'say'
p3557
aS'to'
p3558
aS'me'
p3559
aaa(lp3560
g3540
a(lp3561
S'VOX'
p3562
ag4
aS'told'
p3563
aS'you'
p3564
aS'to'
p3565
aS'get'
p3566
aS'em'
p3567
aaa(lp3568
S'JON'
p3569
a(lp3570
aa(lp3571
S'ALAN'
p3572
a(lp3573
g4
aS'told'
p3574
aS'you'
p3575
aS'VOX'
p3576
aaa(lp3577
g3572
a(lp3578
g4
aS'mustve'
p3579
aS'gone'
p3580
aS'into'
p3581
aS'the'
p3582
aS'place'
p3583
aS'five'
p3584
aS'times'
p3585
aaa(lp3586
g3572
a(lp3587
S'You'
p3588
aS'know'
p3589
aaa(lp3590
g3572
a(lp3591
S'Id'
p3592
aS'go'
p3593
aS'in'
p3594
aS'there'
p3595
aaa(lp3596
S'JON'
p3597
a(lp3598
S'XX'
p3599
aaa(lp3600
S'ALAN'
p3601
a(lp3602
S'and'
p3603
aS'your'
p3604
aS'mouth'
p3605
aS'is'
p3606
aS'just'
p3607
aS'VOX'
p3608
aS'watering'
p3609
aS'VOX'
p3610
aaa(lp3611
g3601
a(lp3612
S'Shit'
p3613
aaa(lp3614
g3601
a(lp3615
S'If'
p3616
ag4
aS'buy'
p3617
aS'those'
p3618
aaa(lp3619
S'JON'
p3620
a(lp3621
S'But'
p3622
aS'you'
p3623
aS'knew'
p3624
aS'you'
p3625
aS'were'
p3626
aS'gonna'
p3627
aS'have'
p3628
aS'to'
p3629
aS'buy'
p3630
aS'her'
p3631
ag230
aaa(lp3632
S'ALAN'
p3633
a(lp3634
S'Well'
p3635
aS'if'
p3636
ag4
aS'had'
p3637
aS'to'
p3638
aaa(lp3639
g3633
a(lp3640
S'If'
p3641
ag4
aS'bought'
p3642
aS'those'
p3643
aS'things'
p3644
aaa(lp3645
g3633
a(lp3646
S'Shit'
p3647
aS'Id'
p3648
aS'have'
p3649
aS'to'
p3650
aS'buy'
p3651
aS'her'
p3652
aS'that'
p3653
aS'damn'
p3654
aS'thing'
p3655
aaa(lp3656
S'JON'
p3657
a(lp3658
S'Oh'
p3659
aaa(lp3660
g3657
a(lp3661
S'aint'
p3662
aS'no'
p3663
aS'question'
p3664
aaa(lp3665
S'ALAN'
p3666
a(lp3667
S'And'
p3668
aS'there'
p3669
aS'was'
p3670
aS'no'
p3671
aS'question'
p3672
aS'about'
p3673
aS'that'
p3674
aaa(lp3675
g3666
a(lp3676
S'there'
p3677
aS'wouldntve'
p3678
aS'been'
p3679
ag267
aS'any'
p3680
aS'liv'
p3681
ag267
aaa(lp3682
g3666
a(lp3683
S'Wouldnt'
p3684
aS'been'
p3685
aS'any'
p3686
aS'living'
p3687
aS'with'
p3688
aS'her'
p3689
aaa(lp3690
g3666
a(lp3691
S'You'
p3692
aS'know'
p3693
aaa(lp3694
g3666
a(lp3695
S'its'
p3696
aS'uh'
p3697
aaa(lp3698
g3666
a(lp3699
S'y'
p3700
ag3700
aaa(lp3701
g3666
a(lp3702
S'You'
p3703
aS'know'
p3704
aaa(lp3705
g3666
a(lp3706
S'h'
p3707
ag4
aaa(lp3708
g3666
a(lp3709
S'Ive'
p3710
aS'gotten'
p3711
ag6
aS'lot'
p3712
aS'better'
p3713
aaa(lp3714
g3666
a(lp3715
S'But'
p3716
aS'in'
p3717
aS'those'
p3718
aS'days'
p3719
aaa(lp3720
g3666
a(lp3721
S'you'
p3722
aS'know'
p3723
aaa(lp3724
g3666
a(lp3725
S'hell'
p3726
ag4
aS'was'
p3727
aaa(lp3728
g3666
a(lp3729
S'uh'
p3730
aaa(lp3731
g3666
a(lp3732
S'maybe'
p3733
aaa(lp3734
g3666
a(lp3735
g4
aS'was'
p3736
aaa(lp3737
g3666
a(lp3738
g1445
aS'see'
p3739
aaa(lp3740
g3666
a(lp3741
S'Sixtyeight'
p3742
aaa(lp3743
g3666
a(lp3744
S'seventyeight'
p3745
aS'eightyeight'
p3746
aaa(lp3747
g3666
a(lp3748
g267
aaa(lp3749
g3666
a(lp3750
S'Just'
p3751
aS'twentyseven'
p3752
aS'twentyeight'
p3753
aS'years'
p3754
aS'ago'
p3755
aaa(lp3756
g3666
a(lp3757
g4
aS'was'
p3758
aS'thirtyeight'
p3759
aS'thirtynine'
p3760
aS'years'
p3761
aS'old'
p3762
aaa(lp3763
g3666
a(lp3764
S'And'
p3765
aS'uh'
p3766
aaa(lp3767
g3666
a(lp3768
g4
aaa(lp3769
g3666
a(lp3770
g4
aS'sure'
p3771
aS'didnt'
p3772
aS'have'
p3773
aaa(lp3774
g3666
a(lp3775
g4
aS'sure'
p3776
aS'wasnt'
p3777
aS'prosperous'
p3778
aaa(lp3779
g3666
a(lp3780
g4
aS'had'
p3781
aS'my'
p3782
aS'damn'
p3783
aS'trip'
p3784
aS'budgeted'
p3785
aaa(lp3786
g3666
a(lp3787
S'And'
p3788
aS'uh'
p3789
aaa(lp3790
g3666
a(lp3791
S'to'
p3792
aS'have'
p3793
aS'gone'
p3794
aS'out'
p3795
aS'there'
p3796
aS'and'
p3797
aS'spent'
p3798
aaa(lp3799
g3666
a(lp3800
S'another'
p3801
aS'fifteenhundred'
p3802
aS'to'
p3803
aS'twothousand'
p3804
aS'dollars'
p3805
aS'for'
p3806
aS'artwork'
p3807
aaa(lp3808
g3666
a(lp3809
S'you'
p3810
aS'know'
p3811
aaa(lp3812
g3666
a(lp3813
S'my'
p3814
aS'mother'
p3815
aaa(lp3816
g3666
a(lp3817
S'who'
p3818
aS'was'
p3819
aS'you'
p3820
aS'know'
p3821
aS'strong'
p3822
aS'as'
p3823
aS'moose'
p3824
aS'meat'
p3825
aaa(lp3826
g3666
a(lp3827
S'come'
p3828
aS'back'
p3829
aaa(lp3830
g3666
a(lp3831
S'if'
p3832
aS'shedve'
p3833
aS'known'
p3834
aaa(lp3835
S'JON'
p3836
a(lp3837
aa(lp3838
S'ALAN'
p3839
a(lp3840
S'Shedve'
p3841
aS'figured'
p3842
ag4
aS'needed'
p3843
aS'my'
p3844
aS'fucking'
p3845
aS'head'
p3846
aS'examined'
p3847
aaa(lp3848
S'JON'
p3849
a(lp3850
S'Shedve'
p3851
aS'deducted'
p3852
aS'it'
p3853
aaa(lp3854
S'ALAN'
p3855
a(lp3856
S'WH'
p3857
aS'Shit'
p3858
aS'WH'
p3859
aaa(lp3860
S'JON'
p3861
a(lp3862
S'Oh'
p3863
aaa(lp3864
S'ALAN'
p3865
a(lp3866
S'Any'
p3867
aS'rate'
p3868
aS'uh'
p3869
aaa(lp3870
S'JON'
p3871
a(lp3872
S'Thats'
p3873
ag6
aS'good'
p3874
aS'story'
p3875
aS'though'
p3876
aaa(lp3877
S'ALAN'
p3878
a(lp3879
S'Ah'
p3880
aS'its'
p3881
aS'true'
p3882
aS'story'
p3883
aaa(lp3884
S'JON'
p3885
a(lp3886
S'Good'
p3887
aS'story'
p3888
aaa(lp3889
S'ALAN'
p3890
a(lp3891
S'True'
p3892
aS'story'
p3893
aaa(lp3894
g3890
a(lp3895
S'It'
p3896
aS'was'
p3897
ag6
aS'true'
p3898
aS'story'
p3899
aaa(lp3900
g3890
a(lp3901
g4
ag4
aaa(lp3902
S'JON'
p3903
a(lp3904
S'Well'
p3905
aS'it'
p3906
aS'wouldve'
p3907
aS'cost'
p3908
aS'you'
p3909
aS'that'
p3910
aS'to'
p3911
aS'replace'
p3912
aS'the'
p3913
aS'doggone'
p3914
aS'machine'
p3915
aaa(lp3916
S'ALAN'
p3917
a(lp3918
S'Aw'
p3919
aS'Idve'
p3920
aS'had'
p3921
aS'to'
p3922
aS'replace'
p3923
aS'it'
p3924
aS'for'
p3925
aS'the'
p3926
aS'store'
p3927
aaa(lp3928
g3917
a(lp3929
S'uh'
p3930
aaa(lp3931
g3917
a(lp3932
S'but'
p3933
aS'as'
p3934
ag4
aS'said'
p3935
aS'it'
p3936
aS'was'
p3937
aS'only'
p3938
ag6
aS'matter'
p3939
aS'of'
p3940
aaa(lp3941
g3917
a(lp3942
g4
aS'guess'
p3943
ag6
aS'year'
p3944
aaa(lp3945
g3917
a(lp3946
S'those'
p3947
aS'things'
p3948
aS'were'
p3949
aS'really'
p3950
aS'antiquated'
p3951
aaa(lp3952
g3917
a(lp3953
S'Although'
p3954
aS'we'
p3955
aS'used'
p3956
aS'em'
p3957
ag6
aS'lot'
p3958
aaa(lp3959
g3917
a(lp3960
S'Uh'
p3961
aaa(lp3962
g3917
a(lp3963
S'in'
p3964
aS'those'
p3965
aS'days'
p3966
aaa(lp3967
g3917
a(lp3968
S'and'
p3969
ag4
aaa(lp3970
g3917
a(lp3971
S'you'
p3972
aS'know'
p3973
ag4
aS'recorded'
p3974
aS'the'
p3975
aS'whole'
p3976
aS'trip'
p3977
aaa(lp3978
g3917
a(lp3979
S'and'
p3980
aS'uh'
p3981
aaa(lp3982
g3917
a(lp3983
S'you'
p3984
aS'know'
p3985
aS'things'
p3986
aS'that'
p3987
aS'we'
p3988
aS'did'
p3989
aaa(lp3990
g3917
a(lp3991
S'It'
p3992
aS'was'
p3993
ag6
aS'wonderful'
p3994
aS'trip'
p3995
aaa(lp3996
g3917
a(lp3997
g267
aS'we'
p3998
aS'had'
p3999
aS'good'
p4000
aS'times'
p4001
ag267
aaa(lp4002
S'JON'
p4003
a(lp4004
S'Better'
p4005
aS'than'
p4006
aS'keeping'
p4007
ag6
aS'diary'
p4008
aaa(lp4009
S'ALAN'
p4010
a(lp4011
S'Oh'
p4012
aS'yeah'
p4013
aaa(lp4014
g4010
a(lp4015
g736
aS'lot'
p4016
aS'easier'
p4017
aaa(lp4018
g4010
a(lp4019
S'It'
p4020
aS'really'
p4021
aS'is'
p4022
aaa(lp4023
g4010
a(lp4024
S'Uh'
p4025
aaa(lp4026
S'JON'
p4027
a(lp4028
S'We'
p4029
aaa(lp4030
S'ALAN'
p4031
a(lp4032
g4
aS'keep'
p4033
ag6
aaa(lp4034
S'JON'
p4035
a(lp4036
S'Remember'
p4037
aS'we'
p4038
aS'tried'
p4039
aS'keeping'
p4040
ag6
aS'diary'
p4041
aS'on'
p4042
aS'the'
p4043
aS'China'
p4044
aS'trip'
p4045
aaa(lp4046
g4035
a(lp4047
S'and'
p4048
aS'man'
p4049
aS'it'
p4050
aS'was'
p4051
aS'arduous'
p4052
aaa(lp4053
S'ALAN'
p4054
a(lp4055
S'Well'
p4056
aaa(lp4057
g4054
a(lp4058
g4
aS'keep'
p4059
ag6
aS'diary'
p4060
aaa(lp4061
g4054
a(lp4062
S'course'
p4063
ag4
aS'we'
p4064
aS'we'
p4065
aS'havent'
p4066
aS'traveled'
p4067
aS'much'
p4068
aS'lately'
p4069
aaa(lp4070
g4054
a(lp4071
g4
aS'keep'
p4072
ag6
aS'diary'
p4073
aaa(lp4074
g4054
a(lp4075
S'when'
p4076
ag4
aaa(lp4077
g4054
a(lp4078
S'go'
p4079
aS'out'
p4080
aS'of'
p4081
aS'the'
p4082
aS'country'
p4083
aaa(lp4084
g4054
a(lp4085
S'Still'
p4086
aS'got'
p4087
aS'em'
p4088
aS'in'
p4089
aS'here'
p4090
aaa(lp4091
g4054
a(lp4092
S'Otherwise'
p4093
aaa(lp4094
g4054
a(lp4095
S'my'
p4096
aS'problem'
p4097
aS'is'
p4098
aaa(lp4099
g4054
a(lp4100
S'and'
p4101
aS'its'
p4102
ag6
aS'lot'
p4103
aS'easier'
p4104
aS'to'
p4105
aS'do'
p4106
aS'it'
p4107
aS'that'
p4108
aS'way'
p4109
aaa(lp4110
g4054
a(lp4111
S'but'
p4112
ag4
aaa(lp4113
g4054
a(lp4114
g4
aS'keep'
p4115
ag4
aS'diary'
p4116
aS'when'
p4117
ag4
aS'go'
p4118
aS'out'
p4119
aS'of'
p4120
aS'the'
p4121
aS'country'
p4122
aaa(lp4123
S'JON'
p4124
a(lp4125
aa(lp4126
S'ALAN'
p4127
a(lp4128
S'The'
p4129
aS'problem'
p4130
aS'is'
p4131
aaa(lp4132
g4127
a(lp4133
S'with'
p4134
aS'me'
p4135
aaa(lp4136
g4127
a(lp4137
S'not'
p4138
aS'that'
p4139
aS'it'
p4140
aS'comes'
p4141
aS'up'
p4142
aS'too'
p4143
aS'much'
p4144
aaa(lp4145
g4127
a(lp4146
S'but'
p4147
aS'someonell'
p4148
aS'say'
p4149
aS'something'
p4150
aS'to'
p4151
aS'me'
p4152
aS'about'
p4153
aS'somewhere'
p4154
ag4
ag1445
aaa(lp4155
g4127
a(lp4156
S'Shit'
p4157
aaa(lp4158
g4127
a(lp4159
g4
ag4
aaa(lp4160
g4127
a(lp4161
S'you'
p4162
aS'know'
p4163
ag4
aaa(lp4164
g4127
a(lp4165
g4
aS'forgot'
p4166
aS'where'
p4167
ag4
aS'went'
p4168
aaa(lp4169
g4127
a(lp4170
g4
aS'have'
p4171
aS'to'
p4172
aS'look'
p4173
aaa(lp4174
g4127
a(lp4175
S'cause'
p4176
ag4
aS'cant'
p4177
aS'remember'
p4178
aaa(lp4179
S'JON'
p4180
a(lp4181
S'Well'
p4182
aS'you'
p4183
aS'go'
p4184
aS'to'
p4185
aS'so'
p4186
aS'many'
p4187
aS'places'
p4188
aaa(lp4189
g4180
a(lp4190
S'on'
p4191
ag6
aS'cruise'
p4192
aS'particularly'
p4193
aaa(lp4194
g4180
a(lp4195
S'you'
p4196
aS'know'
p4197
aaa(lp4198
S'ALAN'
p4199
a(lp4200
S'Yeah'
p4201
aaa(lp4202
S'JON'
p4203
a(lp4204
S'So'
p4205
aS'many'
p4206
aS'places'
p4207
aS'in'
p4208
ag6
aS'short'
p4209
aS'time'
p4210
aaa(lp4211
g4203
a(lp4212
S'that'
p4213
aS'you'
p4214
aS'get'
p4215
aS'em'
p4216
aS'mixed'
p4217
aS'up'
p4218
aaa(lp4219
g4203
a(lp4220
S'Now'
p4221
aS'we'
p4222
aS'cant'
p4223
aS'even'
p4224
aS'keep'
p4225
aS'our'
p4226
aS'photos'
p4227
aS'straight'
p4228
aS'without'
p4229
aS'the'
p4230
aS'diary'
p4231
aaa(lp4232
S'ALAN'
p4233
a(lp4234
S'Oh'
p4235
aS'yeah'
p4236
aaa(lp4237
g4233
a(lp4238
S'Well'
p4239
aS'you'
p4240
aS'know'
p4241
aaa(lp4242
g4233
a(lp4243
g3700
aS'when'
p4244
aS'you'
p4245
aS'get'
p4246
aS'back'
p4247
aS'from'
p4248
aS'your'
p4249
aS'trip'
p4250
aaa(lp4251
g4233
a(lp4252
S'until'
p4253
aS'you'
p4254
aS'make'
p4255
aS'another'
p4256
aS'trip'
p4257
aaa(lp4258
g4233
a(lp4259
S'you'
p4260
aS'can'
p4261
aS'remember'
p4262
aaa(lp4263
g4233
a(lp4264
S'But'
p4265
aaa(lp4266
g4233
a(lp4267
S'having'
p4268
aS'taken'
p4269
aS'as'
p4270
aS'many'
p4271
aS'trips'
p4272
aS'as'
p4273
aS'youve'
p4274
aS'taken'
p4275
aaa(lp4276
g4233
a(lp4277
S'shit'
p4278
aaa(lp4279
g4233
a(lp4280
S'they'
p4281
aS'sorta'
p4282
aS'run'
p4283
aS'together'
p4284
aaa(lp4285
g4233
a(lp4286
S'Im'
p4287
aS'talking'
p4288
aS'about'
p4289
aaa(lp4290
S'JON'
p4291
a(lp4292
S'They'
p4293
aS'do'
p4294
aaa(lp4295
S'ALAN'
p4296
a(lp4297
S'the'
p4298
aS'ones'
p4299
aS'that'
p4300
aS'were'
p4301
aS'five'
p4302
aS'years'
p4303
aS'ago'
p4304
aaa(lp4305
S'JON'
p4306
a(lp4307
S'Honest'
p4308
aS'they'
p4309
aS'do'
p4310
aaa(lp4311
S'ALAN'
p4312
a(lp4313
S'to'
p4314
aS'separate'
p4315
aS'the'
p4316
aS'trip'
p4317
aS'that'
p4318
aS'you'
p4319
aS'went'
p4320
aS'on'
p4321
aS'this'
p4322
aS'one'
p4323
ag717
aaa(lp4324
g4312
a(lp4325
S'Its'
p4326
aS'tough'
p4327
aS'to'
p4328
aS'do'
p4329
aaa(lp4330
g4312
a(lp4331
S'And'
p4332
aS'uh'
p4333
aaa(lp4334
g4312
a(lp4335
S'but'
p4336
aaa(lp4337
g4312
a(lp4338
S'theyre'
p4339
ag6
aS'lot'
p4340
aaa(lp4341
g4312
a(lp4342
S'thats'
p4343
ag6
aS'lot'
p4344
aS'easier'
p4345
aS'than'
p4346
ag6
aS'diary'
p4347
aaa(lp4348
g4312
a(lp4349
S'then'
p4350
aS'you'
p4351
aS'can'
p4352
aS'transcribe'
p4353
aS'it'
p4354
aaa(lp4355
g4312
a(lp4356
S'But'
p4357
aS'uh'
p4358
aaa(lp4359
g4312
a(lp4360
g4
aS'dont'
p4361
aS'take'
p4362
aaa(lp4363
g4312
a(lp4364
g4
aS'dont'
p4365
aS'take'
p4366
aS'my'
p4367
aS'diary'
p4368
aS'in'
p4369
aS'the'
p4370
aS'domestic'
p4371
aS'United'
p4372
aS'States'
p4373
aaa(lp4374
g4312
a(lp4375
S'and'
p4376
aS'we'
p4377
aS'havent'
p4378
aS'traveled'
p4379
aS'all'
p4380
aS'that'
p4381
aS'much'
p4382
aaa(lp4383
g4312
a(lp4384
S'but'
p4385
ag4
aS'have'
p4386
aS'taken'
p4387
aS'em'
p4388
aaa(lp4389
g4312
a(lp4390
S'uh'
p4391
aaa(lp4392
g4312
a(lp4393
S'first'
p4394
aS'trip'
p4395
ag4
aS'made'
p4396
aaa(lp4397
g4312
a(lp4398
S'you'
p4399
aS'know'
p4400
aaa(lp4401
g4312
a(lp4402
S'o'
p4403
aS'out'
p4404
aaa(lp4405
g4312
a(lp4406
S'XXX'
p4407
aaa(lp4408
g4312
a(lp4409
S'In'
p4410
aS'nineteenseventysix'
p4411
aaa(lp4412
g4312
a(lp4413
S'XXX'
p4414
aaa(lp4415
g4312
a(lp4416
S'Tha'
p4417
aaa(lp4418
g4312
a(lp4419
S'Outside'
p4420
aS'of'
p4421
aS'Mexico'
p4422
aaa(lp4423
g4312
a(lp4424
S'out'
p4425
aS'of'
p4426
aS'the'
p4427
aS'country'
p4428
aaa(lp4429
g4312
a(lp4430
S'was'
p4431
ag4
aS'went'
p4432
aS'to'
p4433
aaa(lp4434
g4312
a(lp4435
S'Uh'
p4436
aS'we'
p4437
aS'went'
p4438
aS'to'
p4439
aaa(lp4440
g4312
a(lp4441
g4
aS'went'
p4442
aS'to'
p4443
aS'the'
p4444
aS'Orient'
p4445
aaa(lp4446
g4312
a(lp4447
S'On'
p4448
ag6
aS'business'
p4449
aS'trip'
p4450
aaa(lp4451
g4312
a(lp4452
S'XX'
p4453
aS'exploratory'
p4454
aS'trip'
p4455
aaa(lp4456
g4312
a(lp4457
g267
ag4
aS'was'
p4458
aS'there'
p4459
aS'for'
p4460
ag267
aS'fifteen'
p4461
aS'days'
p4462
aaa(lp4463
g4312
a(lp4464
S'worked'
p4465
aS'my'
p4466
aS'ass'
p4467
aS'off'
p4468
aaa(lp4469
g4312
a(lp4470
S'But'
p4471
aS'it'
p4472
aS'was'
p4473
aS'uh'
p4474
aaa(lp4475
g4312
a(lp4476
S'went'
p4477
aS'to'
p4478
aS'uh'
p4479
aaa(lp4480
g4312
a(lp4481
S'Japan'
p4482
aaa(lp4483
g4312
a(lp4484
S'went'
p4485
aS'to'
p4486
aS'Osaka'
p4487
aaa(lp4488
g4312
a(lp4489
S'which'
p4490
aS'was'
p4491
aS'the'
p4492
aS'textile'
p4493
aS'city'
p4494
aaa(lp4495
g4312
a(lp4496
S'and'
p4497
aS'then'
p4498
aS'uh'
p4499
aaa(lp4500
g4312
a(lp4501
S'Taipei'
p4502
aS'and'
p4503
aS'Hong'
p4504
aS'Kong'
p4505
aaa(lp4506
g4312
a(lp4507
S'Uh'
p4508
aaa(lp4509
g4312
a(lp4510
S'and'
p4511
aS'it'
p4512
aS'was'
p4513
ag6
aaa(lp4514
g4312
a(lp4515
S'Youve'
p4516
aS'been'
p4517
aaa(lp4518
g4312
a(lp4519
S'Um'
p4520
aS'but'
p4521
aS'it'
p4522
aS'was'
p4523
aS'for'
p4524
aS'me'
p4525
aaa(lp4526
g4312
a(lp4527
S'uh'
p4528
aaa(lp4529
g4312
a(lp4530
S'uh'
p4531
aS'not'
p4532
aS'only'
p4533
aS'an'
p4534
aS'education'
p4535
aaa(lp4536
g4312
a(lp4537
S'wed'
p4538
aS'been'
p4539
aS'doing'
p4540
aS'some'
p4541
aS'importing'
p4542
aaa(lp4543
g4312
a(lp4544
S'but'
p4545
aS'uh'
p4546
aS'through'
p4547
aaa(lp4548
g4312
a(lp4549
g6
aS'group'
p4550
aaa(lp4551
g4312
a(lp4552
S'And'
p4553
aS'it'
p4554
aS'was'
p4555
ag6
aS'group'
p4556
aS'of'
p4557
aS'us'
p4558
aS'that'
p4559
aS'went'
p4560
aaa(lp4561
g4312
a(lp4562
g4
aS'guess'
p4563
aS'it'
p4564
aS'probably'
p4565
aS'was'
p4566
aaa(lp4567
g4312
a(lp4568
g6
aS'dozen'
p4569
aS'in'
p4570
aS'our'
p4571
aS'group'
p4572
aS'that'
p4573
aS'went'
p4574
aaa(lp4575
g4312
a(lp4576
S'There'
p4577
aS'was'
p4578
ag6
aS'group'
p4579
aS'of'
p4580
aS'stores'
p4581
aS'that'
p4582
aS'we'
p4583
aS'were'
p4584
aS'associated'
p4585
aS'with'
p4586
aaa(lp4587
g4312
a(lp4588
S'it'
p4589
aS'was'
p4590
ag6
ag6
aS'an'
p4591
aS'interesting'
p4592
aS'trip'
p4593
aaa(lp4594
g4312
a(lp4595
S'uh'
p4596
aaa(lp4597
g4312
a(lp4598
S'very'
p4599
aS'educational'
p4600
aaa(lp4601
g4312
a(lp4602
S'Uh'
p4603
aaa(lp4604
g4312
a(lp4605
S'still'
p4606
aS'got'
p4607
aS'my'
p4608
aS'notes'
p4609
aS'from'
p4610
aS'nineteenseventysix'
p4611
aS'but'
p4612
aaa(lp4613
g4312
a(lp4614
g1445
aS'and'
p4615
aS'all'
p4616
aS'those'
p4617
aS'god'
p4618
aS'damn'
p4619
aS'cards'
p4620
aaa(lp4621
g4312
a(lp4622
S'you'
p4623
aS'know'
p4624
aS'how'
p4625
aS'they'
p4626
aS'get'
p4627
aS'over'
p4628
aS'there'
p4629
aaa(lp4630
g4312
a(lp4631
S'everybody'
p4632
aS'gives'
p4633
aS'you'
p4634
aaa(lp4635
S'JON'
p4636
a(lp4637
aa(lp4638
S'ALAN'
p4639
a(lp4640
S'gives'
p4641
aS'you'
p4642
aaa(lp4643
S'JON'
p4644
a(lp4645
S'Yeah'
p4646
aaa(lp4647
S'ALAN'
p4648
a(lp4649
S'gives'
p4650
aS'you'
p4651
ag6
aS'card'
p4652
aaa(lp4653
g4648
a(lp4654
S'Ill'
p4655
aS'never'
p4656
aS'forget'
p4657
aS'how'
p4658
aS'impressed'
p4659
ag4
aS'was'
p4660
aS'with'
p4661
aaa(lp4662
g4648
a(lp4663
S'of'
p4664
aS'all'
p4665
aS'the'
p4666
aS'Orientals'
p4667
aaa(lp4668
g4648
a(lp4669
S'the'
p4670
aS'Japanese'
p4671
aS'are'
p4672
aS'so'
p4673
aS'bright'
p4674
aaa(lp4675
g4648
a(lp4676
S'My'
p4677
aS'god'
p4678
aaa(lp4679
g4648
a(lp4680
S'And'
p4681
aS'uh'
p4682
aS'just'
p4683
aS'uh'
p4684
aaa(lp4685
g4648
a(lp4686
S'uh'
p4687
aS'uh'
p4688
aaa(lp4689
S'JON'
p4690
a(lp4691
S'Catch'
p4692
aS'SNAPPING'
p4693
aS'on'
p4694
aS'like'
p4695
aS'that'
p4696
aS'SNAPPING'
p4697
aaa(lp4698
S'ALAN'
p4699
a(lp4700
S'They'
p4701
aS'jus'
p4702
aaa(lp4703
S'JON'
p4704
a(lp4705
S'Dont'
p4706
aS'they'
p4707
aaa(lp4708
S'ALAN'
p4709
a(lp4710
S'Oh'
p4711
aaa(lp4712
g4709
a(lp4713
S'They'
p4714
aS'really'
p4715
aS'they'
p4716
aaa(lp4717
g4709
a(lp4718
S'they'
p4719
aS'really'
p4720
aS'they'
p4721
aS'real'
p4722
aS'they'
p4723
aS'really'
p4724
aaa(lp4725
S'JON'
p4726
a(lp4727
S'They'
p4728
aS'work'
p4729
aS'at'
p4730
aS'though'
p4731
aS'man'
p4732
aaa(lp4733
g4726
a(lp4734
S'and'
p4735
aS'the'
p4736
aS'Chinese'
p4737
aS'work'
p4738
aS'at'
p4739
aS'it'
p4740
aaa(lp4741
g4726
a(lp4742
S'Theyre'
p4743
aS'good'
p4744
aS'students'
p4745
aaa(lp4746
g4726
a(lp4747
S'You'
p4748
aS'know'
p4749
aaa(lp4750
S'ALAN'
p4751
a(lp4752
S'Well'
p4753
aS'yeah'
p4754
aaa(lp4755
g4751
a(lp4756
S'well'
p4757
aaa(lp4758
g4751
a(lp4759
S'you'
p4760
aS'know'
p4761
aaa(lp4762
g4751
a(lp4763
S'we'
p4764
aS'see'
p4765
aaa(lp4766
S'JON'
p4767
a(lp4768
S'Listen'
p4769
aaa(lp4770
g4767
a(lp4771
S'look'
p4772
aS'at'
p4773
aS'these'
p4774
aS'people'
p4775
aS'from'
p4776
aS'India'
p4777
aaa(lp4778
g4767
a(lp4779
S'What'
p4780
ag1445
aS'good'
p4781
aS'students'
p4782
aS'they'
p4783
aS'are'
p4784
aaa(lp4785
g4767
a(lp4786
S'Some'
p4787
aS'of'
p4788
aS'your'
p4789
aS'fine'
p4790
aS'doctors'
p4791
aaa(lp4792
S'ALAN'
p4793
a(lp4794
S'Its'
p4795
aS'amazing'
p4796
ag267
aS'aint'
p4797
aS'it'
p4798
ag267
aaa(lp4799
S'JON'
p4800
a(lp4801
S'yeah'
p4802
aaa(lp4803
S'ALAN'
p4804
a(lp4805
S'You'
p4806
aS'know'
p4807
aS'we'
p4808
aS'see'
p4809
aS'these'
p4810
aS'people'
p4811
aaa(lp4812
g4804
a(lp4813
S'you'
p4814
aS'know'
p4815
ag3700
aaa(lp4816
g4804
a(lp4817
S'You'
p4818
aS'know'
p4819
aS'weve'
p4820
aS'talked'
p4821
aS'about'
p4822
aS'this'
p4823
aaa(lp4824
g4804
a(lp4825
g267
aS'on'
p4826
aS'groups'
p4827
aS'for'
p4828
aS'years'
p4829
ag267
aaa(lp4830
g4804
a(lp4831
S'all'
p4832
aS'the'
p4833
aS'problems'
p4834
aS'we'
p4835
aS'got'
p4836
aS'with'
p4837
aS'the'
p4838
aS'Blacks'
p4839
aaa(lp4840
g4804
a(lp4841
g4
aS'was'
p4842
aS'just'
p4843
aS'reading'
p4844
aS'an'
p4845
aS'article'
p4846
aaa(lp4847
g4804
a(lp4848
g4
aS'believe'
p4849
aS'it'
p4850
aS'was'
p4851
aS'the'
p4852
aS'paper'
p4853
aS'this'
p4854
aS'morning'
p4855
aaa(lp4856
g4804
a(lp4857
S'Where'
p4858
ag4
aS'read'
p4859
aS'it'
p4860
aaa(lp4861
g4804
a(lp4862
S'Maybe'
p4863
aS'it'
p4864
aS'was'
p4865
aS'New'
p4866
aS'York'
p4867
aS'Times'
p4868
aS'yesterday'
p4869
aaa(lp4870
g4804
a(lp4871
S'MRC'
p4872
aS'Thirtythree'
p4873
aS'percent'
p4874
aS'MRC'
p4875
aaa(lp4876
g4804
a(lp4877
S'of'
p4878
aS'the'
p4879
aS'Black'
p4880
aS'juveniles'
p4881
aS'in'
p4882
aS'their'
p4883
aS'twenties'
p4884
aaa(lp4885
g4804
a(lp4886
S'are'
p4887
aS'either'
p4888
aS'in'
p4889
aS'jail'
p4890
aaa(lp4891
S'JON'
p4892
a(lp4893
aa(lp4894
S'ALAN'
p4895
a(lp4896
S'on'
p4897
aS'parole'
p4898
aaa(lp4899
g4895
a(lp4900
S'or'
p4901
aS'just'
p4902
aS'released'
p4903
aaa(lp4904
g4895
a(lp4905
S'Thirtythree'
p4906
aS'percent'
p4907
aaa(lp4908
g4895
a(lp4909
S'And'
p4910
aS'then'
p4911
ag4
aaa(lp4912
g4895
a(lp4913
g4
aS'read'
p4914
aS'in'
p4915
aS'another'
p4916
aS'art'
p4917
aaa(lp4918
S'JON'
p4919
a(lp4920
S'And'
p4921
aS'that'
p4922
aS'doesnt'
p4923
aS'count'
p4924
aS'how'
p4925
aS'many'
p4926
aS'got'
p4927
aS'away'
p4928
aaa(lp4929
S'ALAN'
p4930
a(lp4931
S'Oh'
p4932
aS'thats'
p4933
aS'right'
p4934
aaa(lp4935
g4930
a(lp4936
S'But'
p4937
aS'thats'
p4938
aS'of'
p4939
aS'the'
p4940
aaa(lp4941
g4930
a(lp4942
S'in'
p4943
aS'their'
p4944
aS'twenties'
p4945
aaa(lp4946
g4930
a(lp4947
g4
aS'read'
p4948
aS'an'
p4949
aS'article'
p4950
aaa(lp4951
g4930
a(lp4952
S'within'
p4953
aS'the'
p4954
aS'last'
p4955
aS'three'
p4956
aS'or'
p4957
aS'four'
p4958
aS'months'
p4959
aaa(lp4960
g4930
a(lp4961
S'and'
p4962
aS'Im'
p4963
aaa(lp4964
g4930
a(lp4965
g4
aS'believe'
p4966
aS'Im'
p4967
aS'correct'
p4968
aS'on'
p4969
aS'this'
p4970
aS'figure'
p4971
aS'that'
p4972
aaa(lp4973
g4930
a(lp4974
S'MRC'
p4975
aS'twelve'
p4976
aS'percent'
p4977
aS'of'
p4978
aS'the'
p4979
aS'Black'
p4980
aS'male'
p4981
aS'population'
p4982
aS'MRC'
p4983
aS'of'
p4984
aS'the'
p4985
aS'United'
p4986
aS'States'
p4987
aS'MRC'
p4988
aS'is'
p4989
aS'POUNDING'
p4990
aS'in'
p4991
aS'prison'
p4992
aS'MRC'
p4993
aaa(lp4994
g4930
a(lp4995
S'Twelve'
p4996
aS'percent'
p4997
aS'POUNDING'
p4998
aaa(lp4999
g4930
a(lp5000
S'Of'
p5001
aS'the'
p5002
aS'Black'
p5003
aS'male'
p5004
aS'population'
p5005
aaa(lp5006
g4930
a(lp5007
S'As'
p5008
aS'you'
p5009
aS'say'
p5010
aaa(lp5011
g4930
a(lp5012
S'how'
p5013
aS'many'
p5014
aS'di'
p5015
aaa(lp5016
g4930
a(lp5017
S'You'
p5018
aS'know'
p5019
aaa(lp5020
g4930
a(lp5021
S'how'
p5022
aS'many'
p5023
aS'oughta'
p5024
aS'be'
p5025
aS'in'
p5026
aS'jail'
p5027
aaa(lp5028
g4930
a(lp5029
S'probably'
p5030
aS'that'
p5031
aS'many'
p5032
aS'more'
p5033
aaa(lp5034
g4930
a(lp5035
S'But'
p5036
aS'the'
p5037
aS'point'
p5038
ag4
aS'was'
p5039
aS'gonna'
p5040
aS'make'
p5041
aS'is'
p5042
aaa(lp5043
g4930
a(lp5044
S'and'
p5045
aS'therere'
p5046
aS'always'
p5047
aS'exceptions'
p5048
aaa(lp5049
g4930
a(lp5050
S'Uh'
p5051
aS'not'
p5052
aS'to'
p5053
aS'take'
p5054
aS'anything'
p5055
aS'away'
p5056
aS'from'
p5057
aS'uh'
p5058
aaa(lp5059
g4930
a(lp5060
S'Percy'
p5061
aS'Jones'
p5062
aaa(lp5063
g4930
a(lp5064
S'Whose'
p5065
aS'article'
p5066
ag4
aS'read'
p5067
aS'this'
p5068
aS'morning'
p5069
aaa(lp5070
g4930
a(lp5071
S'because'
p5072
ag4
aS'mean'
p5073
aS'hes'
p5074
aaa(lp5075
g4930
a(lp5076
g4
aS'dont'
p5077
aS'know'
p5078
aaa(lp5079
g4930
a(lp5080
S'what'
p5081
aS'his'
p5082
aS'family'
p5083
aS'had'
p5084
aaa(lp5085
g4930
a(lp5086
S'but'
p5087
ag4
aS'mean'
p5088
aS'hes'
p5089
aaa(lp5090
g4930
a(lp5091
S'you'
p5092
aS'know'
p5093
aS'hes'
p5094
aaa(lp5095
g4930
a(lp5096
S'hes'
p5097
ag140
aS'hes'
p5098
aS'hes'
p5099
aaa(lp5100
g4930
a(lp5101
S'come'
p5102
aS'out'
p5103
aS'of'
p5104
aS'it'
p5105
aaa(lp5106
g4930
a(lp5107
S'But'
p5108
aaa(lp5109
g4930
a(lp5110
S'by'
p5111
aS'and'
p5112
aS'large'
p5113
aS'across'
p5114
aS'the'
p5115
aS'board'
p5116
aaa(lp5117
g4930
a(lp5118
S'theyve'
p5119
aS'just'
p5120
aS'never'
p5121
aS'educated'
p5122
aS'themselves'
p5123
aaa(lp5124
g4930
a(lp5125
S'Coming'
p5126
aS'from'
p5127
aS'these'
p5128
aS'backgrounds'
p5129
aaa(lp5130
S'JON'
p5131
a(lp5132
S'Well'
p5133
aS'thats'
p5134
aS'the'
p5135
aS'hard'
p5136
aS'part'
p5137
aaa(lp5138
S'ALAN'
p5139
a(lp5140
S'and'
p5141
aS'and'
p5142
aS'yet'
p5143
aS'you'
p5144
ag1445
aaa(lp5145
S'JON'
p5146
a(lp5147
S'they'
p5148
aS'havent'
p5149
aS'educated'
p5150
aS'themselves'
p5151
aaa(lp5152
S'ALAN'
p5153
a(lp5154
S'And'
p5155
aS'you'
p5156
aS'see'
p5157
aS'these'
p5158
aS'people'
p5159
aS'come'
p5160
aS'here'
p5161
aS'from'
p5162
aS'POUNDING'
p5163
aS'Taiwan'
p5164
aaa(lp5165
g5153
a(lp5166
S'Korea'
p5167
aaa(lp5168
g5153
a(lp5169
S'Cambodia'
p5170
aS'POUNDING'
p5171
aaa(lp5172
g5153
a(lp5173
S'Taipei'
p5174
aaa(lp5175
g5153
a(lp5176
S'parents'
p5177
aS'cant'
p5178
aS'speak'
p5179
aS'English'
p5180
aaa(lp5181
g5153
a(lp5182
S'they'
p5183
aS'come'
p5184
aS'over'
p5185
aS'not'
p5186
aS'speaking'
p5187
aS'English'
p5188
aaa(lp5189
g5153
a(lp5190
S'and'
p5191
aS'they'
p5192
aaa(lp5193
g5153
a(lp5194
S'they'
p5195
aS'excel'
p5196
aS'scholastically'
p5197
aaa(lp5198
g5153
a(lp5199
S'in'
p5200
aS'the'
p5201
aS'most'
p5202
aS'difficult'
p5203
aS'subjects'
p5204
aaa(lp5205
g5153
a(lp5206
g4
aS'mean'
p5207
aS'chemistry'
p5208
aaa(lp5209
g5153
a(lp5210
S'physics'
p5211
aaa(lp5212
g5153
a(lp5213
S'medicine'
p5214
aaa(lp5215
g5153
a(lp5216
g4
aS'remember'
p5217
aS'one'
p5218
aS'year'
p5219
aaa(lp5220
g5153
a(lp5221
g267
aS'there'
p5222
aS'for'
p5223
ag267
aS'at'
p5224
aS'the'
p5225
aS'time'
p5226
ag4
aS'remember'
p5227
aS'reading'
p5228
aS'the'
p5229
aS'article'
p5230
aaa(lp5231
g5153
a(lp5232
S'its'
p5233
aS'been'
p5234
aS'ten'
p5235
aS'or'
p5236
aS'twelve'
p5237
aS'years'
p5238
aS'ago'
p5239
aaa(lp5240
g5153
a(lp5241
S'but'
p5242
aS'fourteen'
p5243
aaa(lp5244
g5153
a(lp5245
S'were'
p5246
aaa(lp5247
g5153
a(lp5248
S'Fourteen'
p5249
aaa(lp5250
g5153
a(lp5251
S'uh'
p5252
aS'public'
p5253
aS'and'
p5254
aS'private'
p5255
aS'high'
p5256
aS'schools'
p5257
aS'in'
p5258
aS'ShreveportBos'
p5259
aaa(lp5260
g5153
a(lp5261
S'P'
p5262
ag4
aS'dont'
p5263
aS'know'
p5264
aS'how'
p5265
aS'many'
p5266
aS'there'
p5267
aS'are'
p5268
aS'today'
p5269
ag5262
aaa(lp5270
g5153
a(lp5271
g4
aS'remember'
p5272
aS'that'
p5273
aaa(lp5274
g5153
a(lp5275
S'it'
p5276
aS'was'
p5277
ag6
aS'big'
p5278
aS'article'
p5279
aaa(lp5280
g5153
a(lp5281
S'that'
p5282
aS'five'
p5283
aS'valedictorians'
p5284
aaa(lp5285
g5153
a(lp5286
S'For'
p5287
aS'sh_just'
p5288
aS'ShreveportBossier'
p5289
aaa(lp5290
g5153
a(lp5291
S'Five'
p5292
aS'valedictorians'
p5293
aS'that'
p5294
aS'year'
p5295
aS'were'
p5296
aS'of'
p5297
aS'Oriental'
p5298
aS'descent'
p5299
aaa(lp5300
g5153
a(lp5301
S'You'
p5302
aS'know'
p5303
aaa(lp5304
g5153
a(lp5305
S'couldntve'
p5306
aS'been'
p5307
aS'at'
p5308
aS'that'
p5309
aS'time'
p5310
aaa(lp5311
S'JON'
p5312
a(lp5313
aa(lp5314
S'ALAN'
p5315
a(lp5316
S'two'
p5317
aS'hundred'
p5318
aS'and'
p5319
aS'fifty'
p5320
aS'families'
p5321
aS'in'
p5322
aS'the'
p5323
aS'whole'
p5324
aS'damn'
p5325
aS'area'
p5326
aaa(lp5327
S'JON'
p5328
a(lp5329
S'No'
p5330
aaa(lp5331
S'ALAN'
p5332
a(lp5333
S'Uh'
p5334
aaa(lp5335
S'JON'
p5336
a(lp5337
aa(lp5338
S'ALAN'
p5339
a(lp5340
S'You'
p5341
aS'know'
p5342
aS'and'
p5343
aS'you'
p5344
ag267
aS'think'
p5345
ag267
aaa(lp5346
S'JON'
p5347
a(lp5348
S'You'
p5349
aS'know'
p5350
aS'um'
p5351
aaa(lp5352
S'ALAN'
p5353
a(lp5354
S'and'
p5355
aS'you'
p5356
aS'think'
p5357
aS'about'
p5358
aS'the'
p5359
aS'Jews'
p5360
aaa(lp5361
g5353
a(lp5362
S'the'
p5363
aS'Irish'
p5364
aaa(lp5365
g5353
a(lp5366
S'and'
p5367
aS'the'
p5368
aS'Blacks'
p5369
aaa(lp5370
g5353
a(lp5371
S'and'
p5372
aS'its'
p5373
aS'the'
p5374
aS'same'
p5375
aS'all'
p5376
aS'over'
p5377
aS'the'
p5378
aS'fucking'
p5379
aS'world'
p5380
aaa(lp5381
S'JON'
p5382
a(lp5383
S'Mm'
p5384
aaa(lp5385
S'ALAN'
p5386
a(lp5387
S'And'
p5388
ag4
aS'just'
p5389
aS'read'
p5390
aS'an'
p5391
aS'article'
p5392
aS'in'
p5393
aS'New'
p5394
aS'York'
p5395
aS'Times'
p5396
aaa(lp5397
g5386
a(lp5398
S'Yesterday'
p5399
aaa(lp5400
g5386
a(lp5401
g4
aS'clipped'
p5402
aS'it'
p5403
aaa(lp5404
g5386
a(lp5405
S'For'
p5406
aS'my'
p5407
aS'wife'
p5408
aS'to'
p5409
aS'read'
p5410
aaa(lp5411
g5386
a(lp5412
S'Uh'
p5413
aaa(lp5414
g5386
a(lp5415
S'about'
p5416
aS'the'
p5417
aS'fact'
p5418
aS'that'
p5419
aaa(lp5420
g5386
a(lp5421
S'in'
p5422
aS'Israel'
p5423
aaa(lp5424
g5386
a(lp5425
S'where'
p5426
aS'they'
p5427
aS'have'
p5428
aS'brought'
p5429
aS'in'
p5430
aaa(lp5431
g5386
a(lp5432
S'thirtythousand'
p5433
aaa(lp5434
g5386
a(lp5435
S'where'
p5436
aS'do'
p5437
aS'the'
p5438
aS'dark'
p5439
aS'ones'
p5440
aS'come'
p5441
aS'from'
p5442
aaa(lp5443
S'JON'
p5444
a(lp5445
S'Ethiopia'
p5446
aaa(lp5447
S'ALAN'
p5448
a(lp5449
S'Ethiopia'
p5450
aaa(lp5451
g5448
a(lp5452
S'Uh'
p5453
aaa(lp5454
g5448
a(lp5455
S'and'
p5456
aS'fivehundredthousand'
p5457
aS'Russians'
p5458
aaa(lp5459
g5448
a(lp5460
S'Ha'
p5461
aS'very'
p5462
aS'proud'
p5463
aS'of'
p5464
aS'the'
p5465
aS'fact'
p5466
aS'that'
p5467
aS'theyve'
p5468
aS'been'
p5469
aS'able'
p5470
aS'to'
p5471
aS'do'
p5472
aS'this'
p5473
aaa(lp5474
g5448
a(lp5475
S'in'
p5476
ag6
aS'country'
p5477
aS'of'
p5478
aS'five'
p5479
aS'million'
p5480
aS'people'
p5481
aaa(lp5482
g5448
a(lp5483
S'Uh'
p5484
aaa(lp5485
g5448
a(lp5486
S'which'
p5487
aaa(lp5488
g5448
a(lp5489
S'would'
p5490
aS'devastate'
p5491
aS'most'
p5492
aS'countries'
p5493
aaa(lp5494
g5448
a(lp5495
g4
aS'mean'
p5496
aS'they'
p5497
aaa(lp5498
g5448
a(lp5499
S'uh'
p5500
aaa(lp5501
S'JON'
p5502
a(lp5503
S'Its'
p5504
aS'ten'
p5505
aS'percent'
p5506
aaa(lp5507
S'ALAN'
p5508
a(lp5509
S'the'
p5510
aaa(lp5511
g5508
a(lp5512
S'and'
p5513
aS'and'
p5514
aS'the'
p5515
aaa(lp5516
g5508
a(lp5517
S'the'
p5518
aS'Ethiopians'
p5519
aS'in'
p5520
aS'particular'
p5521
aaa(lp5522
g5508
a(lp5523
S'had'
p5524
ag6
aS'big'
p5525
aS'march'
p5526
aS'last'
p5527
aS'week'
p5528
aaa(lp5529
g5508
a(lp5530
S'Because'
p5531
aS'theyre'
p5532
aS'secondclass'
p5533
aS'citizens'
p5534
aaa(lp5535
g5508
a(lp5536
S'The'
p5537
aS'Jews'
p5538
aS'look'
p5539
aS'down'
p5540
aS'on'
p5541
aS'them'
p5542
aS'too'
p5543
aaa(lp5544
g5508
a(lp5545
S'You'
p5546
aS'know'
p5547
aS'they'
p5548
aS'got'
p5549
ag6
aaa(lp5550
g5508
a(lp5551
S'they'
p5552
aS'got'
p5553
ag6
aaa(lp5554
g5508
a(lp5555
S'they'
p5556
aS'got'
p5557
ag6
aaa(lp5558
g5508
a(lp5559
S'uh'
p5560
aaa(lp5561
g5508
a(lp5562
g6
aS'class'
p5563
aS'situation'
p5564
aaa(lp5565
g5508
a(lp5566
S'they'
p5567
aS'look'
p5568
aS'different'
p5569
aaa(lp5570
g5508
a(lp5571
S'they'
p5572
aaa(lp5573
g5508
a(lp5574
S'And'
p5575
aaa(lp5576
g5508
a(lp5577
S'Course'
p5578
aS'they'
p5579
aS'havent'
p5580
aS'accepted'
p5581
aS'the'
p5582
aS'Russians'
p5583
aS'too'
p5584
aS'well'
p5585
aS'either'
p5586
aaa(lp5587
g5508
a(lp5588
S'Uuh'
p5589
aaa(lp5590
g5508
a(lp5591
S'although'
p5592
aS'the'
p5593
aaa(lp5594
g5508
a(lp5595
S'the'
p5596
aS'the'
p5597
aS'Russians'
p5598
aaa(lp5599
g5508
a(lp5600
g6
aS'high'
p5601
aS'percentage'
p5602
aS'of'
p5603
aS'Russians'
p5604
aS'are'
p5605
aaa(lp5606
g5508
a(lp5607
S'according'
p5608
aS'to'
p5609
aS'this'
p5610
aS'article'
p5611
aaa(lp5612
g5508
a(lp5613
S'uh'
p5614
aS'are'
p5615
aS'scientists'
p5616
aaa(lp5617
g5508
a(lp5618
S'doctors'
p5619
aaa(lp5620
g5508
a(lp5621
S'engineers'
p5622
aaa(lp5623
g5508
a(lp5624
S'mathematicians'
p5625
aaa(lp5626
g5508
a(lp5627
S'and'
p5628
aS'they'
p5629
aaa(lp5630
S'JON'
p5631
a(lp5632
S'Ed'
p5633
aS'educated'
p5634
aS'the'
p5635
aS'difficult'
p5636
aS'way'
p5637
aaa(lp5638
S'ALAN'
p5639
a(lp5640
S'On'
p5641
aS'areas'
p5642
aS'score'
p5643
aaa(lp5644
g5639
a(lp5645
S'score'
p5646
aS'higher'
p5647
aS'on'
p5648
aS'the'
p5649
aS'test'
p5650
aS'than'
p5651
aS'the'
p5652
aaa(lp5653
g5639
a(lp5654
S'than'
p5655
aS'the'
p5656
aS'th'
p5657
aS'the'
p5658
aS'nativeborns'
p5659
aaa(lp5660
g5639
a(lp5661
S'but'
p5662
aS'theres'
p5663
ag6
aS'big'
p5664
aaa(lp5665
g5639
a(lp5666
S'you'
p5667
aS'know'
p5668
aS'theres'
p5669
ag6
aaa(lp5670
g5639
a(lp5671
S'the'
p5672
aS'the'
p5673
aS'theres'
p5674
ag6
aaa(lp5675
g5639
a(lp5676
S'theres'
p5677
ag6
aS'theres'
p5678
ag6
aS'class'
p5679
aS'differential'
p5680
aaa(lp5681
g5639
a(lp5682
S'Which'
p5683
aS'was'
p5684
aS'interesting'
p5685
aaa(lp5686
g5639
a(lp5687
g4
ag4
aS'really'
p5688
aaa(lp5689
g5639
a(lp5690
S'hadnt'
p5691
aS'thought'
p5692
aS'about'
p5693
aS'it'
p5694
aS'in'
p5695
aS'many'
p5696
aS'years'
p5697
aaa(lp5698
g5639
a(lp5699
S'how'
p5700
aS'those'
p5701
aS'Blacks'
p5702
aaa(lp5703
g5639
a(lp5704
S'uh'
p5705
aS'had'
p5706
aS'integrated'
p5707
aS'into'
p5708
aS'the'
p5709
aS'ci'
p5710
aS'society'
p5711
aaa(lp5712
g5639
a(lp5713
g4
aS'am'
p5714
aS'told'
p5715
aaa(lp5716
g5639
a(lp5717
g4
aS'havent'
p5718
aS'seen'
p5719
aS'any'
p5720
aS'of'
p5721
aS'em'
p5722
aaa(lp5723
g5639
a(lp5724
S'but'
p5725
aS'the'
p5726
aS'Blacks'
p5727
aaa(lp5728
g5639
a(lp5729
S'th'
p5730
aS'theyre'
p5731
aS'not'
p5732
aS'like'
p5733
aS'our'
p5734
aS'Blacks'
p5735
aaa(lp5736
g5639
a(lp5737
S'theyre'
p5738
aaa(lp5739
S'JON'
p5740
a(lp5741
S'No'
p5742
aS'no'
p5743
aaa(lp5744
S'ALAN'
p5745
a(lp5746
S'Small'
p5747
aaa(lp5748
g5745
a(lp5749
S'you'
p5750
aS'know'
p5751
aS'smaller'
p5752
aS'features'
p5753
aaa(lp5754
g5745
a(lp5755
S'but'
p5756
aS'uh'
p5757
aaa(lp5758
g5745
a(lp5759
S'they'
p5760
aS'are'
p5761
aS'dark'
p5762
aS'skinned'
p5763
aaa(lp5764
g5745
a(lp5765
S'and'
p5766
aS'uh'
p5767
aaa(lp5768
g5745
a(lp5769
S'they'
p5770
aS'look'
p5771
aS'different'
p5772
ag267
aaa(lp5773
g5745
a(lp5774
S'And'
p5775
aS'uh'
p5776
aaa(lp5777
g5745
a(lp5778
g4
aS'dont'
p5779
aS'know'
p5780
aS'whether'
p5781
aS'there'
p5782
aS'are'
p5783
aS'any'
p5784
aS'other'
p5785
aS'Black'
p5786
aS'Jews'
p5787
aS'over'
p5788
aS'there'
p5789
aaa(lp5790
g5745
a(lp5791
S'but'
p5792
aS'uh'
p5793
aaa(lp5794
g5745
a(lp5795
S'XXX'
p5796
aaa(lp5797
g5745
a(lp5798
S'XXX'
p5799
aaa(lp5800
S'JON'
p5801
a(lp5802
g736
aS'lot'
p5803
aS'from'
p5804
aS'South'
p5805
aS'Africa'
p5806
aaa(lp5807
g5801
a(lp5808
S'but'
p5809
aS'theyre'
p5810
aS'welleducated'
p5811
aS'people'
p5812
aS'down'
p5813
aS'there'
p5814
aaa(lp5815
g5801
a(lp5816
g736
aS'lot'
p5817
aS'of'
p5818
aS'em'
p5819
aaa(lp5820
S'ALAN'
p5821
a(lp5822
g736
aS'lot'
p5823
aS'of'
p5824
aS'Jews'
p5825
aS'from'
p5826
aS'South'
p5827
aS'Afri'
p5828
aaa(lp5829
S'JON'
p5830
a(lp5831
S'Oh'
p5832
aS'yeah'
p5833
aaa(lp5834
S'ALAN'
p5835
a(lp5836
S'Im'
p5837
ag1445
aaa(lp5838
g5835
a(lp5839
g4
aS'know'
p5840
aS'that'
p5841
aS'this'
p5842
aS'fellow'
p5843
aS'Goldstone'
p5844
aaa(lp5845
g5835
a(lp5846
S'who'
p5847
aS'was'
p5848
ag6
aS'head'
p5849
aS'of'
p5850
aS'this'
p5851
aS'uh'
p5852
aS'international'
p5853
aS'war'
p5854
aS'tri'
p5855
aS'crimes'
p5856
aS'tribunal'
p5857
aaa(lp5858
g5835
a(lp5859
S'is'
p5860
ag6
aS'Jewish'
p5861
aS'fellow'
p5862
aaa(lp5863
g5835
a(lp5864
S'because'
p5865
aS'there'
p5866
aS'was'
p5867
ag6
aS'picture'
p5868
aS'of'
p5869
aS'him'
p5870
aS'in'
p5871
aS'the'
p5872
aS'paper'
p5873
aS'with'
p5874
ag6
aS'yammaka'
p5875
aS'on'
p5876
aaa(lp5877
S'JON'
p5878
a(lp5879
S'Mm'
p5880
aaa(lp5881
S'ALAN'
p5882
a(lp5883
S'You'
p5884
aS'had'
p5885
aS'to'
p5886
aS'look'
p5887
aS'close'
p5888
aS'XX'
p5889
aaa(lp5890
S'JON'
p5891
a(lp5892
S'Pretty'
p5893
aS'good'
p5894
aS'indication'
p5895
aaa(lp5896
S'ALAN'
p5897
a(lp5898
S'Pretty'
p5899
aS'good'
p5900
aS'indication'
p5901
aaa(lp5902
S'JON'
p5903
a(lp5904
S'Well'
p5905
aS'you'
p5906
aS'know'
p5907
aaa(lp5908
S'ALAN'
p5909
a(lp5910
S'But'
p5911
aS'uh'
p5912
aaa(lp5913
S'JON'
p5914
a(lp5915
S'these'
p5916
aaa(lp5917
g5914
a(lp5918
S'These'
p5919
aaa(lp5920
g5914
a(lp5921
S'What'
p5922
aS'astounds'
p5923
aS'me'
p5924
aS'is'
p5925
aaa(lp5926
g5914
a(lp5927
S'and'
p5928
aS'this'
p5929
aS'goes'
p5930
aS'back'
p5931
aS'into'
p5932
aS'nineteen'
p5933
aaa(lp5934
g5914
a(lp5935
S'lets'
p5936
aS'see'
p5937
ag267
aS'Duna'
p5938
ag267
aaa(lp5939
g5914
a(lp5940
g267
aS'died'
p5941
aS'in'
p5942
ag267
aS'seventyseven'
p5943
aS'or'
p5944
aS'something'
p5945
aaa(lp5946
g5914
a(lp5947
S'so'
p5948
aS'this'
p5949
aaa(lp5950
g5914
a(lp5951
S'this'
p5952
aS'goes'
p5953
aS'back'
p5954
aaa(lp5955
g5914
a(lp5956
S'oh'
p5957
aS'further'
p5958
aS'than'
p5959
aS'that'
p5960
aaa(lp5961
g5914
a(lp5962
S'maybe'
p5963
aS'nineteenseventy'
p5964
aaa(lp5965
g5914
a(lp5966
S'in'
p5967
aaa(lp5968
g5914
a(lp5969
S'in'
p5970
aS'Houston'
p5971
aaa.