(lp0
(lp1
S'PATTY'
p2
a(lp3
S'I'
p4
aS'Just'
p5
aS'wanted'
p6
aS'to'
p7
aS'go'
p8
aS'over'
p9
aS'the'
p10
aS'changes'
p11
aS'in'
p12
aS'the'
p13
aS'schedule'
p14
aaa(lp15
g2
a(lp16
S'Um'
p17
aS'originally'
p18
aaa(lp19
g2
a(lp20
S'we'
p21
aS'were'
p22
aS'going'
p23
aS'to'
p24
aS'require'
p25
aS'the'
p26
aS'um'
p27
aaa(lp28
g2
a(lp29
S'request'
p30
aS'for'
p31
aS'statement'
p32
aS'of'
p33
aS'interest'
p34
aS'and'
p35
aS'qualifications'
p36
aS'to'
p37
aS'come'
p38
aS'back'
p39
aS'to'
p40
aaa(lp41
g2
a(lp42
S'uh'
p43
aaa(lp44
g2
a(lp45
S'twenty'
p46
aS'North'
p47
aS'Clark'
p48
aS'Street'
p49
aaa(lp50
g2
a(lp51
S'on'
p52
aS'April'
p53
aS'seventh'
p54
aaa(lp55
g2
a(lp56
S'Um'
p57
aaa(lp58
g2
a(lp59
S'but'
p60
aS'the'
p61
aaa(lp62
g2
a(lp63
S'um'
p64
aaa(lp65
g2
a(lp66
S'coordinating'
p67
aS'council'
p68
aS'felt'
p69
aS'that'
p70
aS'it'
p71
aS'was'
p72
aS'wise'
p73
aS'to'
p74
aS'give'
p75
aS'the'
p76
aS'community'
p77
aaa(lp78
g2
a(lp79
S'more'
p80
aS'time'
p81
aaa(lp82
g2
a(lp83
S'a'
p84
aS'weekend'
p85
aaa(lp86
g2
a(lp87
S'two'
p88
aS'days'
p89
aaa(lp90
g2
a(lp91
S'to'
p92
aS'uh'
p93
aS'augment'
p94
aS'whatever'
p95
aS'application'
p96
aS'people'
p97
aS'were'
p98
aS'gonna'
p99
aS'submit'
p100
aaa(lp101
S'AUD'
p102
a(lp103
aa(lp104
S'PATTY'
p105
a(lp106
S'so'
p107
aS'the'
p108
aS'due'
p109
aS'date'
p110
aS'is'
p111
aS'changed'
p112
aS'from'
p113
aS'April'
p114
aS'seventh'
p115
aaa(lp116
g105
a(lp117
S'to'
p118
aS'April'
p119
aS'eleventh'
p120
aaa(lp121
g105
a(lp122
S'at'
p123
aS'noon'
p124
aaa(lp125
g105
a(lp126
S'And'
p127
aS'you'
p128
aS'can'
p129
aS'drop'
p130
aS'off'
p131
aS'those'
p132
aS'proposals'
p133
aS'at'
p134
aS'twenty'
p135
aS'North'
p136
aS'Clark'
p137
aS'Street'
p138
aaa(lp139
g105
a(lp140
S'Um'
p141
aaa(lp142
g105
a(lp143
S'the'
p144
aS'same'
p145
aS'process'
p146
aS'will'
p147
aS'continue'
p148
aaa(lp149
g105
a(lp150
S'but'
p151
aS'for'
p152
aS'the'
p153
aS'changes'
p154
aS'in'
p155
aS'the'
p156
aS'time'
p157
aaa(lp158
g105
a(lp159
S'at'
p160
aS'the'
p161
aS'time'
p162
aS'that'
p163
aS'you'
p164
aS'drop'
p165
aS'off'
p166
aS'your'
p167
aS'proposal'
p168
aaa(lp169
g105
a(lp170
S'you'
p171
aS'will'
p172
aS'be'
p173
aS'scheduled'
p174
aS'for'
p175
ag84
aS'uh'
p176
aS'public'
p177
aS'meeting'
p178
aaa(lp179
g105
a(lp180
S'where'
p181
aS'you'
p182
aS'will'
p183
aS'be'
p184
aS'given'
p185
ag84
aS'chance'
p186
aS'and'
p187
aS'an'
p188
aS'opportunity'
p189
aS'to'
p190
aS'present'
p191
aS'your'
p192
aS'uh'
p193
aS'proposal'
p194
aaa(lp195
g105
a(lp196
S'Um'
p197
aS'right'
p198
aS'now'
p199
aS'were'
p200
aS'looking'
p201
aS'at'
p202
aS'April'
p203
aS'fifteenth'
p204
aaa(lp205
g105
a(lp206
S'which'
p207
aS'is'
p208
ag84
aS'Friday'
p209
aaa(lp210
g105
a(lp211
S'and'
p212
aS's'
p213
aaa(lp214
g105
a(lp215
S'and'
p216
aS'April'
p217
aS'sixteenth'
p218
aaa(lp219
g105
a(lp220
S'as'
p221
aS'the'
p222
aS'uh'
p223
aS'date'
p224
aS'for'
p225
aS'that'
p226
aS'public'
p227
aS'presentation'
p228
aaa(lp229
g105
a(lp230
S'and'
p231
aS'we'
p232
aS'dont'
p233
aS'know'
p234
aaa(lp235
g105
a(lp236
S'where'
p237
aS'that'
p238
aS'will'
p239
aS'be'
p240
aS'held'
p241
aaa(lp242
g105
a(lp243
S'or'
p244
aS'what'
p245
aS'time'
p246
aS'that'
p247
aS'will'
p248
aS'be'
p249
aS'held'
p250
aaa(lp251
g105
a(lp252
S'but'
p253
aS'well'
p254
aS'make'
p255
aS'sure'
p256
aS'that'
p257
aS'everyone'
p258
aS'gets'
p259
aS'noticed'
p260
aS'about'
p261
aS'that'
p262
aaa(lp263
g105
a(lp264
S'During'
p265
aS'April'
p266
aS'seventeen'
p267
aS'to'
p268
aS'the'
p269
aS'twentythird'
p270
aaa(lp271
g105
a(lp272
S'the'
p273
aS'coordinating'
p274
aS'council'
p275
aS'will'
p276
aS'identify'
p277
aS'the'
p278
aS'empowerments'
p279
aS'on'
p280
aS'location'
p281
aaa(lp282
g105
a(lp283
S'and'
p284
aS'uh'
p285
aaa(lp286
g105
a(lp287
S'during'
p288
aS'the'
p289
aS'week'
p290
aS'of'
p291
aS'uh'
p292
aS'April'
p293
aS'twentyfifth'
p294
aaa(lp295
S'AUD'
p296
a(lp297
aa(lp298
S'PATTY'
p299
a(lp300
S'there'
p301
aS'will'
p302
aS'be'
p303
ag84
aS'citywide'
p304
aS'meeting'
p305
aS'to'
p306
aS'present'
p307
aS'the'
p308
aS'selected'
p309
aS'empowerment'
p310
aS'zone'
p311
aaa(lp312
g299
a(lp313
S'uh'
p314
aS'to'
p315
aS'go'
p316
aS'over'
p317
aS'how'
p318
aS'that'
p319
aS'zone'
p320
aS'was'
p321
aS'selected'
p322
aaa(lp323
g299
a(lp324
S'and'
p325
aS'uh'
p326
aaa(lp327
g299
a(lp328
S'the'
p329
aS'place'
p330
aS'date'
p331
aS'and'
p332
aS'time'
p333
aS'for'
p334
aS'that'
p335
aS'meeting'
p336
aS'will'
p337
aS'also'
p338
aS'be'
p339
aS'announced'
p340
aaa(lp341
g299
a(lp342
S'Um'
p343
aaa(lp344
g299
a(lp345
S'from'
p346
aS'May'
p347
aS'second'
p348
aS'to'
p349
aS'June'
p350
aS'third'
p351
aaa(lp352
g299
a(lp353
S'the'
p354
aS'strategic'
p355
aS'plan'
p356
aaa(lp357
g299
a(lp358
S'for'
p359
aS'the'
p360
aS'empowerment'
p361
aS'zone'
p362
aaa(lp363
S'AUD'
p364
a(lp365
aa(lp366
S'PATTY'
p367
a(lp368
S'will'
p369
aS'be'
p370
aS'developed'
p371
aaa(lp372
g367
a(lp373
S'with'
p374
aS'the'
p375
aS'community'
p376
aaa(lp377
g367
a(lp378
S'and'
p379
aS'during'
p380
aS'the'
p381
aS'week'
p382
aS'of'
p383
aS'June'
p384
aS'sixth'
p385
aaa(lp386
g367
a(lp387
S'um'
p388
aaa(lp389
g367
a(lp390
g84
aS'public'
p391
aS'presentation'
p392
aS'of'
p393
aaa(lp394
g367
a(lp395
S'on'
p396
aS'the'
p397
aS'uh'
p398
aS'empowerment'
p399
aS'zone'
p400
aS'application'
p401
aaa(lp402
g367
a(lp403
S'and'
p404
aS'the'
p405
aS'strategic'
p406
aS'plan'
p407
aS'will'
p408
aS'presented'
p409
aS'be'
p410
aS'presented'
p411
aS'again'
p412
aaa(lp413
g367
a(lp414
S'the'
p415
aS'place'
p416
aS'date'
p417
aS'and'
p418
aS'time'
p419
aS'will'
p420
aS'be'
p421
aS'announced'
p422
aaa(lp423
g367
a(lp424
S'um'
p425
aaa(lp426
g367
a(lp427
S'and'
p428
aS'on'
p429
aS'June'
p430
aS'thirtieth'
p431
aaa(lp432
g367
a(lp433
S'thats'
p434
aS'the'
p435
aS'drop'
p436
aS'dead'
p437
aS'date'
p438
aaa(lp439
g367
a(lp440
S'um'
p441
aaa(lp442
g367
a(lp443
S'when'
p444
aS'we'
p445
aS'will'
p446
aS'send'
p447
aS'the'
p448
aS'application'
p449
aaa(lp450
g367
a(lp451
S'for'
p452
aS'selection'
p453
aS'by'
p454
aS'HUD'
p455
aS'as'
p456
aS'an'
p457
aS'empowerment'
p458
aS'zone'
p459
aS'for'
p460
aS'Chicago'
p461
aaa(lp462
g367
a(lp463
S'Um'
p464
aaa(lp465
g367
a(lp466
S'is'
p467
aS'if'
p468
aS'there'
p469
aS'are'
p470
aS'no'
p471
aS'other'
p472
aS'questions'
p473
aaa(lp474
g367
a(lp475
S'um'
p476
aaa(lp477
g367
a(lp478
S'we'
p479
aS'can'
p480
aaa(lp481
g367
a(lp482
S'yes'
p483
aS'sir'
p484
aaa(lp485
S'GRANT'
p486
a(lp487
S'X'
p488
ag4
aS'have'
p489
ag488
ag84
aS'question'
p490
aaa(lp491
S'PATTY'
p492
a(lp493
S'Yeah'
p494
aaa(lp495
S'GRANT'
p496
a(lp497
S'Worst'
p498
aS'case'
p499
aS'scenario'
p500
aaa(lp501
g496
a(lp502
S'After'
p503
aS'we'
p504
aS'submit'
p505
aS'em'
p506
aaa(lp507
g496
a(lp508
S'the'
p509
aS'uh'
p510
aS'the'
p511
aS'proposal'
p512
aS'application'
p513
aaa(lp514
g496
a(lp515
S'uh'
p516
aaa(lp517
g496
a(lp518
S'human'
p519
aS'beings'
p520
aS'being'
p521
aS'what'
p522
aS'they'
p523
aS'are'
p524
aaa(lp525
g496
a(lp526
S'organizations'
p527
aS'being'
p528
aS'what'
p529
aS'they'
p530
aS'are'
p531
aaa(lp532
g496
a(lp533
S'what'
p534
aS'will'
p535
aS'the'
p536
aS'coordinating'
p537
aS'council'
p538
aaa(lp539
g496
a(lp540
S'what'
p541
aS'does'
p542
aS'the'
p543
aS'city'
p544
aS'propose'
p545
aS'to'
p546
aS'do'
p547
aaa(lp548
g496
a(lp549
S'when'
p550
aS'theres'
p551
ag84
aS'hue'
p552
aS'and'
p553
aS'cry'
p554
aaa(lp555
g496
a(lp556
S'from'
p557
aS'those'
p558
aS'who'
p559
aS'attempting'
p560
aS'to'
p561
aS'empower'
p562
aS'themselves'
p563
aaa(lp564
g496
a(lp565
S'and'
p566
aS'combined'
p567
aS'with'
p568
aS'coupled'
p569
aS'with'
p570
aS'those'
p571
aS'who'
p572
aS'are'
p573
aS'seeking'
p574
aS'more'
p575
aS'power'
p576
aaa(lp577
g496
a(lp578
S'Who'
p579
aS'say'
p580
aS'unfair'
p581
aaa(lp582
g496
a(lp583
S'this'
p584
aS'wasnt'
p585
aS'done'
p586
aS'right'
p587
aaa(lp588
g496
a(lp589
S'according'
p590
aS'to'
p591
aS'our'
p592
aS'perspective'
p593
aaa(lp594
g496
a(lp595
S'or'
p596
aS'this'
p597
aS'that'
p598
aS'and'
p599
aS'the'
p600
aS'other'
p601
aaa(lp602
S'PATTY'
p603
a(lp604
S'that'
p605
aS'would'
p606
aS'be'
p607
aS'the'
p608
aS'worst'
p609
aS'case'
p610
aS'scenario'
p611
aaa(lp612
S'GRANT'
p613
a(lp614
g488
aaa(lp615
g613
a(lp616
S'worst'
p617
aS'case'
p618
aS'scenario'
p619
aaa(lp620
S'AUD'
p621
a(lp622
aa(lp623
S'GRANT'
p624
a(lp625
S'What'
p626
aS'can'
p627
aS'the'
p628
aS'city'
p629
aaa(lp630
g624
a(lp631
S'what'
p632
aaa(lp633
g624
a(lp634
S'what'
p635
aS'can'
p636
aS'the'
p637
aS'coordinating'
p638
aS'council'
p639
aaa(lp640
g624
a(lp641
S'or'
p642
aS'whats'
p643
aS'gonna'
p644
aS'be'
p645
aS'p'
p646
aaa(lp647
g624
a(lp648
S'be'
p649
aS'in'
p650
aS'place'
p651
aaa(lp652
g624
a(lp653
S'to'
p654
aS'listen'
p655
aS'to'
p656
aS'all'
p657
aS'the'
p658
aS'criticisms'
p659
aaa(lp660
S'AUD'
p661
a(lp662
aa(lp663
S'GRANT'
p664
a(lp665
S'all'
p666
aS'of'
p667
aS'the'
p668
aS'disappointments'
p669
aS'at'
p670
aaa(lp671
g664
a(lp672
S'not'
p673
aS'being'
p674
aS'selected'
p675
aaa(lp676
g664
a(lp677
S'so'
p678
aS'that'
p679
aaa(lp680
g664
a(lp681
S'lets'
p682
aS'say'
p683
aS'optimistically'
p684
aaa(lp685
g664
a(lp686
S'there'
p687
aS'are'
p688
aS'some'
p689
aS'good'
p690
aS'ideas'
p691
aaa(lp692
g664
a(lp693
S'some'
p694
aS'oversight'
p695
aaa(lp696
g664
a(lp697
S'or'
p698
aS'something'
p699
aS'that'
p700
aS'can'
p701
aS'be'
p702
aS'corrected'
p703
aaa(lp704
g664
a(lp705
S'hopefully'
p706
aS'thats'
p707
aS'of'
p708
aS'minor'
p709
aS'proportion'
p710
aaa(lp711
g664
a(lp712
S'So'
p713
aS'that'
p714
aaa(lp715
g664
a(lp716
S'we'
p717
aS'can'
p718
aS'still'
p719
aS'keep'
p720
aS'the'
p721
aS'city'
p722
aaa(lp723
g664
a(lp724
S'running'
p725
aS'smoothly'
p726
aaa(lp727
g664
a(lp728
S'and'
p729
aS'becoming'
p730
aS'more'
p731
aS'and'
p732
aS'more'
p733
aS'beautiful'
p734
aaa(lp735
S'PATTY'
p736
a(lp737
g4
aS'dont'
p738
aS'know'
p739
aS'if'
p740
aS'that'
p741
aS'issue'
p742
aS'has'
p743
aS'been'
p744
aS'discussed'
p745
aS'by'
p746
aS'the'
p747
aS'um'
p748
aS'coordinating'
p749
aS'council'
p750
aaa(lp751
g736
a(lp752
g4
aS'think'
p753
aS'its'
p754
ag84
aS'legitimate'
p755
aS'issue'
p756
aaa(lp757
g736
a(lp758
S'um'
p759
aaa(lp760
g736
a(lp761
g4
aS'w'
p762
aS'y'
p763
aS'would'
p764
aS'be'
p765
aS'willing'
p766
aS'to'
p767
aS'take'
p768
aS'that'
p769
aS'back'
p770
aaa(lp771
g736
a(lp772
S'to'
p773
aS'have'
p774
aS'them'
p775
aS'discuss'
p776
aS'that'
p777
aaa(lp778
g736
a(lp779
S'but'
p780
aaa(lp781
g736
a(lp782
g4
aS'mean'
p783
aS'the'
p784
aS'worst'
p785
aS'thing'
p786
aS'would'
p787
aS'be'
p788
aS'for'
p789
aaa(lp790
g736
a(lp791
S'HUD'
p792
aS'not'
p793
aS'to'
p794
aS'recognize'
p795
aS'that'
p796
aS'this'
p797
aS'is'
p798
ag84
aS'c'
p799
aS'collaborative'
p800
aS'effort'
p801
aaa(lp802
g736
a(lp803
g84
aS'partnership'
p804
aaa(lp805
g736
a(lp806
S'between'
p807
aS'the'
p808
aS'community'
p809
aaa(lp810
g736
a(lp811
S'the'
p812
aS'city'
p813
aaa(lp814
g736
a(lp815
S'the'
p816
aS'business'
p817
aS'community'
p818
aS'and'
p819
aS'the'
p820
aS'neighborhoods'
p821
aaa(lp822
g736
a(lp823
S'and'
p824
aaa(lp825
g736
a(lp826
g4
aS'mean'
p827
aS'it'
p828
aS'wouldnt'
p829
aS'bode'
p830
aS'well'
p831
aaa(lp832
g736
a(lp833
S'for'
p834
aS'Chicago'
p835
aS'to'
p836
aS'get'
p837
aS'an'
p838
aS'empowerment'
p839
aS'zone'
p840
aS'if'
p841
aaa(lp842
g736
a(lp843
S'if'
p844
aS'everyone'
p845
aS'were'
p846
aS'not'
p847
aS'supportive'
p848
aS'and'
p849
aS'on'
p850
aS'board'
p851
aaa(lp852
g736
a(lp853
S'So'
p854
aaa(lp855
g736
a(lp856
g4
aS'mean'
p857
aS'that'
p858
aS'answers'
p859
aS'your'
p860
aS'question'
p861
aaa(lp862
g736
a(lp863
g4
aS'dont'
p864
aS'know'
p865
aS'what'
p866
aS'the'
p867
aS'coordinating'
p868
aS'councils'
p869
aS'role'
p870
aaa(lp871
g736
a(lp872
S'in'
p873
aS'that'
p874
aS'case'
p875
aS'would'
p876
aS'be'
p877
aaa(lp878
g736
a(lp879
S'But'
p880
aS'well'
p881
aS'definitely'
p882
aS'take'
p883
aS'that'
p884
aS'message'
p885
aS'back'
p886
aaa(lp887
g736
a(lp888
g488
aS'on'
p889
aS'that'
p890
aS'question'
p891
ag4
ag488
aaa(lp892
S'GRANT'
p893
a(lp894
S'May'
p895
ag4
aS'propose'
p896
aS'that'
p897
aS'the'
p898
aS'coordinating'
p899
aS'council'
p900
aS'consider'
p901
aaa(lp902
g893
a(lp903
S'my'
p904
aS'individual'
p905
aS'worst'
p906
aS'case'
p907
aS'scenario'
p908
aaa(lp909
g893
a(lp910
S'and'
p911
aS'any'
p912
aS'other'
p913
aS'worst'
p914
aS'case'
p915
aS'scenarios'
p916
aaa(lp917
g893
a(lp918
S'that'
p919
aS'they'
p920
aS'collectively'
p921
ag488
aS'might'
p922
aS'come'
p923
aS'up'
p924
aS'with'
p925
ag488
aaa(lp926
g893
a(lp927
S'Notwithstanding'
p928
aS'Paul'
p929
aS'XXs'
p930
aS'suggestion'
p931
aaa(lp932
g893
a(lp933
S'that'
p934
aS'the'
p935
aS'empowerment'
p936
aS'zone'
p937
aS'moneys'
p938
aaa(lp939
g893
a(lp940
g84
aS'hundred'
p941
aS'million'
p942
aaa(lp943
g893
a(lp944
S'CTA'
p945
aS'green'
p946
aS'line'
p947
aaa(lp948
g893
a(lp949
S'threehundred'
p950
aS'million'
p951
aaa(lp952
g893
a(lp953
S'be'
p954
aS'utilized'
p955
aaa(lp956
g893
a(lp957
S'effectively'
p958
aS'and'
p959
aS'efficiently'
p960
aaa(lp961
g893
a(lp962
S'to'
p963
aS'get'
p964
ag84
aS'bigger'
p965
aS'bang'
p966
aS'for'
p967
aS'the'
p968
aS'buck'
p969
aaa(lp970
S'PATTY'
p971
a(lp972
S'kay'
p973
aS'XX'
p974
aaa(lp975
S'ROSE'
p976
a(lp977
g4
aS'just'
p978
aS'wanted'
p979
aS'to'
p980
aS'say'
p981
aS'that'
p982
aaa(lp983
g976
a(lp984
S'theres'
p985
aS'also'
p986
aS'some'
p987
aS'other'
p988
aS'opportunities'
p989
aS'for'
p990
aaa(lp991
g976
a(lp992
S'um'
p993
aaa(lp994
g976
a(lp995
S'organizations'
p996
aS'that'
p997
aS'are'
p998
aS'new'
p999
aaa(lp1000
g976
a(lp1001
S'in'
p1002
aS'the'
p1003
aS'networking'
p1004
aS'process'
p1005
aaa(lp1006
g976
a(lp1007
S'and'
p1008
ag4
aS'think'
p1009
aS'that'
p1010
aS'the'
p1011
aS'more'
p1012
aS'meetings'
p1013
aS'you'
p1014
aS'can'
p1015
aS'attend'
p1016
aaa(lp1017
g976
a(lp1018
S'and'
p1019
aS'the'
p1020
aS'more'
p1021
aS'organizations'
p1022
aaa(lp1023
g976
a(lp1024
S'that'
p1025
aS'hear'
p1026
aS'your'
p1027
aS'voice'
p1028
aaa(lp1029
S'AUD'
p1030
a(lp1031
aa(lp1032
S'ROSE'
p1033
a(lp1034
S'the'
p1035
aS'better'
p1036
aaa(lp1037
g1033
a(lp1038
S'Theres'
p1039
aS'uh'
p1040
aaa(lp1041
g1033
a(lp1042
g84
aS'networking'
p1043
aS'meeting'
p1044
aS'going'
p1045
aS'on'
p1046
aaa(lp1047
g1033
a(lp1048
S'on'
p1049
aS'Friday'
p1050
aaa(lp1051
g1033
a(lp1052
S'at'
p1053
aS'nine'
p1054
aS'thirty'
p1055
aS'in'
p1056
aS'the'
p1057
aS'morning'
p1058
aaa(lp1059
g1033
a(lp1060
S'at'
p1061
aS'the'
p1062
ag488
aS'Mega'
p1063
ag488
aS'Center'
p1064
aaa(lp1065
g1033
a(lp1066
S'And'
p1067
aS'its'
p1068
aS'free'
p1069
aaa(lp1070
g1033
a(lp1071
S'Its'
p1072
aS'its'
p1073
ag84
aaa(lp1074
g1033
a(lp1075
S'its'
p1076
ag84
aS'group'
p1077
aS'of'
p1078
aS'assist'
p1079
aS'and'
p1080
aS'nonassist'
p1081
aS'agencies'
p1082
aaa(lp1083
g1033
a(lp1084
S'um'
p1085
aaa(lp1086
g1033
a(lp1087
S'organizations'
p1088
aS'like'
p1089
aS'CRCC'
p1090
aaa(lp1091
g1033
a(lp1092
S'the'
p1093
ag488
aS'Mega'
p1094
ag488
aS'Center'
p1095
aaa(lp1096
g1033
a(lp1097
S'the'
p1098
aS'COBCU'
p1099
aaa(lp1100
g1033
a(lp1101
S'Womens'
p1102
aS'Business'
p1103
aS'Development'
p1104
aS'Center'
p1105
aaa(lp1106
g1033
a(lp1107
S'Small'
p1108
aS'Business'
p1109
aS'Development'
p1110
aS'Center'
p1111
aaa(lp1112
g1033
a(lp1113
g4
aS'couldnt'
p1114
aS'even'
p1115
aS'begin'
p1116
aS'to'
p1117
aS'mention'
p1118
aS'the'
p1119
aS'list'
p1120
aaa(lp1121
g1033
a(lp1122
S'because'
p1123
aS'theres'
p1124
aS'about'
p1125
aS'twentyfive'
p1126
aS'different'
p1127
aS'assist'
p1128
aS'and'
p1129
aS'nonassist'
p1130
aS'agencies'
p1131
aS'on'
p1132
aS'there'
p1133
aaa(lp1134
g1033
a(lp1135
S'But'
p1136
ag4
aS'think'
p1137
aS'that'
p1138
aaa(lp1139
g1033
a(lp1140
S'anybody'
p1141
aS'who'
p1142
aS'belongs'
p1143
aS'to'
p1144
aS'an'
p1145
aS'organization'
p1146
aaa(lp1147
g1033
a(lp1148
S'um'
p1149
aaa(lp1150
g1033
a(lp1151
S'that'
p1152
aS'has'
p1153
aS'any'
p1154
aS'type'
p1155
aS'of'
p1156
aS'connection'
p1157
aS'with'
p1158
aS'the'
p1159
aS'city'
p1160
aaa(lp1161
g1033
a(lp1162
S'it'
p1163
aS'would'
p1164
aS'be'
p1165
aS'good'
p1166
aS'to'
p1167
aaa(lp1168
S'GRANT'
p1169
a(lp1170
S'Twentysixth'
p1171
aS'where'
p1172
aaa(lp1173
S'ROSE'
p1174
a(lp1175
S'This'
p1176
aS'one'
p1177
aS'is'
p1178
aS'Friday'
p1179
aaa(lp1180
g1174
a(lp1181
S'at'
p1182
aS'nine'
p1183
aS'thirty'
p1184
aS'at'
p1185
aS'the'
p1186
ag488
aS'Mega'
p1187
ag488
aS'Center'
p1188
aaa(lp1189
S'GRANT'
p1190
a(lp1191
S'The'
p1192
ag488
aS'bank'
p1193
ag488
aaa(lp1194
g1190
a(lp1195
S'right'
p1196
aaa(lp1197
g1190
a(lp1198
S'Thats'
p1199
aS'the'
p1200
ag488
aS'bank'
p1201
ag488
aaa(lp1202
g1190
a(lp1203
g488
ag488
aaa(lp1204
S'ROSE'
p1205
a(lp1206
S'Its'
p1207
aS'one'
p1208
aS'o'
p1209
aS'five'
p1210
aS'West'
p1211
aS'Adams'
p1212
aaa(lp1213
g1205
a(lp1214
S'on'
p1215
aS'the'
p1216
aS'seventh'
p1217
aS'floor'
p1218
aaa(lp1219
S'GRANT'
p1220
a(lp1221
S'At'
p1222
aS'what'
p1223
aS'time'
p1224
aaa(lp1225
S'ROSE'
p1226
a(lp1227
S'Nine'
p1228
aaa(lp1229
g1226
a(lp1230
S'Im'
p1231
aS'sorry'
p1232
aaa(lp1233
g1226
a(lp1234
S'its'
p1235
aS'nine'
p1236
aS'to'
p1237
aS'tenthirty'
p1238
aaa(lp1239
S'GRANT'
p1240
a(lp1241
S'Okay'
p1242
aaa(lp1243
g1240
a(lp1244
g4
ag4
ag4
ag488
ag4
aS'have'
p1245
ag84
aS'clue'
p1246
aS'that'
p1247
aS'she'
p1248
aS'gave'
p1249
aS'me'
p1250
aaa(lp1251
g1240
a(lp1252
S'but'
p1253
aS'Ill'
p1254
aS'make'
p1255
aS'arrangements'
p1256
aS'on'
p1257
aS'it'
p1258
ag488
aaa(lp1259
S'ROSE'
p1260
a(lp1261
S'Mhm'
p1262
aaa(lp1263
S'PATTY'
p1264
a(lp1265
S'The'
p1266
aS'lady'
p1267
aS'in'
p1268
aS'the'
p1269
aS'yellow'
p1270
aS'sweater'
p1271
aaa(lp1272
S'KAREN'
p1273
a(lp1274
S'Actually'
p1275
ag4
aS'was'
p1276
aaa(lp1277
g1273
a(lp1278
g488
aS'again'
p1279
ag488
ag4
aS'was'
p1280
aS'trying'
p1281
aS'to'
p1282
aS'reframe'
p1283
aS'his'
p1284
aS'concerns'
p1285
aS'in'
p1286
aS'the'
p1287
aS'best'
p1288
aS'case'
p1289
aS'scenario'
p1290
aaa(lp1291
g1273
a(lp1292
S'The'
p1293
aS'Alderman'
p1294
aS'spoke'
p1295
aS'to'
p1296
aaa(lp1297
g1273
a(lp1298
S'you'
p1299
aS'feel'
p1300
aS'that'
p1301
aaa(lp1302
g1273
a(lp1303
S'somehow'
p1304
aS'the'
p1305
aS'process'
p1306
aS'that'
p1307
aS'has'
p1308
aS'been'
p1309
aS'established'
p1310
aaa(lp1311
g1273
a(lp1312
S'Um'
p1313
aaa(lp1314
g1273
a(lp1315
S'could'
p1316
aS'divide'
p1317
aS'the'
p1318
aS'city'
p1319
aaa(lp1320
g1273
a(lp1321
S'Best'
p1322
aS'case'
p1323
aS'scenario'
p1324
aS'would'
p1325
aS'be'
p1326
aS'the'
p1327
aaa(lp1328
g1273
a(lp1329
S'provisions'
p1330
aS'were'
p1331
aS'made'
p1332
aaa(lp1333
g1273
a(lp1334
S'such'
p1335
aS'that'
p1336
aS'the'
p1337
aS'ideas'
p1338
aS'that'
p1339
aS'come'
p1340
aS'out'
p1341
aaa(lp1342
g1273
a(lp1343
S'and'
p1344
aS'the'
p1345
aS'collaborations'
p1346
aS'that'
p1347
aS'come'
p1348
aS'out'
p1349
aS'of'
p1350
aS'this'
p1351
aS'process'
p1352
aaa(lp1353
g1273
a(lp1354
S'and'
p1355
aS'let'
p1356
aS'them'
p1357
aS'continue'
p1358
aaa(lp1359
g1273
a(lp1360
S'Whether'
p1361
aS'or'
p1362
aS'not'
p1363
aS'the'
p1364
aS'city'
p1365
aS'of'
p1366
aS'Chicago'
p1367
aS'is'
p1368
aS'designated'
p1369
aS'for'
p1370
aS'anything'
p1371
aaa(lp1372
g1273
a(lp1373
S'That'
p1374
aS'that'
p1375
aS'some'
p1376
aS'reassurance'
p1377
aS'of'
p1378
aS'what'
p1379
aS'comes'
p1380
aS'out'
p1381
aS'of'
p1382
aS'it'
p1383
aaa(lp1384
S'AUD'
p1385
a(lp1386
aa(lp1387
S'KAREN'
p1388
a(lp1389
S'could'
p1390
aS'be'
p1391
aaa(lp1392
g1388
a(lp1393
S'um'
p1394
aaa(lp1395
g1388
a(lp1396
S'somehow'
p1397
aS'taken'
p1398
aS'into'
p1399
aS'consideration'
p1400
aaa(lp1401
g1388
a(lp1402
S'and'
p1403
aS'continue'
p1404
aS'to'
p1405
aS'be'
p1406
aS'fostered'
p1407
aaa(lp1408
g1388
a(lp1409
S'from'
p1410
aS'the'
p1411
aS'city'
p1412
aS'of'
p1413
aS'Chicago'
p1414
aaa(lp1415
S'PATTY'
p1416
a(lp1417
g4
aS'think'
p1418
aS'the'
p1419
aS'city'
p1420
aS'is'
p1421
aaa(lp1422
g1416
a(lp1423
g4
aS'mean'
p1424
ag4
aS'know'
p1425
aS'the'
p1426
aS'city'
p1427
aS'is'
p1428
aS'committed'
p1429
aS'to'
p1430
aS'that'
p1431
aaa(lp1432
g1416
a(lp1433
S'and'
p1434
ag4
aS'know'
p1435
aS'that'
p1436
aS'that'
p1437
aS'has'
p1438
aS'come'
p1439
aS'up'
p1440
aS'at'
p1441
aS'the'
p1442
aS'i'
p1443
aS'um'
p1444
aaa(lp1445
g1416
a(lp1446
S'the'
p1447
aS'coordinating'
p1448
aS'council'
p1449
aS'meeting'
p1450
aaa(lp1451
g1416
a(lp1452
S'A'
p1453
aS'desire'
p1454
aS'to'
p1455
aS'work'
p1456
aaa(lp1457
g1416
a(lp1458
S'continue'
p1459
aS'to'
p1460
aS'work'
p1461
aaa(lp1462
S'AUD'
p1463
a(lp1464
aa(lp1465
S'PATTY'
p1466
a(lp1467
S'with'
p1468
aS'people'
p1469
aaa(lp1470
g1466
a(lp1471
S'no'
p1472
aS'matter'
p1473
aS'what'
p1474
aS'happens'
p1475
aaa(lp1476
g1466
a(lp1477
S'on'
p1478
aS'this'
p1479
aS'issue'
p1480
aaa(lp1481
g1466
a(lp1482
S'and'
p1483
aS'theres'
p1484
aS'been'
p1485
aS'some'
p1486
aS'discussion'
p1487
aS'about'
p1488
aaa(lp1489
g1466
a(lp1490
S'um'
p1491
aaa(lp1492
g1466
a(lp1493
S'other'
p1494
aS'kinds'
p1495
aS'of'
p1496
aS'funds'
p1497
aaa(lp1498
g1466
a(lp1499
S'that'
p1500
aS'could'
p1501
aS'be'
p1502
aS'put'
p1503
aS'towards'
p1504
aS'implementing'
p1505
aaa(lp1506
g1466
a(lp1507
S'uh'
p1508
aaa(lp1509
g1466
a(lp1510
S'uh'
p1511
aaa(lp1512
g1466
a(lp1513
S'areas'
p1514
aaa(lp1515
g1466
a(lp1516
S'plans'
p1517
aS'in'
p1518
aS'areas'
p1519
aS'that'
p1520
aS'are'
p1521
aS'not'
p1522
aS'selected'
p1523
aaa(lp1524
S'AUD'
p1525
a(lp1526
aa(lp1527
S'PATTY'
p1528
a(lp1529
S'um'
p1530
aaa(lp1531
g1528
a(lp1532
S'so'
p1533
ag4
aS'think'
p1534
aS'there'
p1535
aS'is'
p1536
ag84
aS'commitment'
p1537
aS'to'
p1538
aS'do'
p1539
aS'that'
p1540
aaa(lp1541
g1528
a(lp1542
S'and'
p1543
aS'that'
p1544
aaa(lp1545
g1528
a(lp1546
S'that'
p1547
aS'certainly'
p1548
aS'has'
p1549
aS'been'
p1550
aS'the'
p1551
aS'spirit'
p1552
aaa(lp1553
g1528
a(lp1554
S'of'
p1555
aS'the'
p1556
aS'um'
p1557
aS'coordinating'
p1558
aS'council'
p1559
aaa(lp1560
g1528
a(lp1561
g488
aS'You'
p1562
aaa(lp1563
g1528
a(lp1564
S'and'
p1565
aS'then'
p1566
aS'Paul'
p1567
ag488
aaa(lp1568
S'DAN'
p1569
a(lp1570
S'Um'
p1571
aaa(lp1572
g1569
a(lp1573
S'Ive'
p1574
aS'got'
p1575
aS'uh'
p1576
aS'three'
p1577
aS'questions'
p1578
aS'for'
p1579
aS'you'
p1580
aaa(lp1581
g1569
a(lp1582
S'Uh'
p1583
aaa(lp1584
g1569
a(lp1585
S'and'
p1586
ag4
aS'suppose'
p1587
aS'your'
p1588
aS'response'
p1589
aS'is'
p1590
aS'gonna'
p1591
aS'just'
p1592
aS'kinda'
p1593
aS'XX'
p1594
aS'on'
p1595
aS'there'
p1596
aaa(lp1597
g1569
a(lp1598
S'but'
p1599
aS'first'
p1600
aaa(lp1601
g1569
a(lp1602
S'um'
p1603
aaa(lp1604
g1569
a(lp1605
S'does'
p1606
aS'the'
p1607
aS'city'
p1608
aS'have'
p1609
aS'any'
p1610
aS'idea'
p1611
aS'how'
p1612
aS'many'
p1613
aS'uh'
p1614
aaa(lp1615
g1569
a(lp1616
S'requests'
p1617
aS'theyre'
p1618
aS'gonna'
p1619
aaa(lp1620
g1569
a(lp1621
S'how'
p1622
aS'many'
p1623
aS'proposals'
p1624
aS'that'
p1625
aS'theyre'
p1626
aS'gonna'
p1627
aS'be'
p1628
aS'getting'
p1629
aaa(lp1630
g1569
a(lp1631
S'Do'
p1632
aS'you'
p1633
aS'have'
p1634
aS'an'
p1635
aS'estimation'
p1636
aaa(lp1637
S'PATTY'
p1638
a(lp1639
S'No'
p1640
aaa(lp1641
S'DAN'
p1642
a(lp1643
S'So'
p1644
aaa(lp1645
S'AUD'
p1646
a(lp1647
g488
aS'At'
p1648
aS'least'
p1649
aS'one'
p1650
ag488
aaa(lp1651
S'DAN'
p1652
a(lp1653
aa(lp1654
S'MANY'
p1655
a(lp1656
aa(lp1657
S'DAN'
p1658
a(lp1659
S'Im'
p1660
aS'sure'
p1661
aaa(lp1662
g1658
a(lp1663
S'Um'
p1664
aaa(lp1665
g1658
a(lp1666
g213
aaa(lp1667
S'AUD'
p1668
a(lp1669
aa(lp1670
S'DAN'
p1671
a(lp1672
S'Uh'
p1673
aS'well'
p1674
aS'that'
p1675
aS'kind'
p1676
aS'of'
p1677
aS'leads'
p1678
aS'into'
p1679
aS'my'
p1680
aaa(lp1681
g1671
a(lp1682
S'my'
p1683
aS'next'
p1684
aS'question'
p1685
ag4
aS'think'
p1686
aS'touches'
p1687
aS'on'
p1688
aS'these'
p1689
aS'peoples'
p1690
aS'questions'
p1691
aaa(lp1692
g1671
a(lp1693
S'as'
p1694
aS'far'
p1695
aS'as'
p1696
aaa(lp1697
g1671
a(lp1698
S'it'
p1699
aS'seemed'
p1700
aS'like'
p1701
aS'it'
p1702
aS'would'
p1703
aS'behoove'
p1704
aS'us'
p1705
aS'all'
p1706
aaa(lp1707
g1671
a(lp1708
S'if'
p1709
aS'there'
p1710
aS'were'
p1711
aS'some'
p1712
aS'kind'
p1713
aS'of'
p1714
aS'consensus'
p1715
aS'building'
p1716
aS'process'
p1717
aS'before'
p1718
aaa(lp1719
g1671
a(lp1720
S'uh'
p1721
aaa(lp1722
g1671
a(lp1723
g488
aS'this'
p1724
aS'went'
p1725
aS'on'
p1726
aS'and'
p1727
ag488
aaa(lp1728
g1671
a(lp1729
S'So'
p1730
aS'what'
p1731
aS'people'
p1732
aS'are'
p1733
aS'saying'
p1734
aaa(lp1735
g1671
a(lp1736
S'theyre'
p1737
aS'having'
p1738
aS'community'
p1739
aS'meetings'
p1740
aaa(lp1741
g1671
a(lp1742
S'community'
p1743
aS'organiza'
p1744
aaa(lp1745
g1671
a(lp1746
S'community'
p1747
aaa(lp1748
g1671
a(lp1749
S'uh'
p1750
aaa(lp1751
g1671
a(lp1752
S'group'
p1753
aS'meetings'
p1754
aaa(lp1755
g1671
a(lp1756
S'But'
p1757
aaa(lp1758
g1671
a(lp1759
S'uh'
p1760
aaa(lp1761
g1671
a(lp1762
S'its'
p1763
aaa(lp1764
g1671
a(lp1765
S'from'
p1766
aS'what'
p1767
ag4
aS'understand'
p1768
aS'of'
p1769
aS'this'
p1770
aS'empowerment'
p1771
aS'zone'
p1772
aS'process'
p1773
aaa(lp1774
g1671
a(lp1775
S'the'
p1776
aS'idea'
p1777
aS'is'
p1778
aS'to'
p1779
aS'really'
p1780
aS'involve'
p1781
aS'things'
p1782
aS'on'
p1783
ag84
aS'g'
p1784
aS'grassroots'
p1785
aS'level'
p1786
aaa(lp1787
S'AUD'
p1788
a(lp1789
aa(lp1790
S'DAN'
p1791
a(lp1792
S'And'
p1793
aaa(lp1794
g1791
a(lp1795
S'my'
p1796
aS'two'
p1797
aS'concerns'
p1798
aS'on'
p1799
aS'par'
p1800
aaa(lp1801
g1791
a(lp1802
S'as'
p1803
aS'far'
p1804
aS'as'
p1805
aS'participation'
p1806
aS'goes'
p1807
aaa(lp1808
g1791
a(lp1809
S'are'
p1810
aS'one'
p1811
aaa(lp1812
g1791
a(lp1813
S'that'
p1814
aaa(lp1815
g1791
a(lp1816
g84
aS'and'
p1817
ag4
aS'voiced'
p1818
aS'this'
p1819
aS'concern'
p1820
aS'with'
p1821
ag488
aS'elder'
p1822
aS'Jarret'
p1823
ag488
aS'when'
p1824
aaa(lp1825
g1791
a(lp1826
S'uh'
p1827
aS'last'
p1828
aS'month'
p1829
aS'at'
p1830
aS'the'
p1831
aaa(lp1832
g1791
a(lp1833
S'uh'
p1834
aaa(lp1835
g1791
a(lp1836
S'Washington'
p1837
aaa(lp1838
g1791
a(lp1839
S'or'
p1840
aS'uh'
p1841
aS'Washington'
p1842
aS'Library'
p1843
aS'Center'
p1844
aS'when'
p1845
aS'they'
p1846
aaa(lp1847
g1791
a(lp1848
S'uh'
p1849
aaa(lp1850
g1791
a(lp1851
S'XX'
p1852
ag488
aS'the'
p1853
aS'person'
p1854
aS'introduced'
p1855
ag488
aS'that'
p1856
aaa(lp1857
g1791
a(lp1858
S'And'
p1859
aaa(lp1860
g1791
a(lp1861
S'that'
p1862
aS'is'
p1863
aaa(lp1864
g1791
a(lp1865
S'simply'
p1866
aS'throwing'
p1867
aS'this'
p1868
aS'out'
p1869
aS'into'
p1870
aS'the'
p1871
aS'community'
p1872
aS'and'
p1873
aS'saying'
p1874
aS'that'
p1875
aaa(lp1876
g1791
a(lp1877
S'you'
p1878
aS'expect'
p1879
aS'the'
p1880
aS'community'
p1881
aS'to'
p1882
aS'be'
p1883
aS'able'
p1884
aS'to'
p1885
aS'respond'
p1886
aaa(lp1887
g1791
a(lp1888
S'Community'
p1889
aS'groups'
p1890
aS'to'
p1891
aS'be'
p1892
aS'able'
p1893
aS'to'
p1894
aS'respond'
p1895
aS'to'
p1896
aS'you'
p1897
aaa(lp1898
g1791
a(lp1899
S'Is'
p1900
aaa(lp1901
g1791
a(lp1902
g4
aS'think'
p1903
aS'it'
p1904
aS'at'
p1905
aS'l'
p1906
aS'at'
p1907
aS'least'
p1908
aaa(lp1909
g1791
a(lp1910
S'not'
p1911
aS'an'
p1912
aS'effective'
p1913
aaa(lp1914
g1791
a(lp1915
S'uh'
p1916
aS'instrument'
p1917
aS'for'
p1918
aaa(lp1919
g1791
a(lp1920
S'for'
p1921
aS'getting'
p1922
aS'this'
p1923
aS'done'
p1924
aaa(lp1925
g1791
a(lp1926
S'Uh'
p1927
aaa(lp1928
S'AUD'
p1929
a(lp1930
aa(lp1931
S'PATTY'
p1932
a(lp1933
g4
aS'think'
p1934
aS'that'
p1935
aS'thats'
p1936
aS'the'
p1937
aS'expectation'
p1938
aS'of'
p1939
aS'the'
p1940
aaa(lp1941
S'DAN'
p1942
a(lp1943
S'It'
p1944
aS'doesnt'
p1945
aaa(lp1946
g1942
a(lp1947
S'it'
p1948
aS'doesnt'
p1949
aS'address'
p1950
aaa(lp1951
S'PATTY'
p1952
a(lp1953
S'of'
p1954
aS'the'
p1955
aS'XXXX'
p1956
aaa(lp1957
S'DAN'
p1958
a(lp1959
S'It'
p1960
aS'doesnt'
p1961
aS'address'
p1962
aS'the'
p1963
aS'fact'
p1964
aS'that'
p1965
aaa(lp1966
g1958
a(lp1967
S'one'
p1968
aaa(lp1969
g1958
a(lp1970
S'community'
p1971
aS'organizations'
p1972
aaa(lp1973
g1958
a(lp1974
S'um'
p1975
aaa(lp1976
g1958
a(lp1977
S'and'
p1978
aS'many'
p1979
aS'are'
p1980
aS'of'
p1981
aS'them'
p1982
aS'being'
p1983
aS'service'
p1984
aS'providers'
p1985
aaa(lp1986
g1958
a(lp1987
S'do'
p1988
aS'not'
p1989
aS'necessarily'
p1990
aS'have'
p1991
aaa(lp1992
g1958
a(lp1993
S'the'
p1994
aS'same'
p1995
aS'goals'
p1996
aaa(lp1997
g1958
a(lp1998
S'in'
p1999
aS'mind'
p2000
aaa(lp2001
g1958
a(lp2002
S'as'
p2003
aS'community'
p2004
aS'residents'
p2005
aS'do'
p2006
aaa(lp2007
g1958
a(lp2008
S'Theyve'
p2009
aS'got'
p2010
aS'different'
p2011
aS'agendas'
p2012
aaa(lp2013
g1958
a(lp2014
S'theyve'
p2015
aS'got'
p2016
aS'different'
p2017
aS'priorities'
p2018
aaa(lp2019
g1958
a(lp2020
S'theyve'
p2021
aS'got'
p2022
aS'different'
p2023
aS'purposes'
p2024
aaa(lp2025
g1958
a(lp2026
S'than'
p2027
aaa(lp2028
g1958
a(lp2029
S'members'
p2030
aS'of'
p2031
aS'the'
p2032
aS'r'
p2033
aS'the'
p2034
aS'community'
p2035
aS'themselves'
p2036
aaa(lp2037
g1958
a(lp2038
S'Um'
p2039
aaa(lp2040
g1958
a(lp2041
S'the'
p2042
aS'second'
p2043
aS'thing'
p2044
aS'is'
p2045
aS'that'
p2046
aaa(lp2047
g1958
a(lp2048
S'people'
p2049
aS'who'
p2050
aS'do'
p2051
aS'not'
p2052
aS'live'
p2053
aaa(lp2054
g1958
a(lp2055
S'directly'
p2056
aS'inside'
p2057
aaa(lp2058
g1958
a(lp2059
S'the'
p2060
aS'areas'
p2061
aS'that'
p2062
aS'are'
p2063
aS'gonna'
p2064
aS'be'
p2065
aS'part'
p2066
aS'of'
p2067
aS'the'
p2068
aS'empowerment'
p2069
aS'zones'
p2070
aaa(lp2071
g1958
a(lp2072
S'theyve'
p2073
aS'got'
p2074
aS'an'
p2075
aS'overriding'
p2076
aS'concern'
p2077
aS'in'
p2078
aS'this'
p2079
aS'because'
p2080
aaa(lp2081
g1958
a(lp2082
S'as'
p2083
aS'Mr'
p2084
aS'Pollack'
p2085
aS'said'
p2086
aaa(lp2087
g1958
a(lp2088
g1453
aS'hundred'
p2089
aS'million'
p2090
aS'dollars'
p2091
aS'is'
p2092
aS'just'
p2093
aS'gonna'
p2094
aS'be'
p2095
ag84
aS'drop'
p2096
aS'in'
p2097
aS'the'
p2098
aS'bucket'
p2099
aaa(lp2100
g1958
a(lp2101
S'To'
p2102
aS'be'
p2103
aS'able'
p2104
aS'to'
p2105
aS'make'
p2106
aS'these'
p2107
aS'things'
p2108
aS'work'
p2109
aaa(lp2110
g1958
a(lp2111
S'and'
p2112
aS'especially'
p2113
aS'to'
p2114
aS'make'
p2115
aS'them'
p2116
aS'work'
p2117
aS'over'
p2118
ag84
aS'ten'
p2119
aS'year'
p2120
aS'process'
p2121
aaa(lp2122
g1958
a(lp2123
S'that'
p2124
aS'this'
p2125
aS'is'
p2126
aS'calling'
p2127
aS'for'
p2128
aaa(lp2129
g1958
a(lp2130
S'therere'
p2131
aS'gonna'
p2132
aS'be'
p2133
ag84
aS'lot'
p2134
aS'of'
p2135
aS'community'
p2136
aS'resources'
p2137
aaa(lp2138
g1958
a(lp2139
g213
aaa(lp2140
g1958
a(lp2141
S'uh'
p2142
aaa(lp2143
g1958
a(lp2144
S'from'
p2145
aS'the'
p2146
aS'federal'
p2147
aS'government'
p2148
aaa(lp2149
g1958
a(lp2150
S'from'
p2151
aS'the'
p2152
aS'state'
p2153
aaa(lp2154
g1958
a(lp2155
S'county'
p2156
aaa(lp2157
g1958
a(lp2158
S'and'
p2159
aS'city'
p2160
aaa(lp2161
g1958
a(lp2162
S'that'
p2163
aS'are'
p2164
aS'gonna'
p2165
aS'need'
p2166
aS'to'
p2167
aS'be'
p2168
aS'marshalled'
p2169
aaa(lp2170
g1958
a(lp2171
S'theyre'
p2172
aS'gonna'
p2173
aS'need'
p2174
aS'to'
p2175
aS'be'
p2176
aaa(lp2177
g1958
a(lp2178
S'reallocated'
p2179
aS'to'
p2180
aS'this'
p2181
aS'area'
p2182
aaa(lp2183
g1958
a(lp2184
S'And'
p2185
aS'to'
p2186
aS'be'
p2187
aS'able'
p2188
aS'to'
p2189
aS'have'
p2190
ag84
aS'consensus'
p2191
aaa(lp2192
g1958
a(lp2193
S'not'
p2194
aS'just'
p2195
aS'within'
p2196
aS'the'
p2197
aS'empowerment'
p2198
aS'zone'
p2199
aaa(lp2200
g1958
a(lp2201
S'but'
p2202
aS'within'
p2203
aS'the'
p2204
aS'city'
p2205
aS'itself'
p2206
aaa(lp2207
g1958
a(lp2208
S'if'
p2209
aS'these'
p2210
aS'services'
p2211
aaa(lp2212
g1958
a(lp2213
S'Are'
p2214
aS'gonna'
p2215
aS'be'
p2216
aS'provided'
p2217
aS'and'
p2218
aS'maintained'
p2219
aaa(lp2220
g1958
a(lp2221
S'over'
p2222
aS'the'
p2223
aS'ten'
p2224
aS'years'
p2225
aaa(lp2226
g1958
a(lp2227
S'through'
p2228
aS'different'
p2229
aS'administrations'
p2230
aaa(lp2231
g1958
a(lp2232
S'through'
p2233
aS'different'
p2234
aS'aldermen'
p2235
aaa(lp2236
g1958
a(lp2237
S'political'
p2238
aS'processes'
p2239
aaa(lp2240
g1958
a(lp2241
S'involved'
p2242
aaa(lp2243
g1958
a(lp2244
S'these'
p2245
aS'people'
p2246
aS'are'
p2247
aS'not'
p2248
aS'being'
p2249
aS'brought'
p2250
aS'into'
p2251
aS'the'
p2252
aS'decisionmaking'
p2253
aS'process'
p2254
aS'beforehand'
p2255
aaa(lp2256
g1958
a(lp2257
S'And'
p2258
ag4
aS'think'
p2259
aS'this'
p2260
aS'speaks'
p2261
aS'to'
p2262
aS'these'
p2263
aS'peoples'
p2264
aS'concern'
p2265
aaa(lp2266
g1958
a(lp2267
S'that'
p2268
aaa(lp2269
S'PATTY'
p2270
a(lp2271
S'These'
p2272
aS'people'
p2273
aS'meaning'
p2274
aS'who'
p2275
aaa(lp2276
g2270
a(lp2277
S'The'
p2278
aaa(lp2279
S'DAN'
p2280
a(lp2281
g4
ag4
aS'heard'
p2282
aS'several'
p2283
aS'people'
p2284
aaa(lp2285
g2280
a(lp2286
S'this'
p2287
aS'this'
p2288
ag2033
aaa(lp2289
g2280
a(lp2290
g4
aS'dont'
p2291
aS'know'
p2292
aS'their'
p2293
aS'names'
p2294
aaa(lp2295
g2280
a(lp2296
S'So'
p2297
aS'Ill'
p2298
aS'just'
p2299
aS'have'
p2300
aS'to'
p2301
aaa(lp2302
g2280
a(lp2303
S'woman'
p2304
aS'in'
p2305
aS'yellow'
p2306
aaa(lp2307
g2280
a(lp2308
S'gentleman'
p2309
aS'here'
p2310
aS'in'
p2311
aS'the'
p2312
aS'glasses'
p2313
aaa(lp2314
g2280
a(lp2315
S'that'
p2316
aaa(lp2317
g2280
a(lp2318
S'theres'
p2319
aS'gonna'
p2320
aS'be'
p2321
aS'h'
p2322
aaa(lp2323
g2280
a(lp2324
S'uh'
p2325
aS'earlier'
p2326
aS'that'
p2327
aS'very'
p2328
aS'first'
p2329
aS'speaker'
p2330
aaa(lp2331
g2280
a(lp2332
S'gentleman'
p2333
aS'uh'
p2334
aaa(lp2335
g2280
a(lp2336
S'Ed'
p2337
aS'Smith'
p2338
aaa(lp2339
g2280
a(lp2340
S'Uh'
p2341
aaa(lp2342
g2280
a(lp2343
S'that'
p2344
aS'youre'
p2345
aS'gonna'
p2346
aS'be'
p2347
aS'receiving'
p2348
ag84
aS'number'
p2349
aS'of'
p2350
aS'proposals'
p2351
aaa(lp2352
g2280
a(lp2353
S'and'
p2354
aaa(lp2355
g2280
a(lp2356
S'you'
p2357
aS'say'
p2358
aS'you'
p2359
aS'dont'
p2360
aS'know'
p2361
aS'how'
p2362
aS'many'
p2363
aaa(lp2364
g2280
a(lp2365
g4
aS'dont'
p2366
aS'know'
p2367
aS'how'
p2368
aS'youre'
p2369
aS'gonna'
p2370
aS'have'
p2371
aaa(lp2372
g2280
a(lp2373
S'twentyeight'
p2374
aS'thirtytwo'
p2375
aS'people'
p2376
aS'that'
p2377
aS'you'
p2378
aS'said'
p2379
aaa(lp2380
g2280
a(lp2381
S'on'
p2382
ag84
aS'coordinating'
p2383
aS'council'
p2384
aS'read'
p2385
aaa(lp2386
g2280
a(lp2387
S'maybe'
p2388
ag84
aS'hundred'
p2389
aS'proposals'
p2390
aaa(lp2391
g2280
a(lp2392
S'within'
p2393
ag84
aS'weeks'
p2394
aS'time'
p2395
aaa(lp2396
g2280
a(lp2397
S'and'
p2398
aS'be'
p2399
aS'able'
p2400
aS'to'
p2401
aS'arrive'
p2402
aS'at'
p2403
aS'one'
p2404
aS'selected'
p2405
aS'empowerment'
p2406
aS'zone'
p2407
aaa(lp2408
g2280
a(lp2409
S'it'
p2410
aS'seems'
p2411
aS'to'
p2412
aS'me'
p2413
aS'that'
p2414
aS'it'
p2415
aS'be'
p2416
aS'much'
p2417
aS'more'
p2418
aS'beneficial'
p2419
aaa(lp2420
g2280
a(lp2421
S'if'
p2422
aS'the'
p2423
aS'entire'
p2424
aS'community'
p2425
aS'as'
p2426
ag84
aS'whole'
p2427
aaa(lp2428
g2280
a(lp2429
S'was'
p2430
aS'brought'
p2431
aS'into'
p2432
aS'this'
p2433
aS'process'
p2434
aaa(lp2435
g2280
a(lp2436
S'and'
p2437
aaa(lp2438
g2280
a(lp2439
S'this'
p2440
aS'is'
p2441
aS'what'
p2442
aS'Im'
p2443
aS'bringing'
p2444
aS'up'
p2445
aS'is'
p2446
aaa(lp2447
g2280
a(lp2448
S'the'
p2449
aS'idea'
p2450
aS'of'
p2451
aS'participation'
p2452
aaa(lp2453
g2280
a(lp2454
S'True'
p2455
aS'communitybased'
p2456
aS'citizen'
p2457
aS'participation'
p2458
aaa(lp2459
g2280
a(lp2460
S'would'
p2461
aS'involve'
p2462
aS'ongoing'
p2463
aS'series'
p2464
aS'of'
p2465
aS'meeting'
p2466
aaa(lp2467
g2280
a(lp2468
S'that'
p2469
ag4
aS'would'
p2470
aS'think'
p2471
aS'that'
p2472
aS'the'
p2473
aS'coordinating'
p2474
aS'council'
p2475
aS'would'
p2476
aS'be'
p2477
aS'promoting'
p2478
aaa(lp2479
g2280
a(lp2480
S'would'
p2481
aS'be'
p2482
aS'organizing'
p2483
aS'and'
p2484
aS'directing'
p2485
aS'on'
p2486
aS'an'
p2487
aS'ngoing'
p2488
aS'even'
p2489
aS'nightly'
p2490
aS'basis'
p2491
aaa(lp2492
S'AUD'
p2493
a(lp2494
aa(lp2495
S'PATTY'
p2496
a(lp2497
S'Thats'
p2498
aS'not'
p2499
aS'exactly'
p2500
aS'grassroot'
p2501
aS'planning'
p2502
aaa(lp2503
S'DAN'
p2504
a(lp2505
S'to'
p2506
aS'be'
p2507
aaa(lp2508
S'PATTY'
p2509
a(lp2510
S'either'
p2511
aaa(lp2512
S'DAN'
p2513
a(lp2514
S'Right'
p2515
aaa(lp2516
S'PATTY'
p2517
a(lp2518
S'um'
p2519
aaa(lp2520
g2517
a(lp2521
S'grassroot'
p2522
aS'planning'
p2523
aaa(lp2524
g2517
a(lp2525
S'is'
p2526
aS'when'
p2527
aS'people'
p2528
aS'get'
p2529
aS'out'
p2530
aS'in'
p2531
aS'the'
p2532
aS'community'
p2533
aaa(lp2534
g2517
a(lp2535
S'and'
p2536
aS'organize'
p2537
aaa(lp2538
S'DAN'
p2539
a(lp2540
S'But'
p2541
aS'they'
p2542
aS'need'
p2543
ag84
aS'forum'
p2544
aaa(lp2545
S'PATTY'
p2546
a(lp2547
S'and'
p2548
aS'do'
p2549
aS'the'
p2550
aS'work'
p2551
aaa(lp2552
S'DAN'
p2553
a(lp2554
S'they'
p2555
aS'need'
p2556
aaa(lp2557
g2553
a(lp2558
S'if'
p2559
aS'this'
p2560
aS'woman'
p2561
aS'here'
p2562
aS'today'
p2563
aS'did'
p2564
aS'not'
p2565
aS'speak'
p2566
aS'up'
p2567
aaa(lp2568
S'PATTY'
p2569
a(lp2570
S'and'
p2571
aaa(lp2572
S'PATTY'
p2573
a(lp2574
S'Let'
p2575
aS'me'
p2576
aS'answer'
p2577
aS'your'
p2578
aS'question'
p2579
aaa(lp2580
S'DAN'
p2581
a(lp2582
S'All'
p2583
aS'these'
p2584
aS'people'
p2585
aS'here'
p2586
aS'would'
p2587
aS'not'
p2588
aS'even'
p2589
aS'know'
p2590
ag84
aS'meeting'
p2591
aS'was'
p2592
aS'going'
p2593
aS'on'
p2594
aaa(lp2595
S'PATTY'
p2596
a(lp2597
S'Let'
p2598
aS'me'
p2599
aS'try'
p2600
aS'to'
p2601
aS'respond'
p2602
aS'to'
p2603
aS'your'
p2604
aS'question'
p2605
aS'sir'
p2606
aaa(lp2607
g2596
a(lp2608
S'So'
p2609
aaa(lp2610
g2596
a(lp2611
S'what'
p2612
aS'youre'
p2613
aS'suggesting'
p2614
aS'is'
p2615
aS'not'
p2616
ag84
aS'grassroot'
p2617
aaa(lp2618
g2596
a(lp2619
S'in'
p2620
aS'my'
p2621
aS'opinion'
p2622
aaa(lp2623
g2596
a(lp2624
g84
aS'grassroot'
p2625
aS'process'
p2626
aaa(lp2627
g2596
a(lp2628
S'Secondly'
p2629
aaa(lp2630
g2596
a(lp2631
S'the'
p2632
aS'the'
p2633
aS'the'
p2634
aS'reality'
p2635
aS'is'
p2636
aaa(lp2637
g2596
a(lp2638
S'we'
p2639
aS'only'
p2640
aS'have'
p2641
aaa(lp2642
g2596
a(lp2643
S'till'
p2644
aS'June'
p2645
aS'thirtieth'
p2646
aS'to'
p2647
aS'submit'
p2648
aS'an'
p2649
aS'application'
p2650
aaa(lp2651
g2596
a(lp2652
g1453
aS'really'
p2653
aaa(lp2654
g2596
a(lp2655
g84
aS'true'
p2656
aS'strategic'
p2657
aS'planning'
p2658
aS'process'
p2659
aaa(lp2660
g2596
a(lp2661
S'grassroot'
p2662
aaa(lp2663
g2596
a(lp2664
S'takes'
p2665
aS'many'
p2666
aS'more'
p2667
aS'months'
p2668
aS'than'
p2669
aS'that'
p2670
aaa(lp2671
g2596
a(lp2672
S'Many'
p2673
aS'more'
p2674
aS'years'
p2675
aS'than'
p2676
aS'we'
p2677
aS'have'
p2678
aaa(lp2679
S'DAN'
p2680
a(lp2681
S'XX'
p2682
aaa(lp2683
S'PATTY'
p2684
a(lp2685
S'Okay'
p2686
aaa(lp2687
g2684
a(lp2688
S'So'
p2689
aaa(lp2690
g2684
a(lp2691
S'we'
p2692
aS'have'
p2693
aS'to'
p2694
aS'do'
p2695
aS'the'
p2696
aS'best'
p2697
aS'that'
p2698
aS'we'
p2699
aS'can'
p2700
aS'do'
p2701
aaa(lp2702
g2684
a(lp2703
S'given'
p2704
aS'the'
p2705
aS'time'
p2706
aS'that'
p2707
aS'we'
p2708
aS'have'
p2709
aaa(lp2710
S'DAN'
p2711
a(lp2712
S'And'
p2713
aS'all'
p2714
aS'Im'
p2715
aS'saying'
p2716
aS'is'
p2717
aaa(lp2718
g2711
a(lp2719
S'Im'
p2720
aS'saying'
p2721
aS'that'
p2722
aaa(lp2723
g2711
a(lp2724
g4
aS'dont'
p2725
aS'believe'
p2726
ag84
aS'forum'
p2727
aaa(lp2728
g2711
a(lp2729
S'is'
p2730
aS'being'
p2731
aS'presented'
p2732
aS'for'
p2733
aS'community'
p2734
aS'groups'
p2735
aS'to'
p2736
aaa(lp2737
g2711
a(lp2738
g4
aS'mean'
p2739
aaa(lp2740
g2711
a(lp2741
S'some'
p2742
aS'people'
p2743
aS'are'
p2744
aS'finding'
p2745
aS'out'
p2746
aS'about'
p2747
aS'this'
p2748
aS'for'
p2749
aS'the'
p2750
aS'first'
p2751
aS'time'
p2752
aS'tonight'
p2753
aaa(lp2754
g2711
a(lp2755
S'some'
p2756
aS'people'
p2757
aS'are'
p2758
aS'finding'
p2759
aS'out'
p2760
aS'about'
p2761
aS'meetings'
p2762
aaa(lp2763
g2711
a(lp2764
S'that'
p2765
aS'are'
p2766
aS'going'
p2767
aS'on'
p2768
aS'with'
p2769
aS'other'
p2770
aS'groups'
p2771
aaa(lp2772
g2711
a(lp2773
S'for'
p2774
aS'the'
p2775
aS'first'
p2776
aS'time'
p2777
aS'tonight'
p2778
aaa(lp2779
g2711
a(lp2780
S'this'
p2781
aS'is'
p2782
aS'not'
p2783
aS'being'
p2784
aS'promoted'
p2785
aS'by'
p2786
aS'the'
p2787
aS'city'
p2788
aaa(lp2789
g2711
a(lp2790
S'this'
p2791
aS'is'
p2792
aS'not'
p2793
aS'being'
p2794
aS'publicized'
p2795
aS'as'
p2796
ag84
aS'forum'
p2797
aS'as'
p2798
ag84
aaa(lp2799
S'PATTY'
p2800
a(lp2801
S'It'
p2802
aS'has'
p2803
aS'been'
p2804
aS'promoted'
p2805
aaa(lp2806
g2800
a(lp2807
S'it'
p2808
aS'has'
p2809
aS'been'
p2810
aS'publicized'
p2811
aaa(lp2812
g2800
a(lp2813
g4
aS'dont'
p2814
aS'know'
p2815
aaa(lp2816
S'DAN'
p2817
a(lp2818
S'Ill'
p2819
aS'tell'
p2820
aS'you'
p2821
aS'right'
p2822
aS'now'
p2823
aaa(lp2824
g2817
a(lp2825
S'that'
p2826
aS'the'
p2827
aS'leading'
p2828
aaa(lp2829
g2817
a(lp2830
S'onprofit'
p2831
aaa(lp2832
g2817
a(lp2833
S'affordable'
p2834
aS'housing'
p2835
aS'provider'
p2836
aS'on'
p2837
aS'the'
p2838
aS'West'
p2839
aS'Side'
p2840
aaa(lp2841
g2817
a(lp2842
S'isnt'
p2843
aS'even'
p2844
aS'involved'
p2845
aS'with'
p2846
aS'this'
p2847
aaa(lp2848
g2817
a(lp2849
S'He'
p2850
aS'said'
p2851
aS'he'
p2852
aS'hasnt'
p2853
aS'even'
p2854
aS'XXX'
p2855
aaa(lp2856
g2817
a(lp2857
S'PRIDE'
p2858
aaa(lp2859
g2817
a(lp2860
S'has'
p2861
aS'not'
p2862
aS'even'
p2863
aS'been'
p2864
aS'contacted'
p2865
aaa(lp2866
g2817
a(lp2867
S'by'
p2868
aS'those'
p2869
aS'groups'
p2870
aS'on'
p2871
aS'the'
p2872
aS'West'
p2873
aS'Side'
p2874
aaa(lp2875
S'PATTY'
p2876
a(lp2877
S'Well'
p2878
aaa(lp2879
g2876
a(lp2880
S'let'
p2881
aS'me'
p2882
aS'tell'
p2883
aS'you'
p2884
aaa(lp2885
g2876
a(lp2886
S'Ive'
p2887
aS'worked'
p2888
aS'with'
p2889
aS'PRIDE'
p2890
aaa(lp2891
g2876
a(lp2892
S'and'
p2893
ag4
aS'had'
p2894
ag84
aS'meeting'
p2895
aS'with'
p2896
aS'PRIDE'
p2897
aS'last'
p2898
aS'week'
p2899
aaa(lp2900
g2876
a(lp2901
S'they'
p2902
aS'know'
p2903
aS'about'
p2904
aS'it'
p2905
aaa(lp2906
S'DAN'
p2907
a(lp2908
g4
aS'didnt'
p2909
aS'say'
p2910
aS'they'
p2911
aS'didnt'
p2912
aS'know'
p2913
aS'about'
p2914
aS'it'
p2915
aaa(lp2916
g2907
a(lp2917
g4
aS'said'
p2918
aS'theyre'
p2919
aS'not'
p2920
aS'being'
p2921
aaa(lp2922
g2907
a(lp2923
S'theyre'
p2924
aS'not'
p2925
aS'being'
p2926
aS'contacted'
p2927
aS'by'
p2928
ag763
aaa(lp2929
g2907
a(lp2930
S'as'
p2931
aS'far'
p2932
aS'as'
p2933
aS'being'
p2934
aS'brought'
p2935
aS'into'
p2936
ag84
aS'network'
p2937
aaa(lp2938
g2907
a(lp2939
S'for'
p2940
aS'this'
p2941
aaa(lp2942
g2907
a(lp2943
S'Im'
p2944
aS'Im'
p2945
aS'sorry'
p2946
aaa(lp2947
g2907
a(lp2948
S'Im'
p2949
aS'not'
p2950
aS'trying'
p2951
aS'to'
p2952
aS'be'
p2953
aS'confrontational'
p2954
aaa(lp2955
g2907
a(lp2956
S'Okay'
p2957
aaa(lp2958
g2907
a(lp2959
S'Im'
p2960
aS'trying'
p2961
aS'to'
p2962
aS'raise'
p2963
aS'issues'
p2964
aS'and'
p2965
aS'concerns'
p2966
aaa(lp2967
g2907
a(lp2968
S'Alright'
p2969
aaa(lp2970
S'PATTY'
p2971
a(lp2972
S'Although'
p2973
ag4
aS'do'
p2974
aS'think'
p2975
aaa(lp2976
S'DAN'
p2977
a(lp2978
S'The'
p2979
aS'second'
p2980
aaa(lp2981
g2977
a(lp2982
S'my'
p2983
aS'second'
p2984
aS'qu'
p2985
aaa(lp2986
S'PATTY'
p2987
a(lp2988
S'that'
p2989
aS'the'
p2990
aS'organization'
p2991
aaa(lp2992
g2987
a(lp2993
S'has'
p2994
ag84
aS'responsibility'
p2995
aaa(lp2996
g2987
a(lp2997
S'If'
p2998
aS'theyre'
p2999
aS'interested'
p3000
aS'in'
p3001
aS'this'
p3002
aaa(lp3003
S'DAN'
p3004
a(lp3005
S'Undoubtedly'
p3006
aaa(lp3007
g3004
a(lp3008
S'Undoubtedly'
p3009
aaa(lp3010
S'PATTY'
p3011
a(lp3012
S'And'
p3013
aS'they'
p3014
aS'care'
p3015
aS'about'
p3016
aS'empowerment'
p3017
aS'of'
p3018
aS'th'
p3019
aS'of'
p3020
aS'their'
p3021
aS'constituency'
p3022
aaa(lp3023
S'DAN'
p3024
a(lp3025
S'Undoubtedly'
p3026
aaa(lp3027
S'PATTY'
p3028
a(lp3029
S'to'
p3030
aS'get'
p3031
aS'involved'
p3032
aS'in'
p3033
aS'the'
p3034
aS'process'
p3035
aaa(lp3036
g3028
a(lp3037
S'and'
p3038
aS'find'
p3039
ag84
aS'way'
p3040
aS'to'
p3041
aS'make'
p3042
aS'that'
p3043
aS'happen'
p3044
aS'XX'
p3045
aaa(lp3046
S'DAN'
p3047
a(lp3048
S'M'
p3049
aS'my'
p3050
aS'second'
p3051
aS'question'
p3052
aS'would'
p3053
aS'be'
p3054
aS'on'
p3055
aS'the'
p3056
aS'process'
p3057
aaa(lp3058
g3047
a(lp3059
S'the'
p3060
aS'city'
p3061
aS'obviouslys'
p3062
aS'got'
p3063
aS'its'
p3064
aS'own'
p3065
aS'priorities'
p3066
aaa(lp3067
g3047
a(lp3068
S'its'
p3069
aS'got'
p3070
aaa(lp3071
g3047
a(lp3072
S'um'
p3073
aaa(lp3074
g3047
a(lp3075
S'funds'
p3076
aS'already'
p3077
aS'allocated'
p3078
aS'in'
p3079
aS'budget'
p3080
aaa(lp3081
g3047
a(lp3082
S'its'
p3083
aS'got'
p3084
aS'areas'
p3085
aS'designated'
p3086
aS'that'
p3087
aS'they'
p3088
aS'would'
p3089
aS'like'
p3090
aS'to'
p3091
aS'see'
p3092
aS'worked'
p3093
aS'on'
p3094
aaa(lp3095
g3047
a(lp3096
S'and'
p3097
aaa(lp3098
g3047
a(lp3099
S'my'
p3100
aS'question'
p3101
aS'as'
p3102
aS'far'
p3103
aS'as'
p3104
aS'the'
p3105
aS'process'
p3106
aS'is'
p3107
ag799
aaa(lp3108
g3047
a(lp3109
S'way'
p3110
aS'the'
p3111
aS'selection'
p3112
aS'goes'
p3113
aaa(lp3114
g3047
a(lp3115
S'are'
p3116
aS'um'
p3117
aaa(lp3118
g3047
a(lp3119
S'what'
p3120
aaa(lp3121
g3047
a(lp3122
g762
aS'which'
p3123
aS'is'
p3124
aS'gonna'
p3125
aS'drive'
p3126
aS'which'
p3127
aaa(lp3128
g3047
a(lp3129
S'How'
p3130
aS'much'
p3131
aS'weight'
p3132
aS'are'
p3133
aS'gonna'
p3134
aS'be'
p3135
aS'given'
p3136
aS'to'
p3137
aaa(lp3138
g3047
a(lp3139
S'um'
p3140
aaa(lp3141
g3047
a(lp3142
S'proposals'
p3143
aaa(lp3144
g3047
a(lp3145
S'which'
p3146
aS'dovetail'
p3147
aS'into'
p3148
aS'existing'
p3149
aS'programs'
p3150
aaa(lp3151
g3047
a(lp3152
S'that'
p3153
aS'the'
p3154
aS'city'
p3155
aS'has'
p3156
aaa(lp3157
g3047
a(lp3158
S'or'
p3159
aaa(lp3160
g3047
a(lp3161
S'that'
p3162
aS'the'
p3163
aS'city'
p3164
aS'is'
p3165
aS'intending'
p3166
aS'on'
p3167
aS'implementing'
p3168
aS'in'
p3169
aS'certain'
p3170
aS'areas'
p3171
aaa(lp3172
g3047
a(lp3173
S'and'
p3174
aS'how'
p3175
aS'much'
p3176
aS'is'
p3177
aS'the'
p3178
aS'city'
p3179
aS'willing'
p3180
aS'to'
p3181
aS'bend'
p3182
aS'and'
p3183
aS'say'
p3184
aaa(lp3185
g3047
a(lp3186
g4
aS'will'
p3187
ag1784
aaa(lp3188
g3047
a(lp3189
S'we'
p3190
aS'are'
p3191
aS'gonna'
p3192
aS'forego'
p3193
aS'these'
p3194
aS'uh'
p3195
aS'scheduled'
p3196
aS'or'
p3197
aS'proposed'
p3198
aS'projects'
p3199
aaa(lp3200
g3047
a(lp3201
S'to'
p3202
aS'be'
p3203
aS'able'
p3204
aS'to'
p3205
aS'dovetail'
p3206
aS'into'
p3207
aS'empowerment'
p3208
aS'zones'
p3209
aaa(lp3210
S'GRANT'
p3211
a(lp3212
S'Whats'
p3213
aS'being'
p3214
aS'said'
p3215
aaa(lp3216
g3211
a(lp3217
S'Patty'
p3218
aS'is'
p3219
aaa(lp3220
g3211
a(lp3221
S'when'
p3222
aS'is'
p3223
aS'the'
p3224
aS'city'
p3225
aS'going'
p3226
aS'to'
p3227
aS'present'
p3228
aaa(lp3229
g3211
a(lp3230
S'say'
p3231
aS'for'
p3232
aS'instance'
p3233
aaa(lp3234
g3211
a(lp3235
S'its'
p3236
aS'overall'
p3237
aS'plan'
p3238
aaa(lp3239
g3211
a(lp3240
S'for'
p3241
aS'conducting'
p3242
aS'the'
p3243
aS'city'
p3244
aaa(lp3245
g3211
a(lp3246
S'So'
p3247
aS'everyone'
p3248
aS'can'
p3249
aS'see'
p3250
aaa(lp3251
g3211
a(lp3252
S'their'
p3253
aS'seat'
p3254
aaa(lp3255
g3211
a(lp3256
S'in'
p3257
aS'the'
p3258
aS'auditorium'
p3259
aaa(lp3260
g3211
a(lp3261
S'or'
p3262
aS'their'
p3263
aS'place'
p3264
aS'around'
p3265
aS'the'
p3266
aS'table'
p3267
aaa(lp3268
g3211
a(lp3269
S'and'
p3270
aS'how'
p3271
aS'long'
p3272
aS'will'
p3273
aS'they'
p3274
aS'have'
p3275
aS'to'
p3276
aS'wait'
p3277
aS'for'
p3278
aS'their'
p3279
aS'turn'
p3280
aS'for'
p3281
aS'development'
p3282
aaa(lp3283
g3211
a(lp3284
S'when'
p3285
aS'will'
p3286
aS'their'
p3287
aS'interests'
p3288
aS'be'
p3289
aS'served'
p3290
aaa(lp3291
g3211
a(lp3292
S'so'
p3293
aaa(lp3294
g3211
a(lp3295
S'this'
p3296
aS'empowerment'
p3297
aS'zone'
p3298
aaa(lp3299
g3211
a(lp3300
S'it'
p3301
aS'simply'
p3302
aS'seems'
p3303
aS'to'
p3304
aS'me'
p3305
aaa(lp3306
g3211
a(lp3307
S'is'
p3308
aS'opening'
p3309
ag84
aS'Pandoras'
p3310
aS'Box'
p3311
aaa(lp3312
S'PATTY'
p3313
a(lp3314
S'Go'
p3315
aS'ahead'
p3316
aaa(lp3317
g3313
a(lp3318
S'Well'
p3319
aS'to'
p3320
aaa(lp3321
g3313
a(lp3322
S'let'
p3323
aS'me'
p3324
aS'answer'
p3325
aS'your'
p3326
aS'question'
p3327
aS'in'
p3328
aS'terms'
p3329
aS'of'
p3330
aS'the'
p3331
aS'um'
p3332
aaa(lp3333
g3313
a(lp3334
S'uh'
p3335
aaa(lp3336
g3313
a(lp3337
S'proposed'
p3338
aS'plans'
p3339
aaa(lp3340
g3313
a(lp3341
g4
aS'mean'
p3342
aS'right'
p3343
aS'now'
p3344
aaa(lp3345
g3313
a(lp3346
S'the'
p3347
aS'um'
p3348
aS'coordinating'
p3349
aS'council'
p3350
aaa(lp3351
g3313
a(lp3352
S'is'
p3353
aS'making'
p3354
aS'the'
p3355
aS'selection'
p3356
aaa(lp3357
g3313
a(lp3358
S'based'
p3359
aS'on'
p3360
aS'the'
p3361
aS'information'
p3362
aaa(lp3363
g3313
a(lp3364
S'that'
p3365
aS'is'
p3366
aS'received'
p3367
aS'from'
p3368
aS'the'
p3369
aS'community'
p3370
aaa(lp3371
g3313
a(lp3372
S'And'
p3373
aS'obviously'
p3374
aS'there'
p3375
aS'there'
p3376
aS'are'
p3377
aS'other'
p3378
aS'issues'
p3379
aS'to'
p3380
aS'look'
p3381
aS'at'
p3382
aaa(lp3383
g3313
a(lp3384
S'for'
p3385
aS'example'
p3386
aaa(lp3387
g3313
a(lp3388
S'um'
p3389
aaa(lp3390
g3313
a(lp3391
S'organizations'
p3392
aS'that'
p3393
aS'may'
p3394
aS'be'
p3395
aS'involved'
p3396
aS'in'
p3397
aS'um'
p3398
aS'current'
p3399
aS'work'
p3400
aaa(lp3401
g3313
a(lp3402
S'their'
p3403
aS'ability'
p3404
aaa(lp3405
g3313
a(lp3406
S'new'
p3407
aS'organizations'
p3408
aaa(lp3409
g3313
a(lp3410
S'new'
p3411
aS'ideas'
p3412
aaa(lp3413
g3313
a(lp3414
g4
aS'mean'
p3415
aS'all'
p3416
aS'that'
p3417
aS'is'
p3418
aS'getting'
p3419
aaa(lp3420
g3313
a(lp3421
S'is'
p3422
aS'thrown'
p3423
aS'in'
p3424
aS'the'
p3425
aS'pot'
p3426
aaa(lp3427
g3313
a(lp3428
S'and'
p3429
ag4
aS'dont'
p3430
aS'think'
p3431
aS'that'
p3432
aS'any'
p3433
aS'community'
p3434
aS'that'
p3435
aS'has'
p3436
aS'an'
p3437
aS'existing'
p3438
aS'plan'
p3439
aaa(lp3440
g3313
a(lp3441
S'has'
p3442
ag84
aS'leg'
p3443
aS'up'
p3444
aaa(lp3445
g3313
a(lp3446
S'on'
p3447
aS'any'
p3448
aS'one'
p3449
aS'else'
p3450
aS'who'
p3451
aS'has'
p3452
ag84
aS'new'
p3453
aS'idea'
p3454
aS'that'
p3455
aS'may'
p3456
aS'not'
p3457
aS'be'
p3458
aS'part'
p3459
aS'of'
p3460
ag84
aS'plan'
p3461
aaa(lp3462
S'DAN'
p3463
a(lp3464
S'Uh'
p3465
aaa(lp3466
g3463
a(lp3467
S'are'
p3468
aS'they'
p3469
aS'explaining'
p3470
aS'the'
p3471
aS'uh'
p3472
aaa(lp3473
g3463
a(lp3474
S'for'
p3475
aS'example'
p3476
ag4
aaa(lp3477
g3463
a(lp3478
S'dont'
p3479
aS'know'
p3480
aS'if'
p3481
aS'Londa'
p3482
aS'White'
p3483
aS'is'
p3484
aS'here'
p3485
aaa(lp3486
g3463
a(lp3487
g213
aS'uh'
p3488
aS'theoretical'
p3489
aaa(lp3490
g3463
a(lp3491
S'at'
p3492
ag84
aS'uh'
p3493
aaa(lp3494
g3463
a(lp3495
g84
aS'uh'
p3496
aS'community'
p3497
aS'meeting'
p3498
aS'last'
p3499
aS'month'
p3500
aaa(lp3501
g3463
a(lp3502
S'in'
p3503
aS'which'
p3504
aS'uh'
p3505
ag84
aS'lot'
p3506
aS'of'
p3507
aS'uh'
p3508
aS'selection'
p3509
aS'criteria'
p3510
aS'were'
p3511
aaa(lp3512
g3463
a(lp3513
S'uh'
p3514
aaa(lp3515
g3463
a(lp3516
S'drawn'
p3517
aS'up'
p3518
aaa(lp3519
g3463
a(lp3520
g4
aS'was'
p3521
aS'wondering'
p3522
aaa(lp3523
g3463
a(lp3524
S'if'
p3525
aS'is'
p3526
aS'the'
p3527
aS'council'
p3528
aS'gonna'
p3529
aS'absorb'
p3530
aS'that'
p3531
aS'into'
p3532
aS'the'
p3533
aS'selection'
p3534
aS'process'
p3535
aS'also'
p3536
aaa(lp3537
S'PATTY'
p3538
a(lp3539
S'The'
p3540
aS'council'
p3541
aaa(lp3542
g3538
a(lp3543
S'has'
p3544
aS'uh'
p3545
aaa(lp3546
g3538
a(lp3547
S'received'
p3548
ag84
aS'copy'
p3549
aS'of'
p3550
aS'that'
p3551
aaa(lp3552
g3538
a(lp3553
S'and'
p3554
aS'the'
p3555
aS'council'
p3556
aS'has'
p3557
aS'seen'
p3558
aS'portions'
p3559
aS'of'
p3560
aS'uh'
p3561
aaa(lp3562
g3538
a(lp3563
S'of'
p3564
aS'the'
p3565
aS'Seaway'
p3566
aS'principles'
p3567
aaa(lp3568
g3538
a(lp3569
S'some'
p3570
aS'of'
p3571
aS'those'
p3572
aS'principles'
p3573
aS'have'
p3574
aS'been'
p3575
aaa(lp3576
g3538
a(lp3577
S'are'
p3578
aS'included'
p3579
aS'in'
p3580
aS'what'
p3581
aS'we'
p3582
aS'have'
p3583
aS'tonight'
p3584
aaa(lp3585
S'AUD'
p3586
a(lp3587
aa(lp3588
S'PATTY'
p3589
a(lp3590
S'Others'
p3591
aS'are'
p3592
aS'really'
p3593
aS'principles'
p3594
aaa(lp3595
g3589
a(lp3596
S'for'
p3597
aS'the'
p3598
aS'zone'
p3599
aS'itself'
p3600
aaa(lp3601
g3589
a(lp3602
S'and'
p3603
aS'how'
p3604
aS'the'
p3605
aS'makeup'
p3606
aS'of'
p3607
aS'the'
p3608
aS'zone'
p3609
aS'will'
p3610
aS'be'
p3611
aaa(lp3612
g3589
a(lp3613
S'And'
p3614
aS'that'
p3615
aS'is'
p3616
aS'going'
p3617
aS'to'
p3618
aS'be'
p3619
aS'handed'
p3620
aS'out'
p3621
aS'to'
p3622
aS'the'
p3623
aS'uh'
p3624
aS'Coordinating'
p3625
aS'Council'
p3626
aaa(lp3627
g3589
a(lp3628
S'this'
p3629
aS'Thursday'
p3630
aaa(lp3631
S'DAN'
p3632
a(lp3633
S'Uh'
p3634
aaa(lp3635
g3632
a(lp3636
S'm'
p3637
ag3637
aS'my'
p3638
aS'third'
p3639
aS'question'
p3640
aS'is'
p3641
aS'on'
p3642
aS'the'
p3643
aS'final'
p3644
aS'program'
p3645
aaa(lp3646
g3632
a(lp3647
g4
aS'think'
p3648
aS'this'
p3649
aS'gentleman'
p3650
aS'again'
p3651
aS'spoke'
p3652
aS'very'
p3653
aaa(lp3654
g3632
a(lp3655
S'very'
p3656
aS'adequately'
p3657
aS'to'
p3658
aS'it'
p3659
aaa(lp3660
g3632
a(lp3661
S'um'
p3662
aaa(lp3663
g3632
a(lp3664
S'it'
p3665
aS'seems'
p3666
aS'to'
p3667
aS'me'
p3668
aaa(lp3669
g3632
a(lp3670
S'again'
p3671
aaa(lp3672
g3632
a(lp3673
S'this'
p3674
aS'idea'
p3675
aS'of'
p3676
aS'building'
p3677
aS'consensus'
p3678
aaa(lp3679
g3632
a(lp3680
S'That'
p3681
aaa(lp3682
g3632
a(lp3683
S'if'
p3684
aS'were'
p3685
aS'able'
p3686
aS'to'
p3687
aS'make'
p3688
aS'this'
p3689
aaa(lp3690
g3632
a(lp3691
g84
aS'program'
p3692
aS'like'
p3693
aS'this'
p3694
aS'work'
p3695
aaa(lp3696
g3632
a(lp3697
S'over'
p3698
aS'such'
p3699
ag84
aS'long'
p3700
aS'time'
p3701
aaa(lp3702
g3632
a(lp3703
S'That'
p3704
aS'the'
p3705
aS'city'
p3706
aaa(lp3707
g3632
a(lp3708
S'and'
p3709
aS'in'
p3710
aS'fact'
p3711
aS'its'
p3712
aS'stated'
p3713
aS'in'
p3714
aS'the'
p3715
aS'uh'
p3716
aaa(lp3717
g3632
a(lp3718
S'uh'
p3719
aaa(lp3720
g3632
a(lp3721
S'proposal'
p3722
aaa(lp3723
g3632
a(lp3724
S'the'
p3725
aS'uh'
p3726
aS'HUD'
p3727
aS'application'
p3728
aS'proposal'
p3729
aS'that'
p3730
aaa(lp3731
g3632
a(lp3732
S'the'
p3733
aS'uh'
p3734
aaa(lp3735
g3632
a(lp3736
S'governing'
p3737
aS'body'
p3738
aaa(lp3739
g3632
a(lp3740
S'making'
p3741
aS'the'
p3742
aS'application'
p3743
aaa(lp3744
g3632
a(lp3745
S'must'
p3746
aS'provide'
p3747
ag84
aS'ssurance'
p3748
aS'and'
p3749
aS'evidence'
p3750
aaa(lp3751
g3632
a(lp3752
S'that'
p3753
aS'this'
p3754
aS'uh'
p3755
aaa(lp3756
g3632
a(lp3757
S'uh'
p3758
aS'empowerment'
p3759
aS'zone'
p3760
aS'plan'
p3761
aaa(lp3762
g3632
a(lp3763
S'is'
p3764
aS'gonna'
p3765
aS'be'
p3766
aS'adhered'
p3767
aS'to'
p3768
aS'and'
p3769
aS'implemented'
p3770
aaa(lp3771
g3632
a(lp3772
S'and'
p3773
aS'it'
p3774
aS'seems'
p3775
aS'to'
p3776
aS'me'
p3777
aS'that'
p3778
aaa(lp3779
g3632
a(lp3780
S'one'
p3781
aS'of'
p3782
aS'the'
p3783
aS'most'
p3784
aS'fundawen'
p3785
aS'fundamental'
p3786
aS'and'
p3787
aS'best'
p3788
aS'ways'
p3789
aS'to'
p3790
aS'have'
p3791
aS'this'
p3792
aS'done'
p3793
aaa(lp3794
g3632
a(lp3795
S'would'
p3796
aS'be'
p3797
aS'for'
p3798
aS'the'
p3799
aS'city'
p3800
aS'to'
p3801
aS'come'
p3802
aS'up'
p3803
aS'with'
p3804
ag84
aS'comprehensive'
p3805
aS'plan'
p3806
aaa(lp3807
S'AUD'
p3808
a(lp3809
aa(lp3810
S'DAN'
p3811
a(lp3812
S'that'
p3813
aS'follows'
p3814
aS'guidelines'
p3815
aaa(lp3816
g3811
a(lp3817
S'that'
p3818
aS'would'
p3819
aS'ensure'
p3820
aaa(lp3821
g3811
a(lp3822
S'that'
p3823
aS'whats'
p3824
aS'happening'
p3825
aS'in'
p3826
aS'the'
p3827
aS'empowerment'
p3828
aS'zone'
p3829
aaa(lp3830
g3811
a(lp3831
S'is'
p3832
aS'indeed'
p3833
aS'the'
p3834
aS'seed'
p3835
aS'program'
p3836
aS'thats'
p3837
aS'gonna'
p3838
aS'be'
p3839
aS'followed'
p3840
aaa(lp3841
g3811
a(lp3842
S'and'
p3843
aS'be'
p3844
aS'able'
p3845
aS'to'
p3846
aS'be'
p3847
aS'dis'
p3848
aS'distributed'
p3849
aS'to'
p3850
aS'other'
p3851
aS'areas'
p3852
aS'of'
p3853
aS'the'
p3854
aS'city'
p3855
aS'and'
p3856
aaa(lp3857
g3811
a(lp3858
S'and'
p3859
aS'built'
p3860
aS'on'
p3861
aS'in'
p3862
aS'other'
p3863
aS'areas'
p3864
aS'of'
p3865
aS'the'
p3866
aS'city'
p3867
aaa(lp3868
g3811
a(lp3869
S'does'
p3870
aS'the'
p3871
aS'city'
p3872
aS'have'
p3873
aS'any'
p3874
aaa(lp3875
g3811
a(lp3876
S'uh'
p3877
aaa(lp3878
g3811
a(lp3879
S'plans'
p3880
aaa(lp3881
g3811
a(lp3882
S'uh'
p3883
aS'any'
p3884
aS'any'
p3885
aS'hope'
p3886
aS'of'
p3887
aaa(lp3888
g3811
a(lp3889
S'coming'
p3890
aS'up'
p3891
aS'with'
p3892
ag84
aS'comprehensive'
p3893
aS'plan'
p3894
aaa(lp3895
g3811
a(lp3896
S'for'
p3897
aS'developing'
p3898
aS'the'
p3899
aS'city'
p3900
aaa(lp3901
S'PATTY'
p3902
a(lp3903
S'We'
p3904
aS'do'
p3905
aS'not'
p3906
aS'have'
p3907
ag84
aS'comprehensive'
p3908
aS'plan'
p3909
aS'for'
p3910
aS'the'
p3911
aS'city'
p3912
aS'of'
p3913
aS'Chicago'
p3914
aaa(lp3915
S'DAN'
p3916
a(lp3917
S'Does'
p3918
aS'the'
p3919
aS'city'
p3920
aS'have'
p3921
aaa(lp3922
S'PATTY'
p3923
a(lp3924
S'We'
p3925
aS'have'
p3926
aaa(lp3927
S'DAN'
p3928
a(lp3929
S'any'
p3930
aS'hopes'
p3931
aS'of'
p3932
aaa(lp3933
S'PATTY'
p3934
a(lp3935
S'policies'
p3936
aS'for'
p3937
aS'development'
p3938
aaa(lp3939
g3934
a(lp3940
S'and'
p3941
aS'we'
p3942
aS'have'
p3943
aS'been'
p3944
aS'identifying'
p3945
aS'places'
p3946
aaa(lp3947
g3934
a(lp3948
S'that'
p3949
aS'have'
p3950
aS'plans'
p3951
aaa(lp3952
g3934
a(lp3953
S'and'
p3954
aS'trying'
p3955
aS'to'
p3956
aS'get'
p3957
aS'things'
p3958
aS'done'
p3959
aaa(lp3960
g3934
a(lp3961
g1453
aS'comprehensive'
p3962
aS'plan'
p3963
aaa(lp3964
g3934
a(lp3965
S'requires'
p3966
aaa(lp3967
g3934
a(lp3968
S'uh'
p3969
aaa(lp3970
g3934
a(lp3971
S'the'
p3972
aS'infusion'
p3973
aS'of'
p3974
aS'many'
p3975
aS'many'
p3976
aS'dollars'
p3977
aaa(lp3978
g3934
a(lp3979
S'much'
p3980
aS'more'
p3981
aS'than'
p3982
aS'is'
p3983
aS'available'
p3984
aaa(lp3985
g3934
a(lp3986
S'you'
p3987
aS'know'
p3988
aaa(lp3989
g3934
a(lp3990
S'within'
p3991
aS'the'
p3992
aS'city'
p3993
aS'budget'
p3994
aaa(lp3995
g3934
a(lp3996
S'to'
p3997
aS'implement'
p3998
ag84
aS'plan'
p3999
aaa(lp4000
g3934
a(lp4001
S'and'
p4002
aaa(lp4003
g3934
a(lp4004
S'at'
p4005
aS'this'
p4006
aS'point'
p4007
aaa(lp4008
g3934
a(lp4009
S'we'
p4010
aS'are'
p4011
aS'looking'
p4012
aS'at'
p4013
aaa(lp4014
g3934
a(lp4015
S'ways'
p4016
aS'to'
p4017
aS'be'
p4018
aS'strategic'
p4019
aaa(lp4020
g3934
a(lp4021
S'in'
p4022
aS'how'
p4023
aS'we'
p4024
aS'invest'
p4025
aS'our'
p4026
aS'money'
p4027
aaa(lp4028
g3934
a(lp4029
S'and'
p4030
aS'the'
p4031
aS'empowerment'
p4032
aS'zone'
p4033
aS'is'
p4034
aS'an'
p4035
aS'e'
p4036
aS'is'
p4037
aS'an'
p4038
aS'example'
p4039
aaa(lp4040
g3934
a(lp4041
S'of'
p4042
aS'an'
p4043
aS'of'
p4044
aS'an'
p4045
aS'area'
p4046
aS'where'
p4047
aS'we'
p4048
aS'are'
p4049
aS'going'
p4050
aS'to'
p4051
aS'do'
p4052
aS'some'
p4053
aS'strategic'
p4054
aS'planning'
p4055
aS'along'
p4056
aS'with'
p4057
aS'the'
p4058
aS'community'
p4059
aaa(lp4060
g3934
a(lp4061
S'which'
p4062
aS'will'
p4063
aS'lead'
p4064
aS'to'
p4065
aS'implementation'
p4066
aaa(lp4067
g3934
a(lp4068
S'and'
p4069
aS'investing'
p4070
aS'in'
p4071
aS'our'
p4072
aS'plan'
p4073
aaa(lp4074
S'DAN'
p4075
a(lp4076
S'Correct'
p4077
aaa(lp4078
g4075
a(lp4079
S'Would'
p4080
aS'you'
p4081
aS'say'
p4082
aS'its'
p4083
aS'only'
p4084
aaa(lp4085
g4075
a(lp4086
S'we'
p4087
aS'only'
p4088
aS'have'
p4089
aS'policy'
p4090
aS'guidelines'
p4091
aaa(lp4092
g4075
a(lp4093
S'and'
p4094
aS'when'
p4095
aaa(lp4096
g4075
a(lp4097
S'when'
p4098
aS'administrations'
p4099
aS'change'
p4100
aaa(lp4101
g4075
a(lp4102
S'policies'
p4103
aS'change'
p4104
aaa(lp4105
g4075
a(lp4106
S'What'
p4107
aS'Im'
p4108
aS'talking'
p4109
aS'about'
p4110
aS'is'
p4111
aS'that'
p4112
aaa(lp4113
g4075
a(lp4114
S'cities'
p4115
aS'that'
p4116
aS'we'
p4117
aS'are'
p4118
aS'competing'
p4119
aS'against'
p4120
aaa(lp4121
g4075
a(lp4122
S'Seattle'
p4123
aaa(lp4124
g4075
a(lp4125
S'San'
p4126
aS'Antonio'
p4127
aaa(lp4128
g4075
a(lp4129
S'Minneapolis'
p4130
aaa(lp4131
g4075
a(lp4132
S'theyve'
p4133
aS'got'
p4134
aaa(lp4135
g4075
a(lp4136
S'comprehensive'
p4137
aS'plans'
p4138
aaa(lp4139
g4075
a(lp4140
S'for'
p4141
aS'the'
p4142
aS'development'
p4143
aS'of'
p4144
aS'their'
p4145
aS'cities'
p4146
aaa(lp4147
g4075
a(lp4148
S'And'
p4149
aaa(lp4150
g4075
a(lp4151
S'that'
p4152
aaa(lp4153
S'PATTY'
p4154
a(lp4155
S'some'
p4156
aS'of'
p4157
aS'them'
p4158
aS'do'
p4159
aS'and'
p4160
aS'some'
p4161
aS'of'
p4162
aS'them'
p4163
aS'do'
p4164
aS'not'
p4165
aaa(lp4166
S'DAN'
p4167
a(lp4168
S'The'
p4169
aS'ones'
p4170
aS'that'
p4171
ag4
aS'just'
p4172
aS'mentioned'
p4173
aS'do'
p4174
aaa(lp4175
S'PATTY'
p4176
a(lp4177
aa(lp4178
S'DAN'
p4179
a(lp4180
S'Alright'
p4181
aaa(lp4182
S'PATTY'
p4183
a(lp4184
aa(lp4185
S'DAN'
p4186
a(lp4187
S'And'
p4188
aaa(lp4189
g4186
a(lp4190
S'my'
p4191
aS'point'
p4192
aS'is'
p4193
aaa(lp4194
S'PATTY'
p4195
a(lp4196
S'Some'
p4197
aS'of'
p4198
aS'them'
p4199
aS'do'
p4200
aaa(lp4201
S'DAN'
p4202
a(lp4203
S'that'
p4204
aaa(lp4205
S'PATTY'
p4206
a(lp4207
S'and'
p4208
aS'some'
p4209
aS'of'
p4210
aS'them'
p4211
aS'do'
p4212
aS'not'
p4213
aaa(lp4214
S'DAN'
p4215
a(lp4216
S'The'
p4217
aS'ones'
p4218
aS'that'
p4219
ag4
aS'just'
p4220
aS'mentioned'
p4221
aS'do'
p4222
aaa(lp4223
g4215
a(lp4224
S'And'
p4225
aaa(lp4226
g4215
a(lp4227
S'my'
p4228
aaa(lp4229
g4215
a(lp4230
S'my'
p4231
aS'point'
p4232
aS'is'
p4233
aaa(lp4234
g4215
a(lp4235
S'that'
p4236
aaa(lp4237
g4215
a(lp4238
S'it'
p4239
aS'seems'
p4240
aS'to'
p4241
aS'us'
p4242
aS'that'
p4243
aaa(lp4244
g4215
a(lp4245
S'it'
p4246
aS'it'
p4247
aS'it'
p4248
aS'seems'
p4249
aS'to'
p4250
aS'me'
p4251
aS'that'
p4252
aaa(lp4253
g4215
a(lp4254
S'it'
p4255
aS'would'
p4256
aS'give'
p4257
aS'us'
p4258
aS'as'
p4259
aS'Chicago'
p4260
aaa(lp4261
g4215
a(lp4262
g84
aS'much'
p4263
aS'better'
p4264
aS'footing'
p4265
aS'with'
p4266
aS'government'
p4267
aaa(lp4268
g4215
a(lp4269
S'if'
p4270
aS'we'
p4271
aS'said'
p4272
aaa(lp4273
g4215
a(lp4274
S'that'
p4275
aS'we'
p4276
aS'had'
p4277
ag84
aS'comprehensive'
p4278
aS'plan'
p4279
aaa(lp4280
g4215
a(lp4281
S'that'
p4282
aS'was'
p4283
aS'gonna'
p4284
aS'ensure'
p4285
aaa(lp4286
g4215
a(lp4287
S'that'
p4288
aS'these'
p4289
aS'things'
p4290
aS'are'
p4291
aS'going'
p4292
aS'to'
p4293
aS'be'
p4294
aaa(lp4295
S'PATTY'
p4296
a(lp4297
S'Well'
p4298
aS'sir'
p4299
aaa(lp4300
S'DAN'
p4301
a(lp4302
S'XX'
p4303
aS'XX'
p4304
ag488
aaa(lp4305
S'PATTY'
p4306
a(lp4307
S'considering'
p4308
aS'that'
p4309
aS'our'
p4310
aS'plan'
p4311
aS'is'
p4312
aS'due'
p4313
aS'June'
p4314
aS'thirtieth'
p4315
aaa(lp4316
g4306
a(lp4317
S'and'
p4318
aS'considering'
p4319
aS'that'
p4320
aS'between'
p4321
aS'now'
p4322
aS'and'
p4323
aS'then'
p4324
aaa(lp4325
g4306
a(lp4326
S'we'
p4327
aS'will'
p4328
aS'not'
p4329
aS'have'
p4330
ag84
aS'comprehensive'
p4331
aS'plan'
p4332
aaa(lp4333
g4306
a(lp4334
S'for'
p4335
aS'the'
p4336
aS'city'
p4337
aS'of'
p4338
aS'Chicago'
p4339
aaa(lp4340
g4306
a(lp4341
S'um'
p4342
aaa(lp4343
g4306
a(lp4344
S'Im'
p4345
aS'not'
p4346
aS'quite'
p4347
aS'sure'
p4348
aS'where'
p4349
aS'to'
p4350
aS'go'
p4351
aS'with'
p4352
aS'your'
p4353
aS'question'
p4354
aaa(lp4355
S'AUD'
p4356
a(lp4357
aa(lp4358
S'PATTY'
p4359
a(lp4360
S'Oh'
p4361
aS'Im'
p4362
ag213
aaa(lp4363
g4359
a(lp4364
S'Im'
p4365
aS'sorry'
p4366
aaa(lp4367
S'DEREK'
p4368
a(lp4369
S'Oh'
p4370
aaa(lp4371
S'BERNIE'
p4372
a(lp4373
S'go'
p4374
aS'ahead'
p4375
aaa(lp4376
g4372
a(lp4377
S'go'
p4378
aS'ahead'
p4379
aaa(lp4380
S'PATTY'
p4381
a(lp4382
g488
aS'Bernie'
p4383
ag488
aaa(lp4384
S'BERNIE'
p4385
a(lp4386
g4
aS'ha'
p4387
aaa(lp4388
g4385
a(lp4389
g488
ag4
aS'just'
p4390
aS'wanted'
p4391
aS'to'
p4392
aS'make'
p4393
ag84
aS'friendly'
p4394
aS'remind'
p4395
ag488
aaa(lp4396
S'PATTY'
p4397
a(lp4398
g488
aaa(lp4399
g4397
a(lp4400
S'Im'
p4401
aS'sorry'
p4402
aS'Derek'
p4403
aaa(lp4404
S'DEREK'
p4405
a(lp4406
S'Um'
p4407
aaa(lp4408
g4405
a(lp4409
S'My'
p4410
aS'names'
p4411
aS'Derek'
p4412
aS'Williams'
p4413
aaa(lp4414
g4405
a(lp4415
S'Im'
p4416
aaa(lp4417
g4405
a(lp4418
S'Im'
p4419
aS'with'
p4420
aS'the'
p4421
aS'HORN'
p4422
aS'association'
p4423
aS'of'
p4424
aS'men'
p4425
aaa(lp4426
g4405
a(lp4427
S'and'
p4428
aS'uh'
p4429
aaa(lp4430
g4405
a(lp4431
g4
ag4
aS'think'
p4432
aS'we'
p4433
aS'need'
p4434
aS'to'
p4435
aS'recognize'
p4436
aS'that'
p4437
aS'uh'
p4438
aaa(lp4439
g4405
a(lp4440
S'uh'
p4441
aS'this'
p4442
aS'is'
p4443
aS'an'
p4444
aS'opportunity'
p4445
aaa(lp4446
g4405
a(lp4447
S'and'
p4448
aS'its'
p4449
aS'not'
p4450
ag84
aS'threat'
p4451
aaa(lp4452
g4405
a(lp4453
S'Uh'
p4454
aaa(lp4455
g4405
a(lp4456
S'consensus'
p4457
aS'do'
p4458
aS'not'
p4459
aS'build'
p4460
aS'themselves'
p4461
aaa(lp4462
g4405
a(lp4463
S'And'
p4464
aaa(lp4465
g4405
a(lp4466
S'and'
p4467
aS'if'
p4468
aS'we'
p4469
aS'just'
p4470
aS'be'
p4471
aS'perfectly'
p4472
aS'honest'
p4473
aS'with'
p4474
aS'each'
p4475
aS'other'
p4476
aaa(lp4477
g4405
a(lp4478
S'the'
p4479
aS'only'
p4480
aS'reason'
p4481
aS'that'
p4482
aS'were'
p4483
aS'all'
p4484
aS'in'
p4485
aS'this'
p4486
aS'room'
p4487
aS'is'
p4488
aS'because'
p4489
aS'we'
p4490
aS'heard'
p4491
aaa(lp4492
g4405
a(lp4493
S'about'
p4494
ag84
aS'hundred'
p4495
aS'million'
p4496
aS'dollars'
p4497
aaa(lp4498
S'MANY'
p4499
a(lp4500
aa(lp4501
S'DEREK'
p4502
a(lp4503
S'And'
p4504
aS'thats'
p4505
aS'what'
p4506
aS'everybodys'
p4507
aS'worried'
p4508
aS'about'
p4509
aaa(lp4510
g4502
a(lp4511
S'Uh'
p4512
aaa(lp4513
g4502
a(lp4514
S'its'
p4515
aS'impossible'
p4516
aS'for'
p4517
aS'any'
p4518
aS'city'
p4519
aS'to'
p4520
aS'have'
p4521
ag84
aS'comprehensive'
p4522
aS'plan'
p4523
aaa(lp4524
g4502
a(lp4525
S'because'
p4526
aS'we'
p4527
aS'dont'
p4528
aS'have'
p4529
aS'comprehensive'
p4530
aS'people'
p4531
aaa(lp4532
g4502
a(lp4533
S'First'
p4534
aS'of'
p4535
aS'all'
p4536
aaa(lp4537
g4502
a(lp4538
S'And'
p4539
ag4
aS'think'
p4540
aS'we'
p4541
aS'just'
p4542
aS'need'
p4543
aS'to'
p4544
aaa(lp4545
g4502
a(lp4546
S'given'
p4547
aS'the'
p4548
aS'information'
p4549
aS'thats'
p4550
aS'out'
p4551
aS'there'
p4552
aaa(lp4553
g4502
a(lp4554
S'we'
p4555
aS'need'
p4556
aS'to'
p4557
aS'try'
p4558
aS'to'
p4559
aS'make'
p4560
aS'it'
p4561
aS'as'
p4562
aS'meaningful'
p4563
aS'as'
p4564
aS'we'
p4565
aS'can'
p4566
aS'to'
p4567
aS'our'
p4568
aS'constituents'
p4569
aaa(lp4570
g4502
a(lp4571
S'Uh'
p4572
aaa(lp4573
g4502
a(lp4574
S'be'
p4575
aS'honestly'
p4576
aS'speaking'
p4577
aS'with'
p4578
aS'you'
p4579
aaa(lp4580
g4502
a(lp4581
S'uh'
p4582
ag4
aS'come'
p4583
aS'from'
p4584
aS'an'
p4585
aS'organization'
p4586
aS'with'
p4587
aS'five'
p4588
aS'hundred'
p4589
aS'members'
p4590
aaa(lp4591
g4502
a(lp4592
S'and'
p4593
aS'empowerment'
p4594
aS'zone'
p4595
aS'has'
p4596
aS'absolutely'
p4597
aS'no'
p4598
aS'meaning'
p4599
aaa(lp4600
g4502
a(lp4601
S'to'
p4602
aS'just'
p4603
aS'about'
p4604
aS'eighty'
p4605
aS'percent'
p4606
aS'of'
p4607
aS'our'
p4608
aS'population'
p4609
aaa(lp4610
g4502
a(lp4611
S'For'
p4612
aS'the'
p4613
aS'simple'
p4614
aS'reason'
p4615
aaa(lp4616
g4502
a(lp4617
S'we'
p4618
aS'get'
p4619
aS'caught'
p4620
aS'up'
p4621
aS'in'
p4622
aaa(lp4623
g4502
a(lp4624
S'in'
p4625
aS'in'
p4626
aS'all'
p4627
aS'of'
p4628
aS'the'
p4629
aS'rhetoric'
p4630
aaa(lp4631
g4502
a(lp4632
S'um'
p4633
aaa(lp4634
g4502
a(lp4635
S'we'
p4636
aS'we'
p4637
aS'constantly'
p4638
aS'challenge'
p4639
aS'each'
p4640
aS'other'
p4641
aaa(lp4642
g4502
a(lp4643
S'and'
p4644
ag4
aaa(lp4645
g4502
a(lp4646
g4
aS'dont'
p4647
aS'think'
p4648
aS'this'
p4649
aS'is'
p4650
aS'the'
p4651
aS'time'
p4652
aS'for'
p4653
aS'that'
p4654
aaa(lp4655
g4502
a(lp4656
g4
ag4
aS'think'
p4657
aS'we'
p4658
aS'should'
p4659
aS'be'
p4660
aS'trying'
p4661
aS'to'
p4662
aS'focus'
p4663
aS'on'
p4664
aaa(lp4665
g4502
a(lp4666
S'the'
p4667
aS'information'
p4668
aS'thats'
p4669
aS'available'
p4670
aaa(lp4671
g4502
a(lp4672
S'and'
p4673
aS'and'
p4674
aS'and'
p4675
aS'meet'
p4676
aS'the'
p4677
aS'challenge'
p4678
aaa(lp4679
g4502
a(lp4680
S'And'
p4681
ag4
aS'and'
p4682
ag4
aS'think'
p4683
aS'we'
p4684
aS'can'
p4685
aS'do'
p4686
aS'that'
p4687
aaa(lp4688
g4502
a(lp4689
S'And'
p4690
aS'in'
p4691
aaa(lp4692
g4502
a(lp4693
S'and'
p4694
aS'again'
p4695
aaa(lp4696
g4502
a(lp4697
S'this'
p4698
aS'is'
p4699
aS'an'
p4700
aS'opportunity'
p4701
aaa(lp4702
g4502
a(lp4703
S'to'
p4704
aS'meet'
p4705
aS'the'
p4706
aS'challenge'
p4707
aaa(lp4708
S'MANY'
p4709
a(lp4710
aa(lp4711
S'PATTY'
p4712
a(lp4713
S'Thanks'
p4714
aS'Derek'
p4715
aaa(lp4716
g4712
a(lp4717
S'thats'
p4718
aS'why'
p4719
ag4
aS'guess'
p4720
aS'youre'
p4721
aS'sitting'
p4722
aS'in'
p4723
aS'the'
p4724
aS'front'
p4725
aS'row'
p4726
aaa(lp4727
g4712
a(lp4728
S'Um'
p4729
aS'Paul'
p4730
aaa(lp4731
S'PAUL'
p4732
a(lp4733
S'Derek'
p4734
ag4
aaa(lp4735
g4732
a(lp4736
g4
aS'appreciate'
p4737
aS'following'
p4738
aS'you'
p4739
aaa(lp4740
S'DEREK'
p4741
a(lp4742
S'Thanks'
p4743
aaa(lp4744
S'PAUL'
p4745
a(lp4746
S'Well'
p4747
aS'see'
p4748
aS'Idve'
p4749
aS'been'
p4750
aS'kinda'
p4751
aS'frustrated'
p4752
aaa(lp4753
g4745
a(lp4754
S'trying'
p4755
aS'to'
p4756
aS'say'
p4757
aS'what'
p4758
aS'you'
p4759
aS'said'
p4760
aaa(lp4761
g4745
a(lp4762
S'some'
p4763
aS'of'
p4764
aS'it'
p4765
aaa(lp4766
g4745
a(lp4767
S'Id'
p4768
aS'like'
p4769
aS'to'
p4770
aaa(lp4771
g4745
a(lp4772
S'just'
p4773
aS'for'
p4774
ag84
aS'couple'
p4775
aS'minutes'
p4776
aaa(lp4777
g4745
a(lp4778
S'set'
p4779
aS'the'
p4780
aS'record'
p4781
aS'straight'
p4782
aaa(lp4783
g4745
a(lp4784
S'on'
p4785
aS'what'
p4786
aS'empowerment'
p4787
aS'zones'
p4788
aS'are'
p4789
aaa(lp4790
g4745
a(lp4791
S'and'
p4792
aS'what'
p4793
aS'they'
p4794
aS'are'
p4795
aS'not'
p4796
aaa(lp4797
g4745
a(lp4798
S'according'
p4799
aS'to'
p4800
aS'my'
p4801
aS'own'
p4802
aS'understanding'
p4803
aaa(lp4804
g4745
a(lp4805
S'The'
p4806
aS'empowerment'
p4807
aS'zones'
p4808
aaa(lp4809
g4745
a(lp4810
S'were'
p4811
aS'implemented'
p4812
aaa(lp4813
g4745
a(lp4814
S'under'
p4815
aS'the'
p4816
aS'Clinton'
p4817
aS'administration'
p4818
aaa(lp4819
g4745
a(lp4820
S'They'
p4821
aS'did'
p4822
aS'not'
p4823
aS'start'
p4824
aS'under'
p4825
aS'the'
p4826
aS'Clinton'
p4827
aS'administration'
p4828
aaa(lp4829
g4745
a(lp4830
S'They'
p4831
aS'started'
p4832
aS'in'
p4833
aS'the'
p4834
aS'state'
p4835
aS'of'
p4836
aS'Illinois'
p4837
aaa(lp4838
g4745
a(lp4839
S'as'
p4840
aS'enterprise'
p4841
aS'zones'
p4842
aaa(lp4843
g4745
a(lp4844
S'back'
p4845
aS'in'
p4846
aS'the'
p4847
aS'eighties'
p4848
aaa(lp4849
g4745
a(lp4850
S'The'
p4851
aS'difference'
p4852
aS'between'
p4853
aS'empowerment'
p4854
aS'zones'
p4855
aaa(lp4856
g4745
a(lp4857
S'and'
p4858
aS'enterprise'
p4859
aS'zones'
p4860
aaa(lp4861
g4745
a(lp4862
S'is'
p4863
aS'that'
p4864
aS'the'
p4865
aS'federal'
p4866
aS'government'
p4867
aaa(lp4868
g4745
a(lp4869
S'for'
p4870
aS'twelve'
p4871
aS'years'
p4872
aaa(lp4873
g4745
a(lp4874
S'Congress'
p4875
aS'never'
p4876
aS'did'
p4877
aS'approve'
p4878
aaa(lp4879
g4745
a(lp4880
S'enterprise'
p4881
aS'zones'
p4882
aaa(lp4883
g4745
a(lp4884
S'at'
p4885
aS'the'
p4886
aS'federal'
p4887
aS'level'
p4888
aaa(lp4889
g4745
a(lp4890
S'By'
p4891
aS'the'
p4892
aS'time'
p4893
aS'they'
p4894
aS'were'
p4895
aS'approved'
p4896
aaa(lp4897
g4745
a(lp4898
S'Congress'
p4899
aaa(lp4900
g4745
a(lp4901
S'in'
p4902
aS'its'
p4903
aS'wisdom'
p4904
aaa(lp4905
g4745
a(lp4906
S'attached'
p4907
aS'funding'
p4908
aaa(lp4909
g4745
a(lp4910
S'criteria'
p4911
aaa(lp4912
g4745
a(lp4913
S'and'
p4914
aS'shifted'
p4915
aS'the'
p4916
aS'name'
p4917
aS'from'
p4918
aS'enterprise'
p4919
aS'zones'
p4920
aaa(lp4921
g4745
a(lp4922
S'to'
p4923
aS'empowerment'
p4924
aS'zones'
p4925
aaa(lp4926
g4745
a(lp4927
S'For'
p4928
aS'the'
p4929
aS'record'
p4930
aaa(lp4931
g4745
a(lp4932
g4
aS'do'
p4933
aS'not'
p4934
aS'live'
p4935
aS'in'
p4936
aS'CHA'
p4937
aaa(lp4938
g4745
a(lp4939
g4
aS'am'
p4940
aS'not'
p4941
aS'homeless'
p4942
aaa(lp4943
g4745
a(lp4944
g4
aS'do'
p4945
aS'not'
p4946
aS'transport'
p4947
aS'myself'
p4948
aaa(lp4949
g4745
a(lp4950
S'on'
p4951
aS'CTA'
p4952
aS'properties'
p4953
aaa(lp4954
g4745
a(lp4955
S'Im'
p4956
ag84
aS'veteran'
p4957
aaa(lp4958
g4745
a(lp4959
S'so'
p4960
ag4
aS'do'
p4961
aS'not'
p4962
aS'go'
p4963
aS'to'
p4964
aS'county'
p4965
aS'hospitals'
p4966
aaa(lp4967
g4745
a(lp4968
g4
aS'abide'
p4969
aS'by'
p4970
aS'the'
p4971
aS'law'
p4972
aaa(lp4973
g4745
a(lp4974
S'so'
p4975
aS'Im'
p4976
aS'not'
p4977
aS'in'
p4978
aS'county'
p4979
aS'jail'
p4980
aaa(lp4981
g4745
a(lp4982
g4
aS'have'
p4983
aS'attended'
p4984
aS'several'
p4985
aS'colleges'
p4986
aaa(lp4987
g4745
a(lp4988
g4
aS'think'
p4989
aS'successfully'
p4990
aaa(lp4991
g4745
a(lp4992
S'they'
p4993
aS'think'
p4994
aS'unsuccessfully'
p4995
aaa(lp4996
g4745
a(lp4997
S'so'
p4998
ag4
aS'do'
p4999
aS'not'
p5000
aS'need'
p5001
aS'the'
p5002
aS'public'
p5003
aS'education'
p5004
aS'system'
p5005
aaa(lp5006
g4745
a(lp5007
S'in'
p5008
aS'Chicago'
p5009
aaa(lp5010
g4745
a(lp5011
S'But'
p5012
aaa(lp5013
g4745
a(lp5014
g4
aS'do'
p5015
aS'know'
p5016
aaa(lp5017
g4745
a(lp5018
S'who'
p5019
aS'does_'
p5020
aS'need'
p5021
aS'em'
p5022
aaa(lp5023
g4745
a(lp5024
S'The'
p5025
aS'homeless'
p5026
aaa(lp5027
g4745
a(lp5028
S'and'
p5029
aS'people'
p5030
aS'not'
p5031
aS'in'
p5032
aS'public'
p5033
aS'housing'
p5034
aaa(lp5035
g4745
a(lp5036
S'Public'
p5037
aS'housing'
p5038
aaa(lp5039
g4745
a(lp5040
S'because'
p5041
aS'one'
p5042
aaa(lp5043
g4745
a(lp5044
S'were'
p5045
aS'getting'
p5046
aS'ready'
p5047
aaa(lp5048
g4745
a(lp5049
S'to'
p5050
aS'tear'
p5051
aS'them'
p5052
aS'all'
p5053
aS'down'
p5054
aaa(lp5055
g4745
a(lp5056
S'What'
p5057
aS'are'
p5058
aS'we'
p5059
aS'gonna'
p5060
aS'do'
p5061
aS'with'
p5062
aS'it'
p5063
aaa(lp5064
g4745
a(lp5065
S'The'
p5066
aS'city'
p5067
aS'has'
p5068
aS'no'
p5069
aS'right'
p5070
aaa(lp5071
g4745
a(lp5072
g488
aS'would'
p5073
aS'be'
p5074
aS'in'
p5075
ag84
aS'fight'
p5076
ag488
aaa(lp5077
g4745
a(lp5078
g488
aS'we'
p5079
aS'need'
p5080
ag488
aaa(lp5081
g4745
a(lp5082
S'to'
p5083
aS'try'
p5084
aS'and'
p5085
aS'tell'
p5086
aS'me'
p5087
aaa(lp5088
g4745
a(lp5089
S'what'
p5090
aS'my'
p5091
aS'block'
p5092
aS'needs'
p5093
aaa(lp5094
g4745
a(lp5095
S'When'
p5096
aS'my'
p5097
aS'block'
p5098
aS'decides'
p5099
aaa(lp5100
g4745
a(lp5101
S'what'
p5102
aS'it'
p5103
aS'needs'
p5104
aaa(lp5105
g4745
a(lp5106
S'and'
p5107
aS'presents'
p5108
aS'its'
p5109
aS'plan'
p5110
aaa(lp5111
g4745
a(lp5112
S'to'
p5113
aS'the'
p5114
aS'city'
p5115
aaa(lp5116
g4745
a(lp5117
S'then'
p5118
aS'the'
p5119
aS'city'
p5120
aaa(lp5121
g4745
a(lp5122
S'can'
p5123
aS'take'
p5124
aS'its'
p5125
aS'logical'
p5126
aaa(lp5127
g4745
a(lp5128
S'legal'
p5129
aaa(lp5130
g4745
a(lp5131
S'jurisprudence'
p5132
aaa(lp5133
g4745
a(lp5134
S'course'
p5135
aaa(lp5136
g4745
a(lp5137
S'of'
p5138
aS'identifying'
p5139
aaa(lp5140
g4745
a(lp5141
S'what'
p5142
aS'resources'
p5143
aS'it'
p5144
aS'has'
p5145
aaa(lp5146
g4745
a(lp5147
S'and'
p5148
aS'make'
p5149
aS'em'
p5150
aS'available'
p5151
aaa(lp5152
g4745
a(lp5153
S'The'
p5154
aS'empowerment'
p5155
aS'zones'
p5156
aaa(lp5157
g4745
a(lp5158
S'what'
p5159
aS'are'
p5160
aaa(lp5161
g4745
a(lp5162
S'by'
p5163
aS'legislation'
p5164
aaa(lp5165
g4745
a(lp5166
S'to'
p5167
aS'be'
p5168
aS'planned'
p5169
aaa(lp5170
g4745
a(lp5171
S'by'
p5172
aaa(lp5173
g4745
a(lp5174
S'with'
p5175
aaa(lp5176
g4745
a(lp5177
S'and'
p5178
aS'for'
p5179
aaa(lp5180
g4745
a(lp5181
S'those'
p5182
aS'most'
p5183
aS'in'
p5184
aS'need'
p5185
aS'of'
p5186
aS'empowering'
p5187
aaa(lp5188
g4745
a(lp5189
S'It'
p5190
aS'dont'
p5191
aS'mention'
p5192
aaa(lp5193
g4745
a(lp5194
S'those'
p5195
aS'agencies'
p5196
aaa(lp5197
g4745
a(lp5198
S'most'
p5199
aS'in'
p5200
aS'need'
p5201
aaa(lp5202
g4745
a(lp5203
S'This'
p5204
aS'is'
p5205
aS'not'
p5206
aS'the'
p5207
aS'entitlement'
p5208
aS'programs'
p5209
aaa(lp5210
g4745
a(lp5211
S'See'
p5212
aS'the'
p5213
aS'entitlement'
p5214
aS'programs'
p5215
aS'is'
p5216
aS'what'
p5217
aS'has'
p5218
aS'turned'
p5219
aS'the'
p5220
aS'West'
p5221
aS'Side'
p5222
aaa(lp5223
g4745
a(lp5224
S'into'
p5225
ag84
aS'damn'
p5226
aS'desert'
p5227
aS'of'
p5228
aS'oasis'
p5229
aS'and'
p5230
aS'poverty'
p5231
aaa(lp5232
g4745
a(lp5233
S'Because'
p5234
aS'the'
p5235
aS'West'
p5236
aS'Side'
p5237
aS'was'
p5238
aS'planned'
p5239
aS'for'
p5240
aaa(lp5241
g4745
a(lp5242
S'CHA'
p5243
aS'was'
p5244
aS'planned'
p5245
aS'for'
p5246
aaa(lp5247
g4745
a(lp5248
S'The'
p5249
aS'city'
p5250
aS'has'
p5251
aS'put'
p5252
aS'together'
p5253
aS'in'
p5254
ag84
aS'aggregate'
p5255
aS'sum'
p5256
aaa(lp5257
g4745
a(lp5258
S'the'
p5259
aS'map'
p5260
aS'that'
p5261
aS'is'
p5262
aS'about'
p5263
aS'two'
p5264
aS'pages'
p5265
aaa(lp5266
g4745
a(lp5267
S'that'
p5268
aS'shows'
p5269
aS'you'
p5270
aS'where'
p5271
aS'the'
p5272
aS'poorest'
p5273
aS'folks'
p5274
aS'live'
p5275
aaa(lp5276
g4745
a(lp5277
S'If'
p5278
aS'you'
p5279
aS'are'
p5280
aS'an'
p5281
aS'agency'
p5282
aaa(lp5283
g4745
a(lp5284
S'that'
p5285
aS'is'
p5286
aS'involved'
p5287
aS'in'
p5288
aS'those'
p5289
aS'areas'
p5290
aaa(lp5291
g4745
a(lp5292
S'take'
p5293
aS'the'
p5294
aS'opportunity'
p5295
aS'to'
p5296
aS'find'
p5297
aS'out'
p5298
aS'what'
p5299
aS'those'
p5300
aS'people'
p5301
aS'need'
p5302
aaa(lp5303
g4745
a(lp5304
S'and'
p5305
aS'deliver'
p5306
aS'the'
p5307
aS'proposal'
p5308
aaa(lp5309
g4745
a(lp5310
S'If'
p5311
aS'you'
p5312
aS'are'
p5313
aS'an'
p5314
aS'agency'
p5315
aS'that'
p5316
aS'is'
p5317
aS'outside'
p5318
aS'of'
p5319
aS'those'
p5320
aS'areas'
p5321
aaa(lp5322
g4745
a(lp5323
S'of'
p5324
aS'the'
p5325
aS'census'
p5326
aS'track'
p5327
aaa(lp5328
g4745
a(lp5329
S'that'
p5330
aS'each'
p5331
aS'of'
p5332
aS'you'
p5333
aS'have'
p5334
aaa(lp5335
g4745
a(lp5336
S'then'
p5337
aaa(lp5338
g4745
a(lp5339
S'change'
p5340
aS'your'
p5341
aS'location'
p5342
aaa(lp5343
g4745
a(lp5344
S'do'
p5345
aS'like'
p5346
aS'Reagan'
p5347
aS'said'
p5348
aaa(lp5349
g4745
a(lp5350
S'and'
p5351
aS'move'
p5352
aS'with'
p5353
aS'your'
p5354
aS'feet'
p5355
aS'into'
p5356
aS'the'
p5357
aS'area'
p5358
aaa(lp5359
g4745
a(lp5360
S'This'
p5361
aS'is'
p5362
aS'no'
p5363
aaa(lp5364
g4745
a(lp5365
S'you'
p5366
aS'know'
p5367
aaa(lp5368
g4745
a(lp5369
S'three'
p5370
aS'card'
p5371
ag488
aS'Molly'
p5372
ag488
aS'here'
p5373
aaa(lp5374
g4745
a(lp5375
S'We'
p5376
aS'already'
p5377
aS'know'
p5378
aaa(lp5379
g4745
a(lp5380
S'where'
p5381
aS'the'
p5382
aS'most'
p5383
aS'MRC'
p5384
aS'empower'
p5385
aS'less'
p5386
aS'people'
p5387
aS'are'
p5388
aS'MRC'
p5389
aaa(lp5390
g4745
a(lp5391
S'Get'
p5392
aS'busy'
p5393
aaa(lp5394
g4745
a(lp5395
S'Patty'
p5396
aS'asked'
p5397
ag84
aS'question'
p5398
aS'earlier'
p5399
aaa(lp5400
g4745
a(lp5401
g4
aS'have'
p5402
aS'chose'
p5403
aS'not'
p5404
aS'to'
p5405
aS'do'
p5406
aS'it'
p5407
aaa(lp5408
g4745
a(lp5409
S'but'
p5410
aS'out'
p5411
aS'of'
p5412
aS'necessity'
p5413
aaa(lp5414
g4745
a(lp5415
S'Im'
p5416
aS'gonna'
p5417
aS'ask'
p5418
aS'you'
p5419
aS'to'
p5420
aS'walk'
p5421
aS'through'
p5422
aS'this'
p5423
aaa(lp5424
g4745
a(lp5425
S'this'
p5426
aS'is'
p5427
aS'where'
p5428
aS'the'
p5429
aS'poor'
p5430
aS'folks'
p5431
aS'live'
p5432
aaa(lp5433
g4745
a(lp5434
S'This'
p5435
aS'is'
p5436
aS'where'
p5437
aS'your'
p5438
aS'tax'
p5439
aS'dollars'
p5440
aS'are'
p5441
aS'going'
p5442
aaa(lp5443
g4745
a(lp5444
S'And'
p5445
aS'this'
p5446
aS'is'
p5447
aS'why'
p5448
aS'you'
p5449
aS'get'
p5450
aS'upset'
p5451
aaa(lp5452
g4745
a(lp5453
S'every'
p5454
aS'time'
p5455
aS'the'
p5456
aS'city'
p5457
aS'launches'
p5458
ag84
aS'project'
p5459
aaa(lp5460
g4745
a(lp5461
S'because'
p5462
aS'you'
p5463
aS'say'
p5464
aaa(lp5465
g4745
a(lp5466
S'it'
p5467
aS'comes'
p5468
aS'in'
p5469
aS'over'
p5470
aS'budget'
p5471
aaa(lp5472
g4745
a(lp5473
S'This'
p5474
aS'is'
p5475
aS'where'
p5476
aS'the'
p5477
aS'state'
p5478
aS'has'
p5479
aS'roads'
p5480
aS'going'
p5481
aS'on'
p5482
aaa(lp5483
g4745
a(lp5484
S'This'
p5485
aS'is'
p5486
aS'where'
p5487
aS'county'
p5488
aS'hospital'
p5489
aS'has'
p5490
aS'roads'
p5491
aS'going'
p5492
aS'on'
p5493
aaa(lp5494
g4745
a(lp5495
S'So'
p5496
aS'as'
p5497
aS'far'
p5498
aS'as'
p5499
aS'Im'
p5500
aS'concerned'
p5501
aaa(lp5502
g4745
a(lp5503
S'if'
p5504
aS'the'
p5505
aS'city'
p5506
aS'did'
p5507
aS'anything'
p5508
aS'more'
p5509
aS'than'
p5510
aS'what'
p5511
aS'it'
p5512
aS'was'
p5513
aS'doing'
p5514
aaa(lp5515
g4745
a(lp5516
g4
aS'would'
p5517
aS'file'
p5518
ag84
aS'grievance'
p5519
aS'with'
p5520
aS'the'
p5521
aS'Department'
p5522
aS'of'
p5523
aS'Justice'
p5524
aaa(lp5525
g4745
a(lp5526
S'to'
p5527
aS'say'
p5528
aS'that'
p5529
aS'they'
p5530
aS'were'
p5531
aS'in'
p5532
aS'violation'
p5533
aS'of'
p5534
aS'the'
p5535
aS'legislation'
p5536
aaa(lp5537
g4745
a(lp5538
S'The'
p5539
aS'legislation'
p5540
aS'says'
p5541
aS'that'
p5542
aaa(lp5543
g4745
a(lp5544
S'those'
p5545
aS'who'
p5546
aS'have'
p5547
aS'nothing'
p5548
aaa(lp5549
g4745
a(lp5550
S'are'
p5551
aS'either'
p5552
aS'to'
p5553
aS'be'
p5554
aS'courted'
p5555
aS'by'
p5556
aS'those'
p5557
aS'who'
p5558
aS'have'
p5559
aS'something'
p5560
aaa(lp5561
g4745
a(lp5562
S'or'
p5563
aS'left'
p5564
aS'alone'
p5565
aaa(lp5566
g4745
a(lp5567
S'so'
p5568
aS'that'
p5569
aS'they'
p5570
aS'can'
p5571
aS'develop'
p5572
aaa(lp5573
g4745
a(lp5574
S'their'
p5575
aS'own'
p5576
aS'plan'
p5577
aaa(lp5578
g4745
a(lp5579
S'and'
p5580
aS'be'
p5581
aS'responsible'
p5582
aS'for'
p5583
aS'their'
p5584
aS'success'
p5585
aaa(lp5586
g4745
a(lp5587
S'or'
p5588
aS'their'
p5589
aS'failure'
p5590
aaa(lp5591
g4745
a(lp5592
S'That'
p5593
aS'to'
p5594
aS'me'
p5595
aS'is'
p5596
aS'the'
p5597
aS'empowerment'
p5598
aS'zone'
p5599
aaa(lp5600
g4745
a(lp5601
S'Anything'
p5602
aS'else'
p5603
aaa(lp5604
g4745
a(lp5605
S'is'
p5606
ag84
aS'contradiction'
p5607
aaa(lp5608
g4745
a(lp5609
S'Malcolm'
p5610
ag488
aaa(lp5611
g4745
a(lp5612
S'we'
p5613
aS'sitting'
p5614
aS'in'
p5615
aS'the'
p5616
aS'college'
p5617
aS'named'
p5618
aS'after'
p5619
aS'him'
p5620
aaa(lp5621
g4745
a(lp5622
S'he'
p5623
aS'said'
p5624
aS'by'
p5625
aS'whatever'
p5626
aS'means'
p5627
aS'necessary'
p5628
aaa(lp5629
g4745
a(lp5630
S'So'
p5631
aS'by'
p5632
aS'whatever'
p5633
aS'means'
p5634
aS'necessary'
p5635
aS'it'
p5636
aS'takes'
p5637
aS'for'
p5638
aS'you'
p5639
aS'to'
p5640
aS'get'
p5641
ag488
aS'gautonomous'
p5642
ag488
aaa(lp5643
g4745
a(lp5644
S'touched'
p5645
aaa(lp5646
g4745
a(lp5647
S'contagious'
p5648
aaa(lp5649
g4745
a(lp5650
S'in'
p5651
aS'in'
p5652
aS'love'
p5653
aS'with'
p5654
aS'poor'
p5655
aS'folks'
p5656
aaa(lp5657
g4745
a(lp5658
S'is'
p5659
aS'what'
p5660
aS'is'
p5661
aS'gonna'
p5662
aS'take'
p5663
aaa(lp5664
g4745
a(lp5665
S'to'
p5666
aS'keep'
p5667
aS'your'
p5668
aS'agencies'
p5669
aaa(lp5670
g4745
a(lp5671
S'empowered'
p5672
aaa(lp5673
S'MANY'
p5674
a(lp5675
aa(lp5676
S'PATTY'
p5677
a(lp5678
S'Thank'
p5679
aS'you'
p5680
aS'Paul'
p5681
aaa(lp5682
g5677
a(lp5683
S'Um'
p5684
aaa(lp5685
g5677
a(lp5686
S'before'
p5687
aS'we'
p5688
aS'close'
p5689
aaa(lp5690
g5677
a(lp5691
S'we'
p5692
aS'have'
p5693
aS'uh'
p5694
aS'several'
p5695
aS'members'
p5696
aS'of'
p5697
aS'the'
p5698
aS'Coordinating'
p5699
aS'Council'
p5700
aS'here'
p5701
aaa(lp5702
g5677
a(lp5703
S'who'
p5704
aS'Id'
p5705
aS'like'
p5706
aS'to'
p5707
aS'recognize'
p5708
aaa(lp5709
g5677
a(lp5710
S'and'
p5711
aS'see'
p5712
aS'if'
p5713
aS'they'
p5714
aS'want'
p5715
aS'to'
p5716
aS'add'
p5717
aS'anything'
p5718
aaa(lp5719
g5677
a(lp5720
S'before'
p5721
aS'we'
p5722
aS'leave'
p5723
aS'uh'
p5724
aS'here'
p5725
aS'tonight'
p5726
aaa(lp5727
g5677
a(lp5728
S'Um'
p5729
aaa(lp5730
g5677
a(lp5731
S'we'
p5732
aS'have'
p5733
aS'Sproule'
p5734
aS'White'
p5735
aaa(lp5736
g5677
a(lp5737
S'who'
p5738
aS'is'
p5739
aS'the'
p5740
aS'executive'
p5741
aS'director'
p5742
aS'of'
p5743
aS'the'
p5744
aS'Chicago'
p5745
aS'Jobs'
p5746
aS'Council'
p5747
aaa(lp5748
g5677
a(lp5749
S'um'
p5750
aaa(lp5751
g5677
a(lp5752
S'Wanda'
p5753
aS'White'
p5754
aaa(lp5755
g5677
a(lp5756
S'who'
p5757
aS'is'
p5758
aS'the'
p5759
aS'executive'
p5760
aS'director'
p5761
aS'of'
p5762
aS'the'
p5763
aS'Community'
p5764
aS'Workshop'
p5765
aS'on'
p5766
aS'Economic'
p5767
aS'Development'
p5768
aaa(lp5769
S'AUD'
p5770
a(lp5771
aa(lp5772
S'PATTY'
p5773
a(lp5774
S'and'
p5775
aS'Ted'
p5776
aS'Wysaki'
p5777
aaa(lp5778
g5773
a(lp5779
S'who'
p5780
aS'is'
p5781
aS'the'
p5782
aS'executive'
p5783
aS'director'
p5784
aS'of'
p5785
aaa(lp5786
g5773
a(lp5787
S'uh'
p5788
aaa(lp5789
g5773
a(lp5790
S'CANDO'
p5791
aaa(lp5792
g5773
a(lp5793
S'the'
p5794
aS'Chicago'
p5795
aS'Association'
p5796
aS'of'
p5797
aS'Neighborhood'
p5798
aS'Development'
p5799
aS'Organizations'
p5800
aaa(lp5801
g5773
a(lp5802
S'and'
p5803
aS'also'
p5804
aaa(lp5805
g5773
a(lp5806
S'Frank'
p5807
aS'Grossman'
p5808
aS'was'
p5809
aS'here'
p5810
aaa(lp5811
g5773
a(lp5812
S'from'
p5813
aS'Continental'
p5814
aS'Bank'
p5815
aaa(lp5816
g5773
a(lp5817
S'And'
p5818
aS'also'
p5819
aS'the'
p5820
aS'chair'
p5821
aS'of'
p5822
aS'the'
p5823
aS'capital'
p5824
aS'improvement'
p5825
aS'advisory'
p5826
aS'committee'
p5827
aaa(lp5828
g5773
a(lp5829
S'Do'
p5830
aS'you'
p5831
aS'wanna'
p5832
aS'say'
p5833
aS'anything'
p5834
aaa(lp5835
S'X'
p5836
a(lp5837
S'Okay'
p5838
aaa(lp5839
S'CHERYL'
p5840
a(lp5841
S'Ill'
p5842
aS'just'
p5843
aS'make'
p5844
aS'one'
p5845
aS'point'
p5846
aaa(lp5847
g5840
a(lp5848
S'and'
p5849
aS'Ill'
p5850
aS'make'
p5851
aS'it'
p5852
aS'brief'
p5853
aaa(lp5854
g5840
a(lp5855
S'and'
p5856
aS'that'
p5857
aS'is'
p5858
aaa.