(lp0
(lp1
S'CAM'
p2
a(lp3
aa(lp4
g2
a(lp5
S'No'
p6
aaa(lp7
g2
a(lp8
S'he'
p9
aS'doesnt'
p10
aaa(lp11
g2
a(lp12
S'He'
p13
aS'doesnt'
p14
aS'call'
p15
aS'really'
p16
aaa(lp17
S'LAJUAN'
p18
a(lp19
aa(lp20
S'CAM'
p21
a(lp22
S'I'
p23
aS'dont'
p24
aaa(lp25
g21
a(lp26
S'The'
p27
aS'only'
p28
aS'thing'
p29
aS'is'
p30
aS'like'
p31
aS'at'
p32
aS'at'
p33
aS'home'
p34
aaa(lp35
g21
a(lp36
S'sometimes'
p37
aS'he'
p38
aS'likes'
p39
aS'to'
p40
aS'sit'
p41
aS'by'
p42
aS'me'
p43
aS'and'
p44
aS'stuff'
p45
aS'like'
p46
aaa(lp47
S'LAJUAN'
p48
a(lp49
g23
aS'forgot'
p50
aS'to'
p51
aS'tell'
p52
aS'you'
p53
aaa(lp54
g48
a(lp55
S'look'
p56
aS'for'
p57
aS'the'
p58
aS'house'
p59
aS'with'
p60
aS'the'
p61
aS'reindeer'
p62
aaa(lp63
g48
a(lp64
S'You'
p65
aS'could'
p66
aS'find'
p67
aS'it'
p68
aS'a'
p69
aS'lot'
p70
aS'easier'
p71
aS'if'
p72
aS'you'
p73
aS'couldnt'
p74
aS'remember'
p75
aS'where'
p76
aS'we'
p77
aS'were'
p78
aaa(lp79
S'CAMX'
p80
a(lp81
S'Oh'
p82
aS'really'
p83
aS'X'
p84
aaa(lp85
S'LAJUAN'
p86
a(lp87
aa(lp88
S'CAM'
p89
a(lp90
g23
aS'always'
p91
aS'remember'
p92
ag84
aS'at'
p93
ag84
aaa(lp94
S'LAJUAN'
p95
a(lp96
S'Once'
p97
aS'you'
p98
aS'get'
p99
aS'to'
p100
aS'it'
p101
aaa(lp102
S'CAMOnce'
p103
a(lp104
g23
aS'see'
p105
aS'it'
p106
aaa(lp107
g103
a(lp108
g23
aS'know'
p109
aaa(lp110
g103
a(lp111
S'oh'
p112
aS'thats'
p113
aS'it'
p114
aaa(lp115
S'LAJUAN'
p116
a(lp117
S'Yeah'
p118
aaa(lp119
S'CAMIll'
p120
a(lp121
S'look'
p122
aS'at'
p123
aS'some'
p124
aS'of'
p125
aS'the'
p126
aS'houses'
p127
aaa(lp128
g120
a(lp129
S'Im'
p130
aS'like'
p131
aS'ooh'
p132
aaa(lp133
g120
a(lp134
S'is'
p135
aS'it'
p136
aS'this'
p137
aS'one'
p138
aaa(lp139
g120
a(lp140
S'is'
p141
aS'this'
p142
aS'one'
p143
aS'it'
p144
aaa(lp145
g120
a(lp146
S'and'
p147
aS'then'
p148
ag23
aS'just'
p149
aaa(lp150
g120
a(lp151
S'Oh'
p152
aS'no'
p153
aaa(lp154
g120
a(lp155
S'thats'
p156
aS'the'
p157
aS'one'
p158
aaa(lp159
S'LAJUAN'
p160
a(lp161
S'Yeah'
p162
aaa(lp163
g160
a(lp164
S'the'
p165
aS'one'
p166
aS'with'
p167
aS'the'
p168
aS'two'
p169
aS'reindeer'
p170
aS'that'
p171
aaa(lp172
g160
a(lp173
S'Mark'
p174
aS'and'
p175
aS'Tim'
p176
aS'last'
p177
aS'year'
p178
aS'took'
p179
aS'and'
p180
aS'put'
p181
aS'on'
p182
aS'top'
p183
aS'of'
p184
aS'each'
p185
aS'other'
p186
aS'as'
p187
aS'if'
p188
aS'they'
p189
aS'were'
p190
aS'humping'
p191
aaa(lp192
g160
a(lp193
g23
aS'was'
p194
aS'like'
p195
aS'VOX'
p196
aS'VOX'
p197
aaa(lp198
g160
a(lp199
S'Neighbors'
p200
aS'are'
p201
aS'gonna'
p202
aS'see'
p203
aS'this'
p204
aaa(lp205
g160
a(lp206
S'so'
p207
ag23
aS'went'
p208
aS'out'
p209
aS'in'
p210
aS'the'
p211
aS'morning'
p212
aS'Im'
p213
aS'like'
p214
aaa(lp215
S'CAMOh'
p216
a(lp217
S'God'
p218
aaa(lp219
S'LAJUANVOX'
p220
a(lp221
S'VOX'
p222
aaa(lp223
g220
a(lp224
S'so'
p225
ag23
aS'get'
p226
aS'out'
p227
aS'of'
p228
aS'my'
p229
aS'car'
p230
aaa(lp231
g220
a(lp232
S'stop'
p233
aS'in'
p234
aS'the'
p235
aS'driveway'
p236
aaa(lp237
g220
a(lp238
S'SM'
p239
aS'take'
p240
aS'em'
p241
aS'off'
p242
aS'of'
p243
aS'each'
p244
aS'other'
p245
aS'SM'
p246
aaa(lp247
g220
a(lp248
g23
aS'was'
p249
aS'like'
p250
aaa(lp251
g220
a(lp252
S'Ill'
p253
aS'just'
p254
aS'kill'
p255
aS'them'
p256
aaa(lp257
S'CAMThose'
p258
a(lp259
S'naughty'
p260
aS'boys'
p261
aaa(lp262
S'LAJUAN'
p263
a(lp264
S'But'
p265
aS'um'
p266
aaa(lp267
g263
a(lp268
S'mm'
p269
aaa(lp270
g263
a(lp271
S'no'
p272
aaa(lp273
g263
a(lp274
S'he'
p275
aS'just'
p276
aaa(lp277
g263
a(lp278
S'He'
p279
aS'he'
p280
aaa(lp281
g263
a(lp282
S'hes'
p283
aS'become'
p284
aS'more'
p285
aS'attached'
p286
aaa(lp287
g263
a(lp288
S'and'
p289
aaa(lp290
g263
a(lp291
S'uh'
p292
ag23
aS'think'
p293
ag69
aS'lot'
p294
aS'of'
p295
aS'it'
p296
aS'is'
p297
aS'because'
p298
ag69
aS'lot'
p299
aS'of'
p300
aS'his'
p301
aaa(lp302
g263
a(lp303
S'friends'
p304
aS'have'
p305
aS'now'
p306
aS'gotten'
p307
aS'married'
p308
aaa(lp309
g263
a(lp310
S'and'
p311
aS'have'
p312
aS'children'
p313
aaa(lp314
g263
a(lp315
S'and'
p316
aS'he'
p317
aS'doesnt'
p318
aS'do'
p319
aS'as'
p320
aS'much'
p321
aS'with'
p322
aS'them'
p323
aaa(lp324
g263
a(lp325
S'And'
p326
ag23
aS'think'
p327
aS'thats'
p328
aS'why'
p329
aaa(lp330
g263
a(lp331
S'but'
p332
aS'he'
p333
aS'has'
p334
aS'gotten'
p335
aS'so'
p336
aS'attached'
p337
aS'to'
p338
aS'me'
p339
aS'and'
p340
aS'it'
p341
aaa(lp342
S'CAM'
p343
a(lp344
aa(lp345
S'LAJUAN'
p346
a(lp347
S'Ive'
p348
aS'always'
p349
aS'been'
p350
aS'very'
p351
aS'independent'
p352
aaa(lp353
g346
a(lp354
S'and'
p355
ag69
aS'lot'
p356
aS'of'
p357
aS'it'
p358
aS'had'
p359
aS'to'
p360
aS'do'
p361
aS'with'
p362
aS'like'
p363
aS'me'
p364
aS'growing'
p365
aS'up'
p366
aS'the'
p367
aS'way'
p368
ag23
aS'did'
p369
aaa(lp370
g346
a(lp371
S'with'
p372
aS'my'
p373
aS'my'
p374
aS'um'
p375
aaa(lp376
g346
a(lp377
S'my'
p378
aS'mother'
p379
aS'dying'
p380
aaa(lp381
S'CAM'
p382
a(lp383
S'Mhm'
p384
aaa(lp385
S'LAJUANyounger'
p386
a(lp387
aa(lp388
g386
a(lp389
S'and'
p390
aS'then'
p391
aS'living'
p392
aS'with'
p393
aS'my'
p394
aS'one'
p395
aS'aunt'
p396
aaa(lp397
g386
a(lp398
S'and'
p399
aS'then'
p400
aS'my'
p401
ag23
aS'aunt'
p402
aS'died'
p403
aS'when'
p404
ag23
aS'was'
p405
aS'twelve'
p406
aaa(lp407
g386
a(lp408
S'and'
p409
aS'then'
p410
aS'moving'
p411
aS'to'
p412
aS'another'
p413
aS'aunt'
p414
aaa(lp415
g386
a(lp416
S'which'
p417
aS'was'
p418
aS'moving'
p419
aS'up'
p420
aS'here'
p421
aaa(lp422
g386
a(lp423
S'and'
p424
aaa(lp425
g386
a(lp426
g23
aS'Ive'
p427
aS'always'
p428
aS'had'
p429
aS'to'
p430
aS'go'
p431
aS'back'
p432
aS'and'
p433
aS'forth'
p434
aaa(lp435
g386
a(lp436
S'Ive'
p437
aS'always'
p438
aS'traveled'
p439
aS'on'
p440
aS'my'
p441
aS'own'
p442
aaa(lp443
g386
a(lp444
S'Ive'
p445
aS'always'
p446
aS'flown'
p447
aS'everywhere'
p448
aS'by'
p449
aS'myself'
p450
aaa(lp451
g386
a(lp452
S'uh'
p453
aaa(lp454
g386
a(lp455
S'Ive'
p456
aS'always'
p457
aS'done'
p458
aS'everything'
p459
aaa(lp460
g386
a(lp461
S'Ive'
p462
aS'had'
p463
aS'to'
p464
aS'deal'
p465
aS'with'
p466
aS'my'
p467
aS'father'
p468
aaa(lp469
g386
a(lp470
g23
aS'Id'
p471
aS'listen'
p472
aS'to'
p473
aS'my'
p474
aS'sister'
p475
aaa(lp476
g386
a(lp477
S'when'
p478
aS'my'
p479
aS'nephew'
p480
aS'started'
p481
aS'college'
p482
aaa(lp483
g386
a(lp484
S'how'
p485
aS'she'
p486
aS'was'
p487
aS'saying'
p488
aaa(lp489
g386
a(lp490
S'she'
p491
aS'filled'
p492
aS'out'
p493
aS'all'
p494
aS'of'
p495
aS'his'
p496
aS'applications'
p497
aS'for'
p498
aS'where'
p499
aS'he'
p500
aS'was'
p501
aS'going'
p502
aS'and'
p503
aaa(lp504
g386
a(lp505
S'she'
p506
aS'did'
p507
aS'all'
p508
aS'of'
p509
aS'these'
p510
aS'things'
p511
aS'when'
p512
aS'he'
p513
aS'had'
p514
aS'to'
p515
aS'apply'
p516
aS'for'
p517
ag69
aS'scholarship'
p518
aS'or'
p519
aS'whatever'
p520
aaa(lp521
g386
a(lp522
S'she'
p523
aS'filled'
p524
aS'out'
p525
aS'everything'
p526
aaa(lp527
g386
a(lp528
S'and'
p529
aS'Im'
p530
aS'like'
p531
aaa(lp532
g386
a(lp533
g23
aS'did'
p534
aS'it'
p535
aS'by'
p536
aS'myself'
p537
aaa(lp538
g386
a(lp539
S'you'
p540
aS'read'
p541
aS'the'
p542
aS'form'
p543
aaa(lp544
g386
a(lp545
S'and'
p546
aS'you'
p547
aS'fill'
p548
aS'it'
p549
aS'out'
p550
aaa(lp551
S'CAM'
p552
a(lp553
S'Wow'
p554
aaa(lp555
S'LAJUANNo'
p556
a(lp557
S'one'
p558
aS'did'
p559
aS'it'
p560
aS'for'
p561
aS'me'
p562
aaa(lp563
g556
a(lp564
S'you'
p565
aS'know'
p566
aaa(lp567
g556
a(lp568
S'and'
p569
ag23
aS'was'
p570
aS'very'
p571
aS'much'
p572
aaa(lp573
g556
a(lp574
S'whatever'
p575
ag23
aS'needed'
p576
aaa(lp577
g556
a(lp578
g23
ag23
aS'got'
p579
aS'my'
p580
aS'money'
p581
aS'from'
p582
aS'my'
p583
aS'father'
p584
aaa(lp585
g556
a(lp586
S'he'
p587
aS'paid'
p588
aS'for'
p589
aS'school'
p590
aaa(lp591
g556
a(lp592
S'but'
p593
aaa(lp594
g556
a(lp595
g23
aS'did'
p596
aS'everything'
p597
aS'on'
p598
aS'my'
p599
aS'own'
p600
aaa(lp601
g556
a(lp602
g23
ag23
aS'didnt'
p603
aS'have'
p604
aS'anyone'
p605
aaa(lp606
S'CAM'
p607
a(lp608
S'See'
p609
aS'my'
p610
aS'parents'
p611
aS'werent'
p612
aS'very'
p613
aaa(lp614
g607
a(lp615
g23
aS'dont'
p616
aS'know'
p617
aaa(lp618
S'LAJUAN'
p619
a(lp620
aa(lp621
S'CAM'
p622
a(lp623
S'Theyre'
p624
aS'not'
p625
aS'extremely'
p626
aS'educated'
p627
aaa(lp628
g622
a(lp629
S'and'
p630
aS'theyre'
p631
aS'not'
p632
aaa(lp633
g622
a(lp634
S'really'
p635
aS'on'
p636
aS'top'
p637
aS'of'
p638
aS'things'
p639
aaa(lp640
g622
a(lp641
S'and'
p642
aS'so'
p643
aS'when'
p644
aS'it'
p645
aS'came'
p646
aS'to'
p647
aS'things'
p648
aS'like'
p649
aS'that'
p650
aaa(lp651
S'LAJUAN'
p652
a(lp653
aa(lp654
S'CAMthey'
p655
a(lp656
S'wouldnt'
p657
aS'know'
p658
aS'how'
p659
aS'to'
p660
aS'help'
p661
aS'me'
p662
aaa(lp663
S'LAJUANReally'
p664
a(lp665
aa(lp666
S'CAMYeah'
p667
a(lp668
aa(lp669
g667
a(lp670
S'they'
p671
aS'wouldnt'
p672
aaa(lp673
g667
a(lp674
g23
aS'mean'
p675
aS'they'
p676
aS'had'
p677
aS'no'
p678
aS'clue'
p679
aaa(lp680
g667
a(lp681
S'they'
p682
aS'didnt'
p683
aS'give'
p684
aS'me'
p685
aS'any'
p686
aS'suggestions'
p687
aS'of'
p688
aS'where'
p689
aS'to'
p690
aS'go'
p691
aS'to'
p692
aS'school'
p693
aaa(lp694
g667
a(lp695
S'they'
p696
aS'said'
p697
aaa(lp698
g667
a(lp699
S'oh'
p700
aS'yeah'
p701
aS'go'
p702
aS'to'
p703
aS'school'
p704
aaa(lp705
g667
a(lp706
S'well'
p707
aS'pay'
p708
aS'for'
p709
aS'it'
p710
aaa(lp711
g667
a(lp712
S'We'
p713
aS'want'
p714
aS'you'
p715
aS'to'
p716
aS'go'
p717
aS'to'
p718
aS'school'
p719
aaa(lp720
g667
a(lp721
S'But'
p722
aS'they'
p723
aS'had'
p724
aS'no'
p725
aS'idea'
p726
aS'of'
p727
aaa(lp728
g667
a(lp729
S'you'
p730
aS'know'
p731
aaa(lp732
g667
a(lp733
S'whats'
p734
ag69
aS'good'
p735
aS'school'
p736
aaa(lp737
g667
a(lp738
S'whats'
p739
ag69
aS'bad'
p740
aS'school'
p741
aaa(lp742
g667
a(lp743
S'you'
p744
aS'know'
p745
aaa(lp746
g667
a(lp747
S'any'
p748
aS'type'
p749
aS'of'
p750
aS'direction'
p751
aaa(lp752
S'LAJUAN'
p753
a(lp754
aa(lp755
g753
a(lp756
S'Se'
p757
aaa(lp758
g753
a(lp759
S'Yeah'
p760
aaa(lp761
S'CAMThey'
p762
a(lp763
S'didnt'
p764
aS'give'
p765
aS'me'
p766
aS'anything'
p767
aS'like'
p768
aS'that'
p769
aaa(lp770
S'LAJUANand'
p771
a(lp772
S'see'
p773
ag23
aS'feel'
p774
aS'thats'
p775
aS'one'
p776
aS'of'
p777
aS'the'
p778
aS'biggest'
p779
aS'setbacks'
p780
aaa(lp781
S'CAM'
p782
a(lp783
aa(lp784
S'LAJUANI'
p785
a(lp786
g23
aS'see'
p787
aS'this'
p788
aS'with'
p789
aS'with'
p790
aS'black'
p791
aS'youths'
p792
aS'today'
p793
aaa(lp794
g785
a(lp795
S'is'
p796
aS'that'
p797
aaa(lp798
g785
a(lp799
S'because'
p800
aS'your'
p801
aS'generations'
p802
aS'in'
p803
aS'the'
p804
aS'past'
p805
aaa(lp806
g785
a(lp807
S'were'
p808
aS'not'
p809
aS'educated'
p810
aaa(lp811
S'CAM'
p812
a(lp813
S'Mm'
p814
aaa(lp815
S'LAJUAN'
p816
a(lp817
S'you'
p818
aS'have'
p819
ag69
aS'harder'
p820
aS'time'
p821
aS'deciding'
p822
aS'on'
p823
aS'whats'
p824
ag69
aS'good'
p825
aS'school'
p826
aaa(lp827
g816
a(lp828
S'whats'
p829
ag69
aS'good'
p830
aS'curriculum'
p831
aS'for'
p832
aS'you'
p833
aS'to'
p834
aS'take'
p835
aaa(lp836
g816
a(lp837
S'your'
p838
aS'your'
p839
aS'parents'
p840
aS'arent'
p841
aS'able'
p842
aS'to'
p843
aS'talk'
p844
aS'to'
p845
aS'you'
p846
aS'about'
p847
aS'it'
p848
aaa(lp849
g816
a(lp850
S'W'
p851
aS'just'
p852
aS'as'
p853
aS'you'
p854
aS'were'
p855
aS'saying'
p856
aaa(lp857
g816
a(lp858
S'even'
p859
aS'though'
p860
aS'youre'
p861
aS'not'
p862
aS'black'
p863
aaa(lp864
g816
a(lp865
S'but'
p866
aS'you'
p867
aS'were'
p868
aS'just'
p869
aS'saying'
p870
aS'that'
p871
aaa(lp872
g816
a(lp873
S'but'
p874
aS'black'
p875
aS'children'
p876
aS'have'
p877
aS'that'
p878
aS'even'
p879
aS'more'
p880
aS'so'
p881
aaa(lp882
S'CAMRight'
p883
a(lp884
aa(lp885
S'LAJUANBecause'
p886
a(lp887
S'you'
p888
aS'har'
p889
aaa(lp890
g886
a(lp891
S'Youre'
p892
aS'youre'
p893
aS'more'
p894
aS'likely'
p895
aS'not'
p896
aS'to'
p897
aS'be'
p898
aS'ha'
p899
aS'come'
p900
aS'from'
p901
aS'educated'
p902
aS'parents'
p903
aaa(lp904
g886
a(lp905
S'Whereas'
p906
ag23
aS'came'
p907
aS'from'
p908
aS'an'
p909
aS'educated'
p910
aS'family'
p911
aaa(lp912
g886
a(lp913
S'it'
p914
aS'was'
p915
aS'just'
p916
aS'the'
p917
aS'fact'
p918
aaa(lp919
g886
a(lp920
S'they'
p921
aS'made'
p922
aS'us'
p923
aS'do'
p924
aS'everything'
p925
aS'on'
p926
aS'our'
p927
aS'own'
p928
aaa(lp929
g886
a(lp930
S'And'
p931
aaa(lp932
S'CAMMm'
p933
a(lp934
aa(lp935
S'LAJUANbut'
p936
a(lp937
aa(lp938
g936
a(lp939
S'black'
p940
aS'people'
p941
aS'also'
p942
aaa(lp943
g936
a(lp944
S'th'
p945
aS'those'
p946
aS'that'
p947
aS'have'
p948
aS'more'
p949
aaa(lp950
g936
a(lp951
S'tried'
p952
aS'to'
p953
aS'teach'
p954
aS'you'
p955
aS'to'
p956
aS'be'
p957
aS'stronger'
p958
aaa(lp959
g936
a(lp960
S'But'
p961
ag23
aS'think'
p962
aS'they'
p963
aS'instilled'
p964
aS's'
p965
aS'tried'
p966
aS'm'
p967
aS'tried'
p968
aS'to'
p969
aS'make'
p970
aS'me'
p971
aS'so'
p972
aS'strong'
p973
aaa(lp974
g936
a(lp975
S'that'
p976
aS'they'
p977
aS'forgot'
p978
aaa(lp979
g936
a(lp980
S'that'
p981
ag23
aS'was'
p982
ag69
aS'person'
p983
aaa(lp984
g936
a(lp985
S'And'
p986
ag23
aS'mean'
p987
aS'like'
p988
aaa(lp989
g936
a(lp990
g23
ag23
aS'often'
p991
aS'feel'
p992
aS'like'
p993
aS'at'
p994
aS'times'
p995
aS'that'
p996
aaa(lp997
g936
a(lp998
S'and'
p999
aS'maybe'
p1000
aS'its'
p1001
aS'the'
p1002
aS'gayness'
p1003
aS'coming'
p1004
aS'out'
p1005
aS'in'
p1006
aS'me'
p1007
aS'but'
p1008
aaa(lp1009
g936
a(lp1010
g23
aS'dont'
p1011
aS'like'
p1012
aS'it'
p1013
aaa(lp1014
g936
a(lp1015
S'like'
p1016
aS'and'
p1017
aS'when'
p1018
ag23
aS'was'
p1019
aS'home'
p1020
aaa(lp1021
g936
a(lp1022
S'just'
p1023
aS'went'
p1024
aS'home'
p1025
aS'to'
p1026
aS'Indiana'
p1027
aaa(lp1028
g936
a(lp1029
g23
aS'went'
p1030
aS'to'
p1031
aS'hug'
p1032
aS'my'
p1033
aS'sister'
p1034
aaa(lp1035
g936
a(lp1036
S'and'
p1037
ag23
aS'still'
p1038
aS'feel'
p1039
aS'that'
p1040
aS'she'
p1041
aS'finds'
p1042
ag69
aS'coldness'
p1043
aS'in'
p1044
aS'hugging'
p1045
aaa(lp1046
S'CAM'
p1047
a(lp1048
S'She'
p1049
aS'doesnt'
p1050
aS'like'
p1051
aS'to'
p1052
aS'hug'
p1053
aaa(lp1054
S'LAJUAN'
p1055
a(lp1056
S'No'
p1057
aaa(lp1058
g1055
a(lp1059
S'My'
p1060
aS'familys'
p1061
aS'not'
p1062
aS'very'
p1063
aS'much'
p1064
aS'hugging'
p1065
aaa(lp1066
S'CAM'
p1067
a(lp1068
S'Oh'
p1069
aaa(lp1070
S'LAJUANI'
p1071
a(lp1072
S'mean'
p1073
aaa(lp1074
g1071
a(lp1075
S'my'
p1076
aS'whole'
p1077
aS'life'
p1078
aaa(lp1079
g1071
a(lp1080
S'weve'
p1081
aS'never'
p1082
aS'been'
p1083
aS'very'
p1084
aaa(lp1085
g1071
a(lp1086
S'you'
p1087
aS'greet'
p1088
aS'someone'
p1089
aaa(lp1090
g1071
a(lp1091
S'you'
p1092
aS'dont'
p1093
ag965
aS'hug'
p1094
aS'them'
p1095
aaa(lp1096
g1071
a(lp1097
S'Youre'
p1098
aS'just'
p1099
aS'like'
p1100
aS'VOX'
p1101
aS'hi'
p1102
aS'VOX'
p1103
aaa(lp1104
g1071
a(lp1105
S'how'
p1106
aS'are'
p1107
aS'you'
p1108
aaa(lp1109
g1071
a(lp1110
S'and'
p1111
aS'even'
p1112
aS'like'
p1113
aS'male'
p1114
aS'female'
p1115
aaa(lp1116
g1071
a(lp1117
S'You'
p1118
aS'dont'
p1119
aS'do'
p1120
aS'it'
p1121
aaa(lp1122
S'CAM'
p1123
a(lp1124
S'See'
p1125
aS'uh'
p1126
aS'my'
p1127
aS'my'
p1128
aS'mother'
p1129
aS'was'
p1130
aS'like'
p1131
aS'that'
p1132
aS'more'
p1133
aS'so'
p1134
aaa(lp1135
S'LAJUAN'
p1136
a(lp1137
aa(lp1138
S'CAM'
p1139
a(lp1140
S'And'
p1141
aS'then'
p1142
aS'my'
p1143
aS'father'
p1144
aS'was'
p1145
aS'different'
p1146
aaa(lp1147
S'LAJUAN'
p1148
a(lp1149
S'Very'
p1150
aS'emotional'
p1151
aaa(lp1152
g1148
a(lp1153
S'Very'
p1154
aS'hugging'
p1155
aaa(lp1156
S'CAMYeah'
p1157
a(lp1158
aa(lp1159
g1157
a(lp1160
S'very'
p1161
aS'hugging'
p1162
aaa(lp1163
g1157
a(lp1164
S'they'
p1165
aS'were'
p1166
aS'just'
p1167
aaa(lp1168
g1157
a(lp1169
S'See'
p1170
aS'my'
p1171
aS'family'
p1172
aS'is'
p1173
aS'more'
p1174
aaa(lp1175
S'LAJUAN'
p1176
a(lp1177
aa(lp1178
S'CAMits'
p1179
a(lp1180
S'its'
p1181
aS'different'
p1182
aaa(lp1183
g1179
a(lp1184
S'Its'
p1185
aS'like'
p1186
aaa(lp1187
S'LAJUANMm'
p1188
a(lp1189
aa(lp1190
S'CAM'
p1191
a(lp1192
S'each'
p1193
aS'member'
p1194
aS'of'
p1195
aS'the'
p1196
aS'family'
p1197
aS'is'
p1198
aS'slightly'
p1199
aS'different'
p1200
aaa(lp1201
g1191
a(lp1202
S'and'
p1203
aS'different'
p1204
ag69
aS'amount'
p1205
aS'of'
p1206
aS'touch'
p1207
aaa(lp1208
S'LAJUAN'
p1209
a(lp1210
g23
aS'always'
p1211
aS'said'
p1212
aaa(lp1213
g1209
a(lp1214
S'that'
p1215
aS'if'
p1216
ag23
aS'had'
p1217
aS'children'
p1218
aaa(lp1219
g1209
a(lp1220
g23
aS'would'
p1221
aS'always'
p1222
aaa(lp1223
g1209
a(lp1224
S'Especially'
p1225
aS'if'
p1226
ag23
aS'had'
p1227
ag69
aS'son'
p1228
aaa(lp1229
g1209
a(lp1230
g23
aS'would'
p1231
aS'hug'
p1232
aS'him'
p1233
aaa(lp1234
g1209
a(lp1235
S'just'
p1236
aS'so'
p1237
aS'he'
p1238
aS'knew'
p1239
aS'that'
p1240
ag23
aS'loved'
p1241
aS'him'
p1242
aaa(lp1243
S'CAMRight'
p1244
a(lp1245
aa(lp1246
g1244
a(lp1247
g23
aS'think'
p1248
aS'its'
p1249
aS'important'
p1250
aaa(lp1251
g1244
a(lp1252
g23
aS'think'
p1253
aS'its'
p1254
aS'good'
p1255
aaa(lp1256
S'LAJUAN'
p1257
a(lp1258
aa(lp1259
S'CAM'
p1260
a(lp1261
g23
aS'dont'
p1262
aS'think'
p1263
aS'you'
p1264
aS'can'
p1265
aS'overly'
p1266
aS'hug'
p1267
aaa(lp1268
g1260
a(lp1269
S'um'
p1270
aaa(lp1271
g1260
a(lp1272
S'with'
p1273
aS'family'
p1274
aS'and'
p1275
aS'stuff'
p1276
aS'like'
p1277
aS'that'
p1278
aaa(lp1279
S'LAJUANYeah'
p1280
a(lp1281
aa(lp1282
g1280
a(lp1283
S'See'
p1284
aS'and'
p1285
aS'thats'
p1286
aS'how'
p1287
ag23
aS'feel'
p1288
aaa(lp1289
g1280
a(lp1290
S'is'
p1291
aS'that'
p1292
aaa(lp1293
g1280
a(lp1294
g23
aS'want'
p1295
aS'to'
p1296
aS'hug'
p1297
aS'him'
p1298
aaa(lp1299
g1280
a(lp1300
S'because'
p1301
ag23
aS'want'
p1302
aS'him'
p1303
aS'to'
p1304
aS'know'
p1305
aS'that'
p1306
ag23
aS'do'
p1307
aS'love'
p1308
aS'him'
p1309
aaa(lp1310
S'CAMMhm'
p1311
a(lp1312
aa(lp1313
S'LAJUANAnd'
p1314
a(lp1315
S'that'
p1316
aaa(lp1317
g1314
a(lp1318
g23
ag23
ag23
aS'want'
p1319
aS'my'
p1320
aS'children'
p1321
aaa(lp1322
g1314
a(lp1323
S'if'
p1324
ag23
aS'if'
p1325
ag23
aS'ever'
p1326
aS'had'
p1327
aS'children'
p1328
aaa(lp1329
g1314
a(lp1330
S'to'
p1331
aS'know'
p1332
aaa(lp1333
g1314
a(lp1334
S'that'
p1335
aaa(lp1336
g1314
a(lp1337
S'there'
p1338
aS'is'
p1339
aS'nothing'
p1340
aS'wrong'
p1341
aS'with'
p1342
aS'showing'
p1343
aS'physical'
p1344
aS'affection'
p1345
aS'between'
p1346
aS'two'
p1347
aS'men'
p1348
aaa(lp1349
g1314
a(lp1350
S'It'
p1351
aS'doesnt'
p1352
aS'make'
p1353
aS'you'
p1354
aS'gay'
p1355
aaa(lp1356
S'CAM'
p1357
a(lp1358
S'Right'
p1359
aaa(lp1360
S'LAJUAN'
p1361
a(lp1362
S'You'
p1363
aS'know'
p1364
aaa(lp1365
g1361
a(lp1366
S'and'
p1367
aS'that'
p1368
aS'is'
p1369
aS'one'
p1370
aS'of'
p1371
aS'the'
p1372
aS'things'
p1373
aS'that'
p1374
aS'Scott'
p1375
aS'was'
p1376
aS'saying'
p1377
aS'yesterday'
p1378
aaa(lp1379
g1361
a(lp1380
S'it'
p1381
aS'really'
p1382
aS'bothered'
p1383
aS'Scott'
p1384
ag69
aS'lot'
p1385
aaa(lp1386
g1361
a(lp1387
S'because'
p1388
aS'his'
p1389
aS'nephew'
p1390
aaa(lp1391
g1361
a(lp1392
S'uh'
p1393
aaa(lp1394
g1361
a(lp1395
S'kept'
p1396
aS'calling'
p1397
aS'him'
p1398
aS'Aunt'
p1399
aS'Scott'
p1400
aaa(lp1401
g1361
a(lp1402
S'Because'
p1403
aaa(lp1404
g1361
a(lp1405
S'and'
p1406
aS'his'
p1407
aS'nephew'
p1408
aS'was'
p1409
aS'just'
p1410
aS'being'
p1411
aS'rude'
p1412
aS'and'
p1413
aS'obnoxious'
p1414
aS'about'
p1415
aS'every'
p1416
aS'gift'
p1417
aaa(lp1418
g1361
a(lp1419
S'he'
p1420
aS'he'
p1421
aS'unwrapped'
p1422
aaa(lp1423
g1361
a(lp1424
S'and'
p1425
aS'his'
p1426
aS'brother'
p1427
aS'said'
p1428
aaa(lp1429
g1361
a(lp1430
S'oh'
p1431
aS'thats'
p1432
aS'just'
p1433
aS'the'
p1434
aS'way'
p1435
aS'kids'
p1436
aS'are'
p1437
aS'today'
p1438
aaa(lp1439
g1361
a(lp1440
S'and'
p1441
aS'Im'
p1442
aS'like'
p1443
aaa(lp1444
g1361
a(lp1445
S'no'
p1446
aS'thats'
p1447
aS'the'
p1448
aS'way'
p1449
aS'you'
p1450
aS'train'
p1451
aS'your'
p1452
aS'kids'
p1453
aaa(lp1454
g1361
a(lp1455
S'If'
p1456
aS'you'
p1457
aS'dont'
p1458
aS'train'
p1459
aS'your'
p1460
aS'kids'
p1461
aS'to'
p1462
aS'be'
p1463
aS'any'
p1464
aS'better'
p1465
aaa(lp1466
g1361
a(lp1467
S'then'
p1468
aS'they'
p1469
aS'are'
p1470
aaa(lp1471
g1361
a(lp1472
S'and'
p1473
aS'see'
p1474
aS'and'
p1475
aS'in'
p1476
aS'Scotts'
p1477
aS'family'
p1478
aaa(lp1479
g1361
a(lp1480
S'like'
p1481
aS'his'
p1482
aS'brother'
p1483
aaa(lp1484
g1361
a(lp1485
S'his'
p1486
aS'older'
p1487
aS'brotherll'
p1488
aS'say'
p1489
aaa(lp1490
g1361
a(lp1491
S'oh'
p1492
aS'Scotts'
p1493
aS'my'
p1494
aS'best'
p1495
aS'friend'
p1496
aaa(lp1497
g1361
a(lp1498
S'But'
p1499
aS'hell'
p1500
aS'tease'
p1501
aS'Scott'
p1502
aS'about'
p1503
aaa(lp1504
g1361
a(lp1505
S'oh'
p1506
aS'why'
p1507
aS'arent'
p1508
aS'you'
p1509
aS'married'
p1510
aaa(lp1511
g1361
a(lp1512
S'You'
p1513
aS'know'
p1514
aaa(lp1515
g1361
a(lp1516
S'you'
p1517
aS'must'
p1518
aS'be'
p1519
ag69
aS'fag'
p1520
aaa(lp1521
g1361
a(lp1522
S'Or'
p1523
aS'this'
p1524
aaa(lp1525
g1361
a(lp1526
S'and'
p1527
aS'hell'
p1528
aS'laugh'
p1529
aS'it'
p1530
aS'off'
p1531
aaa(lp1532
g1361
a(lp1533
S'and'
p1534
aS'he'
p1535
aS'doesnt'
p1536
aS'realize'
p1537
aaa(lp1538
g1361
a(lp1539
S'well'
p1540
aS'yeah'
p1541
aS'Scott'
p1542
aS'is'
p1543
aS'gay'
p1544
aaa(lp1545
g1361
a(lp1546
S'and'
p1547
aS'it'
p1548
aS'hurts'
p1549
aS'Scott'
p1550
aaa(lp1551
S'CAM'
p1552
a(lp1553
S'He'
p1554
aS'doesnt'
p1555
aS'know'
p1556
aS'that'
p1557
aS'hes'
p1558
aS'gay'
p1559
aaa(lp1560
S'LAJUAN'
p1561
a(lp1562
S'Hmmm'
p1563
aaa(lp1564
S'CAM'
p1565
a(lp1566
aa(lp1567
S'LAJUAN'
p1568
a(lp1569
S'Has'
p1570
aS'no'
p1571
aS'idea'
p1572
aaa(lp1573
g1568
a(lp1574
S'Hes'
p1575
aS'probably'
p1576
aS'hes'
p1577
aS'gonna'
p1578
aS'drop'
p1579
aS'him'
p1580
aS'off'
p1581
aaa(lp1582
g1568
a(lp1583
S'which'
p1584
aS'is'
p1585
aS'why'
p1586
ag23
aS'have'
p1587
aS'to'
p1588
aS'close'
p1589
aS'those'
p1590
aS'blinds'
p1591
aS'soon'
p1592
aaa(lp1593
g1568
a(lp1594
S'But'
p1595
aS'uh'
p1596
aaa(lp1597
g1568
a(lp1598
S'it'
p1599
aS'its'
p1600
aS'the'
p1601
aS'way'
p1602
aS'he'
p1603
aS'is'
p1604
aaa(lp1605
g1568
a(lp1606
S'And'
p1607
aS'his'
p1608
aS'brother'
p1609
aS'is'
p1610
aS'just'
p1611
aS'like'
p1612
aS'that'
p1613
aaa(lp1614
g1568
a(lp1615
S'And'
p1616
aS'so'
p1617
aaa(lp1618
g1568
a(lp1619
S'he'
p1620
aaa(lp1621
g1568
a(lp1622
S'and'
p1623
aS'h'
p1624
aS'and'
p1625
aS'so'
p1626
aS'his'
p1627
aS'little'
p1628
aS'boy'
p1629
aS'is'
p1630
aS'growing'
p1631
aS'up'
p1632
aS'the'
p1633
aS'same'
p1634
aS'way'
p1635
aaa(lp1636
g1568
a(lp1637
S'Larrys'
p1638
aS'twelve'
p1639
aaa(lp1640
g1568
a(lp1641
S'And'
p1642
aS'hes'
p1643
aS'like'
p1644
aS'this'
p1645
aS'big'
p1646
aS'kid'
p1647
aaa(lp1648
g1568
a(lp1649
S'cause'
p1650
aS'hes'
p1651
aS'overweight'
p1652
aaa(lp1653
g1568
a(lp1654
S'And'
p1655
ag23
aS'told'
p1656
aS'Scott'
p1657
ag23
aS'said'
p1658
aS'well'
p1659
aS'Scott'
p1660
aaa(lp1661
g1568
a(lp1662
g23
aS'wouldnt'
p1663
aS'take'
p1664
aS'it'
p1665
aS'personal'
p1666
aaa(lp1667
g1568
a(lp1668
S'cause'
p1669
aS'Scott'
p1670
aS'was'
p1671
aS'telling'
p1672
aS'me'
p1673
aS'this'
p1674
aS'morning'
p1675
aaa(lp1676
g1568
a(lp1677
g23
aS'said'
p1678
aaa(lp1679
g1568
a(lp1680
S'first'
p1681
aS'of'
p1682
aS'all'
p1683
aaa(lp1684
g1568
a(lp1685
S'Larrys'
p1686
aS'twelve'
p1687
aS'years'
p1688
aS'old'
p1689
aaa(lp1690
g1568
a(lp1691
S'hes'
p1692
aS'like'
p1693
aS'six'
p1694
aS'foot'
p1695
aS'one'
p1696
aaa(lp1697
g1568
a(lp1698
S'and'
p1699
aS'hes'
p1700
aS'fat'
p1701
aaa(lp1702
g1568
a(lp1703
g23
aS'mean'
p1704
aaa(lp1705
g1568
a(lp1706
S'hes'
p1707
aS'just'
p1708
aS'probably'
p1709
ag69
aS'good'
p1710
aS'two'
p1711
aS'hundred'
p1712
aS'fifty'
p1713
aS'pounds'
p1714
ag23
aS'said'
p1715
aaa(lp1716
S'CAMHes'
p1717
a(lp1718
S'six'
p1719
aS'one'
p1720
aaa(lp1721
g1717
a(lp1722
S'At'
p1723
aS'twelve'
p1724
aaa(lp1725
S'LAJUAN'
p1726
a(lp1727
S'At'
p1728
aS'twelve'
p1729
aS'years'
p1730
aS'old'
p1731
aaa(lp1732
S'CAMOh'
p1733
a(lp1734
S'thats'
p1735
aS'scary'
p1736
aaa(lp1737
S'LAJUAN'
p1738
a(lp1739
S'And'
p1740
aS'hes'
p1741
aS'like'
p1742
aS'two'
p1743
aS'hundred'
p1744
aS'and'
p1745
aS'fifty'
p1746
aS'pounds'
p1747
aaa(lp1748
g1738
a(lp1749
S'And'
p1750
ag23
aS'said'
p1751
aS'Scott'
p1752
aS'hes'
p1753
aS'compensating'
p1754
aaa(lp1755
g1738
a(lp1756
S'for'
p1757
aS'the'
p1758
aS'fact'
p1759
aaa(lp1760
g1738
a(lp1761
g23
aS'said'
p1762
ag23
aS'bet'
p1763
aS'you'
p1764
aS'the'
p1765
aS'kids'
p1766
aS'pick'
p1767
aS'on'
p1768
aS'him'
p1769
aaa(lp1770
g1738
a(lp1771
g23
aS'said'
p1772
aS'hes'
p1773
aS'different'
p1774
aaa(lp1775
g1738
a(lp1776
g23
aS'said'
p1777
aS'so'
p1778
aS'therefore'
p1779
aaa(lp1780
g1738
a(lp1781
S'he'
p1782
aS'probably'
p1783
aS'is'
p1784
ag69
aS'big'
p1785
aS'bully'
p1786
aS'at'
p1787
aS'school'
p1788
aaa(lp1789
g1738
a(lp1790
S'And'
p1791
ag23
aS'said'
p1792
aaa(lp1793
g1738
a(lp1794
S'so'
p1795
aS'hes'
p1796
aS'probably'
p1797
aS'just'
p1798
aS'like'
p1799
aS'this'
p1800
aS'kid'
p1801
aS'whos'
p1802
aS'just'
p1803
aS'like'
p1804
aaa(lp1805
g1738
a(lp1806
S'bitter'
p1807
aaa(lp1808
g1738
a(lp1809
S'because'
p1810
aS'nobody'
p1811
aaa(lp1812
g1738
a(lp1813
S'And'
p1814
ag23
aS'said'
p1815
aS'his'
p1816
aS'dad'
p1817
aS'is'
p1818
aS'just'
p1819
aS'an'
p1820
ag69
ag69
aS'jerk'
p1821
aaa(lp1822
g1738
a(lp1823
S'Scotts'
p1824
aS'brother'
p1825
aaa(lp1826
g1738
a(lp1827
S'will'
p1828
aS'call'
p1829
aS'our'
p1830
aS'house'
p1831
aaa(lp1832
g1738
a(lp1833
S'and'
p1834
aS'just'
p1835
aaa(lp1836
g1738
a(lp1837
S'is'
p1838
aS'just'
p1839
aS'rude'
p1840
aS'to'
p1841
aS'Scott'
p1842
aaa(lp1843
g1738
a(lp1844
S'But'
p1845
aS'yet'
p1846
aS'hell'
p1847
aS'turn'
p1848
aS'around'
p1849
aS'and'
p1850
aS'ask'
p1851
aS'Scott'
p1852
aS'to'
p1853
aS'borrow'
p1854
aS'five'
p1855
aS'thousand'
p1856
aS'dollars'
p1857
aaa(lp1858
g1738
a(lp1859
g23
aS'mean'
p1860
aS'like'
p1861
aS'he'
p1862
aS'just'
p1863
aS'borrowed'
p1864
aS'twentyfive'
p1865
aS'thousand'
p1866
aS'dollars'
p1867
aS'from'
p1868
aS'Scott'
p1869
aaa(lp1870
g1738
a(lp1871
S'like'
p1872
aS'two'
p1873
aS'years'
p1874
aS'ago'
p1875
aaa(lp1876
g1738
a(lp1877
S'and'
p1878
aS'told'
p1879
aS'Scott'
p1880
aaa(lp1881
g1738
a(lp1882
S'oh'
p1883
aS'Ill'
p1884
aS'give'
p1885
aS'it'
p1886
aS'back'
p1887
aaa(lp1888
g1738
a(lp1889
S'Im'
p1890
aS'gonna'
p1891
aS'invest'
p1892
aS'it'
p1893
aS'and'
p1894
aS'Ill'
p1895
aS'give'
p1896
aS'it'
p1897
aS'back'
p1898
aS'in'
p1899
aS'three'
p1900
aS'months'
p1901
aaa(lp1902
g1738
a(lp1903
S'So'
p1904
aaa(lp1905
g1738
a(lp1906
S'he'
p1907
aS'gives'
p1908
aS'Scott'
p1909
aaa(lp1910
g1738
a(lp1911
S'It'
p1912
aS'takes'
p1913
aS'him'
p1914
aS'instead'
p1915
aaa(lp1916
g1738
a(lp1917
g69
aS'year'
p1918
aS'and'
p1919
ag69
aS'half'
p1920
aS'to'
p1921
aS'pay'
p1922
aS'Scott'
p1923
aS'back'
p1924
aaa(lp1925
g1738
a(lp1926
S'Like'
p1927
aS'w'
p1928
aS'Scotts'
p1929
aS'got'
p1930
aS'twentyfive'
p1931
aS'thousand'
p1932
aS'dollars'
p1933
aS'just'
p1934
aS'to'
p1935
aS'lay'
p1936
aS'around'
p1937
aaa(lp1938
g1738
a(lp1939
S'Like'
p1940
aS'that'
p1941
aaa(lp1942
g1738
a(lp1943
S'You'
p1944
aS'know'
p1945
aS'and'
p1946
aaa(lp1947
g1738
a(lp1948
S'thats'
p1949
aS'the'
p1950
aS'way'
p1951
aS'his'
p1952
aS'brother'
p1953
aS'is'
p1954
aaa(lp1955
g1738
a(lp1956
S'You'
p1957
aS'know'
p1958
aS'very'
p1959
aaa(lp1960
g1738
a(lp1961
S'and'
p1962
aS'hes'
p1963
aS'just'
p1964
aaa(lp1965
g1738
a(lp1966
S'hes'
p1967
aS'just'
p1968
aS'mean'
p1969
aS'to'
p1970
aS'Scott'
p1971
aaa(lp1972
g1738
a(lp1973
S'He'
p1974
aS'says'
p1975
aS'things'
p1976
aS'to'
p1977
aS'Scott'
p1978
aaa(lp1979
g1738
a(lp1980
S'just'
p1981
aS'like'
p1982
aaa(lp1983
g1738
a(lp1984
S'oh'
p1985
aS'just'
p1986
aS'awful'
p1987
aS'things'
p1988
aS'about'
p1989
aS'gay'
p1990
aS'and'
p1991
aaa(lp1992
S'CAMWell'
p1993
a(lp1994
aa(lp1995
g1993
a(lp1996
S'why'
p1997
aS'doesnt'
p1998
aS'Scott'
p1999
aS'say'
p2000
aS'something'
p2001
aaa(lp2002
S'LAJUAN'
p2003
a(lp2004
S'Because'
p2005
aaa(lp2006
g2003
a(lp2007
S'Scott'
p2008
aS'hasnt'
p2009
aS'dealt'
p2010
aS'with'
p2011
aS'his'
p2012
aS'gayness'
p2013
aS'himself'
p2014
aaa(lp2015
g2003
a(lp2016
S'and'
p2017
aS'he'
p2018
aS'hasnt'
p2019
aS'dealt'
p2020
aS'with'
p2021
aaa(lp2022
g2003
a(lp2023
S'who'
p2024
aS'he'
p2025
aS'is'
p2026
aaa(lp2027
S'CAMMm'
p2028
a(lp2029
aa(lp2030
S'LAJUAN'
p2031
a(lp2032
S'And'
p2033
aS'thats'
p2034
aS'why'
p2035
aS'he'
p2036
aS'doesnt'
p2037
aS'say'
p2038
aS'anything'
p2039
aaa(lp2040
S'CAM'
p2041
a(lp2042
S'So'
p2043
aS'you'
p2044
aS'cant'
p2045
aS'really'
p2046
aS'blame'
p2047
aS'the'
p2048
aS'guy'
p2049
aS'in'
p2050
aS'the'
p2051
aS'sense'
p2052
aS'that'
p2053
aaa(lp2054
S'LAJUAN'
p2055
a(lp2056
aa(lp2057
S'CAMhe'
p2058
a(lp2059
S'doesnt'
p2060
aS'know'
p2061
aS'hes'
p2062
aS'hurting'
p2063
aS'him'
p2064
aaa(lp2065
S'LAJUAN'
p2066
a(lp2067
S'If'
p2068
aS'Scott'
p2069
aS'doesnt'
p2070
aS'stick'
p2071
aS'up'
p2072
aS'for'
p2073
aS'himself'
p2074
aaa(lp2075
S'CAMRight'
p2076
a(lp2077
aa(lp2078
S'LAJUAN'
p2079
a(lp2080
S'And'
p2081
ag23
aS'keep'
p2082
aS'telling'
p2083
aS'Scott'
p2084
aaa(lp2085
S'CAM'
p2086
a(lp2087
aa(lp2088
S'LAJUANyoure'
p2089
a(lp2090
S'gonna'
p2091
aS'have'
p2092
aS'to'
p2093
aS'say'
p2094
aS'something'
p2095
aaa(lp2096
S'CAM'
p2097
a(lp2098
aa(lp2099
S'LAJUAN'
p2100
a(lp2101
S'Because'
p2102
aS'all'
p2103
aS'of'
p2104
aS'these'
p2105
aS'things'
p2106
aS'are'
p2107
aS'hurting'
p2108
aS'you'
p2109
aaa(lp2110
S'CAM'
p2111
a(lp2112
S'VOX'
p2113
aS'Yeah'
p2114
aS'VOX'
p2115
aaa(lp2116
S'LAJUANAnd'
p2117
a(lp2118
S'Scotts'
p2119
aS'like'
p2120
aS'oh'
p2121
aS'it'
p2122
aS'doesnt'
p2123
aS'bother'
p2124
aS'me'
p2125
aaa(lp2126
g2117
a(lp2127
S'and'
p2128
aS'Im'
p2129
aS'like'
p2130
aS'then'
p2131
aS'why'
p2132
aS'are'
p2133
aS'you'
p2134
aS'talking'
p2135
aS'about'
p2136
aS'it'
p2137
aaa(lp2138
g2117
a(lp2139
g23
aS'said'
p2140
aS'i'
p2141
aS'if'
p2142
aS'that'
p2143
aS'would'
p2144
aS'have'
p2145
aS'been'
p2146
aS'my'
p2147
aS'nephew'
p2148
aaa(lp2149
g2117
a(lp2150
S'and'
p2151
aS'he'
p2152
aS'would'
p2153
aS'have'
p2154
aS'said'
p2155
aS'that'
p2156
aS'to'
p2157
aS'me'
p2158
aaa(lp2159
g2117
a(lp2160
S'Idve'
p2161
aS'knocked'
p2162
aS'him'
p2163
aS'across'
p2164
aS'that'
p2165
aS'chair'
p2166
aaa(lp2167
g2117
a(lp2168
g23
aS'dont'
p2169
aS'care'
p2170
aS'how'
p2171
aS'big'
p2172
aS'he'
p2173
aS'was'
p2174
aaa(lp2175
S'CAMVOX'
p2176
a(lp2177
S'VOX'
p2178
aaa(lp2179
S'LAJUAN'
p2180
a(lp2181
aa(lp2182
S'CAMOh'
p2183
a(lp2184
S'yeah'
p2185
aaa(lp2186
S'LAJUAN'
p2187
a(lp2188
g23
aS'said'
p2189
aS'my'
p2190
aS'nephews'
p2191
aS'd'
p2192
aaa(lp2193
g2187
a(lp2194
S'My'
p2195
aS'nephews'
p2196
aS'and'
p2197
aS'nieces'
p2198
aS'do'
p2199
aS'not'
p2200
aaa(lp2201
g2187
a(lp2202
S'one'
p2203
aS'of'
p2204
aS'the'
p2205
aS'little'
p2206
aS'girls'
p2207
aaa(lp2208
S'CAM'
p2209
a(lp2210
aa(lp2211
S'LAJUANf'
p2212
a(lp2213
S'uh'
p2214
aaa(lp2215
g2212
a(lp2216
S'tried'
p2217
aS'pulling'
p2218
aS'something'
p2219
aS'on'
p2220
aaa(lp2221
g2212
a(lp2222
S'We'
p2223
aS'went'
p2224
aS'shopping'
p2225
aaa(lp2226
g2212
a(lp2227
S'and'
p2228
aS'tried'
p2229
aS'the'
p2230
aS'little'
p2231
aS'attitude'
p2232
aS'in'
p2233
aS'the'
p2234
aS'in'
p2235
aS'the'
p2236
aS'mall'
p2237
aaa(lp2238
g2212
a(lp2239
S'And'
p2240
ag23
aS'grabbed'
p2241
aS'her'
p2242
aS'and'
p2243
ag23
aS'said'
p2244
aaa(lp2245
g2212
a(lp2246
g23
aS'dont'
p2247
aS'care'
p2248
aS'if'
p2249
aS'you'
p2250
aS'are'
p2251
aS'my'
p2252
aS'sisters'
p2253
aS'child'
p2254
aaa(lp2255
g2212
a(lp2256
g23
aS'will'
p2257
aS'knock'
p2258
aS'you'
p2259
aS'across'
p2260
aS'that'
p2261
aS'bench'
p2262
aaa(lp2263
g2212
a(lp2264
S'HI'
p2265
aS'in'
p2266
ag69
aS'second'
p2267
aS'HI'
p2268
aaa(lp2269
S'CAM'
p2270
a(lp2271
aa(lp2272
S'LAJUANI'
p2273
a(lp2274
S'said'
p2275
ag23
aS'dont'
p2276
aS'have'
p2277
aS'to'
p2278
aS'take'
p2279
aS'that'
p2280
aaa(lp2281
S'CAM'
p2282
a(lp2283
aa(lp2284
S'LAJUANX'
p2285
a(lp2286
g23
aS'just'
p2287
aS'its'
p2288
ag84
aaa(lp2289
g2285
a(lp2290
S'You'
p2291
aS'will'
p2292
aS'never'
p2293
aS'go'
p2294
aS'shopping'
p2295
aS'with'
p2296
aS'me'
p2297
aS'again'
p2298
aaa(lp2299
S'CAM'
p2300
a(lp2301
aa(lp2302
S'LAJUANUm'
p2303
a(lp2304
aa(lp2305
g2303
a(lp2306
g23
aS'just'
p2307
aS'dont'
p2308
aS'believe'
p2309
aS'in'
p2310
aS'it'
p2311
aaa(lp2312
g2303
a(lp2313
S'and'
p2314
ag23
ag23
aS'Im'
p2315
aS'sorry'
p2316
aaa(lp2317
g2303
a(lp2318
g23
aS'was'
p2319
aS'not'
p2320
aS'hit'
p2321
aS'as'
p2322
ag69
aS'child'
p2323
aaa(lp2324
g2303
a(lp2325
S'but'
p2326
ag23
aS'also'
p2327
aS'was'
p2328
aS'not'
p2329
aS'nasty'
p2330
aaa(lp2331
g2303
a(lp2332
S'like'
p2333
aS'some'
p2334
aS'kids'
p2335
aS'now'
p2336
aaa(lp2337
g2303
a(lp2338
S'Hes'
p2339
aS'right'
p2340
aaa(lp2341
g2303
a(lp2342
S'They'
p2343
aS'do'
p2344
aS'talk'
p2345
ag84
aS'bad'
p2346
ag84
aaa(lp2347
g2303
a(lp2348
S'Some'
p2349
aS'of'
p2350
aS'the'
p2351
aS'kids'
p2352
aS'say'
p2353
aS'things'
p2354
aaa(lp2355
g2303
a(lp2356
S'but'
p2357
aS'kids'
p2358
aS'always'
p2359
aS'do'
p2360
aaa(lp2361
g2303
a(lp2362
S'but'
p2363
aaa(lp2364
g2303
a(lp2365
S'thats'
p2366
aS'not'
p2367
aS'an'
p2368
aS'excuse'
p2369
aaa(lp2370
S'ENV'
p2371
a(lp2372
aa(lp2373
S'CAMExactly'
p2374
a(lp2375
aa(lp2376
S'LAJUAN'
p2377
a(lp2378
aa(lp2379
S'ENV'
p2380
a(lp2381
aa(lp2382
S'LAJUAN'
p2383
a(lp2384
S'Hello'
p2385
aaa(lp2386
g2383
a(lp2387
S'Hello'
p2388
aaa(lp2389
g2383
a(lp2390
S'Whats'
p2391
aS'wrong'
p2392
aaa(lp2393
S'CAM'
p2394
a(lp2395
S'P'
p2396
aS'Its'
p2397
aS'Jimmy'
p2398
ag2396
aaa(lp2399
S'LAJUAN'
p2400
a(lp2401
S'SM'
p2402
aS'Why'
p2403
aaa(lp2404
g2400
a(lp2405
S'Why'
p2406
aaa(lp2407
g2400
a(lp2408
S'SM'
p2409
aaa(lp2410
g2400
a(lp2411
S'Okay'
p2412
aaa(lp2413
g2400
a(lp2414
S'alright'
p2415
aaa(lp2416
g2400
a(lp2417
S'Wel'
p2418
aaa(lp2419
g2400
a(lp2420
S'Yeah'
p2421
aaa(lp2422
g2400
a(lp2423
S'If'
p2424
aS'you'
p2425
aS'dont'
p2426
aS'have'
p2427
aS'enough'
p2428
aS'gas'
p2429
aS'and'
p2430
aS'youre'
p2431
aS'worried'
p2432
aaa(lp2433
g2400
a(lp2434
S'that'
p2435
aS'youre'
p2436
aS'gonna'
p2437
aS'run'
p2438
aS'out'
p2439
aaa(lp2440
g2400
a(lp2441
g23
aS'wouldnt'
p2442
aS'go'
p2443
aS'anywhere'
p2444
aS'either'
p2445
aaa(lp2446
g2400
a(lp2447
S'So'
p2448
aS'why'
p2449
aS'dont'
p2450
aS'you'
p2451
aS'call'
p2452
aaa(lp2453
g2400
a(lp2454
S'Ill'
p2455
aS'call'
p2456
aS'you'
p2457
aS'later'
p2458
aS'on'
p2459
aaa(lp2460
g2400
a(lp2461
S'Okay'
p2462
aaa(lp2463
g2400
a(lp2464
S'Bye'
p2465
aaa(lp2466
S'ENV'
p2467
a(lp2468
aa(lp2469
S'LAJUAN'
p2470
a(lp2471
S'Hes'
p2472
aS'afraid'
p2473
aS'that'
p2474
aS'hes'
p2475
aS'gonna'
p2476
aS'run'
p2477
aS'out'
p2478
aS'of'
p2479
aS'gas'
p2480
aS'getting'
p2481
aS'over'
p2482
aS'here'
p2483
aaa(lp2484
S'CAMWell'
p2485
a(lp2486
S'why'
p2487
aS'doesnt'
p2488
aS'he'
p2489
aS'get'
p2490
aS'gas'
p2491
aaa(lp2492
S'LAJUAN'
p2493
a(lp2494
g23
aS'dont'
p2495
aS'know'
p2496
aaa(lp2497
g2493
a(lp2498
S'he'
p2499
aS'drove'
p2500
aS'all'
p2501
aS'the'
p2502
aS'way'
p2503
aS'back'
p2504
aS'from'
p2505
aS'Green'
p2506
aS'Bay'
p2507
aS'with'
p2508
aaa(lp2509
g2493
a(lp2510
S'just'
p2511
aS'on'
p2512
aS'that'
p2513
aaa(lp2514
g2493
a(lp2515
S'And'
p2516
aS'he'
p2517
aS'thought'
p2518
aS'he'
p2519
aS'was'
p2520
aS'gonna'
p2521
aaa(lp2522
g2493
a(lp2523
S'like'
p2524
aaa(lp2525
g2493
a(lp2526
S'make'
p2527
aS'it'
p2528
aaa(lp2529
g2493
a(lp2530
S'and'
p2531
aS'somebody'
p2532
aS'would'
p2533
aS'be'
p2534
aS'open'
p2535
aaa(lp2536
g2493
a(lp2537
S'and'
p2538
aS'Im'
p2539
aS'like'
p2540
aaa(lp2541
g2493
a(lp2542
S'so'
p2543
aS'he'
p2544
aS'said'
p2545
aS'hes'
p2546
aS'like'
p2547
aaa(lp2548
g2493
a(lp2549
S'its'
p2550
aaa(lp2551
g2493
a(lp2552
S'He'
p2553
aS'said'
p2554
aS'its'
p2555
aS'like'
p2556
aS'past'
p2557
aS'empty'
p2558
aaa(lp2559
g2493
a(lp2560
S'its'
p2561
aS'past'
p2562
aS'the'
p2563
aS'E'
p2564
aaa(lp2565
g2493
a(lp2566
S'and'
p2567
aS'so'
p2568
aS'hes'
p2569
aS'afraid'
p2570
aaa(lp2571
g2493
a(lp2572
S'that'
p2573
aS'hell'
p2574
aS'run'
p2575
aS'out'
p2576
aS'on'
p2577
aS'his'
p2578
aS'way'
p2579
aS'over'
p2580
aS'here'
p2581
aaa(lp2582
g2493
a(lp2583
S'and'
p2584
aS'he'
p2585
aS'probably'
p2586
aS'would'
p2587
aaa(lp2588
S'CAM'
p2589
a(lp2590
S'Oh'
p2591
aaa(lp2592
g2589
a(lp2593
S'Well'
p2594
aS'he'
p2595
aS'should'
p2596
aS'just'
p2597
aaa(lp2598
g2589
a(lp2599
S'go'
p2600
aS'to'
p2601
ag69
aS'gas'
p2602
aS'station'
p2603
aaa(lp2604
S'LAJUANSo'
p2605
a(lp2606
S'he'
p2607
aS'said'
p2608
aS'hell'
p2609
aaa(lp2610
g2605
a(lp2611
S'Well'
p2612
aS'theres'
p2613
aS'one'
p2614
aS'down'
p2615
aS'the'
p2616
aS'street'
p2617
aS'from'
p2618
aS'his'
p2619
aS'house'
p2620
aaa(lp2621
g2605
a(lp2622
S'but'
p2623
aS'itll'
p2624
aS'probably'
p2625
aS'be'
p2626
aS'open'
p2627
aS'tomorrow'
p2628
aS'morning'
p2629
aaa(lp2630
S'CAM'
p2631
a(lp2632
S'Oh'
p2633
aaa(lp2634
S'LAJUANIts'
p2635
a(lp2636
S'not'
p2637
aS'open'
p2638
aS'now'
p2639
aaa(lp2640
g2635
a(lp2641
S'So'
p2642
aS'he'
p2643
aS'said'
p2644
aS'hed'
p2645
aS'just'
p2646
aS'rather'
p2647
aS'stay'
p2648
aS'home'
p2649
aaa(lp2650
g2635
a(lp2651
S'Instead'
p2652
aaa(lp2653
g2635
a(lp2654
S'and'
p2655
ag23
aS'said'
p2656
aS'fine'
p2657
aaa(lp2658
g2635
a(lp2659
S'go'
p2660
aS'ahead'
p2661
aS'and'
p2662
aS'stay'
p2663
aS'home'
p2664
aaa(lp2665
S'CAM'
p2666
a(lp2667
aa(lp2668
S'LAJUAN'
p2669
a(lp2670
S'But'
p2671
ag23
aS'dont'
p2672
aS'know'
p2673
aaa(lp2674
g2669
a(lp2675
g23
ag23
aS'really'
p2676
aS'think'
p2677
aS'that'
p2678
aaa(lp2679
g2669
a(lp2680
S'it'
p2681
aS'its'
p2682
aS'hard'
p2683
aaa(lp2684
S'CAM'
p2685
a(lp2686
aa(lp2687
S'LAJUAN'
p2688
a(lp2689
S'its'
p2690
aS'hard'
p2691
aaa(lp2692
g2688
a(lp2693
S'its'
p2694
aS'it'
p2695
aS'is'
p2696
aS'hard'
p2697
aS'having'
p2698
aaa(lp2699
g2688
a(lp2700
S'to'
p2701
aS'hide'
p2702
aS'this'
p2703
aS'like'
p2704
aS'Scotts'
p2705
aS'doing'
p2706
aaa(lp2707
g2688
a(lp2708
g23
aS'couldnt'
p2709
aS'hide'
p2710
aS'it'
p2711
aS'any'
p2712
aS'longer'
p2713
ag84
aS'than'
p2714
aS'he'
p2715
aS'has'
p2716
ag84
aaa(lp2717
g2688
a(lp2718
S'hes'
p2719
aS'hiding'
p2720
aS'it'
p2721
aS'way'
p2722
aS'too'
p2723
aS'long'
p2724
aaa(lp2725
S'CAM'
p2726
a(lp2727
S'Yeah'
p2728
aaa(lp2729
S'LAJUAN'
p2730
a(lp2731
aa(lp2732
S'CAMNo'
p2733
a(lp2734
g23
aS'couldnt'
p2735
aS'hide'
p2736
aS'it'
p2737
aS'that'
p2738
aS'long'
p2739
aS'either'
p2740
aaa(lp2741
g2733
a(lp2742
g23
aS'told'
p2743
aS'my'
p2744
aS'mother'
p2745
aS'when'
p2746
ag23
aS'had'
p2747
aS'like'
p2748
aaa(lp2749
g2733
a(lp2750
S'my'
p2751
aS'boyfriend'
p2752
aS'moved'
p2753
aS'away'
p2754
aaa(lp2755
g2733
a(lp2756
S'She'
p2757
ag965
aaa(lp2758
S'LAJUANIs'
p2759
a(lp2760
S'that'
p2761
aS'why'
p2762
aS'you'
p2763
aS'told'
p2764
aS'her'
p2765
aaa(lp2766
S'CAM'
p2767
a(lp2768
S'Mm'
p2769
aaa(lp2770
g2767
a(lp2771
S'Cause'
p2772
ag23
aS'was'
p2773
aS'really'
p2774
aS'upset'
p2775
aaa(lp2776
g2767
a(lp2777
S'And'
p2778
aS'then'
p2779
ag23
ag965
aaa(lp2780
g2767
a(lp2781
S'And'
p2782
aS'then'
p2783
aS'shes'
p2784
aS'like'
p2785
aaa(lp2786
g2767
a(lp2787
S'well'
p2788
aS'its'
p2789
ag69
aS'good'
p2790
aS'thing'
p2791
aS'he'
p2792
aS'moved'
p2793
aS'away'
p2794
aaa(lp2795
g2767
a(lp2796
S'cause'
p2797
aS'he'
p2798
aS'was'
p2799
aS'sort'
p2800
aS'of'
p2801
aS'effeminate'
p2802
aaa(lp2803
g2767
a(lp2804
S'and'
p2805
ag23
aS'was'
p2806
aS'really'
p2807
aS'offended'
p2808
aaa(lp2809
S'LAJUAN'
p2810
a(lp2811
S'Thats'
p2812
aS'how'
p2813
aS'she'
p2814
aS'took'
p2815
aS'it'
p2816
aaa(lp2817
S'CAM'
p2818
a(lp2819
S'Yeah'
p2820
aaa(lp2821
g2818
a(lp2822
S'And'
p2823
ag23
aS'was'
p2824
aS'really'
p2825
aS'offended'
p2826
aaa(lp2827
g2818
a(lp2828
S'cause'
p2829
aS'she'
p2830
aS'said'
p2831
aS'something'
p2832
aS'like'
p2833
aaa(lp2834
S'LAJUAN'
p2835
a(lp2836
aa(lp2837
S'CAMwell'
p2838
a(lp2839
S'its'
p2840
ag69
aS'good'
p2841
aS'thing'
p2842
aaa(lp2843
g2838
a(lp2844
S'he'
p2845
aS'was'
p2846
aS'sort'
p2847
aS'of'
p2848
aS'weird'
p2849
aaa(lp2850
g2838
a(lp2851
g23
aS'didnt'
p2852
aS'like'
p2853
aS'you'
p2854
aS'hanging'
p2855
aS'around'
p2856
aS'him'
p2857
aaa(lp2858
g2838
a(lp2859
S'And'
p2860
ag23
aS'said'
p2861
aS'VOX'
p2862
aS'what'
p2863
aS'do'
p2864
aS'you'
p2865
aS'mean'
p2866
aS'he'
p2867
aS'was'
p2868
aS'weird'
p2869
aS'VOX'
p2870
aaa(lp2871
g2838
a(lp2872
S'And'
p2873
aS'she'
p2874
aS'said'
p2875
aS'he'
p2876
aS'was'
p2877
aS'sort'
p2878
aS'of'
p2879
aS'effeminate'
p2880
aaa(lp2881
g2838
a(lp2882
S'And'
p2883
ag23
aS'was'
p2884
aS'like'
p2885
aaa(lp2886
g2838
a(lp2887
S'well'
p2888
aS'what'
p2889
aS'do'
p2890
aS'you'
p2891
aS'mean'
p2892
aaa(lp2893
g2838
a(lp2894
S'hes'
p2895
aS'gay'
p2896
aS'or'
p2897
aS'something'
p2898
aaa(lp2899
g2838
a(lp2900
S'shes'
p2901
aS'like'
p2902
aS'well'
p2903
ag23
aS'think'
p2904
aS'he'
p2905
aS'might'
p2906
aS'have'
p2907
aS'been'
p2908
aaa(lp2909
g2838
a(lp2910
S'And'
p2911
ag23
aS'said'
p2912
aS'well'
p2913
aaa(lp2914
g2838
a(lp2915
S'why'
p2916
aaa(lp2917
g2838
a(lp2918
S'does'
p2919
aS'that'
p2920
aS'bother'
p2921
aS'you'
p2922
aaa(lp2923
g2838
a(lp2924
g23
aS'said'
p2925
aS'because'
p2926
ag23
aS'am'
p2927
aaa(lp2928
g2838
a(lp2929
S'And'
p2930
aS'shes'
p2931
aS'like'
p2932
aaa(lp2933
g2838
a(lp2934
S'no'
p2935
aaa(lp2936
g2838
a(lp2937
S'Youre'
p2938
aS'not'
p2939
aaa(lp2940
g2838
a(lp2941
g23
aS'know'
p2942
aS'you'
p2943
aaa(lp2944
g2838
a(lp2945
S'Youre'
p2946
aS'not'
p2947
aS'gay'
p2948
aaa(lp2949
S'LAJUAN'
p2950
a(lp2951
aa(lp2952
S'CAM'
p2953
a(lp2954
S'And'
p2955
ag23
aS'said'
p2956
aaa(lp2957
g2953
a(lp2958
S'yes'
p2959
ag23
aS'am'
p2960
aaa(lp2961
g2953
a(lp2962
g23
aS'said'
p2963
aaa(lp2964
g2953
a(lp2965
S'how'
p2966
aS'do'
p2967
aS'you'
p2968
aS'know'
p2969
aS'me'
p2970
aaa(lp2971
g2953
a(lp2972
S'better'
p2973
aS'than'
p2974
ag23
aS'know'
p2975
aS'myself'
p2976
aaa(lp2977
g2953
a(lp2978
S'And'
p2979
aS'shes'
p2980
aS'just'
p2981
aS'looking'
p2982
aS'at'
p2983
aS'me'
p2984
aaa(lp2985
g2953
a(lp2986
S'and'
p2987
aS'she'
p2988
aS'was'
p2989
aS'like'
p2990
aS'really'
p2991
aS'upset'
p2992
aaa(lp2993
S'LAJUANDid'
p2994
a(lp2995
S'she'
p2996
aS'tell'
p2997
aS'your'
p2998
aS'dad'
p2999
aS'or'
p3000
aS'did'
p3001
aS'you'
p3002
aS'tell'
p3003
aS'your'
p3004
aS'dad'
p3005
aaa(lp3006
S'CAM'
p3007
a(lp3008
S'No'
p3009
aaa(lp3010
g3007
a(lp3011
S'she'
p3012
aS'ended'
p3013
aS'up'
p3014
aS'telling'
p3015
aS'him'
p3016
ag23
aS'think'
p3017
aS'eventually'
p3018
aaa(lp3019
g3007
a(lp3020
S'but'
p3021
aS'not'
p3022
aS'right'
p3023
aS'away'
p3024
aaa(lp3025
g3007
a(lp3026
S'First'
p3027
aS'thing'
p3028
ag23
aS'had'
p3029
aS'to'
p3030
aS'go'
p3031
aS'to'
p3032
aS'see'
p3033
ag69
ag69
aS'psychiatrist'
p3034
aaa(lp3035
S'LAJUAN'
p3036
a(lp3037
aa(lp3038
g3036
a(lp3039
S'Oh'
p3040
aS'she'
p3041
aS'made'
p3042
aS'you'
p3043
aS'go'
p3044
aS'do'
p3045
aS'that'
p3046
aaa(lp3047
S'CAMMhm'
p3048
a(lp3049
aa(lp3050
g3048
a(lp3051
g23
aS'went'
p3052
aaa(lp3053
S'LAJUAN'
p3054
a(lp3055
S'Oh'
p3056
aS'Jims'
p3057
aS'mother'
p3058
aS'told'
p3059
aS'him'
p3060
aS'that'
p3061
aS'too'
p3062
aaa(lp3063
S'CAM'
p3064
a(lp3065
S'See'
p3066
aS'and'
p3067
aS'then'
p3068
ag23
aS'went'
p3069
aaa(lp3070
g3064
a(lp3071
S'and'
p3072
aS'the'
p3073
aS'guys'
p3074
aS'like'
p3075
aS'really'
p3076
aS'nice'
p3077
aaa(lp3078
g3064
a(lp3079
S'and'
p3080
aS'hes'
p3081
aS'like'
p3082
aS'well'
p3083
aS'what'
p3084
aS'whats'
p3085
aS'why'
p3086
aS'are'
p3087
aS'you'
p3088
aS'here'
p3089
aaa(lp3090
S'LAJUAN'
p3091
a(lp3092
aa(lp3093
S'CAM'
p3094
a(lp3095
S'tell'
p3096
aS'me'
p3097
aS'whats'
p3098
aS'whats'
p3099
aS'going'
p3100
aS'on'
p3101
aaa(lp3102
g3094
a(lp3103
S'And'
p3104
ag23
aS'said'
p3105
aS'well'
p3106
aaa(lp3107
S'LAJUANHow'
p3108
a(lp3109
S'old'
p3110
aS'were'
p3111
aS'you'
p3112
aS'at'
p3113
aS'this'
p3114
aS'time'
p3115
aaa(lp3116
S'CAM'
p3117
a(lp3118
S'Nineteen'
p3119
aaa(lp3120
S'LAJUAN'
p3121
a(lp3122
S'And'
p3123
aS'she'
p3124
ag84
aS'said'
p3125
aS'thats'
p3126
aS'for'
p3127
aS'the'
p3128
ag84
aS'psychiatrist'
p3129
aS'at'
p3130
aS'nineteen'
p3131
aaa(lp3132
g3121
a(lp3133
S'She'
p3134
aS'didnt'
p3135
aS'think'
p3136
aS'you'
p3137
aS'knew'
p3138
aaa(lp3139
g3121
a(lp3140
S'enough'
p3141
aS'about'
p3142
aS'yourself'
p3143
aS'at'
p3144
aS'that'
p3145
aS'age'
p3146
aaa(lp3147
S'CAM'
p3148
a(lp3149
S'Right'
p3150
aaa(lp3151
g3148
a(lp3152
S'Well'
p3153
aaa(lp3154
g3148
a(lp3155
S'she'
p3156
aS'didnt'
p3157
aS'want'
p3158
aS'to'
p3159
aS'believe'
p3160
aS'it'
p3161
aaa(lp3162
g3148
a(lp3163
S'you'
p3164
aS'know'
p3165
aaa(lp3166
S'LAJUAN'
p3167
a(lp3168
aa(lp3169
g3167
a(lp3170
S'Yeah'
p3171
aaa(lp3172
S'CAMI'
p3173
a(lp3174
S'guess'
p3175
aS'you'
p3176
aS'cant'
p3177
aS'blame'
p3178
aS'em'
p3179
aaa(lp3180
g3173
a(lp3181
S'some'
p3182
aS'to'
p3183
aS'some'
p3184
aS'extent'
p3185
aaa(lp3186
g3173
a(lp3187
S'So'
p3188
aS'then'
p3189
ag23
aS'went'
p3190
aS'to'
p3191
aS'the'
p3192
aS'psychiatrist'
p3193
aS'and'
p3194
aaa(lp3195
g3173
a(lp3196
S'hes'
p3197
aS'like'
p3198
aS'well'
p3199
aS'whats'
p3200
aS'the'
p3201
aS'problem'
p3202
aaa(lp3203
g3173
a(lp3204
S'and'
p3205
ag23
aS'said'
p3206
aaa(lp3207
g3173
a(lp3208
S'well'
p3209
aaa(lp3210
g3173
a(lp3211
S'my'
p3212
aS'mothers'
p3213
aS'upset'
p3214
aS'because'
p3215
aS'Im'
p3216
aS'gay'
p3217
aaa(lp3218
g3173
a(lp3219
S'And'
p3220
aS'hes'
p3221
aS'like'
p3222
aaa(lp3223
g3173
a(lp3224
S'well'
p3225
aS'it'
p3226
aS'sounds'
p3227
aS'like'
p3228
aS'she'
p3229
aS'has'
p3230
ag69
aS'problem'
p3231
aS'then'
p3232
aaa(lp3233
S'LAJUAN'
p3234
a(lp3235
aa(lp3236
g3234
a(lp3237
S'Did'
p3238
aS'he'
p3239
aS'really'
p3240
aS'say'
p3241
aS'that'
p3242
aaa(lp3243
S'CAMVOX'
p3244
a(lp3245
S'Yes'
p3246
aS'VOX'
p3247
aaa(lp3248
g3244
a(lp3249
S'He'
p3250
aS'said'
p3251
aS'it'
p3252
aS'sounds'
p3253
aS'like'
p3254
aS'that'
p3255
aS'shes'
p3256
aS'the'
p3257
aS'one'
p3258
aS'with'
p3259
aS'the'
p3260
aS'problem'
p3261
aaa(lp3262
g3244
a(lp3263
S'And'
p3264
ag23
aS'didnt'
p3265
aS'even'
p3266
aS'think'
p3267
aS'about'
p3268
aS'how'
p3269
ag23
aS'said'
p3270
aS'it'
p3271
aaa(lp3272
g3244
a(lp3273
g23
aS'just'
p3274
aS'said'
p3275
aS'it'
p3276
aaa(lp3277
g3244
a(lp3278
S'You'
p3279
aS'know'
p3280
aaa(lp3281
g3244
a(lp3282
S'And'
p3283
aS'he'
p3284
aS'interpreted'
p3285
ag1928
aS'how'
p3286
ag23
aS'said'
p3287
aS'it'
p3288
aaa(lp3289
g3244
a(lp3290
S'as'
p3291
aS'how'
p3292
aS'it'
p3293
aS'was'
p3294
aaa(lp3295
g3244
a(lp3296
S'You'
p3297
aS'know'
p3298
aaa(lp3299
g3244
a(lp3300
g1928
aS'which'
p3301
aS'is'
p3302
aS'true'
p3303
aaa(lp3304
S'LAJUAN'
p3305
a(lp3306
S'And'
p3307
aS'you'
p3308
aS'know'
p3309
aS'whats'
p3310
aS'really'
p3311
aS'funny'
p3312
aaa(lp3313
g3305
a(lp3314
S'is'
p3315
aS'that'
p3316
ag69
aS'psychiatrist'
p3317
aS'would'
p3318
aS'say'
p3319
aS'that'
p3320
aaa(lp3321
S'CAM'
p3322
a(lp3323
aa(lp3324
S'LAJUAN'
p3325
a(lp3326
S'and'
p3327
aS'knowingly'
p3328
aS'know'
p3329
aS'that'
p3330
aaa(lp3331
g3325
a(lp3332
S'you'
p3333
aS'know'
p3334
aaa(lp3335
g3325
a(lp3336
S'he'
p3337
aS'accepted'
p3338
aS'the'
p3339
aS'fact'
p3340
aS'that'
p3341
aS'yes'
p3342
aS'you'
p3343
aS'are'
p3344
aS'gay'
p3345
aaa(lp3346
g3325
a(lp3347
S'that'
p3348
aS'it'
p3349
aS'is'
p3350
aS'something'
p3351
aS'that'
p3352
aaa(lp3353
g3325
a(lp3354
S'like'
p3355
aS'when'
p3356
aS'Mike'
p3357
aS'told'
p3358
aS'his'
p3359
aS'friend'
p3360
aS'Julia'
p3361
aaa(lp3362
g3325
a(lp3363
S'Mike'
p3364
aS'was'
p3365
aS'telling'
p3366
aS'me'
p3367
aS'that'
p3368
aS'Julia'
p3369
aS'said'
p3370
aaa(lp3371
g3325
a(lp3372
S'oh'
p3373
ag23
aS'dont'
p3374
aS'like'
p3375
aS'it'
p3376
aaa(lp3377
g3325
a(lp3378
S'but'
p3379
aS'if'
p3380
aS'thats'
p3381
aS'what'
p3382
aS'you'
p3383
aS'want'
p3384
aaa(lp3385
g3325
a(lp3386
S'maybe'
p3387
aS'thats'
p3388
aS'not'
p3389
aS'truly'
p3390
aS'who'
p3391
aS'you'
p3392
aS'are'
p3393
aaa(lp3394
g3325
a(lp3395
S'You'
p3396
aS'know'
p3397
aaa(lp3398
g3325
a(lp3399
S'and'
p3400
aaa(lp3401
g3325
a(lp3402
g23
aS'said'
p3403
aS'to'
p3404
aS'Mike'
p3405
aaa(lp3406
g3325
a(lp3407
g23
aS'said'
p3408
aS'then'
p3409
aS'Mike'
p3410
aS'she'
p3411
aS'didnt'
p3412
aS'accept'
p3413
aS'it'
p3414
aaa(lp3415
g3325
a(lp3416
S'And'
p3417
aaa(lp3418
g3325
a(lp3419
S'he'
p3420
aS'said'
p3421
aaa(lp3422
g3325
a(lp3423
S'well'
p3424
aaa(lp3425
g3325
a(lp3426
g23
aS'think'
p3427
aS'she'
p3428
aS'accepted'
p3429
aS'it'
p3430
aaa(lp3431
g3325
a(lp3432
S'she'
p3433
aS'just'
p3434
aS'said'
p3435
aS'that'
p3436
aaa(lp3437
g3325
a(lp3438
S'and'
p3439
aS'he'
p3440
aS'told'
p3441
aS'her'
p3442
aS'that'
p3443
aS'he'
p3444
aS'feels'
p3445
aS'he'
p3446
aS'was'
p3447
aS'born'
p3448
aS'with'
p3449
aS'it'
p3450
aaa(lp3451
g3325
a(lp3452
S'and'
p3453
aS'she'
p3454
aS'said'
p3455
aaa(lp3456
g3325
a(lp3457
S'no'
p3458
aaa(lp3459
g3325
a(lp3460
g23
aS'dont'
p3461
aS'believe'
p3462
aS'that'
p3463
aaa(lp3464
g3325
a(lp3465
g23
aS'think'
p3466
aS'its'
p3467
aS'your'
p3468
aS'choice'
p3469
aS'that'
p3470
aS'thats'
p3471
aS'what'
p3472
aS'you'
p3473
aS'want'
p3474
aaa(lp3475
g3325
a(lp3476
S'And'
p3477
ag23
aS'said'
p3478
aS'to'
p3479
aaa(lp3480
g3325
a(lp3481
S'And'
p3482
ag23
aS'and'
p3483
ag23
aS'told'
p3484
aS'Mike'
p3485
aaa(lp3486
g3325
a(lp3487
g23
aS'said'
p3488
aS'you'
p3489
aS'know'
p3490
aaa(lp3491
g3325
a(lp3492
g23
aS'hate'
p3493
aS'when'
p3494
aS'people'
p3495
aS'say'
p3496
aS'that'
p3497
aaa(lp3498
g3325
a(lp3499
S'because'
p3500
aaa(lp3501
g3325
a(lp3502
S'if'
p3503
ag23
aS'felt'
p3504
aS'that'
p3505
aS'was'
p3506
aS'my'
p3507
aS'choice'
p3508
aaa(lp3509
g3325
a(lp3510
g23
aS'dont'
p3511
aS'think'
p3512
aS'that'
p3513
aS'wouldve'
p3514
aS'been'
p3515
aS'the'
p3516
aS'first'
p3517
aS'choice'
p3518
ag23
aS'wouldve'
p3519
aS'picked'
p3520
aaa(lp3521
S'CAM'
p3522
a(lp3523
aa(lp3524
g3522
a(lp3525
S'Oh'
p3526
aS'God'
p3527
aS'no'
p3528
aaa(lp3529
S'LAJUAN'
p3530
a(lp3531
S'And'
p3532
aS'its'
p3533
aS'not'
p3534
aS'to'
p3535
aS'say'
p3536
aS'that'
p3537
aS'Im'
p3538
aS'ashamed'
p3539
aS'of'
p3540
aS'being'
p3541
aS'gay'
p3542
aaa(lp3543
S'CAMNo'
p3544
a(lp3545
aa(lp3546
S'LAJUAN'
p3547
a(lp3548
S'what'
p3549
aS'it'
p3550
aS'is'
p3551
aS'is'
p3552
aS'that'
p3553
aaa(lp3554
g3547
a(lp3555
S'because'
p3556
aS'of'
p3557
aS'what'
p3558
aS'society'
p3559
aS'has'
p3560
aS'done'
p3561
aaa(lp3562
g3547
a(lp3563
S'or'
p3564
aS'has'
p3565
aS'laid'
p3566
aS'the'
p3567
aS'rules'
p3568
aS'for'
p3569
aS'us'
p3570
aaa(lp3571
g3547
a(lp3572
g23
aS'dont'
p3573
aS'really'
p3574
aS'think'
p3575
ag23
aS'would'
p3576
aS'have'
p3577
aS'chose'
p3578
aS'to'
p3579
aS'be'
p3580
aS'gay'
p3581
aaa(lp3582
S'CAM'
p3583
a(lp3584
aa(lp3585
S'LAJUAN'
p3586
a(lp3587
g23
ag23
aS'wouldnt'
p3588
aaa(lp3589
g3586
a(lp3590
S'Why'
p3591
aS'would'
p3592
ag23
aS'want'
p3593
aS'to'
p3594
aS'be'
p3595
aS'gay'
p3596
aaa(lp3597
g3586
a(lp3598
S'and'
p3599
aS'have'
p3600
aS'to'
p3601
aS'deal'
p3602
aS'with'
p3603
aS'what'
p3604
aS'we'
p3605
aS'go'
p3606
aS'through'
p3607
aaa(lp3608
S'CAM'
p3609
a(lp3610
S'Exactly'
p3611
aaa(lp3612
g3609
a(lp3613
S'And'
p3614
aS'thats'
p3615
ag84
aS'what'
p3616
ag84
ag23
aS'explained'
p3617
aS'to'
p3618
aS'my'
p3619
aS'folks'
p3620
aS'now'
p3621
aS'and'
p3622
aaa(lp3623
S'LAJUAN'
p3624
a(lp3625
aa(lp3626
S'CAM'
p3627
a(lp3628
S'and'
p3629
aS'they'
p3630
aS'totally'
p3631
aS'believe'
p3632
aS'that'
p3633
aS'its'
p3634
aaa(lp3635
S'LAJUAN'
p3636
a(lp3637
aa(lp3638
S'CAM'
p3639
a(lp3640
S'like'
p3641
aS'hereditary'
p3642
aS'or'
p3643
aS'genetic'
p3644
aS'or'
p3645
aS'whatever'
p3646
aaa(lp3647
g3639
a(lp3648
S'that'
p3649
aS'its'
p3650
aS'not'
p3651
ag69
aS'choice'
p3652
aaa(lp3653
g3639
a(lp3654
S'You'
p3655
aS'know'
p3656
aaa(lp3657
g3639
a(lp3658
S'because'
p3659
aaa(lp3660
S'LAJUANThey'
p3661
a(lp3662
S'do'
p3663
aS'believe'
p3664
aS'it'
p3665
aS'now'
p3666
aaa(lp3667
S'CAMOh'
p3668
a(lp3669
S'yeah'
p3670
aaa(lp3671
g3668
a(lp3672
S'They'
p3673
aS'totally'
p3674
aS'b'
p3675
aaa(lp3676
S'LAJUAN'
p3677
a(lp3678
S'Oh'
p3679
aaa(lp3680
g3677
a(lp3681
g23
aS'believe'
p3682
aS'its'
p3683
aS'its'
p3684
aaa(lp3685
g3677
a(lp3686
g23
aS'dont'
p3687
aS'know'
p3688
aS'if'
p3689
aS'its'
p3690
aS'hereditary'
p3691
aaa(lp3692
g3677
a(lp3693
g23
aS'do'
p3694
aS'believe'
p3695
aS'its'
p3696
aS'something'
p3697
aaa(lp3698
g3677
a(lp3699
S'Its'
p3700
ag69
aS'gene'
p3701
aaa(lp3702
g3677
a(lp3703
S'or'
p3704
aS'its'
p3705
aS'something'
p3706
aaa(lp3707
S'CAMRight'
p3708
a(lp3709
aa(lp3710
S'LAJUANI'
p3711
a(lp3712
g23
aS'dont'
p3713
aS'think'
p3714
aaa(lp3715
g3711
a(lp3716
g23
aS'dont'
p3717
aS'care'
p3718
aS'what'
p3719
aS'people'
p3720
aS'say'
p3721
aaa(lp3722
g3711
a(lp3723
S'You'
p3724
aS'you'
p3725
aS'are'
p3726
aaa(lp3727
g3711
a(lp3728
S'You'
p3729
aS'do'
p3730
aS'not'
p3731
aS'choose'
p3732
aaa(lp3733
S'CAMUnhunh'
p3734
a(lp3735
aa(lp3736
S'LAJUANIve'
p3737
a(lp3738
S'known'
p3739
aaa(lp3740
g3737
a(lp3741
S'since'
p3742
ag23
aS'was'
p3743
aaa(lp3744
g3737
a(lp3745
S'gosh'
p3746
aaa(lp3747
g3737
a(lp3748
S'probably'
p3749
aaa(lp3750
g3737
a(lp3751
g23
aS'can'
p3752
aS'remember'
p3753
aaa(lp3754
g3737
a(lp3755
S'Four'
p3756
aaa(lp3757
g3737
a(lp3758
S'Five'
p3759
aS'years'
p3760
aS'old'
p3761
aaa(lp3762
S'CAMI'
p3763
a(lp3764
S'remember'
p3765
aS'that'
p3766
aaa(lp3767
g3763
a(lp3768
g84
aS'Yeah'
p3769
ag84
aaa(lp3770
S'LAJUANI'
p3771
a(lp3772
S'remember'
p3773
aS'looking'
p3774
aS'at'
p3775
aaa(lp3776
g3771
a(lp3777
S'my'
p3778
aS'uncle'
p3779
aS'was'
p3780
aS'sleeping'
p3781
aaa(lp3782
g3771
a(lp3783
S'on'
p3784
aS'the'
p3785
aS'couch'
p3786
aaa(lp3787
g3771
a(lp3788
S'in'
p3789
aS'our'
p3790
aS'family'
p3791
aS'room'
p3792
aaa(lp3793
g3771
a(lp3794
S'and'
p3795
aaa(lp3796
g3771
a(lp3797
S'he'
p3798
aS'was'
p3799
aS'sleeping'
p3800
aS'there'
p3801
aS'with'
p3802
aS'his'
p3803
aS'boxers'
p3804
aS'on'
p3805
aaa(lp3806
g3771
a(lp3807
S'and'
p3808
aS'his'
p3809
aS'peepee'
p3810
aS'fell'
p3811
aS'out'
p3812
aS'of'
p3813
aS'his'
p3814
aS'pants'
p3815
aaa(lp3816
g3771
a(lp3817
S'And'
p3818
ag23
aS'just'
p3819
aS'stood'
p3820
aS'there'
p3821
aS'and'
p3822
aS'stared'
p3823
aS'at'
p3824
aS'it'
p3825
aaa(lp3826
g3771
a(lp3827
S'and'
p3828
ag23
aS'was'
p3829
aaa(lp3830
S'CAM'
p3831
a(lp3832
aa(lp3833
S'LAJUANAnd'
p3834
a(lp3835
g23
aS'know'
p3836
aS'it'
p3837
aS'was'
p3838
ag69
aS'sexual'
p3839
aS'arousement'
p3840
aaa(lp3841
g3834
a(lp3842
S'cause'
p3843
ag23
aS'can'
p3844
aS'remember'
p3845
aS'feeling'
p3846
aS'sexually'
p3847
aS'interested'
p3848
aaa(lp3849
S'CAM'
p3850
a(lp3851
aa(lp3852
S'LAJUANAnd'
p3853
a(lp3854
S'so'
p3855
ag23
aS'was'
p3856
aS'like'
p3857
aS'four'
p3858
aS'years'
p3859
aS'old'
p3860
aaa(lp3861
g3853
a(lp3862
S'So'
p3863
ag23
aS'knew'
p3864
aS'then'
p3865
aaa(lp3866
g3853
a(lp3867
S'You'
p3868
aS'you'
p3869
aS'know'
p3870
aS'what'
p3871
aS'you'
p3872
aS'feel'
p3873
aS'inside'
p3874
aaa(lp3875
g3853
a(lp3876
S'You'
p3877
aS'you'
p3878
aS'c'
p3879
aS'you'
p3880
aS'cant'
p3881
aaa(lp3882
S'CAMRight'
p3883
a(lp3884
aa(lp3885
S'LAJUAN'
p3886
a(lp3887
S'And'
p3888
ag23
aS'dont'
p3889
aS'care'
p3890
aS'what'
p3891
aS'anybody'
p3892
aS'says'
p3893
aaa(lp3894
g3886
a(lp3895
g69
ag69
aS'f'
p3896
aS'at'
p3897
aS'four'
p3898
aS'years'
p3899
aS'old'
p3900
aaa(lp3901
g3886
a(lp3902
g23
aS'pick'
p3903
aaa(lp3904
g3886
a(lp3905
g23
aS'chose'
p3906
aS'that'
p3907
aaa(lp3908
g3886
a(lp3909
S'That'
p3910
ag23
aS'liked'
p3911
aS'what'
p3912
ag23
aS'saw'
p3913
aaa(lp3914
g3886
a(lp3915
g23
aS'dont'
p3916
aS'think'
p3917
aS'so'
p3918
aaa(lp3919
g3886
a(lp3920
g23
aS'dont'
p3921
aS'think'
p3922
ag23
aS'knew'
p3923
aS'at'
p3924
aS'four'
p3925
aS'years'
p3926
aS'old'
p3927
aaa(lp3928
g3886
a(lp3929
S'that'
p3930
ag23
aS'could'
p3931
aS'actually'
p3932
aS'just'
p3933
aS'say'
p3934
aS'oh'
p3935
aaa(lp3936
g3886
a(lp3937
S'wow'
p3938
aaa(lp3939
g3886
a(lp3940
g23
aS'wanna'
p3941
aS'play'
p3942
aS'with'
p3943
aS'this'
p3944
aS'guy'
p3945
aaa(lp3946
g3886
a(lp3947
S'You'
p3948
aS'know'
p3949
aaa(lp3950
S'CAMRight'
p3951
a(lp3952
aa(lp3953
S'LAJUANI'
p3954
a(lp3955
S'dont'
p3956
aS'think'
p3957
aS'so'
p3958
aaa(lp3959
g3954
a(lp3960
S'And'
p3961
aS'and'
p3962
aS'if'
p3963
aS'they'
p3964
aS'say'
p3965
aS'things'
p3966
aS'like'
p3967
aaa(lp3968
g3954
a(lp3969
S'oh'
p3970
aS'when'
p3971
ag23
aS'was'
p3972
aS'maybe'
p3973
aS'seven'
p3974
aaa(lp3975
g3954
a(lp3976
g23
aS'slept'
p3977
aS'with'
p3978
aS'my'
p3979
aS'cousin'
p3980
aS'Tommy'
p3981
aaa(lp3982
g3954
a(lp3983
S'who'
p3984
aS'was'
p3985
aS'probably'
p3986
aS'twelve'
p3987
aS'thirteen'
p3988
aaa(lp3989
g3954
a(lp3990
S'At'
p3991
aS'the'
p3992
aS'time'
p3993
aaa(lp3994
g3954
a(lp3995
S'and'
p3996
ag23
aS'slept'
p3997
aS'with'
p3998
aS'him'
p3999
aaa(lp4000
g3954
a(lp4001
S'no'
p4002
aS'he'
p4003
aS'was'
p4004
aS'sixteen'
p4005
aaa(lp4006
g3954
a(lp4007
S'Shared'
p4008
ag69
aS'bed'
p4009
aS'with'
p4010
aS'him'
p4011
aaa(lp4012
g3954
a(lp4013
S'and'
p4014
aS'he'
p4015
aaa(lp4016
g3954
a(lp4017
S'uh'
p4018
aaa(lp4019
g3954
a(lp4020
S'started'
p4021
aS'fondling'
p4022
aS'me'
p4023
aaa(lp4024
g3954
a(lp4025
S'and'
p4026
ag23
aS'enjoyed'
p4027
aS'it'
p4028
aaa(lp4029
g3954
a(lp4030
S'and'
p4031
ag23
aS'fondled'
p4032
aS'him'
p4033
aS'back'
p4034
aaa(lp4035
g3954
a(lp4036
S'And'
p4037
ag23
aS'was'
p4038
aS'like'
p4039
aS'seven'
p4040
aS'years'
p4041
aS'old'
p4042
aaa(lp4043
g3954
a(lp4044
S'And'
p4045
ag23
ag23
aS'dont'
p4046
aS'say'
p4047
aS'that'
p4048
aS'he'
p4049
aS'did'
p4050
aS'it'
p4051
aS'to'
p4052
aS'me'
p4053
aaa(lp4054
g3954
a(lp4055
S'he'
p4056
aS'molested'
p4057
aS'me'
p4058
aS'or'
p4059
aaa(lp4060
g3954
a(lp4061
S'r'
p4062
aS'or'
p4063
aS'raped'
p4064
aS'me'
p4065
aS'as'
p4066
aS'people'
p4067
aS'are'
p4068
aS'saying'
p4069
aS'now'
p4070
aaa(lp4071
g3954
a(lp4072
S'the'
p4073
aS'older'
p4074
aS'uncle'
p4075
aaa(lp4076
g3954
a(lp4077
S'generally'
p4078
aaa(lp4079
g3954
a(lp4080
g23
aS'think'
p4081
aS'these'
p4082
aS'kids'
p4083
aaa(lp4084
S'CAM'
p4085
a(lp4086
S'Hm'
p4087
aaa(lp4088
S'LAJUAN'
p4089
a(lp4090
S'not'
p4091
aS'saying'
p4092
aS'adults'
p4093
aS'shouldve'
p4094
aS'been'
p4095
aS'more'
p4096
aS'responsible'
p4097
aaa(lp4098
g4089
a(lp4099
S'my'
p4100
aS'sixteenyearold'
p4101
aS'cons'
p4102
aS'cousin'
p4103
aS'should'
p4104
aS'have'
p4105
aS'been'
p4106
aS'more'
p4107
aS'responsible'
p4108
aaa(lp4109
S'CAM'
p4110
a(lp4111
aa(lp4112
S'LAJUANand'
p4113
a(lp4114
S'not'
p4115
aS'played'
p4116
aS'with'
p4117
ag69
aS'sevenyearold'
p4118
aS'child'
p4119
aaa(lp4120
g4113
a(lp4121
S'but'
p4122
aaa(lp4123
g4113
a(lp4124
S'he'
p4125
aS'did'
p4126
aaa(lp4127
g4113
a(lp4128
S'But'
p4129
aS'Im'
p4130
aS'not'
p4131
aS'gonna'
p4132
aS'turn'
p4133
aS'around'
p4134
aS'and'
p4135
aS'tell'
p4136
aS'my'
p4137
aS'aunt'
p4138
aaa(lp4139
g4113
a(lp4140
S'well'
p4141
aaa(lp4142
g4113
a(lp4143
S'gee'
p4144
aS'your'
p4145
aS'son'
p4146
aaa(lp4147
g4113
a(lp4148
S'molested'
p4149
aS'me'
p4150
aS'as'
p4151
ag69
aS'child'
p4152
aaa(lp4153
S'CAMIs'
p4154
a(lp4155
S'he'
p4156
aS'gay'
p4157
aaa(lp4158
S'LAJUANNo'
p4159
a(lp4160
aa(lp4161
S'CAM'
p4162
a(lp4163
S'Hes'
p4164
aS'not'
p4165
aS'gay'
p4166
aaa(lp4167
S'LAJUAN'
p4168
a(lp4169
S'Well'
p4170
aaa(lp4171
g4168
a(lp4172
S'we'
p4173
aS'dont'
p4174
aS'know'
p4175
aaa(lp4176
S'CAM'
p4177
a(lp4178
aa(lp4179
S'LAJUAN'
p4180
a(lp4181
S'Actually'
p4182
aaa(lp4183
g4180
a(lp4184
g23
aS'think'
p4185
aS'he'
p4186
aS'is'
p4187
aaa(lp4188
g4180
a(lp4189
S'He'
p4190
aS'brought'
p4191
aS'home'
p4192
ag69
aS'drag'
p4193
aS'queen'
p4194
aS'for'
p4195
aS'Christmas'
p4196
aS'last'
p4197
aS'year'
p4198
aaa(lp4199
g4180
a(lp4200
S'So'
p4201
aaa(lp4202
S'CAM'
p4203
a(lp4204
S'Oh'
p4205
aS'yeah'
p4206
aaa(lp4207
S'LAJUANYWN'
p4208
a(lp4209
aa(lp4210
g4208
a(lp4211
S'But'
p4212
aaa(lp4213
g4208
a(lp4214
S'at'
p4215
aS'the'
p4216
aS'time'
p4217
aS'YWN'
p4218
aS'no'
p4219
aaa(lp4220
g4208
a(lp4221
S'he'
p4222
aS'ha'
p4223
aaa(lp4224
g4208
a(lp4225
S'Like'
p4226
aS'when'
p4227
aS'he'
p4228
aS'turned'
p4229
aS'twentytwo'
p4230
aaa(lp4231
g4208
a(lp4232
S'he'
p4233
aS'got'
p4234
aS'married'
p4235
aaa(lp4236
g4208
a(lp4237
S'and'
p4238
aS'he'
p4239
aS'had'
p4240
aS'kids'
p4241
aS'and'
p4242
aS'stuff'
p4243
aaa(lp4244
g4208
a(lp4245
S'he'
p4246
aS'has'
p4247
aS'kids'
p4248
aaa(lp4249
g4208
a(lp4250
S'which'
p4251
aS'doesnt'
p4252
aS'mean'
p4253
aS'anything'
p4254
aaa(lp4255
g4208
a(lp4256
S'there'
p4257
aS'are'
p4258
ag69
aS'lot'
p4259
aS'of'
p4260
aS'fags'
p4261
aS'with'
p4262
aS'kids'
p4263
aaa(lp4264
g4208
a(lp4265
S'but'
p4266
aaa(lp4267
g4208
a(lp4268
S'he'
p4269
aS'just'
p4270
aS'is'
p4271
aS'very'
p4272
aaa(lp4273
g4208
a(lp4274
S'that'
p4275
aS'was'
p4276
aS'what'
p4277
aS'happened'
p4278
aS'to'
p4279
aS'me'
p4280
aaa(lp4281
g4208
a(lp4282
S'And'
p4283
aS'and'
p4284
ag23
aS'dont'
p4285
aS'blame'
p4286
aS'my'
p4287
aS'cousin'
p4288
aaa(lp4289
g4208
a(lp4290
S'it'
p4291
aS'was'
p4292
aS'just'
p4293
aS'another'
p4294
aS'awakening'
p4295
aS'experience'
p4296
aS'for'
p4297
aS'me'
p4298
aaa(lp4299
g4208
a(lp4300
g23
aS'mean'
p4301
aS'there'
p4302
aS'were'
p4303
aS'several'
p4304
aS'experiences'
p4305
aaa(lp4306
g4208
a(lp4307
S'when'
p4308
ag23
aS'was'
p4309
aS'growing'
p4310
aS'up'
p4311
aaa(lp4312
g4208
a(lp4313
g23
aS'mean'
p4314
aaa(lp4315
g4208
a(lp4316
g23
aS'remember'
p4317
aS'watching'
p4318
aS'one'
p4319
aS'of'
p4320
aS'our'
p4321
aS'neighbors'
p4322
aaa(lp4323
g4208
a(lp4324
S'who'
p4325
aS'was'
p4326
aS'taking'
p4327
ag69
aS'shower'
p4328
aaa(lp4329
g4208
a(lp4330
S'and'
p4331
aS'you'
p4332
aS'could'
p4333
aS'see'
p4334
aS'right'
p4335
aS'through'
p4336
aS'his'
p4337
aS'bedroom'
p4338
aaa(lp4339
g4208
a(lp4340
S'and'
p4341
aS'he'
p4342
aS'got'
p4343
aS'out'
p4344
aS'and'
p4345
aS'he'
p4346
aS'was'
p4347
aS'naked'
p4348
aaa(lp4349
g4208
a(lp4350
S'And'
p4351
ag23
aS'remember'
p4352
aS'watching'
p4353
aaa(lp4354
g4208
a(lp4355
S'And'
p4356
ag23
aS'remember'
p4357
aS'being'
p4358
aS'mesmerized'
p4359
aS'by'
p4360
aS'his'
p4361
aS'body'
p4362
aaa(lp4363
g4208
a(lp4364
g23
aS'was'
p4365
aS'never'
p4366
aS'really'
p4367
aS'that'
p4368
aS'mesmerized'
p4369
aS'by'
p4370
ag69
aS'females'
p4371
aS'body'
p4372
aaa(lp4373
g4208
a(lp4374
S'as'
p4375
ag23
aS'was'
p4376
aS'by'
p4377
ag69
aS'males'
p4378
aS'body'
p4379
aaa(lp4380
g4208
a(lp4381
S'and'
p4382
aS'so'
p4383
aaa(lp4384
S'CAMRight'
p4385
a(lp4386
aa(lp4387
S'LAJUAN'
p4388
a(lp4389
S'thats'
p4390
aS'why'
p4391
ag23
aS'dont'
p4392
aS'understand'
p4393
aS'where'
p4394
aS'uh'
p4395
aS'they'
p4396
aS'come'
p4397
aS'up'
p4398
aS'with'
p4399
aS'this'
p4400
aS'of'
p4401
aaa(lp4402
g4388
a(lp4403
S'its'
p4404
aS'your'
p4405
aS'choice'
p4406
aaa(lp4407
g4388
a(lp4408
S'Its'
p4409
aS'not'
p4410
aaa(lp4411
g4388
a(lp4412
g23
ag23
aS'know'
p4413
aaa(lp4414
g4388
a(lp4415
S'that'
p4416
aS'thats'
p4417
aS'what'
p4418
ag23
aS'felt'
p4419
aaa(lp4420
S'CAMX'
p4421
a(lp4422
S'Well'
p4423
ag84
aaa(lp4424
g4421
a(lp4425
g23
aS'remember'
p4426
aS'when'
p4427
ag23
aS'was'
p4428
aS'li'
p4429
aaa(lp4430
g4421
a(lp4431
g23
aS'was'
p4432
aS'like'
p4433
aS'probably'
p4434
aS'three'
p4435
aS'or'
p4436
aS'four'
p4437
aaa(lp4438
S'LAJUAN'
p4439
a(lp4440
aa(lp4441
S'CAMand'
p4442
a(lp4443
g23
aS'was'
p4444
aS'wrestling'
p4445
aS'on'
p4446
aS'the'
p4447
aaa(lp4448
g4442
a(lp4449
g23
aS'th'
p4450
ag23
aS'remember'
p4451
aS'wrestling'
p4452
aS'on'
p4453
aS'the'
p4454
aS'floor'
p4455
aaa(lp4456
S'LAJUAN'
p4457
a(lp4458
aa(lp4459
S'CAM'
p4460
a(lp4461
S'with'
p4462
aS'my'
p4463
aS'brothers'
p4464
aaa(lp4465
g4460
a(lp4466
S'and'
p4467
aS'being'
p4468
aS'aroused'
p4469
aaa(lp4470
g4460
a(lp4471
g84
aS'Mhm'
p4472
ag84
aaa(lp4473
g4460
a(lp4474
S'Just'
p4475
aS'like'
p4476
aS'goofing'
p4477
aS'around'
p4478
aS'and'
p4479
aS'stuff'
p4480
aS'like'
p4481
aS'that'
p4482
aaa(lp4483
S'LAJUANMhm'
p4484
a(lp4485
aa(lp4486
S'CAM'
p4487
a(lp4488
S'And'
p4489
aS'then'
p4490
ag23
aS'think'
p4491
aS'the'
p4492
aS'l'
p4493
aaa(lp4494
g4487
a(lp4495
S'The'
p4496
aS'experience'
p4497
aS'when'
p4498
ag23
aS'was'
p4499
aS'younger'
p4500
aaa(lp4501
g4487
a(lp4502
S'and'
p4503
aS'my'
p4504
aS'older'
p4505
aS'brothers'
p4506
aS'had'
p4507
aS'friends'
p4508
aS'over'
p4509
aaa(lp4510
g4487
a(lp4511
g23
aS'remember'
p4512
aS'the'
p4513
ag3896
aaa(lp4514
g4487
a(lp4515
S'He'
p4516
aS'he'
p4517
aS'he'
p4518
aS'come'
p4519
aS'over'
p4520
aS'with'
p4521
aS'these'
p4522
aS'friends'
p4523
aaa(lp4524
g4487
a(lp4525
S'with'
p4526
aS'these'
p4527
aS'guys'
p4528
aaa(lp4529
g4487
a(lp4530
S'and'
p4531
ag23
aS'would'
p4532
aS'just'
p4533
aS'be'
p4534
aS'like'
p4535
aaa(lp4536
g4487
a(lp4537
S'in'
p4538
aS'lust'
p4539
aaa(lp4540
g4487
a(lp4541
S'For'
p4542
aS'these'
p4543
aS'guys'
p4544
aaa(lp4545
g4487
a(lp4546
g23
aS'mean'
p4547
aaa(lp4548
g4487
a(lp4549
g23
aS'must'
p4550
aS'have'
p4551
aS'been'
p4552
aS'like'
p4553
aS'nine'
p4554
aS'or'
p4555
aS'ten'
p4556
aaa(lp4557
g4487
a(lp4558
S'and'
p4559
ag23
aS'was'
p4560
aS'just'
p4561
aS'like'
p4562
aS'idolizing'
p4563
aS'these'
p4564
aS'guys'
p4565
aaa(lp4566
g4487
a(lp4567
g2396
aS'Like'
p4568
aS'oh'
p4569
aS'my'
p4570
aS'God'
p4571
aaa(lp4572
g4487
a(lp4573
g84
aS'wow'
p4574
aS'XP'
p4575
aaa(lp4576
g4487
a(lp4577
g23
aS'remember'
p4578
aaa(lp4579
g4487
a(lp4580
g23
aS'would'
p4581
aS'like'
p4582
aS'imagine'
p4583
aS'like'
p4584
aaa(lp4585
g4487
a(lp4586
S'if'
p4587
ag23
aS'could'
p4588
aS'have'
p4589
aS'them'
p4590
aS'in'
p4591
aS'my'
p4592
aS'bedroom'
p4593
aaa(lp4594
S'LAJUAN'
p4595
a(lp4596
S'See'
p4597
aS'th'
p4598
aS'yeah'
p4599
aaa(lp4600
S'CAMThat'
p4601
a(lp4602
S'type'
p4603
aS'of'
p4604
aS'thing'
p4605
aaa(lp4606
g4601
a(lp4607
S'You'
p4608
aS'know'
p4609
aaa(lp4610
g4601
a(lp4611
S'of'
p4612
aS'oh'
p4613
aS'if'
p4614
aaa(lp4615
S'LAJUANMhm'
p4616
a(lp4617
aa(lp4618
S'CAM'
p4619
a(lp4620
S'Li'
p4621
aS'as'
p4622
aS'if'
p4623
aS'they'
p4624
aS'were'
p4625
aS'like'
p4626
ag69
aS'toy'
p4627
aS'or'
p4628
aS'something'
p4629
aaa(lp4630
S'LAJUAN'
p4631
a(lp4632
aa(lp4633
g4631
a(lp4634
S'That'
p4635
aS'was'
p4636
aS'my'
p4637
aS'older'
p4638
aS'brother'
p4639
aaa(lp4640
g4631
a(lp4641
S'because'
p4642
aS'my'
p4643
aS'older'
p4644
aS'brother'
p4645
aaa(lp4646
S'CAM'
p4647
a(lp4648
aa(lp4649
S'LAJUAN'
p4650
a(lp4651
S'uh'
p4652
aaa(lp4653
g4650
a(lp4654
S'played'
p4655
aS'football'
p4656
aS'at'
p4657
aS'Perdue'
p4658
aaa(lp4659
S'CAM'
p4660
a(lp4661
S'Mhm'
p4662
aaa(lp4663
S'LAJUAN'
p4664
a(lp4665
S'and'
p4666
ag23
aS'used'
p4667
aS'to'
p4668
aS'go'
p4669
aS'to'
p4670
aS'games'
p4671
aaa(lp4672
g4664
a(lp4673
S'and'
p4674
ag23
aS'followed'
p4675
aS'him'
p4676
aS'around'
p4677
aaa(lp4678
g4664
a(lp4679
S'hed'
p4680
aS'take'
p4681
aS'me'
p4682
aS'for'
p4683
aS'weekends'
p4684
aaa(lp4685
g4664
a(lp4686
S'and'
p4687
aS'then'
p4688
aS'Id'
p4689
aS'get'
p4690
aS'to'
p4691
aS'sit'
p4692
aS'in'
p4693
aS'the'
p4694
aS'locker'
p4695
aS'room'
p4696
aaa(lp4697
g4664
a(lp4698
S'And'
p4699
aaa(lp4700
g4664
a(lp4701
S'these'
p4702
aS'guys'
p4703
aS'would'
p4704
aS'like'
p4705
aS'tickle'
p4706
aS'me'
p4707
aaa(lp4708
g4664
a(lp4709
S'and'
p4710
aS'hug'
p4711
aS'me'
p4712
aaa(lp4713
g4664
a(lp4714
S'and'
p4715
ag23
aS'was'
p4716
aS'just'
p4717
ag69
aS'little'
p4718
aS'kid'
p4719
aaa(lp4720
g4664
a(lp4721
S'Cause'
p4722
ag23
aS'probably'
p4723
aaa(lp4724
g4664
a(lp4725
S'Mm'
p4726
aaa(lp4727
g4664
a(lp4728
g23
aS'was'
p4729
aS'probably'
p4730
aS'about'
p4731
aS'ten'
p4732
aS'at'
p4733
aS'the'
p4734
aS'time'
p4735
aaa(lp4736
g4664
a(lp4737
S'ten'
p4738
aS'eleven'
p4739
aaa(lp4740
g4664
a(lp4741
S'and'
p4742
aS'they'
p4743
aS'just'
p4744
aS'thought'
p4745
ag23
aS'was'
p4746
aS'the'
p4747
aS'nicest'
p4748
aS'little'
p4749
aS'boy'
p4750
aaa(lp4751
g4664
a(lp4752
S'and'
p4753
aaa(lp4754
g4664
a(lp4755
g23
aS'just'
p4756
aS'had'
p4757
aaa(lp4758
g4664
a(lp4759
S'and'
p4760
ag23
aS'knew'
p4761
aS'it'
p4762
aaa(lp4763
g4664
a(lp4764
g23
aS'was'
p4765
aS'always'
p4766
aS'sexually'
p4767
aS'aroused'
p4768
aS'by'
p4769
aS'it'
p4770
aaa(lp4771
g4664
a(lp4772
S'And'
p4773
aaa(lp4774
g4664
a(lp4775
S'And'
p4776
aS'you'
p4777
aS'know'
p4778
aS'these'
p4779
aS'things'
p4780
aaa(lp4781
g4664
a(lp4782
S'and'
p4783
aaa(lp4784
g4664
a(lp4785
S'you'
p4786
aS'know'
p4787
aS'its'
p4788
aS'inside'
p4789
aS'of'
p4790
aS'you'
p4791
aaa(lp4792
g4664
a(lp4793
S'And'
p4794
aaa(lp4795
S'CAMMhm'
p4796
a(lp4797
aa(lp4798
S'LAJUAN'
p4799
a(lp4800
S'you'
p4801
aS'know'
p4802
aaa(lp4803
g4799
a(lp4804
S'what'
p4805
aS'what'
p4806
aS'do'
p4807
aS'you'
p4808
aS'do'
p4809
aaa(lp4810
g4799
a(lp4811
S'And'
p4812
ag23
aS'know'
p4813
aS'my'
p4814
aS'brother'
p4815
aaa(lp4816
g4799
a(lp4817
S'who'
p4818
aS'lives'
p4819
aS'in'
p4820
aS'Dallas'
p4821
aaa(lp4822
g4799
a(lp4823
S'uh'
p4824
aaa(lp4825
g4799
a(lp4826
S'the'
p4827
aS'one'
p4828
aS'that'
p4829
aS'played'
p4830
aS'football'
p4831
aS'at'
p4832
aS'Perdue'
p4833
aaa(lp4834
g4799
a(lp4835
S'he'
p4836
aaa(lp4837
g4799
a(lp4838
S'He'
p4839
aS'knew'
p4840
aS'it'
p4841
aaa(lp4842
g4799
a(lp4843
S'He'
p4844
aS'he'
p4845
aS'knew'
p4846
aaa(lp4847
g4799
a(lp4848
S'he'
p4849
aS'knew'
p4850
aS'especially'
p4851
aS'after'
p4852
aS'Ron'
p4853
aaa(lp4854
g4799
a(lp4855
S'because'
p4856
aS'when'
p4857
ag23
aS'left'
p4858
aS'California'
p4859
aaa(lp4860
g4799
a(lp4861
g23
aS'didnt'
p4862
aS'come'
p4863
aS'back'
p4864
aS'here'
p4865
aS'first'
p4866
aaa(lp4867
g4799
a(lp4868
g23
aS'actually'
p4869
aS'went'
p4870
aS'to'
p4871
aS'Dallas'
p4872
aaa(lp4873
g4799
a(lp4874
S'Because'
p4875
aS'my'
p4876
aS'brothers'
p4877
aS'like'
p4878
aS'come'
p4879
aS'and'
p4880
aS'stay'
p4881
aS'with'
p4882
aS'me'
p4883
aaa(lp4884
g4799
a(lp4885
S'thingsll'
p4886
aS'work'
p4887
aS'out'
p4888
aaa(lp4889
g4799
a(lp4890
S'and'
p4891
aaa(lp4892
g4799
a(lp4893
S'you'
p4894
aS'can'
p4895
aS'look'
p4896
aS'for'
p4897
ag69
aS'job'
p4898
aS'down'
p4899
aS'here'
p4900
aaa(lp4901
g4799
a(lp4902
S'And'
p4903
aS'so'
p4904
aaa(lp4905
g4799
a(lp4906
S'Ron'
p4907
aS'flew'
p4908
aS'to'
p4909
aS'Dallas'
p4910
aaa(lp4911
g4799
a(lp4912
S'and'
p4913
aS'went'
p4914
aS'to'
p4915
aS'my'
p4916
aS'brothers'
p4917
aS'house'
p4918
aaa(lp4919
g4799
a(lp4920
S'and'
p4921
aS'banged'
p4922
aS'on'
p4923
aS'the'
p4924
aS'door'
p4925
aaa(lp4926
g4799
a(lp4927
S'and'
p4928
aS'said'
p4929
ag23
aS'want'
p4930
aS'to'
p4931
aS'see'
p4932
aS'him'
p4933
aaa(lp4934
g4799
a(lp4935
S'we'
p4936
aS'need'
p4937
aS'to'
p4938
aS'talk'
p4939
aaa(lp4940
g4799
a(lp4941
S'and'
p4942
aS'my'
p4943
aS'brothers'
p4944
aS'like'
p4945
aaa(lp4946
g4799
a(lp4947
S'this'
p4948
aS'is'
p4949
aS'really'
p4950
aS'odd'
p4951
aS'for'
p4952
aS'two'
p4953
aS'friends'
p4954
aaa(lp4955
g4799
a(lp4956
S'to'
p4957
aS'be'
p4958
aS'this'
p4959
aS'emotionally'
p4960
aS'attached'
p4961
aaa(lp4962
g4799
a(lp4963
S'And'
p4964
ag23
aS'was'
p4965
aS'like'
p4966
aS'crying'
p4967
aS'all'
p4968
aS'the'
p4969
aS'time'
p4970
aaa(lp4971
g4799
a(lp4972
S'and'
p4973
aS'like'
p4974
aS'when'
p4975
aS'Ron'
p4976
aS'came'
p4977
aaa(lp4978
g4799
a(lp4979
g23
aS'started'
p4980
aS'to'
p4981
aS'crying'
p4982
aaa(lp4983
g4799
a(lp4984
S'and'
p4985
ag23
aS'was'
p4986
aS'just'
p4987
aS'like'
p4988
aaa(lp4989
g4799
a(lp4990
S'just'
p4991
aS'tell'
p4992
aS'him'
p4993
aS'to'
p4994
aS'leave'
p4995
aS'me'
p4996
aS'alone'
p4997
aaa(lp4998
g4799
a(lp4999
S'just'
p5000
aS'get'
p5001
aS'him'
p5002
aS'out'
p5003
aS'of'
p5004
aS'here'
p5005
aaa(lp5006
g4799
a(lp5007
S'and'
p5008
aS'blah'
p5009
aS'blah'
p5010
aS'blah'
p5011
aaa(lp5012
g4799
a(lp5013
S'and'
p5014
aaa(lp5015
S'CAM'
p5016
a(lp5017
S'Oh'
p5018
aS'my'
p5019
aS'God'
p5020
aaa(lp5021
S'LAJUANNow'
p5022
a(lp5023
S'you'
p5024
aS'tell'
p5025
aS'me'
p5026
aS'your'
p5027
aS'family'
p5028
aS'doesnt'
p5029
aS'realize'
p5030
aaa(lp5031
g5022
a(lp5032
S'now'
p5033
aS'what'
p5034
aS'is'
p5035
aS'wrong'
p5036
aaa(lp5037
g5022
a(lp5038
S'that'
p5039
aS'two'
p5040
aS'friends'
p5041
aS'are'
p5042
aaa(lp5043
S'CAM'
p5044
a(lp5045
S'Having'
p5046
ag69
aaa(lp5047
S'LAJUAN'
p5048
a(lp5049
S'Th'
p5050
ag69
aS'thing'
p5051
aaa(lp5052
g5048
a(lp5053
S'Theyre'
p5054
aS'fighting'
p5055
aS'each'
p5056
aS'other'
p5057
aaa(lp5058
g5048
a(lp5059
S'th'
p5060
aS'one'
p5061
aS'guys'
p5062
aS'standing'
p5063
aS'outside'
p5064
aS'the'
p5065
aS'house'
p5066
aS'at'
p5067
aS'midnight'
p5068
aS'screaming'
p5069
aaa(lp5070
g5048
a(lp5071
S'let'
p5072
aS'me'
p5073
aS'talk'
p5074
aS'to'
p5075
aS'him'
p5076
aS'let'
p5077
aS'me'
p5078
aS'talk'
p5079
aS'to'
p5080
aS'him'
p5081
aaa(lp5082
g5048
a(lp5083
S'it'
p5084
aS'is'
p5085
ag69
aS'little'
p5086
aS'weird'
p5087
aaa(lp5088
g5048
a(lp5089
S'You'
p5090
aS'know'
p5091
aaa(lp5092
g5048
a(lp5093
S'so'
p5094
aaa(lp5095
S'CAM'
p5096
a(lp5097
S'Yeah'
p5098
aaa(lp5099
g5096
a(lp5100
g23
aS'think'
p5101
aS'they'
p5102
aS'would'
p5103
aS'figure'
p5104
aS'that'
p5105
aS'one'
p5106
aS'out'
p5107
aaa(lp5108
S'LAJUANYeah'
p5109
a(lp5110
aa(lp5111
g5109
a(lp5112
S'and'
p5113
aS'my'
p5114
aS'brother'
p5115
aS'had'
p5116
aS'met'
p5117
aS'Ron'
p5118
aaa(lp5119
g5109
a(lp5120
S'cause'
p5121
aS'we'
p5122
aS'went'
p5123
aS'down'
p5124
aS'there'
p5125
aS'on'
p5126
ag69
aS'vacation'
p5127
ag84
aS'of'
p5128
ag84
aS'spring'
p5129
aS'break'
p5130
aS'once'
p5131
aaa(lp5132
g5109
a(lp5133
S'and'
p5134
aS'he'
p5135
aS'thought'
p5136
aS'we'
p5137
aS'he'
p5138
aS'was'
p5139
aS'really'
p5140
aS'cool'
p5141
aaa(lp5142
g5109
a(lp5143
S'and'
p5144
aS'stuff'
p5145
aS'so'
p5146
aaa(lp5147
g5109
a(lp5148
S'he'
p5149
aS'really'
p5150
aS'liked'
p5151
aS'him'
p5152
ag69
aS'lot'
p5153
aaa(lp5154
g5109
a(lp5155
S'until'
p5156
aS'that'
p5157
aS'episode'
p5158
aaa(lp5159
g5109
a(lp5160
S'and'
p5161
aS'then'
p5162
aaa(lp5163
g5109
a(lp5164
S'uh'
p5165
aaa(lp5166
g5109
a(lp5167
g23
aS'havent'
p5168
aS'spoke'
p5169
aS'to'
p5170
aS'my'
p5171
aS'brother'
p5172
aS'to'
p5173
aS'be'
p5174
aS'honest'
p5175
aS'with'
p5176
aS'you'
p5177
aS'since'
p5178
aaa(lp5179
S'CAM'
p5180
a(lp5181
S'Really'
p5182
aaa(lp5183
S'LAJUAN'
p5184
a(lp5185
aa(lp5186
S'CAM'
p5187
a(lp5188
S'Why'
p5189
aaa(lp5190
g5187
a(lp5191
g851
aS'was'
p5192
aS'he'
p5193
aS'like'
p5194
aS'upset'
p5195
aaa(lp5196
S'LAJUAN'
p5197
a(lp5198
S'No'
p5199
ag1624
aaa(lp5200
g5197
a(lp5201
g23
aS'think'
p5202
aS'Im'
p5203
aS'afraid'
p5204
aaa(lp5205
S'CAM'
p5206
a(lp5207
S'Oh'
p5208
aaa(lp5209
S'LAJUAN'
p5210
a(lp5211
S'Im'
p5212
aS'afraid'
p5213
aS'that'
p5214
aS'hes'
p5215
aS'gonna'
p5216
aS'come'
p5217
aS'right'
p5218
aS'out'
p5219
aS'and'
p5220
aS'ask'
p5221
aS'me'
p5222
aaa(lp5223
S'CAM'
p5224
a(lp5225
S'Oh'
p5226
aaa(lp5227
S'LAJUAN'
p5228
a(lp5229
S'about'
p5230
aS'it'
p5231
aaa(lp5232
g5228
a(lp5233
S'and'
p5234
aS'what'
p5235
aS'happened'
p5236
aS'was'
p5237
aaa(lp5238
g5228
a(lp5239
g23
aS'ended'
p5240
aS'up'
p5241
aS'leaving'
p5242
aS'Dallas'
p5243
aaa(lp5244
g5228
a(lp5245
S'and'
p5246
aS'coming'
p5247
aS'back'
p5248
aS'to'
p5249
aS'Wisconsin'
p5250
aS'like'
p5251
ag69
aS'week'
p5252
aS'later'
p5253
aaa(lp5254
S'CAMBut'
p5255
a(lp5256
S'doesnt'
p5257
aS'he'
p5258
aS'come'
p5259
aS'up'
p5260
aS'here'
p5261
aS'ever'
p5262
aaa(lp5263
g5255
a(lp5264
S'For'
p5265
aS'holidays'
p5266
aS'at'
p5267
aS'all'
p5268
aS'or'
p5269
aS'anything'
p5270
aaa(lp5271
S'LAJUANI'
p5272
a(lp5273
S'wont'
p5274
aS'go'
p5275
aS'home'
p5276
aS'when'
p5277
aS'hes'
p5278
aS'here'
p5279
aaa(lp5280
S'CAM'
p5281
a(lp5282
S'Are'
p5283
aS'you'
p5284
aS'serious'
p5285
aaa(lp5286
S'LAJUAN'
p5287
a(lp5288
aa(lp5289
g5287
a(lp5290
g23
aS'wont'
p5291
aS'go'
p5292
aS'to'
p5293
aS'Indiana'
p5294
aaa(lp5295
g5287
a(lp5296
S'see'
p5297
ag23
aS'dont'
p5298
aS'have'
p5299
aS'any'
p5300
aS'family'
p5301
aS'in'
p5302
aS'Wisconsin'
p5303
aaa(lp5304
g5287
a(lp5305
S'My'
p5306
aS'familys'
p5307
aS'all'
p5308
aS'in'
p5309
aS'Indiana'
p5310
aaa(lp5311
S'CAMMm'
p5312
a(lp5313
aa(lp5314
S'LAJUAN'
p5315
a(lp5316
S'So'
p5317
aS'when'
p5318
aS'he'
p5319
aS'comes'
p5320
aS'home'
p5321
aaa(lp5322
g5315
a(lp5323
S'like'
p5324
aS'if'
p5325
ag23
aS'know'
p5326
aS'hes'
p5327
aS'coming'
p5328
aS'home'
p5329
aS'for'
p5330
aS'Thanksgiving'
p5331
aaa(lp5332
g5315
a(lp5333
g23
aS'wont'
p5334
aS'go'
p5335
aS'home'
p5336
aaa(lp5337
S'CAM'
p5338
a(lp5339
aa(lp5340
S'LAJUAN'
p5341
a(lp5342
S'He'
p5343
aS'did'
p5344
aS'call'
p5345
aS'me'
p5346
aS'one'
p5347
aS'time'
p5348
aaa(lp5349
g5341
a(lp5350
S'because'
p5351
aS'he'
p5352
aS'needed'
p5353
aS'me'
p5354
aS'to'
p5355
aS'se'
p5356
aS'sign'
p5357
ag69
aS'property'
p5358
aS'agreement'
p5359
aaa(lp5360
g5341
a(lp5361
S'some'
p5362
aS'property'
p5363
aS'we'
p5364
aS'own'
p5365
aS'jointly'
p5366
aaa(lp5367
S'CAM'
p5368
a(lp5369
S'Mhm'
p5370
aaa(lp5371
S'LAJUAN'
p5372
a(lp5373
aa(lp5374
g5372
a(lp5375
S'My'
p5376
aaa(lp5377
g5372
a(lp5378
S'Theres'
p5379
aS'eight'
p5380
aS'of'
p5381
aS'us'
p5382
aaa(lp5383
g5372
a(lp5384
S'that'
p5385
aS'my'
p5386
aS'grandparents'
p5387
aS'left'
p5388
aS'us'
p5389
aaa(lp5390
g5372
a(lp5391
S'and'
p5392
aS'he'
p5393
aS'needed'
p5394
aS'to'
p5395
aS'borrow'
p5396
aS'money'
p5397
aS'against'
p5398
aS'it'
p5399
aaa(lp5400
g5372
a(lp5401
S'So'
p5402
aS'he'
p5403
aS'called'
p5404
aaa(lp5405
g5372
a(lp5406
S'and'
p5407
aS'left'
p5408
aS'me'
p5409
ag69
aS'message'
p5410
aaa(lp5411
g5372
a(lp5412
g23
aS'wasnt'
p5413
aS'home'
p5414
aaa(lp5415
g5372
a(lp5416
g23
aS'was'
p5417
aS'working'
p5418
aaa(lp5419
g5372
a(lp5420
S'and'
p5421
aaa(lp5422
g5372
a(lp5423
S'he'
p5424
aS'said'
p5425
aaa(lp5426
g5372
a(lp5427
S'gave'
p5428
aS'me'
p5429
aS'his'
p5430
aS'number'
p5431
aS'and'
p5432
aS'told'
p5433
aS'me'
p5434
aS'to'
p5435
aS'call'
p5436
aS'him'
p5437
aS'back'
p5438
aaa(lp5439
g5372
a(lp5440
S'and'
p5441
aaa(lp5442
g5372
a(lp5443
g23
aS'called'
p5444
aS'my'
p5445
aS'sister'
p5446
aS'and'
p5447
aS'said'
p5448
aS'fine'
p5449
aaa(lp5450
g5372
a(lp5451
S'send'
p5452
aS'me'
p5453
aS'the'
p5454
aS'p'
p5455
aaa(lp5456
g5372
a(lp5457
S'Tell'
p5458
aS'him'
p5459
aS'to'
p5460
aS'send'
p5461
aS'me'
p5462
aS'the'
p5463
aS'paper'
p5464
aS'and'
p5465
aS'Ill'
p5466
aS'sign'
p5467
aS'it'
p5468
aaa(lp5469
g5372
a(lp5470
S'and'
p5471
ag23
aS'never'
p5472
aS'talked'
p5473
aS'to'
p5474
aS'him'
p5475
aaa(lp5476
S'CAM'
p5477
a(lp5478
aa(lp5479
S'LAJUAN'
p5480
a(lp5481
S'So'
p5482
ag23
aS'havent'
p5483
aS'talked'
p5484
aS'to'
p5485
aS'my'
p5486
aS'brother'
p5487
aaa(lp5488
g5480
a(lp5489
S'see'
p5490
aS'Ive'
p5491
aS'been'
p5492
aS'in'
p5493
aS'Milwaukee'
p5494
aS'for'
p5495
aS'ten'
p5496
aS'years'
p5497
aaa(lp5498
g5480
a(lp5499
S'so'
p5500
aaa(lp5501
g5480
a(lp5502
S'about'
p5503
aS'ten'
p5504
aS'and'
p5505
ag69
aS'half'
p5506
aS'years'
p5507
aaa(lp5508
S'CAM'
p5509
a(lp5510
S'Wow'
p5511
aaa(lp5512
g5509
a(lp5513
S'How'
p5514
aS'old'
p5515
aS'is'
p5516
aS'he'
p5517
aaa(lp5518
S'LAJUAN'
p5519
a(lp5520
S'Hes'
p5521
ag69
aS'lot'
p5522
aS'older'
p5523
aS'than'
p5524
ag23
aS'am'
p5525
aaa(lp5526
g5519
a(lp5527
S'cause'
p5528
aS'if'
p5529
ag23
aS'was'
p5530
aS'ten'
p5531
aS'and'
p5532
aS'he'
p5533
aS'was'
p5534
aS'nineteen'
p5535
aaa(lp5536
g5519
a(lp5537
S'so'
p5538
aS'hes'
p5539
aS'nine'
p5540
aS'years'
p5541
aS'older'
p5542
aS'than'
p5543
aS'me'
p5544
aaa(lp5545
S'CAMOh'
p5546
a(lp5547
aa(lp5548
S'LAJUANSo'
p5549
a(lp5550
S'hes'
p5551
aaa(lp5552
g5549
a(lp5553
S'Hes'
p5554
aS'older'
p5555
aaa(lp5556
g5549
a(lp5557
S'hes'
p5558
aS'in'
p5559
aS'his'
p5560
aS'forties'
p5561
aaa(lp5562
g5549
a(lp5563
S'Yeah'
p5564
aaa(lp5565
g5549
a(lp5566
S'Hes'
p5567
aS'in'
p5568
aS'his'
p5569
aS'forties'
p5570
aaa(lp5571
S'CAMDont'
p5572
a(lp5573
S'you'
p5574
aS'think'
p5575
aS'its'
p5576
aS'its'
p5577
aS'more'
p5578
aS'that'
p5579
aS'you'
p5580
aS'were'
p5581
aS'just'
p5582
aS'nervous'
p5583
aS'at'
p5584
aS'the'
p5585
aS'time'
p5586
aaa(lp5587
S'LAJUAN'
p5588
a(lp5589
S'Well'
p5590
aS'now'
p5591
aS'Im'
p5592
aS'gonna'
p5593
aS'tell'
p5594
aS'him'
p5595
aaa(lp5596
g5588
a(lp5597
S'Ive'
p5598
aS't'
p5599
ag23
aS'keep'
p5600
aS'telling'
p5601
aS'myself'
p5602
aS'every'
p5603
aS'month'
p5604
aaa(lp5605
g5588
a(lp5606
S'call'
p5607
aS'him'
p5608
aaa(lp5609
g5588
a(lp5610
S'and'
p5611
aS'just'
p5612
aS'tell'
p5613
aS'him'
p5614
aaa(lp5615
g5588
a(lp5616
S'because'
p5617
ag23
aS'wanna'
p5618
aS'go'
p5619
aS'to'
p5620
aS'Dallas'
p5621
aaa(lp5622
g5588
a(lp5623
S'and'
p5624
ag23
aS'wanna'
p5625
aaa(lp5626
g5588
a(lp5627
g23
ag23
aS'miss'
p5628
aS'my'
p5629
aS'brother'
p5630
aaa(lp5631
g5588
a(lp5632
S'He'
p5633
aS'was'
p5634
aS'my'
p5635
aS'best'
p5636
aS'friend'
p5637
aaa(lp5638
g5588
a(lp5639
S'and'
p5640
aS'he'
p5641
aS'knows'
p5642
aaa(lp5643
g5588
a(lp5644
S'He'
p5645
aS'knows'
p5646
aaa(lp5647
g5588
a(lp5648
S'But'
p5649
aaa(lp5650
g5588
a(lp5651
g23
aS'just'
p5652
aS'couldnt'
p5653
aaa(lp5654
g5588
a(lp5655
S'just'
p5656
aS'come'
p5657
aS'right'
p5658
aS'out'
p5659
aS'and'
p5660
aS'tell'
p5661
aS'him'
p5662
aS'then'
p5663
aaa(lp5664
g5588
a(lp5665
g23
aS'couldnt'
p5666
aS'tell'
p5667
aS'him'
p5668
aaa(lp5669
g5588
a(lp5670
S'wel'
p5671
aaa(lp5672
g5588
a(lp5673
S'There'
p5674
aS'was'
p5675
aS'more'
p5676
aS'to'
p5677
aS'it'
p5678
aS'than'
p5679
aS'that'
p5680
aaa(lp5681
g5588
a(lp5682
S'Ron'
p5683
aS'came'
p5684
aS'to'
p5685
aS'the'
p5686
aS'house'
p5687
aaa(lp5688
g5588
a(lp5689
S'he'
p5690
aS'had'
p5691
ag69
aS'gun'
p5692
aaa(lp5693
g5588
a(lp5694
S'they'
p5695
aS'had'
p5696
aS'to'
p5697
aS'call'
p5698
aS'the'
p5699
aS'police'
p5700
aaa(lp5701
S'CAMHe'
p5702
a(lp5703
S'had'
p5704
ag69
aS'gun'
p5705
aaa(lp5706
S'LAJUAN'
p5707
a(lp5708
S'Yes'
p5709
aaa(lp5710
S'CAM'
p5711
a(lp5712
aa(lp5713
S'LAJUANAnd'
p5714
a(lp5715
S'he'
p5716
aS'was'
p5717
aS'standing'
p5718
aS'outside'
p5719
aS'the'
p5720
aS'house'
p5721
aaa(lp5722
g5714
a(lp5723
S'saying'
p5724
aS'Im'
p5725
aS'gonna'
p5726
aaa(lp5727
g5714
a(lp5728
S'Im'
p5729
aS'gonna'
p5730
aS'kill'
p5731
aS'myself'
p5732
aaa(lp5733
g5714
a(lp5734
S'if'
p5735
aS'you'
p5736
aS'dont'
p5737
aS'talk'
p5738
aS'to'
p5739
aS'me'
p5740
aaa(lp5741
g5714
a(lp5742
S'just'
p5743
aS'tell'
p5744
aS'me'
p5745
aaa(lp5746
g5714
a(lp5747
S'and'
p5748
aaa(lp5749
g5714
a(lp5750
S'th'
p5751
aaa(lp5752
g5714
a(lp5753
S'There'
p5754
aS'was'
p5755
aS'just'
p5756
aS'so'
p5757
aS'much'
p5758
aS'to'
p5759
aS'this'
p5760
aS'VOXX'
p5761
aS'whole'
p5762
aS'XVOX'
p5763
aaa(lp5764
S'CAM'
p5765
a(lp5766
S'This'
p5767
aS'is'
p5768
aS'the'
p5769
aS'guy'
p5770
aS'who'
p5771
aS'doesnt'
p5772
aS'know'
p5773
aS'hes'
p5774
aS'gay'
p5775
aaa(lp5776
g5765
a(lp5777
S'Or'
p5778
aS'isnt'
p5779
aS'sure'
p5780
aS'if'
p5781
aS'hes'
p5782
aS'gay'
p5783
aaa(lp5784
S'LAJUANYes'
p5785
a(lp5786
aa(lp5787
g5785
a(lp5788
S'Yes'
p5789
aaa(lp5790
g5785
a(lp5791
S'Whos'
p5792
aS'now'
p5793
aS'in'
p5794
aS'the'
p5795
aS'air'
p5796
aS'force'
p5797
aS'and'
p5798
aS'lives'
p5799
aS'in'
p5800
aS'th'
p5801
aS'in'
p5802
aS'South'
p5803
aS'Carolina'
p5804
aaa(lp5805
g5785
a(lp5806
S'So'
p5807
aaa(lp5808
S'CAM'
p5809
a(lp5810
S'Wait'
p5811
ag69
aS'second'
p5812
aaa(lp5813
g5809
a(lp5814
g23
aS'thought'
p5815
aS'this'
p5816
ag1928
aS'guy'
p5817
aS'was'
p5818
aS'go'
p5819
aS'was'
p5820
aS'married'
p5821
aaa(lp5822
S'LAJUAN'
p5823
a(lp5824
S'Ron'
p5825
aaa(lp5826
S'CAM'
p5827
a(lp5828
S'Ron'
p5829
aaa(lp5830
g5827
a(lp5831
S'hes'
p5832
aS'married'
p5833
aaa(lp5834
g5827
a(lp5835
S'right'
p5836
aaa(lp5837
S'LAJUAN'
p5838
a(lp5839
S'Thats'
p5840
aS'Darren'
p5841
aaa(lp5842
S'CAMOh'
p5843
a(lp5844
aa(lp5845
g5843
a(lp5846
S'Im'
p5847
aS'thinking'
p5848
aS'of'
p5849
aS'Darren'
p5850
aS'right'
p5851
aaa(lp5852
S'LAJUAN'
p5853
a(lp5854
S'No'
p5855
aaa(lp5856
g5853
a(lp5857
S'Darrens'
p5858
aS'the'
p5859
aS'other'
p5860
aS'guy'
p5861
aS'that'
p5862
aaa(lp5863
g5853
a(lp5864
S'SM'
p5865
aS'was'
p5866
aS'also'
p5867
aS'in'
p5868
ag69
aS'frat'
p5869
aS'that'
p5870
ag23
aS'knew'
p5871
aS'in'
p5872
aS'college'
p5873
aS'SM'
p5874
aaa(lp5875
g5853
a(lp5876
S'the'
p5877
aS'one'
p5878
aS'that'
p5879
ag23
aS'told'
p5880
aaa(lp5881
S'CAM'
p5882
a(lp5883
S'Oh'
p5884
aS'those'
p5885
aS'frat'
p5886
aS'boys'
p5887
aS'are'
p5888
aS'too'
p5889
aS'much'
p5890
aaa(lp5891
S'LAJUAN'
p5892
a(lp5893
g23
aS'know'
p5894
aaa(lp5895
g5892
a(lp5896
S'He'
p5897
aS'was'
p5898
aS'the'
p5899
aS'one'
p5900
aS'that'
p5901
ag23
aS'told'
p5902
aaa(lp5903
g5892
a(lp5904
S'that'
p5905
aS'if'
p5906
aS'hed'
p5907
aS'had'
p5908
aS'told'
p5909
aS'me'
p5910
aS'he'
p5911
aS'loved'
p5912
aS'me'
p5913
aaa(lp5914
g5892
a(lp5915
g23
aS'would'
p5916
aS'have'
p5917
aS'never'
p5918
aS'left'
p5919
aS'Washington'
p5920
aS'and'
p5921
aS'moved'
p5922
aS'with'
p5923
aS'Ron'
p5924
aaa(lp5925
g5892
a(lp5926
g23
aS'would'
p5927
aS'have'
p5928
aS'stuck'
p5929
aS'with'
p5930
aS'Darren'
p5931
aaa(lp5932
S'CAMOh'
p5933
a(lp5934
aa(lp5935
S'LAJUAN'
p5936
a(lp5937
g23
aS'would'
p5938
aS'have'
p5939
aS'never'
p5940
aaa(lp5941
g5936
a(lp5942
S'Cause'
p5943
ag23
aS'never'
p5944
aS'really'
p5945
aaa(lp5946
g5936
a(lp5947
S'like'
p5948
ag23
aS'said'
p5949
aaa(lp5950
g5936
a(lp5951
S'Ron'
p5952
aS'was'
p5953
aS'my'
p5954
aS'friend'
p5955
aaa(lp5956
g5936
a(lp5957
S'And'
p5958
ag23
aS'knew'
p5959
aS'Ron'
p5960
aS'was'
p5961
aS'my'
p5962
aS'friend'
p5963
aaa(lp5964
S'CAM'
p5965
a(lp5966
aa(lp5967
S'LAJUAN'
p5968
a(lp5969
S'And'
p5970
aaa(lp5971
g5968
a(lp5972
g23
aS'was'
p5973
aS'in'
p5974
aS'love'
p5975
aS'with'
p5976
aS'Darren'
p5977
aaa(lp5978
g5968
a(lp5979
S'When'
p5980
ag23
aS'was'
p5981
aS'in'
p5982
aS'college'
p5983
aaa(lp5984
g5968
a(lp5985
S'and'
p5986
aS'to'
p5987
aS'this'
p5988
aS'day'
p5989
aaa(lp5990
g5968
a(lp5991
S'if'
p5992
aS'Scott'
p5993
aS'wasnt'
p5994
aS'here'
p5995
aaa(lp5996
g5968
a(lp5997
S'and'
p5998
aS'Darren'
p5999
aS'wasnt'
p6000
aS'married'
p6001
aS'to'
p6002
ag69
aS'woman'
p6003
aaa(lp6004
g5968
a(lp6005
g23
aS'would'
p6006
aS'be'
p6007
aS'with'
p6008
aS'Darren'
p6009
aaa(lp6010
g5968
a(lp6011
S'He'
p6012
aS'was'
p6013
aS'probably'
p6014
aS'the'
p6015
aS'best'
p6016
aS'sexual'
p6017
aS'partner'
p6018
aaa(lp6019
g5968
a(lp6020
g23
aS'could'
p6021
aS'ever'
p6022
aS'imagine'
p6023
aaa(lp6024
S'CAM'
p6025
a(lp6026
aa(lp6027
S'LAJUAN'
p6028
a(lp6029
aa(lp6030
S'CAMOh'
p6031
a(lp6032
S'my'
p6033
aS'God'
p6034
aaa(lp6035
S'LAJUANSM'
p6036
a(lp6037
S'And'
p6038
aS'we'
p6039
aS'never'
p6040
aS'had'
p6041
aS'sex'
p6042
aS'SM'
p6043
aaa(lp6044
g6036
a(lp6045
S'Hes'
p6046
aS'the'
p6047
aS'only'
p6048
aS'person'
p6049
ag23
aS'know'
p6050
aS'who'
p6051
aS'kissed'
p6052
aS'me'
p6053
aaa(lp6054
g6036
a(lp6055
S'when'
p6056
ag1624
aS'when'
p6057
aS'he'
p6058
aS'kissed'
p6059
aS'me'
p6060
ag23
aS'just'
p6061
aS'came'
p6062
aS'SM'
p6063
aS'right'
p6064
aS'on'
p6065
aS'the'
p6066
aS'spot'
p6067
aS'SM'
p6068
aaa(lp6069
S'CAM'
p6070
a(lp6071
S'You'
p6072
aS'never'
p6073
aS'had'
p6074
aS'sex'
p6075
aaa(lp6076
S'LAJUAN'
p6077
a(lp6078
S'Not'
p6079
aaa(lp6080
g6077
a(lp6081
S'you'
p6082
aS'know'
p6083
aaa(lp6084
g6077
a(lp6085
S'Not'
p6086
aS'the'
p6087
aS'booty'
p6088
aS'dance'
p6089
aaa(lp6090
S'CAM'
p6091
a(lp6092
aa(lp6093
g6091
a(lp6094
S'The'
p6095
aS'booty'
p6096
aS'dance'
p6097
aaa(lp6098
S'LAJUAN'
p6099
a(lp6100
aa(lp6101
S'CAM'
p6102
a(lp6103
S'Wow'
p6104
aaa(lp6105
S'LAJUANWe'
p6106
a(lp6107
S'had'
p6108
aS'um'
p6109
aaa(lp6110
S'CAM'
p6111
a(lp6112
S'You'
p6113
aS'had'
p6114
aS'oral'
p6115
aS'sex'
p6116
aaa(lp6117
S'LAJUANOral'
p6118
a(lp6119
S'sex'
p6120
aaa(lp6121
g6118
a(lp6122
S'But'
p6123
aS'he'
p6124
aS'was'
p6125
aS'just'
p6126
aaa(lp6127
g6118
a(lp6128
S'oh'
p6129
aaa(lp6130
g6118
a(lp6131
S'and'
p6132
aS'fine'
p6133
aaa(lp6134
g6118
a(lp6135
S'And'
p6136
ag23
aS'dont'
p6137
aS'like'
p6138
aS'men'
p6139
aS'with'
p6140
aS'like'
p6141
aS'auburn'
p6142
aS'hair'
p6143
aaa(lp6144
g6118
a(lp6145
S'But'
p6146
aS'he'
p6147
aS'had'
p6148
aS'auburn'
p6149
aS'hair'
p6150
aaa(lp6151
g6118
a(lp6152
S'and'
p6153
aS'these'
p6154
aS'turquoise'
p6155
aS'eyes'
p6156
aaa(lp6157
g6118
a(lp6158
S'and'
p6159
aS'he'
p6160
aS'was'
p6161
aS'like'
p6162
aaa(lp6163
g6118
a(lp6164
S'six'
p6165
aS'foot'
p6166
aaa(lp6167
g6118
a(lp6168
S'and'
p6169
aS'just'
p6170
aaa(lp6171
g6118
a(lp6172
S'oh'
p6173
aaa(lp6174
g6118
a(lp6175
S'and'
p6176
aS'he'
p6177
aS'still'
p6178
aS'is'
p6179
aaa(lp6180
g6118
a(lp6181
g23
aS'was'
p6182
aS'just'
p6183
aS'like'
p6184
aaa(lp6185
g6118
a(lp6186
S'he'
p6187
aS'is'
p6188
aS'to'
p6189
aS'die'
p6190
aS'for'
p6191
aaa(lp6192
g6118
a(lp6193
g23
aS'thought'
p6194
aaa(lp6195
g6118
a(lp6196
S'WH'
p6197
aS'why'
p6198
aS'WH'
p6199
aaa(lp6200
g6118
a(lp6201
g23
aS'was'
p6202
aS'so'
p6203
aS'young'
p6204
aS'then'
p6205
aS'and'
p6206
aS'so'
p6207
aS'stupid'
p6208
aaa(lp6209
g6118
a(lp6210
S'He'
p6211
aS'was'
p6212
aS'the'
p6213
aS'one'
p6214
aS'that'
p6215
aS'blamed'
p6216
aS'me'
p6217
aaa(lp6218
S'CAMP'
p6219
a(lp6220
g2396
aaa(lp6221
S'LAJUANhe'
p6222
a(lp6223
S'wouldnt'
p6224
aS'speak'
p6225
aS'to'
p6226
aS'me'
p6227
aS'for'
p6228
aS'six'
p6229
aS'months'
p6230
aaa(lp6231
g6222
a(lp6232
S'the'
p6233
aS'first'
p6234
aS'time'
p6235
aS'we'
p6236
aS'messed'
p6237
aS'around'
p6238
aS'we'
p6239
aS'were'
p6240
aS'drunk'
p6241
aaa(lp6242
g6222
a(lp6243
S'And'
p6244
aS'we'
p6245
aS'messed'
p6246
aS'around'
p6247
aaa(lp6248
g6222
a(lp6249
S'And'
p6250
aS'he'
p6251
aS'wouldnt'
p6252
aS'speak'
p6253
aS'to'
p6254
aS'me'
p6255
aS'for'
p6256
aS'six'
p6257
aS'months'
p6258
aaa(lp6259
g6222
a(lp6260
S'and'
p6261
aS'said'
p6262
aS'it'
p6263
aS'was'
p6264
aS'my'
p6265
aS'fault'
p6266
aS'that'
p6267
aS'he'
p6268
aS'knows'
p6269
aS'hes'
p6270
aS'not'
p6271
aS'gay'
p6272
aaa(lp6273
g6222
a(lp6274
S'But'
p6275
aS'yet'
p6276
aS'he'
p6277
aS'was'
p6278
aS'the'
p6279
aS'one'
p6280
aS'that'
p6281
aS'grabbed'
p6282
aS'me'
p6283
aS'and'
p6284
aS'threw'
p6285
aS'me'
p6286
aS'on'
p6287
aS'the'
p6288
aS'floor'
p6289
aaa(lp6290
S'CAM'
p6291
a(lp6292
S'He'
p6293
aS'confronted'
p6294
aS'you'
p6295
aS'and'
p6296
aS'said'
p6297
aS'that'
p6298
aS'to'
p6299
aS'you'
p6300
aaa(lp6301
S'LAJUANAnd'
p6302
a(lp6303
S'got'
p6304
aS'on'
p6305
aS'top'
p6306
aS'of'
p6307
aS'me'
p6308
aaa(lp6309
g6302
a(lp6310
g23
aS'called'
p6311
aS'him'
p6312
aaa(lp6313
S'CAMOh'
p6314
a(lp6315
aa(lp6316
S'LAJUANthe'
p6317
a(lp6318
S'next'
p6319
aS'day'
p6320
aS'after'
p6321
aS'it'
p6322
aS'had'
p6323
aS'happened'
p6324
aaa(lp6325
g6317
a(lp6326
S'And'
p6327
aS'he'
p6328
aS'said'
p6329
ag23
aS'dont'
p6330
aS'want'
p6331
aS'to'
p6332
aS'talk'
p6333
aS'to'
p6334
aS'you'
p6335
aaa(lp6336
g6317
a(lp6337
S'you'
p6338
aS'took'
p6339
aS'advantage'
p6340
aS'of'
p6341
aS'me'
p6342
aS'when'
p6343
ag23
aS'was'
p6344
aS'drunk'
p6345
aaa(lp6346
g6317
a(lp6347
S'But'
p6348
aS'hes'
p6349
aS'the'
p6350
aS'one'
p6351
aS'that'
p6352
aS'grabbed'
p6353
aS'me'
p6354
aaa(lp6355
g6317
a(lp6356
S'kissed'
p6357
aS'me'
p6358
aaa(lp6359
g6317
a(lp6360
S'took'
p6361
aS'my'
p6362
aS'underwear'
p6363
aS'off'
p6364
aaa(lp6365
g6317
a(lp6366
S'and'
p6367
aaa(lp6368
g6317
a(lp6369
S'he'
p6370
aS'started'
p6371
aS'it'
p6372
aaa(lp6373
g6317
a(lp6374
S'You'
p6375
aS'know'
p6376
aaa(lp6377
g6317
a(lp6378
g23
aS'knew'
p6379
aS'what'
p6380
ag23
aS'was'
p6381
aS'about'
p6382
aaa(lp6383
g6317
a(lp6384
g23
aS'didnt'
p6385
aS'get'
p6386
aS'into'
p6387
aS'it'
p6388
aaa(lp6389
g6317
a(lp6390
S'but'
p6391
ag23
aS'knew'
p6392
aaa(lp6393
S'CAM'
p6394
a(lp6395
S'Right'
p6396
aaa(lp6397
S'LAJUAN'
p6398
a(lp6399
S'And'
p6400
aaa(lp6401
g6398
a(lp6402
S'he'
p6403
aS'was'
p6404
aS'the'
p6405
aS'one'
p6406
aaa(lp6407
g6398
a(lp6408
S'that'
p6409
aS'was'
p6410
aS'the'
p6411
aS'first'
p6412
aS'experience'
p6413
aaa(lp6414
g6398
a(lp6415
S'And'
p6416
aS'then'
p6417
aS'the'
p6418
aS'second'
p6419
aS'experience'
p6420
aaa(lp6421
g6398
a(lp6422
S'he'
p6423
aS'didnt'
p6424
aS'speak'
p6425
aS'to'
p6426
aS'me'
p6427
aS'for'
p6428
aS'three'
p6429
aS'months'
p6430
aaa(lp6431
g6398
a(lp6432
S'because'
p6433
aS'he'
p6434
aS'blamed'
p6435
aS'me'
p6436
aS'for'
p6437
aS'that'
p6438
aaa(lp6439
g6398
a(lp6440
S'And'
p6441
aS'then'
p6442
aaa(lp6443
g6398
a(lp6444
S'the'
p6445
aS'third'
p6446
aS'experience'
p6447
aS'he'
p6448
aS'blamed'
p6449
aS'me'
p6450
aS'for'
p6451
aaa(lp6452
g6398
a(lp6453
S'hes'
p6454
aS'been'
p6455
aS'blaming'
p6456
aS'me'
p6457
aS'for'
p6458
aS'all'
p6459
aS'of'
p6460
aS'these'
p6461
aS'experiences'
p6462
aaa(lp6463
g6398
a(lp6464
S'up'
p6465
aS'until'
p6466
aaa(lp6467
g6398
a(lp6468
S'uh'
p6469
aS'like'
p6470
aaa(lp6471
g6398
a(lp6472
S'Scott'
p6473
aS'and'
p6474
ag23
aS'got'
p6475
aS'serious'
p6476
aS'like'
p6477
aS'the'
p6478
aS'year'
p6479
aS'after'
p6480
aaa(lp6481
g6398
a(lp6482
S'and'
p6483
ag23
aS'was'
p6484
aS'still'
p6485
aS'kind'
p6486
aS'of'
p6487
aS'seeing'
p6488
aS'Darren'
p6489
aaa(lp6490
g6398
a(lp6491
g23
aS'went'
p6492
aS'out'
p6493
aS'to'
p6494
aS'Washington'
p6495
aS'and'
p6496
aS'stuff'
p6497
aaa(lp6498
g6398
a(lp6499
S'and'
p6500
aS'thats'
p6501
aS'when'
p6502
aS'he'
p6503
aS'stopped'
p6504
aS'blaming'
p6505
aS'me'
p6506
aaa(lp6507
g6398
a(lp6508
S'Now'
p6509
aaa(lp6510
g6398
a(lp6511
S'he'
p6512
aS'calls'
p6513
aS'me'
p6514
aS'and'
p6515
aS'tells'
p6516
aS'me'
p6517
aS'that'
p6518
aS'he'
p6519
aS'wants'
p6520
aS'to'
p6521
aS'be'
p6522
aS'with'
p6523
aS'me'
p6524
aaa(lp6525
g6398
a(lp6526
S'And'
p6527
aaa(lp6528
g6398
a(lp6529
S'he'
p6530
aS'called'
p6531
aaa(lp6532
g6398
a(lp6533
S'Like'
p6534
aS'he'
p6535
aS'called'
p6536
aS'me'
p6537
aS'last'
p6538
aS'week'
p6539
aaa(lp6540
g6398
a(lp6541
S'and'
p6542
aS'said'
p6543
aS'he'
p6544
aS'wanted'
p6545
aS'to'
p6546
aS'be'
p6547
aS'with'
p6548
aS'me'
p6549
aaa(lp6550
S'CAM'
p6551
a(lp6552
S'Youre'
p6553
aS'kidding'
p6554
aaa(lp6555
S'LAJUAN'
p6556
a(lp6557
S'No'
p6558
aaa(lp6559
g6556
a(lp6560
S'But'
p6561
aS'hes'
p6562
aS'married'
p6563
aS'to'
p6564
aS'Lauren'
p6565
aaa(lp6566
g6556
a(lp6567
S'And'
p6568
ag23
aS'keep'
p6569
aS'telling'
p6570
aS'him'
p6571
aaa(lp6572
g6556
a(lp6573
S'get'
p6574
aS'out'
p6575
aS'of'
p6576
aS'that'
p6577
aS'relationship'
p6578
aaa(lp6579
g6556
a(lp6580
S'before'
p6581
aS'you'
p6582
aS'have'
p6583
aS'children'
p6584
aaa(lp6585
g6556
a(lp6586
S'Just'
p6587
aS'get'
p6588
aS'out'
p6589
aS'of'
p6590
aS'it'
p6591
aaa(lp6592
g6556
a(lp6593
S'dont'
p6594
aS'carry'
p6595
aS'any'
p6596
aS'by'
p6597
aS'baggage'
p6598
aS'with'
p6599
aS'you'
p6600
aaa(lp6601
g6556
a(lp6602
S'Always'
p6603
aS'my'
p6604
aS'biggest'
p6605
aS'theory'
p6606
aaa(lp6607
g6556
a(lp6608
S'Dont'
p6609
aS'carry'
p6610
aS'any'
p6611
aS'excess'
p6612
aS'baggage'
p6613
aaa(lp6614
S'CAM'
p6615
a(lp6616
S'Mm'
p6617
aaa(lp6618
S'LAJUANWith'
p6619
a(lp6620
S'you'
p6621
aaa(lp6622
g6619
a(lp6623
S'And'
p6624
aS'he'
p6625
aS'loves'
p6626
aS'her'
p6627
aaa(lp6628
g6619
a(lp6629
S'But'
p6630
aS'what'
p6631
aS'he'
p6632
aS'doesnt'
p6633
aS'know'
p6634
aS'how'
p6635
aS'to'
p6636
aS'separate'
p6637
aS'is'
p6638
aaa(lp6639
g6619
a(lp6640
S'he'
p6641
aS'loves'
p6642
aS'her'
p6643
aS'but'
p6644
aS'hes'
p6645
aS'not'
p6646
aS'in'
p6647
aS'love'
p6648
aS'with'
p6649
aS'her'
p6650
aaa(lp6651
g6619
a(lp6652
S'You'
p6653
aS'know'
p6654
aS'what'
p6655
ag23
aS'mean'
p6656
aaa(lp6657
g6619
a(lp6658
S'he'
p6659
aS'he'
p6660
aS'just'
p6661
aaa(lp6662
S'CAMRight'
p6663
a(lp6664
S'right'
p6665
aaa(lp6666
g6663
a(lp6667
S'Oh'
p6668
aS'yeah'
p6669
aaa(lp6670
S'LAJUAN'
p6671
a(lp6672
aa(lp6673
S'CAMyou'
p6674
a(lp6675
S'can'
p6676
aS'love'
p6677
ag69
aS'person'
p6678
aaa(lp6679
g6674
a(lp6680
S'but'
p6681
aS'youre'
p6682
aS'not'
p6683
aS'in'
p6684
aS'love'
p6685
aS'with'
p6686
aS'them'
p6687
aaa(lp6688
S'LAJUAN'
p6689
a(lp6690
aa(lp6691
S'CAMIts'
p6692
a(lp6693
S'not'
p6694
aS'sexual'
p6695
aaa(lp6696
S'LAJUAN'
p6697
a(lp6698
S'Yeah'
p6699
aaa(lp6700
g6697
a(lp6701
S'And'
p6702
aS'thats'
p6703
aS'really'
p6704
aS'hard'
p6705
aaa(lp6706
S'CAM'
p6707
a(lp6708
aa(lp6709
S'LAJUAN'
p6710
a(lp6711
S'Because'
p6712
aaa(lp6713
S'CAM'
p6714
a(lp6715
aa(lp6716
S'LAJUAN'
p6717
a(lp6718
S'you'
p6719
aS'you'
p6720
aS'find'
p6721
aS'it'
p6722
aS'very'
p6723
aS'difficult'
p6724
aS'to'
p6725
aS'be'
p6726
aaa(lp6727
g6717
a(lp6728
S'to'
p6729
aS'love'
p6730
aS'someone'
p6731
aS'and'
p6732
aaa(lp6733
g6717
a(lp6734
S'when'
p6735
aS'you'
p6736
aS'tell'
p6737
aS'someone'
p6738
aS'you'
p6739
aS'love'
p6740
aS'them'
p6741
aaa(lp6742
g6717
a(lp6743
S'they'
p6744
aS'misunderstand'
p6745
aaa(lp6746
g6717
a(lp6747
S'what'
p6748
aS'love'
p6749
aS'is'
p6750
aS'all'
p6751
aS'about'
p6752
aaa(lp6753
g6717
a(lp6754
S'So'
p6755
aaa(lp6756
g6717
a(lp6757
g23
aS'dont'
p6758
aS'know'
p6759
aaa(lp6760
g6717
a(lp6761
S'But'
p6762
ag23
ag2192
ag23
aaa(lp6763
g6717
a(lp6764
g23
aS'think'
p6765
aS'if'
p6766
aS'there'
p6767
aS'was'
p6768
aS'ever'
p6769
aS'anybody'
p6770
aaa(lp6771
g6717
a(lp6772
g23
aS'truly'
p6773
aaa(lp6774
g6717
a(lp6775
S'But'
p6776
aS'he'
p6777
aS'k'
p6778
aaa(lp6779
g6717
a(lp6780
S'He'
p6781
aaa(lp6782
g6717
a(lp6783
S'everybody'
p6784
aS'has'
p6785
aS'that'
p6786
aS'one'
p6787
aS'person'
p6788
aS'who'
p6789
aS'breaks'
p6790
aS'their'
p6791
aS'heart'
p6792
aaa(lp6793
g6717
a(lp6794
S'and'
p6795
aS'he'
p6796
aS'broke'
p6797
aS'my'
p6798
aS'heart'
p6799
aaa(lp6800
g6717
a(lp6801
S'Just'
p6802
aS'incredibly'
p6803
aS'because'
p6804
aaa(lp6805
g6717
a(lp6806
g23
aS'wasnt'
p6807
aS'really'
p6808
aS'in'
p6809
aS'love'
p6810
aS'with'
p6811
aS'his'
p6812
aS'looks'
p6813
aaa(lp6814
g6717
a(lp6815
g23
aS'just'
p6816
aaa(lp6817
g6717
a(lp6818
S'Ive'
p6819
aS'never'
p6820
aS'met'
p6821
aS'anybody'
p6822
aS'who'
p6823
aS'when'
p6824
aS'you'
p6825
aS'they'
p6826
aS'touched'
p6827
aS'you'
p6828
aaa(lp6829
g6717
a(lp6830
S'just'
p6831
aaa(lp6832
g6717
a(lp6833
S'there'
p6834
aS'was'
p6835
aS'so'
p6836
aS'much'
p6837
aS'warmth'
p6838
aaa(lp6839
g6717
a(lp6840
S'And'
p6841
aS'so'
p6842
aS'much'
p6843
aaa(lp6844
g6717
a(lp6845
S'just'
p6846
aaa(lp6847
g6717
a(lp6848
S'There'
p6849
aS'was'
p6850
aS'so'
p6851
aS'much'
p6852
aS'energy'
p6853
aS'there'
p6854
aaa(lp6855
g6717
a(lp6856
S'That'
p6857
aaa(lp6858
g6717
a(lp6859
g23
aS'mean'
p6860
aaa(lp6861
S'CAM'
p6862
a(lp6863
S'So'
p6864
aS'youve'
p6865
aS'kept'
p6866
aS'in'
p6867
aS'contact'
p6868
aS'with'
p6869
aS'him'
p6870
aaa(lp6871
S'LAJUANP'
p6872
a(lp6873
S'Mm'
p6874
ag2396
aaa(lp6875
g6872
a(lp6876
S'yes'
p6877
aaa(lp6878
g6872
a(lp6879
S'Since'
p6880
aS'nineteen'
p6881
aaa(lp6882
g6872
a(lp6883
S'Yeah'
p6884
aaa(lp6885
S'CAM'
p6886
a(lp6887
S'Thats'
p6888
aS'amazing'
p6889
aaa(lp6890
S'LAJUANIve'
p6891
a(lp6892
S'been'
p6893
aS'here'
p6894
aaa(lp6895
g6891
a(lp6896
S'for'
p6897
aS'all'
p6898
aS'this'
p6899
aS'time'
p6900
aaa(lp6901
S'CAM'
p6902
a(lp6903
S'What'
p6904
aS'does'
p6905
aS'he'
p6906
aS'just'
p6907
aS'call'
p6908
aaa(lp6909
g6902
a(lp6910
S'or'
p6911
aS'you'
p6912
aS'call'
p6913
aaa(lp6914
g6902
a(lp6915
S'PX'
p6916
aS'when'
p6917
aS'hes'
p6918
aS'XP'
p6919
aaa(lp6920
S'LAJUANNo'
p6921
a(lp6922
aa(lp6923
g6921
a(lp6924
S'He'
p6925
aS'calls'
p6926
aS'me'
p6927
aaa(lp6928
g6921
a(lp6929
g23
aS'cant'
p6930
aS'call'
p6931
aS'him'
p6932
aaa(lp6933
S'CAM'
p6934
a(lp6935
S'Oh'
p6936
aaa(lp6937
S'LAJUAN'
p6938
a(lp6939
S'Actually'
p6940
ag23
aS'can'
p6941
aaa(lp6942
g6938
a(lp6943
S'cause'
p6944
aS'his'
p6945
aS'wife'
p6946
aS'knows'
p6947
aS'that'
p6948
aS'were'
p6949
aS'friends'
p6950
aaa(lp6951
g6938
a(lp6952
S'But'
p6953
ag23
aS'dont'
p6954
aS'choose'
p6955
aS'to'
p6956
aS'call'
p6957
aS'him'
p6958
aaa(lp6959
g6938
a(lp6960
S'He'
p6961
aaa(lp6962
g6938
a(lp6963
S'Like'
p6964
aS'he'
p6965
aS'used'
p6966
aS'to'
p6967
aS'travel'
p6968
aaa(lp6969
g6938
a(lp6970
S'around'
p6971
aS'the'
p6972
aS'country'
p6973
aaa(lp6974
S'CAM'
p6975
a(lp6976
aa(lp6977
S'LAJUANthey'
p6978
a(lp6979
S'live'
p6980
aaa(lp6981
g6978
a(lp6982
S'They'
p6983
aS'used'
p6984
aS'to'
p6985
aS'live'
p6986
aS'in'
p6987
aS'Valencia'
p6988
aS'California'
p6989
aaa(lp6990
S'CAM'
p6991
a(lp6992
aa(lp6993
S'LAJUANnow'
p6994
a(lp6995
S'they'
p6996
aS'live'
p6997
aS'somewhere'
p6998
aaa(lp6999
g6994
a(lp7000
S'they'
p7001
aS'just'
p7002
aS'moved'
p7003
aaa(lp7004
g6994
a(lp7005
S'cause'
p7006
aS'his'
p7007
aS'wife'
p7008
aS'got'
p7009
ag69
aS'new'
p7010
aS'job'
p7011
aaa(lp7012
g6994
a(lp7013
S'He'
p7014
aS'quit'
p7015
aS'his'
p7016
aS'job'
p7017
aS'for'
p7018
aS'her'
p7019
aaa(lp7020
g6994
a(lp7021
S'for'
p7022
aS'her'
p7023
aS'job'
p7024
aaa(lp7025
g6994
a(lp7026
S'Cause'
p7027
aS'she'
p7028
aS'moved'
p7029
aS'to'
p7030
aS'California'
p7031
aS'for'
p7032
aS'them'
p7033
aaa(lp7034
g6994
a(lp7035
S'cause'
p7036
aS'they'
p7037
aS'were'
p7038
aS'living'
p7039
aS'in'
p7040
aS'Washington'
p7041
aS'DC'
p7042
aaa(lp7043
g6994
a(lp7044
S'So'
p7045
aS'he'
p7046
aS'used'
p7047
aS'to'
p7048
aS'travel'
p7049
aS'all'
p7050
aS'around'
p7051
aS'the'
p7052
aS'world'
p7053
aaa(lp7054
g6994
a(lp7055
S'Well'
p7056
aS'whenever'
p7057
aS'he'
p7058
aS'come'
p7059
aS'to'
p7060
aS'Wisconsin'
p7061
aS'for'
p7062
aS'the'
p7063
aS'dairy'
p7064
aS'expo'
p7065
aaa(lp7066
g6994
a(lp7067
S'or'
p7068
aS'hed'
p7069
aS'come'
p7070
aS'here'
p7071
aaa(lp7072
g6994
a(lp7073
S'go'
p7074
aS'to'
p7075
aS'Chicago'
p7076
aS'for'
p7077
aS'some'
p7078
aS'reason'
p7079
aaa(lp7080
g6994
a(lp7081
S'to'
p7082
aS'take'
p7083
aS'businessmen'
p7084
aS'around'
p7085
aaa(lp7086
g6994
a(lp7087
S'what'
p7088
aS'he'
p7089
aS'did'
p7090
aS'was'
p7091
aaa(lp7092
g6994
a(lp7093
S'uh'
p7094
aaa(lp7095
g6994
a(lp7096
S'he'
p7097
aS'took'
p7098
ag3896
aS'uh'
p7099
aS'farmers'
p7100
aS'around'
p7101
aS'from'
p7102
aS'arou'
p7103
aS'different'
p7104
aS'parts'
p7105
aS'of'
p7106
aS'the'
p7107
aS'world'
p7108
aaa(lp7109
g6994
a(lp7110
S'so'
p7111
aS'that'
p7112
aS'they'
p7113
aS'can'
p7114
aS'look'
p7115
aS'at'
p7116
aS'farms'
p7117
aaa(lp7118
g6994
a(lp7119
S'So'
p7120
aS'his'
p7121
aS'travel'
p7122
ag69
aS'lot'
p7123
aS'of'
p7124
aS'times'
p7125
aS'was'
p7126
aS'in'
p7127
aS'Wisconsin'
p7128
aaa(lp7129
g6994
a(lp7130
S'because'
p7131
aS'of'
p7132
aS'the'
p7133
aS'farms'
p7134
aS'here'
p7135
aaa(lp7136
g6994
a(lp7137
S'They'
p7138
aS'would'
p7139
aS'see'
p7140
aS'how'
p7141
aS'things'
p7142
aS'were'
p7143
aS'done'
p7144
aS'and'
p7145
aaa(lp7146
g6994
a(lp7147
S'he'
p7148
aaa(lp7149
g6994
a(lp7150
S'He'
p7151
aS'like'
p7152
aS'took'
p7153
aS'them'
p7154
aS'around'
p7155
aS'the'
p7156
aS'world'
p7157
aaa(lp7158
g6994
a(lp7159
S'You'
p7160
aS'know'
p7161
aS'doing'
p7162
aS'this'
p7163
aaa(lp7164
g6994
a(lp7165
S'And'
p7166
aS'he'
p7167
aS'traveled'
p7168
aS'all'
p7169
aS'over'
p7170
aS'the'
p7171
aS'world'
p7172
aaa(lp7173
g6994
a(lp7174
S'See'
p7175
aaa(lp7176
g6994
a(lp7177
S'thats'
p7178
aS'why'
p7179
aaa(lp7180
g6994
a(lp7181
g23
aS'think'
p7182
aS'Darren'
p7183
aS'now'
p7184
aaa(lp7185
g6994
a(lp7186
S'is'
p7187
aS'getting'
p7188
aS'to'
p7189
aS'this'
p7190
aS'point'
p7191
aS'where'
p7192
aaa(lp7193
g6994
a(lp7194
S'hes'
p7195
aS'with'
p7196
aS'Lauren'
p7197
aS'all'
p7198
aS'the'
p7199
aS'time'
p7200
aaa(lp7201
g6994
a(lp7202
S'And'
p7203
aS'before'
p7204
aaa(lp7205
g6994
a(lp7206
S'Darren'
p7207
aS'traveled'
p7208
aS'like'
p7209
aS'ninety'
p7210
aS'percent'
p7211
aS'of'
p7212
aS'the'
p7213
aS'year'
p7214
aaa(lp7215
g6994
a(lp7216
S'He'
p7217
aS'was'
p7218
aS'gone'
p7219
aaa(lp7220
g6994
a(lp7221
g23
aS'mean'
p7222
aaa(lp7223
g6994
a(lp7224
S'Darren'
p7225
aS'was'
p7226
aS'gone'
p7227
aS'ninety'
p7228
aS'percent'
p7229
aS'of'
p7230
aS'the'
p7231
aS'year'
p7232
aaa(lp7233
g6994
a(lp7234
S'So'
p7235
aS'now'
p7236
aS'hes'
p7237
aS'with'
p7238
aS'Lauren'
p7239
aS'every'
p7240
aS'day'
p7241
aaa(lp7242
g6994
a(lp7243
S'and'
p7244
aS'its'
p7245
aS'been'
p7246
aS'this'
p7247
aS'way'
p7248
aS'for'
p7249
aS'the'
p7250
aS'last'
p7251
aS'three'
p7252
aS'or'
p7253
aS'four'
p7254
aS'months'
p7255
aaa(lp7256
g6994
a(lp7257
S'And'
p7258
ag23
aS'think'
p7259
ag6778
aaa(lp7260
S'CAMOh'
p7261
a(lp7262
S'thats'
p7263
aS'all'
p7264
aaa(lp7265
g7261
a(lp7266
S'For'
p7267
aS'the'
p7268
aS'last'
p7269
aS'three'
p7270
aS'or'
p7271
aS'four'
p7272
aS'months'
p7273
aaa(lp7274
g7261
a(lp7275
S'Oh'
p7276
aaa(lp7277
S'LAJUANHe'
p7278
a(lp7279
S'just'
p7280
aS'started'
p7281
aS'stop'
p7282
aaa(lp7283
g7278
a(lp7284
S'Theyve'
p7285
aS'been'
p7286
aS'married'
p7287
aS'six'
p7288
aS'years'
p7289
aaa(lp7290
g7278
a(lp7291
S'He'
p7292
aS'just'
p7293
aS'stopped'
p7294
aS'traveling'
p7295
aaa(lp7296
S'CAMOh'
p7297
a(lp7298
aa(lp7299
S'LAJUAN'
p7300
a(lp7301
S'And'
p7302
ag23
aS'think'
p7303
aS'now'
p7304
aS'its'
p7305
aS'just'
p7306
aS'like'
p7307
aaa(lp7308
g7300
a(lp7309
g23
aS'dont'
p7310
aS'know'
p7311
aS'if'
p7312
aS'this'
p7313
aS'is'
p7314
aS'for'
p7315
aS'me'
p7316
aaa(lp7317
g7300
a(lp7318
g23
aS'dont'
p7319
aS'know'
p7320
aS'if'
p7321
aS'this'
p7322
aS'is'
p7323
aS'right'
p7324
aaa(lp7325
g7300
a(lp7326
S'and'
p7327
aS'hes'
p7328
aS'starting'
p7329
aS'to'
p7330
aS'call'
p7331
aS'me'
p7332
aaa(lp7333
g7300
a(lp7334
S'And'
p7335
aS'hes'
p7336
aS'starting'
p7337
aS'to'
p7338
aS'tell'
p7339
aS'me'
p7340
aS'how'
p7341
aS'much'
p7342
aS'he'
p7343
aS'cares'
p7344
aS'for'
p7345
aS'me'
p7346
aaa(lp7347
g7300
a(lp7348
S'and'
p7349
aS'how'
p7350
aS'he'
p7351
aS'has'
p7352
aS'feelings'
p7353
aS'for'
p7354
aS'me'
p7355
aaa(lp7356
g7300
a(lp7357
S'and'
p7358
ag23
aaa(lp7359
g7300
a(lp7360
g23
aS'know'
p7361
aS'that'
p7362
aS'youre'
p7363
aS'with'
p7364
aS'Scott'
p7365
aaa(lp7366
g7300
a(lp7367
S'And'
p7368
aS'Im'
p7369
aS'just'
p7370
aS'like'
p7371
aaa(lp7372
g7300
a(lp7373
S'and'
p7374
aS'Im'
p7375
aS'not'
p7376
aS'giving'
p7377
aS'up'
p7378
aS'my'
p7379
aS'life'
p7380
aS'for'
p7381
aS'you'
p7382
aaa(lp7383
g7300
a(lp7384
S'He'
p7385
aS'asked'
p7386
aS'me'
p7387
aS'once'
p7388
aaa(lp7389
g7300
a(lp7390
S'right'
p7391
aS'out'
p7392
aS'of'
p7393
aS'college'
p7394
aaa(lp7395
g7300
a(lp7396
S'when'
p7397
aS'he'
p7398
aS'moved'
p7399
aS'to'
p7400
aS'Washington'
p7401
aS'DC'
p7402
aaa(lp7403
g7300
a(lp7404
S'when'
p7405
ag23
aS'came'
p7406
aS'back'
p7407
aaa(lp7408
g7300
a(lp7409
S'from'
p7410
aS'California'
p7411
aaa(lp7412
g7300
a(lp7413
S'and'
p7414
ag23
aS'was'
p7415
aS'here'
p7416
aaa(lp7417
g7300
a(lp7418
S'and'
p7419
ag23
aS'had'
p7420
aS'just'
p7421
aS'started'
p7422
aS'working'
p7423
aaa(lp7424
g7300
a(lp7425
S'he'
p7426
aS'asked'
p7427
aS'me'
p7428
aS'to'
p7429
aS'move'
p7430
aS'to'
p7431
aS'Madison'
p7432
aaa(lp7433
g7300
a(lp7434
S'To'
p7435
aS'be'
p7436
aS'with'
p7437
aS'him'
p7438
aaa(lp7439
g7300
a(lp7440
S'That'
p7441
aS'was'
p7442
aS'when'
p7443
aS'he'
p7444
aS'was'
p7445
aS'on'
p7446
aS'the'
p7447
aS'peak'
p7448
aS'of'
p7449
aS'thinking'
p7450
aS'maybe'
p7451
ag23
aS'am'
p7452
aS'gay'
p7453
aaa(lp7454
g7300
a(lp7455
S'And'
p7456
ag23
aS'said'
p7457
aaa(lp7458
g7300
a(lp7459
S'well'
p7460
aaa(lp7461
g7300
a(lp7462
S'why'
p7463
aS'dont'
p7464
ag23
aS'come'
p7465
aS'out'
p7466
aS'there'
p7467
aS'first'
p7468
aaa(lp7469
g7300
a(lp7470
S'and'
p7471
aS'well'
p7472
aS'see'
p7473
aaa(lp7474
g7300
a(lp7475
S'So'
p7476
ag23
aS'went'
p7477
aS'out'
p7478
aS'there'
p7479
aaa(lp7480
g7300
a(lp7481
S'and'
p7482
aS'he'
p7483
aS'goes'
p7484
aaa(lp7485
g7300
a(lp7486
S'well'
p7487
aS'yeah'
p7488
aS'you'
p7489
aS'can'
p7490
aS'move'
p7491
aS'out'
p7492
aS'here'
p7493
aS'and'
p7494
aS'get'
p7495
aS'your'
p7496
aS'own'
p7497
aS'apartment'
p7498
aaa(lp7499
g7300
a(lp7500
S'whereas'
p7501
aS'he'
p7502
aS'owned'
p7503
ag69
aS'threebedroom'
p7504
aS'house'
p7505
aaa(lp7506
g7300
a(lp7507
S'and'
p7508
aS'lived'
p7509
aS'by'
p7510
aS'himself'
p7511
aaa(lp7512
g7300
a(lp7513
S'and'
p7514
aS'Im'
p7515
aS'like'
p7516
aaa(lp7517
g7300
a(lp7518
S'okay'
p7519
aaa(lp7520
g7300
a(lp7521
S'can'
p7522
ag23
aS'afford'
p7523
aS'to'
p7524
aS'move'
p7525
aS'out'
p7526
aS'here'
p7527
aaa(lp7528
g7300
a(lp7529
S'get'
p7530
ag69
aS'apartment'
p7531
aaa(lp7532
g7300
a(lp7533
S'until'
p7534
ag23
aS'find'
p7535
aaa(lp7536
g7300
a(lp7537
S'He'
p7538
aS'never'
p7539
aS'said'
p7540
aS'move'
p7541
aS'in'
p7542
aS'here'
p7543
aS'with'
p7544
aS'me'
p7545
aS'until'
p7546
aS'you'
p7547
aS'find'
p7548
ag69
aS'place'
p7549
aS'or'
p7550
aS'whatever'
p7551
aaa(lp7552
g7300
a(lp7553
S'It'
p7554
aS'was'
p7555
aS'just'
p7556
aS'like'
p7557
aaa(lp7558
g7300
a(lp7559
S'and'
p7560
aS'then'
p7561
aS'he'
p7562
aS'wanted'
p7563
aS'the'
p7564
aS'still'
p7565
aS'straight'
p7566
aS'life'
p7567
aaa(lp7568
g7300
a(lp7569
S'and'
p7570
aS'this'
p7571
aS'and'
p7572
aS'that'
p7573
aS'and'
p7574
aS'other'
p7575
aaa(lp7576
g7300
a(lp7577
S'So'
p7578
aS'now'
p7579
aS'he'
p7580
aS'claims'
p7581
aS'bisexuality'
p7582
aaa(lp7583
g7300
a(lp7584
S'but'
p7585
aS'hes'
p7586
aS'moving'
p7587
aS'closer'
p7588
ag23
aS'think'
p7589
ag84
aS'to'
p7590
aS'steps'
p7591
aS'of'
p7592
aS'being'
p7593
ag84
aS'gay'
p7594
aaa(lp7595
g7300
a(lp7596
S'because'
p7597
aS'when'
p7598
aS'he'
p7599
aS'was'
p7600
aS'talking'
p7601
aS'to'
p7602
aS'me'
p7603
aS'on'
p7604
aS'the'
p7605
aS'phone'
p7606
aS'last'
p7607
aS'week'
p7608
aaa(lp7609
g7300
a(lp7610
S'he'
p7611
aS'was'
p7612
aS'telling'
p7613
aS'me'
p7614
aS'how'
p7615
aS'much'
p7616
aS'he'
p7617
aS'still'
p7618
aS'loved'
p7619
aS'me'
p7620
aaa(lp7621
g7300
a(lp7622
S'And'
p7623
aS'he'
p7624
aS'doesnt'
p7625
aS'know'
p7626
aS'what'
p7627
aS'to'
p7628
aS'do'
p7629
aS'about'
p7630
aS'this'
p7631
aS'whole'
p7632
aS'situation'
p7633
aaa(lp7634
S'CAMHow'
p7635
a(lp7636
S'could'
p7637
aS'he'
p7638
aS'really'
p7639
aS'love'
p7640
aS'you'
p7641
aS'though'
p7642
aaa(lp7643
g7635
a(lp7644
S'he'
p7645
aS'doesnt'
p7646
aS'know'
p7647
aS'you'
p7648
aS'that'
p7649
aS'much'
p7650
aaa(lp7651
S'LAJUAN'
p7652
a(lp7653
S'He'
p7654
aS'doesnt'
p7655
aS'know'
p7656
aS'me'
p7657
aaa(lp7658
g7652
a(lp7659
S'because'
p7660
aS'in'
p7661
aS'the'
p7662
aS'last'
p7663
aS'ten'
p7664
aS'years'
p7665
aaa(lp7666
g7652
a(lp7667
S'we'
p7668
aS'talked'
p7669
aS'to'
p7670
aS'each'
p7671
aS'other'
p7672
aS'maybe'
p7673
aS'once'
p7674
ag69
aS'month'
p7675
aaa(lp7676
S'CAM'
p7677
a(lp7678
S'Well'
p7679
aS'thats'
p7680
aS'quite'
p7681
ag69
aS'bit'
p7682
aS'though'
p7683
aaa(lp7684
S'LAJUANAnd'
p7685
a(lp7686
S'actually'
p7687
aS'maybe'
p7688
aS'not'
p7689
aS'even'
p7690
aS'that'
p7691
aaa(lp7692
g7685
a(lp7693
S'Sometimes'
p7694
aS'its'
p7695
aS'every'
p7696
aS'other'
p7697
aS'month'
p7698
aaa(lp7699
g7685
a(lp7700
S'When'
p7701
aS'he'
p7702
aS'was'
p7703
aS'traveling'
p7704
aS'around'
p7705
aS'the'
p7706
aS'world'
p7707
aaa(lp7708
g7685
a(lp7709
S'like'
p7710
aS'he'
p7711
aS'went'
p7712
aS'to'
p7713
aS'Germany'
p7714
aS'for'
p7715
aS'six'
p7716
aS'weeks'
p7717
aaa(lp7718
g7685
a(lp7719
S'And'
p7720
aS'he'
p7721
aS'sent'
p7722
aS'me'
p7723
aS'his'
p7724
aS'frequent'
p7725
aS'flyer'
p7726
aS'ticket'
p7727
aaa(lp7728
g7685
a(lp7729
S'Cause'
p7730
aS'he'
p7731
aS'was'
p7732
aS'there'
p7733
aaa(lp7734
g7685
a(lp7735
S'training'
p7736
aS'to'
p7737
ag5599
aS'speak'
p7738
aaa(lp7739
g7685
a(lp7740
S'learning'
p7741
aS'to'
p7742
aS'speak'
p7743
aS'German'
p7744
aS'in'
p7745
ag69
aS'sixweek'
p7746
aS'course'
p7747
aaa(lp7748
g7685
a(lp7749
S'And'
p7750
aS'he'
p7751
aS'sent'
p7752
aS'me'
p7753
aaa(lp7754
S'CAM'
p7755
a(lp7756
aa(lp7757
S'LAJUAN'
p7758
a(lp7759
g69
aS'free'
p7760
ag6778
aS'to'
p7761
aS'to'
p7762
aS'come'
p7763
aS'and'
p7764
aS'spend'
p7765
ag69
aS'week'
p7766
aS'with'
p7767
aS'him'
p7768
aaa(lp7769
g7758
a(lp7770
S'and'
p7771
ag23
aS'said'
p7772
aS'no'
p7773
aaa(lp7774
g7758
a(lp7775
S'But'
p7776
aS'at'
p7777
aS'that'
p7778
aS'time'
p7779
aaa(lp7780
g7758
a(lp7781
g23
aS'would'
p7782
aS'been'
p7783
aS'with'
p7784
aS'Scott'
p7785
aS'like'
p7786
aS'four'
p7787
aS'years'
p7788
aaa(lp7789
g7758
a(lp7790
S'and'
p7791
ag23
aS'was'
p7792
aS'just'
p7793
aS'like'
p7794
aaa(lp7795
g7758
a(lp7796
g23
aS'dont'
p7797
aS'think'
p7798
aS'so'
p7799
aaa(lp7800
g7758
a(lp7801
S'Youre'
p7802
aS'not'
p7803
aS'gonna'
p7804
aS'use'
p7805
aS'me'
p7806
aaa(lp7807
g7758
a(lp7808
S'for'
p7809
aS'your'
p7810
aS'little'
p7811
aS'sex'
p7812
aS'thing'
p7813
aS'for'
p7814
aS'that'
p7815
aS'week'
p7816
aaa(lp7817
g7758
a(lp7818
S'and'
p7819
aS'then'
p7820
aS'thats'
p7821
aS'it'
p7822
aaa(lp7823
g7758
a(lp7824
S'so'
p7825
aaa(lp7826
g7758
a(lp7827
g23
aS'mean'
p7828
aaa(lp7829
g7758
a(lp7830
g23
aS'st'
p7831
ag23
aS'love'
p7832
aS'him'
p7833
aaa(lp7834
g7758
a(lp7835
g23
aS'really'
p7836
aS'do'
p7837
aS'but'
p7838
aaa(lp7839
S'CAMP'
p7840
a(lp7841
S'Hm'
p7842
ag2396
aaa(lp7843
S'LAJUANI'
p7844
a(lp7845
S'dont'
p7846
aaa(lp7847
g7844
a(lp7848
g23
aS'also'
p7849
aS'dont'
p7850
aS'trust'
p7851
aS'him'
p7852
aaa(lp7853
g7844
a(lp7854
g23
aS'dont'
p7855
aS'think'
p7856
aS'any'
p7857
aS'man'
p7858
aaa(lp7859
g7844
a(lp7860
S'who'
p7861
aS'is'
p7862
aS'as'
p7863
aS'sexual'
p7864
aS'as'
p7865
aS'he'
p7866
ag1928
aS'is'
p7867
aaa(lp7868
g7844
a(lp7869
S'and'
p7870
aS'traveled'
p7871
aS'as'
p7872
aS'much'
p7873
aS'as'
p7874
aS'he'
p7875
aS'did'
p7876
aaa(lp7877
g7844
a(lp7878
S'could'
p7879
aS'stay'
p7880
aaa(lp7881
g7844
a(lp7882
S'celibate'
p7883
aaa(lp7884
g7844
a(lp7885
S'or'
p7886
aS'or'
p7887
aS'stay'
p7888
ag5599
ag5599
aS'committed'
p7889
aS'to'
p7890
aS'his'
p7891
aS'wife'
p7892
aaa(lp7893
S'CAM'
p7894
a(lp7895
S'Right'
p7896
aaa(lp7897
S'LAJUAN'
p7898
a(lp7899
g23
aS'mean'
p7900
aS'when'
p7901
aS'y'
p7902
ag23
aS'saw'
p7903
aS'him'
p7904
aS'once'
p7905
aS'in'
p7906
aS'Chicago'
p7907
aaa(lp7908
g7898
a(lp7909
g23
aS'went'
p7910
aS'to'
p7911
aS'Chicago'
p7912
aaa(lp7913
g7898
a(lp7914
S'About'
p7915
aS'four'
p7916
aS'years'
p7917
aS'ago'
p7918
aaa(lp7919
g7898
a(lp7920
S'Five'
p7921
aS'years'
p7922
aS'ago'
p7923
aaa(lp7924
g7898
a(lp7925
S'And'
p7926
aS'he'
p7927
aS'was'
p7928
aS'in'
p7929
aS'Chicago'
p7930
aaa(lp7931
g7898
a(lp7932
S'in'
p7933
aS'this'
p7934
aS'VOX'
p7935
aS'really'
p7936
aS'nice'
p7937
aS'VOX'
p7938
aS'hotel'
p7939
aaa(lp7940
g7898
a(lp7941
S'and'
p7942
aS'he'
p7943
aS'said'
p7944
aaa(lp7945
g7898
a(lp7946
S'why'
p7947
aS'dont'
p7948
aS'you'
p7949
aS'come'
p7950
aS'and'
p7951
aaa(lp7952
g7898
a(lp7953
S'you'
p7954
aS'know'
p7955
aaa(lp7956
g7898
a(lp7957
S'Im'
p7958
aS'free'
p7959
aS'Saturday'
p7960
aaa(lp7961
g7898
a(lp7962
S'and'
p7963
aS'Sunday'
p7964
aaa(lp7965
g7898
a(lp7966
S'Why'
p7967
aS'dont'
p7968
aS'you'
p7969
aS'come'
p7970
aaa(lp7971
g7898
a(lp7972
S'And'
p7973
ag23
aS'said'
p7974
aS'fine'
p7975
aaa(lp7976
g7898
a(lp7977
S'So'
p7978
ag23
aS'took'
p7979
aS'the'
p7980
aS'train'
p7981
aS'to'
p7982
aS'Chicago'
p7983
aS'on'
p7984
aS'Saturday'
p7985
aaa(lp7986
g7898
a(lp7987
S'and'
p7988
ag23
aS'thought'
p7989
aS'okay'
p7990
aS'no'
p7991
aS'big'
p7992
aS'deal'
p7993
aaa(lp7994
g7898
a(lp7995
S'hell'
p7996
aS'have'
p7997
ag69
aS'room'
p7998
aS'with'
p7999
aS'two'
p8000
aS'double'
p8001
aS'beds'
p8002
aaa(lp8003
g7898
a(lp8004
S'No'
p8005
aS'it'
p8006
aS'was'
p8007
ag69
aS'kingsize'
p8008
aS'bed'
p8009
aaa(lp8010
g7898
a(lp8011
S'So'
p8012
ag23
aS'thought'
p8013
aaa(lp8014
g7898
a(lp8015
S'okay'
p8016
aaa(lp8017
g7898
a(lp8018
S'no'
p8019
aS'big'
p8020
aS'deal'
p8021
aaa(lp8022
g7898
a(lp8023
g23
aS'took'
p8024
ag69
aS'sleeping'
p8025
aS'bag'
p8026
aaa(lp8027
g7898
a(lp8028
S'just'
p8029
aS'in'
p8030
aS'case'
p8031
aaa(lp8032
g7898
a(lp8033
S'So'
p8034
aaa(lp8035
g7898
a(lp8036
S'here'
p8037
ag23
aS'am'
p8038
aaa(lp8039
g7898
a(lp8040
S'taking'
p8041
aS'my'
p8042
aS'sleeping'
p8043
aS'bag'
p8044
aaa(lp8045
g7898
a(lp8046
g23
aS'roll'
p8047
aS'it'
p8048
aS'out'
p8049
aS'on'
p8050
aS'the'
p8051
aS'floor'
p8052
aaa(lp8053
g7898
a(lp8054
S'and'
p8055
aS'he'
p8056
aS'goes'
p8057
aaa(lp8058
g7898
a(lp8059
S'well'
p8060
aS'you'
p8061
aS'dont'
p8062
aS'have'
p8063
aS'to'
p8064
aS'worry'
p8065
aaa(lp8066
g7898
a(lp8067
S'you'
p8068
aS'can'
p8069
aS'share'
p8070
aS'this'
p8071
aS'bed'
p8072
aS'with'
p8073
aS'me'
p8074
aaa(lp8075
g7898
a(lp8076
g23
aS'love'
p8077
aS'Lauren'
p8078
aaa(lp8079
g7898
a(lp8080
S'and'
p8081
aaa(lp8082
g7898
a(lp8083
S'No'
p8084
ag23
aS'take'
p8085
aS'that'
p8086
aS'back'
p8087
aaa(lp8088
g7898
a(lp8089
S'It'
p8090
aS'was'
p8091
aS'more'
p8092
aS'than'
p8093
aS'five'
p8094
aS'years'
p8095
aS'ago'
p8096
aaa(lp8097
g7898
a(lp8098
S'because'
p8099
aS'hes'
p8100
aS'been'
p8101
aS'married'
p8102
aS'to'
p8103
aS'Lauren'
p8104
aS'for'
p8105
aS'six'
p8106
aS'years'
p8107
aS'this'
p8108
aS'coming'
p8109
aS'May'
p8110
aaa(lp8111
g7898
a(lp8112
S'no'
p8113
aaa(lp8114
g7898
a(lp8115
S'Seven'
p8116
aS'years'
p8117
aS'this'
p8118
aS'coming'
p8119
aS'May'
p8120
aaa(lp8121
g7898
a(lp8122
S'So'
p8123
aS'it'
p8124
aS'was'
p8125
aS'more'
p8126
aS'than'
p8127
aS'six'
p8128
aS'years'
p8129
aS'ago'
p8130
aS'because'
p8131
aaa(lp8132
g7898
a(lp8133
S'it'
p8134
aS'was'
p8135
aS'when'
p8136
aS'he'
p8137
aS'asked'
p8138
aS'Lauren'
p8139
aS'to'
p8140
aS'marry'
p8141
aS'him'
p8142
aaa(lp8143
g7898
a(lp8144
S'it'
p8145
aS'was'
p8146
aS'right'
p8147
aS'around'
p8148
aS'Christmas'
p8149
aS'time'
p8150
aaa(lp8151
g7898
a(lp8152
S'So'
p8153
aS'its'
p8154
aS'been'
p8155
aS'about'
p8156
aS'six'
p8157
aS'and'
p8158
ag69
aS'half'
p8159
aS'years'
p8160
aS'so'
p8161
aaa(lp8162
g7898
a(lp8163
S'he'
p8164
aS'asked'
p8165
aS'Lauren'
p8166
aS'to'
p8167
aS'marry'
p8168
aS'him'
p8169
aaa(lp8170
g7898
a(lp8171
S'and'
p8172
aS'he'
p8173
aS'says'
p8174
ag23
aS'really'
p8175
aS'love'
p8176
aS'Lauren'
p8177
aaa(lp8178
g7898
a(lp8179
g84
aS'Im'
p8180
aS'gonna'
p8181
aS'marry'
p8182
aS'her'
p8183
aaa(lp8184
g7898
a(lp8185
S'and'
p8186
aS'blah'
p8187
aS'blah'
p8188
aS'blah'
p8189
aS'this'
p8190
aaa(lp8191
g7898
a(lp8192
S'So'
p8193
ag23
aS'get'
p8194
aS'in'
p8195
aS'the'
p8196
aS'bed'
p8197
aaa(lp8198
g7898
a(lp8199
g23
aS'thought'
p8200
aS'fine'
p8201
aaa(lp8202
g7898
a(lp8203
S'no'
p8204
aS'big'
p8205
aS'deal'
p8206
aaa(lp8207
g7898
a(lp8208
S'Im'
p8209
aS'wearing'
p8210
aS'my'
p8211
aS'tshirt'
p8212
aS'and'
p8213
aS'my'
p8214
aS'underwear'
p8215
aaa(lp8216
g7898
a(lp8217
S'so'
p8218
ag23
aS'get'
p8219
aS'in'
p8220
aS'the'
p8221
aS'bed'
p8222
aaa(lp8223
g7898
a(lp8224
S'and'
p8225
aS'in'
p8226
aS'the'
p8227
aS'morning'
p8228
ag23
aS'wake'
p8229
aS'up'
p8230
aaa(lp8231
g7898
a(lp8232
S'and'
p8233
aS'here'
p8234
aS'he'
p8235
aS'is'
p8236
aaa(lp8237
g7898
a(lp8238
S'fondling'
p8239
aS'me'
p8240
aaa(lp8241
g7898
a(lp8242
S'So'
p8243
aS'Im'
p8244
aS'like'
p8245
aaa(lp8246
g7898
a(lp8247
S'okay'
p8248
aaa(lp8249
g7898
a(lp8250
S'so'
p8251
aaa(lp8252
g7898
a(lp8253
S'do'
p8254
aS'you'
p8255
aS'leave'
p8256
aaa(lp8257
g7898
a(lp8258
S'or'
p8259
aS'what'
p8260
aS'do'
p8261
aS'you'
p8262
aS'do'
p8263
aaa(lp8264
g7898
a(lp8265
S'You'
p8266
aS'know'
p8267
aaa(lp8268
g7898
a(lp8269
S'so'
p8270
aaa(lp8271
g7898
a(lp8272
S'Im'
p8273
aS'like'
p8274
aS'Darren'
p8275
aaa(lp8276
g7898
a(lp8277
S'he'
p8278
aS'goes'
p8279
aaa(lp8280
g7898
a(lp8281
S'just'
p8282
aS'dont'
p8283
aS'say'
p8284
aS'anything'
p8285
aaa(lp8286
g7898
a(lp8287
S'And'
p8288
ag23
aS'said'
p8289
aS'Darren'
p8290
aaa(lp8291
g7898
a(lp8292
S'this'
p8293
aS'isnt'
p8294
aS'right'
p8295
aaa(lp8296
g7898
a(lp8297
S'you'
p8298
aS'dont'
p8299
aS'really'
p8300
aS'want'
p8301
aS'to'
p8302
aS'be'
p8303
aS'with'
p8304
aS'me'
p8305
aaa(lp8306
g7898
a(lp8307
S'you'
p8308
aS'just'
p8309
aS'want'
p8310
aS'the'
p8311
aS'sexual'
p8312
aS'part'
p8313
aaa(lp8314
g7898
a(lp8315
S'And'
p8316
ag23
aS'said'
p8317
aS'thats'
p8318
aS'all'
p8319
aS'there'
p8320
aS'is'
p8321
aS'to'
p8322
aS'it'
p8323
aaa(lp8324
g7898
a(lp8325
S'and'
p8326
ag23
aS'just'
p8327
aS'cant'
p8328
aS'do'
p8329
aS'this'
p8330
aaa(lp8331
g7898
a(lp8332
S'And'
p8333
aS'he'
p8334
aS'accepted'
p8335
aS'it'
p8336
aaa(lp8337
g7898
a(lp8338
S'and'
p8339
ag23
ag23
aS'dont'
p8340
aS'know'
p8341
aaa(lp8342
g7898
a(lp8343
S'He'
p8344
aS'always'
p8345
aaa(lp8346
g7898
a(lp8347
S'and'
p8348
aS'hell'
p8349
aS'always'
p8350
aS'ask'
p8351
aS'me'
p8352
aaa(lp8353
g7898
a(lp8354
S'well'
p8355
aS'hows'
p8356
aS'Scott'
p8357
aaa(lp8358
g7898
a(lp8359
S'how'
p8360
aS'is'
p8361
aS'your'
p8362
aS'sex'
p8363
aS'life'
p8364
aS'with'
p8365
aS'Scott'
p8366
aaa(lp8367
g7898
a(lp8368
S'Are'
p8369
aS'you'
p8370
aS'happy'
p8371
aS'with'
p8372
aS'Scott'
p8373
aaa(lp8374
g7898
a(lp8375
S'you'
p8376
aS'know'
p8377
aaa(lp8378
g7898
a(lp8379
S'do'
p8380
aS'you'
p8381
aS'still'
p8382
aS'miss'
p8383
aS'me'
p8384
aaa(lp8385
g7898
a(lp8386
S'And'
p8387
aS'Im'
p8388
aS'like'
p8389
aaa(lp8390
g7898
a(lp8391
S'well'
p8392
aS'Darren'
p8393
ag23
aS'havent'
p8394
aS'told'
p8395
aS'you'
p8396
ag23
aS'missed'
p8397
aS'you'
p8398
aS'in'
p8399
aS'years'
p8400
aaa(lp8401
g7898
a(lp8402
S'What'
p8403
aS'are'
p8404
aS'you'
p8405
aS'talking'
p8406
aS'about'
p8407
aaa(lp8408
S'CAM'
p8409
a(lp8410
aa(lp8411
S'LAJUANYou'
p8412
a(lp8413
S'know'
p8414
aaa(lp8415
g8412
a(lp8416
S'its'
p8417
aS'like'
p8418
aaa(lp8419
g8412
a(lp8420
g6778
aS'excuse'
p8421
aS'me'
p8422
aaa(lp8423
S'CAM'
p8424
a(lp8425
S'Is'
p8426
aS'he'
p8427
aS'like'
p8428
aS'full'
p8429
aS'of'
p8430
aS'himself'
p8431
aS'or'
p8432
aS'what'
p8433
aaa(lp8434
S'LAJUAN'
p8435
a(lp8436
S'And'
p8437
aS'hes'
p8438
aS'another'
p8439
aS'one'
p8440
aS'too'
p8441
aaa(lp8442
S'CAM'
p8443
a(lp8444
aa(lp8445
S'LAJUANHe'
p8446
a(lp8447
S'knows'
p8448
aS'hes'
p8449
aS'goodlooking'
p8450
aaa(lp8451
g8446
a(lp8452
S'He'
p8453
aS'hes'
p8454
aS'another'
p8455
aS'one'
p8456
aaa(lp8457
g8446
a(lp8458
S'When'
p8459
aS'we'
p8460
aS'were'
p8461
aS'were'
p8462
aS'in'
p8463
aS'college'
p8464
aaa(lp8465
g8446
a(lp8466
S'he'
p8467
aS'knew'
p8468
aS'it'
p8469
aaa(lp8470
S'CAM'
p8471
a(lp8472
S'Mm'
p8473
aaa(lp8474
S'LAJUAN'
p8475
a(lp8476
S'And'
p8477
aS'and'
p8478
aS'what'
p8479
aS'really'
p8480
aS'gets'
p8481
aS'me'
p8482
aS'is'
p8483
aS'th'
p8484
aS'that'
p8485
aaa(lp8486
g8475
a(lp8487
g23
aS'think'
p8488
aaa(lp8489
g8475
a(lp8490
S'the'
p8491
aS'reason'
p8492
ag23
aS'always'
p8493
aS'attracted'
p8494
aaa(lp8495
g8475
a(lp8496
S'like'
p8497
ag23
aS'attracted'
p8498
ag69
aS'lot'
p8499
aS'of'
p8500
aS'football'
p8501
aS'players'
p8502
aaa(lp8503
g8475
a(lp8504
S'is'
p8505
aS'people'
p8506
aS'always'
p8507
aS'got'
p8508
aS'the'
p8509
aS'impression'
p8510
ag23
aS'was'
p8511
aS'gay'
p8512
aaa(lp8513
g8475
a(lp8514
S'So'
p8515
aaa(lp8516
g8475
a(lp8517
S'if'
p8518
aS'they'
p8519
aS'knew'
p8520
aS'you'
p8521
aS'were'
p8522
aS'gay'
p8523
aaa(lp8524
g8475
a(lp8525
S'and'
p8526
aS'they'
p8527
aS'wanted'
p8528
aS'some'
p8529
aS'experience'
p8530
aaa(lp8531
g8475
a(lp8532
S'and'
p8533
aS'they'
p8534
aS'they'
p8535
aS'didnt'
p8536
aS'want'
p8537
aS'to'
p8538
aS'approach'
p8539
aS'another'
p8540
aS'say'
p8541
aS'man'
p8542
aS'in'
p8543
aS'your'
p8544
aS'frat'
p8545
aaa(lp8546
g8475
a(lp8547
S'And'
p8548
aS'they'
p8549
aS'kinda'
p8550
aS'thought'
p8551
aS'you'
p8552
aS'were'
p8553
aS'gay'
p8554
aaa(lp8555
g8475
a(lp8556
S'and'
p8557
aS'nobody'
p8558
aS'really'
p8559
aS'wanted'
p8560
aS'to'
p8561
aS'like'
p8562
aS'say'
p8563
aS'it'
p8564
aaa(lp8565
g8475
a(lp8566
S'they'
p8567
aS'would'
p8568
aS'approach'
p8569
aS'me'
p8570
aaa(lp8571
S'CAM'
p8572
a(lp8573
S'Mm'
p8574
aaa(lp8575
S'LAJUAN'
p8576
a(lp8577
S'So'
p8578
ag23
aS'always'
p8579
aS'got'
p8580
aS'all'
p8581
aS'the'
p8582
aS'goodlooking'
p8583
aS'ones'
p8584
aS'to'
p8585
aS'always'
p8586
aS'like'
p8587
aaa(lp8588
g8576
a(lp8589
S'come'
p8590
aS'after'
p8591
aS'me'
p8592
aaa(lp8593
S'CAM'
p8594
a(lp8595
g2396
aS'Mm'
p8596
ag2396
aaa(lp8597
S'LAJUANAnd'
p8598
a(lp8599
S'thats'
p8600
aS'how'
p8601
ag23
aS'ended'
p8602
aS'up'
p8603
aS'with'
p8604
aS'Ron'
p8605
aaa(lp8606
g8598
a(lp8607
S'and'
p8608
aS'how'
p8609
ag23
aS'ended'
p8610
aS'up'
p8611
aS'with'
p8612
aS'Darren'
p8613
aaa(lp8614
g8598
a(lp8615
S'And'
p8616
ag23
aS'and'
p8617
ag23
aS'realize'
p8618
aS'that'
p8619
aaa(lp8620
g8598
a(lp8621
S'you'
p8622
aS'know'
p8623
ag23
aS'always'
p8624
aS'think'
p8625
aS'well'
p8626
aaa(lp8627
g8598
a(lp8628
S'especially'
p8629
aS'Ron'
p8630
aaa(lp8631
g8598
a(lp8632
g23
aS'mean'
p8633
aS'he'
p8634
aS'was'
p8635
aS'just'
p8636
aS'like'
p8637
aaa(lp8638
g8598
a(lp8639
S'oh'
p8640
aaa(lp8641
g8598
a(lp8642
S'just'
p8643
aS'perfect'
p8644
aaa(lp8645
g8598
a(lp8646
S'Well'
p8647
aS'Darren'
p8648
aS'was'
p8649
aS'too'
p8650
aS'but'
p8651
aaa(lp8652
g8598
a(lp8653
S'Darren'
p8654
aaa(lp8655
g8598
a(lp8656
g69
aS'lot'
p8657
aS'of'
p8658
aS'people'
p8659
aS'dont'
p8660
aS'like'
p8661
aS'auburn'
p8662
aS'hair'
p8663
aS'or'
p8664
aS'reddish'
p8665
aS'brown'
p8666
aS'hair'
p8667
aaa(lp8668
g8598
a(lp8669
S'They'
p8670
aS'dont'
p8671
aS'ca'
p8672
aS'care'
p8673
aS'for'
p8674
aS'it'
p8675
aaa(lp8676
g8598
a(lp8677
S'But'
p8678
aS'Ron'
p8679
aS'just'
p8680
aS'is'
p8681
aS'just'
p8682
ag69
aaa(lp8683
g8598
a(lp8684
S'just'
p8685
ag69
aS'beautiful'
p8686
aS'man'
p8687
aaa(lp8688
g8598
a(lp8689
S'They'
p8690
aS'both'
p8691
aS'were'
p8692
aS'but'
p8693
aaa(lp8694
g8598
a(lp8695
g23
aS'find'
p8696
aS'that'
p8697
aS'thats'
p8698
aS'what'
p8699
aS'happens'
p8700
aS'in'
p8701
aS'these'
p8702
aS'fraternities'
p8703
aaa(lp8704
g8598
a(lp8705
S'Is'
p8706
aS'you'
p8707
aS'find'
p8708
ag69
aS'man'
p8709
aS'who'
p8710
aS'is'
p8711
aS'curious'
p8712
aS'about'
p8713
aS'his'
p8714
aS'sexuality'
p8715
aaa(lp8716
g8598
a(lp8717
S'And'
p8718
aS'if'
p8719
aS'they'
p8720
aS'find'
p8721
aS'someone'
p8722
aS'who'
p8723
aS'they'
p8724
aS'question'
p8725
aaa(lp8726
g8598
a(lp8727
S'okay'
p8728
aaa(lp8729
g8598
a(lp8730
S'is'
p8731
aS'he'
p8732
aS'gay'
p8733
aS'or'
p8734
aS'isnt'
p8735
aS'he'
p8736
aS'gay'
p8737
aaa(lp8738
g8598
a(lp8739
S'then'
p8740
aS'they'
p8741
aS'will'
p8742
aS'tend'
p8743
aS'to'
p8744
aS'go'
p8745
aS'after'
p8746
aS'you'
p8747
ag69
aS'little'
p8748
aS'bit'
p8749
aS'faster'
p8750
aaa(lp8751
g8598
a(lp8752
S'So'
p8753
aS'then'
p8754
aS'you'
p8755
aS'think'
p8756
aaa(lp8757
g8598
a(lp8758
S'okay'
p8759
aS'youve'
p8760
aS'seen'
p8761
aS'some'
p8762
aS'of'
p8763
aS'these'
p8764
aS'guys'
p8765
aS'in'
p8766
aS'the'
p8767
aS'bars'
p8768
aS'and'
p8769
aS'you'
p8770
aS'think'
p8771
aaa(lp8772
g8598
a(lp8773
S'like'
p8774
ag23
aS'was'
p8775
aS'out'
p8776
aS'at'
p8777
aS'the'
p8778
aS'Triangle'
p8779
aaa(lp8780
g8598
a(lp8781
S'and'
p8782
ag23
aS'saw'
p8783
aS'this'
p8784
aS'guy'
p8785
aaa(lp8786
g8598
a(lp8787
S'he'
p8788
aS'was'
p8789
aS'so'
p8790
aS'goodlooking'
p8791
aaa(lp8792
g8598
a(lp8793
S'Im'
p8794
aS'like'
p8795
aaa(lp8796
S'CAM'
p8797
a(lp8798
aa(lp8799
S'LAJUAN'
p8800
a(lp8801
S'how'
p8802
aS'the'
p8803
aS'hell'
p8804
aS'did'
p8805
aS'he'
p8806
aS'end'
p8807
aS'up'
p8808
aS'with'
p8809
aS'that'
p8810
aS'VOX'
p8811
aS'thing'
p8812
aS'VOX'
p8813
aaa(lp8814
g8800
a(lp8815
S'And'
p8816
aS'then'
p8817
ag23
aS'thought'
p8818
aS'you'
p8819
aS'know'
p8820
aaa(lp8821
g8800
a(lp8822
g23
aS'betcha'
p8823
aS'hes'
p8824
aS'just'
p8825
aS'out'
p8826
aaa(lp8827
g8800
a(lp8828
S'And'
p8829
aS'he'
p8830
aS'was'
p8831
aS'from'
p8832
aS'Marquette'
p8833
aaa(lp8834
g8800
a(lp8835
S'and'
p8836
aS'he'
p8837
aS'was'
p8838
aS'just'
p8839
aS'finding'
p8840
aS'out'
p8841
aaa(lp8842
g8800
a(lp8843
S'and'
p8844
aS'he'
p8845
aS'met'
p8846
aS'this'
p8847
aS'guy'
p8848
aaa(lp8849
g8800
a(lp8850
S'and'
p8851
aS'thats'
p8852
aS'why'
p8853
aS'he'
p8854
aS'was'
p8855
aS'out'
p8856
aS'with'
p8857
aS'him'
p8858
aaa(lp8859
S'CAMOh'
p8860
a(lp8861
aa(lp8862
S'LAJUANYou'
p8863
a(lp8864
S'know'
p8865
aaa(lp8866
g8863
a(lp8867
g23
aS'mean'
p8868
aaa(lp8869
S'CAMWhen'
p8870
a(lp8871
S'was'
p8872
aS'this'
p8873
aaa(lp8874
S'LAJUANit'
p8875
a(lp8876
aa(lp8877
g8875
a(lp8878
S'This'
p8879
aS'was'
p8880
aS'probab'
p8881
aaa(lp8882
g8875
a(lp8883
S'This'
p8884
aS'was'
p8885
ag69
aS'while'
p8886
aS'back'
p8887
aaa(lp8888
g8875
a(lp8889
S'This'
p8890
aS'was'
p8891
aaa(lp8892
S'CAMThey'
p8893
a(lp8894
S'young'
p8895
aaa(lp8896
S'LAJUAN'
p8897
a(lp8898
S'Yeah'
p8899
aaa(lp8900
g8897
a(lp8901
S'Well'
p8902
aS'the'
p8903
ag1928
aaa(lp8904
S'CAMOh'
p8905
a(lp8906
aa(lp8907
S'LAJUAN'
p8908
a(lp8909
S'They'
p8910
aS'were'
p8911
aS'young'
p8912
aaa(lp8913
g8908
a(lp8914
S'The'
p8915
aS'one'
p8916
aS'guy'
p8917
aS'in'
p8918
aS'particular'
p8919
aS'was'
p8920
aS'young'
p8921
aaa(lp8922
g8908
a(lp8923
S'The'
p8924
aS'guy'
p8925
aS'that'
p8926
aS'was'
p8927
aS'from'
p8928
aS'Marquette'
p8929
aaa(lp8930
S'CAM'
p8931
a(lp8932
S'Mm'
p8933
aaa(lp8934
S'LAJUANWas'
p8935
a(lp8936
S'probably'
p8937
aaa(lp8938
g8935
a(lp8939
g23
ag3896
aaa(lp8940
g8935
a(lp8941
g23
aS'wouldnt'
p8942
aS'think'
p8943
aS'he'
p8944
aS'would'
p8945
aS'be'
p8946
aS'more'
p8947
aS'than'
p8948
aS'twenty'
p8949
aaa(lp8950
g8935
a(lp8951
S'twentyone'
p8952
aaa(lp8953
g8935
a(lp8954
g23
aS'couldnt'
p8955
aaa(lp8956
g8935
a(lp8957
S'But'
p8958
aS'he'
p8959
aS'shouldnt'
p8960
aS'have'
p8961
aS'been'
p8962
aS'in'
p8963
aS'the'
p8964
aS'Triangle'
p8965
aS'if'
p8966
aS'you'
p8967
aS'want'
p8968
aS'to'
p8969
aS'know'
p8970
aS'the'
p8971
aS'truth'
p8972
aaa(lp8973
g8935
a(lp8974
S'So'
p8975
aaa(lp8976
g8935
a(lp8977
S'but'
p8978
aaa(lp8979
g8935
a(lp8980
S'um'
p8981
aaa(lp8982
g8935
a(lp8983
S'no'
p8984
aaa(lp8985
g8935
a(lp8986
S'he'
p8987
aS'was'
p8988
aS'just'
p8989
aS'very'
p8990
aS'nice'
p8991
aaa.