(lp0
(lp1
S'MARCIAThey'
p2
a(lp3
S'might'
p4
aS'not'
p5
aS'actually'
p6
aS'be'
p7
aaa(lp8
g2
a(lp9
S'be'
p10
aS'um'
p11
aaa(lp12
g2
a(lp13
S'back'
p14
aS'in'
p15
aS'the'
p16
aS'barn'
p17
aaa(lp18
g2
a(lp19
S'X'
p20
aS'or'
p21
aS'from'
p22
ag20
aS'the'
p23
aS'barn'
p24
aS'yet'
p25
aaa(lp26
S'LINDSEY'
p27
a(lp28
S'Good'
p29
aS'morning'
p30
aaa(lp31
g27
a(lp32
S'this'
p33
aS'is'
p34
aS'Doctor'
p35
aS'Naretto'
p36
aS'at'
p37
aS'the'
p38
aS'Kingman'
p39
aS'Vet'
p40
aS'Service'
p41
aaa(lp42
S'KRISTEN'
p43
a(lp44
g20
ag20
ag20
ag20
ag20
ag20
ag20
aaa(lp45
S'LINDSEYI'
p46
a(lp47
S'saw'
p48
aS'Tad'
p49
aS'this'
p50
aS'morning'
p51
aaa(lp52
S'MARCIA'
p53
a(lp54
S'yeah'
p55
aaa(lp56
S'LINDSEY'
p57
a(lp58
S'Um'
p59
aaa(lp60
g57
a(lp61
S'Hes'
p62
aS'looking'
p63
aS'not'
p64
aS'too'
p65
aS'bad'
p66
aaa(lp67
g57
a(lp68
S'Um'
p69
aaa(lp70
g57
a(lp71
S'A'
p72
aS'little'
p73
aS'bit'
p74
aS'of'
p75
aS'pain'
p76
aS'in'
p77
aS'his'
p78
aS'abdomen'
p79
aaa(lp80
g57
a(lp81
S'Its'
p82
aS'hard'
p83
aS'to'
p84
aS'know'
p85
aS'if'
p86
aS'he'
p87
aS'just'
p88
aS'has'
p89
aaa(lp90
g57
a(lp91
S'a'
p92
aS'gastritis'
p93
aaa(lp94
g57
a(lp95
S'or'
p96
aS'gastroenteritis'
p97
aaa(lp98
g57
a(lp99
S'from'
p100
aS'chewing'
p101
aS'on'
p102
aS'that'
p103
aS'dead'
p104
aS'pigeon'
p105
aaa(lp106
g57
a(lp107
S'or'
p108
aS'what'
p109
aS'the'
p110
aS'problem'
p111
aS'is'
p112
aaa(lp113
g57
a(lp114
S'Um'
p115
aaa(lp116
g57
a(lp117
S'what'
p118
aS'we'
p119
aS'ended'
p120
aS'up'
p121
aS'doing'
p122
aS'was'
p123
aaa(lp124
g57
a(lp125
S'giving'
p126
aS'him'
p127
aS'some'
p128
aS'antibiotics'
p129
aaa(lp130
g57
a(lp131
S'and'
p132
aS'sending'
p133
aS'him'
p134
aS'home'
p135
aaa(lp136
g57
a(lp137
S'um'
p138
aaa(lp139
g57
a(lp140
S'If'
p141
aS'he'
p142
aS'does'
p143
aS'not'
p144
aS'improve'
p145
aaa(lp146
g57
a(lp147
S'we'
p148
aS'may'
p149
aS'need'
p150
aS'to'
p151
aS'take'
p152
aS'some'
p153
aS'Xrays'
p154
aaa(lp155
g57
a(lp156
S'and'
p157
aS'hes'
p158
aS'got'
p159
aS'some'
p160
aS'bones'
p161
aaa(lp162
g57
a(lp163
S'or'
p164
aS'something'
p165
aS'in'
p166
aS'there'
p167
aaa(lp168
g57
a(lp169
S'I'
p170
aS'didnt'
p171
aS'feel'
p172
aS'anything'
p173
aS'in'
p174
aS'his'
p175
aS'belly'
p176
aaa(lp177
g57
a(lp178
S'but'
p179
aaa(lp180
g57
a(lp181
S'yeah'
p182
aaa(lp183
g57
a(lp184
g72
aS'lot'
p185
aS'of'
p186
aS'times'
p187
aS'if'
p188
aS'they'
p189
aS'get'
p190
aS'into'
p191
aS'garbage'
p192
aS'or'
p193
aS'dead'
p194
aS'things'
p195
aaa(lp196
g57
a(lp197
S'theyll'
p198
aS'just'
p199
aS'get'
p200
aS'an'
p201
aS'upset'
p202
aS'stomach'
p203
aaa(lp204
g57
a(lp205
S'and'
p206
aaa(lp207
g57
a(lp208
S'um'
p209
aaa(lp210
g57
a(lp211
S'also'
p212
ag92
aS'little'
p213
aS'bit'
p214
aS'of'
p215
aS'uh'
p216
aaa(lp217
g57
a(lp218
S'well'
p219
aaa(lp220
g57
a(lp221
S'just'
p222
aS'inflamation'
p223
aS'in'
p224
aS'in'
p225
aS'there'
p226
aaa(lp227
g57
a(lp228
S'and'
p229
aS'and'
p230
aS'just'
p231
aS'feel'
p232
aS'bad'
p233
aaa(lp234
g57
a(lp235
S'So'
p236
aaa(lp237
g57
a(lp238
S'um'
p239
aaa(lp240
g57
a(lp241
g170
aaa(lp242
g57
a(lp243
S'You'
p244
aS'know'
p245
aaa(lp246
g57
a(lp247
S'Since'
p248
aS'hes'
p249
aS'not'
p250
aS'vomiting'
p251
aS'now'
p252
aaa(lp253
g57
a(lp254
S'you'
p255
aS'can'
p256
aS'go'
p257
aS'ahead'
p258
aS'and'
p259
aS'feed'
p260
aS'him'
p261
aS'and'
p262
aS'stuff'
p263
aaa(lp264
g57
a(lp265
S'and'
p266
aS'see'
p267
aaa(lp268
g57
a(lp269
S'how'
p270
aS'he'
p271
aS'does'
p272
aaa(lp273
g57
a(lp274
S'Um'
p275
aaa(lp276
g57
a(lp277
S'hopefully'
p278
aS'the'
p279
aS'antibiotics'
p280
aS'will'
p281
aS'calm'
p282
aS'down'
p283
aS'any'
p284
aS'any'
p285
aS'infection'
p286
aaa(lp287
g57
a(lp288
S'that'
p289
aS'he'
p290
aaa(lp291
g57
a(lp292
S'h'
p293
aS'that'
p294
aS'he'
p295
aS'might'
p296
aS'have'
p297
aS'gotten'
p298
aS'from'
p299
aS'all'
p300
aS'the'
p301
aS'bacteria'
p302
aS'on'
p303
aS'the'
p304
aS'dead'
p305
aS'pigeon'
p306
aaa(lp307
g57
a(lp308
S'um'
p309
aaa(lp310
g57
a(lp311
S'but'
p312
aS'if'
p313
aS'he'
p314
aaa(lp315
g57
a(lp316
S'if'
p317
aS'he'
p318
aS'doesnt'
p319
aS'get'
p320
aS'better'
p321
aaa(lp322
g57
a(lp323
S'or'
p324
aS'if'
p325
aS'he'
p326
aS'gets'
p327
aS'worse'
p328
aaa(lp329
g57
a(lp330
S'be'
p331
aS'sure'
p332
aS'and'
p333
aS'let'
p334
aS'us'
p335
aS'know'
p336
aaa(lp337
g57
a(lp338
S'well'
p339
aaa(lp340
g57
a(lp341
S'but'
p342
aaa(lp343
g57
a(lp344
S'Already'
p345
aS'by'
p346
aS'tomorrow'
p347
aaa(lp348
g57
a(lp349
S'he'
p350
aS'should'
p351
aS'be'
p352
aS'feeling'
p353
ag92
aS'lot'
p354
aS'better'
p355
aaa(lp356
g57
a(lp357
S'Um'
p358
aaa(lp359
g57
a(lp360
S'and'
p361
aS'if'
p362
aS'he'
p363
aaa(lp364
g57
a(lp365
S'if'
p366
aS'he'
p367
aS'isnt'
p368
aaa(lp369
g57
a(lp370
S'or'
p371
aS'if'
p372
aS'he'
p373
aS'starts'
p374
aS'vomiting'
p375
aaa(lp376
g57
a(lp377
S'or'
p378
aS'having'
p379
aS'diarrhea'
p380
aaa(lp381
g57
a(lp382
S'we'
p383
aS'may'
p384
aS'need'
p385
aS'to'
p386
aS'see'
p387
aS'him'
p388
aaa(lp389
g57
a(lp390
S'we'
p391
aaa(lp392
g57
a(lp393
S'we'
p394
aS'w'
p395
aS'will'
p396
aS'need'
p397
aS'to'
p398
aS'see'
p399
aS'him'
p400
aS'again'
p401
aaa(lp402
g57
a(lp403
S'so'
p404
aaa(lp405
g57
a(lp406
S'um'
p407
aaa(lp408
g57
a(lp409
S'Okay'
p410
aaa(lp411
g57
a(lp412
S'Mhm'
p413
aaa(lp414
g57
a(lp415
S'youre'
p416
aS'welcome'
p417
aaa(lp418
g57
a(lp419
S'mm'
p420
aS'bye'
p421
aaa(lp422
S'MARCIA'
p423
a(lp424
S'Sh'
p425
aS'uh'
p426
aaa(lp427
g423
a(lp428
S'what'
p429
aS'did'
p430
aS'you'
p431
aaa(lp432
g423
a(lp433
S'what'
p434
aS'on'
p435
aS'your'
p436
aS'sheet'
p437
aaa(lp438
g423
a(lp439
S'what'
p440
aS'was'
p441
aS'the'
p442
aS'cost'
p443
aS'for'
p444
aS'the'
p445
aS'cast'
p446
aS'that'
p447
aS'you'
p448
aS'charged'
p449
aS'about'
p450
aaa(lp451
g423
a(lp452
S'what'
p453
aS'do'
p454
aS'we'
p455
aS'generally'
p456
aaa(lp457
S'LINDSEY'
p458
a(lp459
g170
aS'think'
p460
aS'it'
p461
aS'was'
p462
aS'like'
p463
aS'fifty'
p464
aaa(lp465
S'LINDSEY'
p466
a(lp467
S'With'
p468
aS'the'
p469
aS'cast'
p470
aaa(lp471
S'MARCIA'
p472
a(lp473
S'Oh'
p474
aaa(lp475
S'LINDSEYto'
p476
a(lp477
S'put'
p478
aS'it'
p479
aS'on'
p480
aaa(lp481
S'MARCIATo'
p482
a(lp483
S'actually'
p484
aS'put'
p485
aS'the'
p486
aS'cast'
p487
aS'on'
p488
aaa(lp489
S'LINDSEYCasting'
p490
a(lp491
S'materials'
p492
aS'and'
p493
aS'then'
p494
aaa(lp495
S'MARCIA'
p496
a(lp497
S'Okay'
p498
aaa(lp499
S'LINDSEY'
p500
a(lp501
S'And'
p502
aS'then'
p503
aS'um'
p504
aaa(lp505
g500
a(lp506
S'She'
p507
aS'had'
p508
aaa(lp509
g500
a(lp510
S'pretty'
p511
aS'much'
p512
aS'when'
p513
aS'we'
p514
aS'rechecked'
p515
aS'her'
p516
aaa(lp517
g500
a(lp518
S'she'
p519
aS'was'
p520
aS'ready'
p521
aS'to'
p522
aS'take'
p523
aS'it'
p524
aS'off'
p525
aaa(lp526
g500
a(lp527
S'So'
p528
aS'we'
p529
aS'didnt'
p530
aS'have'
p531
aS'to'
p532
aS'do'
p533
aS'any'
p534
aS'more'
p535
aS'Xrays'
p536
aS'or'
p537
aS'anything'
p538
aaa(lp539
S'MARCIAOkay'
p540
a(lp541
aa(lp542
S'LINDSEY'
p543
a(lp544
S'Im'
p545
aS'trying'
p546
aS'to'
p547
aS'remember'
p548
aaa(lp549
g543
a(lp550
g170
aS'think'
p551
aaa(lp552
g543
a(lp553
S'like'
p554
aaa(lp555
g543
a(lp556
S'with'
p557
aS'the'
p558
ag20
aS'white'
p559
ag20
aaa(lp560
S'MARCIA'
p561
a(lp562
g20
aS'You'
p563
aS'got'
p564
ag20
aaa(lp565
g561
a(lp566
g170
aS'thought'
p567
aS'you'
p568
aS'Xrayed'
p569
aS'it'
p570
aaa(lp571
g561
a(lp572
S'You'
p573
aS'Xrayed'
p574
aS'it'
p575
aS'with'
p576
aS'the'
p577
aS'cast'
p578
aS'on'
p579
aaa(lp580
S'LINDSEYYeah'
p581
a(lp582
aa(lp583
g581
a(lp584
S'Mhm'
p585
aaa(lp586
S'MARCIAXX'
p587
a(lp588
aa(lp589
g587
a(lp590
S'Yeah'
p591
aaa(lp592
S'LINDSEYyeah'
p593
a(lp594
aa(lp595
g593
a(lp596
S'yeah'
p597
aaa(lp598
g593
a(lp599
S'and'
p600
aS'it'
p601
aS'was'
p602
aS'ready'
p603
aS'to'
p604
aS'come'
p605
aS'off'
p606
aaa(lp607
g593
a(lp608
S'and'
p609
aS'we'
p610
aS'took'
p611
aS'it'
p612
aS'off'
p613
aaa(lp614
g593
a(lp615
S'She'
p616
aS'did'
p617
ag92
aS'real'
p618
aS'good'
p619
aS'job'
p620
aS'of'
p621
ag20
aS'keeping'
p622
aS'it'
p623
ag20
aaa(lp624
S'ENV'
p625
a(lp626
aa(lp627
S'LINDSEY'
p628
a(lp629
S'keeping'
p630
aS'it'
p631
aS'clean'
p632
aaa(lp633
g628
a(lp634
S'and'
p635
aS'dry'
p636
aaa(lp637
g628
a(lp638
S'Thats'
p639
aaa(lp640
g628
a(lp641
g170
aS'think'
p642
aaa(lp643
g628
a(lp644
S'half'
p645
aS'the'
p646
aS'battle'
p647
aaa(lp648
g628
a(lp649
S'cause'
p650
aaa(lp651
g628
a(lp652
S'she'
p653
aS'didnt'
p654
aS'have'
p655
aS'any'
p656
aS'sores'
p657
aaa(lp658
g628
a(lp659
S'or'
p660
aS'anything'
p661
aaa(lp662
g628
a(lp663
S'when'
p664
aS'we'
p665
aS'took'
p666
aS'it'
p667
aS'off'
p668
aaa(lp669
S'MARCIAMm'
p670
a(lp671
S'yeah'
p672
aaa(lp673
g670
a(lp674
S'Kristen'
p675
aaa(lp676
g670
a(lp677
S'for'
p678
aS'the'
p679
aaa(lp680
g670
a(lp681
S'for'
p682
aS'the'
p683
aS'tranquilizer'
p684
aS'what'
p685
aS'do'
p686
aS'we'
p687
aaa(lp688
g670
a(lp689
S'what'
p690
aS'is'
p691
aS'it'
p692
aS'again'
p693
aaa(lp694
S'KRISTEN'
p695
a(lp696
S'ten'
p697
aaa(lp698
S'MARCIATen'
p699
a(lp700
aa(lp701
g699
a(lp702
g170
aS'wonder'
p703
aS'if'
p704
aS'she'
p705
aS'would'
p706
aS'need'
p707
aS'more'
p708
aaa(lp709
S'KRISTEN'
p710
a(lp711
S'and'
p712
aS'itll'
p713
aS'be'
p714
aaa(lp715
g710
a(lp716
S'Oh'
p717
aS'hell'
p718
aaa(lp719
g710
a(lp720
S'yeah'
p721
aaa(lp722
g710
a(lp723
S'For'
p724
ag92
aS'casting'
p725
aaa(lp726
S'MARCIA'
p727
a(lp728
S'to'
p729
aS'do'
p730
ag92
aS'cast'
p731
aaa(lp732
g727
a(lp733
g20
aS'XX'
p734
aS'Biotal'
p735
aaa(lp736
S'KRISTEN'
p737
a(lp738
g20
aS'if'
p739
aS'you'
p740
aS'just'
p741
ag20
aaa(lp742
g737
a(lp743
S'biotal'
p744
aS'and'
p745
aaa(lp746
g737
a(lp747
S'Metofane'
p748
aaa(lp749
S'MARCIA'
p750
a(lp751
S'XXX'
p752
aaa(lp753
S'KRISTEN'
p754
a(lp755
S'We'
p756
aS'just'
p757
aaa(lp758
S'MARCIA'
p759
a(lp760
S'or'
p761
aS'even'
p762
aaa(lp763
S'KRISTENwell'
p764
a(lp765
S'put'
p766
aS'him'
p767
aS'on'
p768
aS'the'
p769
aS'machine'
p770
aaa(lp771
g764
a(lp772
S'And'
p773
aS'then'
p774
aS'you'
p775
aS'dont'
p776
aS'have'
p777
aS'to'
p778
aS'worry'
p779
aS'about'
p780
aS'em'
p781
aaa(lp782
S'MARCIA'
p783
a(lp784
S'What'
p785
aS'was'
p786
aaa(lp787
g783
a(lp788
S'what'
p789
aS'would'
p790
aS'that'
p791
aaa(lp792
S'KRISTEN'
p793
a(lp794
S'that'
p795
aS'would'
p796
aS'be'
p797
aS'thirteen'
p798
aaa(lp799
S'MARCIA'
p800
a(lp801
S'Total'
p802
aaa(lp803
g800
a(lp804
S'or'
p805
aaa(lp806
g800
a(lp807
S'thirteen'
p808
aS'extra'
p809
aaa(lp810
S'KRISTEN'
p811
a(lp812
S'No'
p813
aaa(lp814
g811
a(lp815
S'plus'
p816
aS'thirteen'
p817
aaa(lp818
g811
a(lp819
S'for'
p820
aS'anesthesia'
p821
aaa(lp822
g811
a(lp823
S'to'
p824
aS'put'
p825
aS'this'
p826
aS'cast'
p827
aS'on'
p828
aaa(lp829
g811
a(lp830
S'Cause'
p831
aS'if'
p832
aS'you'
p833
aS'dont'
p834
aaa(lp835
g811
a(lp836
S'then'
p837
aS'y'
p838
aaa(lp839
g811
a(lp840
S'theyre'
p841
aS'waking'
p842
aS'up'
p843
aaa(lp844
g811
a(lp845
S'and'
p846
aS'you'
p847
aS'just'
p848
aaa(lp849
S'MARCIA'
p850
a(lp851
S'Its'
p852
aS'bad'
p853
aaa(lp854
S'KRISTEN'
p855
a(lp856
S'end'
p857
aS'up'
p858
aS'spending'
p859
aS'more'
p860
aS'time'
p861
aaa(lp862
g855
a(lp863
S'than'
p864
aS'if'
p865
aS'you'
p866
aS'just'
p867
aS'put'
p868
aS'em'
p869
aS'on'
p870
aS'the'
p871
aS'silly'
p872
aS'machine'
p873
aaa(lp874
S'MARCIAOkay'
p875
a(lp876
aa(lp877
S'LINDSEY'
p878
a(lp879
S'Yep'
p880
aaa(lp881
g878
a(lp882
S'As'
p883
aS'we'
p884
aS'know'
p885
aS'from'
p886
aS'the'
p887
aS'sheep'
p888
aaa(lp889
S'KRISTEN'
p890
a(lp891
S'Well'
p892
aaa(lp893
g890
a(lp894
S'and'
p895
aS'from'
p896
aS'other'
p897
aS'things'
p898
aS'too'
p899
aaa(lp900
g890
a(lp901
S'Just'
p902
aaa(lp903
S'MARCIA'
p904
a(lp905
S'Yeah'
p906
aaa(lp907
S'KRISTEN'
p908
a(lp909
S'Are'
p910
aS'those'
p911
aS'good'
p912
aaa(lp913
g908
a(lp914
S'Do'
p915
aS'you'
p916
aS'like'
p917
aS'em'
p918
aaa(lp919
S'LINDSEYYeah'
p920
a(lp921
aa(lp922
g920
a(lp923
S'Did'
p924
aS'you'
p925
aS'make'
p926
aS'em'
p927
aaa(lp928
S'KRISTEN'
p929
a(lp930
g170
aS'made'
p931
aS'em'
p932
aaa(lp933
g929
a(lp934
S'Yeah'
p935
aaa(lp936
g929
a(lp937
S'ah'
p938
aaa(lp939
g929
a(lp940
g170
aS'was'
p941
aS'thinking'
p942
aS'they'
p943
aS'were'
p944
aS'more'
p945
aS'like'
p946
ag92
aaa(lp947
g929
a(lp948
S'chocolate'
p949
aS'chip'
p950
aS'cookie'
p951
aS'bar'
p952
aaa(lp953
g929
a(lp954
S'And'
p955
aS'then'
p956
aS'as'
p957
ag170
aS'got'
p958
aS'through'
p959
aS'the'
p960
aS'recipe'
p961
aaa(lp962
g929
a(lp963
g170
aS'noticed'
p964
aS'that'
p965
aS'they'
p966
aS'dont'
p967
aS'have'
p968
aS'any'
p969
aS'flour'
p970
aS'in'
p971
aS'em'
p972
aaa(lp973
S'MARCIA'
p974
a(lp975
aa(lp976
S'LINDSEY'
p977
a(lp978
aa(lp979
g977
a(lp980
S'Theyre'
p981
aS'good'
p982
aaa(lp983
S'KRISTEN'
p984
a(lp985
S'So'
p986
aS'theyre'
p987
aS'actually'
p988
aS'more'
p989
aS'like'
p990
aS'granola'
p991
aS'bars'
p992
aS'than'
p993
aaa(lp994
S'LINDSEYThey'
p995
a(lp996
S'must'
p997
aS'have'
p998
aaa(lp999
g995
a(lp1000
S'Yeah'
p1001
aaa(lp1002
S'KRISTEN'
p1003
a(lp1004
S'cookie'
p1005
aS'bars'
p1006
aaa(lp1007
S'LINDSEY'
p1008
a(lp1009
S'Yeah'
p1010
aaa(lp1011
S'KRISTEN'
p1012
a(lp1013
S'Theyve'
p1014
aS'got'
p1015
aS'brown'
p1016
aS'sugar'
p1017
aS'and'
p1018
aS'butter'
p1019
aaa(lp1020
g1012
a(lp1021
S'and'
p1022
aaa(lp1023
S'LINDSEY'
p1024
a(lp1025
S'Tastes'
p1026
aS'like'
p1027
aS'they'
p1028
aS'have'
p1029
aS'peanut'
p1030
aS'butter'
p1031
aaa(lp1032
S'KRISTEN'
p1033
a(lp1034
S'oatmeal'
p1035
aaa(lp1036
g1033
a(lp1037
S'and'
p1038
aS'peanut'
p1039
aS'butter'
p1040
aS'chips'
p1041
aaa(lp1042
g1033
a(lp1043
S'chocolate'
p1044
aS'chips'
p1045
aaa(lp1046
S'MARCIA'
p1047
a(lp1048
S'Okay'
p1049
aaa(lp1050
g1047
a(lp1051
S'so'
p1052
ag92
aS'recheck'
p1053
aS'would'
p1054
aS'be'
p1055
aS'about'
p1056
aS'that'
p1057
aS'much'
p1058
aaa(lp1059
g1047
a(lp1060
S'with'
p1061
aS'the'
p1062
aaa(lp1063
S'LINDSEYMhm'
p1064
a(lp1065
aa(lp1066
S'MARCIA'
p1067
a(lp1068
S'Xrays'
p1069
aaa(lp1070
g1067
a(lp1071
S'and'
p1072
aS'then'
p1073
aaa(lp1074
g1067
a(lp1075
S'WH'
p1076
ag20
ag20
aS'WH'
p1077
aaa(lp1078
g1067
a(lp1079
S'Does'
p1080
aS'that'
p1081
aS'sound'
p1082
aS'right'
p1083
aaa(lp1084
g1067
a(lp1085
S'thirtytwo'
p1086
aaa(lp1087
g1067
a(lp1088
g170
aS'think'
p1089
aaa(lp1090
g1067
a(lp1091
S'f'
p1092
aS'we'
p1093
aaa(lp1094
g1067
a(lp1095
S'she'
p1096
aS'woke'
p1097
aS'up'
p1098
aaa(lp1099
g1067
a(lp1100
S'we'
p1101
aS'could'
p1102
ag395
aS'send'
p1103
aS'her'
p1104
aS'home'
p1105
aS'tonight'
p1106
aaa(lp1107
g1067
a(lp1108
g170
aS'wouldnt'
p1109
aS'see'
p1110
aS'why'
p1111
aS'we'
p1112
aS'couldnt'
p1113
aS'send'
p1114
aS'her'
p1115
aS'home'
p1116
aS'tonight'
p1117
aaa(lp1118
g1067
a(lp1119
S'would'
p1120
aS'you'
p1121
aaa(lp1122
S'LINDSEYIf'
p1123
a(lp1124
S'she'
p1125
aS'wakes'
p1126
aS'up'
p1127
aaa(lp1128
g1123
a(lp1129
S'fine'
p1130
aaa(lp1131
S'MARCIA'
p1132
a(lp1133
S'Oh'
p1134
aS'well'
p1135
aaa(lp1136
g1132
a(lp1137
S'were'
p1138
aS'gonna'
p1139
aS'be'
p1140
aS'Biotaling'
p1141
aS'her'
p1142
aS'and'
p1143
aS'oh'
p1144
aaa(lp1145
S'KRISTEN'
p1146
a(lp1147
S'Sh'
p1148
aS'if'
p1149
aS'sh'
p1150
aaa(lp1151
g1146
a(lp1152
S'she'
p1153
aS'probably'
p1154
aS'wont'
p1155
aaa(lp1156
g1146
a(lp1157
S'though'
p1158
aaa(lp1159
S'MARCIAnever'
p1160
a(lp1161
S'mind'
p1162
aaa(lp1163
g1160
a(lp1164
S'Never'
p1165
aS'mind'
p1166
aaa(lp1167
g1160
a(lp1168
g170
aS'was'
p1169
aS'thinking'
p1170
aaa(lp1171
g1160
a(lp1172
S'Im'
p1173
aS'still'
p1174
aS'thinking'
p1175
aaa(lp1176
S'KRISTEN'
p1177
a(lp1178
S'Na'
p1179
aaa(lp1180
S'MARCIA'
p1181
a(lp1182
aa(lp1183
S'KRISTENNa'
p1184
a(lp1185
S'na'
p1186
aaa(lp1187
g1184
a(lp1188
S'na'
p1189
aS'na'
p1190
aS'na'
p1191
aaa(lp1192
g1184
a(lp1193
S'And'
p1194
aS'she'
p1195
aS'wont'
p1196
aS'have'
p1197
aS'any'
p1198
aS'an'
p1199
aS'antibiotics'
p1200
aaa(lp1201
g1184
a(lp1202
S'Cause'
p1203
aS'using'
p1204
aS'all'
p1205
ag20
ag20
aaa(lp1206
S'MARCIA'
p1207
a(lp1208
S'No'
p1209
aaa(lp1210
S'KRISTENAnd'
p1211
a(lp1212
S'that'
p1213
aaa(lp1214
S'MARCIA'
p1215
a(lp1216
S'Thirtytwo'
p1217
aaa(lp1218
S'KRISTEN'
p1219
a(lp1220
S'What'
p1221
aS'is'
p1222
aS'this'
p1223
aaa(lp1224
S'MARCIATen'
p1225
a(lp1226
aa(lp1227
g1225
a(lp1228
S'for'
p1229
aS'anesthesia'
p1230
aaa(lp1231
S'KRISTENOh'
p1232
a(lp1233
aa(lp1234
S'MARCIABut'
p1235
a(lp1236
aa(lp1237
S'KRISTENtheyre'
p1238
a(lp1239
S'still'
p1240
aS'opposite'
p1241
aaa(lp1242
S'MARCIAtheyre'
p1243
a(lp1244
S'opposite'
p1245
aaa(lp1246
S'KRISTEN'
p1247
a(lp1248
S'Yeah'
p1249
aaa(lp1250
g1247
a(lp1251
S'That'
p1252
aS'looks'
p1253
aS'all'
p1254
aS'right'
p1255
aaa(lp1256
S'MARCIA'
p1257
a(lp1258
aa(lp1259
S'KRISTENDont'
p1260
a(lp1261
S'you'
p1262
aS'think'
p1263
aS'we'
p1264
aS'should'
p1265
aS'charge'
p1266
aS'them'
p1267
aS'an'
p1268
aS'extra'
p1269
aS'eighteen'
p1270
aaa(lp1271
S'MARCIA'
p1272
a(lp1273
S'For'
p1274
aS'the'
p1275
aS'distemper'
p1276
aS'vaccine'
p1277
aaa(lp1278
S'KRISTEN'
p1279
a(lp1280
S'Trent'
p1281
aS'does'
p1282
aS'it'
p1283
aaa(lp1284
S'MARCIA'
p1285
a(lp1286
S'No'
p1287
aaa(lp1288
S'KRISTENI'
p1289
a(lp1290
S'felt'
p1291
aS'horrible'
p1292
aS'doing'
p1293
aS'that'
p1294
aS'on'
p1295
aS'that'
p1296
aS'eye'
p1297
aS'dog'
p1298
aaa(lp1299
g1289
a(lp1300
S'that'
p1301
aS'he'
p1302
aS'had'
p1303
aS'in'
p1304
aS'here'
p1305
aS'last'
p1306
aS'week'
p1307
aaa(lp1308
g1289
a(lp1309
S'under'
p1310
aS'whatever'
p1311
aS'night'
p1312
aS'it'
p1313
aS'was'
p1314
aaa(lp1315
g1289
a(lp1316
S'Cause'
p1317
aS'he'
p1318
aS'had'
p1319
aS'down'
p1320
aaa(lp1321
g1289
a(lp1322
S'twentyfive'
p1323
aS'plus'
p1324
aS'eighteen'
p1325
aaa(lp1326
g1289
a(lp1327
S'and'
p1328
aS'what'
p1329
aS'can'
p1330
aS'you'
p1331
aS'do'
p1332
aaa(lp1333
g1289
a(lp1334
S'when'
p1335
aS'hes'
p1336
aS'already'
p1337
aS'got'
p1338
aS'it'
p1339
aS'down'
p1340
aaa(lp1341
S'MARCIAWH'
p1342
a(lp1343
S'jeez'
p1344
aS'WH'
p1345
aaa(lp1346
S'MARCIA'
p1347
a(lp1348
aa(lp1349
g1347
a(lp1350
S'Well'
p1351
aaa(lp1352
g1347
a(lp1353
S'all'
p1354
aS'we'
p1355
aS'did'
p1356
aaa(lp1357
g1347
a(lp1358
g170
aS'cant'
p1359
aS'do'
p1360
aS'that'
p1361
aaa(lp1362
g1347
a(lp1363
S'cause'
p1364
aS'all'
p1365
aS'we'
p1366
aS'did'
p1367
aS'was'
p1368
aaa(lp1369
g1347
a(lp1370
g170
aS'was'
p1371
aS'in'
p1372
aS'here'
p1373
aS'and'
p1374
aS'put'
p1375
ag92
aS'bandage'
p1376
aS'on'
p1377
aaa(lp1378
S'LINDSEY'
p1379
a(lp1380
S'Yeah'
p1381
aaa(lp1382
g1379
a(lp1383
S'Yeah'
p1384
aaa(lp1385
S'MARCIA'
p1386
a(lp1387
aa(lp1388
S'KRISTENUm'
p1389
a(lp1390
aa(lp1391
g1389
a(lp1392
S'did'
p1393
aS'you'
p1394
aS'get'
p1395
aS'hold'
p1396
aS'of'
p1397
aS'Dan'
p1398
aaa(lp1399
g1389
a(lp1400
S'then'
p1401
aaa(lp1402
S'LINDSEY'
p1403
a(lp1404
S'Yeah'
p1405
aaa(lp1406
g1403
a(lp1407
S'Hes'
p1408
aaa(lp1409
S'MARCIA'
p1410
a(lp1411
S'XX'
p1412
aaa(lp1413
S'KRISTEN'
p1414
a(lp1415
S'Lets'
p1416
aS'see'
p1417
aaa(lp1418
S'TRENT'
p1419
a(lp1420
S'Six'
p1421
aaa(lp1422
S'KRISTEN'
p1423
a(lp1424
S'Let'
p1425
aS'me'
p1426
aS'see'
p1427
aaa(lp1428
S'TRENTX'
p1429
a(lp1430
S'fiftysix'
p1431
ag20
aaa(lp1432
S'KRISTENLet'
p1433
a(lp1434
S'me'
p1435
aS'see'
p1436
aaa(lp1437
g1433
a(lp1438
S'we'
p1439
aS'need'
p1440
aaa(lp1441
g1433
a(lp1442
S'one'
p1443
aS'of'
p1444
aS'these'
p1445
aS'and'
p1446
aS'one'
p1447
aS'of'
p1448
aS'these'
p1449
aaa(lp1450
g1433
a(lp1451
S'one'
p1452
aS'of'
p1453
aS'those'
p1454
aaa(lp1455
g1433
a(lp1456
S'and'
p1457
aS'one'
p1458
aS'of'
p1459
aS'those'
p1460
aaa(lp1461
g1433
a(lp1462
S'and'
p1463
aS'two'
p1464
aS'of'
p1465
aS'those'
p1466
aaa(lp1467
S'MARCIAX'
p1468
a(lp1469
aa(lp1470
S'TRENTThree'
p1471
a(lp1472
aa(lp1473
S'LINDSEYSent'
p1474
a(lp1475
S'home'
p1476
aS'with'
p1477
aS'Amoxi'
p1478
aaa(lp1479
S'TRENTX'
p1480
a(lp1481
g20
aS'fiftythree'
p1482
ag20
aaa(lp1483
S'LINDSEY'
p1484
a(lp1485
S'and'
p1486
aS'Pred'
p1487
aaa(lp1488
g1484
a(lp1489
S'So'
p1490
aaa(lp1491
g1484
a(lp1492
S'Well'
p1493
aS'se'
p1494
aS'how'
p1495
aaa(lp1496
S'KRISTEN'
p1497
a(lp1498
S'Yeah'
p1499
aaa(lp1500
g1497
a(lp1501
S'Well'
p1502
aaa(lp1503
g1497
a(lp1504
S'Ill'
p1505
aS'call'
p1506
aS'him'
p1507
aS'probably'
p1508
aS'late'
p1509
aS'this'
p1510
aS'afternoon'
p1511
aaa(lp1512
g1497
a(lp1513
S'to'
p1514
aS'make'
p1515
aS'sure'
p1516
aS'hes'
p1517
aS'all'
p1518
aS'right'
p1519
aaa(lp1520
S'ENV'
p1521
a(lp1522
aa(lp1523
S'MARCIA'
p1524
a(lp1525
g20
aaa(lp1526
g1524
a(lp1527
S'XX'
p1528
ag20
ag20
aaa(lp1529
S'KRISTEN'
p1530
a(lp1531
S'XX'
p1532
aS'there'
p1533
aaa(lp1534
S'MARCIA'
p1535
a(lp1536
S'No'
p1537
aaa(lp1538
g1535
a(lp1539
g170
aS'was'
p1540
aS'just'
p1541
aS'trying'
p1542
aS'to'
p1543
aS'figure'
p1544
aS'out'
p1545
aS'what'
p1546
aS'we'
p1547
aS'spent'
p1548
aS'already'
p1549
aaa(lp1550
S'LINDSEYMm'
p1551
a(lp1552
aa(lp1553
g1551
a(lp1554
S'Mm'
p1555
aaa(lp1556
S'MARCIALet'
p1557
a(lp1558
S'see'
p1559
aaa(lp1560
g1557
a(lp1561
S'XXXXXX'
p1562
aaa(lp1563
g1557
a(lp1564
S'Weve'
p1565
aS'already'
p1566
aS'spent'
p1567
aS'fifty'
p1568
aS'for'
p1569
aS'him'
p1570
aaa(lp1571
g1557
a(lp1572
S'and'
p1573
ag170
ag20
aS'want'
p1574
aS'him'
p1575
ag20
aS'to'
p1576
aS'spend'
p1577
aS'another'
p1578
aS'hundred'
p1579
aaa(lp1580
S'LINDSEY'
p1581
a(lp1582
S'Well'
p1583
aaa(lp1584
S'MARCIABut'
p1585
a(lp1586
S'thats'
p1587
aS'better'
p1588
aS'than'
p1589
aS'pins'
p1590
aaa(lp1591
S'LINDSEY'
p1592
a(lp1593
S'Right'
p1594
aaa(lp1595
S'MARCIA'
p1596
a(lp1597
S'And'
p1598
aS'surgery'
p1599
aaa(lp1600
S'LINDSEYWhich'
p1601
a(lp1602
S'would'
p1603
aS'be'
p1604
aS'another'
p1605
aaa(lp1606
g1601
a(lp1607
S'two'
p1608
aS'hundred'
p1609
aS'or'
p1610
aaa(lp1611
S'KRISTEN'
p1612
a(lp1613
S'Yeah'
p1614
aaa(lp1615
g1612
a(lp1616
S'Its'
p1617
aS'more'
p1618
aS'for'
p1619
ag92
aS'surgery'
p1620
aaa(lp1621
S'MARCIA'
p1622
a(lp1623
S'to'
p1624
aS'spend'
p1625
aaa(lp1626
S'LINDSEY'
p1627
a(lp1628
S'Any'
p1629
aaa(lp1630
g1627
a(lp1631
S'pretty'
p1632
aS'much'
p1633
aS'any'
p1634
aS'time'
p1635
aS'you'
p1636
aS'can'
p1637
aaa(lp1638
S'MARCIA'
p1639
a(lp1640
S'And'
p1641
aS'that'
p1642
aS'one'
p1643
aS'really'
p1644
aaa(lp1645
g1639
a(lp1646
S'you'
p1647
aS'know'
p1648
aaa(lp1649
g1639
a(lp1650
g170
aS'dont'
p1651
aS'think'
p1652
aS'it'
p1653
aS'would'
p1654
aS'benefit'
p1655
aS'from'
p1656
aS'pins'
p1657
aaa(lp1658
S'LINDSEYMm'
p1659
a(lp1660
aa(lp1661
S'MARCIAbecause'
p1662
a(lp1663
aa(lp1664
g1662
a(lp1665
S'wed'
p1666
aS'have'
p1667
aS'to'
p1668
aS'undo'
p1669
aS'it'
p1670
aaa(lp1671
g1662
a(lp1672
g170
aS'mean'
p1673
aS'wed'
p1674
aS'have'
p1675
aS'to'
p1676
aaa(lp1677
g1662
a(lp1678
S'Well'
p1679
aaa(lp1680
g1662
a(lp1681
S'wed'
p1682
aS'have'
p1683
aS'to'
p1684
aS'go'
p1685
aaa(lp1686
g1662
a(lp1687
S'we'
p1688
aS'could'
p1689
aaa(lp1690
g1662
a(lp1691
S'we'
p1692
aS'could'
p1693
aS'try'
p1694
aS'it'
p1695
aS'closed'
p1696
aaa(lp1697
S'LINDSEY'
p1698
a(lp1699
S'Mhm'
p1700
aaa(lp1701
S'MARCIA'
p1702
a(lp1703
S'But'
p1704
aaa(lp1705
g1702
a(lp1706
S'still'
p1707
aaa(lp1708
g1702
a(lp1709
S'its'
p1710
aS'more'
p1711
aS'expensive'
p1712
aaa(lp1713
S'LINDSEY'
p1714
a(lp1715
g170
aS'think'
p1716
aS'itll'
p1717
aS'do'
p1718
aS'fine'
p1719
aS'with'
p1720
ag92
aS'cast'
p1721
aaa(lp1722
g1714
a(lp1723
S'especially'
p1724
aS'since'
p1725
aS'its'
p1726
ag92
aS'spiral'
p1727
aS'fracture'
p1728
aaa(lp1729
S'MARCIA'
p1730
a(lp1731
S'And'
p1732
aS'its'
p1733
aS'not'
p1734
aS'displaced'
p1735
aaa(lp1736
S'LINDSEYAnd'
p1737
a(lp1738
S'its'
p1739
aS'not'
p1740
aS'displaced'
p1741
aaa(lp1742
g1737
a(lp1743
S'should'
p1744
aS'be'
p1745
aS'pretty'
p1746
aS'stable'
p1747
aaa(lp1748
g1737
a(lp1749
S'Itll'
p1750
aS'be'
p1751
aS'kind'
p1752
aS'of'
p1753
ag92
aS'pain'
p1754
aS'getting'
p1755
aS'the'
p1756
aaa(lp1757
g1737
a(lp1758
S'well'
p1759
aaa(lp1760
g1737
a(lp1761
S'maybe'
p1762
aS'not'
p1763
aaa(lp1764
g1737
a(lp1765
S'getting'
p1766
aS'the'
p1767
aS'cast'
p1768
aS'over'
p1769
aS'the'
p1770
aS'stifle'
p1771
aaa(lp1772
g1737
a(lp1773
S'Maybe'
p1774
aS'not'
p1775
aaa(lp1776
S'MARCIA'
p1777
a(lp1778
S'Well'
p1779
aaa(lp1780
g1777
a(lp1781
S'as'
p1782
aS'long'
p1783
aS'as'
p1784
aS'shes'
p1785
aaa(lp1786
S'LINDSEYGot'
p1787
a(lp1788
S'kinda'
p1789
aS'long'
p1790
aS'legs'
p1791
aaa(lp1792
S'MARCIAAs'
p1793
a(lp1794
S'long'
p1795
aS'as'
p1796
aS'shes'
p1797
aS'quiet'
p1798
aaa(lp1799
g1793
a(lp1800
S'Okay'
p1801
aaa(lp1802
g1793
a(lp1803
S'Ill'
p1804
aS'give'
p1805
aS'him'
p1806
ag92
aS'call'
p1807
aaa(lp1808
g1793
a(lp1809
g170
aS'dont'
p1810
aS'know'
p1811
aS'if'
p1812
aS'hes'
p1813
aS'in'
p1814
aS'the'
p1815
aS'barn'
p1816
aaa(lp1817
g1793
a(lp1818
S'from'
p1819
aS'home'
p1820
aaa(lp1821
g1793
a(lp1822
S'In'
p1823
aS'back'
p1824
aS'in'
p1825
aS'from'
p1826
aS'the'
p1827
aS'barn'
p1828
aS'yet'
p1829
aS'or'
p1830
aS'not'
p1831
aaa(lp1832
S'HEIDI'
p1833
a(lp1834
S'XXXXXXXX'
p1835
aaa(lp1836
S'MARCIA'
p1837
a(lp1838
S'Well'
p1839
aaa(lp1840
S'HEIDI'
p1841
a(lp1842
g20
aS'called'
p1843
aS'both'
p1844
aS'the'
p1845
aS'house'
p1846
aS'number'
p1847
aaa(lp1848
g1841
a(lp1849
S'and'
p1850
aS'the'
p1851
aS'barn'
p1852
aS'number'
p1853
aaa(lp1854
g1841
a(lp1855
S'and'
p1856
aS'both'
p1857
aS'of'
p1858
aS'em'
p1859
aaa(lp1860
g1841
a(lp1861
S'and'
p1862
aaa(lp1863
g1841
a(lp1864
g92
aS'little'
p1865
aS'kid'
p1866
aS'answered'
p1867
aaa(lp1868
S'LINDSEYMm'
p1869
a(lp1870
aa(lp1871
g1869
a(lp1872
S'Yeah'
p1873
aS'and'
p1874
aS'theyre'
p1875
aS'little'
p1876
aS'little'
p1877
aS'kids'
p1878
aS'too'
p1879
aaa(lp1880
S'MARCIA'
p1881
a(lp1882
aa(lp1883
S'KRISTENXX'
p1884
a(lp1885
S'XXXX'
p1886
aaa(lp1887
S'HEIDImhm'
p1888
a(lp1889
aa(lp1890
S'KRISTENXX'
p1891
a(lp1892
aa(lp1893
S'LINDSEY'
p1894
a(lp1895
S'Theyre'
p1896
aS'like'
p1897
aaa(lp1898
g1894
a(lp1899
S'XX'
p1900
aaa(lp1901
g1894
a(lp1902
S'XX'
p1903
aaa(lp1904
g1894
a(lp1905
S'on'
p1906
aS'three'
p1907
aaa(lp1908
S'MARCIA'
p1909
a(lp1910
aa(lp1911
S'MARCIA'
p1912
a(lp1913
S'Yeah'
p1914
aS'Carol'
p1915
aaa(lp1916
g1912
a(lp1917
S'Its'
p1918
aS'Marcia'
p1919
aaa(lp1920
g1912
a(lp1921
S'Hi'
p1922
aaa(lp1923
g1912
a(lp1924
S'um'
p1925
aaa(lp1926
g1912
a(lp1927
S'we'
p1928
aS'got'
p1929
aS'Xrays'
p1930
aS'done'
p1931
aS'already'
p1932
aaa(lp1933
g1912
a(lp1934
S'and'
p1935
aaa(lp1936
g1912
a(lp1937
g170
aS'was'
p1938
aS'gonna'
p1939
aS'let'
p1940
aS'you'
p1941
aS'know'
p1942
aS'what'
p1943
aaa(lp1944
g1912
a(lp1945
S'what'
p1946
aS'was'
p1947
aS'going'
p1948
aS'on'
p1949
aaa(lp1950
g1912
a(lp1951
S'Should'
p1952
ag170
aS'talk'
p1953
aS'to'
p1954
aS'Richard'
p1955
aaa(lp1956
g1912
a(lp1957
S'or'
p1958
aS'you'
p1959
aS'okay'
p1960
aaa(lp1961
g1912
a(lp1962
S'Okay'
p1963
aaa(lp1964
g1912
a(lp1965
S'Um'
p1966
aaa(lp1967
g1912
a(lp1968
S'It'
p1969
aS'looks'
p1970
aS'like'
p1971
aS'shes'
p1972
aS'got'
p1973
ag92
aS'spiral'
p1974
aS'fracture'
p1975
aaa(lp1976
g1912
a(lp1977
S'Of'
p1978
aS'um'
p1979
aaa(lp1980
g1912
a(lp1981
S'of'
p1982
aS'her'
p1983
aS'tibia'
p1984
aaa(lp1985
g1912
a(lp1986
S'which'
p1987
aS'is'
p1988
aS'the'
p1989
aS'bone'
p1990
aS'between'
p1991
aS'the'
p1992
aS'knee'
p1993
aS'and'
p1994
aS'the'
p1995
aS'hock'
p1996
aaa(lp1997
g1912
a(lp1998
S'and'
p1999
aaa(lp2000
g1912
a(lp2001
S'um'
p2002
aaa(lp2003
g1912
a(lp2004
S'Its'
p2005
ag1092
aaa(lp2006
g1912
a(lp2007
S'its'
p2008
aS'really'
p2009
aS'looks'
p2010
aaa(lp2011
g1912
a(lp2012
S'pretty'
p2013
aS'stable'
p2014
aaa(lp2015
g1912
a(lp2016
S'Its'
p2017
aS'not'
p2018
aS'displaced'
p2019
aS'very'
p2020
aS'far'
p2021
aS'anyway'
p2022
aaa(lp2023
g1912
a(lp2024
S'and'
p2025
aS'its'
p2026
aaa(lp2027
g1912
a(lp2028
S'um'
p2029
aaa(lp2030
g1912
a(lp2031
S'pretty'
p2032
aS'much'
p2033
aaa(lp2034
g1912
a(lp2035
S'you'
p2036
aS'know'
p2037
aaa(lp2038
g1912
a(lp2039
S'locked'
p2040
aS'in'
p2041
aS'place'
p2042
aaa(lp2043
g1912
a(lp2044
S'so'
p2045
aS'to'
p2046
aS'speak'
p2047
aaa(lp2048
g1912
a(lp2049
S'um'
p2050
aaa(lp2051
g1912
a(lp2052
S'so'
p2053
ag170
aS'think'
p2054
aaa(lp2055
g1912
a(lp2056
S'that'
p2057
aS'she'
p2058
aS'would'
p2059
aaa(lp2060
g1912
a(lp2061
S'she'
p2062
aS'would'
p2063
aS'do'
p2064
aS'fine'
p2065
aS'with'
p2066
ag92
aS'cast'
p2067
aaa(lp2068
g1912
a(lp2069
S'Um'
p2070
aaa(lp2071
g1912
a(lp2072
S'and'
p2073
aaa(lp2074
g1912
a(lp2075
g170
aS'pretty'
p2076
aS'much'
p2077
aS'got'
p2078
aS'an'
p2079
aS'estimate'
p2080
aaa(lp2081
g1912
a(lp2082
S'so'
p2083
aS'far'
p2084
aaa(lp2085
g1912
a(lp2086
S'with'
p2087
aS'the'
p2088
aaa(lp2089
g1912
a(lp2090
S'oming'
p2091
aS'in'
p2092
aS'yesterday'
p2093
aaa(lp2094
g1912
a(lp2095
S'and'
p2096
aS'the'
p2097
aS'Xrays'
p2098
aS'and'
p2099
aS'everything'
p2100
aaa(lp2101
g1912
a(lp2102
S'the'
p2103
aS'bill'
p2104
aS'was'
p2105
aS'about'
p2106
aS'fiftyfour'
p2107
aaa(lp2108
g1912
a(lp2109
S'And'
p2110
aaa(lp2111
g1912
a(lp2112
S'to'
p2113
aS'do'
p2114
ag92
aS'cast'
p2115
aaa(lp2116
g1912
a(lp2117
S'um'
p2118
aaa(lp2119
g1912
a(lp2120
S'with'
p2121
aS'the'
p2122
aS'anasthesia'
p2123
aaa(lp2124
g1912
a(lp2125
S'and'
p2126
aS'staying'
p2127
aS'one'
p2128
aS'more'
p2129
aS'night'
p2130
aS'in'
p2131
aS'the'
p2132
aS'hospital'
p2133
aS'and'
p2134
aS'stuff'
p2135
aaa(lp2136
g1912
a(lp2137
S'and'
p2138
aS'then'
p2139
aS'the'
p2140
aS'casting'
p2141
aS'material'
p2142
aaa(lp2143
g1912
a(lp2144
S'probably'
p2145
aS'the'
p2146
aaa(lp2147
g1912
a(lp2148
S'Its'
p2149
aS'gonna'
p2150
aS'be'
p2151
aS'about'
p2152
ag92
aS'hundred'
p2153
aS'and'
p2154
aS'fiftythree'
p2155
aaa(lp2156
g1912
a(lp2157
S'total'
p2158
aaa(lp2159
g1912
a(lp2160
S'And'
p2161
aaa(lp2162
g1912
a(lp2163
S'the'
p2164
aS'only'
p2165
aaa(lp2166
g1912
a(lp2167
S'then'
p2168
aS'it'
p2169
aS'would'
p2170
aS'be'
p2171
aaa(lp2172
g1912
a(lp2173
S'the'
p2174
aS'only'
p2175
aS'extra'
p2176
aS'would'
p2177
aS'be'
p2178
aaa(lp2179
g1912
a(lp2180
S'in'
p2181
aS'about'
p2182
aS'six'
p2183
aS'to'
p2184
aS'eight'
p2185
aS'weeks'
p2186
aaa(lp2187
g1912
a(lp2188
S'wed'
p2189
aS'have'
p2190
aS'her'
p2191
aS'come'
p2192
aS'in'
p2193
aS'again'
p2194
aaa(lp2195
g1912
a(lp2196
S'we'
p2197
aS'would'
p2198
aS'tranquilize'
p2199
aS'her'
p2200
aaa(lp2201
g1912
a(lp2202
S'and'
p2203
aS'take'
p2204
aS'the'
p2205
aS'Xrays'
p2206
aaa(lp2207
g1912
a(lp2208
S'and'
p2209
aS'see'
p2210
aS'if'
p2211
aS'its'
p2212
aS'healed'
p2213
aaa(lp2214
g1912
a(lp2215
S'Enough'
p2216
aS'to'
p2217
aS'take'
p2218
aS'off'
p2219
aaa(lp2220
g1912
a(lp2221
S'And'
p2222
aS'thats'
p2223
aS'generally'
p2224
aS'about'
p2225
aS'thirtyfour'
p2226
aS'to'
p2227
aS'forty'
p2228
aaa(lp2229
g1912
a(lp2230
S'somewhere'
p2231
aS'in'
p2232
aS'there'
p2233
aaa(lp2234
g1912
a(lp2235
S'Yeah'
p2236
aaa(lp2237
g1912
a(lp2238
S'You'
p2239
aS'know'
p2240
aaa(lp2241
g1912
a(lp2242
g92
aS'pin'
p2243
aaa(lp2244
g1912
a(lp2245
S'you'
p2246
aS'know'
p2247
aaa(lp2248
g1912
a(lp2249
S'if'
p2250
aS'we'
p2251
aS'did'
p2252
ag92
aS'pin'
p2253
aaa(lp2254
g1912
a(lp2255
S'its'
p2256
aS'probably'
p2257
aaa(lp2258
g1912
a(lp2259
S'it'
p2260
aS'would'
p2261
aS'probably'
p2262
aS'be'
p2263
aS'even'
p2264
ag92
aS'hundred'
p2265
aS'more'
p2266
aaa(lp2267
g1912
a(lp2268
S'but'
p2269
aaa(lp2270
g1912
a(lp2271
S'so'
p2272
aS'its'
p2273
aaa(lp2274
g1912
a(lp2275
S'its'
p2276
aaa(lp2277
g1912
a(lp2278
S'Thats'
p2279
aS'about'
p2280
aS'the'
p2281
aaa(lp2282
g1912
a(lp2283
S'at'
p2284
aS'this'
p2285
aS'point'
p2286
aS'the'
p2287
aaa(lp2288
g1912
a(lp2289
S'the'
p2290
aS'least'
p2291
aS'expensive'
p2292
aS'alternative'
p2293
aaa(lp2294
g1912
a(lp2295
S'that'
p2296
aS'probably'
p2297
aS'will'
p2298
aS'work'
p2299
aaa(lp2300
g1912
a(lp2301
S'for'
p2302
aS'her'
p2303
aaa(lp2304
g1912
a(lp2305
S'Um'
p2306
aaa(lp2307
g1912
a(lp2308
S'So'
p2309
aaa(lp2310
g1912
a(lp2311
S'If'
p2312
aS'you'
p2313
aS'want'
p2314
aS'to'
p2315
aS'let'
p2316
aS'him'
p2317
aS'know'
p2318
aS'and'
p2319
aS'then'
p2320
aaa(lp2321
g1912
a(lp2322
S'have'
p2323
aS'him'
p2324
aS'call'
p2325
aS'me'
p2326
aS'back'
p2327
aaa(lp2328
g1912
a(lp2329
S'if'
p2330
aS'you'
p2331
aaa(lp2332
S'KRISTEN'
p2333
a(lp2334
S'Lindsey'
p2335
aaa(lp2336
S'MARCIAIf'
p2337
a(lp2338
S'you'
p2339
aS'wanna'
p2340
aS'go'
p2341
aS'ahead'
p2342
aS'and'
p2343
aS'do'
p2344
aS'it'
p2345
aaa(lp2346
g2337
a(lp2347
S'Okay'
p2348
aaa(lp2349
S'KRISTENYou'
p2350
a(lp2351
S'wanna'
p2352
aS'put'
p2353
aS'this'
p2354
aS'kitty'
p2355
aS'castration'
p2356
aS'down'
p2357
aaa(lp2358
S'LINDSEY'
p2359
a(lp2360
S'Sure'
p2361
aaa(lp2362
S'KRISTENXXX'
p2363
a(lp2364
aa(lp2365
S'MARCIAAlright'
p2366
a(lp2367
aa(lp2368
g2366
a(lp2369
S'And'
p2370
aS'if'
p2371
aS'she'
p2372
aaa(lp2373
g2366
a(lp2374
S'you'
p2375
aS'know'
p2376
aaa(lp2377
g2366
a(lp2378
S'if'
p2379
aS'we'
p2380
aS'did'
p2381
aS'it'
p2382
aaa(lp2383
g2366
a(lp2384
S'she'
p2385
aS'could'
p2386
aS'probably'
p2387
aS'go'
p2388
aS'home'
p2389
aS'tomorrow'
p2390
aaa(lp2391
g2366
a(lp2392
S'Okay'
p2393
aaa(lp2394
g2366
a(lp2395
S'whenever'
p2396
aaa(lp2397
g2366
a(lp2398
S'whenever'
p2399
aS'you'
p2400
aS'get'
p2401
ag92
aS'chance'
p2402
aaa(lp2403
g2366
a(lp2404
S'Okay'
p2405
aaa(lp2406
g2366
a(lp2407
S'thanks'
p2408
aS'Carol'
p2409
aaa(lp2410
g2366
a(lp2411
S'Mhm'
p2412
aaa(lp2413
g2366
a(lp2414
S'byebye'
p2415
aaa(lp2416
S'LINDSEY'
p2417
a(lp2418
S'Gee'
p2419
aaa(lp2420
g2417
a(lp2421
S'this'
p2422
aS'is'
p2423
aS'the'
p2424
aS'one'
p2425
aS'that'
p2426
aS'was'
p2427
aS'too'
p2428
aS'young'
p2429
aaa(lp2430
g2417
a(lp2431
S'and'
p2432
aS'went'
p2433
aS'back'
p2434
aS'home'
p2435
aaa(lp2436
S'HEIDIX'
p2437
a(lp2438
g20
ag20
aaa(lp2439
S'MARCIA'
p2440
a(lp2441
S'Shes'
p2442
aaa(lp2443
g2440
a(lp2444
S'shes'
p2445
aS'gonna'
p2446
aaa(lp2447
g2440
a(lp2448
S'talk'
p2449
aS'to'
p2450
aS'him'
p2451
aaa(lp2452
g2440
a(lp2453
S'and'
p2454
aS'get'
p2455
aS'back'
p2456
aS'to'
p2457
aS'me'
p2458
aaa(lp2459
g2440
a(lp2460
g170
aS'imagine'
p2461
aS'they'
p2462
aS'might'
p2463
aaa(lp2464
S'LINDSEY'
p2465
a(lp2466
S'VOX'
p2467
aS'Oh'
p2468
aS'youve'
p2469
aS'grown'
p2470
aaa(lp2471
S'KRISTENHe'
p2472
a(lp2473
S'gets'
p2474
aS'it'
p2475
aS'just'
p2476
aS'right'
p2477
aaa(lp2478
g2472
a(lp2479
S'hes'
p2480
aS'just'
p2481
aS'getting'
p2482
aS'his'
p2483
aS'adult'
p2484
aS'XX'
p2485
aaa(lp2486
S'LINDSEYWhat'
p2487
a(lp2488
g92
aS'cuty'
p2489
aaa(lp2490
g2487
a(lp2491
S'Oh'
p2492
aS'youre'
p2493
aS'beautiful'
p2494
aaa(lp2495
S'KRISTENXXXXXX'
p2496
a(lp2497
aa(lp2498
g2496
a(lp2499
g20
aS'Pretty'
p2500
aS'unusual'
p2501
aS'with'
p2502
aS'that'
p2503
ag20
aaa(lp2504
g2496
a(lp2505
S'XXXX'
p2506
aaa(lp2507
S'LINDSEYHey'
p2508
a(lp2509
S'beautiful'
p2510
aaa(lp2511
g2508
a(lp2512
S'XXXXXX'
p2513
aaa(lp2514
S'LINDSEYOh'
p2515
a(lp2516
aa(lp2517
g2515
a(lp2518
S'youre'
p2519
aS'beautiful'
p2520
aaa(lp2521
S'MARCIAXX'
p2522
a(lp2523
g20
aaa(lp2524
S'LINDSEYOh'
p2525
a(lp2526
aa(lp2527
g2525
a(lp2528
S'Yes'
p2529
aaa(lp2530
S'HEIDI'
p2531
a(lp2532
S'XXX'
p2533
aaa(lp2534
S'MARCIAThats'
p2535
a(lp2536
S'what'
p2537
aS'it'
p2538
aS'sounds'
p2539
aS'like'
p2540
aaa(lp2541
S'HEIDIIt'
p2542
a(lp2543
S'kind'
p2544
aS'of'
p2545
aS'sounds'
p2546
aS'like'
p2547
aS'that'
p2548
aaa(lp2549
S'MARCIASounds'
p2550
a(lp2551
S'like'
p2552
aS'it'
p2553
aaa(lp2554
g2550
a(lp2555
S'with'
p2556
aS'the'
p2557
aS'ticking'
p2558
aaa(lp2559
S'ENV'
p2560
a(lp2561
aa(lp2562
S'LINDSEYIs'
p2563
a(lp2564
S'that'
p2565
aS'the'
p2566
aS'needle'
p2567
aaa(lp2568
S'HEIDIKingman'
p2569
a(lp2570
S'Vet'
p2571
aS'Center'
p2572
aaa(lp2573
g2569
a(lp2574
S'Heidi'
p2575
aS'speaking'
p2576
aaa(lp2577
S'LINDSEYYeah'
p2578
a(lp2579
aa(lp2580
S'CAT'
p2581
a(lp2582
aa(lp2583
S'LINDSEYXX'
p2584
a(lp2585
S'it'
p2586
aS'hurt'
p2587
aaa(lp2588
g2584
a(lp2589
S'You'
p2590
aS'felt'
p2591
aS'the'
p2592
aS'needle'
p2593
aaa(lp2594
g2584
a(lp2595
S'aw'
p2596
aS'VOX'
p2597
aaa(lp2598
S'MARCIAX'
p2599
a(lp2600
g20
aaa(lp2601
S'LINDSEYYeah'
p2602
a(lp2603
aa(lp2604
S'HEIDI'
p2605
a(lp2606
S'Okay'
p2607
aaa(lp2608
g2605
a(lp2609
S'is'
p2610
aS'this'
p2611
ag92
aS'dog'
p2612
aS'weve'
p2613
aS'seen'
p2614
aS'before'
p2615
aaa(lp2616
S'KRISTEN'
p2617
a(lp2618
S'Gonna'
p2619
aS'call'
p2620
aS'back'
p2621
aaa(lp2622
S'MARCIAYeah'
p2623
a(lp2624
aa(lp2625
g2623
a(lp2626
g170
aS'talked'
p2627
aS'to'
p2628
aS'Carol'
p2629
aaa(lp2630
S'HEIDI'
p2631
a(lp2632
S'Okay'
p2633
aaa(lp2634
g2631
a(lp2635
S'how'
p2636
aS'old'
p2637
aS'is'
p2638
aS'it'
p2639
aaa(lp2640
S'MARCIAand'
p2641
a(lp2642
S'shes'
p2643
aS'gonna'
p2644
aS'talk'
p2645
aS'to'
p2646
aS'Richard'
p2647
aaa(lp2648
g2641
a(lp2649
S'and'
p2650
aaa(lp2651
S'HEIDI'
p2652
a(lp2653
S'Okay'
p2654
aaa(lp2655
g2652
a(lp2656
S'just'
p2657
ag92
aS'moment'
p2658
aaa(lp2659
g2652
a(lp2660
S'XX'
p2661
aS'Ill'
p2662
aS'let'
p2663
aS'you'
p2664
aS'talk'
p2665
aS'to'
p2666
aS'one'
p2667
aS'of'
p2668
aS'the'
p2669
aS'vets'
p2670
aaa(lp2671
S'LINDSEYI'
p2672
a(lp2673
S'imagine'
p2674
aS'they'
p2675
aS'might'
p2676
aS'go'
p2677
aS'for'
p2678
aS'it'
p2679
aaa(lp2680
S'MARCIAIts'
p2681
a(lp2682
S'about'
p2683
aS'the'
p2684
aS'cheapest'
p2685
aS'alternative'
p2686
aS'in'
p2687
aS'the'
p2688
aS'world'
p2689
aaa(lp2690
S'HEIDI'
p2691
a(lp2692
S'Jeremiah'
p2693
aS'Hassel'
p2694
aaa(lp2695
S'KRISTENVOX'
p2696
a(lp2697
S'You'
p2698
aS'stay'
p2699
aS'right'
p2700
aS'here'
p2701
aS'with'
p2702
aS'me'
p2703
aaa(lp2704
S'HEIDI'
p2705
a(lp2706
S'is'
p2707
aS'on'
p2708
aS'the'
p2709
aS'phone'
p2710
aaa(lp2711
S'MARCIAWhat'
p2712
a(lp2713
aa(lp2714
S'HEIDIAnd'
p2715
a(lp2716
S'theyve'
p2717
aS'got'
p2718
ag92
aS'dog'
p2719
aaa(lp2720
g2715
a(lp2721
S'in'
p2722
aS'about'
p2723
aS'three'
p2724
aS'weeks'
p2725
aaa(lp2726
g2715
a(lp2727
S'and'
p2728
aS'she'
p2729
aS'was'
p2730
aS'dripping'
p2731
aS'some'
p2732
aS'blood'
p2733
aS'Saturday'
p2734
aS'night'
p2735
aaa(lp2736
g2715
a(lp2737
S'Hes'
p2738
aS'wondering'
p2739
aS'what'
p2740
aS'it'
p2741
aS'may'
p2742
aS'be'
p2743
aaa(lp2744
g2715
a(lp2745
S'and'
p2746
aaa(lp2747
g2715
a(lp2748
S'They'
p2749
aS'wa'
p2750
aaa(lp2751
S'LINDSEY'
p2752
a(lp2753
S'Mmm'
p2754
aaa(lp2755
S'HEIDIThey'
p2756
a(lp2757
S'must'
p2758
aS'have'
p2759
aS'got'
p2760
ag92
aS'replacement'
p2761
aS'for'
p2762
aS'Faith'
p2763
aS'already'
p2764
aaa(lp2765
S'LINDSEY'
p2766
a(lp2767
g170
aS'dont'
p2768
aS'know'
p2769
aaa(lp2770
S'MARCIA'
p2771
a(lp2772
S'Whos'
p2773
aS'that'
p2774
aS'that'
p2775
aS'called'
p2776
aaa(lp2777
S'HEIDIJeremiah'
p2778
a(lp2779
S'Hassel'
p2780
aaa(lp2781
S'LINDSEY'
p2782
a(lp2783
S'Hassel'
p2784
aaa(lp2785
S'MARCIA'
p2786
a(lp2787
aa(lp2788
S'KRISTEN'
p2789
a(lp2790
S'You'
p2791
aS'stay'
p2792
aS'here'
p2793
aaa(lp2794
S'MARCIA'
p2795
a(lp2796
aa(lp2797
S'KRISTEN'
p2798
a(lp2799
S'Il'
p2800
aS'l'
p2801
aS'be'
p2802
aS'right'
p2803
aS'back'
p2804
aS'VOX'
p2805
aaa(lp2806
S'MARCIACould'
p2807
a(lp2808
S'it'
p2809
aS'be'
p2810
aS'aborting'
p2811
aaa(lp2812
S'LINDSEY'
p2813
a(lp2814
S'Yeah'
p2815
aaa(lp2816
g2813
a(lp2817
S'could'
p2818
aS'be'
p2819
aaa(lp2820
S'KRISTEN'
p2821
a(lp2822
S'Whos'
p2823
aS'aborting'
p2824
aaa(lp2825
S'MARCIAJeremiah'
p2826
a(lp2827
S'Hassels'
p2828
aaa(lp2829
g2826
a(lp2830
S'they'
p2831
aS'got'
p2832
ag92
aS'dog'
p2833
aS'thats'
p2834
aS'pregnant'
p2835
aS'and'
p2836
aaa(lp2837
S'KRISTEN'
p2838
a(lp2839
S'WH'
p2840
aS'Jeez'
p2841
aS'WH'
p2842
aaa(lp2843
g2838
a(lp2844
g170
aS'heard'
p2845
aS'them'
p2846
aaa(lp2847
S'MARCIA'
p2848
a(lp2849
S'due'
p2850
aS'in'
p2851
aS'three'
p2852
aS'weeks'
p2853
aaa(lp2854
g2848
a(lp2855
S'and'
p2856
aS'their'
p2857
aS'dogs'
p2858
aS'dripping'
p2859
aS'blood'
p2860
aS'and'
p2861
aS'theyre'
p2862
aS'wondering'
p2863
aS'why'
p2864
aaa(lp2865
S'KRISTEN'
p2866
a(lp2867
g170
aS'heard'
p2868
aaa(lp2869
g2866
a(lp2870
S'and'
p2871
ag170
aS'thought'
p2872
aS'it'
p2873
aS'was'
p2874
aS'him'
p2875
aaa(lp2876
g2866
a(lp2877
S'he'
p2878
aS'didnt'
p2879
aS'give'
p2880
aS'his'
p2881
aS'name'
p2882
aaa(lp2883
g2866
a(lp2884
S'but'
p2885
ag170
aS'heard'
p2886
ag92
aS'kid'
p2887
aS'on'
p2888
aaa(lp2889
g2866
a(lp2890
S'p'
p2891
aS'whatever'
p2892
aS'that'
p2893
aS'shopping'
p2894
aS'thing'
p2895
aS'is'
p2896
aS'on'
p2897
aS'the'
p2898
aS'radio'
p2899
aaa(lp2900
S'LINDSEY'
p2901
a(lp2902
S'Prime'
p2903
aS'Mover'
p2904
aaa(lp2905
S'KRISTENPrime'
p2906
a(lp2907
S'mover'
p2908
aaa(lp2909
g2906
a(lp2910
S'On'
p2911
aS'Saturday'
p2912
aS'morning'
p2913
aaa(lp2914
g2906
a(lp2915
S'Saying'
p2916
aS'that'
p2917
aS'they'
p2918
aS'had'
p2919
ag92
aS'few'
p2920
aS'puppies'
p2921
aS'left'
p2922
aS'that'
p2923
aS'they'
p2924
aS'were'
p2925
aS'gonna'
p2926
aS'sell'
p2927
aaa(lp2928
g2906
a(lp2929
S'and'
p2930
aS'then'
p2931
aS'theyre'
p2932
aS'taking'
p2933
aS'orders'
p2934
aS'for'
p2935
aS'Christmas'
p2936
aS'puppies'
p2937
aaa(lp2938
g2906
a(lp2939
S'And'
p2940
ag170
aS'thought'
p2941
aaa(lp2942
g2906
a(lp2943
S'thats'
p2944
aS'probably'
p2945
aS'who'
p2946
aS'that'
p2947
aS'was'
p2948
aaa(lp2949
S'LINDSEY'
p2950
a(lp2951
S'Last'
p2952
aS'week'
p2953
aaa(lp2954
g2950
a(lp2955
S'or'
p2956
aaa(lp2957
S'KRISTEN'
p2958
a(lp2959
S'x'
p2960
aaa(lp2961
S'MARCIA'
p2962
a(lp2963
S'Guess'
p2964
aS'they'
p2965
aS'gotta'
p2966
aS'make'
p2967
aS'money'
p2968
aS'somehow'
p2969
aaa(lp2970
g2962
a(lp2971
S'huh'
p2972
aaa(lp2973
S'LINDSEYOh'
p2974
a(lp2975
aa(lp2976
g2974
a(lp2977
S'Saturday'
p2978
aS'night'
p2979
aaa(lp2980
S'KRISTENWant'
p2981
a(lp2982
S'one'
p2983
aS'of'
p2984
aS'these'
p2985
aaa.