(lp0
(lp1
S'JAMIE'
p2
a(lp3
S'How'
p4
aS'can'
p5
aS'you'
p6
aS'teach'
p7
aS'a'
p8
aS'threeyearold'
p9
aS'to'
p10
aS'tap'
p11
aS'dance'
p12
aaa(lp13
S'HAROLD'
p14
a(lp15
S'I'
p16
aS'cant'
p17
aS'imagine'
p18
aS'teaching'
p19
ag8
aaa(lp20
g14
a(lp21
S'Yeah'
p22
aaa(lp23
g14
a(lp24
S'really'
p25
aaa(lp26
S'JAMIE'
p27
a(lp28
aa(lp29
S'MILES'
p30
a(lp31
S'Who'
p32
aS'suggested'
p33
aS'this'
p34
aS'to'
p35
aS'em'
p36
aaa(lp37
S'HAROLD'
p38
a(lp39
g16
aS'have'
p40
aS'no'
p41
aS'idea'
p42
aaa(lp43
g38
a(lp44
S'It'
p45
aS'was'
p46
aS'probably'
p47
aS'my'
p48
aS'sisterinlaws'
p49
aS'idea'
p50
aS'because'
p51
aaa(lp52
g38
a(lp53
g16
aS'think'
p54
aS'they'
p55
aS'saw'
p56
aS'that'
p57
aS'movie'
p58
aaa(lp59
S'JAMIE'
p60
a(lp61
S'Tap'
p62
aaa(lp63
g60
a(lp64
S'X'
p65
ag65
aaa(lp66
S'HAROLD'
p67
a(lp68
S'What'
p69
aS'was'
p70
aS'the'
p71
aaa(lp72
S'MILES'
p73
a(lp74
g65
aS'They'
p75
aS'had'
p76
ag65
aaa(lp77
S'HAROLD'
p78
a(lp79
S'the'
p80
aS'movie'
p81
aS'with'
p82
aS'that'
p83
aS'really'
p84
aS'hot'
p85
aS'tap'
p86
aS'dancer'
p87
aaa(lp88
S'JAMIE'
p89
a(lp90
S'Oh'
p91
aS'that'
p92
aS'kid'
p93
aaa(lp94
S'MILES'
p95
a(lp96
S'He'
p97
aS'was'
p98
aS'actually'
p99
aS'here'
p100
aS'two'
p101
aS'weeks'
p102
aS'ago'
p103
aaa(lp104
g95
a(lp105
S'and'
p106
ag16
aS'missed'
p107
aS'him'
p108
aaa(lp109
S'JAMIE'
p110
a(lp111
S'at'
p112
aS'the'
p113
aS'at'
p114
aS'the'
p115
aS'jazz'
p116
aS'tap'
p117
aS'thing'
p118
aS'or'
p119
aS'whatever'
p120
aaa(lp121
S'HAROLD'
p122
a(lp123
S'Was'
p124
aS'he'
p125
ag8
aS'little'
p126
aS'kid'
p127
aaa(lp128
S'MILES'
p129
a(lp130
S'No'
p131
aS'hes'
p132
aS'sixteen'
p133
aS'now'
p134
aaa(lp135
S'JAMIE'
p136
a(lp137
S'No'
p138
aS'hes'
p139
aS'like'
p140
aaa(lp141
g136
a(lp142
S'Yeah'
p143
aS'hes'
p144
ag8
aS'teenager'
p145
aaa(lp146
g136
a(lp147
S'but'
p148
aS'he'
p149
aS'teaches'
p150
aS'these'
p151
aS'classes'
p152
aS'in'
p153
aS'New'
p154
aS'York'
p155
aaa(lp156
S'MILES'
p157
a(lp158
g65
aS'That'
p159
ag65
aS'boy'
p160
aaa(lp161
g157
a(lp162
S'hes'
p163
aS'supposed'
p164
aS'to'
p165
aS'be'
p166
aS'awesome'
p167
aaa(lp168
S'JAMIE'
p169
a(lp170
S'Yeah'
p171
aaa(lp172
g169
a(lp173
S'Really'
p174
aS'fast'
p175
aaa(lp176
S'PETE'
p177
a(lp178
S'Hm'
p179
aaa(lp180
S'HAROLD'
p181
a(lp182
S'But'
p183
aS'Im'
p184
aS'sure'
p185
aS'that'
p186
aS'was'
p187
aS'the'
p188
aS'the'
p189
aS'impetus'
p190
aaa(lp191
S'MILES'
p192
a(lp193
S'Have'
p194
aS'you'
p195
aS'seen'
p196
aS'him'
p197
aaa(lp198
S'JAMIE'
p199
a(lp200
S'No'
p201
aaa(lp202
g199
a(lp203
g16
aS'just'
p204
aS'read'
p205
aS'an'
p206
aS'article'
p207
aS'on'
p208
aS'him'
p209
aaa(lp210
S'MILES'
p211
a(lp212
S'You'
p213
aS'you'
p214
aS'probably'
p215
aS'read'
p216
aS'the'
p217
aS'same'
p218
aS'Examiner'
p219
aS'article'
p220
ag16
aS'read'
p221
aaa(lp222
S'JAMIE'
p223
a(lp224
S'Yeah'
p225
aaa(lp226
g223
a(lp227
S'probably'
p228
aaa(lp229
g223
a(lp230
S'yeah'
p231
aaa(lp232
S'MILES'
p233
a(lp234
S'talking'
p235
aS'about'
p236
aS'how'
p237
aS'Gregory'
p238
aS'Hines'
p239
aS'said'
p240
aaa(lp241
g233
a(lp242
S'he'
p243
aS'doesnt'
p244
aS'realize'
p245
ag8
aS'human'
p246
aS'being'
p247
aS'cant'
p248
aS'tap'
p249
aS'that'
p250
aS'fast'
p251
aaa(lp252
S'JAMIE'
p253
a(lp254
S'Right'
p255
aaa(lp256
g253
a(lp257
S'Right'
p258
aaa(lp259
S'PETE'
p260
a(lp261
aa(lp262
S'JAMIE'
p263
a(lp264
S'Yeah'
p265
aaa(lp266
S'MILES'
p267
a(lp268
S'And'
p269
aS'they'
p270
aS'were'
p271
aS'talking'
p272
aS'about'
p273
aS'how'
p274
aaa(lp275
g267
a(lp276
S'hes'
p277
aS'teaching'
p278
aS'these'
p279
aS'classes'
p280
aaa(lp281
S'PETE'
p282
a(lp283
S'Hm'
p284
aaa(lp285
S'MILES'
p286
a(lp287
S'and'
p288
ag16
aS'guess'
p289
aS'he'
p290
aS'really'
p291
aS'goes'
p292
aS'fast'
p293
aaa(lp294
g286
a(lp295
g65
aS'And'
p296
ag65
aaa(lp297
S'JAMIE'
p298
a(lp299
S'Yeah'
p300
aaa(lp301
S'MILES'
p302
a(lp303
S'he'
p304
aS'k'
p305
aaa(lp306
S'JAMIE'
p307
a(lp308
S'He'
p309
aS'doesnt'
p310
aS'explain'
p311
aS'anything'
p312
aS'precisely'
p313
aaa(lp314
S'MILES'
p315
a(lp316
S'He'
p317
aS'has'
p318
aS'to'
p319
aS'double'
p320
aS'it'
p321
aS'down'
p322
aS'to'
p323
aS'like'
p324
aS'one'
p325
aS'fifth'
p326
aS'speed'
p327
aS'or'
p328
aS'something'
p329
aaa(lp330
g315
a(lp331
S'before'
p332
aS'they'
p333
aS'can'
p334
aS'g'
p335
aS'pick'
p336
aS'it'
p337
aS'up'
p338
aaa(lp339
S'HAROLD'
p340
a(lp341
S'Well'
p342
aS'Im'
p343
aS'sure'
p344
aS'Thomas'
p345
aS'is'
p346
aS'all'
p347
aS'over'
p348
aS'it'
p349
aaa(lp350
S'JAMIE'
p351
a(lp352
S'Probably'
p353
aS'XX'
p354
aS'XXX'
p355
aaa(lp356
S'HAROLD'
p357
a(lp358
g16
aS'mean'
p359
aS'he'
p360
aS'has'
p361
ag8
aS'bro'
p362
aaa(lp363
S'MILES'
p364
a(lp365
S'XXXX'
p366
aS'could'
p367
aS'have'
p368
aS'seen'
p369
aS'him'
p370
aaa(lp371
S'HAROLD'
p372
a(lp373
g16
aS'guess'
p374
aS'that'
p375
aS'means'
p376
aS'his'
p377
aS'broken'
p378
aS'leg'
p379
aS'is'
p380
aS'doing'
p381
aS'okay'
p382
aaa(lp383
S'PETE'
p384
a(lp385
g16
aS'was'
p386
aS'wondering'
p387
aS'about'
p388
aS'that'
p389
aaa(lp390
g384
a(lp391
g16
aS'was'
p392
aS'imagining'
p393
aS'he'
p394
aS'had'
p395
aS'broke'
p396
aS'an'
p397
aS'arm'
p398
aS'or'
p399
aS'something'
p400
aaa(lp401
S'JAMIE'
p402
a(lp403
S'HI'
p404
aS'Oh'
p405
aS'yeah'
p406
aS'HI'
p407
aaa(lp408
S'PETE'
p409
a(lp410
S'But'
p411
aS'it'
p412
aS'was'
p413
aS'his'
p414
aS'leg'
p415
aaa(lp416
S'HAROLD'
p417
a(lp418
S'Yeah'
p419
aaa(lp420
S'PETE'
p421
a(lp422
S'Thats'
p423
aS'like'
p424
aaa(lp425
g421
a(lp426
g65
ag16
aS'guess'
p427
ag65
aS'that'
p428
aS'he'
p429
aS'was'
p430
aS'being'
p431
aS'hauled'
p432
aS'around'
p433
aS'in'
p434
ag8
aS'little'
p435
aS'wagon'
p436
aS'and'
p437
aS'stuff'
p438
aaa(lp439
S'HAROLD'
p440
a(lp441
S'Right'
p442
aaa(lp443
g440
a(lp444
S'He'
p445
aS'healed'
p446
aS'very'
p447
aS'quickly'
p448
aaa(lp449
S'JAMIE'
p450
a(lp451
g65
aS'Guess'
p452
ag65
aS'kids'
p453
aS'bones'
p454
aaa(lp455
g450
a(lp456
S'just'
p457
aS'like'
p458
aS'grow'
p459
aS'back'
p460
aS'really'
p461
aS'fast'
p462
aaa(lp463
S'PETE'
p464
a(lp465
S'Mhm'
p466
aaa(lp467
S'HAROLD'
p468
a(lp469
S'Yeah'
p470
aaa(lp471
g468
a(lp472
g16
aS'think'
p473
aS'theyre'
p474
aS'really'
p475
aS'soft'
p476
aS'to'
p477
aS'start'
p478
aS'with'
p479
aaa(lp480
S'JAMIE'
p481
a(lp482
S'Theyre'
p483
aS'made'
p484
aS'of'
p485
aS'rubber'
p486
aaa(lp487
g481
a(lp488
S'Th'
p489
aS'thats'
p490
aS'it'
p491
aaa(lp492
S'HAROLD'
p493
a(lp494
S'Thats'
p495
aS'why'
p496
aS'b'
p497
aaa(lp498
g493
a(lp499
S'little'
p500
aS'kids'
p501
aS'usually'
p502
aS'dont'
p503
aS'break'
p504
aS'their'
p505
aS'legs'
p506
aS'anyway'
p507
aaa(lp508
S'PETE'
p509
a(lp510
S'Cause'
p511
aS'theyre'
p512
aS'so'
p513
aS'XXXX'
p514
aaa(lp515
S'JAMIE'
p516
a(lp517
S'Cause'
p518
aS'theyre'
p519
aS'made'
p520
aS'of'
p521
aS'rubber'
p522
aaa(lp523
S'MILES'
p524
a(lp525
S'But'
p526
aS'they'
p527
aS'have'
p528
aS'more'
p529
aS'cartilage'
p530
aS'than'
p531
aS'w'
p532
aaa(lp533
g524
a(lp534
S'you'
p535
aS'know'
p536
aaa(lp537
S'HAROLD'
p538
a(lp539
S'Yeah'
p540
aaa(lp541
g538
a(lp542
S'arent'
p543
aS'they'
p544
aS'real'
p545
aS's'
p546
aaa(lp547
g538
a(lp548
S'arent'
p549
aS'their'
p550
ag305
aS'legs'
p551
aS'pretty'
p552
aS'soft'
p553
aaa(lp554
S'MILES'
p555
a(lp556
S'Yeah'
p557
aaa(lp558
g555
a(lp559
S'theres'
p560
aS'less'
p561
aS'calcium'
p562
aS'deposits'
p563
ag65
aS'in'
p564
aS'them'
p565
ag65
aaa(lp566
g555
a(lp567
S'And'
p568
aS'also'
p569
aaa(lp570
S'PETE'
p571
a(lp572
S'Mm'
p573
aaa(lp574
S'MILES'
p575
a(lp576
S'theyre'
p577
aS'still'
p578
aS'growing'
p579
aaa(lp580
g575
a(lp581
S'And'
p582
aS'the'
p583
aS'way'
p584
aS'bones'
p585
aS'grow'
p586
aS'is'
p587
aaa(lp588
g575
a(lp589
S'you'
p590
aS'make'
p591
aS'cartilage'
p592
aaa(lp593
g575
a(lp594
S'and'
p595
aS'then'
p596
aS'you'
p597
aS'deposit'
p598
aS'calcium'
p599
aS'in'
p600
aS'it'
p601
aaa(lp602
S'HAROLD'
p603
a(lp604
S'Oh'
p605
aaa(lp606
g603
a(lp607
S'and'
p608
aS'then'
p609
aS'that'
p610
aS'turns'
p611
aS'into'
p612
aS'hard'
p613
aS'bone'
p614
aaa(lp615
S'MILES'
p616
a(lp617
S'So'
p618
aS'thats'
p619
aS'why'
p620
aS'they'
p621
aS'always'
p622
aS'have'
p623
aS'more'
p624
aS'flexibility'
p625
aaa(lp626
g616
a(lp627
S'Cause'
p628
aS'as'
p629
aS'theyre'
p630
aS'growing'
p631
aaa(lp632
S'PETE'
p633
a(lp634
S'Hm'
p635
aaa(lp636
S'MILES'
p637
a(lp638
S'youre'
p639
aS'making'
p640
aS'cartilage'
p641
aaa(lp642
g637
a(lp643
S'So'
p644
aS'it'
p645
aS'al'
p646
aaa(lp647
S'PETE'
p648
a(lp649
S'Mhm'
p650
aaa(lp651
S'MILES'
p652
a(lp653
S'They'
p654
aS'always'
p655
aS'have'
p656
aS'that'
p657
aaa(lp658
g652
a(lp659
S'until'
p660
aS'they'
p661
aS'reach'
p662
aS'adulthood'
p663
aaa(lp664
g652
a(lp665
S'in'
p666
aS'which'
p667
aS'case'
p668
aaa(lp669
S'HAROLD'
p670
a(lp671
S'They'
p672
aS'get'
p673
aS'old'
p674
aS'and'
p675
aS'cranky'
p676
aS'like'
p677
aS'the'
p678
aS'rest'
p679
aS'of'
p680
aS'us'
p681
aaa(lp682
S'MILES'
p683
a(lp684
S'it'
p685
aS'stops'
p686
aaa(lp687
S'JAMIE'
p688
a(lp689
aa(lp690
S'PETE'
p691
a(lp692
S'Unhunh'
p693
aaa(lp694
S'JAMIE'
p695
a(lp696
aa(lp697
S'PETE'
p698
a(lp699
S'and'
p700
aS'then'
p701
aS'they'
p702
aS'break'
p703
aaa(lp704
S'JAMIE'
p705
a(lp706
S'Old'
p707
aS'and'
p708
aS'rickety'
p709
aS'and'
p710
aS'brittle'
p711
aaa(lp712
S'PETE'
p713
a(lp714
S'Mhm'
p715
aaa(lp716
S'HAROLD'
p717
a(lp718
S'Mhm'
p719
aaa(lp720
g717
a(lp721
S'uncoordinated'
p722
aS'and'
p723
aS'unflexible'
p724
aaa(lp725
S'PETE'
p726
a(lp727
S'Right'
p728
aaa(lp729
S'HAROLD'
p730
a(lp731
S'Stiff'
p732
aaa(lp733
S'JAMIE'
p734
a(lp735
S'Inflexible'
p736
aaa(lp737
S'PETE'
p738
a(lp739
S'That'
p740
aS'too'
p741
aaa(lp742
S'MILES'
p743
a(lp744
S'What'
p745
aS'are'
p746
aS'you'
p747
aS'planning'
p748
aS'on'
p749
aS'doing'
p750
aS'with'
p751
aS'dancing'
p752
aaa(lp753
g743
a(lp754
S'Harold'
p755
aaa(lp756
g743
a(lp757
S'You'
p758
aS'were'
p759
aS'taking'
p760
aS'some'
p761
aS'classes'
p762
aS'last'
p763
aS'fall'
p764
aaa(lp765
S'HAROLD'
p766
a(lp767
S'Ill'
p768
aS'take'
p769
ag8
aS'few'
p770
aS'more'
p771
aaa(lp772
g766
a(lp773
S'as'
p774
ag8
aaa(lp775
S'JAMIE'
p776
a(lp777
S'You'
p778
aS'will'
p779
aaa(lp780
S'HAROLD'
p781
a(lp782
S'It'
p783
aS'turns'
p784
aS'out'
p785
aS'as'
p786
ag8
aS'spouse'
p787
aaa(lp788
g781
a(lp789
g16
aS'get'
p790
aS'in'
p791
aS'free'
p792
aaa(lp793
S'PETE'
p794
a(lp795
S'Oh'
p796
aS'really'
p797
aaa(lp798
S'HAROLD'
p799
a(lp800
S'So'
p801
aaa(lp802
S'PETE'
p803
a(lp804
S'Thats'
p805
aS'not'
p806
aS'bad'
p807
aaa(lp808
S'JAMIE'
p809
a(lp810
S'to'
p811
aS'group'
p812
aS'classes'
p813
aaa(lp814
g809
a(lp815
S'yeah'
p816
aaa(lp817
S'PETE'
p818
a(lp819
S'Hm'
p820
aaa(lp821
S'HAROLD'
p822
a(lp823
S'So'
p824
aaa(lp825
g822
a(lp826
g16
aS'should'
p827
aS'do'
p828
aS'that'
p829
aaa(lp830
S'MILES'
p831
a(lp832
S'Oh'
p833
aS'really'
p834
aaa(lp835
S'JAMIE'
p836
a(lp837
S'Mhm'
p838
aaa(lp839
S'MILES'
p840
a(lp841
S'Thats'
p842
aS'why'
p843
aS'you'
p844
aS'married'
p845
aS'her'
p846
aaa(lp847
S'JAMIE'
p848
a(lp849
aa(lp850
g848
a(lp851
S'Some'
p852
aS'benefit'
p853
aaa(lp854
S'PETE'
p855
a(lp856
S'Mm'
p857
aaa(lp858
S'JAMIE'
p859
a(lp860
S'hunh'
p861
aaa(lp862
S'MILES'
p863
a(lp864
aa(lp865
S'PETE'
p866
a(lp867
S'Mhm'
p868
aaa(lp869
S'JAMIE'
p870
a(lp871
aa(lp872
S'HAROLD'
p873
a(lp874
S'Better'
p875
aS'than'
p876
aS'nothing'
p877
aaa(lp878
S'MILES'
p879
a(lp880
aa(lp881
S'PETE'
p882
a(lp883
aa(lp884
S'JAMIE'
p885
a(lp886
S'VOX'
p887
aS'Oh'
p888
aS'VOX'
p889
aaa(lp890
g885
a(lp891
g16
aS'cannot'
p892
aS'believe'
p893
aS'you'
p894
aS'said'
p895
aS'that'
p896
aaa(lp897
S'PETE'
p898
a(lp899
aa(lp900
S'JAMIE'
p901
a(lp902
S'What'
p903
ag8
aS'jerk'
p904
aS'you'
p905
aS'are'
p906
aaa(lp907
S'PETE'
p908
a(lp909
aa(lp910
S'MILES'
p911
a(lp912
aa(lp913
S'JAMIE'
p914
a(lp915
S'Arent'
p916
aS'you'
p917
aS'guys'
p918
aS'gonna'
p919
aS'stick'
p920
aS'up'
p921
aS'for'
p922
aS'me'
p923
aaa(lp924
g914
a(lp925
S'and'
p926
aS'beat'
p927
aS'up'
p928
aS'on'
p929
aS'him'
p930
aS'or'
p931
aS'something'
p932
aaa(lp933
S'MILES'
p934
a(lp935
S'Hes'
p936
aS'bigger'
p937
aS'than'
p938
ag16
aS'am'
p939
aaa(lp940
S'PETE'
p941
a(lp942
S'XX'
p943
aaa(lp944
S'MILES'
p945
a(lp946
S'Hes'
p947
aS'not'
p948
aS'bigger'
p949
aS'than'
p950
aS'you'
p951
aaa(lp952
S'PETE'
p953
a(lp954
S'No'
p955
aaa(lp956
S'HAROLD'
p957
a(lp958
S'But'
p959
aS'hes'
p960
aS'my'
p961
aaa(lp962
S'MILES'
p963
a(lp964
aa(lp965
S'HAROLD'
p966
a(lp967
S'hes'
p968
aS'my'
p969
aS'friend'
p970
aaa(lp971
S'PETE'
p972
a(lp973
S'Tha'
p974
aS'thats'
p975
aS'right'
p976
aaa(lp977
S'MILES'
p978
a(lp979
aa(lp980
S'JAMIE'
p981
a(lp982
aa(lp983
S'PETE'
p984
a(lp985
S'You'
p986
aS'know'
p987
aS'who'
p988
aS'Ill'
p989
aS'stick'
p990
aS'up'
p991
aS'for'
p992
aaa(lp993
S'MILES'
p994
a(lp995
aa(lp996
S'JAMIE'
p997
a(lp998
aa(lp999
S'PETE'
p1000
a(lp1001
g16
aS'stuck'
p1002
aS'up'
p1003
aS'for'
p1004
aS'you'
p1005
aS'today'
p1006
aS'at'
p1007
aS'that'
p1008
aS'store'
p1009
aaa(lp1010
S'HAROLD'
p1011
a(lp1012
S'Thats'
p1013
aS'true'
p1014
aaa(lp1015
S'JAMIE'
p1016
a(lp1017
S'You'
p1018
aS'did'
p1019
aaa(lp1020
g1016
a(lp1021
S'You'
p1022
aS'made'
p1023
aS'me'
p1024
aS'get'
p1025
aS'the'
p1026
aaa(lp1027
S'PETE'
p1028
a(lp1029
S'Mhm'
p1030
aaa(lp1031
S'JAMIE'
p1032
a(lp1033
S'um'
p1034
aaa(lp1035
S'PETE'
p1036
a(lp1037
S'thats'
p1038
aS'right'
p1039
aaa(lp1040
S'JAMIE'
p1041
a(lp1042
S'the'
p1043
aS'green'
p1044
ag65
aS'scarf'
p1045
ag65
aaa(lp1046
g1041
a(lp1047
S'Thats'
p1048
aS'right'
p1049
aaa(lp1050
g1041
a(lp1051
S'He'
p1052
aS'was'
p1053
aS'my'
p1054
aS'fashion'
p1055
aS'consultant'
p1056
aS'today'
p1057
aaa(lp1058
S'PETE'
p1059
a(lp1060
S'Right'
p1061
aaa(lp1062
S'MILES'
p1063
a(lp1064
S'Hm'
p1065
aaa(lp1066
S'PETE'
p1067
a(lp1068
aa(lp1069
S'HAROLD'
p1070
a(lp1071
g16
aS'wasnt'
p1072
aaa(lp1073
S'PETE'
p1074
a(lp1075
S'Thats'
p1076
aS'right'
p1077
aaa(lp1078
S'JAMIE'
p1079
a(lp1080
S'Well'
p1081
aS'you'
p1082
aaa(lp1083
g1079
a(lp1084
g16
aS'dont'
p1085
aS'know'
p1086
aaa(lp1087
S'HAROLD'
p1088
a(lp1089
S'We'
p1090
aS'were'
p1091
aS'at'
p1092
aS'this'
p1093
aS'dumb'
p1094
aS'store'
p1095
aaa(lp1096
g1088
a(lp1097
S'and'
p1098
aS'the'
p1099
aS'clerk'
p1100
aS'kept'
p1101
aS'trying'
p1102
aS'to'
p1103
aS'keep'
p1104
aS'us'
p1105
aS'interested'
p1106
aaa(lp1107
S'PETE'
p1108
a(lp1109
S'Hm'
p1110
aaa(lp1111
S'HAROLD'
p1112
a(lp1113
S'while'
p1114
aS'she'
p1115
aS'was'
p1116
aS'buying'
p1117
aaa(lp1118
S'PETE'
p1119
a(lp1120
S'thats'
p1121
aS'right'
p1122
aaa(lp1123
S'MILES'
p1124
a(lp1125
aa(lp1126
S'PETE'
p1127
a(lp1128
g65
aS'Dont'
p1129
aS'you'
p1130
aS'wanna'
p1131
ag65
aS'try'
p1132
aS'on'
p1133
aS'the'
p1134
aS'mens'
p1135
aS'clothes'
p1136
aaa(lp1137
g1127
a(lp1138
S'XX'
p1139
aaa(lp1140
S'JAMIE'
p1141
a(lp1142
S'Im'
p1143
aS'the'
p1144
aS'one'
p1145
aS'who'
p1146
aS'suggested'
p1147
aS'that'
p1148
aaa(lp1149
g1141
a(lp1150
S'so'
p1151
aS'you'
p1152
aS'wouldnt'
p1153
aS'be'
p1154
aS'so'
p1155
aS'bored'
p1156
aaa(lp1157
S'PETE'
p1158
a(lp1159
S'Well'
p1160
ag16
aaa(lp1161
S'JAMIE'
p1162
a(lp1163
S'So'
p1164
aS'they'
p1165
aS'tried'
p1166
aS'on'
p1167
aS'the'
p1168
aS'mens'
p1169
aS'clothes'
p1170
aaa(lp1171
g1162
a(lp1172
S'PAR'
p1173
aS'and'
p1174
aS'they'
p1175
aS'had'
p1176
ag8
aS'very'
p1177
aS'small'
p1178
aS'selection'
p1179
aS'of'
p1180
aS'mens'
p1181
aS'clothes'
p1182
aS'PAR'
p1183
aaa(lp1184
S'PETE'
p1185
a(lp1186
S'Mhm'
p1187
aaa(lp1188
S'JAMIE'
p1189
a(lp1190
S'they'
p1191
aS'try'
p1192
aS'on'
p1193
aS'these'
p1194
aS'really'
p1195
aS'great'
p1196
aS'pants'
p1197
aaa(lp1198
g1189
a(lp1199
S'and'
p1200
aS'they'
p1201
aS'look'
p1202
aS'really'
p1203
aS'good'
p1204
aS'in'
p1205
aS'them'
p1206
aaa(lp1207
g1189
a(lp1208
S'Then'
p1209
aS'they'
p1210
aS'didnt'
p1211
aS'buy'
p1212
aS'em'
p1213
aaa(lp1214
S'PETE'
p1215
a(lp1216
S'Right'
p1217
aaa(lp1218
g1215
a(lp1219
S'Well'
p1220
aaa(lp1221
S'JAMIE'
p1222
a(lp1223
S'You'
p1224
aS'know'
p1225
aS'how'
p1226
aS'boys'
p1227
aS'are'
p1228
aaa(lp1229
g1222
a(lp1230
S'They'
p1231
aS'never'
p1232
aS'buy'
p1233
aS'clothes'
p1234
aaa(lp1235
S'PETE'
p1236
a(lp1237
S'Broke'
p1238
aaa(lp1239
S'JAMIE'
p1240
a(lp1241
S'Broke'
p1242
aaa(lp1243
g1240
a(lp1244
S'Yeah'
p1245
aaa(lp1246
g1240
a(lp1247
S'Students'
p1248
aS'are'
p1249
aS'are'
p1250
aS'broke'
p1251
aaa(lp1252
S'PETE'
p1253
a(lp1254
S'Right'
p1255
aaa(lp1256
S'ENV'
p1257
a(lp1258
aa(lp1259
S'MILES'
p1260
a(lp1261
aa(lp1262
g1260
a(lp1263
S'is'
p1264
aS'that'
p1265
aS'that'
p1266
aaa(lp1267
g1260
a(lp1268
S'Or'
p1269
aS'is'
p1270
aS'that'
p1271
ag8
aS'real'
p1272
aaa(lp1273
S'JAMIE'
p1274
a(lp1275
S'Yeah'
p1276
aaa(lp1277
g1274
a(lp1278
S'thats'
p1279
ag8
aS'tape'
p1280
aaa(lp1281
g1274
a(lp1282
S'Thats'
p1283
ag8
aS'tape'
p1284
aaa(lp1285
S'MILES'
p1286
a(lp1287
S'Wheres'
p1288
aS'it'
p1289
aS'coming'
p1290
aS'from'
p1291
aaa(lp1292
S'JAMIE'
p1293
a(lp1294
aa(lp1295
S'PETE'
p1296
a(lp1297
S'the'
p1298
aS'speaker'
p1299
aS'over'
p1300
aS'there'
p1301
aaa(lp1302
S'HAROLD'
p1303
a(lp1304
S'The'
p1305
aS'speakers'
p1306
aaa(lp1307
g1303
a(lp1308
S'You'
p1309
aS'know'
p1310
aS'these'
p1311
aS'boxes'
p1312
aaa(lp1313
S'JAMIE'
p1314
a(lp1315
aa(lp1316
S'HAROLD'
p1317
a(lp1318
aa(lp1319
S'JAMIE'
p1320
a(lp1321
aa(lp1322
S'PETE'
p1323
a(lp1324
aa(lp1325
S'JAMIE'
p1326
a(lp1327
S'XXX'
p1328
aaa(lp1329
S'MILES'
p1330
a(lp1331
S'You'
p1332
aS'must'
p1333
aS'have'
p1334
aS'good'
p1335
aS'stereo'
p1336
aaa(lp1337
g1330
a(lp1338
S'Cause'
p1339
ag16
aS'feel'
p1340
aS'like'
p1341
aS'Im'
p1342
aS'hearing'
p1343
aaa(lp1344
S'HAROLD'
p1345
a(lp1346
S'We'
p1347
aS'have'
p1348
aaa(lp1349
g1345
a(lp1350
S'These'
p1351
aS'are'
p1352
aS'like'
p1353
aaa(lp1354
S'JAMIE'
p1355
a(lp1356
S'the'
p1357
aS'worlds'
p1358
aS'worst'
p1359
aS'speakers'
p1360
aaa(lp1361
S'MILES'
p1362
a(lp1363
S'Where'
p1364
aS'is'
p1365
aS'the'
p1366
aS'other'
p1367
aS'one'
p1368
aaa(lp1369
S'HAROLD'
p1370
a(lp1371
S'These'
p1372
aS'are'
p1373
aS'the'
p1374
aS'shittiest'
p1375
aS'speakers'
p1376
aS'on'
p1377
aS'earth'
p1378
aaa(lp1379
S'JAMIE'
p1380
a(lp1381
S'Over'
p1382
aS'here'
p1383
aaa(lp1384
S'PETE'
p1385
a(lp1386
S'XXX'
p1387
aaa(lp1388
S'JAMIE'
p1389
a(lp1390
S'besides'
p1391
aS'the'
p1392
aS'ones'
p1393
aS'in'
p1394
aS'the'
p1395
aS'kitchen'
p1396
aaa(lp1397
S'HAROLD'
p1398
a(lp1399
S'And'
p1400
aS'these'
p1401
aS'are'
p1402
aS'an'
p1403
aS'improvement'
p1404
aS'over'
p1405
aS'my'
p1406
aS'last'
p1407
aS'ones'
p1408
aaa(lp1409
S'MILES'
p1410
a(lp1411
g16
aS'thought'
p1412
aS'that'
p1413
aS'was'
p1414
aS'the'
p1415
aS'real'
p1416
aS'thing'
p1417
aaa(lp1418
S'HAROLD'
p1419
a(lp1420
S'You'
p1421
aS'think'
p1422
aS'we'
p1423
aS'have'
p1424
aS'like'
p1425
ag8
aS'jazz'
p1426
aS'band'
p1427
aS'next'
p1428
aS'door'
p1429
aaa(lp1430
S'MILES'
p1431
a(lp1432
S'In'
p1433
aS'fact'
p1434
ag16
aS'was'
p1435
aS'getting'
p1436
aS'ready'
p1437
aS'to'
p1438
aS'say'
p1439
aaa(lp1440
S'PETE'
p1441
a(lp1442
aa(lp1443
S'MILES'
p1444
a(lp1445
S'is'
p1446
aS'there'
p1447
aS'somebody'
p1448
aS'downstairs'
p1449
aaa(lp1450
g1444
a(lp1451
S'playing'
p1452
aaa(lp1453
S'JAMIE'
p1454
a(lp1455
aa(lp1456
S'PETE'
p1457
a(lp1458
g65
ag16
aS'mean'
p1459
ag65
aS'that'
p1460
aS'was'
p1461
aS'what'
p1462
ag16
aS'first'
p1463
aS'thought'
p1464
aaa(lp1465
S'JAMIE'
p1466
a(lp1467
S'Its'
p1468
ag65
aS'our'
p1469
ag65
aS'garage'
p1470
aS'band'
p1471
aaa(lp1472
S'PETE'
p1473
a(lp1474
S'when'
p1475
aS'when'
p1476
aS'the'
p1477
aS'jazz'
p1478
aS'came'
p1479
aS'on'
p1480
aaa(lp1481
g1473
a(lp1482
S'As'
p1483
aS'compared'
p1484
aS'to'
p1485
aS'the'
p1486
aS'other'
p1487
aS'stuff'
p1488
aaa(lp1489
g1473
a(lp1490
S'for'
p1491
aS'some'
p1492
aS'reason'
p1493
aS'it'
p1494
aS'sounded'
p1495
aS'like'
p1496
aS'it'
p1497
aS'was'
p1498
aS'out'
p1499
aS'there'
p1500
aaa(lp1501
g1473
a(lp1502
S'or'
p1503
aS'kind'
p1504
aS'of'
p1505
aS'coming'
p1506
aS'in'
p1507
aS'from'
p1508
aS'some'
p1509
aS'place'
p1510
aaa(lp1511
S'JAMIE'
p1512
a(lp1513
S'Unhunh'
p1514
aaa(lp1515
S'HAROLD'
p1516
a(lp1517
S'Hm'
p1518
aaa(lp1519
S'JAMIE'
p1520
a(lp1521
S'Hunh'
p1522
aaa(lp1523
S'HAROLD'
p1524
a(lp1525
S'Well'
p1526
aS'that'
p1527
aS'would'
p1528
aS'be'
p1529
aS'nice'
p1530
aS'to'
p1531
aS'have'
p1532
ag8
aS'little'
p1533
aS'jazz'
p1534
aS'band'
p1535
aS'next'
p1536
aS'door'
p1537
aaa(lp1538
S'PETE'
p1539
a(lp1540
S'Right'
p1541
aaa(lp1542
S'HAROLD'
p1543
a(lp1544
S'wouldnt'
p1545
aS'it'
p1546
aaa(lp1547
S'JAMIE'
p1548
a(lp1549
S'No'
p1550
aaa(lp1551
S'PETE'
p1552
a(lp1553
S'Mhm'
p1554
aaa(lp1555
S'HAROLD'
p1556
a(lp1557
S'Usually'
p1558
aS'we'
p1559
aS'just'
p1560
aS'have'
p1561
aS'really'
p1562
aS'loud'
p1563
aS'salsa'
p1564
aS'parties'
p1565
aS'across'
p1566
aS'the'
p1567
aS'street'
p1568
aaa(lp1569
S'JAMIE'
p1570
a(lp1571
S'Thats'
p1572
aS'fun'
p1573
aS'too'
p1574
aaa(lp1575
g1570
a(lp1576
S'And'
p1577
aS'teenagers'
p1578
aaa(lp1579
g1570
a(lp1580
S'kissing'
p1581
aS'each'
p1582
aS'other'
p1583
aS'on'
p1584
aS'the'
p1585
aS'sidewalk'
p1586
aaa(lp1587
S'HAROLD'
p1588
a(lp1589
S'Hm'
p1590
aaa(lp1591
S'PETE'
p1592
a(lp1593
S'Hm'
p1594
aaa(lp1595
S'HAROLD'
p1596
a(lp1597
aa(lp1598
S'PETE'
p1599
a(lp1600
S'And'
p1601
aS'little'
p1602
aS'kids'
p1603
aS'throwing'
p1604
aS'paint'
p1605
aS'in'
p1606
aS'your'
p1607
aS'backyard'
p1608
aaa(lp1609
S'HAROLD'
p1610
a(lp1611
S'Yeah'
p1612
aaa(lp1613
S'JAMIE'
p1614
a(lp1615
aa(lp1616
S'PETE'
p1617
a(lp1618
aa(lp1619
S'JAMIE'
p1620
a(lp1621
aa(lp1622
S'HAROLD'
p1623
a(lp1624
S'And'
p1625
aS'in'
p1626
aS'the'
p1627
aS'front'
p1628
aS'yard'
p1629
aaa(lp1630
g1623
a(lp1631
S'You'
p1632
aS'saw'
p1633
aS'that'
p1634
ag65
aaa(lp1635
S'PETE'
p1636
a(lp1637
g16
aS'saw'
p1638
aS'that'
p1639
aaa(lp1640
g1636
a(lp1641
S'right'
p1642
aS'in'
p1643
aS'the'
p1644
aS'front'
p1645
aaa(lp1646
S'HAROLD'
p1647
a(lp1648
S'But'
p1649
aaa(lp1650
S'JAMIE'
p1651
a(lp1652
S'Well'
p1653
aS'what'
p1654
aS'is'
p1655
aS'it'
p1656
aaa(lp1657
g1651
a(lp1658
S'paint'
p1659
aaa(lp1660
S'PETE'
p1661
a(lp1662
S'It'
p1663
aS'was'
p1664
aS'the'
p1665
aS'same'
p1666
aS'color'
p1667
aS'or'
p1668
aS'something'
p1669
aaa(lp1670
S'HAROLD'
p1671
a(lp1672
S'It'
p1673
aS'was'
p1674
aS'like'
p1675
aaa(lp1676
S'JAMIE'
p1677
a(lp1678
S'Or'
p1679
aS'is'
p1680
aS'it'
p1681
aS'chalk'
p1682
aaa(lp1683
S'HAROLD'
p1684
a(lp1685
S'Well'
p1686
ag16
ag305
aaa(lp1687
g1684
a(lp1688
g16
aS'went'
p1689
aS'out'
p1690
aS'one'
p1691
aS'morning'
p1692
aaa(lp1693
g1684
a(lp1694
S'and'
p1695
ag16
aS'saw'
p1696
aS'it'
p1697
aS'all'
p1698
aS'around'
p1699
aaa(lp1700
g1684
a(lp1701
S'and'
p1702
aS'it'
p1703
aS'was'
p1704
aS'like'
p1705
aS'on'
p1706
aS'the'
p1707
aS'back'
p1708
aS'bumper'
p1709
aS'of'
p1710
aS'the'
p1711
aS'Honda'
p1712
aaa(lp1713
g1684
a(lp1714
S'too'
p1715
aaa(lp1716
S'PETE'
p1717
a(lp1718
g65
aS'Oh'
p1719
aS'rude'
p1720
ag65
aaa(lp1721
S'HAROLD'
p1722
a(lp1723
S'So'
p1724
ag16
aS'thought'
p1725
aS'oh'
p1726
aS'shit'
p1727
aaa(lp1728
g1722
a(lp1729
S'Id'
p1730
aS'better'
p1731
aS'try'
p1732
aS'to'
p1733
aS'wipe'
p1734
aS'that'
p1735
aS'off'
p1736
aaa(lp1737
g1722
a(lp1738
S'so'
p1739
ag16
ag16
aS'got'
p1740
aaa(lp1741
g1722
a(lp1742
g16
aS'went'
p1743
aS'and'
p1744
aS'got'
p1745
ag8
aS'wet'
p1746
aS'rag'
p1747
aS'and'
p1748
aS'wiped'
p1749
aS'it'
p1750
aS'off'
p1751
aS'the'
p1752
aS'car'
p1753
aaa(lp1754
g1722
a(lp1755
S'And'
p1756
aS'it'
p1757
aS'came'
p1758
aS'off'
p1759
aS'really'
p1760
aS'easily'
p1761
aaa(lp1762
g1722
a(lp1763
S'And'
p1764
aS'then'
p1765
ag16
aS'saw'
p1766
aS'there'
p1767
aS'was'
p1768
aS'like'
p1769
aS'this'
p1770
aS'tube'
p1771
aS'of'
p1772
aS'it'
p1773
aaa(lp1774
S'JAMIE'
p1775
a(lp1776
S'But'
p1777
aS'it'
p1778
aS'was'
p1779
aS'paint'
p1780
aaa(lp1781
S'HAROLD'
p1782
a(lp1783
S'This'
p1784
aS'whole'
p1785
aS'tube'
p1786
aS'of'
p1787
aS'it'
p1788
aS'across'
p1789
aS'the'
p1790
aS'street'
p1791
aaa(lp1792
S'JAMIE'
p1793
a(lp1794
S'Those'
p1795
aS'kids'
p1796
aS'are'
p1797
aS'just'
p1798
aaa(lp1799
S'HAROLD'
p1800
a(lp1801
S'sitting'
p1802
aS'in'
p1803
aS'the'
p1804
aS'gutter'
p1805
aaa(lp1806
g1800
a(lp1807
S'So'
p1808
ag16
aS'threw'
p1809
aS'it'
p1810
aS'away'
p1811
aaa(lp1812
S'JAMIE'
p1813
a(lp1814
S'And'
p1815
aS'shes'
p1816
aS'pregnant'
p1817
aS'with'
p1818
aS'another'
p1819
aS'one'
p1820
aaa(lp1821
g1813
a(lp1822
S'There'
p1823
aS'gonna'
p1824
aS'have'
p1825
aS'another'
p1826
aaa(lp1827
S'HAROLD'
p1828
a(lp1829
S'Which'
p1830
aS'one'
p1831
aS'is'
p1832
aS'pregnant'
p1833
aaa(lp1834
S'JAMIE'
p1835
a(lp1836
S'brat'
p1837
aS'kid'
p1838
aaa(lp1839
S'HAROLD'
p1840
a(lp1841
S'The'
p1842
aS'the'
p1843
aS'the'
p1844
aS'really'
p1845
aS'fat'
p1846
ag65
aS'redhaired'
p1847
aS'woman'
p1848
ag65
aaa(lp1849
S'JAMIE'
p1850
a(lp1851
S'The'
p1852
aS'mother'
p1853
aaa(lp1854
g1850
a(lp1855
S'The'
p1856
aS'VOX'
p1857
aS'get'
p1858
aS'over'
p1859
aS'here'
p1860
aS'you'
p1861
aaa(lp1862
g1850
a(lp1863
S'nya'
p1864
aS'nya'
p1865
aS'nya'
p1866
aS'nya'
p1867
aS'nya'
p1868
aS'nya'
p1869
aS'nya'
p1870
aS'VOX'
p1871
aaa(lp1872
S'HAROLD'
p1873
a(lp1874
S'Does'
p1875
aS'she'
p1876
aS'even'
p1877
aS'have'
p1878
ag8
ag497
ag8
aS'man'
p1879
aaa(lp1880
g1873
a(lp1881
g16
aS'guess'
p1882
aS'she'
p1883
aS'must'
p1884
aaa(lp1885
S'MILES'
p1886
a(lp1887
S'Does'
p1888
aS'she'
p1889
aS'have'
p1890
ag8
aS'what'
p1891
aaa(lp1892
S'JAMIE'
p1893
a(lp1894
S'A'
p1895
aS'man'
p1896
aaa(lp1897
S'HAROLD'
p1898
a(lp1899
g1895
aS'man'
p1900
aaa(lp1901
S'PETE'
p1902
a(lp1903
aa(lp1904
S'JAMIE'
p1905
a(lp1906
S'She'
p1907
aS'has'
p1908
aS'some'
p1909
aS'kind'
p1910
aS'of'
p1911
ag8
aaa(lp1912
S'MILES'
p1913
a(lp1914
S'At'
p1915
aS'least'
p1916
aS'temporarily'
p1917
aaa(lp1918
S'PETE'
p1919
a(lp1920
S'Yeah'
p1921
aaa(lp1922
S'HAROLD'
p1923
a(lp1924
S'Yeah'
p1925
aaa(lp1926
S'JAMIE'
p1927
a(lp1928
S'At'
p1929
aS'one'
p1930
aS'time'
p1931
aaa(lp1932
S'HAROLD'
p1933
a(lp1934
S'For'
p1935
aS'about'
p1936
aS'five'
p1937
aS'minutes'
p1938
aaa(lp1939
g1933
a(lp1940
S'probably'
p1941
aaa(lp1942
S'MILES'
p1943
a(lp1944
aa(lp1945
S'PETE'
p1946
a(lp1947
aa(lp1948
S'JAMIE'
p1949
a(lp1950
S'And'
p1951
aS'they'
p1952
aS'were'
p1953
aS'banging'
p1954
aS'their'
p1955
aS'their'
p1956
aS'soccer'
p1957
aS'ball'
p1958
aS'up'
p1959
aS'against'
p1960
aS'our'
p1961
aaa(lp1962
g1949
a(lp1963
S'below'
p1964
aS'the'
p1965
aS'bedroom'
p1966
aS'th'
p1967
aS'the'
p1968
aS'study'
p1969
aS'window'
p1970
aaa(lp1971
S'HAROLD'
p1972
a(lp1973
S'So'
p1974
aS'Jamie'
p1975
aS'the'
p1976
aS'old'
p1977
aS'lady'
p1978
aS'went'
p1979
aS'and'
p1980
aS'yelled'
p1981
aS'at'
p1982
aS'em'
p1983
aaa(lp1984
S'JAMIE'
p1985
a(lp1986
g16
aS'opened'
p1987
aaa(lp1988
S'PETE'
p1989
a(lp1990
S'Mhm'
p1991
aaa(lp1992
S'JAMIE'
p1993
a(lp1994
S'VOX'
p1995
aS'Ah'
p1996
aaa(lp1997
g1993
a(lp1998
S'you'
p1999
aS'mind'
p2000
aS'moving'
p2001
aaa(lp2002
g1993
a(lp2003
S'getting'
p2004
aS'away'
p2005
aS'from'
p2006
aS'there'
p2007
aaa(lp2008
g1993
a(lp2009
S'thank'
p2010
aS'you'
p2011
aS'VOX'
p2012
aaa(lp2013
g1993
a(lp2014
g16
aS'felt'
p2015
aS'like'
p2016
aS'such'
p2017
aS'an'
p2018
aS'old'
p2019
aS'lady'
p2020
aaa(lp2021
S'PETE'
p2022
a(lp2023
aa(lp2024
S'HAROLD'
p2025
a(lp2026
S'Its'
p2027
aS'so'
p2028
aS'bad'
p2029
aaa(lp2030
S'JAMIE'
p2031
a(lp2032
S'With'
p2033
aS'those'
p2034
aS'kids'
p2035
aaa(lp2036
g2031
a(lp2037
S'they'
p2038
aS'make'
p2039
aS'us'
p2040
aS'feel'
p2041
aS'so'
p2042
aS'old'
p2043
aaa(lp2044
S'PETE'
p2045
a(lp2046
S'How'
p2047
aS'many'
p2048
aS'of'
p2049
aS'them'
p2050
aS'are'
p2051
aS'there'
p2052
aaa(lp2053
S'HAROLD'
p2054
a(lp2055
S'Eight'
p2056
aS'hundred'
p2057
aaa(lp2058
S'PETE'
p2059
a(lp2060
S'n_yow'
p2061
aaa(lp2062
S'JAMIE'
p2063
a(lp2064
aa(lp2065
S'HAROLD'
p2066
a(lp2067
S'Theres'
p2068
aS'two'
p2069
aaa(lp2070
S'PETE'
p2071
a(lp2072
S'XX'
p2073
aaa(lp2074
S'MILES'
p2075
a(lp2076
aa(lp2077
S'JAMIE'
p2078
a(lp2079
S'No'
p2080
aaa(lp2081
g2078
a(lp2082
S'theres'
p2083
aaa(lp2084
S'PETE'
p2085
a(lp2086
aa(lp2087
S'JAMIE'
p2088
a(lp2089
S'Theres'
p2090
aS'two'
p2091
aS'young'
p2092
aS'ones'
p2093
aaa(lp2094
g2088
a(lp2095
S'and'
p2096
aS'one'
p2097
aS'whos'
p2098
aS'like'
p2099
aS'twelve'
p2100
aaa(lp2101
S'HAROLD'
p2102
a(lp2103
S'Oh'
p2104
aaa(lp2105
g2102
a(lp2106
S'the'
p2107
aS'cow'
p2108
aaa(lp2109
S'JAMIE'
p2110
a(lp2111
S'who'
p2112
aS'has'
p2113
aS'friends'
p2114
aaa(lp2115
S'PETE'
p2116
a(lp2117
S'Unhunh'
p2118
aaa(lp2119
S'JAMIE'
p2120
a(lp2121
S'The'
p2122
aS'the'
p2123
aS'cow'
p2124
aaa(lp2125
S'PETE'
p2126
a(lp2127
S'Hm'
p2128
aaa(lp2129
S'JAMIE'
p2130
a(lp2131
S'The'
p2132
aS'older'
p2133
aS'cow'
p2134
aaa(lp2135
g2130
a(lp2136
S'and'
p2137
aS'then'
p2138
aS'theres'
p2139
aS'the'
p2140
aS'middle'
p2141
aS'cow'
p2142
aaa(lp2143
g2130
a(lp2144
S'and'
p2145
aS'theres'
p2146
ag8
aS'little'
p2147
aS'young'
p2148
aS'cow'
p2149
aaa(lp2150
S'PETE'
p2151
a(lp2152
aa(lp2153
S'MILES'
p2154
a(lp2155
aa(lp2156
S'PETE'
p2157
a(lp2158
S'The'
p2159
aS'little'
p2160
aS'baby'
p2161
aS'cow'
p2162
aaa(lp2163
S'JAMIE'
p2164
a(lp2165
S'The'
p2166
aS'butterball'
p2167
aaa(lp2168
S'PETE'
p2169
a(lp2170
S'The'
p2171
aS'calf'
p2172
aaa(lp2173
S'HAROLD'
p2174
a(lp2175
S'Geezh'
p2176
aS'Zheezhee'
p2177
aaa(lp2178
S'JAMIE'
p2179
a(lp2180
S'The'
p2181
aS'butter'
p2182
aaa(lp2183
S'PETE'
p2184
a(lp2185
S'Zheezhee'
p2186
aS'the'
p2187
aS'calf'
p2188
aaa(lp2189
S'JAMIE'
p2190
a(lp2191
S'The'
p2192
aS'butterball'
p2193
aaa(lp2194
S'HAROLD'
p2195
a(lp2196
aa(lp2197
S'PETE'
p2198
a(lp2199
aa(lp2200
S'JAMIE'
p2201
a(lp2202
S'The'
p2203
aS'butterball'
p2204
aaa(lp2205
g2201
a(lp2206
S'They'
p2207
aS'used'
p2208
aS'to'
p2209
aS'have'
p2210
aS'this'
p2211
aS'little'
p2212
aS'butterball'
p2213
aaa(lp2214
g2201
a(lp2215
S'r'
p2216
aaa(lp2217
g2201
a(lp2218
S'when'
p2219
aS'we'
p2220
aS'first'
p2221
aS'moved'
p2222
aS'in'
p2223
aaa(lp2224
g2201
a(lp2225
S'he'
p2226
aS'would'
p2227
aaa(lp2228
g2201
a(lp2229
S'hed'
p2230
aS'be'
p2231
aS'running'
p2232
aS'around'
p2233
aaa(lp2234
g2201
a(lp2235
S'd'
p2236
aS'in'
p2237
aS'the'
p2238
aS'street'
p2239
aS'with'
p2240
aS'his'
p2241
aS'diapers'
p2242
aS'on'
p2243
aaa(lp2244
g2201
a(lp2245
S'this'
p2246
aS'butterball'
p2247
aS'of'
p2248
ag8
aS'kid'
p2249
aaa(lp2250
S'HAROLD'
p2251
a(lp2252
S'and'
p2253
aS'then'
p2254
aS'hed'
p2255
aS'stop'
p2256
aS'and'
p2257
aS'go'
p2258
aaa(lp2259
S'JAMIE'
p2260
a(lp2261
S'Hed'
p2262
aS'wheeze'
p2263
aaa(lp2264
g2260
a(lp2265
S'once'
p2266
aS'he'
p2267
aS'stopped'
p2268
aS'running'
p2269
aaa(lp2270
S'HAROLD'
p2271
a(lp2272
S'Cause'
p2273
aS'hes'
p2274
aS'so'
p2275
aS'fat'
p2276
aaa(lp2277
g2271
a(lp2278
S'that'
p2279
aS'whenever'
p2280
aS'he'
p2281
aS'runs'
p2282
aaa(lp2283
g2271
a(lp2284
S'he'
p2285
aS'gets'
p2286
aS'really'
p2287
aS'winded'
p2288
aaa(lp2289
g2271
a(lp2290
S'And'
p2291
aS'hes'
p2292
aaa(lp2293
g2271
a(lp2294
S'you'
p2295
aS'know'
p2296
aaa(lp2297
g2271
a(lp2298
g8
aS'year'
p2299
aS'and'
p2300
ag8
aS'half'
p2301
aS'yea'
p2302
aS'years'
p2303
aS'old'
p2304
aaa(lp2305
S'JAMIE'
p2306
a(lp2307
S'Or'
p2308
aS'two'
p2309
aS'years'
p2310
aS'old'
p2311
aaa(lp2312
S'HAROLD'
p2313
a(lp2314
g1895
aS'year'
p2315
aS'and'
p2316
ag8
aS'half'
p2317
aS'old'
p2318
aaa(lp2319
S'JAMIE'
p2320
a(lp2321
g1895
aS'year'
p2322
aS'and'
p2323
ag8
aS'half'
p2324
aS'years'
p2325
aS'old'
p2326
aaa(lp2327
S'PETE'
p2328
a(lp2329
aa(lp2330
S'MILES'
p2331
a(lp2332
aa(lp2333
S'JAMIE'
p2334
a(lp2335
aa(lp2336
g2334
a(lp2337
S'Uh'
p2338
aaa(lp2339
g2334
a(lp2340
S'Theyre'
p2341
aS'terrible'
p2342
aaa(lp2343
g2334
a(lp2344
S'Really'
p2345
aaa(lp2346
S'HAROLD'
p2347
a(lp2348
g16
aS'cant'
p2349
aS't'
p2350
aaa(lp2351
g2347
a(lp2352
S'How'
p2353
aS'do'
p2354
aS'you'
p2355
aaa(lp2356
g2347
a(lp2357
S'She'
p2358
aS'just'
p2359
aS'looks'
p2360
aS'pregnant'
p2361
aaa(lp2362
g2347
a(lp2363
S'now'
p2364
aaa(lp2365
S'JAMIE'
p2366
a(lp2367
S'Shes'
p2368
aS'pregnant'
p2369
aaa(lp2370
g2366
a(lp2371
S'Shes'
p2372
aS'totally'
p2373
aS'pregnant'
p2374
aaa(lp2375
S'HAROLD'
p2376
a(lp2377
S'Oh'
p2378
aaa(lp2379
S'JAMIE'
p2380
a(lp2381
S'Its'
p2382
aS'not'
p2383
aS'eating'
p2384
aS'too'
p2385
aS'much'
p2386
aaa(lp2387
g2380
a(lp2388
S'shes'
p2389
aS'pregnant'
p2390
aaa(lp2391
S'HAROLD'
p2392
a(lp2393
S'So'
p2394
aaa(lp2395
g2392
a(lp2396
g16
aS'guess'
p2397
aaa(lp2398
g2392
a(lp2399
g16
aS'mean'
p2400
aS'thi'
p2401
aS'this'
p2402
aS'thi'
p2403
aS'this'
p2404
aS'just'
p2405
aS'happened'
p2406
aaa(lp2407
g2392
a(lp2408
S'Or'
p2409
aaa(lp2410
S'JAMIE'
p2411
a(lp2412
S'Were'
p2413
aS'gonna'
p2414
aS'have'
p2415
aS'babies'
p2416
aS'crying'
p2417
aaa(lp2418
g2411
a(lp2419
S'in'
p2420
aS'the'
p2421
aS'middle'
p2422
aS'of'
p2423
aS'the'
p2424
aS'night'
p2425
aaa(lp2426
S'HAROLD'
p2427
a(lp2428
aa(lp2429
g2427
a(lp2430
S'Well'
p2431
aS'its'
p2432
aS'no'
p2433
aS'worse'
p2434
aS'than'
p2435
aS'her'
p2436
aS'screaming'
p2437
aS'at'
p2438
aS'em'
p2439
aaa(lp2440
g2427
a(lp2441
S'is'
p2442
aS'it'
p2443
aaa(lp2444
S'PETE'
p2445
a(lp2446
S'Yeah'
p2447
aS'but'
p2448
aS'now'
p2449
aS'youll'
p2450
aS'have'
p2451
aS'both'
p2452
aaa(lp2453
S'JAMIE'
p2454
a(lp2455
S'Yeah'
p2456
aS'right'
p2457
aaa(lp2458
g2454
a(lp2459
S'Probably'
p2460
aS'be'
p2461
aS'like'
p2462
aaa(lp2463
g2454
a(lp2464
S'VOX'
p2465
aS'shut'
p2466
aS'up'
p2467
aS'you'
p2468
aS'ki'
p2469
aS'VOX'
p2470
aaa(lp2471
g2454
a(lp2472
S'you'
p2473
aS'know'
p2474
aaa(lp2475
g2454
a(lp2476
S'XX'
p2477
aaa(lp2478
g2454
a(lp2479
S'Oh'
p2480
aS'God'
p2481
aaa(lp2482
g2454
a(lp2483
g16
aS'feel'
p2484
aaa(lp2485
g2454
a(lp2486
g16
ag546
aS'feel'
p2487
aS'like'
p2488
aS'such'
p2489
aS'an'
p2490
aS'old'
p2491
aS'lady'
p2492
aaa(lp2493
g2454
a(lp2494
S'But'
p2495
ag16
aaa(lp2496
g2454
a(lp2497
S'they'
p2498
aS'just'
p2499
aS'really'
p2500
aS'annoy'
p2501
aS'me'
p2502
aaa(lp2503
g2454
a(lp2504
S'kay'
p2505
aaa(lp2506
S'MILES'
p2507
a(lp2508
S'Hunh'
p2509
aaa(lp2510
S'JAMIE'
p2511
a(lp2512
S'New'
p2513
aS'subject'
p2514
aaa(lp2515
S'PETE'
p2516
a(lp2517
S'Hm'
p2518
aaa(lp2519
S'JAMIE'
p2520
a(lp2521
aa(lp2522
S'HAROLD'
p2523
a(lp2524
S'Well'
p2525
aS'its'
p2526
aS'cause'
p2527
aS'they'
p2528
aS'have'
p2529
aS'no'
p2530
aS'respect'
p2531
aaa(lp2532
S'JAMIE'
p2533
a(lp2534
S'P'
p2535
aS'Yeah'
p2536
aaa(lp2537
g2533
a(lp2538
g16
aS'guess'
p2539
aS'so'
p2540
ag2535
aaa(lp2541
S'MILES'
p2542
a(lp2543
S'Those'
p2544
aS'two'
p2545
aS'top'
p2546
aS'masks'
p2547
aaa(lp2548
g2542
a(lp2549
S'there'
p2550
aaa(lp2551
S'HAROLD'
p2552
a(lp2553
S'Yep'
p2554
aaa(lp2555
S'JAMIE'
p2556
a(lp2557
aa(lp2558
S'HAROLD'
p2559
a(lp2560
S'We'
p2561
aS'need'
p2562
ag8
aS'verb'
p2563
aaa(lp2564
S'MILES'
p2565
a(lp2566
g16
aS'guess'
p2567
aS'the'
p2568
aS'ones'
p2569
aS'below'
p2570
aS'are'
p2571
aS'women'
p2572
aaa(lp2573
S'PETE'
p2574
a(lp2575
aa(lp2576
S'JAMIE'
p2577
a(lp2578
aa(lp2579
S'MILES'
p2580
a(lp2581
S'Is'
p2582
aS'that'
p2583
aS'why'
p2584
aS'they'
p2585
aS'look'
p2586
aS'so'
p2587
aS'different'
p2588
aaa(lp2589
S'JAMIE'
p2590
a(lp2591
aa(lp2592
S'HAROLD'
p2593
a(lp2594
S'Uhoh'
p2595
aaa(lp2596
S'MILES'
p2597
a(lp2598
g16
aS'mean'
p2599
aaa(lp2600
g2597
a(lp2601
S'i'
p2602
aaa(lp2603
g2597
a(lp2604
S'Well'
p2605
aS'you'
p2606
aS'see'
p2607
aS'their'
p2608
aS'eyeballs'
p2609
aaa(lp2610
g2597
a(lp2611
g16
aS'guess'
p2612
aaa(lp2613
S'PETE'
p2614
a(lp2615
S'Right'
p2616
aaa(lp2617
g2614
a(lp2618
S'Yeah'
p2619
aS'the'
p2620
aS'other'
p2621
aaa(lp2622
S'MILES'
p2623
a(lp2624
S'In'
p2625
aS'addition'
p2626
aS'to'
p2627
ag8
aS'mustache'
p2628
aS'and'
p2629
ag8
aS'beard'
p2630
aaa(lp2631
g2623
a(lp2632
S'But'
p2633
aS'the'
p2634
aS'thing'
p2635
aS'is'
p2636
aaa(lp2637
g2623
a(lp2638
S'that'
p2639
aS'second'
p2640
aS'one'
p2641
aS'looks'
p2642
aS'like'
p2643
aS'the'
p2644
aS'guy'
p2645
aS'who'
p2646
aS'was'
p2647
aS'in'
p2648
aS'one'
p2649
aS'of'
p2650
aS'the'
p2651
aS'Oba'
p2652
aS'Oba'
p2653
aS'skits'
p2654
aaa(lp2655
S'JAMIE'
p2656
a(lp2657
S'Do'
p2658
aS'you'
p2659
aS'know'
p2660
aS'those'
p2661
aaa(lp2662
g2656
a(lp2663
S'any'
p2664
aS'of'
p2665
aS'those'
p2666
aS'dances'
p2667
aaa(lp2668
S'PETE'
p2669
a(lp2670
S'All'
p2671
aS'of'
p2672
aS'em'
p2673
aaa(lp2674
S'JAMIE'
p2675
a(lp2676
S'All'
p2677
aS'of'
p2678
aS'em'
p2679
aaa(lp2680
S'HAROLD'
p2681
a(lp2682
S'The'
p2683
aS'little'
p2684
aS'what'
p2685
aaa(lp2686
S'MILES'
p2687
a(lp2688
S'Looks'
p2689
aS'like'
p2690
aaa(lp2691
g2687
a(lp2692
S'the'
p2693
aS'second'
p2694
aaa(lp2695
S'PETE'
p2696
a(lp2697
g65
aS'Why'
p2698
ag65
aaa(lp2699
S'MILES'
p2700
a(lp2701
S'one'
p2702
aS'from'
p2703
aS'the'
p2704
aS'top'
p2705
aS'looks'
p2706
aS'like'
p2707
ag8
aS'guy'
p2708
aS'who'
p2709
aS'was'
p2710
aS'in'
p2711
aS'the'
p2712
aS'Oba'
p2713
aS'Oba'
p2714
ag305
aS'skit'
p2715
aaa(lp2716
S'HAROLD'
p2717
a(lp2718
S'Whats'
p2719
aS'an'
p2720
aS'Oba'
p2721
aS'Oba'
p2722
aS'skit'
p2723
aaa(lp2724
S'JAMIE'
p2725
a(lp2726
S'Oba'
p2727
aS'Oba'
p2728
aaa(lp2729
g2725
a(lp2730
S'oh'
p2731
aS'the'
p2732
aS'Brazilian'
p2733
aS'troop'
p2734
aS'that'
p2735
aS'was'
p2736
aS'here'
p2737
aaa(lp2738
g2725
a(lp2739
S'dancing'
p2740
aaa(lp2741
S'MILES'
p2742
a(lp2743
S'Yeah'
p2744
aaa(lp2745
S'PETE'
p2746
a(lp2747
S'Oh'
p2748
aS'yeah'
p2749
aaa(lp2750
S'JAMIE'
p2751
a(lp2752
g16
aS'never'
p2753
aS'saw'
p2754
aS'that'
p2755
aaa(lp2756
S'PETE'
p2757
a(lp2758
S'Look'
p2759
aS'like'
p2760
aaa(lp2761
g2757
a(lp2762
g8
aS'real'
p2763
aaa(lp2764
g2757
a(lp2765
S'an'
p2766
aS'actual'
p2767
aS'person'
p2768
aS'doing'
p2769
aS'it'
p2770
aaa(lp2771
g2757
a(lp2772
S'or'
p2773
aS'some'
p2774
aS'kind'
p2775
aS'of'
p2776
aS'masks'
p2777
aS'they'
p2778
aS'had'
p2779
aaa(lp2780
g2757
a(lp2781
S'or'
p2782
aaa(lp2783
S'MILES'
p2784
a(lp2785
S'No'
p2786
aaa(lp2787
g2784
a(lp2788
S'Uh'
p2789
aaa(lp2790
g2784
a(lp2791
S'the'
p2792
aS'guy'
p2793
aS'looked'
p2794
aS'like'
p2795
aS'that'
p2796
aaa(lp2797
S'PETE'
p2798
a(lp2799
S'Or'
p2800
aS'theres'
p2801
ag8
aS'guy'
p2802
aS'looked'
p2803
aS'like'
p2804
aS'that'
p2805
aaa(lp2806
S'JAMIE'
p2807
a(lp2808
aa(lp2809
S'HAROLD'
p2810
a(lp2811
S'Yeah'
p2812
aaa(lp2813
S'PETE'
p2814
a(lp2815
aa(lp2816
g2814
a(lp2817
S'Thats'
p2818
aS'pretty'
p2819
aS'good'
p2820
aaa(lp2821
S'MILES'
p2822
a(lp2823
g65
aS'Just'
p2824
aS'like'
p2825
aS'him'
p2826
aaa(lp2827
S'JAMIE'
p2828
a(lp2829
aa(lp2830
S'HAROLD'
p2831
a(lp2832
g65
aS'With'
p2833
aS'the'
p2834
aS'right'
p2835
ag65
aaa(lp2836
S'MILES'
p2837
a(lp2838
g16
aS'mean'
p2839
aS'that'
p2840
aS'looks'
p2841
aS'kinda'
p2842
aS'like'
p2843
ag8
aS'Black'
p2844
aS'person'
p2845
aaa(lp2846
S'HAROLD'
p2847
a(lp2848
S'SM'
p2849
aS'With'
p2850
aS'red'
p2851
aS'eyes'
p2852
aaa(lp2853
g2847
a(lp2854
S'and'
p2855
aS'everything'
p2856
aS'SM'
p2857
aaa(lp2858
S'MILES'
p2859
a(lp2860
S'So'
p2861
aS'where'
p2862
aS'is'
p2863
aS'this'
p2864
aS'from'
p2865
aaa(lp2866
g2859
a(lp2867
S'This'
p2868
aS'isnt'
p2869
aS'from'
p2870
aS'Africa'
p2871
aaa(lp2872
g2859
a(lp2873
S'is'
p2874
aS'it'
p2875
aaa(lp2876
S'HAROLD'
p2877
a(lp2878
S'No'
p2879
aaa(lp2880
g2877
a(lp2881
S'From'
p2882
aS'Indonesia'
p2883
aaa(lp2884
S'MILES'
p2885
a(lp2886
S'But'
p2887
aS'that'
p2888
aS'person'
p2889
aS'looks'
p2890
aS'Black'
p2891
aaa(lp2892
S'PETE'
p2893
a(lp2894
S'Which'
p2895
aS'one'
p2896
aS'is'
p2897
aS'it'
p2898
aaa(lp2899
S'MILES'
p2900
a(lp2901
S'Or'
p2902
aS'do'
p2903
aS'Indonesian'
p2904
aS'people'
p2905
aS'look'
p2906
aS'Black'
p2907
aaa(lp2908
S'JAMIE'
p2909
a(lp2910
S'Looks'
p2911
aS'pink'
p2912
aS'to'
p2913
aS'me'
p2914
aaa(lp2915
S'PETE'
p2916
a(lp2917
S'The'
p2918
aaa(lp2919
g2916
a(lp2920
S'which'
p2921
aS'one'
p2922
aaa(lp2923
g2916
a(lp2924
S'The'
p2925
aaa(lp2926
S'MILES'
p2927
a(lp2928
g16
aS'figure'
p2929
aS'the'
p2930
aS'second'
p2931
aS'one'
p2932
aS'from'
p2933
aS'the'
p2934
aS'top'
p2935
aaa(lp2936
S'HAROLD'
p2937
a(lp2938
S'Tumenggung'
p2939
aaa(lp2940
S'JAMIE'
p2941
a(lp2942
S'The'
p2943
aS'second'
p2944
aS'from'
p2945
aS'the'
p2946
aS'top'
p2947
aaa(lp2948
S'PETE'
p2949
a(lp2950
S'Tumenggung'
p2951
aaa(lp2952
g2949
a(lp2953
S'Hunh'
p2954
aaa(lp2955
S'MILES'
p2956
a(lp2957
g16
aS'look'
p2958
aS'at'
p2959
aS'that'
p2960
aS'and'
p2961
aS'think'
p2962
aaa(lp2963
g2956
a(lp2964
S'yeah'
p2965
aaa(lp2966
g2956
a(lp2967
S'that'
p2968
aS'looks'
p2969
aS'like'
p2970
ag8
aS'brother'
p2971
aaa(lp2972
S'PETE'
p2973
a(lp2974
S'Thats'
p2975
aS'interesting'
p2976
aaa(lp2977
S'JAMIE'
p2978
a(lp2979
aa(lp2980
S'PETE'
p2981
a(lp2982
S'cause'
p2983
ag16
aS'think'
p2984
aS'Indo'
p2985
aS'Indonesians'
p2986
aaa(lp2987
S'JAMIE'
p2988
a(lp2989
S'think'
p2990
aaa(lp2991
S'PETE'
p2992
a(lp2993
S'or'
p2994
aaa(lp2995
g2992
a(lp2996
S'people'
p2997
aS'whove'
p2998
aS'been'
p2999
aS'to'
p3000
aS'Indonesia'
p3001
aaa(lp3002
g2992
a(lp3003
S'think'
p3004
aS'that'
p3005
aS'those'
p3006
aS'guys'
p3007
aaa(lp3008
g2992
a(lp3009
S'like'
p3010
aS'the'
p3011
aS'two'
p3012
aS'top'
p3013
aS'ones'
p3014
aaa(lp3015
g2992
a(lp3016
S'have'
p3017
aS'really'
p3018
aS'European'
p3019
aS'characteristics'
p3020
aaa(lp3021
g2992
a(lp3022
S'compared'
p3023
aS'to'
p3024
aS'Indonesians'
p3025
aaa(lp3026
S'JAMIE'
p3027
a(lp3028
S'Uh'
p3029
aaa(lp3030
S'PETE'
p3031
a(lp3032
S'Just'
p3033
aS'cause'
p3034
aS'their'
p3035
aS'eyes'
p3036
aS'are'
p3037
aS'real'
p3038
aS'big'
p3039
aS'and'
p3040
aS'their'
p3041
aS'noses'
p3042
aS'are'
p3043
aS'big'
p3044
aaa(lp3045
S'HAROLD'
p3046
a(lp3047
S'Their'
p3048
aS'eyes'
p3049
aS'are'
p3050
aS'round'
p3051
aaa(lp3052
S'JAMIE'
p3053
a(lp3054
S'Oh'
p3055
aS'really'
p3056
aaa(lp3057
S'PETE'
p3058
a(lp3059
S'And'
p3060
aS'Indonesians'
p3061
aS'have'
p3062
aS'real'
p3063
aS'thin'
p3064
aS'eyes'
p3065
aaa(lp3066
g3058
a(lp3067
S'and'
p3068
aaa(lp3069
g3058
a(lp3070
S'and'
p3071
aS'flat'
p3072
aS'noses'
p3073
aS'and'
p3074
aS'stuff'
p3075
aaa(lp3076
g3058
a(lp3077
g2535
ag16
aS'dont'
p3078
aS'know'
p3079
ag2535
aaa(lp3080
S'HAROLD'
p3081
a(lp3082
S'Except'
p3083
aS'those'
p3084
aaa(lp3085
g3081
a(lp3086
S'well'
p3087
aaa(lp3088
g3081
a(lp3089
g16
aS'dont'
p3090
aS'know'
p3091
aaa(lp3092
g3081
a(lp3093
S'the'
p3094
aaa(lp3095
g3081
a(lp3096
S'the'
p3097
aS'bottom'
p3098
aS'ones'
p3099
aS'dont'
p3100
aS'have'
p3101
aS'flat'
p3102
aS'noses'
p3103
aS'either'
p3104
aaa(lp3105
S'PETE'
p3106
a(lp3107
S'Thats'
p3108
ag65
aS'true'
p3109
ag65
aS'they'
p3110
aS'all'
p3111
aS'have'
p3112
ag497
aaa(lp3113
g3106
a(lp3114
S'they'
p3115
aS'all'
p3116
aS'have'
p3117
aS'big'
p3118
aS'noses'
p3119
aaa(lp3120
g3106
a(lp3121
S'But'
p3122
aS'they'
p3123
aS'get'
p3124
aS'bigger'
p3125
aS'as'
p3126
aS'you'
p3127
aS'go'
p3128
aS'up'
p3129
aS'anyway'
p3130
aaa(lp3131
S'HAROLD'
p3132
a(lp3133
S'What'
p3134
aS'do'
p3135
aS'you'
p3136
aS'think'
p3137
aS'makes'
p3138
aS'em'
p3139
aS'look'
p3140
aS'African'
p3141
aaa(lp3142
S'JAMIE'
p3143
a(lp3144
S'Their'
p3145
aS'mustaches'
p3146
aaa(lp3147
S'HAROLD'
p3148
a(lp3149
S'Is'
p3150
aS'it'
p3151
aS'the'
p3152
aaa(lp3153
g3148
a(lp3154
S'the'
p3155
aS'way'
p3156
aS'their'
p3157
aS'little'
p3158
aS'beard'
p3159
aS'goes'
p3160
aaa(lp3161
S'JAMIE'
p3162
a(lp3163
aa(lp3164
S'MILES'
p3165
a(lp3166
S'Oh'
p3167
aS'no'
p3168
aaa(lp3169
g3165
a(lp3170
S'Thats'
p3171
aS'not'
p3172
aS'even'
p3173
aS'relevant'
p3174
aaa(lp3175
g3165
a(lp3176
g16
ag2236
aaa(lp3177
g3165
a(lp3178
g16
aS'just'
p3179
aS'glanced'
p3180
aS'at'
p3181
aS'that'
p3182
aaa(lp3183
S'PETE'
p3184
a(lp3185
S'Hunh'
p3186
aaa(lp3187
S'MILES'
p3188
a(lp3189
S'and'
p3190
ag16
aS'immediately'
p3191
aS'saw'
p3192
aS'this'
p3193
aS'guys'
p3194
aS'face'
p3195
aS'in'
p3196
aS'Oba'
p3197
aS'Oba'
p3198
aaa(lp3199
S'PETE'
p3200
a(lp3201
S'Yeah'
p3202
aaa(lp3203
g3200
a(lp3204
S'Hunh'
p3205
aaa(lp3206
g3200
a(lp3207
g2535
aS'Thats'
p3208
aS'interesting'
p3209
ag2535
aaa(lp3210
S'MILES'
p3211
a(lp3212
S'He'
p3213
aS'looks'
p3214
aS'like'
p3215
aS'that'
p3216
aS'guy'
p3217
aaa(lp3218
S'JAMIE'
p3219
a(lp3220
S'Poor'
p3221
aS'guy'
p3222
aaa(lp3223
S'HAROLD'
p3224
a(lp3225
S'That'
p3226
aS'is'
p3227
aS'really'
p3228
aS'interesting'
p3229
aaa(lp3230
S'JAMIE'
p3231
a(lp3232
aa(lp3233
S'PETE'
p3234
a(lp3235
aa(lp3236
S'JAMIE'
p3237
a(lp3238
aa(lp3239
S'PETE'
p3240
a(lp3241
S'Yeah'
p3242
aaa(lp3243
S'JAMIE'
p3244
a(lp3245
S'Bulging'
p3246
aS'eyes'
p3247
aaa(lp3248
S'MILES'
p3249
a(lp3250
S'Cause'
p3251
ag16
aS'remember'
p3252
aaa(lp3253
g3249
a(lp3254
S'he'
p3255
aS'came'
p3256
aS'to'
p3257
aS'Bahia'
p3258
aS'after'
p3259
aS'one'
p3260
aS'of'
p3261
aS'his'
p3262
aS'shows'
p3263
aS'one'
p3264
aS'night'
p3265
aaa(lp3266
g3249
a(lp3267
g546
aS'kinda'
p3268
aS'funny'
p3269
aaa(lp3270
S'JAMIE'
p3271
a(lp3272
S'Wow'
p3273
aaa(lp3274
S'HAROLD'
p3275
a(lp3276
S'Well'
p3277
aS'the'
p3278
aS'top'
p3279
aS'guy'
p3280
aS'has'
p3281
ag8
aS'real'
p3282
aS'thick'
p3283
aS'lip'
p3284
aaa(lp3285
S'MILES'
p3286
a(lp3287
S'Oh'
p3288
aS'in'
p3289
aS'his'
p3290
aS'black'
p3291
aS'leather'
p3292
aS'jacket'
p3293
aS'and'
p3294
aS'his'
p3295
aS'black'
p3296
aaa(lp3297
S'PETE'
p3298
a(lp3299
S'Mm'
p3300
aaa(lp3301
S'HAROLD'
p3302
a(lp3303
S'Klana'
p3304
aS'has'
p3305
ag8
aS'real'
p3306
aS'thick'
p3307
aS'lip'
p3308
aaa(lp3309
S'MILES'
p3310
a(lp3311
S'hood'
p3312
aS'hat'
p3313
aaa(lp3314
S'PETE'
p3315
a(lp3316
S'Right'
p3317
aaa(lp3318
S'MILES'
p3319
a(lp3320
aa(lp3321
S'PETE'
p3322
a(lp3323
S'Pretty'
p3324
aS'bad'
p3325
aS'overbite'
p3326
aS'too'
p3327
aaa(lp3328
S'MILES'
p3329
a(lp3330
S'Hes'
p3331
aS'in'
p3332
aS'Oba'
p3333
aS'Oba'
p3334
aaa(lp3335
S'PETE'
p3336
a(lp3337
S'you'
p3338
aS'know'
p3339
aaa(lp3340
S'MILES'
p3341
a(lp3342
S'smoking'
p3343
aaa(lp3344
g3341
a(lp3345
S'He'
p3346
aS'didnt'
p3347
aaa(lp3348
S'HAROLD'
p3349
a(lp3350
S'Yeah'
p3351
aaa(lp3352
S'PETE'
p3353
a(lp3354
aa(lp3355
S'MILES'
p3356
a(lp3357
S'Then'
p3358
aS'he'
p3359
aS'tried'
p3360
aS'to'
p3361
aaa(lp3362
g3356
a(lp3363
S'He'
p3364
aS'danced'
p3365
aS'with'
p3366
ag8
aS'friend'
p3367
aS'of'
p3368
aS'mine'
p3369
aaa(lp3370
S'JAMIE'
p3371
a(lp3372
S'Yeah'
p3373
aaa(lp3374
g3371
a(lp3375
S'what'
p3376
aS'happened'
p3377
aaa(lp3378
S'MILES'
p3379
a(lp3380
S'But'
p3381
aS'she'
p3382
aS'didnt'
p3383
aS'wanna'
p3384
aS'dance'
p3385
aS'with'
p3386
aS'him'
p3387
aS'anymore'
p3388
aaa(lp3389
g3379
a(lp3390
g65
ag16
ag65
aS'said'
p3391
aaa(lp3392
g3379
a(lp3393
S'boy'
p3394
aaa(lp3395
g3379
a(lp3396
S'he'
p3397
aS'just'
p3398
aS'wanted'
p3399
aS'to'
p3400
aS'get'
p3401
aS'close'
p3402
aS'to'
p3403
aS'me'
p3404
aaa(lp3405
S'HAROLD'
p3406
a(lp3407
S'Oo'
p3408
aaa(lp3409
S'JAMIE'
p3410
a(lp3411
S'Oo'
p3412
aaa(lp3413
S'PETE'
p3414
a(lp3415
S'Mm'
p3416
aaa(lp3417
S'MILES'
p3418
a(lp3419
g16
aS'said'
p3420
aaa(lp3421
g3418
a(lp3422
S'well'
p3423
aaa(lp3424
g3418
a(lp3425
S'cant'
p3426
aS'blame'
p3427
aS'him'
p3428
aaa(lp3429
S'HAROLD'
p3430
a(lp3431
S'Oba'
p3432
aS'Oba'
p3433
aaa(lp3434
S'MILES'
p3435
a(lp3436
aa(lp3437
S'PETE'
p3438
a(lp3439
S'm_yeah'
p3440
aaa(lp3441
S'JAMIE'
p3442
a(lp3443
S'Gross'
p3444
aaa(lp3445
S'PETE'
p3446
a(lp3447
S'Mm'
p3448
aaa(lp3449
S'MILES'
p3450
a(lp3451
S'But'
p3452
aS'Im'
p3453
aS'sure'
p3454
aS'those'
p3455
aS'guys'
p3456
aS'get'
p3457
ag8
aS'lot'
p3458
aS'of'
p3459
aS'attention'
p3460
aS'from'
p3461
aS'women'
p3462
aaa(lp3463
g3450
a(lp3464
S'They'
p3465
aS'travel'
p3466
aS'all'
p3467
aS'over'
p3468
aS'the'
p3469
aS'world'
p3470
aaa(lp3471
g3450
a(lp3472
S'Im'
p3473
aS'sure'
p3474
ag8
aS'lot'
p3475
aS'of'
p3476
aS'women'
p3477
aS'throw'
p3478
aS'themselves'
p3479
aS'at'
p3480
aS'em'
p3481
aaa(lp3482
g3450
a(lp3483
S'so'
p3484
aS'thats'
p3485
aS'what'
p3486
aS'they'
p3487
aS'expect'
p3488
aS'from'
p3489
aS'women'
p3490
aaa(lp3491
S'HAROLD'
p3492
a(lp3493
g1895
aS'lot'
p3494
aS'of'
p3495
aS'groupies'
p3496
aaa(lp3497
S'MILES'
p3498
a(lp3499
S'Yeah'
p3500
aaa(lp3501
g3498
a(lp3502
S'Fringe'
p3503
aS'benefits'
p3504
aaa(lp3505
S'PETE'
p3506
a(lp3507
S'Hm'
p3508
aaa(lp3509
S'MILES'
p3510
a(lp3511
aa(lp3512
S'JAMIE'
p3513
a(lp3514
S'The'
p3515
aS'only'
p3516
aS'fringe'
p3517
aS'benefit'
p3518
ag65
aS'of'
p3519
ag65
aS'being'
p3520
ag8
aS'dancer'
p3521
aaa(lp3522
g3513
a(lp3523
S'probably'
p3524
aaa(lp3525
S'HAROLD'
p3526
a(lp3527
S'Well'
p3528
aS'in'
p3529
aS'San'
p3530
aS'Francisco'
p3531
aaa(lp3532
S'MILES'
p3533
a(lp3534
S'But'
p3535
aS'then'
p3536
aS'again'
p3537
aaa(lp3538
S'HAROLD'
p3539
a(lp3540
S'you'
p3541
aS'never'
p3542
aS'know'
p3543
aS'if'
p3544
aS'its'
p3545
ag8
aS'benefit'
p3546
aS'or'
p3547
aS'not'
p3548
aaa(lp3549
g3539
a(lp3550
S'either'
p3551
aaa(lp3552
S'JAMIE'
p3553
a(lp3554
S'Thats'
p3555
aS'true'
p3556
aaa(lp3557
S'PETE'
p3558
a(lp3559
aa(lp3560
S'MILES'
p3561
a(lp3562
aa(lp3563
g3561
a(lp3564
g16
aS'didnt'
p3565
aS'know'
p3566
aS'this'
p3567
aaa(lp3568
g3561
a(lp3569
S'but'
p3570
aS'apparently'
p3571
aS'in'
p3572
aS'Brazil'
p3573
aaa(lp3574
g3561
a(lp3575
S'they'
p3576
aS'have'
p3577
ag8
aS'very'
p3578
aS'very'
p3579
aS'high'
p3580
aS'AIDS'
p3581
aS'infection'
p3582
aS'rate'
p3583
aaa(lp3584
S'HAROLD'
p3585
a(lp3586
S'Really'
p3587
aaa(lp3588
S'JAMIE'
p3589
a(lp3590
S'Oh'
p3591
aaa(lp3592
S'PETE'
p3593
a(lp3594
S'Oh'
p3595
aaa(lp3596
S'JAMIE'
p3597
a(lp3598
S'probably'
p3599
ag65
aaa(lp3600
S'MILES'
p3601
a(lp3602
S'Its'
p3603
aS'supposed'
p3604
aS'to'
p3605
aS'be'
p3606
aS'very'
p3607
aS'high'
p3608
aaa(lp3609
S'PETE'
p3610
a(lp3611
S'Mm'
p3612
aaa(lp3613
S'HAROLD'
p3614
a(lp3615
S'You'
p3616
aS'mean'
p3617
aS'like'
p3618
aaa(lp3619
S'JAMIE'
p3620
a(lp3621
S'Very'
p3622
aS'unmonitored'
p3623
aaa(lp3624
S'HAROLD'
p3625
a(lp3626
S'higher'
p3627
aS'than'
p3628
aS'the'
p3629
aS'United'
p3630
aS'State'
p3631
aaa(lp3632
S'JAMIE'
p3633
a(lp3634
S'too'
p3635
aaa(lp3636
S'HAROLD'
p3637
a(lp3638
S'Higher'
p3639
aS'than'
p3640
aS'around'
p3641
aS'here'
p3642
aaa(lp3643
S'MILES'
p3644
a(lp3645
S'Thats'
p3646
aS'what'
p3647
aS'Ive'
p3648
aS'heard'
p3649
aaa(lp3650
S'PETE'
p3651
a(lp3652
S'Hm'
p3653
aaa(lp3654
S'JAMIE'
p3655
a(lp3656
g2535
ag16
aS'wouldnt'
p3657
aS'be'
p3658
aS'surprised'
p3659
ag2535
aaa(lp3660
S'HAROLD'
p3661
a(lp3662
S'Have'
p3663
aS'you'
p3664
aS'heard'
p3665
aS'these'
p3666
aS'figures'
p3667
aaa(lp3668
g3661
a(lp3669
S'that'
p3670
aS'like'
p3671
aaa(lp3672
g3661
a(lp3673
S'um'
p3674
aaa(lp3675
g3661
a(lp3676
S'its'
p3677
aS'something'
p3678
aS'like'
p3679
aS'forty'
p3680
aS'percent'
p3681
aS'of'
p3682
aS'males'
p3683
aaa(lp3684
g3661
a(lp3685
S'in'
p3686
aS'the'
p3687
aS'Bay'
p3688
aS'Area'
p3689
aaa(lp3690
g3661
a(lp3691
S'are'
p3692
aS'supposed'
p3693
aS'to'
p3694
aS'be'
p3695
aS'infected'
p3696
aaa(lp3697
S'ENV'
p3698
a(lp3699
aa(lp3700
S'MILES'
p3701
a(lp3702
S'Well'
p3703
aaa(lp3704
g3701
a(lp3705
S'last'
p3706
aS'July'
p3707
aaa(lp3708
S'PETE'
p3709
a(lp3710
S'Oh'
p3711
aS'really'
p3712
aaa(lp3713
S'MILES'
p3714
a(lp3715
S'this'
p3716
aS'is'
p3717
aS'what'
p3718
aaa(lp3719
S'JAMIE'
p3720
a(lp3721
S'Of'
p3722
aS'homosexual'
p3723
aS'males'
p3724
aaa(lp3725
g3720
a(lp3726
S'or'
p3727
aS'of'
p3728
aS'males'
p3729
aaa(lp3730
S'PETE'
p3731
a(lp3732
S'Of'
p3733
aS'all'
p3734
aS'males'
p3735
aaa(lp3736
S'HAROLD'
p3737
a(lp3738
S'Of'
p3739
aS'males'
p3740
aS'in'
p3741
aS'general'
p3742
aaa(lp3743
S'MILES'
p3744
a(lp3745
S'This'
p3746
aS'infectious'
p3747
aS'disease'
p3748
aS'woman'
p3749
aaa(lp3750
S'HAROLD'
p3751
a(lp3752
S'Or'
p3753
aS'males'
p3754
aS'under'
p3755
aS'thirty'
p3756
ag16
aS'think'
p3757
aS'it'
p3758
aS'is'
p3759
aaa(lp3760
S'MILES'
p3761
a(lp3762
S'at'
p3763
aS'San'
p3764
aS'Francisco'
p3765
aS'General'
p3766
aaa(lp3767
S'PETE'
p3768
a(lp3769
S'Mhm'
p3770
aaa(lp3771
S'MILES'
p3772
a(lp3773
S'she'
p3774
aS'said'
p3775
aS'that'
p3776
aaa(lp3777
g3772
a(lp3778
S'this'
p3779
aS'doesnt'
p3780
aS'seem'
p3781
aS'like'
p3782
aS'it'
p3783
aS'can'
p3784
aS'be'
p3785
aS'true'
p3786
aaa(lp3787
g3772
a(lp3788
S'but'
p3789
aS'she'
p3790
aS'said'
p3791
aS'that'
p3792
aaa(lp3793
g3772
a(lp3794
S'ninety'
p3795
aS'per'
p3796
aS'cent'
p3797
aS'of'
p3798
aS'gay'
p3799
aS'men'
p3800
aaa(lp3801
g3772
a(lp3802
S'are'
p3803
aS'HIV'
p3804
aS'positive'
p3805
aaa(lp3806
g3772
a(lp3807
S'and'
p3808
aS'fifty'
p3809
aS'percent'
p3810
aS'of'
p3811
aS'all'
p3812
aS'males'
p3813
aaa(lp3814
g3772
a(lp3815
S'are'
p3816
aS'HIV'
p3817
aS'positive'
p3818
aaa(lp3819
S'HAROLD'
p3820
a(lp3821
S'Yeah'
p3822
aaa(lp3823
S'MILES'
p3824
a(lp3825
S'Thats'
p3826
aS'what'
p3827
aS'she'
p3828
aS'said'
p3829
aaa(lp3830
S'HAROLD'
p3831
a(lp3832
S'Fifty'
p3833
aS'perc'
p3834
aaa(lp3835
g3831
a(lp3836
S'It'
p3837
aS'was'
p3838
aS'some'
p3839
aaa(lp3840
g3831
a(lp3841
S'Like'
p3842
aaa(lp3843
g3831
a(lp3844
g8
aS'm'
p3845
aaa(lp3846
g3831
a(lp3847
S'half'
p3848
aS'or'
p3849
aS'more'
p3850
aS'than'
p3851
aS'half'
p3852
aS'of'
p3853
aaa(lp3854
g3831
a(lp3855
S'and'
p3856
aS'it'
p3857
aS'was'
p3858
aS'fairly'
p3859
aS'young'
p3860
aS'men'
p3861
aaa(lp3862
g3831
a(lp3863
S'but'
p3864
aaa(lp3865
g3831
a(lp3866
S'were'
p3867
aaa(lp3868
g3831
a(lp3869
S'had'
p3870
aS'been'
p3871
aS'exposed'
p3872
aS'to'
p3873
aS'HIV'
p3874
aS'virus'
p3875
aaa(lp3876
g3831
a(lp3877
S'It'
p3878
aS'wasnt'
p3879
aS'necessarily'
p3880
aS'that'
p3881
aS'they'
p3882
aS'were'
p3883
aS'infected'
p3884
aaa(lp3885
S'MILES'
p3886
a(lp3887
S'Well'
p3888
aaa(lp3889
g3886
a(lp3890
S'if'
p3891
aS'youre'
p3892
aS'HIV'
p3893
aS'positive'
p3894
aaa(lp3895
g3886
a(lp3896
S'its'
p3897
aS'the'
p3898
aS'same'
p3899
aS'difference'
p3900
aaa(lp3901
S'HAROLD'
p3902
a(lp3903
S'Mhm'
p3904
aaa(lp3905
S'MILES'
p3906
a(lp3907
S'since'
p3908
aS'they'
p3909
aS'feel'
p3910
aS'that'
p3911
aaa(lp3912
g3906
a(lp3913
S'sooner'
p3914
aS'or'
p3915
aS'later'
p3916
aS'youll'
p3917
aS'come'
p3918
aS'down'
p3919
aS'with'
p3920
aS'the'
p3921
aS'actual'
p3922
aS'disease'
p3923
aaa(lp3924
S'PETE'
p3925
a(lp3926
S'Mhm'
p3927
aaa(lp3928
S'JAMIE'
p3929
a(lp3930
S'Yeah'
p3931
aaa(lp3932
S'MILES'
p3933
a(lp3934
S'But'
p3935
aS'thats'
p3936
aS'what'
p3937
aS'she'
p3938
aS'said'
p3939
aaa(lp3940
g3933
a(lp3941
S'Now'
p3942
ag16
aS'dont'
p3943
aS'know'
p3944
aS'if'
p3945
aS'she'
p3946
aS'meant'
p3947
aS'the'
p3948
aS'Bay'
p3949
aS'area'
p3950
aS'or'
p3951
aS'San'
p3952
aS'Francisco'
p3953
aaa(lp3954
S'JAMIE'
p3955
a(lp3956
g65
aaa(lp3957
S'MILES'
p3958
a(lp3959
S'but'
p3960
aS'those'
p3961
aS'are'
p3962
aS'some'
p3963
aS'ferocious'
p3964
aS'numbers'
p3965
aaa(lp3966
g3958
a(lp3967
S'if'
p3968
aS'one'
p3969
aS'out'
p3970
aS'of'
p3971
aaa(lp3972
S'PETE'
p3973
a(lp3974
S'Yeah'
p3975
aaa(lp3976
S'JAMIE'
p3977
a(lp3978
S'Thats'
p3979
ag65
aS'just'
p3980
ag65
aS'horrible'
p3981
aaa(lp3982
S'MILES'
p3983
a(lp3984
S'two'
p3985
aS'guys'
p3986
aaa(lp3987
g3983
a(lp3988
S'you'
p3989
aS'meet'
p3990
aaa(lp3991
S'HAROLD'
p3992
a(lp3993
S'yeah'
p3994
aaa(lp3995
S'PETE'
p3996
a(lp3997
aa(lp3998
S'MILES'
p3999
a(lp4000
S'cause'
p4001
aS'therere'
p4002
ag8
aS'lot'
p4003
aS'of'
p4004
aS'women'
p4005
aS'out'
p4006
aS'there'
p4007
aS'who'
p4008
aS'apparently'
p4009
aS'dont'
p4010
aS'believe'
p4011
aS'in'
p4012
aS'using'
p4013
aS'condoms'
p4014
aaa(lp4015
S'PETE'
p4016
a(lp4017
S'Hm'
p4018
aaa(lp4019
S'MILES'
p4020
a(lp4021
S'Im'
p4022
aS'just'
p4023
aS'amazed'
p4024
aaa(lp4025
S'JAMIE'
p4026
a(lp4027
S'XX'
p4028
aS'dumb'
p4029
aS'move'
p4030
aaa(lp4031
S'HAROLD'
p4032
a(lp4033
S'See'
p4034
aS'Id'
p4035
aS'heard'
p4036
aS'that'
p4037
aS'it'
p4038
aS'was'
p4039
aS'mainly'
p4040
aaa(lp4041
S'JAMIE'
p4042
a(lp4043
S'Really'
p4044
aS'dumb'
p4045
aaa(lp4046
S'HAROLD'
p4047
a(lp4048
S'in'
p4049
aS'ts'
p4050
aS'mainly'
p4051
aS'urban'
p4052
aS'areas'
p4053
aaa(lp4054
S'PETE'
p4055
a(lp4056
S'Yeah'
p4057
aaa(lp4058
S'HAROLD'
p4059
a(lp4060
S'that'
p4061
aS'had'
p4062
aS'this'
p4063
aS'really'
p4064
aS'disproportionately'
p4065
aS'high'
p4066
aS'propor'
p4067
aaa(lp4068
g4059
a(lp4069
S'um'
p4070
aaa(lp4071
g4059
a(lp4072
S'percentage'
p4073
aaa(lp4074
g4059
a(lp4075
S'And'
p4076
aS'then'
p4077
aS'like'
p4078
aaa(lp4079
g4059
a(lp4080
g2216
aS'rural'
p4081
aS'areas'
p4082
aaa(lp4083
g4059
a(lp4084
S'or'
p4085
aaa(lp4086
g4059
a(lp4087
S'like'
p4088
aaa(lp4089
g4059
a(lp4090
S'you'
p4091
aS'know'
p4092
aaa(lp4093
g4059
a(lp4094
S'central'
p4095
aS'Iowa'
p4096
aS'and'
p4097
aS'stuff'
p4098
aaa(lp4099
g4059
a(lp4100
S'had'
p4101
aS'like'
p4102
aS'ten'
p4103
aS'percent'
p4104
aS'or'
p4105
aS'less'
p4106
aaa(lp4107
g4059
a(lp4108
S'of'
p4109
aS'the'
p4110
aS'males'
p4111
aaa(lp4112
g4059
a(lp4113
S'had'
p4114
aS'been'
p4115
aS'infected'
p4116
aaa(lp4117
S'MILES'
p4118
a(lp4119
S'Well'
p4120
ag16
aS'would'
p4121
aS'assume'
p4122
aS'San'
p4123
aS'Francisco'
p4124
aS'is'
p4125
aS'higher'
p4126
aS'than'
p4127
aS'most'
p4128
aS'cities'
p4129
aS'around'
p4130
aS'the'
p4131
ag65
aS'country'
p4132
ag65
aaa(lp4133
S'HAROLD'
p4134
a(lp4135
S'Unhunh'
p4136
aaa(lp4137
S'PETE'
p4138
a(lp4139
S'Mhm'
p4140
aaa(lp4141
S'MILES'
p4142
a(lp4143
S'But'
p4144
aaa(lp4145
g4142
a(lp4146
S'that'
p4147
aS'just'
p4148
aS'blew'
p4149
aS'me'
p4150
aS'away'
p4151
aaa(lp4152
g4142
a(lp4153
S'Cause'
p4154
aS'Im'
p4155
aS'thinking'
p4156
aS'well'
p4157
aS'gee'
p4158
aaa(lp4159
g4142
a(lp4160
S'if'
p4161
aS'half'
p4162
aS'of'
p4163
aS'all'
p4164
aS'the'
p4165
aS'men'
p4166
aS'are'
p4167
aS'HIV'
p4168
aS'positive'
p4169
aaa(lp4170
g4142
a(lp4171
S'what'
p4172
aS'does'
p4173
aS'that'
p4174
aS'mean'
p4175
aS'about'
p4176
aS'the'
p4177
aS'women'
p4178
aS'theyre'
p4179
aS'having'
p4180
aS'sex'
p4181
aS'with'
p4182
aaa(lp4183
S'PETE'
p4184
a(lp4185
S'Right'
p4186
aaa(lp4187
g4184
a(lp4188
S'Yeah'
p4189
aaa(lp4190
S'ENV'
p4191
a(lp4192
aa(lp4193
S'HAROLD'
p4194
a(lp4195
S'Well'
p4196
aaa(lp4197
S'MILES'
p4198
a(lp4199
S'But'
p4200
aaa(lp4201
g4198
a(lp4202
S'and'
p4203
aS'just'
p4204
aS'talking'
p4205
aS'with'
p4206
aS'guys'
p4207
aaa(lp4208
S'PETE'
p4209
a(lp4210
g65
aS'XX'
p4211
aaa(lp4212
S'MILES'
p4213
a(lp4214
S'in'
p4215
aS'their'
p4216
aS'twenties'
p4217
aaa(lp4218
g4213
a(lp4219
S'WH'
p4220
aS'why'
p4221
aS'WH'
p4222
aaa(lp4223
g4213
a(lp4224
g16
aS'mean'
p4225
aS'these'
p4226
aS'guys'
p4227
aaa(lp4228
g4213
a(lp4229
S'say'
p4230
aS'these'
p4231
aS'women'
p4232
aS'dont'
p4233
aS'care'
p4234
aS'if'
p4235
aS'they'
p4236
aS'use'
p4237
aS'rubbers'
p4238
aS'or'
p4239
aS'not'
p4240
aaa(lp4241
g4213
a(lp4242
S'This'
p4243
aS'is'
p4244
aS'what'
p4245
aS'guys'
p4246
aS'have'
p4247
aS'been'
p4248
aS'telling'
p4249
aS'me'
p4250
aaa(lp4251
S'JAMIE'
p4252
a(lp4253
aa(lp4254
S'MILES'
p4255
a(lp4256
S'you'
p4257
aS'know'
p4258
aaa(lp4259
g4255
a(lp4260
S'and'
p4261
aS'Im'
p4262
aS'thinking'
p4263
aaa(lp4264
g4255
a(lp4265
g16
ag16
aS'cant'
p4266
aS'believe'
p4267
aS'that'
p4268
aaa(lp4269
g4255
a(lp4270
S'cause'
p4271
aS'in'
p4272
aS'this'
p4273
aS'city'
p4274
aaa(lp4275
g4255
a(lp4276
S'with'
p4277
aS'all'
p4278
aS'the'
p4279
aS'information'
p4280
aS'available'
p4281
aaa(lp4282
S'HAROLD'
p4283
a(lp4284
S'It'
p4285
aS'seems'
p4286
aS'like'
p4287
aaa(lp4288
S'PETE'
p4289
a(lp4290
S'Right'
p4291
ag65
aS'yeah'
p4292
ag65
aaa(lp4293
S'JAMIE'
p4294
a(lp4295
S'Stupid'
p4296
aaa(lp4297
S'HAROLD'
p4298
a(lp4299
S'people'
p4300
aaa(lp4301
g4298
a(lp4302
S'people'
p4303
aS'have'
p4304
aS'the'
p4305
aS'information'
p4306
aS'they'
p4307
aS'need'
p4308
aaa(lp4309
S'MILES'
p4310
a(lp4311
S'It'
p4312
aS'is'
p4313
aS'just'
p4314
aS'amazing'
p4315
aaa(lp4316
g4310
a(lp4317
S'that'
p4318
aS'people'
p4319
aS'in'
p4320
aS'their'
p4321
aS'twenties'
p4322
aS'apparently'
p4323
aS'arent'
p4324
aaa(lp4325
S'PETE'
p4326
a(lp4327
S'Right'
p4328
aaa(lp4329
g4326
a(lp4330
S'Thats'
p4331
aS'really'
p4332
aS'scary'
p4333
aaa(lp4334
S'MILES'
p4335
a(lp4336
S'So'
p4337
ag16
aS'guess'
p4338
aS'its'
p4339
aS'time'
p4340
aS'for'
p4341
aS'me'
p4342
aS'to'
p4343
aS'become'
p4344
ag8
aS'priest'
p4345
aaa(lp4346
S'PETE'
p4347
a(lp4348
aa(lp4349
S'MILES'
p4350
a(lp4351
S'Its'
p4352
aS'too'
p4353
aS'dangerous'
p4354
aS'out'
p4355
aS'there'
p4356
aaa(lp4357
S'HAROLD'
p4358
a(lp4359
g65
aS'Oh'
p4360
ag65
aaa(lp4361
g4358
a(lp4362
g16
aS'dont'
p4363
aS'know'
p4364
aaa(lp4365
S'MILES'
p4366
a(lp4367
g16
aS'couldnt'
p4368
aS'believe'
p4369
aS'it'
p4370
aaa(lp4371
g4366
a(lp4372
S'This'
p4373
aS'woman'
p4374
ag16
aS'knew'
p4375
ag16
aS'was'
p4376
aS'gonna'
p4377
aS'ask'
p4378
aS'out'
p4379
aaa(lp4380
g4366
a(lp4381
S'BR'
p4382
aS'God'
p4383
aS'BR'
p4384
aaa(lp4385
S'HAROLD'
p4386
a(lp4387
S'You'
p4388
aS'have'
p4389
aS'to'
p4390
aS'be'
p4391
aS'Catholic'
p4392
aS'first'
p4393
aaa(lp4394
S'MILES'
p4395
a(lp4396
S'Her'
p4397
aS'sister'
p4398
aaa(lp4399
g4395
a(lp4400
S'whos'
p4401
aS'an'
p4402
aS'HIV'
p4403
aS'counselor'
p4404
aaa(lp4405
S'PETE'
p4406
a(lp4407
aa(lp4408
S'JAMIE'
p4409
a(lp4410
aa(lp4411
S'MILES'
p4412
a(lp4413
S'was'
p4414
aS'telling'
p4415
aS'me'
p4416
aS'how'
p4417
aS'her'
p4418
aS'sister'
p4419
aS'just'
p4420
aS'wont'
p4421
aS'use'
p4422
aS'rubbers'
p4423
aaa(lp4424
g4412
a(lp4425
S'HI'
p4426
aS'at'
p4427
aS'all'
p4428
aS'HI'
p4429
aaa(lp4430
S'JAMIE'
p4431
a(lp4432
S'Hm'
p4433
aaa(lp4434
S'HAROLD'
p4435
a(lp4436
S'Well'
p4437
aS'where'
p4438
aS'would'
p4439
aS'she'
p4440
aS'put'
p4441
aS'them'
p4442
aaa(lp4443
S'MILES'
p4444
a(lp4445
S'and'
p4446
aS'Im'
p4447
aS'thinking'
p4448
aaa(lp4449
S'PETE'
p4450
a(lp4451
aa(lp4452
S'MILES'
p4453
a(lp4454
S'Im'
p4455
aS'thinking'
p4456
aaa(lp4457
S'JAMIE'
p4458
a(lp4459
S'Well'
p4460
aaa(lp4461
S'MILES'
p4462
a(lp4463
S'how'
p4464
aS'can'
p4465
aS'you'
p4466
aS'not'
p4467
aaa(lp4468
S'JAMIE'
p4469
a(lp4470
S'my'
p4471
aS'sisters'
p4472
aS'dont'
p4473
aaa(lp4474
S'MILES'
p4475
a(lp4476
g16
aS'mean'
p4477
aaa(lp4478
g4475
a(lp4479
S'what'
p4480
aS'are'
p4481
aS'they'
p4482
aS'thinking'
p4483
aaa(lp4484
S'JAMIE'
p4485
a(lp4486
g2535
ag16
aS'dont'
p4487
aS'know'
p4488
ag2535
aaa(lp4489
S'HAROLD'
p4490
a(lp4491
S'Dont'
p4492
aS'look'
p4493
aS'at'
p4494
aS'me'
p4495
aaa(lp4496
S'MILES'
p4497
a(lp4498
g16
ag16
aS'was'
p4499
aS'just'
p4500
aS'really'
p4501
aS'amazed'
p4502
aS'to'
p4503
aS'hear'
p4504
aS'that'
p4505
aaa(lp4506
g4497
a(lp4507
S'people'
p4508
aS'in'
p4509
aS'their'
p4510
aS'twenties'
p4511
aaa(lp4512
S'JAMIE'
p4513
a(lp4514
S'Were'
p4515
aS'innocent'
p4516
aaa(lp4517
S'MILES'
p4518
a(lp4519
S'cause'
p4520
ag16
aS'figure'
p4521
aaa(lp4522
S'JAMIE'
p4523
a(lp4524
S'We'
p4525
aS'dont'
p4526
aS'have'
p4527
aS'sex'
p4528
aaa(lp4529
S'MILES'
p4530
a(lp4531
S'growing'
p4532
aS'up'
p4533
aS'around'
p4534
aS'here'
p4535
aaa(lp4536
g4530
a(lp4537
S'you'
p4538
aS'would'
p4539
aS'know'
p4540
aS'better'
p4541
aaa(lp4542
S'HAROLD'
p4543
a(lp4544
aa(lp4545
S'MILES'
p4546
a(lp4547
S'And'
p4548
aS'in'
p4549
aS'high'
p4550
aS'school'
p4551
aaa(lp4552
g4546
a(lp4553
S'you'
p4554
aS'know'
p4555
aaa(lp4556
g4546
a(lp4557
S'they'
p4558
aS'teach'
p4559
aS'about'
p4560
aS'it'
p4561
aaa(lp4562
S'PETE'
p4563
a(lp4564
S'Mhm'
p4565
aaa(lp4566
S'MILES'
p4567
a(lp4568
S'So'
p4569
aaa(lp4570
S'JAMIE'
p4571
a(lp4572
g16
aS'dont'
p4573
aS'know'
p4574
aaa(lp4575
S'HAROLD'
p4576
a(lp4577
S'Not'
p4578
aS'only'
p4579
aS'that'
p4580
aaa(lp4581
g4576
a(lp4582
S'but'
p4583
aS'they'
p4584
aS'have'
p4585
aS'really'
p4586
aS'lewd'
p4587
aS'billboards'
p4588
aS'all'
p4589
aS'over'
p4590
aS'the'
p4591
aS'Castro'
p4592
aS'district'
p4593
aaa(lp4594
S'ENV'
p4595
a(lp4596
aa(lp4597
S'JAMIE'
p4598
a(lp4599
S'Somethings'
p4600
aaa(lp4601
S'HAROLD'
p4602
a(lp4603
g16
aS'know'
p4604
aaa(lp4605
S'JAMIE'
p4606
a(lp4607
g16
aS'thought'
p4608
aS'we'
p4609
aS'got'
p4610
aS'our'
p4611
aS'electricity'
p4612
aS'fixed'
p4613
aaa(lp4614
S'HAROLD'
p4615
a(lp4616
S'thats'
p4617
aS'kind'
p4618
aS'of'
p4619
aS'scary'
p4620
aaa(lp4621
S'JAMIE'
p4622
a(lp4623
aa(lp4624
S'HAROLD'
p4625
a(lp4626
g16
aS'thought'
p4627
ag16
aS'turned'
p4628
aS'this'
p4629
aS'off'
p4630
aaa(lp4631
g4625
a(lp4632
g65
aS'though'
p4633
aaa(lp4634
S'PETE'
p4635
a(lp4636
S'Its'
p4637
aS'been'
p4638
aS'doing'
p4639
aaa(lp4640
S'HAROLD'
p4641
a(lp4642
S'didnt'
p4643
ag16
ag65
aaa(lp4644
S'PETE'
p4645
a(lp4646
S'Oh'
p4647
aaa(lp4648
g4645
a(lp4649
S'thats'
p4650
aS'right'
p4651
aaa(lp4652
S'JAMIE'
p4653
a(lp4654
g65
aS'But'
p4655
ag65
aaa(lp4656
S'PETE'
p4657
a(lp4658
S'you'
p4659
aS'did'
p4660
aaa(lp4661
g4657
a(lp4662
S'Thats'
p4663
aS'really'
p4664
aS'scary'
p4665
aS'then'
p4666
aaa(lp4667
S'MILES'
p4668
a(lp4669
S'This'
p4670
aS'is'
p4671
aS'salsa'
p4672
aaa(lp4673
g4668
a(lp4674
S'right'
p4675
aaa(lp4676
S'JAMIE'
p4677
a(lp4678
S'Yeah'
p4679
aaa(lp4680
S'MILES'
p4681
a(lp4682
S'What'
p4683
aS'what'
p4684
aaa(lp4685
g4681
a(lp4686
S'Who'
p4687
aS'is'
p4688
aS'this'
p4689
aaa(lp4690
S'JAMIE'
p4691
a(lp4692
g16
aS'dont'
p4693
aS'know'
p4694
aaa(lp4695
g4691
a(lp4696
S'its'
p4697
aS'from'
p4698
aS'the'
p4699
aS'radio'
p4700
aS'station'
p4701
aS'years'
p4702
aS'ago'
p4703
aS'when'
p4704
ag16
aS'was'
p4705
aS'in'
p4706
aS'Santa'
p4707
aS'Cruz'
p4708
aaa(lp4709
S'MILES'
p4710
a(lp4711
S'You'
p4712
aS'know'
p4713
aS'on'
p4714
aS'Sundays'
p4715
aaa(lp4716
g4710
a(lp4717
S'at'
p4718
aS'ten'
p4719
aS'oclock'
p4720
aaa(lp4721
S'JAMIE'
p4722
a(lp4723
S'Thats'
p4724
aS'right'
p4725
aS'now'
p4726
aaa(lp4727
S'MILES'
p4728
a(lp4729
S'Kay'
p4730
aaa(lp4731
g4728
a(lp4732
S'what'
p4733
aS'is'
p4734
aS'that'
p4735
aaa(lp4736
g4728
a(lp4737
S'Kay'
p4738
aaa(lp4739
g4728
a(lp4740
S'oh'
p4741
ag16
aS'dont'
p4742
aS'know'
p4743
aS'what'
p4744
aS'the'
p4745
aS'radio'
p4746
aS'station'
p4747
aS'is'
p4748
aaa(lp4749
S'JAMIE'
p4750
a(lp4751
S'They'
p4752
aS'play'
p4753
aS'Salsa'
p4754
aaa(lp4755
S'HAROLD'
p4756
a(lp4757
S'It'
p4758
aS'begins'
p4759
aS'with'
p4760
ag8
aS'kay'
p4761
aS'though'
p4762
aaa(lp4763
S'MILES'
p4764
a(lp4765
S'No'
p4766
aaa(lp4767
g4764
a(lp4768
S'they'
p4769
aS'played'
p4770
aS'this'
p4771
aaa(lp4772
S'PETE'
p4773
a(lp4774
aa(lp4775
S'MILES'
p4776
a(lp4777
S'They'
p4778
aS'have'
p4779
ag8
aS'Brazilian'
p4780
aS'jazz'
p4781
aS'hour'
p4782
aaa(lp4783
g4776
a(lp4784
S'Is'
p4785
aS'there'
p4786
ag8
aS'KKSF'
p4787
aaa(lp4788
g4776
a(lp4789
g16
aS'dont'
p4790
aS'know'
p4791
aS'what'
p4792
aS'it'
p4793
aS'was'
p4794
aaa(lp4795
g4776
a(lp4796
S'But'
p4797
aS'it'
p4798
aS'was'
p4799
aS'like'
p4800
ag16
aS'went'
p4801
aS'to'
p4802
aS'Bahia'
p4803
aaa(lp4804
S'JAMIE'
p4805
a(lp4806
S'Whats'
p4807
aaa(lp4808
S'MILES'
p4809
a(lp4810
S'last'
p4811
aS'Sunday'
p4812
aaa(lp4813
g4809
a(lp4814
S'got'
p4815
aS'there'
p4816
aS'at'
p4817
aS'eight'
p4818
aaa(lp4819
g4809
a(lp4820
S'left'
p4821
ag8
aS'ten'
p4822
aaa(lp4823
g4809
a(lp4824
S'dropped'
p4825
aS'this'
p4826
aS'person'
p4827
aS'off'
p4828
aS'at'
p4829
aS'home'
p4830
aaa(lp4831
g4809
a(lp4832
S'in'
p4833
aS'Foster'
p4834
aS'City'
p4835
aaa(lp4836
g4809
a(lp4837
S'and'
p4838
aS'came'
p4839
aS'back'
p4840
aaa(lp4841
g4809
a(lp4842
S'and'
p4843
ag16
ag65
aS'was'
p4844
aS'noticing'
p4845
aaa(lp4846
g4809
a(lp4847
S'the'
p4848
aS'songs'
p4849
aS'they'
p4850
aS'were'
p4851
aS'playing'
p4852
aS'on'
p4853
aS'the'
p4854
aS'radio'
p4855
aaa(lp4856
g4809
a(lp4857
S'were'
p4858
aS'the'
p4859
aS'exact'
p4860
aS'same'
p4861
aS'songs'
p4862
aS'they'
p4863
aS'were'
p4864
aS'singing'
p4865
aS'at'
p4866
aS'Bahia'
p4867
aaa(lp4868
g4809
a(lp4869
S'the'
p4870
ag497
aS'live'
p4871
aS'band'
p4872
aS'there'
p4873
aaa(lp4874
S'JAMIE'
p4875
a(lp4876
S'Hm'
p4877
aaa(lp4878
g4875
a(lp4879
S'should'
p4880
ag16
aS'turn'
p4881
aS'on'
p4882
aS'the'
p4883
aS'radio'
p4884
aS'statio'
p4885
aaa(lp4886
g4875
a(lp4887
S'You'
p4888
aS'dont'
p4889
aS'know'
p4890
aS'what'
p4891
aS'station'
p4892
aS'it'
p4893
aS'was'
p4894
aS'on'
p4895
aaa(lp4896
S'MILES'
p4897
a(lp4898
g16
ag16
aS'was'
p4899
aaa(lp4900
g4897
a(lp4901
g2535
aS'KKSF'
p4902
aaa(lp4903
g4897
a(lp4904
S'does'
p4905
aS'that'
p4906
aS'mean'
p4907
aS'anything'
p4908
aS'to'
p4909
aS'you'
p4910
ag2535
aaa(lp4911
S'HAROLD'
p4912
a(lp4913
S'Nope'
p4914
aaa(lp4915
g4912
a(lp4916
S'You'
p4917
aS'have'
p4918
aS'to'
p4919
aS'translate'
p4920
aS'it'
p4921
aS'to'
p4922
ag8
aS'number'
p4923
aaa(lp4924
S'MILES'
p4925
a(lp4926
g16
aS'was'
p4927
aS'in'
p4928
ag8
aS'rental'
p4929
aS'car'
p4930
aaa(lp4931
g4925
a(lp4932
S'so'
p4933
aS'it'
p4934
aS'was'
p4935
aS'just'
p4936
aS'whatever'
p4937
aS'station'
p4938
aS'it'
p4939
aS'was'
p4940
aS'on'
p4941
aaa(lp4942
S'JAMIE'
p4943
a(lp4944
S'Mm'
p4945
aaa(lp4946
S'MILES'
p4947
a(lp4948
aa(lp4949
S'PETE'
p4950
a(lp4951
S'Hm'
p4952
aaa(lp4953
S'MILES'
p4954
a(lp4955
S'But'
p4956
aS'uh'
p4957
aaa(lp4958
g4954
a(lp4959
g16
aS'was'
p4960
aS'just'
p4961
aS'remembering'
p4962
aS'being'
p4963
aS'surprised'
p4964
aaa(lp4965
g4954
a(lp4966
S'cause'
p4967
aaa(lp4968
g4954
a(lp4969
g16
aS'didnt'
p4970
aS'realize'
p4971
aaa(lp4972
g4954
a(lp4973
g16
aS'dont'
p4974
aS'know'
p4975
aS'anything'
p4976
aS'about'
p4977
aS'Brazilian'
p4978
aS'music'
p4979
aaa(lp4980
g4954
a(lp4981
S'You'
p4982
aS'go'
p4983
aS'to'
p4984
aS'the'
p4985
aS'Brazilian'
p4986
aS'club'
p4987
aaa(lp4988
g4954
a(lp4989
S'and'
p4990
aS'theyre'
p4991
aS'singing'
p4992
aS'songs'
p4993
aaa(lp4994
g4954
a(lp4995
S'apparently'
p4996
ag16
aS'guess'
p4997
aS'thats'
p4998
aS'the'
p4999
aS'popular'
p5000
aS'stuff'
p5001
aaa(lp5002
g4954
a(lp5003
g16
aS'guess'
p5004
aaa(lp5005
g4954
a(lp5006
S'Im'
p5007
aS'so'
p5008
aS'used'
p5009
aS'to'
p5010
aS'hearing'
p5011
aS'those'
p5012
aS'songs'
p5013
aaa(lp5014
g4954
a(lp5015
S'cause'
p5016
aS'Ive'
p5017
aS'heard'
p5018
aS'em'
p5019
aS'for'
p5020
aS'the'
p5021
aS'past'
p5022
aS'three'
p5023
aS'months'
p5024
aaa(lp5025
g4954
a(lp5026
g16
aS'didnt'
p5027
aS'think'
p5028
aS'anything'
p5029
aS'of'
p5030
aS'it'
p5031
aaa(lp5032
g4954
a(lp5033
S'but'
p5034
aS'then'
p5035
aaa(lp5036
g4954
a(lp5037
S'this'
p5038
aS'guy'
p5039
aS'played'
p5040
aS'songs'
p5041
aS'for'
p5042
ag8
aS'whole'
p5043
aS'hour'
p5044
aaa(lp5045
g4954
a(lp5046
S'and'
p5047
aS'it'
p5048
aS'was'
p5049
aS'like'
p5050
aaa(lp5051
g4954
a(lp5052
S'eighty'
p5053
aS'per'
p5054
aS'cent'
p5055
aS'of'
p5056
aS'those'
p5057
aS'songs'
p5058
aS'Id'
p5059
aaa(lp5060
g4954
a(lp5061
S'that'
p5062
aS'band'
p5063
aS'had'
p5064
aS'sung'
p5065
aS'that'
p5066
aS'very'
p5067
aS'night'
p5068
aaa(lp5069
S'JAMIE'
p5070
a(lp5071
S'Mhm'
p5072
aaa(lp5073
g5070
a(lp5074
S'Pickup'
p5075
aS'bands'
p5076
aS'pretty'
p5077
aS'good'
p5078
aS'there'
p5079
aaa(lp5080
g5070
a(lp5081
S'Viva'
p5082
aaa(lp5083
S'MILES'
p5084
a(lp5085
S'Well'
p5086
aS'they'
p5087
aS'have'
p5088
ag8
aS'different'
p5089
aS'band'
p5090
aS'every'
p5091
aS'night'
p5092
aaa(lp5093
S'JAMIE'
p5094
a(lp5095
S'Who'
p5096
aS'was'
p5097
aS'it'
p5098
aaa(lp5099
g5094
a(lp5100
S'Viva'
p5101
aS'Brazil'
p5102
aaa(lp5103
g5094
a(lp5104
S'Oh'
p5105
aaa(lp5106
g5094
a(lp5107
g16
aS'went'
p5108
aS'on'
p5109
aS'the'
p5110
aaa(lp5111
S'MILES'
p5112
a(lp5113
g65
aaa(lp5114
S'JAMIE'
p5115
a(lp5116
S'Friday'
p5117
aS'night'
p5118
aaa(lp5119
g5115
a(lp5120
S'so'
p5121
aS'maybe'
p5122
aS'it'
p5123
aS'was'
p5124
aS'different'
p5125
aS'band'
p5126
aaa(lp5127
S'MILES'
p5128
a(lp5129
S'Um'
p5130
aS'when'
p5131
aS'did'
p5132
aS'you'
p5133
aS'do'
p5134
aS'that'
p5135
aaa(lp5136
S'JAMIE'
p5137
a(lp5138
aa(lp5139
g5137
a(lp5140
S'Oh'
p5141
aaa(lp5142
g5137
a(lp5143
g8
aS'while'
p5144
aS'ago'
p5145
aaa(lp5146
g5137
a(lp5147
S'The'
p5148
aS'dance'
p5149
aS'floors'
p5150
aS'too'
p5151
aS'small'
p5152
aS'in'
p5153
aS'that'
p5154
aS'place'
p5155
aS'though'
p5156
aaa(lp5157
g5137
a(lp5158
S'Its'
p5159
aS'really'
p5160
aS'annoying'
p5161
aaa(lp5162
g5137
a(lp5163
g2535
ag16
aS'like'
p5164
aS'this'
p5165
aS'song'
p5166
ag2535
aaa(lp5167
S'MILES'
p5168
a(lp5169
S'Are'
p5170
aS'they'
p5171
aS'teaching'
p5172
aS'any'
p5173
aS'more'
p5174
aS'lambada'
p5175
aaa(lp5176
g5168
a(lp5177
S'at'
p5178
aS'uh'
p5179
aaa(lp5180
S'JAMIE'
p5181
a(lp5182
S'school'
p5183
aaa(lp5184
S'MILES'
p5185
a(lp5186
S'Yeah'
p5187
aaa(lp5188
S'HAROLD'
p5189
a(lp5190
S'Vivian'
p5191
aS'was'
p5192
aS'giving'
p5193
ag8
aS'lambada'
p5194
aS'lesson'
p5195
aaa(lp5196
S'MILES'
p5197
a(lp5198
S'Cause'
p5199
aS'uh'
p5200
aaa(lp5201
S'HAROLD'
p5202
a(lp5203
S'when'
p5204
ag16
aS'was'
p5205
aS'there'
p5206
ag65
aS'the'
p5207
aS'other'
p5208
aS'day'
p5209
ag65
aaa(lp5210
S'MILES'
p5211
a(lp5212
S'well'
p5213
aaa(lp5214
g5211
a(lp5215
S'my'
p5216
aS'lambadas'
p5217
aS'definitely'
p5218
aS'getting'
p5219
aS'better'
p5220
aaa(lp5221
S'JAMIE'
p5222
a(lp5223
S'Really'
p5224
aaa(lp5225
g5222
a(lp5226
S'Really'
p5227
aaa(lp5228
g5222
a(lp5229
g16
aS'wanna'
p5230
aS'go'
p5231
aS'out'
p5232
aS'lambada'
p5233
aS'dancing'
p5234
aS'with'
p5235
aS'you'
p5236
aaa(lp5237
g5222
a(lp5238
S'XX'
p5239
aaa(lp5240
S'MILES'
p5241
a(lp5242
g16
aS'mean'
p5243
aS'Im'
p5244
aS'gonna'
p5245
aS'start'
p5246
aS'dancing'
p5247
aS'with'
p5248
aS'those'
p5249
aS'Brazilian'
p5250
aS'women'
p5251
aaa(lp5252
g5241
a(lp5253
S'So'
p5254
ag16
aS'can'
p5255
aS'learn'
p5256
aS'how'
p5257
aS'to'
p5258
aS'beat'
p5259
aS'my'
p5260
aS'hips'
p5261
aaa(lp5262
g5241
a(lp5263
g16
aS'mean'
p5264
aaa(lp5265
g5241
a(lp5266
S'cause'
p5267
aS'their'
p5268
aS'their'
p5269
aS'hips'
p5270
aS'are'
p5271
aS'SLAPPING'
p5272
aS'beating'
p5273
aS'up'
p5274
aS'against'
p5275
aS'you'
p5276
aaa(lp5277
g5241
a(lp5278
S'you'
p5279
aS'know'
p5280
aaa(lp5281
g5241
a(lp5282
S'like'
p5283
aS'that'
p5284
aS'fast'
p5285
aS'SLAPPING'
p5286
aaa(lp5287
g5241
a(lp5288
g65
aaa(lp5289
g5241
a(lp5290
S'Hundred'
p5291
aS'cycles'
p5292
aS'per'
p5293
aS'second'
p5294
aaa(lp5295
g5241
a(lp5296
S'or'
p5297
aS'something'
p5298
aaa(lp5299
S'JAMIE'
p5300
a(lp5301
aa(lp5302
S'PETE'
p5303
a(lp5304
aa(lp5305
S'MILES'
p5306
a(lp5307
g16
aS'mean'
p5308
aaa(lp5309
g5306
a(lp5310
g16
aS'am'
p5311
aS'not'
p5312
aS'kidding'
p5313
aaa(lp5314
g5306
a(lp5315
S'It'
p5316
aaa(lp5317
g5306
a(lp5318
S'It'
p5319
aS'is'
p5320
ag8
aS'different'
p5321
aS'sensation'
p5322
aS'entirely'
p5323
aaa(lp5324
S'JAMIE'
p5325
a(lp5326
aa(lp5327
S'PETE'
p5328
a(lp5329
aa(lp5330
S'MILES'
p5331
a(lp5332
S'When'
p5333
aS'youre'
p5334
aS'dancing'
p5335
aS'with'
p5336
aS'them'
p5337
aaa(lp5338
S'HAROLD'
p5339
a(lp5340
g16
aS'bet'
p5341
aaa(lp5342
S'PETE'
p5343
a(lp5344
aa(lp5345
S'MILES'
p5346
a(lp5347
S'And'
p5348
aS'the'
p5349
aaa(lp5350
g5346
a(lp5351
S'only'
p5352
aS'way'
p5353
aS'to'
p5354
aS'learn'
p5355
aS'how'
p5356
aS'is'
p5357
aS'to'
p5358
aS'dance'
p5359
aS'with'
p5360
aS'them'
p5361
aS'more'
p5362
aaa(lp5363
S'JAMIE'
p5364
a(lp5365
S'Thats'
p5366
aS'true'
p5367
aaa(lp5368
S'MILES'
p5369
a(lp5370
S'But'
p5371
ag16
aS'feel'
p5372
aS'like'
p5373
ag16
aS'can'
p5374
aS'start'
p5375
aS'dancing'
p5376
aS'with'
p5377
aS'them'
p5378
aS'now'
p5379
aaa(lp5380
g5369
a(lp5381
S'But'
p5382
aS'uh'
p5383
aaa(lp5384
S'JAMIE'
p5385
a(lp5386
S'No'
p5387
aS'th'
p5388
aaa(lp5389
g5385
a(lp5390
g16
aS'dont'
p5391
aaa(lp5392
g5385
a(lp5393
g16
aS'dont'
p5394
aaa(lp5395
g5385
a(lp5396
S'They'
p5397
aS'havent'
p5398
aS'done'
p5399
aS'anything'
p5400
aS'recently'
p5401
aaa(lp5402
g5385
a(lp5403
g16
aaa(lp5404
g5385
a(lp5405
g16
aS'cant'
p5406
aS'remember'
p5407
aS'if'
p5408
aS'theyre'
p5409
aS'going'
p5410
aS'to'
p5411
aaa(lp5412
S'MILES'
p5413
a(lp5414
S'Cause'
p5415
aaa(lp5416
g5413
a(lp5417
S'like'
p5418
aaa(lp5419
g5413
a(lp5420
S'Sue'
p5421
aS'Swing'
p5422
aS'taught'
p5423
aS'that'
p5424
aS'class'
p5425
aS'for'
p5426
aS'two'
p5427
aS'months'
p5428
aaa(lp5429
g5413
a(lp5430
S'May'
p5431
aS'and'
p5432
aS'June'
p5433
aaa(lp5434
g5413
a(lp5435
S'and'
p5436
aS'uh'
p5437
aaa(lp5438
S'JAMIE'
p5439
a(lp5440
S'Is'
p5441
aS'she'
p5442
ag8
aS'good'
p5443
aS'lambada'
p5444
aS'dancer'
p5445
aaa(lp5446
g5439
a(lp5447
g16
aS'cant'
p5448
aS'imagine'
p5449
aS'her'
p5450
aS'being'
p5451
ag8
aaa(lp5452
S'MILES'
p5453
a(lp5454
S'Yeah'
p5455
aS'but'
p5456
aaa(lp5457
g5453
a(lp5458
g16
aS'didnt'
p5459
aS'feel'
p5460
aS'like'
p5461
aS'she'
p5462
aS'taught'
p5463
aS'it'
p5464
aS'any'
p5465
aS'different'
p5466
aaa(lp5467
g5453
a(lp5468
S'significantly'
p5469
aS'differently'
p5470
aS'than'
p5471
aS'when'
p5472
aS'Vivian'
p5473
aS'and'
p5474
aS'Jeff'
p5475
aS'taught'
p5476
aS'it'
p5477
aaa(lp5478
g5453
a(lp5479
g16
aS'mean'
p5480
aaa(lp5481
g5453
a(lp5482
S'cause'
p5483
aS'they'
p5484
aS'do'
p5485
aS'it'
p5486
aaa(lp5487
S'JAMIE'
p5488
a(lp5489
S'real'
p5490
aS'basic'
p5491
aaa(lp5492
g5488
a(lp5493
S'and'
p5494
aS'real'
p5495
aS'simple'
p5496
aaa(lp5497
S'MILES'
p5498
a(lp5499
S'different'
p5500
aaa(lp5501
g5498
a(lp5502
S'than'
p5503
aS'Brazilians'
p5504
aS'do'
p5505
aS'it'
p5506
aaa(lp5507
S'JAMIE'
p5508
a(lp5509
S'Yeah'
p5510
aaa(lp5511
S'MILES'
p5512
a(lp5513
g16
aS'mean'
p5514
aaa(lp5515
g5512
a(lp5516
g16
aS'dont'
p5517
aS'know'
p5518
aS'what'
p5519
aS'those'
p5520
aS'Brazilian'
p5521
aS'women'
p5522
aS'are'
p5523
aS'doing'
p5524
aaa(lp5525
S'JAMIE'
p5526
a(lp5527
S'What'
p5528
aS'are'
p5529
aS'they'
p5530
aS'doing'
p5531
aaa(lp5532
S'MILES'
p5533
a(lp5534
S'but'
p5535
aS'their'
p5536
aS'hips'
p5537
aS'are'
p5538
aS'like'
p5539
aaa(lp5540
S'JAMIE'
p5541
a(lp5542
S'Are'
p5543
aS'they'
p5544
aS'going'
p5545
aaa(lp5546
g5541
a(lp5547
S'are'
p5548
aS'they'
p5549
aS'going'
p5550
aS'like'
p5551
aaa(lp5552
g5541
a(lp5553
S'really'
p5554
aS'fast'
p5555
aaa(lp5556
g5541
a(lp5557
g16
aS'mean'
p5558
aS'are'
p5559
aS'they'
p5560
aS'going'
p5561
aS'one'
p5562
aS'two'
p5563
aS'three'
p5564
aaa(lp5565
S'MILES'
p5566
a(lp5567
g16
aS'mean'
p5568
aaa(lp5569
S'JAMIE'
p5570
a(lp5571
S'one'
p5572
aS'two'
p5573
aS'three'
p5574
aaa(lp5575
S'MILES'
p5576
a(lp5577
S'first'
p5578
aS'you'
p5579
aS'had'
p5580
aS'this'
p5581
aS'wide'
p5582
aS'sway'
p5583
aS'of'
p5584
aS'their'
p5585
aS'hips'
p5586
aS'this'
p5587
aS'way'
p5588
aaa(lp5589
g5576
a(lp5590
S'and'
p5591
aS'then'
p5592
aaa(lp5593
g5576
a(lp5594
S'its'
p5595
aS'like'
p5596
aaa(lp5597
g5576
a(lp5598
S'SLAPPING'
p5599
aS'theyre'
p5600
aS'coming'
p5601
aaa(lp5602
g5576
a(lp5603
g16
aS'mean'
p5604
aaa(lp5605
g5576
a(lp5606
S'theyre'
p5607
aS'beating'
p5608
aS'me'
p5609
aS'like'
p5610
aS'HI'
p5611
aS'this'
p5612
aS'SLAPPING'
p5613
aaa(lp5614
g5576
a(lp5615
g16
aS'dont'
p5616
aS'even'
p5617
aS'know'
p5618
aS'how'
p5619
aS'you'
p5620
aS'can'
p5621
aS'do'
p5622
aS'that'
p5623
aaa(lp5624
g5576
a(lp5625
S'Youre'
p5626
aS'dancing'
p5627
aS'with'
p5628
aS'them'
p5629
aaa(lp5630
g5576
a(lp5631
S'SLAPPING'
p5632
aS'theyre'
p5633
aS'beating'
p5634
aS'you'
p5635
aS'just'
p5636
aS'like'
p5637
aS'this'
p5638
aS'HI'
p5639
aaa(lp5640
g5576
a(lp5641
S'SLAPPING'
p5642
aaa(lp5643
S'HAROLD'
p5644
a(lp5645
S'Using'
p5646
aS'their'
p5647
aS'hands'
p5648
aS'like'
p5649
aS'that'
p5650
aaa(lp5651
S'PETE'
p5652
a(lp5653
aa(lp5654
S'JAMIE'
p5655
a(lp5656
aa(lp5657
S'MILES'
p5658
a(lp5659
S'No'
p5660
aaa(lp5661
g5658
a(lp5662
S'using'
p5663
aS'their'
p5664
aS'pelvic'
p5665
aS'bones'
p5666
aaa(lp5667
S'HAROLD'
p5668
a(lp5669
S'Wow'
p5670
aaa(lp5671
S'PETE'
p5672
a(lp5673
S'Mm'
p5674
aaa(lp5675
S'JAMIE'
p5676
a(lp5677
S'Right'
p5678
aS'here'
p5679
aaa(lp5680
S'MILES'
p5681
a(lp5682
S'Yeah'
p5683
aaa(lp5684
S'PETE'
p5685
a(lp5686
S'Sort'
p5687
aS'of'
p5688
aS'like'
p5689
aS'Tahitian'
p5690
aS'dancers'
p5691
aS'or'
p5692
aS'something'
p5693
aaa(lp5694
S'HAROLD'
p5695
a(lp5696
S'Yeah'
p5697
aaa(lp5698
S'PETE'
p5699
a(lp5700
g65
aS'You'
p5701
aS'know'
p5702
ag65
aaa(lp5703
g5699
a(lp5704
S'close'
p5705
aaa(lp5706
S'MILES'
p5707
a(lp5708
S'But'
p5709
ag16
aS'tell'
p5710
aS'you'
p5711
aaa(lp5712
S'PETE'
p5713
a(lp5714
aa(lp5715
S'MILES'
p5716
a(lp5717
S'but'
p5718
aS'anyway'
p5719
aaa(lp5720
g5716
a(lp5721
S'you'
p5722
aS'know'
p5723
aaa(lp5724
g5716
a(lp5725
S'they'
p5726
aS'werent'
p5727
aS'teaching'
p5728
aS'it'
p5729
aS'that'
p5730
aS'way'
p5731
aaa(lp5732
S'HAROLD'
p5733
a(lp5734
g65
ag65
aaa(lp5735
S'MILES'
p5736
a(lp5737
S'You'
p5738
aS'know'
p5739
aaa(lp5740
g5736
a(lp5741
S'the'
p5742
aS'ballroom'
p5743
aS'people'
p5744
aS'dont'
p5745
aS'do'
p5746
aS'it'
p5747
aS'that'
p5748
aS'way'
p5749
aaa(lp5750
S'PETE'
p5751
a(lp5752
S'XX'
p5753
aS'XX'
p5754
aaa(lp5755
S'MILES'
p5756
a(lp5757
S'But'
p5758
aS'thats'
p5759
aS'what'
p5760
ag16
aS'want'
p5761
aS'to'
p5762
aS'learn'
p5763
aaa(lp5764
S'JAMIE'
p5765
a(lp5766
S'Dont'
p5767
aaa(lp5768
g5765
a(lp5769
S'Dont'
p5770
aS'they'
p5771
aS'teach'
p5772
aaa(lp5773
g5765
a(lp5774
S'dont'
p5775
aS'they'
p5776
aS'teach'
p5777
aS'you'
p5778
aS'to'
p5779
aS'go'
p5780
aaa(lp5781
g5765
a(lp5782
S'one'
p5783
aS'two'
p5784
aS'three'
p5785
aaa(lp5786
g5765
a(lp5787
S'one'
p5788
aS'two'
p5789
aS'three'
p5790
aaa(lp5791
g5765
a(lp5792
S'one'
p5793
aS'two'
p5794
aS'three'
p5795
aaa(lp5796
g5765
a(lp5797
S'like'
p5798
aS'that'
p5799
aaa(lp5800
g5765
a(lp5801
S'Or'
p5802
aS'do'
p5803
aS'they'
p5804
aS'go'
p5805
aS'like'
p5806
aS'really'
p5807
aS'fast'
p5808
aS'like'
p5809
aS'that'
p5810
aaa(lp5811
S'MILES'
p5812
a(lp5813
S'Well'
p5814
aS'Sue'
p5815
aS'Swing'
p5816
aaa(lp5817
g5812
a(lp5818
g16
aS'mean'
p5819
aS'when'
p5820
aS'she'
p5821
aS'was'
p5822
aS'teaching'
p5823
aS'was'
p5824
aS'definitely'
p5825
aS'more'
p5826
aS'sedate'
p5827
aaa(lp5828
g5812
a(lp5829
S'and'
p5830
aS'the'
p5831
aS'same'
p5832
aS'thing'
p5833
aS'with'
p5834
aS'Jeff'
p5835
aS'and'
p5836
aS'Vivian'
p5837
aaa(lp5838
S'JAMIE'
p5839
a(lp5840
S'Viv'
p5841
aaa(lp5842
g5839
a(lp5843
S'Yeah'
p5844
aaa(lp5845
S'MILES'
p5846
a(lp5847
S'It'
p5848
aS'was'
p5849
aS'just'
p5850
aS'Jeff'
p5851
aS'and'
p5852
aaa(lp5853
S'JAMIE'
p5854
a(lp5855
S'sure'
p5856
aaa(lp5857
g5854
a(lp5858
S'but'
p5859
aS'thats'
p5860
aS'cause'
p5861
aS'its'
p5862
aS'for'
p5863
ag546
aaa(lp5864
g5854
a(lp5865
S'its'
p5866
aS'for'
p5867
aS'people'
p5868
aS'who'
p5869
aS'cant'
p5870
aS'move'
p5871
aS'their'
p5872
aS'hips'
p5873
aaa(lp5874
g5854
a(lp5875
S'Right'
p5876
aaa(lp5877
g5854
a(lp5878
g16
aS'mean'
p5879
aS'its'
p5880
aS'for'
p5881
aS'basic'
p5882
aaa(lp5883
g5854
a(lp5884
S'you'
p5885
aS'know'
p5886
aaa(lp5887
g5854
a(lp5888
S'this'
p5889
aS'is'
p5890
ag8
aS'beginning'
p5891
aS'lambada'
p5892
aS'class'
p5893
aaa(lp5894
g5854
a(lp5895
S'or'
p5896
aS'intermediate'
p5897
aS'XXXXX'
p5898
aaa(lp5899
S'MILES'
p5900
a(lp5901
g16
aS'dont'
p5902
aS'know'
p5903
aS'why'
p5904
aS'they'
p5905
aS'did'
p5906
aS'it'
p5907
aS'that'
p5908
aS'way'
p5909
aaa(lp5910
g5900
a(lp5911
g16
aS'mean'
p5912
aaa(lp5913
g5900
a(lp5914
S'it'
p5915
aS'seems'
p5916
aS'to'
p5917
aS'me'
p5918
aS'if'
p5919
ag65
aS'theyre'
p5920
aS'gonna'
p5921
aS'teach'
p5922
aS'it'
p5923
aS'like'
p5924
aS'what'
p5925
aS'you'
p5926
aS'do'
p5927
ag65
aaa(lp5928
S'JAMIE'
p5929
a(lp5930
S'Or'
p5931
aS'what'
p5932
aS'they'
p5933
aS'teach'
p5934
aaa(lp5935
g5929
a(lp5936
S'and'
p5937
aS'what'
p5938
aS'happens'
p5939
aS'socially'
p5940
aaa(lp5941
g5929
a(lp5942
S'could'
p5943
aS'be'
p5944
aS'two'
p5945
aS'different'
p5946
aS'things'
p5947
aaa(lp5948
g5929
a(lp5949
S'You'
p5950
aS'know'
p5951
aaa(lp5952
S'MILES'
p5953
a(lp5954
g16
aS'mean'
p5955
aaa(lp5956
g5953
a(lp5957
S'Brazilians'
p5958
aS'definitely'
p5959
aS'dont'
p5960
aaa(lp5961
g5953
a(lp5962
S'hm'
p5963
aaa(lp5964
g5953
a(lp5965
S'do'
p5966
aS'it'
p5967
aS'like'
p5968
aS'that'
p5969
aaa(lp5970
S'JAMIE'
p5971
a(lp5972
g16
aS'should'
p5973
aaa(lp5974
g5971
a(lp5975
g16
aS'want'
p5976
aS'to'
p5977
aS'go'
p5978
aaa(lp5979
g5971
a(lp5980
g16
aS'should'
p5981
aS'check'
p5982
aS'it'
p5983
aS'out'
p5984
aaa(lp5985
g5971
a(lp5986
g16
aS'like'
p5987
aS'that'
p5988
aaa(lp5989
g5971
a(lp5990
S'cause'
p5991
aS'its'
p5992
aS'fun'
p5993
aaa(lp5994
g5971
a(lp5995
g2535
ag65
ag65
ag2535
aaa(lp5996
S'MILES'
p5997
a(lp5998
g16
aS'mean'
p5999
aS'after'
p6000
ag16
aS'f'
p6001
aaa(lp6002
g5997
a(lp6003
g16
aS'mean'
p6004
ag65
ag16
ag65
aaa(lp6005
S'JAMIE'
p6006
a(lp6007
g65
aS'Are'
p6008
aS'you'
p6009
ag65
aaa(lp6010
g6006
a(lp6011
S'Do'
p6012
aS'they'
p6013
aS'still'
p6014
aS'teach'
p6015
aS'at'
p6016
aS'Bahia'
p6017
aS'on'
p6018
aS'Sunday'
p6019
aaa(lp6020
g6006
a(lp6021
S'night'
p6022
aaa(lp6023
S'MILES'
p6024
a(lp6025
S'Oh'
p6026
aS'yeah'
p6027
aaa(lp6028
g6024
a(lp6029
S'In'
p6030
aS'fact'
p6031
ag16
aS'would'
p6032
aS'have'
p6033
aS'gone'
p6034
aS'today'
p6035
aaa(lp6036
g6024
a(lp6037
S'if'
p6038
aS'it'
p6039
aS'wasnt'
p6040
aS'for'
p6041
aS'my'
p6042
aS'back'
p6043
aaa(lp6044
S'JAMIE'
p6045
a(lp6046
aa(lp6047
S'MILES'
p6048
a(lp6049
S'Well'
p6050
ag16
aS'finally'
p6051
aS'found'
p6052
aS'some'
p6053
aS'people'
p6054
aS'there'
p6055
ag16
aS'can'
p6056
aS'dance'
p6057
aS'with'
p6058
aaa(lp6059
g6048
a(lp6060
S'So'
p6061
aS'that'
p6062
aS'helps'
p6063
aaa(lp6064
S'JAMIE'
p6065
a(lp6066
S'Do'
p6067
aS'you'
p6068
aS'need'
p6069
ag8
aS'partner'
p6070
aaa(lp6071
S'MILES'
p6072
a(lp6073
S'To'
p6074
aS'go'
p6075
aS'there'
p6076
aaa(lp6077
S'JAMIE'
p6078
a(lp6079
S'Yeah'
p6080
aaa(lp6081
S'MILES'
p6082
a(lp6083
S'No'
p6084
aaa(lp6085
g6082
a(lp6086
S'Besides'
p6087
aaa(lp6088
g6082
a(lp6089
S'you'
p6090
aaa(lp6091
g6082
a(lp6092
g16
aS'mean'
p6093
aS'if'
p6094
aS'youre'
p6095
ag8
aS'guy'
p6096
aaa(lp6097
g6082
a(lp6098
S'If'
p6099
aaa(lp6100
g6082
a(lp6101
S'If'
p6102
aS'youre'
p6103
ag8
aS'woman'
p6104
aaa(lp6105
g6082
a(lp6106
g16
aS'mean'
p6107
aaa(lp6108
g6082
a(lp6109
S'those'
p6110
aS'guysll'
p6111
aS'be'
p6112
aS'all'
p6113
aS'over'
p6114
aS'you'
p6115
aaa(lp6116
g6082
a(lp6117
g65
ag16
aS'swear'
p6118
aS'it'
p6119
ag65
aaa(lp6120
S'JAMIE'
p6121
a(lp6122
aa(lp6123
S'PETE'
p6124
a(lp6125
aa(lp6126
S'JAMIE'
p6127
a(lp6128
S'Dont'
p6129
aS'say'
p6130
aS'that'
p6131
aaa(lp6132
S'HAROLD'
p6133
a(lp6134
S'Run'
p6135
aS'along'
p6136
aS'now'
p6137
aaa(lp6138
S'JAMIE'
p6139
a(lp6140
S'Harolds'
p6141
aS'in'
p6142
aS'the'
p6143
aS'room'
p6144
aaa(lp6145
S'HAROLD'
p6146
a(lp6147
S'dear'
p6148
aaa(lp6149
S'JAMIE'
p6150
a(lp6151
aa(lp6152
S'PETE'
p6153
a(lp6154
aa(lp6155
S'JAMIE'
p6156
a(lp6157
S'You'
p6158
aS'could'
p6159
aS'come'
p6160
aS'too'
p6161
aaa(lp6162
S'MILES'
p6163
a(lp6164
S'Well'
p6165
ag16
aS'dont'
p6166
aS'necessarily'
p6167
aS'mean'
p6168
aaa(lp6169
g6163
a(lp6170
S'in'
p6171
ag8
aS'bad'
p6172
aS'way'
p6173
aaa(lp6174
g6163
a(lp6175
S'even'
p6176
aS'though'
p6177
aS'Im'
p6178
aS'sure'
p6179
aS'there'
p6180
aS'are'
p6181
ag8
aS'few'
p6182
aS'there'
p6183
aaa(lp6184
g6163
a(lp6185
S'Im'
p6186
aS'not'
p6187
aS'dancing'
p6188
aS'with'
p6189
aS'guys'
p6190
aaa(lp6191
g6163
a(lp6192
S'All'
p6193
ag16
aS'can'
p6194
aS'say'
p6195
aS'is'
p6196
aaa(lp6197
g6163
a(lp6198
S'the'
p6199
aS'women'
p6200
aS'arent'
p6201
aS'all'
p6202
aS'over'
p6203
aS'me'
p6204
aaa(lp6205
g6163
a(lp6206
S'Darn'
p6207
aaa(lp6208
S'HAROLD'
p6209
a(lp6210
S'Oo'
p6211
aaa(lp6212
S'MILES'
p6213
a(lp6214
S'But'
p6215
aaa(lp6216
S'JAMIE'
p6217
a(lp6218
aa(lp6219
S'PETE'
p6220
a(lp6221
aa(lp6222
S'JAMIE'
p6223
a(lp6224
aa(lp6225
S'MILES'
p6226
a(lp6227
S'but'
p6228
ag16
aS'remember'
p6229
aaa(lp6230
g6226
a(lp6231
S'like'
p6232
ag16
aS'went'
p6233
aS'there'
p6234
aS'with'
p6235
aS'this'
p6236
aS'person'
p6237
aaa(lp6238
g6226
a(lp6239
S'its'
p6240
aS'kind'
p6241
aS'of'
p6242
aS'funny'
p6243
aaa(lp6244
g6226
a(lp6245
S'th'
p6246
aS'this'
p6247
aS'person'
p6248
aS'did'
p6249
aS'not'
p6250
aS'want'
p6251
aS'to'
p6252
aS'dance'
p6253
aaa(lp6254
g6226
a(lp6255
S'So'
p6256
aS'shes'
p6257
aS'just'
p6258
aS'gonna'
p6259
aS'watch'
p6260
aaa(lp6261
g6226
a(lp6262
S'So'
p6263
aaa(lp6264
g6226
a(lp6265
S'every'
p6266
aS'once'
p6267
aS'in'
p6268
ag8
aS'while'
p6269
aS'Id'
p6270
aS'get'
p6271
aS'up'
p6272
aS'and'
p6273
aS'dance'
p6274
aaa(lp6275
g6226
a(lp6276
S'and'
p6277
aS'its'
p6278
aS'like'
p6279
aaa(lp6280
g6226
a(lp6281
S'when'
p6282
aS'Id'
p6283
aS'come'
p6284
aS'back'
p6285
aaa(lp6286
g6226
a(lp6287
g16
aS'mean'
p6288
aS'there'
p6289
aS'was'
p6290
aS'some'
p6291
aS'guy'
p6292
aS'there'
p6293
aaa(lp6294
g6226
a(lp6295
S'sitting'
p6296
aS'in'
p6297
aS'my'
p6298
aS'chair'
p6299
aaa(lp6300
S'JAMIE'
p6301
a(lp6302
aa(lp6303
S'MILES'
p6304
a(lp6305
S'Every'
p6306
aS'time'
p6307
ag16
aS'got'
p6308
aS'up'
p6309
aaa(lp6310
g6304
a(lp6311
S'Im'
p6312
aS'thinking'
p6313
aaa(lp6314
g6304
a(lp6315
S'God'
p6316
aaa(lp6317
g6304
a(lp6318
S'these'
p6319
aS'guys'
p6320
aS'dont'
p6321
aS'waste'
p6322
aS'any'
p6323
aS'time'
p6324
aaa(lp6325
g6304
a(lp6326
g16
aS'mean'
p6327
aaa(lp6328
g6304
a(lp6329
S'you'
p6330
aS'turn'
p6331
aS'your'
p6332
aS'back'
p6333
aaa(lp6334
g6304
a(lp6335
S'and'
p6336
aS'theres'
p6337
aS'somebody'
p6338
aS'moving'
p6339
aS'in'
p6340
aaa(lp6341
S'JAMIE'
p6342
a(lp6343
aa(lp6344
S'MILES'
p6345
a(lp6346
g65
ag16
aS'mean'
p6347
ag16
aS'dont'
p6348
aS'know'
p6349
aS'if'
p6350
aS'they'
p6351
ag65
ag65
ag65
aaa(lp6352
S'JAMIE'
p6353
a(lp6354
S'Maybe'
p6355
aS'Harold'
p6356
aS'you'
p6357
aS'should'
p6358
aS'come'
p6359
aS'with'
p6360
aS'me'
p6361
aaa(lp6362
S'HAROLD'
p6363
a(lp6364
S'Why'
p6365
aaa(lp6366
g6363
a(lp6367
S'So'
p6368
ag16
aS'can'
p6369
aS'find'
p6370
aaa(lp6371
S'JAMIE'
p6372
a(lp6373
S'learn'
p6374
aS'some'
p6375
aS'lam'
p6376
aS'lambada'
p6377
aaa(lp6378
S'PETE'
p6379
a(lp6380
aa(lp6381
S'HAROLD'
p6382
a(lp6383
S'find'
p6384
aS'some'
p6385
aS'girls'
p6386
aS'with'
p6387
aS'empty'
p6388
aS'chairs'
p6389
aS'next'
p6390
aS'to'
p6391
aS'em'
p6392
aaa(lp6393
S'JAMIE'
p6394
a(lp6395
aa(lp6396
S'MILES'
p6397
a(lp6398
aa(lp6399
S'PETE'
p6400
a(lp6401
aa(lp6402
S'HAROLD'
p6403
a(lp6404
S'Maybe'
p6405
ag16
aS'should'
p6406
aS'go'
p6407
aS'with'
p6408
aS'Miles'
p6409
aaa(lp6410
S'MILES'
p6411
a(lp6412
S'Oh'
p6413
aS'did'
p6414
aaa(lp6415
S'PETE'
p6416
a(lp6417
aa(lp6418
S'JAMIE'
p6419
a(lp6420
S'Yeah'
p6421
aaa(lp6422
g6419
a(lp6423
S'you'
p6424
aS'guys'
p6425
aS'could'
p6426
aS'be'
p6427
aS'partners'
p6428
aaa(lp6429
S'MILES'
p6430
a(lp6431
S'did'
p6432
aaa(lp6433
S'JAMIE'
p6434
a(lp6435
S'What'
p6436
aaa(lp6437
S'MILES'
p6438
a(lp6439
S'Well'
p6440
ag16
aS'dont'
p6441
aS'know'
p6442
aS'if'
p6443
ag16
aS'told'
p6444
aS'you'
p6445
aaa(lp6446
g6438
a(lp6447
S'told'
p6448
aS'you'
p6449
aS'that'
p6450
aS'story'
p6451
aS'about'
p6452
aS'that'
p6453
aS'woman'
p6454
aaa(lp6455
g6438
a(lp6456
S'who'
p6457
aS'uh'
p6458
aaa(lp6459
g6438
a(lp6460
S'went'
p6461
aS'after'
p6462
aS'that'
p6463
aS'guy'
p6464
aS'there'
p6465
aaa(lp6466
g6438
a(lp6467
g16
aS'told'
p6468
aS'you'
p6469
aS'that'
p6470
aS'story'
p6471
aaa(lp6472
g6438
a(lp6473
S'right'
p6474
aaa(lp6475
g6438
a(lp6476
g16
aS'was'
p6477
aS'there'
p6478
aS'Sunday'
p6479
aS'three'
p6480
aS'four'
p6481
aS'weeks'
p6482
aS'ago'
p6483
aaa(lp6484
g6438
a(lp6485
S'Uh'
p6486
aaa(lp6487
g6438
a(lp6488
S'after'
p6489
aS'the'
p6490
aS'class'
p6491
aS'is'
p6492
aS'over'
p6493
ag532
aaa(lp6494
g6438
a(lp6495
S'over'
p6496
aS'with'
p6497
aaa(lp6498
g6438
a(lp6499
S'Im'
p6500
aS'sitting'
p6501
aS'down'
p6502
aS'at'
p6503
ag8
aS'table'
p6504
aaa(lp6505
g6438
a(lp6506
S'theres'
p6507
ag8
aS'woman'
p6508
aS'from'
p6509
aaa(lp6510
g6438
a(lp6511
S'who'
p6512
aS'was'
p6513
aS'in'
p6514
aS'the'
p6515
aS'class'
p6516
aaa(lp6517
g6438
a(lp6518
S'and'
p6519
aS'two'
p6520
aS'men'
p6521
aaa(lp6522
g6438
a(lp6523
S'sitting'
p6524
aS'to'
p6525
aS'my'
p6526
aS'right'
p6527
aaa(lp6528
g6438
a(lp6529
S'is'
p6530
ag8
aS'table'
p6531
aS'with'
p6532
aS'two'
p6533
aS'women'
p6534
aS'there'
p6535
aaa(lp6536
g6438
a(lp6537
S'They'
p6538
aS'had'
p6539
aS'apparently'
p6540
aS'just'
p6541
aS'come'
p6542
aS'from'
p6543
aS'Oba'
p6544
aS'Oba'
p6545
aaa(lp6546
g6438
a(lp6547
S'on'
p6548
aS'the'
p6549
aS'last'
p6550
aS'night'
p6551
aaa(lp6552
S'JAMIE'
p6553
a(lp6554
S'XP'
p6555
aS'Oh'
p6556
ag16
aS'think'
p6557
aS'you'
p6558
aS'told'
p6559
aS'me'
p6560
ag65
aaa(lp6561
S'MILES'
p6562
a(lp6563
S'the'
p6564
aS'last'
p6565
aS'night'
p6566
aaa(lp6567
S'JAMIE'
p6568
a(lp6569
S'Yeah'
p6570
ag2535
aaa(lp6571
S'MILES'
p6572
a(lp6573
S'And'
p6574
aS'like'
p6575
aaa(lp6576
g6572
a(lp6577
g65
aS'well'
p6578
ag65
aS'they'
p6579
aS'were'
p6580
aS'attractive'
p6581
aS'women'
p6582
aaa(lp6583
g6572
a(lp6584
S'the'
p6585
aS'one'
p6586
aS'had'
p6587
aS'on'
p6588
ag8
aS'real'
p6589
aS'real'
p6590
aS'short'
p6591
aS'skirt'
p6592
aaa(lp6593
g6572
a(lp6594
S'Anyway'
p6595
aaa(lp6596
g6572
a(lp6597
S'there'
p6598
aS'was'
p6599
aS'this'
p6600
aS'guy'
p6601
aS'in'
p6602
aS'his'
p6603
aS'fifties'
p6604
aaa(lp6605
g6572
a(lp6606
S'out'
p6607
aS'there'
p6608
aS'dancing'
p6609
aaa(lp6610
g6572
a(lp6611
S'BR'
p6612
aS'by'
p6613
aS'himself'
p6614
aS'BR'
p6615
aaa(lp6616
g6572
a(lp6617
S'And'
p6618
aS'the'
p6619
aS'woman'
p6620
aS'was'
p6621
aS'just'
p6622
aS'looking'
p6623
aS'at'
p6624
aS'him'
p6625
aaa(lp6626
g6572
a(lp6627
S'making'
p6628
aS'eyes'
p6629
aaa(lp6630
g6572
a(lp6631
S'then'
p6632
aS'she'
p6633
aS'went'
p6634
aS'out'
p6635
aS'there'
p6636
aaa(lp6637
g6572
a(lp6638
S'got'
p6639
aS'on'
p6640
aS'her'
p6641
aS'knees'
p6642
aaa(lp6643
g6572
a(lp6644
S'in'
p6645
aS'front'
p6646
aS'of'
p6647
aS'him'
p6648
aaa(lp6649
g6572
a(lp6650
S'in'
p6651
aS'this'
p6652
aS'skirt'
p6653
aS'thats'
p6654
aS'this'
p6655
aS'short'
p6656
aaa(lp6657
g6572
a(lp6658
S'takes'
p6659
aS'her'
p6660
aS'hands'
p6661
aaa(lp6662
g6572
a(lp6663
S'and'
p6664
aS'goes'
p6665
aS'along'
p6666
aS'his'
p6667
aS'toes'
p6668
aaa(lp6669
g6572
a(lp6670
S'and'
p6671
aS'then'
p6672
aS'up'
p6673
aaa(lp6674
g6572
a(lp6675
S'and'
p6676
aS'is'
p6677
aS'just'
p6678
aS'doing'
p6679
aS'like'
p6680
aS'that'
p6681
aaa(lp6682
g6572
a(lp6683
g16
aS'figured'
p6684
aaa(lp6685
S'JAMIE'
p6686
a(lp6687
S'Oo'
p6688
aaa(lp6689
S'MILES'
p6690
a(lp6691
S'oh'
p6692
aaa(lp6693
g6690
a(lp6694
S'they'
p6695
aS'must'
p6696
aS'know'
p6697
aS'each'
p6698
aS'other'
p6699
aaa(lp6700
S'JAMIE'
p6701
a(lp6702
S'Oo'
p6703
aaa(lp6704
S'HAROLD'
p6705
a(lp6706
S'very'
p6707
aS'well'
p6708
aaa(lp6709
g6705
a(lp6710
S'in'
p6711
aS'fact'
p6712
aaa(lp6713
S'PETE'
p6714
a(lp6715
S'Mhm'
p6716
aaa(lp6717
S'JAMIE'
p6718
a(lp6719
S'Gross'
p6720
aaa(lp6721
S'MILES'
p6722
a(lp6723
S'Thats'
p6724
aS'what'
p6725
ag16
aS'assumed'
p6726
aaa(lp6727
g6722
a(lp6728
S'And'
p6729
aaa(lp6730
g6722
a(lp6731
S'they'
p6732
aS'did'
p6733
aS'that'
p6734
aS'for'
p6735
aS'the'
p6736
aS'whole'
p6737
aS'dance'
p6738
aaa(lp6739
g6722
a(lp6740
S'and'
p6741
ag16
aS'mean'
p6742
aaa(lp6743
g6722
a(lp6744
S'she'
p6745
aS'was'
p6746
ag2236
aS'all'
p6747
aS'kind'
p6748
aS'of'
p6749
aS'suggestive'
p6750
aS'stuff'
p6751
aaa(lp6752
g6722
a(lp6753
S'and'
p6754
aS'touching'
p6755
aS'him'
p6756
aS'and'
p6757
aS'everything'
p6758
aaa(lp6759
g6722
a(lp6760
S'people'
p6761
aS'would'
p6762
aS'like'
p6763
aS'cheering'
p6764
aaa(lp6765
g6722
a(lp6766
S'and'
p6767
aS'clapping'
p6768
aaa(lp6769
g6722
a(lp6770
S'Q'
p6771
aS'go'
p6772
aS'for'
p6773
aS'it'
p6774
ag6771
aaa(lp6775
g6722
a(lp6776
S'And'
p6777
aS'all'
p6778
aS'this'
p6779
aS'kind'
p6780
aS'of'
p6781
aS'HI'
p6782
aS'thing'
p6783
aS'HI'
p6784
aaa(lp6785
g6722
a(lp6786
S'The'
p6787
aS'the'
p6788
aS'song'
p6789
aS'ended'
p6790
aaa(lp6791
g6722
a(lp6792
S'the'
p6793
aS'guy'
p6794
aS'set'
p6795
aS'down'
p6796
aaa(lp6797
g6722
a(lp6798
S'at'
p6799
aS'another'
p6800
aS'table'
p6801
aaa(lp6802
g6722
a(lp6803
S'And'
p6804
aS'she'
p6805
aS'set'
p6806
aS'down'
p6807
aaa(lp6808
S'JAMIE'
p6809
a(lp6810
S'at'
p6811
ag8
aaa(lp6812
S'MILES'
p6813
a(lp6814
S'at'
p6815
aS'the'
p6816
aS'table'
p6817
aS'with'
p6818
aS'her'
p6819
aS'woman'
p6820
aS'friend'
p6821
aaa(lp6822
g6813
a(lp6823
S'They'
p6824
aS'never'
p6825
aS'danced'
p6826
aS'again'
p6827
aS'the'
p6828
aS'rest'
p6829
aS'of'
p6830
aS'the'
p6831
aS'evening'
p6832
aaa(lp6833
S'HAROLD'
p6834
a(lp6835
S'Hm'
p6836
aaa(lp6837
S'MILES'
p6838
a(lp6839
S'This'
p6840
aS'is'
p6841
aS'like'
p6842
aaa(lp6843
S'JAMIE'
p6844
a(lp6845
aa(lp6846
S'PETE'
p6847
a(lp6848
aa(lp6849
S'JAMIE'
p6850
a(lp6851
aa(lp6852
S'PETE'
p6853
a(lp6854
aa(lp6855
S'MILES'
p6856
a(lp6857
S'so'
p6858
ag16
aS'was'
p6859
aS'thinking'
p6860
aaa(lp6861
g6856
a(lp6862
S'this'
p6863
aS'womans'
p6864
aS'sitting'
p6865
aS'about'
p6866
aS'as'
p6867
aS'far'
p6868
aS'away'
p6869
aS'from'
p6870
aS'me'
p6871
aS'as'
p6872
aS'Jamie'
p6873
aS'is'
p6874
aaa(lp6875
g6856
a(lp6876
S'And'
p6877
ag16
aS'was'
p6878
aS'thinking'
p6879
aaa(lp6880
g6856
a(lp6881
S'hm'
p6882
aaa(lp6883
g6856
a(lp6884
S'this'
p6885
aS'is'
p6886
aS'interesting'
p6887
aaa(lp6888
g6856
a(lp6889
g16
aS'wonder'
p6890
aS'how'
p6891
aS'long'
p6892
aS'it'
p6893
aS'was'
p6894
aS'gonna'
p6895
aS'take'
p6896
aS'the'
p6897
aS'guys'
p6898
aS'in'
p6899
aS'this'
p6900
aS'club'
p6901
aS'to'
p6902
aS'move'
p6903
aS'in'
p6904
aS'on'
p6905
aS'her'
p6906
aaa(lp6907
g6856
a(lp6908
S'No'
p6909
aS'sooner'
p6910
aS'did'
p6911
ag16
aS'think'
p6912
aS'this'
p6913
aS'thought'
p6914
aaa(lp6915
g6856
a(lp6916
S'guys'
p6917
aS'were'
p6918
aS'over'
p6919
aS'there'
p6920
aaa(lp6921
S'HAROLD'
p6922
a(lp6923
S'What'
p6924
aaa(lp6925
g6922
a(lp6926
S'you'
p6927
aS'didnt'
p6928
aS'ask'
p6929
aS'her'
p6930
aS'to'
p6931
aS'dance'
p6932
aaa(lp6933
S'JAMIE'
p6934
a(lp6935
S'Not'
p6936
aS'Miles'
p6937
aaa(lp6938
g6934
a(lp6939
S'hes'
p6940
aS'just'
p6941
ag65
aS'in'
p6942
aS'daze'
p6943
ag65
aaa(lp6944
S'MILES'
p6945
a(lp6946
S'Well'
p6947
ag16
aS'was'
p6948
aS'still'
p6949
aS'trying'
p6950
aS'to'
p6951
aS'figure'
p6952
aS'out'
p6953
aaa(lp6954
S'JAMIE'
p6955
a(lp6956
aa(lp6957
S'MILES'
p6958
a(lp6959
S'surely'
p6960
aS'they'
p6961
aS'must'
p6962
aS'know'
p6963
aS'each'
p6964
aS'other'
p6965
aaa(lp6966
g6958
a(lp6967
g16
aS'mean'
p6968
aaa(lp6969
g6958
a(lp6970
S'why'
p6971
aS'wasnt'
p6972
aS'he'
p6973
aS'sitting'
p6974
aS'at'
p6975
aS'her'
p6976
aS'table'
p6977
aaa(lp6978
S'JAMIE'
p6979
a(lp6980
S'You'
p6981
aS'mean'
p6982
aaa(lp6983
g6979
a(lp6984
S'you'
p6985
aS'werestill'
p6986
aS'thinking'
p6987
aS'about'
p6988
aS'it'
p6989
aaa(lp6990
S'PETE'
p6991
a(lp6992
aa(lp6993
S'JAMIE'
p6994
a(lp6995
aa(lp6996
S'MILES'
p6997
a(lp6998
S'Anyway'
p6999
aaa(lp7000
g6997
a(lp7001
S'this'
p7002
aS'guy'
p7003
aaa(lp7004
S'JAMIE'
p7005
a(lp7006
aa(lp7007
S'MILES'
p7008
a(lp7009
g16
aS'mean'
p7010
aS'he'
p7011
aS'comes'
p7012
aS'over'
p7013
aS'there'
p7014
aaa(lp7015
g7008
a(lp7016
S'immediately'
p7017
aS'afterwards'
p7018
aaa(lp7019
S'JAMIE'
p7020
a(lp7021
S'the'
p7022
aS'same'
p7023
aS'guy'
p7024
aS'who'
p7025
aS'got'
p7026
aS'his'
p7027
aaa(lp7028
g7020
a(lp7029
S'the'
p7030
aS'same'
p7031
aS'guy'
p7032
aS'whos'
p7033
aaa(lp7034
S'HAROLD'
p7035
a(lp7036
S'No'
p7037
aaa(lp7038
g7035
a(lp7039
S'its'
p7040
aS'just'
p7041
aS'some'
p7042
aS'random'
p7043
aS'guy'
p7044
aaa(lp7045
S'JAMIE'
p7046
a(lp7047
S'Or'
p7048
aS'just'
p7049
aS'some'
p7050
aS'random'
p7051
aS'guy'
p7052
aaa(lp7053
S'MILES'
p7054
a(lp7055
S'No'
p7056
aaa(lp7057
g7054
a(lp7058
g8
aS'random'
p7059
aS'guy'
p7060
aaa(lp7061
g7054
a(lp7062
S'who'
p7063
aS'was'
p7064
aS'like'
p7065
aS'sitting'
p7066
aS'about'
p7067
aS'where'
p7068
aS'you'
p7069
aS'are'
p7070
aaa(lp7071
S'HAROLD'
p7072
a(lp7073
S'Yeah'
p7074
aaa(lp7075
S'MILES'
p7076
a(lp7077
S'He'
p7078
aS'was'
p7079
aS'sitting'
p7080
aS'there'
p7081
aaa(lp7082
g7076
a(lp7083
S'there'
p7084
aS'were'
p7085
aS'two'
p7086
aS'guys'
p7087
aS'sitting'
p7088
aS'at'
p7089
ag8
aS'table'
p7090
aS'right'
p7091
aS'where'
p7092
aS'you'
p7093
aS'are'
p7094
aaa(lp7095
g7076
a(lp7096
S'And'
p7097
aS'then'
p7098
aS'these'
p7099
aS'two'
p7100
aS'women'
p7101
aS'are'
p7102
aS'sitting'
p7103
aS'here'
p7104
aaa(lp7105
g7076
a(lp7106
S'So'
p7107
aS'uh'
p7108
aaa(lp7109
g7076
a(lp7110
S'he'
p7111
aS'comes'
p7112
aS'over'
p7113
aS'there'
p7114
aaa(lp7115
g7076
a(lp7116
S'and'
p7117
aS'is'
p7118
aS'talking'
p7119
aS'with'
p7120
aS'that'
p7121
aS'woman'
p7122
aaa(lp7123
g7076
a(lp7124
g16
aS'dont'
p7125
aS'know'
p7126
aS'about'
p7127
aS'what'
p7128
aaa(lp7129
g7076
a(lp7130
S'but'
p7131
aS'then'
p7132
aS'like'
p7133
aS'ten'
p7134
aS'minutes'
p7135
aS'later'
p7136
aaa(lp7137
g7076
a(lp7138
S'she'
p7139
aS'and'
p7140
aS'her'
p7141
aS'friend'
p7142
aS'are'
p7143
aS'over'
p7144
aS'at'
p7145
aS'their'
p7146
aS'table'
p7147
aaa(lp7148
g7076
a(lp7149
S'And'
p7150
aS'then'
p7151
aaa(lp7152
g7076
a(lp7153
S'twenty'
p7154
aS'minutes'
p7155
aS'later'
p7156
aaa(lp7157
g7076
a(lp7158
S'they'
p7159
aS'were'
p7160
aS'kinda'
p7161
aS'like'
p7162
aS'all'
p7163
aS'over'
p7164
aS'each'
p7165
aS'other'
p7166
aaa(lp7167
g7076
a(lp7168
S'You'
p7169
aS'know'
p7170
aaa(lp7171
g7076
a(lp7172
S'kissing'
p7173
aaa(lp7174
g7076
a(lp7175
S'et'
p7176
aS'cetera'
p7177
aaa(lp7178
g7076
a(lp7179
S'et'
p7180
aS'cetera'
p7181
aaa(lp7182
g7076
a(lp7183
S'And'
p7184
ag16
aS'was'
p7185
aS'thinking'
p7186
aaa(lp7187
g7076
a(lp7188
S'it'
p7189
aS'looks'
p7190
aS'like'
p7191
aaa(lp7192
g7076
a(lp7193
S'these'
p7194
aS'people'
p7195
aS'arent'
p7196
aS'going'
p7197
aS'home'
p7198
aS'alone'
p7199
aS'tonight'
p7200
aaa(lp7201
S'HAROLD'
p7202
a(lp7203
S'Gosh'
p7204
aaa(lp7205
S'MILES'
p7206
a(lp7207
S'But'
p7208
ag16
aS'just'
p7209
aS'thought'
p7210
aS'that'
p7211
aaa(lp7212
S'HAROLD'
p7213
a(lp7214
S'no'
p7215
aS'wonder'
p7216
aS'they'
p7217
aS'forbid'
p7218
aS'this'
p7219
aS'dance'
p7220
aaa(lp7221
S'MILES'
p7222
a(lp7223
S'So'
p7224
aaa(lp7225
S'JAMIE'
p7226
a(lp7227
S'Oh'
p7228
aS'my'
p7229
aS'God'
p7230
aaa(lp7231
g7226
a(lp7232
S'what'
p7233
ag8
aS'story'
p7234
aaa(lp7235
g7226
a(lp7236
S'Well'
p7237
aaa(lp7238
g7226
a(lp7239
S'maybe'
p7240
ag16
aS'shouldnt'
p7241
aS'go'
p7242
aS'there'
p7243
aS'then'
p7244
aaa(lp7245
S'HAROLD'
p7246
a(lp7247
S'Yeah'
p7248
aaa(lp7249
g7246
a(lp7250
S'maybe'
p7251
aS'you'
p7252
aS'shouldnt'
p7253
aaa(lp7254
S'MILES'
p7255
a(lp7256
S'It'
p7257
aS'it'
p7258
aS'it'
p7259
aS'was'
p7260
aS'interesting'
p7261
aaa(lp7262
S'JAMIE'
p7263
a(lp7264
S'No'
p7265
aaa(lp7266
g7263
a(lp7267
g16
ag65
aS'went'
p7268
ag65
aS'there'
p7269
aS'before'
p7270
aaa(lp7271
g7263
a(lp7272
S'it'
p7273
aS'was'
p7274
aS'fine'
p7275
aaa(lp7276
g7263
a(lp7277
S'it'
p7278
aS'was'
p7279
aS'really'
p7280
aS'fun'
p7281
aaa(lp7282
S'HAROLD'
p7283
a(lp7284
S'You'
p7285
aS'were'
p7286
aS'there'
p7287
aS'before'
p7288
aaa(lp7289
S'JAMIE'
p7290
a(lp7291
S'Yeah'
p7292
aaa(lp7293
g7290
a(lp7294
g16
aS'went'
p7295
aS'out'
p7296
aS'there'
p7297
aS'before'
p7298
aaa(lp7299
S'HAROLD'
p7300
a(lp7301
S'Oh'
p7302
aaa(lp7303
S'PETE'
p7304
a(lp7305
S'Without'
p7306
aS'even'
p7307
aS'telling'
p7308
aS'Harold'
p7309
aaa(lp7310
S'HAROLD'
p7311
a(lp7312
S'Without'
p7313
aS'telling'
p7314
aS'me'
p7315
aaa(lp7316
S'JAMIE'
p7317
a(lp7318
S'You'
p7319
aS'knew'
p7320
aaa(lp7321
g7317
a(lp7322
g65
aS'If'
p7323
ag65
ag16
aS'was'
p7324
aS'going'
p7325
aS'out'
p7326
aS'dancing'
p7327
aaa(lp7328
S'HAROLD'
p7329
a(lp7330
S'Oh'
p7331
aaa(lp7332
g7329
a(lp7333
S'Oh'
p7334
aaa(lp7335
g7329
a(lp7336
g16
aS'did'
p7337
aaa(lp7338
S'JAMIE'
p7339
a(lp7340
S'Remember'
p7341
ag8
aS'few'
p7342
aS'months'
p7343
aS'ago'
p7344
ag16
aS'used'
p7345
aS'to'
p7346
aS'go'
p7347
aS'out'
p7348
aS'dancing'
p7349
aaa(lp7350
g7339
a(lp7351
S'every'
p7352
aS'now'
p7353
aS'and'
p7354
aS'then'
p7355
aaa(lp7356
S'HAROLD'
p7357
a(lp7358
S'Hmm'
p7359
aaa(lp7360
g7357
a(lp7361
g16
aS'dont'
p7362
aS'remember'
p7363
aaa(lp7364
S'MILES'
p7365
a(lp7366
S'Well'
p7367
aS'the'
p7368
aS'thing'
p7369
aS'that'
p7370
aS'gets'
p7371
aS'me'
p7372
aaa(lp7373
g7365
a(lp7374
g16
aS'meet'
p7375
aS'this'
p7376
aaa(lp7377
S'JAMIE'
p7378
a(lp7379
S'to'
p7380
aS'Caesars'
p7381
aaa(lp7382
g7378
a(lp7383
S'and'
p7384
aS'stuff'
p7385
aaa(lp7386
S'MILES'
p7387
a(lp7388
g16
aS'meet'
p7389
aS'this'
p7390
aS'psychotherapist'
p7391
aaa(lp7392
g7387
a(lp7393
S'who'
p7394
aS'tells'
p7395
aS'me'
p7396
aS'shes'
p7397
aS'addicted'
p7398
aS'to'
p7399
aS'this'
p7400
aS'dance'
p7401
aaa(lp7402
g7387
a(lp7403
S'which'
p7404
ag16
aS'th'
p7405
aaa(lp7406
g7387
a(lp7407
S'think'
p7408
aS'is'
p7409
ag8
aS'interesting'
p7410
aS'choice'
p7411
aS'of'
p7412
aS'words'
p7413
aS'for'
p7414
ag8
aS'psychotherapist'
p7415
aS'to'
p7416
aS'use'
p7417
aaa(lp7418
g7387
a(lp7419
S'But'
p7420
aS'uh'
p7421
aaa(lp7422
g7387
a(lp7423
S'shes'
p7424
aS'married'
p7425
aaa(lp7426
g7387
a(lp7427
S'and'
p7428
aS'apparently'
p7429
aS'shes'
p7430
aS'there'
p7431
aS'without'
p7432
aS'her'
p7433
aS'husband'
p7434
aaa(lp7435
g7387
a(lp7436
S'She'
p7437
aS'has'
p7438
aS'her'
p7439
aS'wedding'
p7440
aS'ring'
p7441
aS'on'
p7442
aaa(lp7443
g7387
a(lp7444
S'And'
p7445
aS'its'
p7446
aS'like'
p7447
aS'shes'
p7448
aS'with'
p7449
aS'this'
p7450
aS'guy'
p7451
aaa(lp7452
g7387
a(lp7453
S'and'
p7454
aS'theyre'
p7455
aS'kinda'
p7456
aS'like'
p7457
aS'all'
p7458
aS'over'
p7459
aS'each'
p7460
aS'other'
p7461
aaa(lp7462
g7387
a(lp7463
S'And'
p7464
aS'Im'
p7465
aS'thinking'
p7466
aaa(lp7467
g7387
a(lp7468
S'well'
p7469
aaa(lp7470
g7387
a(lp7471
g16
aS'guess'
p7472
aS'thats'
p7473
aS'her'
p7474
aS'husband'
p7475
aaa(lp7476
S'JAMIE'
p7477
a(lp7478
S'Uhoh'
p7479
aS'did'
p7480
aS'you'
p7481
aS'say'
p7482
aS'something'
p7483
aaa(lp7484
S'MILES'
p7485
a(lp7486
S'but'
p7487
ag16
aaa(lp7488
S'JAMIE'
p7489
a(lp7490
aa(lp7491
S'MILES'
p7492
a(lp7493
S'but'
p7494
ag16
aS'was'
p7495
aS'thinking'
p7496
aaa(lp7497
g7492
a(lp7498
S'but'
p7499
aS'the'
p7500
aS'thing'
p7501
aS'is'
p7502
aaa(lp7503
g7492
a(lp7504
S'you'
p7505
aS'know'
p7506
aS'shes'
p7507
aS'kind'
p7508
aS'of'
p7509
aS'all'
p7510
aS'sophisticated'
p7511
aS'and'
p7512
aS'everything'
p7513
aaa(lp7514
g7492
a(lp7515
S'and'
p7516
aS'Im'
p7517
aS'thinking'
p7518
aaa(lp7519
g7492
a(lp7520
S'you'
p7521
aS'know'
p7522
aaa(lp7523
g7492
a(lp7524
S'this'
p7525
aS'guy'
p7526
aaa(lp7527
g7492
a(lp7528
g16
aS'cant'
p7529
aS'really'
p7530
aS'believe'
p7531
aS'that'
p7532
aS'guys'
p7533
aS'her'
p7534
aS'husband'
p7535
aaa(lp7536
g7492
a(lp7537
S'So'
p7538
ag16
aS'dont'
p7539
aS'know'
p7540
aS'whats'
p7541
aS'going'
p7542
aS'on'
p7543
aS'here'
p7544
aaa(lp7545
g7492
a(lp7546
S'And'
p7547
aS'of'
p7548
aS'course'
p7549
aS'later'
p7550
aS'on'
p7551
ag16
aS'find'
p7552
aS'out'
p7553
aaa(lp7554
g7492
a(lp7555
S'thats'
p7556
aS'not'
p7557
aS'her'
p7558
aS'husband'
p7559
aaa(lp7560
g7492
a(lp7561
S'HI'
p7562
aS'So'
p7563
aaa(lp7564
g7492
a(lp7565
S'Im'
p7566
aS'thinking'
p7567
aaa(lp7568
g7492
a(lp7569
S'you'
p7570
aS'know'
p7571
aS'HI'
p7572
aaa(lp7573
g7492
a(lp7574
g16
aS'dont'
p7575
aS'know'
p7576
aS'whats'
p7577
aS'going'
p7578
aS'on'
p7579
aS'here'
p7580
aaa(lp7581
g7492
a(lp7582
S'But'
p7583
aS'uh'
p7584
aaa(lp7585
g7492
a(lp7586
S'bizarre'
p7587
aaa(lp7588
S'JAMIE'
p7589
a(lp7590
S'Gossip'
p7591
aaa(lp7592
S'MILES'
p7593
a(lp7594
S'But'
p7595
aS'then'
p7596
aS'she'
p7597
aS'tells'
p7598
aS'me'
p7599
aaa(lp7600
g7593
a(lp7601
S'gee'
p7602
ag16
aS'dont'
p7603
aS'know'
p7604
aS'what'
p7605
aS'it'
p7606
aS'is'
p7607
aS'about'
p7608
aS'this'
p7609
aS'guy'
p7610
ag16
aS'mean'
p7611
aaa(lp7612
g7593
a(lp7613
S'Ive'
p7614
aS'been'
p7615
aS'trying'
p7616
aS'to'
p7617
aS'tell'
p7618
aS'him'
p7619
ag16
aS'dont'
p7620
aS'want'
p7621
ag8
aS'sexual'
p7622
aS'relationship'
p7623
aS'with'
p7624
aS'him'
p7625
aaa(lp7626
g7593
a(lp7627
S'and'
p7628
aS'Im'
p7629
aS'thinking'
p7630
aaa(lp7631
g7593
a(lp7632
S'from'
p7633
aS'the'
p7634
aS'way'
p7635
aS'they'
p7636
aS'look'
p7637
aaa(lp7638
g7593
a(lp7639
S'when'
p7640
aS'Id'
p7641
aS'seen'
p7642
aS'them'
p7643
aS'three'
p7644
aS'weeks'
p7645
aS'before'
p7646
aaa(lp7647
g7593
a(lp7648
S'it'
p7649
aS'looked'
p7650
aS'to'
p7651
aS'me'
p7652
aS'like'
p7653
aS'they'
p7654
aS'had'
p7655
aS'one'
p7656
aaa(lp7657
g7593
a(lp7658
S'Im'
p7659
aS'thinking'
p7660
aaa(lp7661
g7593
a(lp7662
S'you'
p7663
aS'dont'
p7664
aS'do'
p7665
aS'that'
p7666
aS'with'
p7667
aaa(lp7668
S'JAMIE'
p7669
a(lp7670
S'So'
p7671
aaa(lp7672
g7669
a(lp7673
S'This'
p7674
aS'is'
p7675
aS'all'
p7676
aS'at'
p7677
aS'Bahia'
p7678
aaa(lp7679
S'MILES'
p7680
a(lp7681
S'strangers'
p7682
aaa(lp7683
S'JAMIE'
p7684
a(lp7685
S'All'
p7686
aS'this'
p7687
aS'stuff'
p7688
aS'happens'
p7689
aS'at'
p7690
aS'Bahia'
p7691
aaa(lp7692
S'MILES'
p7693
a(lp7694
S'Yeah'
p7695
aaa(lp7696
S'JAMIE'
p7697
a(lp7698
S'Hunh'
p7699
aaa(lp7700
S'MILES'
p7701
a(lp7702
S'To'
p7703
aS'other'
p7704
aS'people'
p7705
ag16
aS'mean'
p7706
aaa(lp7707
S'JAMIE'
p7708
a(lp7709
aa(lp7710
g7708
a(lp7711
S'Well'
p7712
aaa(lp7713
S'MILES'
p7714
a(lp7715
g65
aaa(lp7716
S'JAMIE'
p7717
a(lp7718
g16
aS'mean'
p7719
aS'maybe'
p7720
aaa(lp7721
S'HAROLD'
p7722
a(lp7723
S'That'
p7724
aS'was'
p7725
aS'actually'
p7726
aS'very'
p7727
aS'profound'
p7728
aaa(lp7729
S'JAMIE'
p7730
a(lp7731
S'Yeah'
p7732
aaa(lp7733
g7730
a(lp7734
S'that'
p7735
aS'was'
p7736
aaa(lp7737
g7730
a(lp7738
S'Maybe'
p7739
aS'you'
p7740
aS'can'
p7741
aS'just'
p7742
aS'go'
p7743
aS'up'
p7744
aS'to'
p7745
ag8
aS'woman'
p7746
aaa(lp7747
g7730
a(lp7748
S'and'
p7749
aaa(lp7750
g7730
a(lp7751
S'you'
p7752
aS'know'
p7753
aaa(lp7754
g7730
a(lp7755
S'do'
p7756
aS'that'
p7757
aS'kinda'
p7758
aS'thing'
p7759
aaa(lp7760
S'HAROLD'
p7761
a(lp7762
S'Yeah'
p7763
aaa(lp7764
g7761
a(lp7765
S'You'
p7766
aaa(lp7767
g7761
a(lp7768
S'You'
p7769
aS'wind'
p7770
aS'up'
p7771
aS'getting'
p7772
aS'punched'
p7773
aaa(lp7774
S'PETE'
p7775
a(lp7776
S'Mhm'
p7777
aaa(lp7778
S'HAROLD'
p7779
a(lp7780
S'is'
p7781
aS'whatll'
p7782
aS'happen'
p7783
aaa(lp7784
S'JAMIE'
p7785
a(lp7786
aa(lp7787
g7785
a(lp7788
S'Probably'
p7789
aaa(lp7790
g7785
a(lp7791
S'somethingll'
p7792
aS'land'
p7793
aS'in'
p7794
aS'your'
p7795
aS'mouth'
p7796
aaa(lp7797
S'PETE'
p7798
a(lp7799
S'Well'
p7800
aaa(lp7801
g7798
a(lp7802
S'it'
p7803
aS'sounds'
p7804
aS'like'
p7805
aS'there'
p7806
aS'you'
p7807
aS'wouldnt'
p7808
aS'be'
p7809
aS'though'
p7810
aaa(lp7811
S'JAMIE'
p7812
a(lp7813
aa(lp7814
g7812
a(lp7815
S'What'
p7816
aaa(lp7817
S'MILES'
p7818
a(lp7819
S'Yeah'
p7820
aaa(lp7821
g7818
a(lp7822
S'right'
p7823
aaa(lp7824
S'JAMIE'
p7825
a(lp7826
aa(lp7827
S'MILES'
p7828
a(lp7829
g16
aS'really'
p7830
aaa(lp7831
g7828
a(lp7832
S'was'
p7833
aS'wondering'
p7834
aS'what'
p7835
aS'that'
p7836
aS'guy'
p7837
aS'was'
p7838
aS'thinking'
p7839
aaa(lp7840
g7828
a(lp7841
S'He'
p7842
aS'must'
p7843
aS'have'
p7844
aS'been'
p7845
aaa(lp7846
g7828
a(lp7847
S'j'
p7848
aS'since'
p7849
aS'he'
p7850
aS'didnt'
p7851
aS'know'
p7852
aS'her'
p7853
aaa(lp7854
g7828
a(lp7855
S'HI'
p7856
aS'that'
p7857
aS'must'
p7858
aS'have'
p7859
aS'been'
p7860
aS'quite'
p7861
ag8
aS'shock'
p7862
aS'HI'
p7863
aaa(lp7864
S'JAMIE'
p7865
a(lp7866
S'That'
p7867
aS'was'
p7868
aS'really'
p7869
aS'weird'
p7870
aaa(lp7871
g7865
a(lp7872
S'That'
p7873
aS'sounds'
p7874
aS'really'
p7875
aS'weird'
p7876
aaa(lp7877
S'MILES'
p7878
a(lp7879
g16
aS'mean'
p7880
aaa(lp7881
g7878
a(lp7882
S'youre'
p7883
aaa(lp7884
g7878
a(lp7885
S'y'
p7886
ag7886
aS'fifty'
p7887
aS'year'
p7888
aS'old'
p7889
aS'guy'
p7890
aaa(lp7891
g7878
a(lp7892
S'and'
p7893
aaa(lp7894
g7878
a(lp7895
S'some'
p7896
aS'twentyyearold'
p7897
aS'woman'
p7898
aS'comes'
p7899
aS'up'
p7900
aS'doing'
p7901
aS'that'
p7902
aS'to'
p7903
aS'you'
p7904
aaa(lp7905
g7878
a(lp7906
S'uh'
p7907
aaa(lp7908
g7878
a(lp7909
S'HI'
p7910
aS'what'
p7911
aS'do'
p7912
aS'you'
p7913
aS'think'
p7914
aS'HI'
p7915
aaa(lp7916
S'HAROLD'
p7917
a(lp7918
g16
aS'think'
p7919
aS'you'
p7920
aS'think'
p7921
aaa(lp7922
g7917
a(lp7923
S'you'
p7924
aS'better'
p7925
aS'go'
p7926
aS'back'
p7927
aS'to'
p7928
aS'your'
p7929
aS'table'
p7930
aaa(lp7931
g7917
a(lp7932
S'fast'
p7933
aaa(lp7934
S'PETE'
p7935
a(lp7936
S'Right'
p7937
aaa(lp7938
S'HAROLD'
p7939
a(lp7940
S'Apparently'
p7941
aaa(lp7942
S'JAMIE'
p7943
a(lp7944
aa(lp7945
S'HAROLD'
p7946
a(lp7947
S'Ill'
p7948
ag6001
aS'Ill'
p7949
aS'tell'
p7950
aS'you'
p7951
aS'when'
p7952
aS'Im'
p7953
aS'fifty'
p7954
aS'what'
p7955
aS'you'
p7956
aS'think'
p7957
aaa(lp7958
g7946
a(lp7959
S'okay'
p7960
aaa(lp7961
S'JAMIE'
p7962
a(lp7963
aa(lp7964
S'MILES'
p7965
a(lp7966
aa(lp7967
S'JAMIE'
p7968
a(lp7969
aa(lp7970
S'MILES'
p7971
a(lp7972
S'Mhm'
p7973
aaa(lp7974
S'HAROLD'
p7975
a(lp7976
S'What'
p7977
aaa(lp7978
S'JAMIE'
p7979
a(lp7980
g65
aS'Thatll'
p7981
ag65
aS'be'
p7982
aS'weird'
p7983
aS'when'
p7984
aS'youre'
p7985
aS'fifty'
p7986
aaa(lp7987
g7979
a(lp7988
S'Wonder'
p7989
aS'what'
p7990
aS'youll'
p7991
aS'look'
p7992
aS'like'
p7993
aaa(lp7994
S'HAROLD'
p7995
a(lp7996
S'Nobodys'
p7997
aS'fifty'
p7998
aaa(lp7999
g7995
a(lp8000
S'dont'
p8001
aS'worry'
p8002
aS'about'
p8003
aS'it'
p8004
aaa(lp8005
S'JAMIE'
p8006
a(lp8007
S'Oh'
p8008
aaa(lp8009
g8006
a(lp8010
S'okay'
p8011
aaa(lp8012
g8006
a(lp8013
S'Ha'
p8014
aS'ha'
p8015
aS'ha'
p8016
aaa(lp8017
g8006
a(lp8018
S'la'
p8019
aS'lala'
p8020
aS'lala'
p8021
aaa(lp8022
S'MILES'
p8023
a(lp8024
S'Oh'
p8025
aS'well'
p8026
aaa(lp8027
g8023
a(lp8028
S'ten'
p8029
aS'oclock'
p8030
aaa(lp8031
g8023
a(lp8032
S'Look'
p8033
aS'like'
p8034
aS'its'
p8035
aS'bedtime'
p8036
aS'for'
p8037
aS'some'
p8038
aS'folks'
p8039
aS'here'
p8040
aaa(lp8041
S'HAROLD'
p8042
a(lp8043
S'Yep'
p8044
aaa(lp8045
S'JAMIE'
p8046
a(lp8047
S'Yeah'
p8048
aaa(lp8049
g8046
a(lp8050
S'actually'
p8051
aS'its'
p8052
aS'pretty'
p8053
aS'much'
p8054
aS'bed'
p8055
aS'time'
p8056
aS'for'
p8057
aS'me'
p8058
aS'soon'
p8059
aaa(lp8060
S'PETE'
p8061
a(lp8062
S'Hm'
p8063
aaa(lp8064
S'HAROLD'
p8065
a(lp8066
S'Yep'
p8067
aaa(lp8068
S'MILES'
p8069
a(lp8070
S'Well'
p8071
aS'that'
p8072
aS'was'
p8073
aS'good'
p8074
aS'ice'
p8075
aS'cream'
p8076
aaa(lp8077
g8069
a(lp8078
S'What'
p8079
aS'kind'
p8080
aS'of'
p8081
aS'ice'
p8082
aS'cream'
p8083
aS'was'
p8084
aS'that'
p8085
aaa(lp8086
S'HAROLD'
p8087
a(lp8088
S'Buds'
p8089
aaa(lp8090
S'JAMIE'
p8091
a(lp8092
S'Pralines'
p8093
aS'and'
p8094
aS'cream'
p8095
aaa(lp8096
g8091
a(lp8097
S'What'
p8098
aS'is'
p8099
aS'it'
p8100
aS'called'
p8101
aaa(lp8102
S'MILES'
p8103
a(lp8104
S'But'
p8105
aS'what'
p8106
aS'flavor'
p8107
aaa(lp8108
S'HAROLD'
p8109
a(lp8110
S'Uh'
p8111
aaa(lp8112
g8109
a(lp8113
S'pecan'
p8114
aS'praline'
p8115
aaa(lp8116
S'PETE'
p8117
a(lp8118
S'Praline'
p8119
aaa(lp8120
S'JAMIE'
p8121
a(lp8122
S'p'
p8123
aaa(lp8124
S'HAROLD'
p8125
a(lp8126
S'or'
p8127
aS'something'
p8128
aS'like'
p8129
aS'that'
p8130
aaa(lp8131
S'PETE'
p8132
a(lp8133
S'Right'
p8134
aaa.