(lp0
(lp1
S'NICK'
p2
a(lp3
S'Go'
p4
aS'get'
p5
aS'him'
p6
aaa(lp7
S'XX'
p8
a(lp9
S'Little'
p10
aS'boys'
p11
aS'room'
p12
aS'X'
p13
aaa(lp14
S'BENTON'
p15
a(lp16
S'VOX'
p17
aS'iai'
p18
aS'VOX'
p19
aaa(lp20
S'NICK'
p21
a(lp22
S'God'
p23
aaa(lp24
S'DARREN'
p25
a(lp26
S'No'
p27
aaa(lp28
S'NICK'
p29
a(lp30
S'That'
p31
aS'whale'
p32
aS'got'
p33
aS'beached'
p34
aaa(lp35
S'MARTINHes'
p36
a(lp37
S'not'
p38
aS'ready'
p39
aS'for'
p40
aS'that'
p41
aS'one'
p42
aaa(lp43
S'DARRENNo'
p44
a(lp45
aa(lp46
S'NICK'
p47
a(lp48
S'Now'
p49
aaa(lp50
S'MARTINYou'
p51
a(lp52
S'know'
p53
aS'how'
p54
aS'I'
p55
aaa(lp56
S'NICK'
p57
a(lp58
S'Alright'
p59
aaa(lp60
S'XXX'
p61
a(lp62
S'XXX'
p63
aaa(lp64
S'NICK'
p65
a(lp66
S'Lets'
p67
aS'us'
p68
aS'three'
p69
aS'get'
p70
aS'together'
p71
aaa(lp72
g65
a(lp73
S'Us'
p74
aS'four'
p75
aaa(lp76
S'DARREN'
p77
a(lp78
g13
aS'you'
p79
aS'want'
p80
ag13
aS'the'
p81
aS'mat'
p82
aaa(lp83
S'NICK'
p84
a(lp85
S'Bill'
p86
aaa(lp87
g84
a(lp88
S'you'
p89
aS'wanted'
p90
aS'to'
p91
aS'learn'
p92
aS'Hanemakikomi'
p93
aaa(lp94
S'BILL'
p95
a(lp96
S'Yep'
p97
aaa(lp98
g95
a(lp99
g13
aS'sensei'
p100
aaa(lp101
S'NICK'
p102
a(lp103
S'Right'
p104
aaa(lp105
S'BILL'
p106
a(lp107
g13
aS'Right'
p108
ag13
aaa(lp109
S'NICK'
p110
a(lp111
S'Darren'
p112
aaa(lp113
g110
a(lp114
S'drag'
p115
aS'that'
p116
aS'crashpad'
p117
aS'to'
p118
aS'the'
p119
aS'center'
p120
aS'of'
p121
aS'the'
p122
aS'mats'
p123
aS'and'
p124
aaa(lp125
S'X'
p126
a(lp127
g13
aS'Bad'
p128
aS'connection'
p129
ag13
aaa(lp130
S'NICK'
p131
a(lp132
S'Okay'
p133
aaa(lp134
g131
a(lp135
S'when'
p136
ag55
aS'throw'
p137
aS'you'
p138
aS'Darren'
p139
aaa(lp140
g131
a(lp141
S'Im'
p142
aS'gonna'
p143
aS'want'
p144
aS'you'
p145
aS'to'
p146
aaa(lp147
g131
a(lp148
S'MRC'
p149
aS'slap'
p150
aS'real'
p151
aS'hard'
p152
aS'MRC'
p153
aaa(lp154
g131
a(lp155
S'Okay'
p156
aaa(lp157
g131
a(lp158
S'its'
p159
aS'gonna'
p160
aS'be'
p161
aS'a'
p162
aS'rather'
p163
aS'hard'
p164
aS'fall'
p165
aaa(lp166
g131
a(lp167
S'This'
p168
aS'way'
p169
aS'yall'
p170
aS'two'
p171
aS'can'
p172
aS'see'
p173
aS'it'
p174
aaa(lp175
S'DARREN'
p176
a(lp177
S'Oh'
p178
aS'boy'
p179
aaa(lp180
g176
a(lp181
S'Okay'
p182
aaa(lp183
S'NICK'
p184
a(lp185
S'Well'
p186
aS'not'
p187
aS'an'
p188
aS'oh'
p189
aS'boy'
p190
aS'anything'
p191
aaa(lp192
g184
a(lp193
S'its'
p194
aaa(lp195
S'DARREN'
p196
a(lp197
S'Oh'
p198
aS'man'
p199
aaa(lp200
S'NICK'
p201
a(lp202
S'No'
p203
aS'youre'
p204
aaa(lp205
S'DARREN'
p206
a(lp207
S'Oh'
p208
aS'God'
p209
aaa(lp210
S'NICK'
p211
a(lp212
aa(lp213
S'BILL'
p214
a(lp215
aa(lp216
S'NICKThere'
p217
a(lp218
S'you'
p219
aS'go'
p220
aaa(lp221
g217
a(lp222
S'There'
p223
aS'you'
p224
aS'go'
p225
aaa(lp226
S'X'
p227
a(lp228
aa(lp229
S'NICKDidnt'
p230
a(lp231
S'you'
p232
aS'wanted'
p233
aS'to'
p234
aS'hurt'
p235
aS'my'
p236
aS'new'
p237
aS'Brown'
p238
aS'Belt'
p239
aS'tonight'
p240
aaa(lp241
g230
a(lp242
S'Alright'
p243
aaa(lp244
g230
a(lp245
S'take'
p246
aS'an'
p247
aS'inside'
p248
aS'sleeve'
p249
aS'grip'
p250
aS'with'
p251
aS'it'
p252
aaa(lp253
g230
a(lp254
S'And'
p255
aaa(lp256
g230
a(lp257
S'go'
p258
aS'ahead'
p259
aS'and'
p260
aS'grip'
p261
aS'my'
p262
aS'gi'
p263
aaa(lp264
g230
a(lp265
S'normally'
p266
aaa(lp267
g230
a(lp268
S'Darren'
p269
aaa(lp270
g230
a(lp271
S'Now'
p272
aS'with'
p273
aS'the'
p274
aS'Hanemakikomi'
p275
aaa(lp276
g230
a(lp277
S'you'
p278
aS'know'
p279
aS'how'
p280
aS'Makikomi'
p281
aaa(lp282
g230
a(lp283
S'the'
p284
aS'springing'
p285
aS'hip'
p286
aS'works'
p287
aaa(lp288
g230
a(lp289
S'You'
p290
aS'jerk'
p291
aS'em'
p292
aS'up'
p293
aS'to'
p294
aS'you'
p295
aS'onto'
p296
aS'your'
p297
aS'chest'
p298
aaa(lp299
S'X'
p300
a(lp301
S'Mhm'
p302
aaa(lp303
S'NICK'
p304
a(lp305
S'Pivot'
p306
aaa(lp307
S'DARREN'
p308
a(lp309
aa(lp310
S'NICKAnd'
p311
a(lp312
S'then'
p313
aS'spring'
p314
aS'em'
p315
aS'out'
p316
aaa(lp317
S'DARRENOw'
p318
a(lp319
aa(lp320
g318
a(lp321
S'WH'
p322
aS'Fuck'
p323
aS'WH'
p324
aaa(lp325
S'NICK'
p326
a(lp327
S'With'
p328
aS'their'
p329
aS'thigh'
p330
aaa(lp331
g326
a(lp332
g55
aS'mean'
p333
aS'wi'
p334
aaa(lp335
g326
a(lp336
S'with'
p337
aS'their'
p338
aS'thigh'
p339
aaa(lp340
S'BENTONX'
p341
a(lp342
S'Put'
p343
ag13
aS'your'
p344
aS'ankles'
p345
aS'together'
p346
aS'Darren'
p347
aaa(lp348
S'NICK'
p349
a(lp350
S'thigh'
p351
aaa(lp352
S'DARRENNope'
p353
a(lp354
aa(lp355
S'NICKand'
p356
a(lp357
S'uh'
p358
aS'calf'
p359
aaa(lp360
g356
a(lp361
S'Hunh'
p362
aaa(lp363
S'BENTON'
p364
a(lp365
S'XXX'
p366
aS'XX'
p367
aS'ankles'
p368
aS'together'
p369
aaa(lp370
S'DARRENUm'
p371
a(lp372
aa(lp373
g371
a(lp374
S'actually'
p375
aS'in'
p376
aS'this'
p377
aS'case'
p378
aaa(lp379
g371
a(lp380
S'this'
p381
aS'to'
p382
aS'that'
p383
aaa(lp384
g371
a(lp385
S'dont'
p386
aS'do'
p387
aS'it'
p388
aaa(lp389
g371
a(lp390
g55
aS'dont'
p391
aS'recommend'
p392
aS'it'
p393
aaa(lp394
S'NICK'
p395
a(lp396
S'We'
p397
aS'try'
p398
aS'not'
p399
aaa(lp400
g395
a(lp401
S'We'
p402
aS'have'
p403
ag162
aS'little'
p404
aS'rank'
p405
aaa(lp406
g395
a(lp407
S'W'
p408
aS'only'
p409
aS'White'
p410
aS'Belts'
p411
aS'do'
p412
aS'that'
p413
aS'Darren'
p414
aaa(lp415
g395
a(lp416
S'Thats'
p417
aS'okay'
p418
aaa(lp419
S'DARRENWell'
p420
a(lp421
aa(lp422
S'NICK'
p423
a(lp424
aa(lp425
S'DARRENI'
p426
a(lp427
S'dont'
p428
aS'know'
p429
aS'what'
p430
aS'the'
p431
aS'hell'
p432
aS'Im'
p433
aS'doing'
p434
aaa(lp435
S'NICK'
p436
a(lp437
S'Okay'
p438
aaa(lp439
S'XOkay'
p440
a(lp441
aa(lp442
S'NICK'
p443
a(lp444
S'This'
p445
aS'w'
p446
aS'this'
p447
aS'time'
p448
aS'you'
p449
aS'wont'
p450
aS'get'
p451
ag162
aS'chance'
p452
aS'to'
p453
aaa(lp454
S'DARREN'
p455
a(lp456
S'Its'
p457
aS'gonna'
p458
aS'be'
p459
ag162
aS'lot'
p460
aS'faster'
p461
aS'isnt'
p462
aS'it'
p463
aaa(lp464
S'NICK'
p465
a(lp466
S'Well'
p467
aaa(lp468
g465
a(lp469
S'yes'
p470
aS'and'
p471
aaa(lp472
g465
a(lp473
S'youre'
p474
aS'gonna'
p475
aS'be'
p476
aS'carrying'
p477
aS'the'
p478
aS'weight'
p479
aS'of'
p480
aS'both'
p481
aS'of'
p482
aS'us'
p483
ag13
aS'when'
p484
aS'youre'
p485
aS'on'
p486
aS'your'
p487
aS'heels'
p488
ag13
aaa(lp489
S'DARRENX'
p490
a(lp491
S'Oh'
p492
aS'okay'
p493
ag13
aaa(lp494
S'NICK'
p495
a(lp496
S'Alright'
p497
aaa(lp498
g495
a(lp499
S'Now'
p500
ag446
aaa(lp501
g495
a(lp502
S'Just'
p503
aS'relax'
p504
aaa(lp505
g495
a(lp506
S'Im'
p507
aS'not'
p508
aS'gonna'
p509
aS'hurt'
p510
aS'you'
p511
aS'at'
p512
aS'all'
p513
aaa(lp514
g495
a(lp515
S'Uh'
p516
aaa(lp517
g495
a(lp518
S'when'
p519
ag55
aS'do'
p520
aS'the'
p521
aS'Mak'
p522
aaa(lp523
g495
a(lp524
S'uh'
p525
aS'the'
p526
aS'Hanegoshi'
p527
aaa(lp528
g495
a(lp529
S'instead'
p530
aS'of'
p531
aS'pulling'
p532
aS'him'
p533
aS'all'
p534
aS'the'
p535
aS'way'
p536
aS'up'
p537
aaa(lp538
g495
a(lp539
S'Like'
p540
aS'this'
p541
aaa(lp542
g495
a(lp543
S'Im'
p544
aS'gonna'
p545
aS'come'
p546
aaa(lp547
g495
a(lp548
S'and'
p549
aS'let'
p550
aS'go'
p551
aS'with'
p552
aS'this'
p553
aS'hand'
p554
aaa(lp555
g495
a(lp556
S'With'
p557
aS'my'
p558
aS'right'
p559
aS'hand'
p560
aaa(lp561
g495
a(lp562
S'Im'
p563
aS'gonna'
p564
aS'wrap'
p565
aS'his'
p566
aS'right'
p567
aS'arm'
p568
aS'up'
p569
aaa(lp570
S'DARRENX'
p571
a(lp572
S'Like'
p573
aS'so'
p574
ag13
aaa(lp575
S'NICKJust'
p576
a(lp577
S'like'
p578
aS'this'
p579
aaa(lp580
g576
a(lp581
S'Just'
p582
aS'like'
p583
aS'you'
p584
aS'would'
p585
aS'in'
p586
ag162
aS'regular'
p587
aaa(lp588
g576
a(lp589
S'Sodemakikomi'
p590
aaa(lp591
g576
a(lp592
S'Then'
p593
aS'Im'
p594
aS'gonna'
p595
aS'slam'
p596
aS'this'
p597
aS'leg'
p598
aS'up'
p599
aaa(lp600
S'DARREN'
p601
a(lp602
aa(lp603
S'NICKand'
p604
a(lp605
S'let'
p606
aS'fly'
p607
aaa(lp608
S'DARRENInteresting'
p609
a(lp610
aa(lp611
S'NICK'
p612
a(lp613
S'Theres'
p614
aS'not'
p615
aS'much'
p616
aS'difference'
p617
aaa(lp618
g612
a(lp619
g55
aS'mean'
p620
aaa(lp621
g612
a(lp622
S'its'
p623
ag162
aS'little'
p624
aS'more'
p625
aS'dynamic'
p626
aaa(lp627
g612
a(lp628
S'and'
p629
aS'its'
p630
aS'good'
p631
aaa(lp632
g612
a(lp633
S'when'
p634
aS'you'
p635
aS'catch'
p636
ag162
aS'bentover'
p637
aS'opponent'
p638
aaa(lp639
g612
a(lp640
S'Out'
p641
aS'there'
p642
aS'in'
p643
aS'shiai'
p644
aaa(lp645
g612
a(lp646
S'Or'
p647
aS'randori'
p648
aaa(lp649
g612
a(lp650
S'No'
p651
aS'need'
p652
aS'to'
p653
aS'fix'
p654
aS'your'
p655
aS'gi'
p656
aS'right'
p657
aS'now'
p658
aaa(lp659
g612
a(lp660
S'Its'
p661
aS'gonna'
p662
aS'get'
p663
aS'messed'
p664
aS'up'
p665
aaa(lp666
g612
a(lp667
S'Bend'
p668
aS'over'
p669
aS'for'
p670
aS'me'
p671
aS'Darren'
p672
aaa(lp673
g612
a(lp674
S'No'
p675
aS'not'
p676
aaa(lp677
g612
a(lp678
S'Yeah'
p679
aaa(lp680
g612
a(lp681
S'Bend'
p682
aS'over'
p683
aS'like'
p684
ag162
aaa(lp685
g612
a(lp686
S'Grab'
p687
aS'my'
p688
aS'gi'
p689
aaa(lp690
S'DARREN'
p691
a(lp692
S'Alright'
p693
aaa(lp694
S'NICKFrom'
p695
a(lp696
S'right'
p697
aS'here'
p698
aaa(lp699
g695
a(lp700
S'then'
p701
ag55
aS'come'
p702
aaa(lp703
S'DARREN'
p704
a(lp705
aa(lp706
S'NICKIm'
p707
a(lp708
S'doing'
p709
ag162
aaa(lp710
g707
a(lp711
S'Pardon'
p712
aS'me'
p713
aaa(lp714
g707
a(lp715
S'Let'
p716
aS'me'
p717
aS'go'
p718
aS'back'
p719
aS'to'
p720
aS'Hanemakikomi'
p721
aaa(lp722
g707
a(lp723
S'Im'
p724
aS'doing'
p725
aS'Sode'
p726
aaa(lp727
g707
a(lp728
S'Bend'
p729
aS'over'
p730
aaa(lp731
g707
a(lp732
S'Im'
p733
aS'just'
p734
aS'gonna'
p735
aS'kinda'
p736
aS'scoop'
p737
aS'his'
p738
aS'arms'
p739
aS'up'
p740
aaa(lp741
g707
a(lp742
S'Bring'
p743
aS'it'
p744
aS'across'
p745
aaa(lp746
S'DARREN'
p747
a(lp748
aa(lp749
S'NICK'
p750
a(lp751
S'Notice'
p752
aS'how'
p753
aS'high'
p754
ag55
aS'get'
p755
aS'up'
p756
aS'into'
p757
aS'his'
p758
aS'crotch'
p759
aS'with'
p760
aS'that'
p761
aS'foot'
p762
aaa(lp763
g750
a(lp764
S'That'
p765
aS'gives'
p766
aS'me'
p767
aS'more'
p768
aS'lift'
p769
aS'to'
p770
aS'him'
p771
aaa(lp772
g750
a(lp773
S'Uh'
p774
aS'bow'
p775
aaa(lp776
g750
a(lp777
S'Come'
p778
aS'here'
p779
aaa(lp780
g750
a(lp781
S'Bend'
p782
aS'over'
p783
aaa(lp784
g750
a(lp785
S'Ive'
p786
aS'got'
p787
aS'my'
p788
aaa(lp789
g750
a(lp790
S'my'
p791
aS'high'
p792
aS'collar'
p793
aS'grip'
p794
aS'on'
p795
aaa(lp796
g750
a(lp797
S'on'
p798
ag162
aS'bentover'
p799
aS'player'
p800
aaa(lp801
g750
a(lp802
S'Who'
p803
aS'likes'
p804
aS'to'
p805
aS'watch'
p806
aS'my'
p807
aS'feet'
p808
aS'and'
p809
aS'mess'
p810
aS'around'
p811
aaa(lp812
g750
a(lp813
S'Im'
p814
aS'gonna'
p815
aS'give'
p816
aS'him'
p817
aS'something'
p818
aS'to'
p819
aS'watch'
p820
aS'now'
p821
aaa(lp822
g750
a(lp823
S'Im'
p824
aS'gonna'
p825
aS'come'
p826
aS'all'
p827
aS'the'
p828
aS'way'
p829
aS'around'
p830
aS'here'
p831
aaa(lp832
g750
a(lp833
S'and'
p834
aS'as'
p835
aS'Ive'
p836
aS'got'
p837
aS'him'
p838
aS'wrapped'
p839
aS'up'
p840
aaa(lp841
g750
a(lp842
S'Im'
p843
aS'wrapping'
p844
aS'up'
p845
aS'tight'
p846
aaa(lp847
g750
a(lp848
S'arent'
p849
ag55
aS'Bill'
p850
aaa(lp851
S'BILL'
p852
a(lp853
S'Yep'
p854
aaa(lp855
S'NICKIm'
p856
a(lp857
S'gonna'
p858
aS'slam'
p859
aS'that'
p860
aS'up'
p861
aaa(lp862
S'BILL'
p863
a(lp864
aa(lp865
S'NICK'
p866
a(lp867
S'Im'
p868
aS'gonna'
p869
aS'come'
p870
aS'all'
p871
aS'the'
p872
aS'way'
p873
aS'around'
p874
aS'on'
p875
aS'him'
p876
aaa(lp877
g866
a(lp878
S'See'
p879
aS'its'
p880
aS'okay'
p881
aS'if'
p882
ag55
aS'get'
p883
aS'this'
p884
aS'foot'
p885
aaa(lp886
g866
a(lp887
S'all'
p888
aS'the'
p889
aS'way'
p890
aS'up'
p891
aS'into'
p892
aS'the'
p893
aS'side'
p894
aS'of'
p895
aS'his'
p896
aS'crotch'
p897
aaa(lp898
g866
a(lp899
g55
aS'want'
p900
aS'to'
p901
aS'really'
p902
aS'get'
p903
aS'that'
p904
aS'lift'
p905
aaa(lp906
g866
a(lp907
S'As'
p908
ag55
aS'get'
p909
aS'that'
p910
aS'lift'
p911
aaa(lp912
g866
a(lp913
g55
aS'wanna'
p914
aS'get'
p915
aS'that'
p916
aS'outer'
p917
aS'winding'
p918
aS'pull'
p919
aaa(lp920
g866
a(lp921
S'That'
p922
aS'Makikomi'
p923
aaa(lp924
g866
a(lp925
S'Okay'
p926
aaa(lp927
g866
a(lp928
S'Lets'
p929
aS'give'
p930
aS'it'
p931
ag162
aS'try'
p932
aaa(lp933
g866
a(lp934
S'Bill'
p935
ag55
aS'wanna'
p936
aS'see'
p937
aS'you'
p938
aS'throw'
p939
aS'Darren'
p940
aaa(lp941
g866
a(lp942
S'We'
p943
aS'need'
p944
aS'to'
p945
aS'practice'
p946
aS'Darrens'
p947
aS'Ukemi'
p948
aaa(lp949
g866
a(lp950
g55
aS'love'
p951
aS'it'
p952
aaa(lp953
g866
a(lp954
S'the'
p955
aS'only'
p956
aS'Hebrew'
p957
aS'Ive'
p958
aS'ever'
p959
aS'seen'
p960
aS'make'
p961
aS'the'
p962
aS'sign'
p963
aS'of'
p964
aS'the'
p965
aS'cross'
p966
aaa(lp967
S'DARREN'
p968
a(lp969
aa(lp970
g968
a(lp971
S'SM'
p972
aS'It'
p973
aS'takes'
p974
aS'too'
p975
aS'long'
p976
aS'to'
p977
aS'do'
p978
aS'the'
p979
aS'sign'
p980
aS'of'
p981
aS'star'
p982
aS'of'
p983
aS'David'
p984
aS'Nick'
p985
aS'SM'
p986
aaa(lp987
S'NICKX'
p988
a(lp989
S'Hush'
p990
ag13
aaa(lp991
S'JED'
p992
a(lp993
aa(lp994
S'NICK'
p995
a(lp996
S'Sammy'
p997
aS'Davis'
p998
aS'Junior'
p999
aS'used'
p1000
aS'to'
p1001
aS'do'
p1002
aS'it'
p1003
aS'just'
p1004
aS'fine'
p1005
aaa(lp1006
g995
a(lp1007
S'Hajime'
p1008
aaa(lp1009
S'X'
p1010
a(lp1011
S'Na'
p1012
aaa(lp1013
S'NICKNow'
p1014
a(lp1015
S'you'
p1016
aS'gotta'
p1017
aS'let'
p1018
aS'go'
p1019
aS'with'
p1020
aS'the'
p1021
aS'right'
p1022
aS'hand'
p1023
aS'Bill'
p1024
aaa(lp1025
g1014
a(lp1026
S'Get'
p1027
aS'going'
p1028
aaa(lp1029
g1014
a(lp1030
S'wrap'
p1031
aS'around'
p1032
aaa(lp1033
g1014
a(lp1034
S'There'
p1035
aaa(lp1036
g1014
a(lp1037
S'pull'
p1038
aaa(lp1039
g1014
a(lp1040
S'Pull'
p1041
aaa(lp1042
g1014
a(lp1043
S'outer'
p1044
aS'winding'
p1045
aS'pull'
p1046
aaa(lp1047
S'DARREN'
p1048
a(lp1049
aa(lp1050
g1048
a(lp1051
S'And'
p1052
aS'dont'
p1053
aS'elbow'
p1054
aS'me'
p1055
aS'in'
p1056
aS'the'
p1057
aS'face'
p1058
aaa(lp1059
S'NICK'
p1060
a(lp1061
S'Ya'
p1062
aaa(lp1063
g1060
a(lp1064
S'You'
p1065
aS'need'
p1066
aS'to'
p1067
aS'let'
p1068
aS'him'
p1069
aS'have'
p1070
ag162
aS'chance'
p1071
aS'to'
p1072
aS'slap'
p1073
aaa(lp1074
S'DARRENX'
p1075
a(lp1076
S'Thats'
p1077
aS'good'
p1078
aS'etiquette'
p1079
ag13
aaa(lp1080
S'BILL'
p1081
a(lp1082
g13
aS'Youre'
p1083
aS'right'
p1084
ag13
aaa(lp1085
S'NICK'
p1086
a(lp1087
S'Watch'
p1088
aS'Bill'
p1089
aaa(lp1090
g1086
a(lp1091
S'From'
p1092
aS'here'
p1093
aaa(lp1094
g1086
a(lp1095
S'come'
p1096
aS'all'
p1097
aS'the'
p1098
aS'way'
p1099
aS'around'
p1100
aaa(lp1101
S'BILLOkay'
p1102
a(lp1103
aa(lp1104
S'NICK'
p1105
a(lp1106
S'to'
p1107
aS'here'
p1108
aaa(lp1109
g1105
a(lp1110
S'See'
p1111
aS'how'
p1112
ag55
aS'got'
p1113
aS'him'
p1114
aS'up'
p1115
aS'on'
p1116
aS'that'
p1117
aS'one'
p1118
aS'leg'
p1119
aaa(lp1120
S'BILLX'
p1121
a(lp1122
S'Gotta'
p1123
aS'keep'
p1124
aS'that'
p1125
aS'on'
p1126
ag13
aaa(lp1127
g1121
a(lp1128
S'Okay'
p1129
aaa(lp1130
S'NICK'
p1131
a(lp1132
S'Then'
p1133
aS'Im'
p1134
aS'gonna'
p1135
aS'kick'
p1136
aS'his'
p1137
aS'leg'
p1138
aS'up'
p1139
aaa(lp1140
S'DARREN'
p1141
a(lp1142
aa(lp1143
S'NICK'
p1144
a(lp1145
S'Boom'
p1146
aaa(lp1147
g1144
a(lp1148
S'In'
p1149
ag162
aS'Hanegoshi'
p1150
aaa(lp1151
g1144
a(lp1152
S'That'
p1153
aS'spring'
p1154
aS'hip'
p1155
aaa(lp1156
g1144
a(lp1157
S'With'
p1158
aS'an'
p1159
aS'outer'
p1160
aS'winding'
p1161
aS'pull'
p1162
aaa(lp1163
g1144
a(lp1164
S'Its'
p1165
aS'okay'
p1166
aS'if'
p1167
aS'you'
p1168
aS'hit'
p1169
aS'it'
p1170
aS'low'
p1171
aaa(lp1172
g1144
a(lp1173
S'but'
p1174
aS'if'
p1175
aS'hes'
p1176
aS'bent'
p1177
aS'over'
p1178
aaa(lp1179
g1144
a(lp1180
S'you'
p1181
aS'can'
p1182
aaa(lp1183
g1144
a(lp1184
S'and'
p1185
aS'you'
p1186
aS'hit'
p1187
aS'it'
p1188
aS'low'
p1189
aaa(lp1190
g1144
a(lp1191
S'youre'
p1192
aS'not'
p1193
aS'gonna'
p1194
aS'hit'
p1195
aS'nothing'
p1196
aaa(lp1197
g1144
a(lp1198
S'From'
p1199
aS'here'
p1200
aaa(lp1201
g1144
a(lp1202
g55
aS'dont'
p1203
aS'have'
p1204
aaa(lp1205
g1144
a(lp1206
g55
aS'have'
p1207
aS'too'
p1208
aS'much'
p1209
aS'distance'
p1210
aS'between'
p1211
aS'us'
p1212
aaa(lp1213
g1144
a(lp1214
S'But'
p1215
aS'from'
p1216
aS'here'
p1217
aaa(lp1218
S'DARREN'
p1219
a(lp1220
aa(lp1221
S'NICK'
p1222
a(lp1223
g55
aS'get'
p1224
aS'more'
p1225
aS'of'
p1226
ag162
aS'spring'
p1227
aS'off'
p1228
aS'with'
p1229
aS'it'
p1230
aaa(lp1231
g1222
a(lp1232
S'Its'
p1233
aS'gonna'
p1234
aS'be'
p1235
aS'hard'
p1236
aS'not'
p1237
aS'to'
p1238
aS'call'
p1239
aS'it'
p1240
ag13
aS'an'
p1241
aS'ippon'
p1242
ag13
aaa(lp1243
S'XP'
p1244
a(lp1245
S'Mhm'
p1246
aS'P'
p1247
aaa(lp1248
S'NICK'
p1249
a(lp1250
aa(lp1251
g1249
a(lp1252
S'And'
p1253
aS'even'
p1254
aS'if'
p1255
aS'they'
p1256
aS'dont'
p1257
aaa(lp1258
g1249
a(lp1259
S'Im'
p1260
aS'going'
p1261
aS'right'
p1262
aS'into'
p1263
aS'Udegarami'
p1264
aaa(lp1265
g1249
a(lp1266
S'Go'
p1267
aaa(lp1268
S'DARREN'
p1269
a(lp1270
aa(lp1271
S'NICK'
p1272
a(lp1273
S'Not'
p1274
aS'bad'
p1275
aaa(lp1276
g1272
a(lp1277
S'Lug'
p1278
aaa(lp1279
g1272
a(lp1280
S'you'
p1281
aS'wanna'
p1282
aS'give'
p1283
aS'it'
p1284
ag162
aS'try'
p1285
aaa(lp1286
g1272
a(lp1287
S'Try'
p1288
aS'it'
p1289
aS'on'
p1290
aS'Bill'
p1291
aaa(lp1292
g1272
a(lp1293
S'Youre'
p1294
aS'in'
p1295
aS'front'
p1296
aS'of'
p1297
ag162
aS'Black'
p1298
aS'Belt'
p1299
aaa(lp1300
g1272
a(lp1301
S'XX'
p1302
aS'where'
p1303
ag13
aS'he'
p1304
aS'can'
p1305
aS'see'
p1306
aS'if'
p1307
aS'he'
p1308
aS'wants'
p1309
aS'to'
p1310
aaa(lp1311
S'DARRENOh'
p1312
a(lp1313
aa(lp1314
g1312
a(lp1315
S'Im'
p1316
aS'sorry'
p1317
aaa(lp1318
S'NICK'
p1319
a(lp1320
S'Alright'
p1321
aaa(lp1322
S'XX'
p1323
a(lp1324
aa(lp1325
S'NICK'
p1326
a(lp1327
S'Gotta'
p1328
aS'pull'
p1329
aS'going'
p1330
aS'this'
p1331
aS'way'
p1332
aaa(lp1333
S'BENTON'
p1334
a(lp1335
S'Okay'
p1336
aaa(lp1337
g1334
a(lp1338
g55
aS'need'
p1339
aS'to'
p1340
aS'have'
p1341
aS'him'
p1342
aS'here'
p1343
aaa(lp1344
S'NICKJerk'
p1345
a(lp1346
S'him'
p1347
aaa(lp1348
g1345
a(lp1349
S'You'
p1350
aS'dont'
p1351
aS'have'
p1352
aS'to'
p1353
aS'g'
p1354
aS'wrap'
p1355
aS'both'
p1356
aS'arms'
p1357
aS'up'
p1358
aaa(lp1359
g1345
a(lp1360
S'Just'
p1361
aS'one'
p1362
aS'really'
p1363
aaa(lp1364
g1345
a(lp1365
S'jerk'
p1366
aS'him'
p1367
aS'around'
p1368
aaa(lp1369
S'BENTONOkay'
p1370
a(lp1371
aa(lp1372
g1370
a(lp1373
g13
aS'and'
p1374
aS'then'
p1375
aS'spring'
p1376
aS'the'
p1377
aS'hip'
p1378
aS'up'
p1379
aaa(lp1380
S'NICKSpring'
p1381
a(lp1382
S'your'
p1383
aS'hip'
p1384
aaa(lp1385
g1381
a(lp1386
S'Take'
p1387
ag162
aS'high'
p1388
aS'collar'
p1389
aS'grip'
p1390
aS'Lug'
p1391
aaa(lp1392
g1381
a(lp1393
S'if'
p1394
aS'hes'
p1395
aS'bent'
p1396
aS'over'
p1397
aS'that'
p1398
aS'far'
p1399
aaa(lp1400
g1381
a(lp1401
S'you'
p1402
aS'wouldnt'
p1403
aS'start'
p1404
aS'off'
p1405
aS'like'
p1406
aS'that'
p1407
aaa(lp1408
g1381
a(lp1409
S'Now'
p1410
aaa(lp1411
g1381
a(lp1412
S'You'
p1413
aS'can'
p1414
aS'just'
p1415
aS'swing'
p1416
aS'all'
p1417
aS'the'
p1418
aS'way'
p1419
aS'around'
p1420
aaa(lp1421
g1381
a(lp1422
S'and'
p1423
aS'grab'
p1424
aS'that'
p1425
aS'arm'
p1426
aaa(lp1427
S'BENTONOkay'
p1428
a(lp1429
aa(lp1430
S'NICK'
p1431
a(lp1432
S'Just'
p1433
aaa(lp1434
g1431
a(lp1435
S'No'
p1436
aaa(lp1437
S'BENTON'
p1438
a(lp1439
aa(lp1440
S'NICK'
p1441
a(lp1442
S'Theres'
p1443
aS'no'
p1444
aS'such'
p1445
aS'thing'
p1446
aS'as'
p1447
ag162
aS'Haneuchimata'
p1448
aaa(lp1449
g1441
a(lp1450
S'You'
p1451
aS'fall'
p1452
aS'straight'
p1453
aS'on'
p1454
aS'your'
p1455
aS'face'
p1456
aaa(lp1457
S'BENTON'
p1458
a(lp1459
S'Oh'
p1460
aaa(lp1461
S'NICK'
p1462
a(lp1463
S'Alright'
p1464
aaa(lp1465
g1462
a(lp1466
S'you'
p1467
aS'dont'
p1468
aS'have'
p1469
aS'the'
p1470
aS'outer'
p1471
aS'pull'
p1472
aS'going'
p1473
aS'for'
p1474
aS'you'
p1475
aaa(lp1476
g1462
a(lp1477
S'You'
p1478
aS'still'
p1479
aS'dont'
p1480
aS'have'
p1481
aS'enough'
p1482
aS'outer'
p1483
aS'pull'
p1484
aaa(lp1485
g1462
a(lp1486
S'He'
p1487
aS'oughtta'
p1488
aS'be'
p1489
aS'wound'
p1490
aS'up'
p1491
aS'on'
p1492
aS'his'
p1493
aS'tiptoes'
p1494
aaa(lp1495
g1462
a(lp1496
S'Way'
p1497
aS'out'
p1498
aS'to'
p1499
aS'here'
p1500
aaa(lp1501
g1462
a(lp1502
S'Now'
p1503
aS'spring'
p1504
aS'your'
p1505
aS'hip'
p1506
aaa(lp1507
S'BENTONOkay'
p1508
a(lp1509
aa(lp1510
S'NICK'
p1511
a(lp1512
S'Spring'
p1513
aS'your'
p1514
aS'hip'
p1515
aaa(lp1516
S'BILL'
p1517
a(lp1518
aa(lp1519
S'NICKThere'
p1520
a(lp1521
aa(lp1522
g1520
a(lp1523
S'Its'
p1524
aS'hard'
p1525
aS'too'
p1526
aaa(lp1527
g1520
a(lp1528
S'for'
p1529
aS'you'
p1530
aaa(lp1531
g1520
a(lp1532
g446
aS'your'
p1533
aS'legs'
p1534
aS'are'
p1535
aS'so'
p1536
aS'short'
p1537
aaa(lp1538
g1520
a(lp1539
S'and'
p1540
aS'hes'
p1541
aS'so'
p1542
aS'tall'
p1543
aaa(lp1544
g1520
a(lp1545
S'Try'
p1546
aS'it'
p1547
aS'again'
p1548
aaa(lp1549
g1520
a(lp1550
S'And'
p1551
aS'Martin'
p1552
aS'if'
p1553
aS'your'
p1554
aS'hip'
p1555
aS'joints'
p1556
aS'were'
p1557
aS'okay'
p1558
aaa(lp1559
S'BENTON'
p1560
a(lp1561
S'Yeah'
p1562
aaa(lp1563
S'NICK'
p1564
a(lp1565
S'Hed'
p1566
aS'b'
p1567
aS'be'
p1568
aS'just'
p1569
aS'perfect'
p1570
aS'for'
p1571
aS'you'
p1572
aS'to'
p1573
aaa(lp1574
g1564
a(lp1575
S'okay'
p1576
aaa(lp1577
g1564
a(lp1578
S'for'
p1579
aS'one'
p1580
aS'thing'
p1581
aS'youre'
p1582
aS'backing'
p1583
aS'in'
p1584
aaa(lp1585
S'BENTON'
p1586
a(lp1587
S'Okay'
p1588
aaa(lp1589
S'NICK'
p1590
a(lp1591
S'Watch'
p1592
aaa(lp1593
g1590
a(lp1594
S'From'
p1595
aS'here'
p1596
aaa(lp1597
g1590
a(lp1598
S'bend'
p1599
aS'over'
p1600
aaa(lp1601
g1590
a(lp1602
S'From'
p1603
aS'right'
p1604
aS'here'
p1605
aaa(lp1606
S'BENTON'
p1607
a(lp1608
S'Okay'
p1609
aaa(lp1610
S'NICKX'
p1611
a(lp1612
S'Jock'
p1613
ag13
aS'him'
p1614
aS'into'
p1615
aS'it'
p1616
aaa(lp1617
S'BENTON'
p1618
a(lp1619
S'Mhm'
p1620
aaa(lp1621
S'NICKIve'
p1622
a(lp1623
S'gotta'
p1624
aS'still'
p1625
aS'jerk'
p1626
aS'him'
p1627
aS'up'
p1628
aS'on'
p1629
aS'his'
p1630
aS'tiptoes'
p1631
aS'to'
p1632
aS'throw'
p1633
aS'him'
p1634
aaa(lp1635
g1622
a(lp1636
S'from'
p1637
aS'here'
p1638
aaa(lp1639
g1622
a(lp1640
S'See'
p1641
aS'that'
p1642
aS'half'
p1643
aS'half'
p1644
aS'instep'
p1645
aaa(lp1646
S'BENTON'
p1647
a(lp1648
S'Spot'
p1649
aS'the'
p1650
aS'hip'
p1651
aaa(lp1652
S'NICK'
p1653
a(lp1654
S'Im'
p1655
aS'jerking'
p1656
aaa(lp1657
g1653
a(lp1658
g55
aS'still'
p1659
aS'get'
p1660
aS'under'
p1661
aS'him'
p1662
aS'dont'
p1663
ag55
aaa(lp1664
S'BILL'
p1665
a(lp1666
aa(lp1667
S'NICK'
p1668
a(lp1669
S'Then'
p1670
aS'Im'
p1671
aS'on'
p1672
aS'him'
p1673
aaa(lp1674
g1668
a(lp1675
S'Its'
p1676
aS'hard'
p1677
aS'to'
p1678
aS'control'
p1679
aS'that'
p1680
aS'throw'
p1681
aaa(lp1682
g1668
a(lp1683
S'Did'
p1684
aS'you'
p1685
aS'land'
p1686
aS'off'
p1687
aS'the'
p1688
aS'mat'
p1689
aaa(lp1690
S'BILL'
p1691
a(lp1692
S'No'
p1693
aS'no'
p1694
aaa(lp1695
S'NICKGood'
p1696
a(lp1697
aa(lp1698
g1696
a(lp1699
S'UchiX'
p1700
aS'mother'
p1701
ag13
aaa(lp1702
g1696
a(lp1703
S'Koka'
p1704
aaa(lp1705
S'X'
p1706
a(lp1707
aa(lp1708
S'NICK'
p1709
a(lp1710
S'Tell'
p1711
aS'you'
p1712
aS'what'
p1713
aaa(lp1714
g1709
a(lp1715
S'Martin'
p1716
aS'lets'
p1717
aS'pull'
p1718
aS'this'
p1719
aS'down'
p1720
aS'XXX'
p1721
aaa(lp1722
g1709
a(lp1723
S'Okay'
p1724
aaa(lp1725
g1709
a(lp1726
S'Alright'
p1727
aaa(lp1728
g1709
a(lp1729
S'Lug'
p1730
aaa(lp1731
g1709
a(lp1732
S'Give'
p1733
ag162
aS'more'
p1734
aS'upward'
p1735
aaa(lp1736
g1709
a(lp1737
S'round'
p1738
aS'pull'
p1739
aaa(lp1740
g1709
a(lp1741
S'From'
p1742
aS'here'
p1743
aaa(lp1744
g1709
a(lp1745
S'Watch'
p1746
aaa(lp1747
g1709
a(lp1748
g55
aS'get'
p1749
aS's'
p1750
aaa(lp1751
g1709
a(lp1752
S'best'
p1753
aS'best'
p1754
aS'way'
p1755
aS'to'
p1756
aS'do'
p1757
aS'it'
p1758
aS'is'
p1759
aS'to'
p1760
aS'feel'
p1761
aS'it'
p1762
ag55
aS'guess'
p1763
aaa(lp1764
g1709
a(lp1765
S'Bend'
p1766
aS'over'
p1767
aaa(lp1768
g1709
a(lp1769
S'Alright'
p1770
aaa(lp1771
g1709
a(lp1772
S'Im'
p1773
aS'gonna'
p1774
aS'come'
p1775
aS'to'
p1776
aS'here'
p1777
aaa(lp1778
g1709
a(lp1779
S'now'
p1780
ag55
aS'jerk'
p1781
aS'up'
p1782
aaa(lp1783
g1709
a(lp1784
S'first'
p1785
aaa(lp1786
g1709
a(lp1787
S'then'
p1788
ag55
aS'spin'
p1789
aS'around'
p1790
aaa(lp1791
S'BENTON'
p1792
a(lp1793
S'Okay'
p1794
aaa(lp1795
S'NICK'
p1796
a(lp1797
S'And'
p1798
aS'Im'
p1799
aS'gonna'
p1800
aS'let'
p1801
aS'it'
p1802
aS'go'
p1803
aaa(lp1804
g1796
a(lp1805
S'God'
p1806
aS'youre'
p1807
aS'heavy'
p1808
aaa(lp1809
g1796
a(lp1810
S'Then'
p1811
aS'Im'
p1812
aS'gonna'
p1813
aS'let'
p1814
aS'go'
p1815
aS'here'
p1816
aaa(lp1817
g1796
a(lp1818
S'here'
p1819
aaa(lp1820
g1796
a(lp1821
S'see'
p1822
aS'how'
p1823
ag55
aS'got'
p1824
aS'you'
p1825
aS'wound'
p1826
aS'up'
p1827
aaa(lp1828
S'BENTON'
p1829
a(lp1830
aa(lp1831
S'NICKDown'
p1832
a(lp1833
S'here'
p1834
aaa(lp1835
g1832
a(lp1836
S'This'
p1837
aS'is'
p1838
aS'not'
p1839
ag162
aS'good'
p1840
aS'throw'
p1841
aS'to'
p1842
aS'throw'
p1843
aS'Lug'
p1844
aS'in'
p1845
aaa(lp1846
S'X'
p1847
a(lp1848
aa(lp1849
S'NICK'
p1850
a(lp1851
g55
aS'would'
p1852
aS'suggest'
p1853
aS'doing'
p1854
aS'this'
p1855
aS'throw'
p1856
aaa(lp1857
g1850
a(lp1858
S'on'
p1859
aS'combatants'
p1860
aS'and'
p1861
aS'opponents'
p1862
aS'of'
p1863
aS'equal'
p1864
aS'height'
p1865
aaa(lp1866
g1850
a(lp1867
S'And'
p1868
aS'size'
p1869
aaa(lp1870
g1850
a(lp1871
S'Lug'
p1872
aS'would'
p1873
aS'be'
p1874
aS'much'
p1875
aS'better'
p1876
aaa(lp1877
g1850
a(lp1878
S'for'
p1879
ag162
aS'Sodemakikomi'
p1880
aaa(lp1881
g1850
a(lp1882
S'but'
p1883
aS'not'
p1884
ag162
aS'Handemaki'
p1885
aS'Hanemakikomi'
p1886
aaa(lp1887
g1850
a(lp1888
S'Cause'
p1889
aS'the'
p1890
aS'Hane'
p1891
aaa(lp1892
g1850
a(lp1893
S'you'
p1894
aS'add'
p1895
aS'that'
p1896
aS'spring'
p1897
aaa(lp1898
g1850
a(lp1899
S'Alright'
p1900
aaa(lp1901
g1850
a(lp1902
S'Im'
p1903
aS'having'
p1904
aS'to'
p1905
aS'use'
p1906
aS'my'
p1907
aS'legs'
p1908
aaa(lp1909
g1850
a(lp1910
S'to'
p1911
aS'throw'
p1912
aS'his'
p1913
aS'weight'
p1914
aaa(lp1915
g1850
a(lp1916
S'Instead'
p1917
aS'of'
p1918
aS'using'
p1919
aS'Sodemakikomi'
p1920
aaa(lp1921
S'BENTON'
p1922
a(lp1923
aa(lp1924
S'NICK'
p1925
a(lp1926
S'and'
p1927
aS'get'
p1928
aS'the'
p1929
aS'outside'
p1930
aS'of'
p1931
aS'his'
p1932
aS'legs'
p1933
aaa(lp1934
g1925
a(lp1935
S'and'
p1936
ag55
aS'can'
p1937
aS'make'
p1938
aS'that'
p1939
ag162
aS'pretty'
p1940
aS'throw'
p1941
aaa(lp1942
g1925
a(lp1943
S'Alright'
p1944
aaa(lp1945
g1925
a(lp1946
S'And'
p1947
aS'with'
p1948
aS'the'
p1949
aS'Makikomi'
p1950
aS'technique'
p1951
aS'with'
p1952
aS'it'
p1953
aaa(lp1954
g1925
a(lp1955
S'you'
p1956
aS'dont'
p1957
aS'have'
p1958
aaa(lp1959
g1925
a(lp1960
S'the'
p1961
aS'Tsurikomi'
p1962
aaa(lp1963
g1925
a(lp1964
S'The'
p1965
aS'lifting'
p1966
aS'pull'
p1967
aaa(lp1968
g1925
a(lp1969
S'that'
p1970
aS'you'
p1971
aS'would'
p1972
aS'normally'
p1973
aS'have'
p1974
aaa(lp1975
g1925
a(lp1976
S'You'
p1977
aS'dont'
p1978
aS'have'
p1979
aS'your'
p1980
aS'right'
p1981
aS'hand'
p1982
aS'to'
p1983
aS'help'
p1984
aS'you'
p1985
aS'with'
p1986
aS'it'
p1987
aaa(lp1988
g1925
a(lp1989
S'All'
p1990
aS'you'
p1991
aS'have'
p1992
aS'is'
p1993
aS'an'
p1994
aS'outer'
p1995
aS'winding'
p1996
aS'pull'
p1997
aS'with'
p1998
aS'the'
p1999
aS'left'
p2000
aS'hand'
p2001
aaa(lp2002
g1925
a(lp2003
S'Its'
p2004
aS'gotta'
p2005
aS'go'
p2006
aS'up'
p2007
aaa(lp2008
g1925
a(lp2009
S'out'
p2010
aaa(lp2011
g1925
a(lp2012
S'and'
p2013
aS'around'
p2014
aaa(lp2015
g1925
a(lp2016
S'Lets'
p2017
aS'give'
p2018
aS'it'
p2019
ag162
aS'try'
p2020
aaa(lp2021
g1925
a(lp2022
S'Throw'
p2023
aS'throw'
p2024
aS'Bill'
p2025
aS'again'
p2026
aaa(lp2027
S'X'
p2028
a(lp2029
aa(lp2030
S'NICK'
p2031
a(lp2032
S'Now'
p2033
aaa(lp2034
g2031
a(lp2035
S'spring'
p2036
aS'the'
p2037
aS'hip'
p2038
aaa(lp2039
S'BILL'
p2040
a(lp2041
aa(lp2042
S'NICK'
p2043
a(lp2044
S'Thats'
p2045
aS'better'
p2046
aaa(lp2047
S'JEDP'
p2048
a(lp2049
S'Yeah'
p2050
ag1247
aaa(lp2051
S'NICK'
p2052
a(lp2053
S'Much'
p2054
aS'better'
p2055
aaa(lp2056
g2052
a(lp2057
S'Now'
p2058
aS'lets'
p2059
aS'throw'
p2060
aS'it'
p2061
aS'again'
p2062
aaa(lp2063
g2052
a(lp2064
S'and'
p2065
aS'not'
p2066
aS'have'
p2067
aS'to'
p2068
aS'stop'
p2069
aaa(lp2070
g2052
a(lp2071
S'and'
p2072
aS'think'
p2073
aS'about'
p2074
aS'where'
p2075
aS'the'
p2076
aS'foot'
p2077
aS'goes'
p2078
aaa(lp2079
g2052
a(lp2080
S'Now'
p2081
aaa(lp2082
g2052
a(lp2083
g13
aS'Just'
p2084
aS'one'
p2085
aS'moment'
p2086
ag13
aaa(lp2087
g2052
a(lp2088
S'The'
p2089
aS'more'
p2090
aS'acute'
p2091
aS'angle'
p2092
aaa(lp2093
g2052
a(lp2094
S'that'
p2095
aS'that'
p2096
aS'knee'
p2097
aS'gets'
p2098
aS'at'
p2099
aaa(lp2100
g2052
a(lp2101
S'the'
p2102
aS'more'
p2103
aS'MRC'
p2104
aS'power'
p2105
ag446
aS'you'
p2106
aS'have'
p2107
aS'with'
p2108
aS'your'
p2109
aS'spring'
p2110
aS'MRC'
p2111
aS'from'
p2112
aS'your'
p2113
aS'hip'
p2114
aS'joint'
p2115
aaa(lp2116
g2052
a(lp2117
S'From'
p2118
aS'here'
p2119
aaa(lp2120
g2052
a(lp2121
S'even'
p2122
aS'if'
p2123
aS'Im'
p2124
aS'doing'
p2125
aS'Hanegoshi'
p2126
aaa(lp2127
g2052
a(lp2128
S'if'
p2129
ag55
aS'get'
p2130
aS'that'
p2131
aaa(lp2132
g2052
a(lp2133
S'that'
p2134
aS'knee'
p2135
aS'bent'
p2136
aaa(lp2137
g2052
a(lp2138
S'at'
p2139
aS'ninety'
p2140
aS'degrees'
p2141
aS'right'
p2142
aS'here'
p2143
aaa(lp2144
g2052
a(lp2145
S'well'
p2146
ag55
aS'can'
p2147
aS'blast'
p2148
aS'him'
p2149
aaa(lp2150
g2052
a(lp2151
S'from'
p2152
aS'here'
p2153
aaa(lp2154
S'BILL'
p2155
a(lp2156
aa(lp2157
S'NICK'
p2158
a(lp2159
S'Ive'
p2160
aS'got'
p2161
ag162
aS'lot'
p2162
aS'of'
p2163
aS'spring'
p2164
aS'with'
p2165
aS'it'
p2166
aaa(lp2167
g2158
a(lp2168
S'Also'
p2169
aaa(lp2170
g2158
a(lp2171
S'lay'
p2172
aS'the'
p2173
aS'instep'
p2174
aS'of'
p2175
aS'the'
p2176
aS'foot'
p2177
aaa(lp2178
g2158
a(lp2179
S'Toes'
p2180
aS'extremely'
p2181
aS'wellpointed'
p2182
aaa(lp2183
g2158
a(lp2184
S'To'
p2185
aS'the'
p2186
aS'inside'
p2187
aaa(lp2188
g2158
a(lp2189
S'of'
p2190
aS'his'
p2191
aS'calf'
p2192
aaa(lp2193
g2158
a(lp2194
g55
aS'mean'
p2195
aS'his'
p2196
aaa(lp2197
g2158
a(lp2198
S'his'
p2199
aS'uh'
p2200
aS'thigh'
p2201
aaa(lp2202
g2158
a(lp2203
S'at'
p2204
aS'the'
p2205
aS'bend'
p2206
aS'of'
p2207
aS'his'
p2208
aS'knee'
p2209
aaa(lp2210
g2158
a(lp2211
g55
aS'dont'
p2212
aS'care'
p2213
aS'if'
p2214
aS'your'
p2215
aS'heel'
p2216
aS'slides'
p2217
aS'up'
p2218
aS'into'
p2219
aS'his'
p2220
aS'crotch'
p2221
aaa(lp2222
g2158
a(lp2223
S'For'
p2224
ag162
ag162
aS'Hanemakikomi'
p2225
aaa(lp2226
g2158
a(lp2227
S'Now'
p2228
aaa(lp2229
g2158
a(lp2230
S'uh'
p2231
aaa(lp2232
g2158
a(lp2233
S'Hanegoshi'
p2234
aaa(lp2235
g2158
a(lp2236
S'Id'
p2237
aS'prefer'
p2238
aS'that'
p2239
aS'you'
p2240
aS'do'
p2241
aS'it'
p2242
ag162
aS'little'
p2243
aS'bit'
p2244
aS'different'
p2245
aaa(lp2246
g2158
a(lp2247
S'But'
p2248
aS'Hanemakikomi'
p2249
aaa(lp2250
g2158
a(lp2251
S'the'
p2252
aS'higher'
p2253
aS'up'
p2254
aS'it'
p2255
aS'gets'
p2256
aaa(lp2257
g2158
a(lp2258
S'the'
p2259
aS'more'
p2260
aS'spring'
p2261
aS'you'
p2262
aS'get'
p2263
aaa(lp2264
g2158
a(lp2265
S'Yoshi'
p2266
aaa(lp2267
S'BENTON'
p2268
a(lp2269
S'Is'
p2270
aS'this'
p2271
aS'the'
p2272
aS'right'
p2273
aS'position'
p2274
aS'here'
p2275
aaa(lp2276
S'NICK'
p2277
a(lp2278
S'Your'
p2279
aS'knees'
p2280
aS'need'
p2281
aS'to'
p2282
aS'be'
p2283
aS'bent'
p2284
aaa(lp2285
g2277
a(lp2286
S'Now'
p2287
aS'pull'
p2288
aaa(lp2289
g2277
a(lp2290
S'Pull'
p2291
aS'pull'
p2292
aS'pull'
p2293
aaa(lp2294
g2277
a(lp2295
S'and'
p2296
aS'spr'
p2297
aS'and'
p2298
aS'spring'
p2299
aaa(lp2300
g2277
a(lp2301
S'Spring'
p2302
aaa(lp2303
S'BENTON'
p2304
a(lp2305
S'Okay'
p2306
aaa(lp2307
g2304
a(lp2308
S'Im'
p2309
aS'just'
p2310
aS'trying'
p2311
aS'to'
p2312
aS'get'
p2313
aS'this'
p2314
aaa(lp2315
S'X'
p2316
a(lp2317
aa(lp2318
S'BENTONthis'
p2319
a(lp2320
S'middle'
p2321
aS'position'
p2322
aaa(lp2323
S'NICKAlright'
p2324
a(lp2325
S'watch'
p2326
aaa(lp2327
g2324
a(lp2328
S'even'
p2329
aS'though'
p2330
aS'hes'
p2331
aS'bent'
p2332
aS'over'
p2333
aaa(lp2334
g2324
a(lp2335
g55
aS'still'
p2336
aS'have'
p2337
aS'to'
p2338
aS'get'
p2339
aS'in'
p2340
aaa(lp2341
S'BENTON'
p2342
a(lp2343
S'Okay'
p2344
aaa(lp2345
S'NICKIve'
p2346
a(lp2347
S'got'
p2348
aS'to'
p2349
aS'get'
p2350
aS'him'
p2351
aS'loaded'
p2352
aaa(lp2353
g2346
a(lp2354
S'Look'
p2355
aS'at'
p2356
aS'his'
p2357
aS'look'
p2358
aS'at'
p2359
aS'his'
p2360
aS'heels'
p2361
aaa(lp2362
g2346
a(lp2363
S'Is'
p2364
aS'his'
p2365
aS'heel'
p2366
aS'up'
p2367
aaa(lp2368
S'BENTON'
p2369
a(lp2370
S'Yes'
p2371
aaa(lp2372
S'NICK'
p2373
a(lp2374
S'Alright'
p2375
aS'from'
p2376
aS'here'
p2377
aaa(lp2378
g2373
a(lp2379
S'now'
p2380
aS'Ive'
p2381
ag1354
aS'Im'
p2382
aS'got'
p2383
aS'to'
p2384
aS'be'
p2385
aS'lower'
p2386
aaa(lp2387
g2373
a(lp2388
g13
aS'come'
p2389
aS'on'
p2390
aS'back'
p2391
aS'side'
p2392
aS'of'
p2393
aS'the'
p2394
aS'hands'
p2395
ag13
aaa(lp2396
S'BILL'
p2397
a(lp2398
aa(lp2399
S'NICK'
p2400
a(lp2401
S'And'
p2402
aS'then'
p2403
ag55
aS'spring'
p2404
aS'him'
p2405
aS'off'
p2406
aaa(lp2407
g2400
a(lp2408
S'If'
p2409
aS'hes'
p2410
aS'bent'
p2411
aS'over'
p2412
aaa(lp2413
g2400
a(lp2414
S'its'
p2415
aS'extremely'
p2416
aS'hard'
p2417
aS'for'
p2418
aS'me'
p2419
aS'to'
p2420
aS'get'
p2421
aS'under'
p2422
aS'him'
p2423
aaa(lp2424
g2400
a(lp2425
S'with'
p2426
ag162
aS'standard'
p2427
aS'Tsurikomi'
p2428
aS'grip'
p2429
aaa(lp2430
g2400
a(lp2431
S'Well'
p2432
aS'this'
p2433
aS'way'
p2434
aS'Im'
p2435
aS'just'
p2436
aS'scooting'
p2437
aS'my'
p2438
aS'butt'
p2439
aS'in'
p2440
aS'there'
p2441
aS'on'
p2442
aS'him'
p2443
aaa(lp2444
g2400
a(lp2445
S'It'
p2446
aS'doesnt'
p2447
aS'matter'
p2448
aS'if'
p2449
ag55
aS'hit'
p2450
aS'him'
p2451
aaa(lp2452
g2400
a(lp2453
g162
aS'little'
p2454
aS'bit'
p2455
aS'above'
p2456
aS'my'
p2457
aS'his'
p2458
aS'obi'
p2459
aaa(lp2460
g2400
a(lp2461
S'with'
p2462
aS'my'
p2463
aS'buttocks'
p2464
aaa(lp2465
g2400
a(lp2466
S'As'
p2467
aS'long'
p2468
aS'as'
p2469
aaa(lp2470
g2400
a(lp2471
S'that'
p2472
aS'leg'
p2473
aS'is'
p2474
aS'automatically'
p2475
aS'cocking'
p2476
aS'as'
p2477
aS'it'
p2478
aS'goes'
p2479
aS'in'
p2480
aaa(lp2481
S'BENTONOkay'
p2482
a(lp2483
aa(lp2484
S'NICK'
p2485
a(lp2486
S'With'
p2487
aS'that'
p2488
aS'outer'
p2489
aS'winding'
p2490
aS'pull'
p2491
aaa(lp2492
g2485
a(lp2493
S'Its'
p2494
aS'allimportant'
p2495
aaa(lp2496
g2485
a(lp2497
S'Jerk'
p2498
aS'him'
p2499
aS'around'
p2500
aaa(lp2501
g2485
a(lp2502
S'In'
p2503
ag162
aS'big'
p2504
aS'circle'
p2505
aaa(lp2506
S'BILL'
p2507
a(lp2508
aa(lp2509
S'NICK'
p2510
a(lp2511
S'Okay'
p2512
aaa(lp2513
g2510
a(lp2514
S'Everything'
p2515
aS'was'
p2516
aS'there'
p2517
aS'but'
p2518
aS'the'
p2519
aS'leg'
p2520
aaa(lp2521
g2510
a(lp2522
S'Bill'
p2523
aS'went'
p2524
aS'into'
p2525
aS'Uchimata'
p2526
aaa(lp2527
g2510
a(lp2528
g55
aS'might'
p2529
aS'have'
p2530
aS'to'
p2531
aS'have'
p2532
aS'you'
p2533
aS'throw'
p2534
aS'Uchimata'
p2535
ag162
aS'couple'
p2536
aS'times'
p2537
aaa(lp2538
g2510
a(lp2539
S'so'
p2540
aS'you'
p2541
aS'can'
p2542
aS'throw'
p2543
ag162
aS'Hanegoshi'
p2544
aaa(lp2545
g2510
a(lp2546
S'Think'
p2547
aS'of'
p2548
aS'it'
p2549
aaa(lp2550
g2510
a(lp2551
S'as'
p2552
ag162
aS'very'
p2553
aS'short'
p2554
aaa(lp2555
g2510
a(lp2556
S'inverted'
p2557
aS'kick'
p2558
aaa(lp2559
g2510
a(lp2560
S'Like'
p2561
aS'that'
p2562
aaa(lp2563
g2510
a(lp2564
S'You'
p2565
aS'know'
p2566
aS'how'
p2567
aS'you'
p2568
aS'can'
p2569
aS'use'
p2570
aaa(lp2571
g2510
a(lp2572
S'inverted'
p2573
aS'kick'
p2574
aaa(lp2575
g2510
a(lp2576
S'Up'
p2577
aS'very'
p2578
aS'close'
p2579
aS'range'
p2580
aaa(lp2581
S'BENTONMhm'
p2582
a(lp2583
aa(lp2584
S'NICK'
p2585
a(lp2586
S'Thats'
p2587
aS'exactly'
p2588
aS'what'
p2589
aS'youre'
p2590
aS'doing'
p2591
aaa(lp2592
g2585
a(lp2593
S'Kicking'
p2594
aS'the'
p2595
aS'inside'
p2596
aS'of'
p2597
aS'his'
p2598
aS'thigh'
p2599
aaa(lp2600
S'BENTON'
p2601
a(lp2602
S'Okay'
p2603
aaa(lp2604
S'NICK'
p2605
a(lp2606
S'This'
p2607
aS'time'
p2608
aS'do'
p2609
aS'an'
p2610
aS'inverted'
p2611
aS'kick'
p2612
aS'on'
p2613
aS'the'
p2614
aS'inside'
p2615
aS'of'
p2616
aS'his'
p2617
aS'thigh'
p2618
aS'when'
p2619
aS'you'
p2620
aS'do'
p2621
aS'it'
p2622
aaa(lp2623
g2605
a(lp2624
S'Go'
p2625
aS'into'
p2626
aS'it'
p2627
aS'and'
p2628
aS'load'
p2629
aS'him'
p2630
aS'up'
p2631
aS'two'
p2632
aS'or'
p2633
aS'three'
p2634
aS'times'
p2635
aaa(lp2636
g2605
a(lp2637
S'Uchikomi'
p2638
aaa(lp2639
g2605
a(lp2640
S'Alright'
p2641
aaa(lp2642
g2605
a(lp2643
S'Bend'
p2644
aS'your'
p2645
aS'knees'
p2646
aS'as'
p2647
aS'you'
p2648
aS'go'
p2649
aS'in'
p2650
aS'too'
p2651
aaa(lp2652
g2605
a(lp2653
S'Youre'
p2654
aS'just'
p2655
aS'straight'
p2656
aS'and'
p2657
aaa(lp2658
g2605
a(lp2659
S'straight'
p2660
aS'and'
p2661
aS'lockkneed'
p2662
aaa(lp2663
g2605
a(lp2664
S'There'
p2665
aaa(lp2666
g2605
a(lp2667
S'S'
p2668
aS'better'
p2669
aaa(lp2670
g2605
a(lp2671
S'Now'
p2672
aS'throw'
p2673
aaa(lp2674
S'BENTON'
p2675
a(lp2676
aa(lp2677
S'NICKRelax'
p2678
a(lp2679
aa(lp2680
g2678
a(lp2681
S'Relax'
p2682
aS'and'
p2683
aS'throw'
p2684
aaa(lp2685
S'BILL'
p2686
a(lp2687
aa(lp2688
S'NICKBetter'
p2689
a(lp2690
aa(lp2691
g2689
a(lp2692
S'Better'
p2693
aaa(lp2694
g2689
a(lp2695
S'Youre'
p2696
aS'still'
p2697
aS'sliding'
p2698
aS'up'
p2699
aS'that'
p2700
aS'leg'
p2701
aaa(lp2702
g2689
a(lp2703
S'youre'
p2704
aS'not'
p2705
aS'springing'
p2706
aS'it'
p2707
aaa(lp2708
g2689
a(lp2709
S'Bill'
p2710
aaa(lp2711
g2689
a(lp2712
S'lets'
p2713
aS'see'
p2714
aS'you'
p2715
aS'throw'
p2716
ag162
aS'couple'
p2717
aS'times'
p2718
aaa(lp2719
g2689
a(lp2720
S'Throw'
p2721
aS'me'
p2722
aaa(lp2723
g2689
a(lp2724
S'Its'
p2725
aS'hot'
p2726
aS'in'
p2727
aS'here'
p2728
aaa(lp2729
g2689
a(lp2730
S'Thank'
p2731
aS'you'
p2732
aaa(lp2733
S'BILLOkay'
p2734
a(lp2735
S'it'
p2736
aS'was'
p2737
aaa(lp2738
S'NICK'
p2739
a(lp2740
S'Now'
p2741
aS'Im'
p2742
aS'gonna'
p2743
aS'be'
p2744
ag162
aS'sucker'
p2745
aaa(lp2746
g2739
a(lp2747
S'and'
p2748
aS'watch'
p2749
aS'your'
p2750
aS'feet'
p2751
aaa(lp2752
g2739
a(lp2753
S'This'
p2754
aaa(lp2755
g2739
a(lp2756
S'Now'
p2757
aS'youre'
p2758
aS'just'
p2759
aS'walking'
p2760
aS'in'
p2761
aS'on'
p2762
aS'me'
p2763
aS'man'
p2764
aaa(lp2765
g2739
a(lp2766
S'you'
p2767
aS'have'
p2768
aS'you'
p2769
aS'have'
p2770
aS'no'
p2771
aS'outer'
p2772
aS'winding'
p2773
aS'pull'
p2774
aS'here'
p2775
aaa(lp2776
g2739
a(lp2777
S'Jerk'
p2778
aS'me'
p2779
aS'to'
p2780
aS'you'
p2781
aaa(lp2782
g2739
a(lp2783
S'Hoo'
p2784
aaa(lp2785
g2739
a(lp2786
S'there'
p2787
aS'we'
p2788
aS'go'
p2789
aaa(lp2790
g2739
a(lp2791
S'Im'
p2792
aS'on'
p2793
aS'my'
p2794
aS'tiptoes'
p2795
aaa(lp2796
g2739
a(lp2797
S'what'
p2798
aS'are'
p2799
aS'you'
p2800
aS'waiting'
p2801
aS'for'
p2802
aaa(lp2803
S'BILL'
p2804
a(lp2805
aa(lp2806
S'NICK'
p2807
a(lp2808
aa(lp2809
S'BILL'
p2810
a(lp2811
S'Not'
p2812
aS'quite'
p2813
aS'far'
p2814
aS'enough'
p2815
aS'in'
p2816
aaa(lp2817
S'NICK'
p2818
a(lp2819
S'A'
p2820
aS'little'
p2821
aS'shaky'
p2822
aaa(lp2823
g2818
a(lp2824
S'but'
p2825
aS'basic'
p2826
aaa(lp2827
g2818
a(lp2828
S'as'
p2829
aS'long'
p2830
aS'as'
p2831
aS'youre'
p2832
aS'getting'
p2833
aS'my'
p2834
aS'head'
p2835
aaa(lp2836
g2818
a(lp2837
S'to'
p2838
aS'where'
p2839
aS'itll'
p2840
aS'clear'
p2841
aaa(lp2842
g2818
a(lp2843
S'and'
p2844
aaa(lp2845
g2818
a(lp2846
S'wont'
p2847
aS'snap'
p2848
aS'my'
p2849
aS'neck'
p2850
aaa(lp2851
g2818
a(lp2852
S'youll'
p2853
aS'be'
p2854
aS'doing'
p2855
aS'fine'
p2856
aaa(lp2857
g2818
a(lp2858
S'Make'
p2859
aS'me'
p2860
ag162
aS'happy'
p2861
aS'camper'
p2862
aaa(lp2863
g2818
a(lp2864
S'Ah'
p2865
aaa(lp2866
g2818
a(lp2867
S'here'
p2868
aaa(lp2869
g2818
a(lp2870
S'an'
p2871
aS'added'
p2872
aS'exp'
p2873
aaa(lp2874
g2818
a(lp2875
S'an'
p2876
aS'added'
p2877
aS'attraction'
p2878
aaa(lp2879
g2818
a(lp2880
S'What'
p2881
aS'are'
p2882
aS'we'
p2883
aS'gonna'
p2884
aS'do'
p2885
aS'now'
p2886
aaa(lp2887
g2818
a(lp2888
S'Ive'
p2889
aS'got'
p2890
aS'my'
p2891
aS'hand'
p2892
aS'on'
p2893
aS'your'
p2894
aS'hip'
p2895
aaa(lp2896
g2818
a(lp2897
S'Whoa'
p2898
aaa(lp2899
g2818
a(lp2900
S'There'
p2901
aS'we'
p2902
aS'go'
p2903
aaa(lp2904
g2818
a(lp2905
S'Thats'
p2906
aS'it'
p2907
aS'beau'
p2908
aaa(lp2909
g2818
a(lp2910
S'Throw'
p2911
aaa(lp2912
S'BILL'
p2913
a(lp2914
aa(lp2915
S'NICK'
p2916
a(lp2917
aa(lp2918
S'BILLX'
p2919
a(lp2920
S'Stop'
p2921
aS'whispering'
p2922
ag13
aaa(lp2923
S'NICK'
p2924
a(lp2925
S'Good'
p2926
aaa(lp2927
g2924
a(lp2928
S'Have'
p2929
aS'you'
p2930
aS'played'
p2931
ag162
aS'player'
p2932
aS'yet'
p2933
aaa(lp2934
g2924
a(lp2935
S'One'
p2936
aS'of'
p2937
aS'these'
p2938
aaa(lp2939
g2924
a(lp2940
S'You'
p2941
aS'will'
p2942
aaa(lp2943
S'BILL'
p2944
a(lp2945
S'Think'
p2946
ag55
aS'did'
p2947
aaa(lp2948
S'X'
p2949
a(lp2950
aa(lp2951
S'NICKJed'
p2952
a(lp2953
aa(lp2954
g2952
a(lp2955
S'youve'
p2956
aS'seen'
p2957
aS'these'
p2958
aaa(lp2959
g2952
a(lp2960
S'havent'
p2961
aS'you'
p2962
aaa(lp2963
S'JED'
p2964
a(lp2965
S'Mhm'
p2966
aaa(lp2967
S'NICK'
p2968
a(lp2969
S'Turn'
p2970
aS'on'
p2971
aS'in'
p2972
aS'on'
p2973
ag1750
aS'with'
p2974
aS'something'
p2975
aaa(lp2976
g2968
a(lp2977
S'Turn'
p2978
aS'in'
p2979
aS'to'
p2980
aS'anything'
p2981
aaa(lp2982
g2968
a(lp2983
S'Ah'
p2984
aaa(lp2985
g2968
a(lp2986
S'Cant'
p2987
aaa(lp2988
g2968
a(lp2989
S'can'
p2990
aS'you'
p2991
aaa(lp2992
g2968
a(lp2993
S'Go'
p2994
aS'into'
p2995
aS'Ouchi'
p2996
aaa(lp2997
g2968
a(lp2998
S'Now'
p2999
aS'Im'
p3000
aS'playing'
p3001
aS'you'
p3002
aS'back'
p3003
aaa(lp3004
g2968
a(lp3005
S'But'
p3006
aaa(lp3007
S'BILLOkay'
p3008
a(lp3009
aa(lp3010
S'NICKyou'
p3011
a(lp3012
S'can'
p3013
aS'hook'
p3014
aS'that'
p3015
aS'arm'
p3016
aaa(lp3017
g3011
a(lp3018
S'F'
p3019
aS'Oh'
p3020
ag3019
aaa(lp3021
g3011
a(lp3022
S'there'
p3023
aS'we'
p3024
aS'go'
p3025
aaa(lp3026
g3011
a(lp3027
S'Hanemakikomi'
p3028
aS'now'
p3029
aaa(lp3030
g3011
a(lp3031
S'WH'
p3032
aS'Ow'
p3033
aS'WH'
p3034
aaa(lp3035
S'JEDP'
p3036
a(lp3037
S'Alright'
p3038
ag1247
aaa(lp3039
S'NICK'
p3040
a(lp3041
S'Boy'
p3042
aS'thats'
p3043
ag162
aS'hard'
p3044
aS'fall'
p3045
aaa(lp3046
S'JEDOh'
p3047
a(lp3048
aa(lp3049
S'NICK'
p3050
a(lp3051
g13
aS'Ippon'
p3052
ag13
aaa(lp3053
g3050
a(lp3054
S'Alright'
p3055
aaa(lp3056
g3050
a(lp3057
S'thats'
p3058
aS'where'
p3059
aS'Hanemakikomi'
p3060
aS'comes'
p3061
aS'in'
p3062
aaa(lp3063
g3050
a(lp3064
S'Now'
p3065
aaa(lp3066
g3050
a(lp3067
S'the'
p3068
aS'traditional'
p3069
aS'way'
p3070
aS'to'
p3071
aS'do'
p3072
aS'it'
p3073
aaa(lp3074
g3050
a(lp3075
S'is'
p3076
aS'not'
p3077
aS'all'
p3078
aS'bent'
p3079
aS'over'
p3080
aaa(lp3081
g3050
a(lp3082
S'Its'
p3083
aS'from'
p3084
ag162
aS'regular'
p3085
aS'grip'
p3086
aaa(lp3087
g3050
a(lp3088
S'And'
p3089
aS'Ill'
p3090
aS'still'
p3091
aS'go'
p3092
aaa(lp3093
S'BILL'
p3094
a(lp3095
aa(lp3096
S'NICK'
p3097
a(lp3098
S'Not'
p3099
ag162
aS'real'
p3100
aaa(lp3101
g3097
a(lp3102
S'Which'
p3103
ag446
aS'that'
p3104
aS'one'
p3105
aS'wasnt'
p3106
ag162
aS'very'
p3107
aS'clean'
p3108
aS'pretty'
p3109
aS'throw'
p3110
aaa(lp3111
S'BILL'
p3112
a(lp3113
S'XX'
p3114
aS'functional'
p3115
aaa(lp3116
S'NICK'
p3117
a(lp3118
S'Ah'
p3119
aS'f'
p3120
aaa(lp3121
g3117
a(lp3122
S'well'
p3123
aaa(lp3124
g3117
a(lp3125
S'it'
p3126
aS'would'
p3127
aS'have'
p3128
aS'been'
p3129
aS'better'
p3130
aaa(lp3131
g3117
a(lp3132
S'had'
p3133
aS'my'
p3134
aS'leg'
p3135
aS'stayed'
p3136
aS'lower'
p3137
aaa(lp3138
g3117
a(lp3139
S'Traditional'
p3140
aS'Hane'
p3141
aaa(lp3142
g3117
a(lp3143
S'Hane'
p3144
aS'uh'
p3145
aaa(lp3146
S'BILL'
p3147
a(lp3148
aa(lp3149
S'NICKThere'
p3150
a(lp3151
aa(lp3152
S'BILL'
p3153
a(lp3154
S'That'
p3155
aS'was'
p3156
aS'pretty'
p3157
aaa(lp3158
S'NICK'
p3159
a(lp3160
S'But'
p3161
ag55
aS'like'
p3162
aS'the'
p3163
aS'Hanemakikomi'
p3164
aaa(lp3165
g3159
a(lp3166
S'whos'
p3167
aS'fighting'
p3168
aS'you'
p3169
aS'in'
p3170
aS'that'
p3171
aaa(lp3172
g3159
a(lp3173
S'extreme'
p3174
aS'defensive'
p3175
aS'stance'
p3176
aaa(lp3177
g3159
a(lp3178
S'While'
p3179
aS'hes'
p3180
aS'down'
p3181
aS'in'
p3182
ag162
ag13
aS'deep'
p3183
ag13
aS'jigo'
p3184
aaa(lp3185
g3159
a(lp3186
S'Preferably'
p3187
aaa(lp3188
g3159
a(lp3189
S'with'
p3190
aS'his'
p3191
aS'left'
p3192
aS'foot'
p3193
aS'forward'
p3194
aaa(lp3195
g3159
a(lp3196
S'Pressing'
p3197
aS'against'
p3198
aS'you'
p3199
aS'with'
p3200
aS'that'
p3201
aS'left'
p3202
aS'hand'
p3203
aaa(lp3204
g3159
a(lp3205
S'Keeping'
p3206
aS'you'
p3207
aS'out'
p3208
aaa(lp3209
g3159
a(lp3210
S'Doing'
p3211
aS'this'
p3212
aS'number'
p3213
aaa(lp3214
g3159
a(lp3215
g13
aS'Goes'
p3216
aS'in'
p3217
ag13
aaa(lp3218
g3159
a(lp3219
S'All'
p3220
aS'you'
p3221
aS'have'
p3222
aS'to'
p3223
aS'do'
p3224
aS'is'
p3225
aS'jerk'
p3226
aS'me'
p3227
aS'around'
p3228
aS'to'
p3229
aS'it'
p3230
aS'and'
p3231
aS'come'
p3232
aS'to'
p3233
aS'me'
p3234
aaa(lp3235
g3159
a(lp3236
S'From'
p3237
aS'there'
p3238
aaa(lp3239
g3159
a(lp3240
S'Jerk'
p3241
aaa(lp3242
g3159
a(lp3243
S'Hook'
p3244
aaa(lp3245
g3159
a(lp3246
S'And'
p3247
aS'then'
p3248
aS'spring'
p3249
ag13
aS'me'
p3250
ag13
aS'right'
p3251
aS'there'
p3252
aaa(lp3253
g3159
a(lp3254
S'Thats'
p3255
aS'it'
p3256
aaa(lp3257
g3159
a(lp3258
S'Alright'
p3259
aaa(lp3260
g3159
a(lp3261
S'practice'
p3262
aS'it'
p3263
aS'on'
p3264
aS'Darren'
p3265
ag162
aS'couple'
p3266
aS'times'
p3267
aaa(lp3268
g3159
a(lp3269
g55
aS'wanna'
p3270
aS'see'
p3271
aS'it'
p3272
aaa(lp3273
g3159
a(lp3274
g13
aS'Think'
p3275
aS'if'
p3276
aS'you'
p3277
ag13
aS'tried'
p3278
aS'the'
p3279
aS'throw'
p3280
aaa(lp3281
S'BILL'
p3282
a(lp3283
S'WH'
p3284
aS'Okay'
p3285
aS'WH'
p3286
aaa(lp3287
S'XX'
p3288
a(lp3289
S'Can'
p3290
aS'you'
p3291
aS'tell'
p3292
ag13
aaa(lp3293
S'NICK'
p3294
a(lp3295
S'On'
p3296
aS'Darren'
p3297
aaa(lp3298
g3294
a(lp3299
S'Lugs'
p3300
ag162
aS'little'
p3301
aS'bit'
p3302
aS'heavy'
p3303
aS'for'
p3304
aS'you'
p3305
aaa(lp3306
S'BENTONX'
p3307
a(lp3308
S'Where'
p3309
aS'is'
p3310
aS'he'
p3311
ag13
aaa(lp3312
g3307
a(lp3313
S'Here'
p3314
aS'it'
p3315
aS'is'
p3316
aaa(lp3317
S'JED'
p3318
a(lp3319
S'Dont'
p3320
aS'throw'
p3321
aS'him'
p3322
aS'off'
p3323
aS'the'
p3324
aS'mat'
p3325
aS'now'
p3326
aS'Bill'
p3327
aaa(lp3328
S'BILLDo'
p3329
a(lp3330
S'we'
p3331
aS'wanna'
p3332
aS'do'
p3333
aS'it'
p3334
aS'using'
p3335
aaa(lp3336
g3329
a(lp3337
S'Yeah'
p3338
aaa(lp3339
S'DARREN'
p3340
a(lp3341
S'Ah'
p3342
aS'the'
p3343
aS'only'
p3344
aS'thing'
p3345
ag55
aaa(lp3346
S'NICKYeah'
p3347
a(lp3348
aa(lp3349
g3347
a(lp3350
S'Take'
p3351
aS'your'
p3352
aS'position'
p3353
aS'on'
p3354
aS'the'
p3355
aS'mat'
p3356
aaa(lp3357
S'DARREN'
p3358
a(lp3359
S'All'
p3360
ag55
aS'do'
p3361
aS'is'
p3362
aS'XXX'
p3363
aaa(lp3364
g3358
a(lp3365
g13
aaa(lp3366
g3358
a(lp3367
S'Im'
p3368
aS'keeping'
p3369
aS'you'
p3370
aS'out'
p3371
aS'like'
p3372
aS'that'
p3373
aaa(lp3374
S'BILL'
p3375
a(lp3376
S'Well'
p3377
ag13
aS'thats'
p3378
aS'fine'
p3379
aS'down'
p3380
ag13
aaa(lp3381
S'DARREN'
p3382
a(lp3383
g13
aS'Are'
p3384
aS'they'
p3385
aS'on'
p3386
aS'the'
p3387
aS'chalk'
p3388
ag13
aaa(lp3389
S'BILLYes'
p3390
a(lp3391
S'you'
p3392
aS'are'
p3393
aaa(lp3394
S'DARREN'
p3395
a(lp3396
S'Okay'
p3397
aaa(lp3398
g3395
a(lp3399
g13
aS'You'
p3400
aS'gonna'
p3401
aS'make'
p3402
ag13
aS'XX'
p3403
aS'XXX'
p3404
aaa(lp3405
S'NICKThrow'
p3406
a(lp3407
aa(lp3408
S'BILL'
p3409
a(lp3410
aa(lp3411
S'DARREN'
p3412
a(lp3413
aa(lp3414
S'NICK'
p3415
a(lp3416
S'Well'
p3417
aaa(lp3418
g3415
a(lp3419
S'its'
p3420
aS'coming'
p3421
aS'off'
p3422
aS'as'
p3423
ag162
aS'winding'
p3424
aS'Uchimata'
p3425
aaa(lp3426
S'BILLX'
p3427
a(lp3428
S'Was'
p3429
ag55
aS'above'
p3430
aS'your'
p3431
aS'leg'
p3432
ag13
aaa(lp3433
g3427
a(lp3434
S'It'
p3435
aS'did'
p3436
aaa(lp3437
S'NICKIts'
p3438
a(lp3439
S'not'
p3440
aS'the'
p3441
aS'time'
p3442
aS'for'
p3443
aS'uh'
p3444
aaa(lp3445
g3438
a(lp3446
S'for'
p3447
aS'uh'
p3448
aS'extreme'
p3449
aS'resistance'
p3450
aS'yet'
p3451
aaa(lp3452
g3438
a(lp3453
S'Were'
p3454
aS'in'
p3455
aS'practice'
p3456
aaa(lp3457
S'BILLOkay'
p3458
a(lp3459
aa(lp3460
S'NICK'
p3461
a(lp3462
S'Just'
p3463
aS'put'
p3464
aS'your'
p3465
aS'hand'
p3466
aS'up'
p3467
aS'there'
p3468
aaa(lp3469
g3461
a(lp3470
S'and'
p3471
aS'push'
p3472
ag162
aS'little'
p3473
aS'bit'
p3474
aaa(lp3475
S'BILL'
p3476
a(lp3477
g1247
aS'XX'
p3478
ag1247
aaa(lp3479
S'NICK'
p3480
a(lp3481
S'Not'
p3482
ag162
aS'lot'
p3483
aS'of'
p3484
aS'resistance'
p3485
aS'from'
p3486
aS'it'
p3487
aaa(lp3488
g3480
a(lp3489
S'And'
p3490
aaa(lp3491
g3480
a(lp3492
g1247
aS'XXX'
p3493
aS'XXXX'
p3494
aaa(lp3495
g3480
a(lp3496
S'XXX'
p3497
aS'XXX'
p3498
ag1247
aaa(lp3499
g3480
a(lp3500
S'Thank'
p3501
aS'you'
p3502
aaa(lp3503
g3480
a(lp3504
S'Cause'
p3505
aS'youre'
p3506
aS'throwing'
p3507
aS'him'
p3508
aS'over'
p3509
aS'toward'
p3510
aS'this'
p3511
aS'edge'
p3512
aaa(lp3513
S'BILL'
p3514
a(lp3515
S'Okay'
p3516
aaa(lp3517
S'DARREN'
p3518
a(lp3519
aa(lp3520
S'NICKThats'
p3521
a(lp3522
S'it'
p3523
aaa(lp3524
g3521
a(lp3525
S'Pu'
p3526
aaa(lp3527
g3521
a(lp3528
S'Ippon'
p3529
aaa(lp3530
g3521
a(lp3531
S'Alright'
p3532
aaa(lp3533
g3521
a(lp3534
S'Lug'
p3535
aS'lets'
p3536
aS'see'
p3537
aS'you'
p3538
aS'throw'
p3539
aS'uh'
p3540
aaa(lp3541
g3521
a(lp3542
S'throw'
p3543
aS'Bill'
p3544
aaa(lp3545
S'XWH'
p3546
a(lp3547
S'Okay'
p3548
aS'WH'
p3549
aaa(lp3550
S'NICK'
p3551
a(lp3552
S'Turn'
p3553
aS'and'
p3554
aS'bow'
p3555
aS'to'
p3556
aS'that'
p3557
aS'Brown'
p3558
aS'Belt'
p3559
aaa(lp3560
S'DARREN'
p3561
a(lp3562
g55
aS'did'
p3563
aaa(lp3564
S'NICK'
p3565
a(lp3566
S'Okay'
p3567
ag55
aS'didnt'
p3568
aS'see'
p3569
aS'you'
p3570
aaa(lp3571
g3565
a(lp3572
S'Sorry'
p3573
aaa(lp3574
S'DARRENHe'
p3575
a(lp3576
S'didnt'
p3577
aS'bow'
p3578
aS'to'
p3579
aS'me'
p3580
aS'though'
p3581
aaa(lp3582
S'NICK'
p3583
a(lp3584
S'Throw'
p3585
aaa(lp3586
g3583
a(lp3587
S'throw'
p3588
aS'from'
p3589
aS'there'
p3590
aaa(lp3591
g3583
a(lp3592
S'That'
p3593
aS'wouldve'
p3594
aS'been'
p3595
aS'fine'
p3596
aaa(lp3597
g3583
a(lp3598
S'Man'
p3599
aS'that'
p3600
aS'would'
p3601
aS'have'
p3602
aS'been'
p3603
aS'as'
p3604
aS'fine'
p3605
aS'as'
p3606
aS'frogs'
p3607
aS'hair'
p3608
aaa(lp3609
g3583
a(lp3610
S'Throw'
p3611
aaa(lp3612
S'BILL'
p3613
a(lp3614
aa(lp3615
S'NICKNice'
p3616
a(lp3617
S'winding'
p3618
aS'Uchimata'
p3619
aaa(lp3620
g3616
a(lp3621
S'The'
p3622
aS'o'
p3623
aS'the'
p3624
aS'only'
p3625
aS'way'
p3626
aS'that'
p3627
aS'youre'
p3628
aS'gonna'
p3629
aS'get'
p3630
aS'it'
p3631
aS'Lug'
p3632
aaa(lp3633
g3616
a(lp3634
S'is'
p3635
aS'to'
p3636
aS'keep'
p3637
aS'practicing'
p3638
aS'it'
p3639
aaa(lp3640
g3616
a(lp3641
S'Alright'
p3642
aaa(lp3643
g3616
a(lp3644
S'now'
p3645
aaa(lp3646
g3616
a(lp3647
S'hook'
p3648
aS'the'
p3649
aS'arm'
p3650
aaa(lp3651
g3616
a(lp3652
S'hook'
p3653
aS'the'
p3654
aS'arm'
p3655
aS'here'
p3656
aaa(lp3657
g3616
a(lp3658
S'All'
p3659
aS'the'
p3660
aS'way'
p3661
aaa(lp3662
g3616
a(lp3663
S'and'
p3664
aS'just'
p3665
aS'shoot'
p3666
aS'this'
p3667
aS'on'
p3668
aS'across'
p3669
aaa(lp3670
g3616
a(lp3671
S'Release'
p3672
aS'his'
p3673
aS'head'
p3674
aaa(lp3675
g3616
a(lp3676
S'and'
p3677
aS'shoot'
p3678
aS'the'
p3679
aS'arm'
p3680
aaa(lp3681
g3616
a(lp3682
S'straight'
p3683
aS'through'
p3684
aaa(lp3685
g3616
a(lp3686
S'Now'
p3687
aS'go'
p3688
aaa(lp3689
g3616
a(lp3690
S'Throw'
p3691
aaa(lp3692
g3616
a(lp3693
S'Throw'
p3694
aaa(lp3695
S'BILL'
p3696
a(lp3697
aa(lp3698
S'NICK'
p3699
a(lp3700
S'There'
p3701
aaa(lp3702
g3699
a(lp3703
S'Youre'
p3704
aS'still'
p3705
aS'shooting'
p3706
aS'up'
p3707
aaa(lp3708
g3699
a(lp3709
S'with'
p3710
ag162
aS'bit'
p3711
aS'of'
p3712
ag162
aS'uh'
p3713
aaa(lp3714
g3699
a(lp3715
S'Uchimata'
p3716
aaa(lp3717
g3699
a(lp3718
S'Now'
p3719
aS'Im'
p3720
aS'gonna'
p3721
aS'throw'
p3722
aS'him'
p3723
aS'with'
p3724
aS'left'
p3725
aS'side'
p3726
aaa(lp3727
g3699
a(lp3728
S'Here'
p3729
aaa(lp3730
g3699
a(lp3731
S'It'
p3732
aS'doesnt'
p3733
aS'matter'
p3734
aaa(lp3735
g3699
a(lp3736
S'you'
p3737
aS'can'
p3738
aS'keep'
p3739
aS'your'
p3740
aS'right'
p3741
aS'hand'
p3742
aS'grip'
p3743
aaa(lp3744
g3699
a(lp3745
S'Alright'
p3746
aaa(lp3747
g3699
a(lp3748
S'now'
p3749
aS'Im'
p3750
aS'just'
p3751
aS'gon'
p3752
aS'gonna'
p3753
aS'shoot'
p3754
aS'it'
p3755
aS'to'
p3756
aS'here'
p3757
aaa(lp3758
S'DARREN'
p3759
a(lp3760
aa(lp3761
S'NICK'
p3762
a(lp3763
S'Now'
p3764
aS'Im'
p3765
aS'coming'
p3766
aS'in'
p3767
aS'with'
p3768
aS'my'
p3769
aS'knees'
p3770
aS'bent'
p3771
aaa(lp3772
S'DARREN'
p3773
a(lp3774
S'Yeah'
p3775
aS'but'
p3776
aS'that'
p3777
aS'makes'
p3778
aaa(lp3779
S'NICKIve'
p3780
a(lp3781
S'got'
p3782
aS'him'
p3783
aS'up'
p3784
aaa(lp3785
S'DARRENYeah'
p3786
a(lp3787
S'but'
p3788
aS'an'
p3789
aS'elbow'
p3790
aS'in'
p3791
aS'my'
p3792
ag3120
aaa(lp3793
S'NICK'
p3794
a(lp3795
S'Dont'
p3796
aS'worry'
p3797
aS'about'
p3798
aS'it'
p3799
aS'son'
p3800
aaa(lp3801
g3794
a(lp3802
S'Im'
p3803
aS'not'
p3804
aS'going'
p3805
aS'to'
p3806
aS'hurt'
p3807
aS'you'
p3808
aaa(lp3809
g3794
a(lp3810
S'Im'
p3811
aS'just'
p3812
aS'doing'
p3813
aS'Komi'
p3814
aaa(lp3815
g3794
a(lp3816
S'And'
p3817
aS'from'
p3818
aS'the'
p3819
aS'right'
p3820
aS'hand'
p3821
aS'side'
p3822
aaa(lp3823
g3794
a(lp3824
S'Bend'
p3825
aS'over'
p3826
aaa(lp3827
g3794
a(lp3828
S'Put'
p3829
aS'your'
p3830
aS'hand'
p3831
aS'against'
p3832
aS'my'
p3833
aS'hip'
p3834
aaa(lp3835
g3794
a(lp3836
S'Hold'
p3837
aS'me'
p3838
aS'out'
p3839
aaa(lp3840
S'DARREN'
p3841
a(lp3842
S'Okay'
p3843
aaa(lp3844
S'NICK'
p3845
a(lp3846
S'Alright'
p3847
aS'from'
p3848
aS'here'
p3849
aaa(lp3850
g3845
a(lp3851
S'hes'
p3852
aS'holding'
p3853
aS'me'
p3854
aS'out'
p3855
aaa(lp3856
g3845
a(lp3857
g55
aS'just'
p3858
aS'come'
p3859
aaa(lp3860
g3845
a(lp3861
S'just'
p3862
aS'like'
p3863
aS'this'
p3864
aaa(lp3865
g3845
a(lp3866
S'See'
p3867
aS'how'
p3868
ag55
aS'shoot'
p3869
aS'this'
p3870
aS'hand'
p3871
aS'down'
p3872
aaa(lp3873
g3845
a(lp3874
g55
aS'dont'
p3875
aS'have'
p3876
aS'to'
p3877
aS'try'
p3878
aS'to'
p3879
aS'grab'
p3880
aS'him'
p3881
aS'around'
p3882
aS'the'
p3883
aS'head'
p3884
aaa(lp3885
g3845
a(lp3886
g55
aS'shoot'
p3887
aS'this'
p3888
aS'hand'
p3889
aS'down'
p3890
aS'and'
p3891
ag55
aaa(lp3892
g3845
a(lp3893
S'Im'
p3894
aS'gonna'
p3895
aS'follow'
p3896
aS'it'
p3897
aaa(lp3898
g3845
a(lp3899
S'With'
p3900
aS'this'
p3901
aS'shoulder'
p3902
aaa(lp3903
S'DARREN'
p3904
a(lp3905
aa(lp3906
S'NICK'
p3907
a(lp3908
S'All'
p3909
aS'Im'
p3910
aS'doing'
p3911
aS'is'
p3912
aS'my'
p3913
aaa(lp3914
g3907
a(lp3915
S'my'
p3916
aS'roll'
p3917
aS'out'
p3918
aS'then'
p3919
aaa(lp3920
g3907
a(lp3921
S'Then'
p3922
aS'Ive'
p3923
aS'got'
p3924
aS'him'
p3925
aS'all'
p3926
aS'locked'
p3927
aS'up'
p3928
aaa(lp3929
g3907
a(lp3930
S'now'
p3931
aS'Im'
p3932
aS'good'
p3933
aS'and'
p3934
aS'tight'
p3935
aS'against'
p3936
aS'your'
p3937
aS'chest'
p3938
aS'Darren'
p3939
aaa(lp3940
S'DARREN'
p3941
a(lp3942
S'Uh'
p3943
aaa(lp3944
g3941
a(lp3945
S'are'
p3946
aS'you'
p3947
aaa(lp3948
g3941
a(lp3949
S'yeah'
p3950
aaa(lp3951
g3941
a(lp3952
S'Well'
p3953
aaa(lp3954
S'NICK'
p3955
a(lp3956
S'Am'
p3957
ag55
aS'tight'
p3958
aS'against'
p3959
aS'your'
p3960
aS'chest'
p3961
aaa(lp3962
g3955
a(lp3963
S'Yes'
p3964
aaa(lp3965
g3955
a(lp3966
S'Im'
p3967
aS'right'
p3968
aS'against'
p3969
aS'your'
p3970
aS'chest'
p3971
aaa(lp3972
g3955
a(lp3973
S'No'
p3974
aS'space'
p3975
aS'between'
p3976
aS'us'
p3977
aaa(lp3978
g3955
a(lp3979
S'One'
p3980
aS'of'
p3981
aS'the'
p3982
aS'secrets'
p3983
aS'about'
p3984
aS'making'
p3985
aS'this'
p3986
aS'throw'
p3987
aS'work'
p3988
aaa(lp3989
g3955
a(lp3990
S'Bend'
p3991
aS'over'
p3992
aS'Bill'
p3993
aaa(lp3994
g3955
a(lp3995
S'put'
p3996
aS'your'
p3997
aS'hand'
p3998
aS'there'
p3999
aaa(lp4000
g3955
a(lp4001
S'Alright'
p4002
aS'from'
p4003
aS'here'
p4004
aaa(lp4005
g3955
a(lp4006
S'Im'
p4007
aS'gonna'
p4008
aS'roll'
p4009
aS'it'
p4010
aS'around'
p4011
aS'here'
p4012
aaa(lp4013
g3955
a(lp4014
S'See'
p4015
aS'how'
p4016
ag55
aS'got'
p4017
aS'my'
p4018
aS'chest'
p4019
aaa(lp4020
g3955
a(lp4021
S'Have'
p4022
ag55
aS'got'
p4023
aS'your'
p4024
aS'chest'
p4025
aS'Bill'
p4026
aaa(lp4027
S'BILLYep'
p4028
a(lp4029
aa(lp4030
S'NICK'
p4031
a(lp4032
S'But'
p4033
aS'my'
p4034
aS'butt'
p4035
aS'is'
p4036
aS'in'
p4037
aS'it'
p4038
aaa(lp4039
g4031
a(lp4040
S'thats'
p4041
aS'okay'
p4042
aaa(lp4043
g4031
a(lp4044
S'BILL'
p4045
aaa(lp4046
S'JED'
p4047
a(lp4048
S'Oh'
p4049
aaa(lp4050
S'NICKDoesnt'
p4051
a(lp4052
S'matter'
p4053
aaa(lp4054
S'JED'
p4055
a(lp4056
S'Textbook'
p4057
aaa(lp4058
S'NICKI'
p4059
a(lp4060
S'think'
p4061
aS'about'
p4062
aS'ninety'
p4063
aS'percent'
p4064
aS'of'
p4065
aS'your'
p4066
aS'problem'
p4067
aaa(lp4068
g4059
a(lp4069
S'is'
p4070
aS'the'
p4071
aaa(lp4072
g4059
a(lp4073
S'Try'
p4074
aS'it'
p4075
aS'on'
p4076
aS'me'
p4077
aaa(lp4078
g4059
a(lp4079
g13
aS'Up'
p4080
aS'now'
p4081
ag13
aaa(lp4082
S'X'
p4083
a(lp4084
aa(lp4085
S'NICK'
p4086
a(lp4087
S'Alright'
p4088
aS'Im'
p4089
aS'right'
p4090
aS'here'
p4091
aaa(lp4092
g4086
a(lp4093
g2668
aS'get'
p4094
aS'over'
p4095
aS'here'
p4096
aaa(lp4097
g4086
a(lp4098
S'Alright'
p4099
aS'Lug'
p4100
aaa(lp4101
g4086
a(lp4102
S'swing'
p4103
aS'that'
p4104
aS'arm'
p4105
aS'out'
p4106
aS'of'
p4107
aS'your'
p4108
aS'way'
p4109
aaa(lp4110
g4086
a(lp4111
S'Swing'
p4112
aS'it'
p4113
aS'all'
p4114
aS'the'
p4115
aS'way'
p4116
aS'around'
p4117
aaa(lp4118
g4086
a(lp4119
S'Thats'
p4120
aS'fine'
p4121
aaa(lp4122
g4086
a(lp4123
S'see'
p4124
aS'Im'
p4125
aS'getting'
p4126
aS'my'
p4127
aS'arm'
p4128
aS'out'
p4129
aaa(lp4130
g4086
a(lp4131
S'trying'
p4132
aS'to'
p4133
aS'step'
p4134
aS'over'
p4135
aS'now'
p4136
aaa(lp4137
g4086
a(lp4138
g55
aS'think'
p4139
aS'youre'
p4140
aS'going'
p4141
aS'to'
p4142
aS'go'
p4143
aaa(lp4144
g4086
a(lp4145
S'and'
p4146
aS'do'
p4147
aaa(lp4148
g4086
a(lp4149
S'uh'
p4150
aaa(lp4151
g4086
a(lp4152
g162
aS'm'
p4153
aaa(lp4154
g4086
a(lp4155
g162
aS'uh'
p4156
aaa(lp4157
g4086
a(lp4158
S'Sodemakikomi'
p4159
aaa(lp4160
g4086
a(lp4161
S'This'
p4162
aS'is'
p4163
aS'just'
p4164
aS'what'
p4165
aS'it'
p4166
aS'feels'
p4167
aS'like'
p4168
aS'from'
p4169
aS'this'
p4170
aS'position'
p4171
aaa(lp4172
g4086
a(lp4173
S'So'
p4174
aS'Im'
p4175
aS'gonna'
p4176
aS'get'
p4177
aS'ready'
p4178
aS'to'
p4179
aS'step'
p4180
aS'over'
p4181
aaa(lp4182
S'BENTON'
p4183
a(lp4184
S'Okay'
p4185
aaa(lp4186
S'NICKto'
p4187
a(lp4188
S'get'
p4189
aS'away'
p4190
aS'from'
p4191
aS'that'
p4192
aS'Sodemakikomi'
p4193
aaa(lp4194
g4187
a(lp4195
g55
aS'wanna'
p4196
aS'step'
p4197
aaa(lp4198
g4187
a(lp4199
S'so'
p4200
ag55
aS'can'
p4201
aS'drop'
p4202
aS'you'
p4203
aS'with'
p4204
aS'Taniotoshi'
p4205
aaa(lp4206
S'BENTONRight'
p4207
a(lp4208
aa(lp4209
S'NICK'
p4210
a(lp4211
S'And'
p4212
aS'just'
p4213
aS'as'
p4214
ag55
aS'get'
p4215
aS'ready'
p4216
aS'to'
p4217
aS'step'
p4218
aS'from'
p4219
aS'here'
p4220
aaa(lp4221
g4210
a(lp4222
S'kick'
p4223
aS'that'
p4224
aS'leg'
p4225
aS'in'
p4226
aaa(lp4227
S'BENTON'
p4228
a(lp4229
aa(lp4230
S'NICK'
p4231
a(lp4232
S'There'
p4233
ag55
aS'go'
p4234
aaa(lp4235
g4231
a(lp4236
S'Alright'
p4237
aS'come'
p4238
aS'here'
p4239
aS'Bill'
p4240
aaa(lp4241
g4231
a(lp4242
S'Watch'
p4243
aS'it'
p4244
aS'Darren'
p4245
aaa(lp4246
g4231
a(lp4247
g55
aS'mean'
p4248
aS'uh'
p4249
aaa(lp4250
g4231
a(lp4251
S'Benton'
p4252
aaa(lp4253
g4231
a(lp4254
S'Alright'
p4255
aaa(lp4256
g4231
a(lp4257
S'tell'
p4258
aS'me'
p4259
aS'if'
p4260
aS'this'
p4261
aaa(lp4262
g4231
a(lp4263
S'you'
p4264
aS'know'
p4265
aaa(lp4266
g4231
a(lp4267
S'Sodemakikomi'
p4268
aaa(lp4269
g4231
a(lp4270
S'Now'
p4271
aaa(lp4272
g4231
a(lp4273
S'Ah'
p4274
aaa(lp4275
g4231
a(lp4276
S'there'
p4277
aS'we'
p4278
aS'go'
p4279
aaa(lp4280
g4231
a(lp4281
S'there'
p4282
aS'we'
p4283
aS'go'
p4284
aaa(lp4285
g4231
a(lp4286
S'no'
p4287
aaa(lp4288
g4231
a(lp4289
S'just'
p4290
aS'dont'
p4291
aS'counter'
p4292
aaa(lp4293
g4231
a(lp4294
S'just'
p4295
aS'step'
p4296
aS'over'
p4297
aS'the'
p4298
aS'damn'
p4299
aS'thing'
p4300
aaa(lp4301
g4231
a(lp4302
S'There'
p4303
aaa(lp4304
g4231
a(lp4305
S'Alright'
p4306
aS'now'
p4307
aaa(lp4308
g4231
a(lp4309
S'he'
p4310
aS'stepped'
p4311
aS'over'
p4312
aaa(lp4313
g4231
a(lp4314
S'so'
p4315
aaa(lp4316
S'BILL'
p4317
a(lp4318
aa(lp4319
S'NICK'
p4320
a(lp4321
g55
aS'can'
p4322
aS'finish'
p4323
aS'up'
p4324
aaa(lp4325
g4320
a(lp4326
S'with'
p4327
ag162
aS'Hanemakikomi'
p4328
aaa(lp4329
g4320
a(lp4330
S'He'
p4331
aS'off'
p4332
aS'mat'
p4333
aaa(lp4334
S'JED'
p4335
a(lp4336
S'No'
p4337
aaa(lp4338
g4335
a(lp4339
S'he'
p4340
aS'just'
p4341
aS'hit'
p4342
aS'his'
p4343
aS'hand'
p4344
aaa(lp4345
S'NICK'
p4346
a(lp4347
S'Oh'
p4348
aaa(lp4349
g4346
a(lp4350
S'back'
p4351
aS'of'
p4352
aS'his'
p4353
aS'hand'
p4354
aS'again'
p4355
aaa(lp4356
S'JED'
p4357
a(lp4358
aa(lp4359
S'NICK'
p4360
a(lp4361
aa(lp4362
S'JED'
p4363
a(lp4364
g55
aS'guess'
p4365
aS'since'
p4366
aS'hes'
p4367
aS'off'
p4368
aS'the'
p4369
aS'mat'
p4370
aaa(lp4371
g4363
a(lp4372
S'he'
p4373
aS'didnt'
p4374
aS'wanna'
p4375
aS'hurt'
p4376
aS'his'
p4377
ag13
aS'arms'
p4378
ag13
aaa(lp4379
S'NICKYeah'
p4380
a(lp4381
aa(lp4382
g4380
a(lp4383
S'Hes'
p4384
aS'used'
p4385
aS'to'
p4386
aS'wearing'
p4387
ag162
aS'watch'
p4388
aaa(lp4389
g4380
a(lp4390
S'try'
p4391
aS'and'
p4392
aS'protect'
p4393
aS'it'
p4394
aaa(lp4395
g4380
a(lp4396
S'Come'
p4397
aS'throw'
p4398
aS'him'
p4399
ag162
aS'little'
p4400
aS'bit'
p4401
aS'Benton'
p4402
aaa(lp4403
g4380
a(lp4404
S'There'
p4405
aaa(lp4406
g4380
a(lp4407
S'Now'
p4408
aS'th'
p4409
aaa(lp4410
g4380
a(lp4411
S'shoot'
p4412
aS'that'
p4413
aS'leg'
p4414
aaa(lp4415
g4380
a(lp4416
S'shoot'
p4417
aS'it'
p4418
aS'now'
p4419
aaa(lp4420
g4380
a(lp4421
S'YELL'
p4422
aS'Ha'
p4423
aS'YELL'
p4424
aaa(lp4425
g4380
a(lp4426
S'You'
p4427
aS'had'
p4428
ag162
aS'perfect'
p4429
aS'position'
p4430
aS'with'
p4431
aS'the'
p4432
aS'foot'
p4433
aaa(lp4434
g4380
a(lp4435
S'XXX'
p4436
aaa(lp4437
g4380
a(lp4438
S'Jed'
p4439
aaa(lp4440
g4380
a(lp4441
S'can'
p4442
aS'you'
p4443
aS'add'
p4444
aS'anything'
p4445
aaa(lp4446
g4380
a(lp4447
S'cause'
p4448
aS'Im'
p4449
aS'out'
p4450
aS'here'
p4451
aS'on'
p4452
aS'the'
p4453
aaa(lp4454
S'JEDYes'
p4455
a(lp4456
aa(lp4457
S'NICK'
p4458
a(lp4459
S'in'
p4460
aS'the'
p4461
aS'front'
p4462
aaa(lp4463
g4458
a(lp4464
g55
aS'cant'
p4465
aS'see'
p4466
aS'whats'
p4467
aS'going'
p4468
aS'on'
p4469
aaa(lp4470
g4458
a(lp4471
S'youre'
p4472
aS'out'
p4473
aS'here'
p4474
aaa(lp4475
g4458
a(lp4476
S'right'
p4477
aS'here'
p4478
aS'on'
p4479
aS'the'
p4480
aS'side'
p4481
aaa(lp4482
S'JED'
p4483
a(lp4484
S'XXX'
p4485
ag13
aaa(lp4486
g4483
a(lp4487
S'Ive'
p4488
aS'noticed'
p4489
aS'something'
p4490
aS'that'
p4491
aS'your'
p4492
aS'sensei'
p4493
aS'is'
p4494
aS'doing'
p4495
aS'that'
p4496
aS'youre'
p4497
aS'not'
p4498
aS'doing'
p4499
aaa(lp4500
g4483
a(lp4501
S'Hes'
p4502
aS'reaching'
p4503
aS'for'
p4504
aS'the'
p4505
aS'mat'
p4506
aaa(lp4507
g4483
a(lp4508
S'Hes'
p4509
aS'in'
p4510
aS'there'
p4511
aS'and'
p4512
aS'winds'
p4513
aS'up'
p4514
aaa(lp4515
S'NICKYeah'
p4516
a(lp4517
aa(lp4518
S'JED'
p4519
a(lp4520
S'hes'
p4521
aS'reaching'
p4522
aS'for'
p4523
aS'the'
p4524
aS'mat'
p4525
aaa(lp4526
g4519
a(lp4527
S'with'
p4528
aS'this'
p4529
aS'arm'
p4530
aaa(lp4531
g4519
a(lp4532
S'And'
p4533
aS'your'
p4534
aS'arms'
p4535
aS'way'
p4536
aS'up'
p4537
aS'here'
p4538
aS'high'
p4539
aaa(lp4540
g4519
a(lp4541
S'Youre'
p4542
aS'like'
p4543
aS'way'
p4544
aS'up'
p4545
aS'high'
p4546
aS'off'
p4547
aS'the'
p4548
aS'ground'
p4549
aaa(lp4550
g4519
a(lp4551
S'and'
p4552
aS'your'
p4553
aS'sensei'
p4554
aaa(lp4555
g4519
a(lp4556
S'is'
p4557
aS'VOX'
p4558
aS'way'
p4559
aS'down'
p4560
aS'like'
p4561
aS'this'
p4562
aS'VOX'
p4563
aaa(lp4564
g4519
a(lp4565
S'By'
p4566
aS'the'
p4567
aS'time'
p4568
aS'he'
p4569
aS'gets'
p4570
aS'to'
p4571
aS'the'
p4572
aS'end'
p4573
aS'of'
p4574
aS'the'
p4575
aS'throw'
p4576
aaa(lp4577
g4519
a(lp4578
S'See'
p4579
aS'the'
p4580
aS'difference'
p4581
aaa(lp4582
g4519
a(lp4583
S'So'
p4584
aS'youre'
p4585
aS'wrapping'
p4586
aaa(lp4587
g4519
a(lp4588
S'and'
p4589
aS'youre'
p4590
aS'thinking'
p4591
aaa(lp4592
g4519
a(lp4593
g55
aS'gotta'
p4594
aS'make'
p4595
aS'this'
p4596
aS'throw'
p4597
aaa(lp4598
g4519
a(lp4599
S'what'
p4600
aS'am'
p4601
ag55
aS'gonna'
p4602
aS'do'
p4603
aaa(lp4604
g4519
a(lp4605
S'and'
p4606
aS'Nick'
p4607
aaa(lp4608
g4519
a(lp4609
S'is'
p4610
aS'going'
p4611
aS'for'
p4612
aS'the'
p4613
aS'mat'
p4614
aS'with'
p4615
aS'this'
p4616
aS'arm'
p4617
aaa(lp4618
g4519
a(lp4619
S'Hes'
p4620
aS'into'
p4621
ag162
ag3120
aaa(lp4622
g4519
a(lp4623
S'almost'
p4624
aS'like'
p4625
ag162
aS'forward'
p4626
aS'roll'
p4627
aS'mode'
p4628
aaa(lp4629
g4519
a(lp4630
S'The'
p4631
aS'other'
p4632
aS'difference'
p4633
aS'that'
p4634
ag55
aS'noticed'
p4635
aS'between'
p4636
aS'you'
p4637
aS'and'
p4638
aS'your'
p4639
aS'sensei'
p4640
aS'is'
p4641
aS'that'
p4642
aaa(lp4643
g4519
a(lp4644
S'this'
p4645
aS'foot'
p4646
aS'is'
p4647
aS'way'
p4648
aS'out'
p4649
aS'here'
p4650
aaa(lp4651
g4519
a(lp4652
S'This'
p4653
aS'the'
p4654
aaa(lp4655
g4519
a(lp4656
S'your'
p4657
aaa(lp4658
S'NICK'
p4659
a(lp4660
S'Are'
p4661
aS'they'
p4662
aS'trying'
p4663
aS'to'
p4664
aS'throw'
p4665
aS'over'
p4666
aS'the'
p4667
aS'entire'
p4668
aS'hip'
p4669
aS'section'
p4670
aaa(lp4671
S'JEDwith'
p4672
a(lp4673
S'th'
p4674
aaa(lp4675
g4672
a(lp4676
S'Mhm'
p4677
aaa(lp4678
g4672
a(lp4679
S'And'
p4680
aS'and'
p4681
aS'and'
p4682
aS'and'
p4683
aaa(lp4684
g4672
a(lp4685
S'when'
p4686
aS'Nick'
p4687
aS'throws'
p4688
aS'it'
p4689
aaa(lp4690
g4672
a(lp4691
S'so'
p4692
aS'pretty'
p4693
aS'like'
p4694
aS'he'
p4695
aS'does'
p4696
aaa(lp4697
g4672
a(lp4698
S'hes'
p4699
aS'got'
p4700
aS'the'
p4701
aaa(lp4702
g4672
a(lp4703
S'his'
p4704
aS'foot'
p4705
aaa(lp4706
g4672
a(lp4707
S'much'
p4708
aS'closer'
p4709
aS'to'
p4710
aS'the'
p4711
aS'middle'
p4712
aaa(lp4713
g4672
a(lp4714
S'of'
p4715
aS'his'
p4716
aS'opponents'
p4717
aS'center'
p4718
aS'of'
p4719
aS'gravity'
p4720
aaa(lp4721
S'BENTONKay'
p4722
a(lp4723
aa(lp4724
S'JED'
p4725
a(lp4726
g2668
aS'youre'
p4727
aS'so'
p4728
aS'wide'
p4729
aS'that'
p4730
aaa(lp4731
g4725
a(lp4732
S'if'
p4733
aS'you'
p4734
aS'lift'
p4735
aS'up'
p4736
aaa(lp4737
g4725
a(lp4738
S'when'
p4739
aS'you'
p4740
aS'lift'
p4741
aS'up'
p4742
aS'to'
p4743
aS'make'
p4744
aS'the'
p4745
aS'springing'
p4746
aS'motion'
p4747
aaa(lp4748
g4725
a(lp4749
S'what'
p4750
aS'happens'
p4751
aS'is'
p4752
aaa(lp4753
g4725
a(lp4754
S'you'
p4755
aS'fall'
p4756
aS'this'
p4757
aS'way'
p4758
aS'real'
p4759
aS'quick'
p4760
aaa(lp4761
S'NICK'
p4762
a(lp4763
S'That'
p4764
aS'is'
p4765
aS'it'
p4766
aaa(lp4767
S'JEDAnd'
p4768
a(lp4769
S'you'
p4770
aS'dont'
p4771
aS'have'
p4772
aaa(lp4773
g4768
a(lp4774
S'enough'
p4775
aS'to'
p4776
aS'go'
p4777
aS'like'
p4778
aS'that'
p4779
aaa(lp4780
g4768
a(lp4781
S'Try'
p4782
aS'it'
p4783
aS'one'
p4784
aS'time'
p4785
aaa(lp4786
g4768
a(lp4787
S'Reach'
p4788
aS'for'
p4789
aS'the'
p4790
aS'ground'
p4791
aS'with'
p4792
aS'your'
p4793
aS'wrapping'
p4794
aS'arm'
p4795
aaa(lp4796
g4768
a(lp4797
S'Uh'
p4798
aS'uh'
p4799
aS'uh'
p4800
aaa(lp4801
S'BENTON'
p4802
a(lp4803
aa(lp4804
S'BILL'
p4805
a(lp4806
aa(lp4807
S'NICKBetter'
p4808
a(lp4809
g13
aS'there'
p4810
ag13
aaa(lp4811
S'JED'
p4812
a(lp4813
S'Yeah'
p4814
aaa(lp4815
g4812
a(lp4816
S'Its'
p4817
aS'better'
p4818
aaa(lp4819
g4812
a(lp4820
S'Reach'
p4821
aaa(lp4822
S'NICKBut'
p4823
a(lp4824
aa(lp4825
S'JED'
p4826
a(lp4827
S'Reach'
p4828
aaa(lp4829
g4826
a(lp4830
S'reach'
p4831
aS'way'
p4832
aS'into'
p4833
aS'the'
p4834
aS'ground'
p4835
aS'with'
p4836
aS'this'
p4837
aS'one'
p4838
aaa(lp4839
S'NICKXX'
p4840
a(lp4841
aa(lp4842
g4840
a(lp4843
S'Here'
p4844
aS'here'
p4845
aS'heres'
p4846
aaa(lp4847
g4840
a(lp4848
g13
aS'its'
p4849
aS'right'
p4850
aS'here'
p4851
ag13
aaa(lp4852
S'JED'
p4853
a(lp4854
S'Reach'
p4855
aS'VOX'
p4856
aS'way'
p4857
aS'like'
p4858
aS'this'
p4859
aS'VOX'
p4860
aaa(lp4861
g4853
a(lp4862
S'Like'
p4863
aS'you'
p4864
aS'were'
p4865
aS'doing'
p4866
ag162
aS'front'
p4867
aS'roll'
p4868
aS'out'
p4869
aaa(lp4870
S'NICKXXXX'
p4871
a(lp4872
aa(lp4873
S'JED'
p4874
a(lp4875
S'And'
p4876
aS'and'
p4877
aS'stand'
p4878
aS'on'
p4879
aS'this'
p4880
aS'foot'
p4881
aaa(lp4882
g4874
a(lp4883
S'so'
p4884
aS'that'
p4885
aS'you'
p4886
aaa(lp4887
g4874
a(lp4888
S'are'
p4889
aS'more'
p4890
aS'balanced'
p4891
aaa(lp4892
g4874
a(lp4893
S'Just'
p4894
ag162
aS'little'
p4895
aS'bit'
p4896
aS'more'
p4897
aaa(lp4898
g4874
a(lp4899
S'but'
p4900
aS'you'
p4901
aS'youre'
p4902
aS'going'
p4903
aS'down'
p4904
aaa(lp4905
g4874
a(lp4906
g55
aS'mean'
p4907
aaa(lp4908
S'NICKStep'
p4909
a(lp4910
S'in'
p4911
ag13
aS'when'
p4912
aS'you'
p4913
aS'have'
p4914
aS'his'
p4915
ag1567
ag13
aaa(lp4916
g4909
a(lp4917
S'right'
p4918
aS'between'
p4919
aS'his'
p4920
aS'legs'
p4921
aaa(lp4922
g4909
a(lp4923
S'No'
p4924
aS'step'
p4925
aS'deeper'
p4926
aaa(lp4927
S'JEDX'
p4928
a(lp4929
S'Wont'
p4930
aS'settle'
p4931
ag13
aaa(lp4932
S'NICK'
p4933
a(lp4934
S'Step'
p4935
aS'deeper'
p4936
aaa(lp4937
S'BENTON'
p4938
a(lp4939
S'Okay'
p4940
aaa(lp4941
S'NICK'
p4942
a(lp4943
S'Look'
p4944
aS'how'
p4945
aS'd'
p4946
aaa(lp4947
g4942
a(lp4948
S'Now'
p4949
aaa(lp4950
g4942
a(lp4951
S'Get'
p4952
aS'your'
p4953
aS'foot'
p4954
aS'over'
p4955
aS'here'
p4956
aaa(lp4957
S'XX'
p4958
a(lp4959
S'Bit'
p4960
aS'more'
p4961
ag13
aaa(lp4962
S'NICKStep'
p4963
a(lp4964
S'right'
p4965
aS'between'
p4966
aS'his'
p4967
aS'legs'
p4968
aaa(lp4969
S'BENTON'
p4970
a(lp4971
S'That'
p4972
aS'foot'
p4973
aaa(lp4974
S'NICK'
p4975
a(lp4976
S'Now'
p4977
aaa(lp4978
g4975
a(lp4979
S'shoot'
p4980
aS'your'
p4981
aS'arm'
p4982
aS'and'
p4983
aaa(lp4984
g4975
a(lp4985
S'and'
p4986
aS'kick'
p4987
aaa(lp4988
S'JED'
p4989
a(lp4990
S'Oh'
p4991
aaa(lp4992
S'NICKF'
p4993
a(lp4994
S'Ho'
p4995
aaa(lp4996
g4993
a(lp4997
S'Hanemakikomi'
p4998
ag3019
aaa(lp4999
S'XVOX'
p5000
a(lp5001
S'Woo'
p5002
aS'VOX'
p5003
aaa(lp5004
S'BENTON'
p5005
a(lp5006
S'Ah'
p5007
aS'so'
p5008
aaa(lp5009
S'NICK'
p5010
a(lp5011
S'Try'
p5012
aS'it'
p5013
aS'again'
p5014
aaa(lp5015
g5010
a(lp5016
S'Alright'
p5017
aaa(lp5018
g5010
a(lp5019
S'you'
p5020
aS'notice'
p5021
aS'the'
p5022
aS'difference'
p5023
aS'in'
p5024
aS'the'
p5025
aS'foot'
p5026
aS'position'
p5027
aaa(lp5028
g5010
a(lp5029
S'what'
p5030
aS'hi'
p5031
aaa(lp5032
g5010
a(lp5033
S'what'
p5034
aaa(lp5035
g5010
a(lp5036
S'how'
p5037
aS'much'
p5038
aS'that'
p5039
aS'helped'
p5040
aaa(lp5041
S'BENTON'
p5042
a(lp5043
S'Mhm'
p5044
aaa(lp5045
S'NICK'
p5046
a(lp5047
S'Step'
p5048
aS'directly'
p5049
aS'between'
p5050
aS'his'
p5051
aS'legs'
p5052
aaa(lp5053
g5046
a(lp5054
S'with'
p5055
aS'your'
p5056
aS'advancing'
p5057
aS'foot'
p5058
aaa(lp5059
g5046
a(lp5060
S'No'
p5061
aS'no'
p5062
aS'no'
p5063
aS'no'
p5064
aS'no'
p5065
aaa(lp5066
S'BENTONAh'
p5067
a(lp5068
aa(lp5069
S'NICKYoure'
p5070
a(lp5071
S'not'
p5072
aaa(lp5073
g5070
a(lp5074
S'not'
p5075
aS'between'
p5076
aS'his'
p5077
aS'legs'
p5078
aaa(lp5079
S'JEDNow'
p5080
a(lp5081
S'reach'
p5082
aS'that'
p5083
aS'arm'
p5084
aaa(lp5085
g5080
a(lp5086
S'Reach'
p5087
aS'that'
p5088
aS'arm'
p5089
aaa(lp5090
S'NICKShoot'
p5091
a(lp5092
S'it'
p5093
aaa(lp5094
S'JEDReach'
p5095
a(lp5096
S'that'
p5097
aS'arm'
p5098
aS'through'
p5099
aaa(lp5100
S'BILL'
p5101
a(lp5102
aa(lp5103
S'JED'
p5104
a(lp5105
S'The'
p5106
aS'more'
p5107
aS'you'
p5108
aS'reach'
p5109
aS'that'
p5110
aS'arm'
p5111
aS'through'
p5112
aaa(lp5113
g5104
a(lp5114
S'L'
p5115
aS'let'
p5116
aS'me'
p5117
aS'add'
p5118
aS'one'
p5119
aaa(lp5120
g5104
a(lp5121
S'Let'
p5122
aS'me'
p5123
aS'add'
p5124
aS'one'
p5125
aS'thing'
p5126
aS'to'
p5127
aS'it'
p5128
aaa(lp5129
g5104
a(lp5130
S'to'
p5131
aS'make'
p5132
aS'it'
p5133
aaa(lp5134
g5104
a(lp5135
S'cause'
p5136
aS'it'
p5137
aS'is'
p5138
ag162
aS'hard'
p5139
aS'fall'
p5140
aS'if'
p5141
aS'youre'
p5142
aaa(lp5143
g5104
a(lp5144
S'throwing'
p5145
aS'it'
p5146
aS'contest'
p5147
aS'style'
p5148
aaa(lp5149
g5104
a(lp5150
S'if'
p5151
aS'youre'
p5152
aS'throwing'
p5153
aS'it'
p5154
aS'demo'
p5155
aS'style'
p5156
aaa(lp5157
g5104
a(lp5158
S'somebody'
p5159
aS'once'
p5160
aS'told'
p5161
aS'me'
p5162
aaa(lp5163
g5104
a(lp5164
S'that'
p5165
aS'that'
p5166
aaa(lp5167
g5104
a(lp5168
S'the'
p5169
aS'way'
p5170
aS'to'
p5171
aS'practice'
p5172
aaa(lp5173
g5104
a(lp5174
S'all'
p5175
aS'the'
p5176
aS'Makikomiwaza'
p5177
aaa(lp5178
g5104
a(lp5179
S'was'
p5180
aS'to'
p5181
aS'go'
p5182
aS'down'
p5183
aS'like'
p5184
aS'this'
p5185
aaa(lp5186
g5104
a(lp5187
S'To'
p5188
aS'take'
p5189
aS'this'
p5190
aS'foot'
p5191
aS'if'
p5192
aS'youre'
p5193
aS'throwing'
p5194
aS'righthand'
p5195
aS'throws'
p5196
aaa(lp5197
g5104
a(lp5198
S'and'
p5199
aS'to'
p5200
aS'take'
p5201
aS'this'
p5202
aS'foot'
p5203
aaa(lp5204
g5104
a(lp5205
S'and'
p5206
aS'stick'
p5207
aS'it'
p5208
aS'VOX'
p5209
aS'all'
p5210
aS'the'
p5211
aS'way'
p5212
aS'through'
p5213
aS'VOX'
p5214
aS'like'
p5215
aS'this'
p5216
aaa(lp5217
S'NICKYep'
p5218
a(lp5219
aa(lp5220
S'JED'
p5221
a(lp5222
S'And'
p5223
aS'just'
p5224
aS'stick'
p5225
aS'it'
p5226
aaa(lp5227
g5221
a(lp5228
S'All'
p5229
aS'the'
p5230
aS'way'
p5231
aaa(lp5232
g5221
a(lp5233
S'behind'
p5234
aS'you'
p5235
aaa(lp5236
g5221
a(lp5237
S'like'
p5238
aS'this'
p5239
aaa(lp5240
g5221
a(lp5241
S'And'
p5242
aS'as'
p5243
aS'you'
p5244
aS'go'
p5245
aS'down'
p5246
aaa(lp5247
g5221
a(lp5248
S'and'
p5249
aS'you'
p5250
aS'roll'
p5251
aS'like'
p5252
aS'that'
p5253
aaa(lp5254
g5221
a(lp5255
S'Okay'
p5256
aaa(lp5257
g5221
a(lp5258
S'and'
p5259
aS'if'
p5260
aS'you'
p5261
aS'do'
p5262
aS'this'
p5263
aaa(lp5264
g5221
a(lp5265
S'in'
p5266
aS'demo'
p5267
aaa(lp5268
g5221
a(lp5269
S'uh'
p5270
aS'in'
p5271
aS'demo'
p5272
aS'fashion'
p5273
aaa(lp5274
g5221
a(lp5275
S'youll'
p5276
aS'be'
p5277
aS'so'
p5278
aS'low'
p5279
aS'to'
p5280
aS'the'
p5281
aS'ground'
p5282
aaa(lp5283
g5221
a(lp5284
S'that'
p5285
aS'youll'
p5286
aS'be'
p5287
aS'real'
p5288
aS'nice'
p5289
aS'to'
p5290
aS'him'
p5291
aaa(lp5292
g5221
a(lp5293
S'And'
p5294
aS'that'
p5295
aS'way'
p5296
ag55
aS'mean'
p5297
aaa(lp5298
g5221
a(lp5299
S'you'
p5300
aS'can'
p5301
aS'intensify'
p5302
aaa(lp5303
g5221
a(lp5304
S'you'
p5305
aS'can'
p5306
aS'always'
p5307
aS'intensify'
p5308
aS'throwing'
p5309
aaa(lp5310
g5221
a(lp5311
S'throw'
p5312
aS'it'
p5313
aS'harder'
p5314
aaa(lp5315
g5221
a(lp5316
S'judo'
p5317
aS'throw'
p5318
aaa(lp5319
g5221
a(lp5320
S'is'
p5321
aS'to'
p5322
aS'be'
p5323
aS'able'
p5324
aS'to'
p5325
aaa(lp5326
g5221
a(lp5327
S'do'
p5328
aS'you'
p5329
aS'see'
p5330
aS'the'
p5331
aS'people'
p5332
aS'throw'
p5333
aS'Seoi'
p5334
aS'so'
p5335
aS'nice'
p5336
aaa(lp5337
g5221
a(lp5338
S'they'
p5339
aS'can'
p5340
aS'do'
p5341
aaa(lp5342
g5221
a(lp5343
S'they'
p5344
aS'could'
p5345
aS'throw'
p5346
aS'their'
p5347
aS'grandmother'
p5348
aaa(lp5349
g5221
a(lp5350
S'and'
p5351
aS'it'
p5352
aS'doesnt'
p5353
aS'even'
p5354
aS'hurt'
p5355
aaa(lp5356
g5221
a(lp5357
S'WH'
p5358
aS'She'
p5359
aS'goes'
p5360
aS'ah'
p5361
aaa(lp5362
g5221
a(lp5363
S'That'
p5364
aS'felt'
p5365
aS'good'
p5366
aS'WH'
p5367
aaa(lp5368
g5221
a(lp5369
S'So'
p5370
aS'you'
p5371
aS'can'
p5372
aS'do'
p5373
aS'that'
p5374
aaa(lp5375
S'NICKMm'
p5376
a(lp5377
aa(lp5378
S'JED'
p5379
a(lp5380
aa(lp5381
g5379
a(lp5382
S'all'
p5383
aS'the'
p5384
aS'way'
p5385
aS'through'
p5386
aaa(lp5387
g5379
a(lp5388
g13
aS'just'
p5389
ag13
aS'like'
p5390
aS'that'
p5391
aaa(lp5392
g5379
a(lp5393
S'As'
p5394
aS'you'
p5395
aS'get'
p5396
aaa(lp5397
g5379
a(lp5398
S'You'
p5399
aS'follow'
p5400
aS'what'
p5401
aS'Im'
p5402
aS'saying'
p5403
aaa(lp5404
S'BENTON'
p5405
a(lp5406
S'Yes'
p5407
aS'sir'
p5408
aaa(lp5409
S'NICK'
p5410
a(lp5411
S'You'
p5412
aS'dont'
p5413
aS'have'
p5414
aS'to'
p5415
aS'drive'
p5416
aS'em'
p5417
aS'through'
p5418
aS'the'
p5419
aS'mat'
p5420
aaa(lp5421
S'JEDThat'
p5422
a(lp5423
aa(lp5424
g5422
a(lp5425
S'thats'
p5426
ag162
aS'way'
p5427
aS'that'
p5428
aS'you'
p5429
aS'can'
p5430
aaa(lp5431
g5422
a(lp5432
S'practice'
p5433
aS'it'
p5434
aS'over'
p5435
aS'and'
p5436
aS'over'
p5437
aaa(lp5438
g5422
a(lp5439
S'in'
p5440
ag162
aS'demo'
p5441
aS'style'
p5442
aaa(lp5443
g5422
a(lp5444
S'that'
p5445
aS'its'
p5446
ag162
aS'real'
p5447
aS'nice'
p5448
aaa(lp5449
g5422
a(lp5450
S'its'
p5451
aS'about'
p5452
aS'as'
p5453
aS'good'
p5454
aS'as'
p5455
aS'you'
p5456
aS'can'
p5457
aS'get'
p5458
ag162
aS'Makikomi'
p5459
aS'for'
p5460
aS'your'
p5461
aS'uke'
p5462
aaa(lp5463
g5422
a(lp5464
S'Its'
p5465
aS'really'
p5466
aS'not'
p5467
aS'that'
p5468
aS'bad'
p5469
aaa(lp5470
S'NICKThrow'
p5471
a(lp5472
g13
aS'him'
p5473
ag13
aaa(lp5474
g5471
a(lp5475
S'and'
p5476
aS'let'
p5477
aS'him'
p5478
aS'see'
p5479
aaa(lp5480
S'JEDAlright'
p5481
a(lp5482
aa(lp5483
g5481
a(lp5484
S'Alright'
p5485
aaa(lp5486
g5481
a(lp5487
g2668
aS'so'
p5488
aS'were'
p5489
aS'coming'
p5490
aS'over'
p5491
aS'like'
p5492
aS'this'
p5493
aaa(lp5494
g5481
a(lp5495
S'coming'
p5496
aS'in'
p5497
aS'like'
p5498
aS'this'
p5499
aaa(lp5500
S'X'
p5501
a(lp5502
aa(lp5503
S'JED'
p5504
a(lp5505
S'alright'
p5506
aaa(lp5507
S'NICKNice'
p5508
a(lp5509
S'easy'
p5510
aS'clean'
p5511
aS'fall'
p5512
aaa(lp5513
g5508
a(lp5514
S'Look'
p5515
aS'how'
p5516
aS'tight'
p5517
aS'he'
p5518
aS'is'
p5519
aS'to'
p5520
aS'my'
p5521
aS'chest'
p5522
aaa(lp5523
g5508
a(lp5524
S'Look'
p5525
aS'at'
p5526
aS'his'
p5527
aS'body'
p5528
aS'position'
p5529
aS'right'
p5530
aS'here'
p5531
aaa(lp5532
g5508
a(lp5533
S'There'
p5534
aS'is'
p5535
aS'no'
p5536
aaa(lp5537
g5508
a(lp5538
S'You'
p5539
aS'couldnt'
p5540
aS'slide'
p5541
ag162
aS'postcard'
p5542
aS'between'
p5543
aS'us'
p5544
aaa(lp5545
S'BENTON'
p5546
a(lp5547
g13
ag55
aS'dont'
p5548
aS'think'
p5549
aS'youd'
p5550
aS'even'
p5551
aS'do'
p5552
aS'it'
p5553
aS'between'
p5554
aS'the'
p5555
aS'hip'
p5556
ag13
aaa(lp5557
g5546
a(lp5558
S'to'
p5559
aS'to'
p5560
ag13
aS'get'
p5561
ag13
aS'the'
p5562
aS'hips'
p5563
aaa(lp5564
S'JED'
p5565
a(lp5566
S'Well'
p5567
aS'do'
p5568
aS'you'
p5569
aS'wanna'
p5570
aS'do'
p5571
aS'one'
p5572
aS'more'
p5573
aaa(lp5574
S'NICK'
p5575
a(lp5576
S'Yeah'
p5577
aaa(lp5578
g5575
a(lp5579
S'show'
p5580
aS'him'
p5581
aS'again'
p5582
aaa.