(lp0
(lp1
S'JEFF'
p2
a(lp3
S'We'
p4
aS'often'
p5
aS'meditate'
p6
aaa(lp7
g2
a(lp8
S'I'
p9
aS'think'
p10
aaa(lp11
g2
a(lp12
S'on'
p13
aS'the'
p14
aS'love'
p15
aS'of'
p16
aS'Christ'
p17
aaa(lp18
g2
a(lp19
S'and'
p20
aS'there'
p21
aS'are'
p22
aS'many'
p23
aS'ways'
p24
aS'to'
p25
aS'do'
p26
aS'it'
p27
aaa(lp28
g2
a(lp29
S'and'
p30
aS'those'
p31
aS'who'
p32
aS'have'
p33
aS'meditated'
p34
aS'on'
p35
aS'the'
p36
aS'love'
p37
aS'of'
p38
aS'Christ'
p39
aaa(lp40
g2
a(lp41
S'have'
p42
aS'often'
p43
aS'done'
p44
aS'so'
p45
aaa(lp46
g2
a(lp47
S'in'
p48
aS'terms'
p49
aS'of'
p50
aS'the'
p51
aS'cross'
p52
aS'itself'
p53
aaa(lp54
g2
a(lp55
S'have'
p56
aS'imagined'
p57
aS'again'
p58
aS'and'
p59
aS'afresh'
p60
aaa(lp61
g2
a(lp62
S'uh'
p63
aaa(lp64
g2
a(lp65
S'his'
p66
aS'uh'
p67
aS'bleeding'
p68
aS'wounds'
p69
aaa(lp70
g2
a(lp71
S'uh'
p72
aS'see'
p73
aS'him'
p74
aS'as'
p75
aS'he'
p76
aS'died'
p77
aS'on'
p78
aS'the'
p79
aS'cross'
p80
aaa(lp81
g2
a(lp82
S'but'
p83
aaa(lp84
S'AUD'
p85
a(lp86
aa(lp87
S'JEFF'
p88
a(lp89
S'wherever'
p90
aS'we'
p91
aS'turn'
p92
aaa(lp93
g88
a(lp94
S'uh'
p95
aS'in'
p96
aS'considering'
p97
aS'the'
p98
aS'love'
p99
aS'of'
p100
aS'Christ'
p101
aaa(lp102
g88
a(lp103
S'we'
p104
aS'turn'
p105
aS'always'
p106
aS'to'
p107
aS'the'
p108
aS'Gospel'
p109
aS'records'
p110
aaa(lp111
g88
a(lp112
S'dont'
p113
aS'we'
p114
aaa(lp115
g88
a(lp116
S'We'
p117
aS'we'
p118
aS'turn'
p119
aS'to'
p120
aS'the'
p121
aS'Word'
p122
aS'of'
p123
aS'God'
p124
aaa(lp125
g88
a(lp126
S'We'
p127
aS'turn'
p128
aS'to'
p129
aS'the'
p130
aS'real'
p131
aS'Jesus'
p132
aaa(lp133
g88
a(lp134
S'as'
p135
aS'hes'
p136
aS'described'
p137
aaa(lp138
g88
a(lp139
S'And'
p140
aS'uh'
p141
aaa(lp142
g88
a(lp143
S'There'
p144
aS'there'
p145
aS'is'
p146
aS'where'
p147
aS'our'
p148
aS'meditation'
p149
aS'always'
p150
aS'centers'
p151
aaa(lp152
S'AUD'
p153
a(lp154
aa(lp155
S'JEFF'
p156
a(lp157
S'That'
p158
aS'we'
p159
aS'might'
p160
aS'know'
p161
aS'him'
p162
aaa(lp163
g156
a(lp164
S'of'
p165
aS'his'
p166
aS'love'
p167
aaa(lp168
g156
a(lp169
S'And'
p170
aS'not'
p171
aS'only'
p172
aS'hear'
p173
aS'him'
p174
aS'as'
p175
aS'he'
p176
aS'cries'
p177
aaa(lp178
g156
a(lp179
S'why'
p180
aS'have'
p181
aS'you'
p182
aS'forsaken'
p183
aS'me'
p184
aaa(lp185
g156
a(lp186
S'but'
p187
aS'uh'
p188
aaa(lp189
g156
a(lp190
S'see'
p191
aS'him'
p192
aS'also'
p193
aaa(lp194
g156
a(lp195
S'in'
p196
aS'his'
p197
aS'seeking'
p198
aS'love'
p199
aaa(lp200
g156
a(lp201
S'as'
p202
aS'the'
p203
aS'risen'
p204
aS'Lord'
p205
aaa(lp206
g156
a(lp207
S'Uh'
p208
aS'see'
p209
aS'him'
p210
aS'uh'
p211
aaa(lp212
g156
a(lp213
S'with'
p214
aS'that'
p215
aS'fish'
p216
aS'breakfast'
p217
aaa(lp218
g156
a(lp219
S'by'
p220
aS'the'
p221
aS'Lake'
p222
aS'of'
p223
aS'Galilee'
p224
aaa(lp225
g156
a(lp226
S'Broiling'
p227
aS'fish'
p228
aaa(lp229
g156
a(lp230
S'Dont'
p231
aS'you'
p232
aS'like'
p233
aS'that'
p234
aaa(lp235
g156
a(lp236
S'You'
p237
aS'know'
p238
aS'he'
p239
aS'had'
p240
aS'that'
p241
aS'uh'
p242
aaa(lp243
g156
a(lp244
S'he'
p245
aS'had'
p246
aS'that'
p247
aS'breakfast'
p248
aS'all'
p249
aS'cooking'
p250
aaa(lp251
g156
a(lp252
S'While'
p253
aS'the'
p254
aS'disciples'
p255
aS'were'
p256
aS'still'
p257
aS'out'
p258
aS'in'
p259
aS'the'
p260
aS'boat'
p261
aaa(lp262
g156
a(lp263
S'And'
p264
aS'then'
p265
aS'uh'
p266
aaa(lp267
g156
a(lp268
S'of'
p269
aS'course'
p270
aS'he'
p271
aS'has'
p272
aS'a'
p273
aS'special'
p274
aS'interview'
p275
aS'with'
p276
aS'Peter'
p277
aaa(lp278
g156
a(lp279
S'Not'
p280
aS'the'
p281
aS'first'
p282
aS'time'
p283
aS'hed'
p284
aS'seen'
p285
aS'him'
p286
aaa(lp287
g156
a(lp288
S'he'
p289
aS'made'
p290
ag273
aS'special'
p291
aS'resurrection'
p292
aS'appearance'
p293
aaa(lp294
g156
a(lp295
S'uh'
p296
aS'to'
p297
aS'Peter'
p298
aaa(lp299
g156
a(lp300
S'But'
p301
aS'uh'
p302
aaa(lp303
g156
a(lp304
S'there'
p305
aS'in'
p306
aS'the'
p307
aS'morning'
p308
aaa(lp309
g156
a(lp310
S'early'
p311
aS'morning'
p312
aaa(lp313
g156
a(lp314
S'in'
p315
aS'the'
p316
aS'Lake'
p317
aS'of'
p318
aS'Galilee'
p319
aaa(lp320
g156
a(lp321
S'And'
p322
aS'there'
p323
aS'are'
p324
aS'cocks'
p325
aS'crowing'
p326
aS'in'
p327
aS'the'
p328
aS'distance'
p329
aaa(lp330
g156
a(lp331
S'And'
p332
aS'Jesus'
p333
aS'says'
p334
aS'to'
p335
aS'Peter'
p336
aaa(lp337
g156
a(lp338
S'do'
p339
aS'you'
p340
aS'love'
p341
aS'me'
p342
aaa(lp343
g156
a(lp344
S'more'
p345
aS'than'
p346
aS'these'
p347
aaa(lp348
g156
a(lp349
S'Simon'
p350
aaa(lp351
g156
a(lp352
S'son'
p353
aS'of'
p354
aS'Jonah'
p355
aaa(lp356
g156
a(lp357
S'do'
p358
aS'you'
p359
aS'love'
p360
aS'me'
p361
aaa(lp362
g156
a(lp363
S'more'
p364
aS'than'
p365
aS'these'
p366
aaa(lp367
g156
a(lp368
S'Three'
p369
aS'times'
p370
aS'the'
p371
aS'question'
p372
aaa(lp373
S'AUD'
p374
a(lp375
aa(lp376
S'JEFF'
p377
a(lp378
S'Because'
p379
aaa(lp380
g377
a(lp381
S'you'
p382
aS'see'
p383
aaa(lp384
g377
a(lp385
S'as'
p386
aS'uh'
p387
aS'we'
p388
aS'were'
p389
aS'saying'
p390
ag273
aS'bit'
p391
aS'ago'
p392
aaa(lp393
g377
a(lp394
S'the'
p395
aS'love'
p396
aS'and'
p397
aS'the'
p398
aS'service'
p399
aS'go'
p400
aS'together'
p401
aaa(lp402
g377
a(lp403
S'Dont'
p404
aS'they'
p405
aaa(lp406
g377
a(lp407
S'If'
p408
aS'Peter'
p409
aS'is'
p410
aS'to'
p411
aS'be'
p412
aS'restored'
p413
aS'in'
p414
aS'service'
p415
aaa(lp416
g377
a(lp417
S'he'
p418
aS'has'
p419
aS'to'
p420
aS'be'
p421
aS'restored'
p422
aS'in'
p423
aS'love'
p424
aaa(lp425
g377
a(lp426
S'And'
p427
aS'when'
p428
aS'Peter'
p429
aS'says'
p430
aaa(lp431
g377
a(lp432
S'uh'
p433
aaa(lp434
g377
a(lp435
g9
aS'love'
p436
aS'you'
p437
aaa(lp438
g377
a(lp439
S'then'
p440
aS'Jesus'
p441
aS'says'
p442
aaa(lp443
g377
a(lp444
S'uh'
p445
aaa(lp446
g377
a(lp447
S'feed'
p448
aS'my'
p449
aS'sheep'
p450
aaa(lp451
g377
a(lp452
S'tend'
p453
aS'my'
p454
aS'lambs'
p455
aaa(lp456
g377
a(lp457
S'care'
p458
aS'for'
p459
aS'my'
p460
aS'little'
p461
aS'ones'
p462
aaa(lp463
g377
a(lp464
S'We'
p465
aaa(lp466
g377
a(lp467
S'we'
p468
aS'cant'
p469
aS'love'
p470
aS'others'
p471
aaa(lp472
g377
a(lp473
S'in'
p474
aS'the'
p475
aS'name'
p476
aS'of'
p477
aS'Christ'
p478
aaa(lp479
g377
a(lp480
S'unless'
p481
aS'the'
p482
aS'love'
p483
aS'for'
p484
aS'others'
p485
aS'is'
p486
ag273
aS'overflow'
p487
aaa(lp488
g377
a(lp489
S'of'
p490
aS'our'
p491
aS'love'
p492
aS'for'
p493
aS'the'
p494
aS'Lord'
p495
aS'himself'
p496
aaa(lp497
g377
a(lp498
S'The'
p499
aS'people'
p500
aS'that'
p501
aS'were'
p502
aS'called'
p503
aS'to'
p504
aS'love'
p505
aaa(lp506
g377
a(lp507
S'are'
p508
aS'unfortunately'
p509
aaa(lp510
g377
a(lp511
S'not'
p512
aaa(lp513
g377
a(lp514
S'uh'
p515
aaa(lp516
g377
a(lp517
S'warrantably'
p518
aS'lovable'
p519
aaa(lp520
g377
a(lp521
S'We'
p522
aS'uh'
p523
aaa(lp524
g377
a(lp525
S'The'
p526
aS'source'
p527
aS'of'
p528
aS'our'
p529
aS'love'
p530
aaa(lp531
g377
a(lp532
S'is'
p533
aS'not'
p534
aS'how'
p535
aS'appealing'
p536
aS'they'
p537
aS'are'
p538
aaa(lp539
g377
a(lp540
S'although'
p541
aaa(lp542
g377
a(lp543
S'we'
p544
aS'can'
p545
aS'praise'
p546
aS'God'
p547
aS'for'
p548
aS'his'
p549
aS'image'
p550
aS'in'
p551
aS'them'
p552
aaa(lp553
g377
a(lp554
S'and'
p555
aS'rejoice'
p556
aS'in'
p557
aS'the'
p558
aS'many'
p559
aS'SM'
p560
aS'evidences'
p561
aS'of'
p562
aS'Gods'
p563
aS'common'
p564
aS'grace'
p565
aS'in'
p566
aS'their'
p567
aS'lives'
p568
aS'SM'
p569
aaa(lp570
g377
a(lp571
S'but'
p572
aaa(lp573
g377
a(lp574
S'nevertheless'
p575
aaa(lp576
g377
a(lp577
S'uh'
p578
aS'basically'
p579
aaa(lp580
g377
a(lp581
S'the'
p582
aS'the'
p583
aS'fountain'
p584
aS'of'
p585
aS'our'
p586
aS'love'
p587
aaa(lp588
g377
a(lp589
S'i'
p590
aS'is'
p591
aS'uh'
p592
aaa(lp593
g377
a(lp594
S'the'
p595
aS'seeking'
p596
aS'love'
p597
aS'of'
p598
aS'the'
p599
aS'savior'
p600
aaa(lp601
g377
a(lp602
S'The'
p603
aS'selfdenying'
p604
aS'love'
p605
aaa(lp606
g377
a(lp607
S'That'
p608
aS'is'
p609
aS'uh'
p610
aS'willing'
p611
aS'to'
p612
aS'serve'
p613
aS'in'
p614
aS'his'
p615
aS'name'
p616
aaa(lp617
g377
a(lp618
S'Do'
p619
aS'you'
p620
aS'love'
p621
aS'me'
p622
aaa(lp623
g377
a(lp624
S'You'
p625
aS'know'
p626
aaa(lp627
g377
a(lp628
S'Jesus'
p629
aS'didnt'
p630
aS'ask'
p631
aS'Peter'
p632
aS'those'
p633
aS'questions'
p634
aaa(lp635
g377
a(lp636
S'to'
p637
aS'undercut'
p638
aS'his'
p639
aS'love'
p640
aaa(lp641
g377
a(lp642
S'or'
p643
aS'his'
p644
aS'faith'
p645
aaa(lp646
g377
a(lp647
S'He'
p648
aS'asked'
p649
aS'those'
p650
aS'questions'
p651
aS'to'
p652
aS'establish'
p653
aS'it'
p654
aaa(lp655
g377
a(lp656
S'And'
p657
aS'uh'
p658
aS'Jesus'
p659
aS'does'
p660
aS'the'
p661
aS'same'
p662
aS'with'
p663
aS'you'
p664
aaa(lp665
g377
a(lp666
S'my'
p667
aS'friend'
p668
aaa(lp669
g377
a(lp670
S'he'
p671
aS'does'
p672
aS'the'
p673
aS'same'
p674
aaa(lp675
g377
a(lp676
S'He'
p677
aS'does'
p678
aS'ask'
p679
aS'you'
p680
aaa(lp681
g377
a(lp682
S'this'
p683
aS'morning'
p684
aaa(lp685
g377
a(lp686
S'do'
p687
aS'you'
p688
aS'love'
p689
aS'me'
p690
aaa(lp691
g377
a(lp692
S'Do'
p693
aS'you'
p694
aS'really'
p695
aS'love'
p696
aS'me'
p697
aaa(lp698
g377
a(lp699
S'But'
p700
aS'he'
p701
aS'asks'
p702
aS'it'
p703
aaa(lp704
g377
a(lp705
S'in'
p706
aS'order'
p707
aS'that'
p708
aS'youll'
p709
aS'be'
p710
aS'able'
p711
aS'to'
p712
aS'say'
p713
aS'at'
p714
aS'last'
p715
aS'with'
p716
aS'Peter'
p717
aaa(lp718
g377
a(lp719
S'Lord'
p720
aaa(lp721
g377
a(lp722
S'you'
p723
aS'know'
p724
aS'everything'
p725
aaa(lp726
g377
a(lp727
S'You'
p728
aS'know'
p729
aS'my'
p730
aS'heart'
p731
aaa(lp732
g377
a(lp733
S'And'
p734
aS'Lord'
p735
aS'you'
p736
aS'know'
p737
aS'that'
p738
aS'in'
p739
aS'spite'
p740
aS'of'
p741
aS'everything'
p742
aaa(lp743
g377
a(lp744
S'yes'
p745
aS'Lord'
p746
ag9
aS'do'
p747
aS'love'
p748
aS'you'
p749
aaa(lp750
g377
a(lp751
S'Well'
p752
aaa(lp753
g377
a(lp754
S'the'
p755
aS'saving'
p756
aS'love'
p757
aS'of'
p758
aS'uh'
p759
aS'the'
p760
aS'Father'
p761
aaa(lp762
g377
a(lp763
S'and'
p764
aS'the'
p765
aS'Son'
p766
aaa(lp767
g377
a(lp768
S'is'
p769
aS'also'
p770
aS'the'
p771
aS'saving'
p772
aS'love'
p773
aS'of'
p774
aS'the'
p775
aS'Spirit'
p776
aaa(lp777
g377
a(lp778
S'and'
p779
aS'thats'
p780
aS'why'
p781
ag9
aS'read'
p782
aS'that'
p783
aS'section'
p784
aS'from'
p785
aS'Romans'
p786
aS'eight'
p787
aaa(lp788
g377
a(lp789
S'Uh'
p790
aS'you'
p791
aS'see'
p792
aaa(lp793
g377
a(lp794
S'Gods'
p795
aS'love'
p796
aS'is'
p797
aS'is'
p798
aS'present'
p799
aS'in'
p800
aS'the'
p801
aS'Spirit'
p802
aaa(lp803
g377
a(lp804
S'There'
p805
aS'theres'
p806
ag273
aS'wonderful'
p807
aS'theology'
p808
aS'of'
p809
aS'the'
p810
aS'Spirit'
p811
aaa(lp812
g377
a(lp813
S'in'
p814
aS'uh'
p815
aaa(lp816
g377
a(lp817
S'in'
p818
aS'the'
p819
aS'Scriptures'
p820
aaa(lp821
g377
a(lp822
S'Especially'
p823
aS'of'
p824
aS'course'
p825
aS'in'
p826
aS'the'
p827
aS'New'
p828
aS'Testament'
p829
aaa(lp830
g377
a(lp831
S'Um'
p832
aaa(lp833
g377
a(lp834
S'Bultmann'
p835
aaa(lp836
g377
a(lp837
S'in'
p838
aS'his'
p839
aS'uh'
p840
aS'commentary'
p841
aS'on'
p842
aS'uh'
p843
aS'Romans'
p844
aS'eight'
p845
aaa(lp846
g377
a(lp847
S'uh'
p848
aaa(lp849
g377
a(lp850
S'talks'
p851
aS'about'
p852
aaa(lp853
g377
a(lp854
S'uh'
p855
aaa(lp856
g377
a(lp857
S'the'
p858
aS'two'
p859
aS'ways'
p860
aS'in'
p861
aS'which'
p862
aS'the'
p863
aS'Spirit'
p864
ag590
aS'is'
p865
aS'spoken'
p866
aS'of'
p867
aaa(lp868
g377
a(lp869
S'And'
p870
aS'uh'
p871
aaa(lp872
g377
a(lp873
S'h'
p874
aS'he'
p875
aS'unfortunately'
p876
aS'uses'
p877
aS'anthropological'
p878
aS'terms'
p879
aS'to'
p880
aS'describe'
p881
aS'it'
p882
aaa(lp883
g377
a(lp884
S'uh'
p885
aaa(lp886
g377
a(lp887
S'he'
p888
aS'talks'
p889
aS'about'
p890
aS'uh'
p891
aaa(lp892
g377
a(lp893
S'the'
p894
aS'the'
p895
aS'the'
p896
aS'Spirit'
p897
aS'in'
p898
aS'uh'
p899
aaa(lp900
g377
a(lp901
S'the'
p902
aS'sense'
p903
aS'of'
p904
aS'mana'
p905
aaa(lp906
g377
a(lp907
S'as'
p908
aS'in'
p909
aS'uh'
p910
aS'animism'
p911
aaa(lp912
g377
a(lp913
S'where'
p914
aS'the'
p915
aS'spirit'
p916
aaa(lp917
g377
a(lp918
S'you'
p919
aS'have'
p920
ag273
aS'spirit'
p921
aS'of'
p922
aS'of'
p923
ag273
aS'tree'
p924
aaa(lp925
g377
a(lp926
S'or'
p927
ag273
ag273
aS'stone'
p928
aaa(lp929
g377
a(lp930
S'or'
p931
aS'something'
p932
aS'like'
p933
aS'that'
p934
aaa(lp935
g377
a(lp936
S'and'
p937
aS'then'
p938
aS'you'
p939
aS'have'
p940
aS'the'
p941
aS'more'
p942
aS'personal'
p943
aS'concept'
p944
aS'of'
p945
aS'the'
p946
aS'Spirit'
p947
aaa(lp948
g377
a(lp949
S'uh'
p950
aS'uh'
p951
aaa(lp952
g377
a(lp953
S'both'
p954
aS'an'
p955
aS'impersonal'
p956
aS'and'
p957
ag273
aS'personal'
p958
aS'concept'
p959
aS'of'
p960
aS'the'
p961
aS'Spirit'
p962
aaa(lp963
g377
a(lp964
S'Now'
p965
aaa(lp966
g377
a(lp967
g9
aS'd'
p968
ag9
aS'dont'
p969
aS'care'
p970
aS'for'
p971
aS'his'
p972
aS'analogy'
p973
aaa(lp974
g377
a(lp975
S'but'
p976
aS'uh'
p977
aS'the'
p978
aS'point'
p979
aS'is'
p980
aS'well'
p981
aS'taken'
p982
aaa(lp983
g377
a(lp984
S'Uh'
p985
aaa(lp986
g377
a(lp987
S'the'
p988
aS'point'
p989
aS'is'
p990
aS'that'
p991
aS'Paul'
p992
aS'does'
p993
aS'speak'
p994
aS'of'
p995
aS'the'
p996
aS'Spirit'
p997
aaa(lp998
g377
a(lp999
S'both'
p1000
aS'as'
p1001
aS'possessor'
p1002
aaa(lp1003
g377
a(lp1004
S'and'
p1005
aS'as'
p1006
aS'possessed'
p1007
aaa(lp1008
g377
a(lp1009
S'You'
p1010
aS'see'
p1011
aaa(lp1012
g377
a(lp1013
S'the'
p1014
aS'Spirit'
p1015
aS'possesses'
p1016
aS'us'
p1017
aaa(lp1018
g377
a(lp1019
S'Uh'
p1020
aaa(lp1021
g377
a(lp1022
S'as'
p1023
aS'Christians'
p1024
aaa(lp1025
g377
a(lp1026
S'we'
p1027
aS'are'
p1028
aS'not'
p1029
aS'demon'
p1030
aS'possessed'
p1031
aaa(lp1032
g377
a(lp1033
S'we'
p1034
aS'are'
p1035
aS'Holy'
p1036
aS'Spirit'
p1037
aS'possessed'
p1038
aaa(lp1039
g377
a(lp1040
S'And'
p1041
aS'uh'
p1042
aaa(lp1043
g377
a(lp1044
S'Holy'
p1045
aS'Spirit'
p1046
aS'possession'
p1047
aaa(lp1048
g377
a(lp1049
S'has'
p1050
ag273
aS'close'
p1051
aS'relationship'
p1052
aS'to'
p1053
aS'demon'
p1054
aS'possession'
p1055
aaa(lp1056
g377
a(lp1057
S'uh'
p1058
aaa(lp1059
g377
a(lp1060
S'the'
p1061
aS'close'
p1062
aS'relationship'
p1063
aS'is'
p1064
aS'what'
p1065
aS'makes'
p1066
aS'it'
p1067
aS'so'
p1068
aS'different'
p1069
aaa(lp1070
g377
a(lp1071
S'You'
p1072
aS'see'
p1073
aaa(lp1074
g377
a(lp1075
S'uh'
p1076
aS'demon'
p1077
aS'possession'
p1078
aS'is'
p1079
aS'always'
p1080
aS'destructive'
p1081
aaa(lp1082
g377
a(lp1083
S'because'
p1084
aS'uh'
p1085
aS'Satan'
p1086
aS'cant'
p1087
aS'create'
p1088
aaa(lp1089
g377
a(lp1090
S'And'
p1091
aS'the'
p1092
aS'demonpossessed'
p1093
aS'man'
p1094
aS'in'
p1095
aS'Gadare'
p1096
aaa(lp1097
g377
a(lp1098
S'Remember'
p1099
aaa(lp1100
g377
a(lp1101
S'uh'
p1102
aS'he'
p1103
aS'couldnt'
p1104
aS'even'
p1105
aS'give'
p1106
aS'his'
p1107
aS'name'
p1108
aaa(lp1109
g377
a(lp1110
S'When'
p1111
aS'Jesus'
p1112
aS'asked'
p1113
aS'him'
p1114
aS'what'
p1115
aS'his'
p1116
aS'name'
p1117
aS'was'
p1118
aaa(lp1119
g377
a(lp1120
S'Uh'
p1121
aS'he'
p1122
aaa(lp1123
g377
a(lp1124
S'His'
p1125
aS'personality'
p1126
aS'was'
p1127
aS'destroyed'
p1128
aaa(lp1129
g377
a(lp1130
S'You'
p1131
aS'know'
p1132
aS'how'
p1133
aS'C'
p1134
aS'S'
p1135
aS'Lewis'
p1136
aS'has'
p1137
aS'done'
p1138
aS'that'
p1139
aS'in'
p1140
aS'his'
p1141
aS'uh'
p1142
aaa(lp1143
g377
a(lp1144
S'uh'
p1145
aS'adult'
p1146
aS'novels'
p1147
aaa(lp1148
g377
a(lp1149
S'Uh'
p1150
aaa(lp1151
g377
a(lp1152
S'uh'
p1153
aS'but'
p1154
aS'uh'
p1155
aaa(lp1156
g377
a(lp1157
S'there'
p1158
aS'it'
p1159
aS'is'
p1160
aaa(lp1161
g377
a(lp1162
g1135
aS'emon'
p1163
aS'possession'
p1164
aS'is'
p1165
aS'personality'
p1166
aS'destructive'
p1167
aaa(lp1168
g377
a(lp1169
S'It'
p1170
aS'depersonalizes'
p1171
aaa(lp1172
g377
a(lp1173
S'because'
p1174
aS'uh'
p1175
aS'Satan'
p1176
aS'can'
p1177
aS'only'
p1178
aS'corrode'
p1179
aaa(lp1180
g377
a(lp1181
S'he'
p1182
aS'cant'
p1183
aS'create'
p1184
aaa(lp1185
g377
a(lp1186
S'He'
p1187
aS'can'
p1188
aS'only'
p1189
aS'destroy'
p1190
aaa(lp1191
g377
a(lp1192
S'But'
p1193
aaa(lp1194
g377
a(lp1195
S'Holy'
p1196
aS'Spirit'
p1197
aS'POUND'
p1198
aS'possession'
p1199
aaa(lp1200
g377
a(lp1201
S'is'
p1202
aS'no'
p1203
aS'less'
p1204
aS'real'
p1205
aS'possession'
p1206
aaa(lp1207
g377
a(lp1208
S'only'
p1209
aaa(lp1210
g377
a(lp1211
S'it'
p1212
aS'has'
p1213
aS'the'
p1214
aS'opposite'
p1215
aS'effect'
p1216
aaa(lp1217
g377
a(lp1218
S'The'
p1219
aS'Holy'
p1220
aS'Spirit'
p1221
aaa(lp1222
g377
a(lp1223
S'you'
p1224
aS'see'
p1225
aaa(lp1226
g377
a(lp1227
S'is'
p1228
aS'the'
p1229
aS'creator'
p1230
aS'Spirit'
p1231
aaa(lp1232
g377
a(lp1233
S'who'
p1234
aS'brought'
p1235
aS'uh'
p1236
aS'order'
p1237
aS'out'
p1238
aS'POUND'
p1239
aS'of'
p1240
aS'chaos'
p1241
aaa(lp1242
g377
a(lp1243
S'the'
p1244
aS'Holy'
p1245
aS'Spirit'
p1246
aS'is'
p1247
aS'the'
p1248
aS'one'
p1249
aS'who'
p1250
aS'orders'
p1251
aaa(lp1252
g377
a(lp1253
S'the'
p1254
aS'Holy'
p1255
aS'Spirit'
p1256
aS'is'
p1257
aS'the'
p1258
aS'one'
p1259
aS'who'
p1260
aS'frees'
p1261
aaa(lp1262
g377
a(lp1263
S'uh'
p1264
aS'liberates'
p1265
aaa(lp1266
g377
a(lp1267
S'uh'
p1268
aS'the'
p1269
aaa(lp1270
g377
a(lp1271
S'uh'
p1272
aS'the'
p1273
aS'the'
p1274
aS'the'
p1275
aS'Gadarene'
p1276
aS'demoniac'
p1277
aS'thought'
p1278
aS'he'
p1279
aS'was'
p1280
aS'free'
p1281
aaa(lp1282
g377
a(lp1283
S'because'
p1284
aS'nobody'
p1285
aS'could'
p1286
aS'tie'
p1287
aS'him'
p1288
aS'up'
p1289
aaa(lp1290
g377
a(lp1291
S'you'
p1292
aS'see'
p1293
aaa(lp1294
S'AUD'
p1295
a(lp1296
aa(lp1297
S'JEFFhe'
p1298
a(lp1299
S'could'
p1300
aS'go'
p1301
aS'anywhere'
p1302
aaa(lp1303
g1298
a(lp1304
S'do'
p1305
aS'anything'
p1306
aaa(lp1307
g1298
a(lp1308
S'uh'
p1309
aS'absolute'
p1310
aS'freedom'
p1311
aaa(lp1312
g1298
a(lp1313
S'Right'
p1314
aaa(lp1315
g1298
a(lp1316
S'and'
p1317
aS'he'
p1318
aS'could'
p1319
aS'treat'
p1320
aS'people'
p1321
aaa(lp1322
g1298
a(lp1323
S'he'
p1324
aS'hi'
p1325
aS'he'
p1326
aS'didnt'
p1327
aS'have'
p1328
aS'to'
p1329
aS'dress'
p1330
aS'any'
p1331
aS'particular'
p1332
aS'way'
p1333
aaa(lp1334
g1298
a(lp1335
S'no'
p1336
aS'dress'
p1337
aS'code'
p1338
aaa(lp1339
g1298
a(lp1340
S'and'
p1341
aS'so'
p1342
aS'he'
p1343
aS'stripped'
p1344
aS'it'
p1345
aS'all'
p1346
aS'off'
p1347
aaa(lp1348
g1298
a(lp1349
S'And'
p1350
aS'the'
p1351
aS'he'
p1352
aS'uh'
p1353
aaa(lp1354
g1298
a(lp1355
S'he'
p1356
aS'could'
p1357
aS'uh'
p1358
ag968
aS'treat'
p1359
aS'people'
p1360
aS'any'
p1361
aS'way'
p1362
aS'he'
p1363
aS'wanted'
p1364
aS'to'
p1365
aaa(lp1366
g1298
a(lp1367
S'so'
p1368
aS'whenever'
p1369
aS'they'
p1370
aS'came'
p1371
aS'by'
p1372
aaa(lp1373
g1298
a(lp1374
S'he'
p1375
aS'beat'
p1376
aS'them'
p1377
aS'up'
p1378
aaa(lp1379
g1298
a(lp1380
S'And'
p1381
aS'uh'
p1382
aaa(lp1383
S'AUD'
p1384
a(lp1385
aa(lp1386
S'JEFF'
p1387
a(lp1388
S'and'
p1389
aS'uh'
p1390
aS'then'
p1391
aaa(lp1392
g1387
a(lp1393
S'if'
p1394
aS'there'
p1395
aS'was'
p1396
aS'nobody'
p1397
aS'handy'
p1398
aS'to'
p1399
aS'beat'
p1400
aS'up'
p1401
aaa(lp1402
g1387
a(lp1403
S'he'
p1404
aS'picked'
p1405
aS'up'
p1406
ag273
aS'stone'
p1407
aaa(lp1408
g1387
a(lp1409
S'and'
p1410
aS'uh'
p1411
aS'tore'
p1412
aS'his'
p1413
aS'own'
p1414
aS'flesh'
p1415
aS'apart'
p1416
aaa(lp1417
g1387
a(lp1418
S'Theres'
p1419
aS'demonic'
p1420
aS'liberty'
p1421
aaa(lp1422
g1387
a(lp1423
S'But'
p1424
aS'uh'
p1425
aaa(lp1426
g1387
a(lp1427
S'Holy'
p1428
aS'Spirit'
p1429
aS'liberty'
p1430
aS'doesnt'
p1431
aS'work'
p1432
aS'that'
p1433
aS'way'
p1434
aaa(lp1435
g1387
a(lp1436
S'See'
p1437
aaa(lp1438
g1387
a(lp1439
S'Uh'
p1440
aaa(lp1441
g1387
a(lp1442
S'uh'
p1443
aS'now'
p1444
aS'm'
p1445
aaa(lp1446
g1387
a(lp1447
S'youll'
p1448
aS'accuse'
p1449
aS'me'
p1450
aS'of'
p1451
aS'thinking'
p1452
aS'uh'
p1453
aS'of'
p1454
aS'Holy'
p1455
aS'Spirit'
p1456
aS'liberty'
p1457
aaa(lp1458
g1387
a(lp1459
S'in'
p1460
aS'too'
p1461
aS'strictly'
p1462
aS'Presbyterian'
p1463
aS'terms'
p1464
aaa(lp1465
g1387
a(lp1466
S'because'
p1467
aS'uh'
p1468
aaa(lp1469
S'AUD'
p1470
a(lp1471
aa(lp1472
S'JEFF'
p1473
a(lp1474
g9
aS'remind'
p1475
aS'you'
p1476
aaa(lp1477
g1473
a(lp1478
S'that'
p1479
aS'that'
p1480
aS'man'
p1481
aaa(lp1482
g1473
a(lp1483
S'once'
p1484
aS'he'
p1485
aS'was'
p1486
aS'delivered'
p1487
aaa(lp1488
g1473
a(lp1489
S'was'
p1490
aS'seated'
p1491
aS'clothed'
p1492
aaa(lp1493
g1473
a(lp1494
S'and'
p1495
aS'in'
p1496
aS'his'
p1497
aS'right'
p1498
aS'mind'
p1499
aaa(lp1500
S'MANY'
p1501
a(lp1502
aa(lp1503
S'JEFFUh'
p1504
a(lp1505
S'and'
p1506
aaa(lp1507
g1504
a(lp1508
S'And'
p1509
aS'well'
p1510
aS'pass'
p1511
aS'over'
p1512
aS'other'
p1513
aS'uh'
p1514
aS'uh'
p1515
aS'Scriptural'
p1516
aS'accounts'
p1517
aaa(lp1518
S'AUD'
p1519
a(lp1520
aa(lp1521
S'JEFFlike'
p1522
a(lp1523
S'the'
p1524
aS'lame'
p1525
aS'man'
p1526
aS'healed'
p1527
aaa(lp1528
g1522
a(lp1529
S'by'
p1530
aS'the'
p1531
aS'Beautiful'
p1532
aS'Gate'
p1533
aS'at'
p1534
aS'the'
p1535
aS'temple'
p1536
aaa(lp1537
g1522
a(lp1538
S'who'
p1539
aS'went'
p1540
aS'in'
p1541
aS'leaping'
p1542
aS'and'
p1543
aS'dancing'
p1544
aS'and'
p1545
aS'praising'
p1546
aS'the'
p1547
aS'Lord'
p1548
aaa(lp1549
S'MANY'
p1550
a(lp1551
aa(lp1552
S'JEFFSee'
p1553
a(lp1554
S'that'
p1555
aaa(lp1556
g1553
a(lp1557
S'uh'
p1558
aS'thats'
p1559
ag273
aS'little'
p1560
aS'different'
p1561
aaa(lp1562
g1553
a(lp1563
S'but'
p1564
aaa(lp1565
g1553
a(lp1566
S'But'
p1567
aS'uh'
p1568
aS'you'
p1569
aS'Presbyterians'
p1570
aS'want'
p1571
aS'to'
p1572
aS'do'
p1573
aS'everything'
p1574
aS'decently'
p1575
aS'and'
p1576
aS'in'
p1577
aS'order'
p1578
aaa(lp1579
g1553
a(lp1580
S'Uh'
p1581
aS'but'
p1582
aaa(lp1583
g1553
a(lp1584
S'but'
p1585
aS'the'
p1586
aS'Holy'
p1587
aS'Spirit'
p1588
aaa(lp1589
g1553
a(lp1590
S'remember'
p1591
aaa(lp1592
g1553
a(lp1593
S'is'
p1594
aS'the'
p1595
aS'spirit'
p1596
aS'of'
p1597
aS'both'
p1598
aaa(lp1599
g1553
a(lp1600
S'Right'
p1601
aaa(lp1602
g1553
a(lp1603
S'Hes'
p1604
aS'the'
p1605
aS'spirit'
p1606
aS'of'
p1607
aS'order'
p1608
aaa(lp1609
g1553
a(lp1610
S'hes'
p1611
aS'the'
p1612
aS'spirit'
p1613
aS'of'
p1614
aS'ardor'
p1615
aaa(lp1616
g1553
a(lp1617
S'And'
p1618
aS'and'
p1619
aS'the'
p1620
aS'Holy'
p1621
aS'Spirit'
p1622
aaa(lp1623
g1553
a(lp1624
S'uh'
p1625
aS'uh'
p1626
aS's'
p1627
aS'the'
p1628
aS'one'
p1629
aaa(lp1630
g1553
a(lp1631
S'uh'
p1632
aS'who'
p1633
aS'has'
p1634
aS'uh'
p1635
aaa(lp1636
g1553
a(lp1637
S'ordered'
p1638
aS'our'
p1639
aS'lives'
p1640
aaa(lp1641
g1553
a(lp1642
S'And'
p1643
aS'as'
p1644
aS'he'
p1645
aS'possesses'
p1646
aS'us'
p1647
aaa(lp1648
g1553
a(lp1649
S'He'
p1650
aS'orders'
p1651
aS'us'
p1652
aaa(lp1653
g1553
a(lp1654
S'And'
p1655
aS'he'
p1656
aS'gives'
p1657
aS'us'
p1658
aS'the'
p1659
aS'order'
p1660
aS'of'
p1661
aS'love'
p1662
aaa(lp1663
g1553
a(lp1664
S'If'
p1665
aS'you'
p1666
aS'love'
p1667
aS'me'
p1668
aaa(lp1669
g1553
a(lp1670
S'Jesus'
p1671
aS'said'
p1672
aaa(lp1673
g1553
a(lp1674
S'keep'
p1675
aS'my'
p1676
aS'commandments'
p1677
aaa(lp1678
g1553
a(lp1679
S'Uh'
p1680
ag9
aS'wanna'
p1681
aS'say'
p1682
ag273
aS'little'
p1683
aS'bit'
p1684
aS'more'
p1685
aS'about'
p1686
aS'that'
p1687
aS'in'
p1688
ag273
aS'moment'
p1689
aaa(lp1690
g1553
a(lp1691
S'The'
p1692
aS'obedience'
p1693
aS'of'
p1694
aS'love'
p1695
aaa(lp1696
g1553
a(lp1697
S'But'
p1698
aS'the'
p1699
aS'Holy'
p1700
aS'Spirit'
p1701
aS'is'
p1702
aS'the'
p1703
aS'one'
p1704
aS'who'
p1705
aS'orders'
p1706
aS'our'
p1707
aS'lives'
p1708
aaa(lp1709
g1553
a(lp1710
S'uh'
p1711
aaa(lp1712
g1553
a(lp1713
S'ontrols'
p1714
aS'our'
p1715
aS'lives'
p1716
aaa(lp1717
g1553
a(lp1718
S'is'
p1719
aS'in'
p1720
aS'possession'
p1721
aS'of'
p1722
aS'our'
p1723
aS'lives'
p1724
aaa(lp1725
g1553
a(lp1726
S'but'
p1727
aS'the'
p1728
aS'Holy'
p1729
aS'Spirits'
p1730
aS'also'
p1731
aS'given'
p1732
aS'to'
p1733
aS'us'
p1734
aaa(lp1735
g1553
a(lp1736
S'see'
p1737
aaa(lp1738
g1553
a(lp1739
S'hes'
p1740
aS'not'
p1741
aS'only'
p1742
aS'the'
p1743
aS'possessor'
p1744
aaa(lp1745
g1553
a(lp1746
S'hes'
p1747
aS'also'
p1748
aS'the'
p1749
aS'one'
p1750
aS'who'
p1751
aS'is'
p1752
aS'possessed'
p1753
aaa(lp1754
g1553
a(lp1755
S'We'
p1756
aS'possess'
p1757
aS'him'
p1758
aaa(lp1759
g1553
a(lp1760
S'He'
p1761
aS'dwells'
p1762
aS'in'
p1763
aS'our'
p1764
aS'hearts'
p1765
aaa(lp1766
g1553
a(lp1767
S'Uh'
p1768
aaa(lp1769
g1553
a(lp1770
S'we'
p1771
aS'have'
p1772
aS'not'
p1773
aS'only'
p1774
aS'the'
p1775
aS'gifts'
p1776
aS'of'
p1777
aS'the'
p1778
aS'Spirit'
p1779
aaa(lp1780
g1553
a(lp1781
S'in'
p1782
aS'the'
p1783
aS'plural'
p1784
aaa(lp1785
g1553
a(lp1786
S'but'
p1787
aS'we'
p1788
aS'have'
p1789
aS'the'
p1790
aS'gift'
p1791
aS'of'
p1792
aS'the'
p1793
aS'Spirit'
p1794
aaa(lp1795
g1553
a(lp1796
S'We'
p1797
aS'have'
p1798
aS'the'
p1799
aS'Holy'
p1800
aS'Spirit'
p1801
aS'himself'
p1802
aaa(lp1803
g1553
a(lp1804
S'given'
p1805
aS'to'
p1806
aS'us'
p1807
aaa(lp1808
g1553
a(lp1809
S'The'
p1810
aS'promise'
p1811
aS'of'
p1812
aS'the'
p1813
aS'Father'
p1814
aaa(lp1815
g1553
a(lp1816
S'Uh'
p1817
aS'they'
p1818
aS'the'
p1819
aS'disciples'
p1820
aS'were'
p1821
aS'to'
p1822
aS'wait'
p1823
aaa(lp1824
g1553
a(lp1825
S'until'
p1826
aS'that'
p1827
aS'great'
p1828
aS'promise'
p1829
aS'was'
p1830
aS'given'
p1831
aaa(lp1832
g1553
a(lp1833
S'the'
p1834
aS'gift'
p1835
aS'of'
p1836
aS'the'
p1837
aS'Holy'
p1838
aS'Spirit'
p1839
aaa(lp1840
g1553
a(lp1841
S'And'
p1842
aS'so'
p1843
aS'the'
p1844
aS'Holy'
p1845
aS'Spirit'
p1846
aS'given'
p1847
aS'to'
p1848
aS'us'
p1849
aaa(lp1850
g1553
a(lp1851
S'uh'
p1852
aS'f'
p1853
aaa(lp1854
g1553
a(lp1855
S'works'
p1856
aS'in'
p1857
aS'us'
p1858
aaa(lp1859
g1553
a(lp1860
S'Uh'
p1861
aaa(lp1862
g1553
a(lp1863
S'that'
p1864
aS'sense'
p1865
aS'of'
p1866
aS'the'
p1867
aS'presence'
p1868
aS'of'
p1869
aS'Gods'
p1870
aS'love'
p1871
aaa(lp1872
g1553
a(lp1873
S'And'
p1874
aS'thats'
p1875
aS'why'
p1876
aS'uh'
p1877
aS'Paul'
p1878
aS'says'
p1879
aaa(lp1880
g1553
a(lp1881
S'in'
p1882
aS'Romans'
p1883
aS'five'
p1884
aaa(lp1885
g1553
a(lp1886
S'that'
p1887
aS'God'
p1888
aS'pours'
p1889
aS'out'
p1890
aS'his'
p1891
aS'love'
p1892
aS'in'
p1893
aS'our'
p1894
aS'hearts'
p1895
aaa(lp1896
g1553
a(lp1897
S'By'
p1898
aS'the'
p1899
aS'Holy'
p1900
aS'Spirit'
p1901
aaa(lp1902
g1553
a(lp1903
S'Now'
p1904
aaa(lp1905
g1553
a(lp1906
S'there'
p1907
aaa(lp1908
g1553
a(lp1909
S'the'
p1910
aS'love'
p1911
aS'thats'
p1912
aS'poured'
p1913
aS'out'
p1914
aaa(lp1915
g1553
a(lp1916
S'does'
p1917
aS'not'
p1918
aS'describe'
p1919
aS'the'
p1920
aS'love'
p1921
aS'that'
p1922
aS'we'
p1923
aS'have'
p1924
aS'for'
p1925
aS'God'
p1926
aaa(lp1927
g1553
a(lp1928
S'although'
p1929
aS'that'
p1930
aS'is'
p1931
aS'the'
p1932
aS'fruit'
p1933
aS'of'
p1934
aS'the'
p1935
aS'Spirit'
p1936
aS'you'
p1937
aS'know'
p1938
aaa(lp1939
g1553
a(lp1940
S'love'
p1941
aS'joy'
p1942
aS'peace'
p1943
aS'so'
p1944
aS'on'
p1945
aaa(lp1946
g1553
a(lp1947
S'Uh'
p1948
aaa(lp1949
g1553
a(lp1950
S'but'
p1951
aS'n'
p1952
aS'that'
p1953
aS'passage'
p1954
aaa(lp1955
g1553
a(lp1956
S'in'
p1957
aS'Romans'
p1958
aS'five'
p1959
aaa(lp1960
g1553
a(lp1961
S'Paul'
p1962
aS'isnt'
p1963
aS'talking'
p1964
aS'about'
p1965
aS'uh'
p1966
aaa(lp1967
g1553
a(lp1968
S'the'
p1969
aS'gift'
p1970
aS'of'
p1971
aS'love'
p1972
aS'that'
p1973
aS'we'
p1974
aS'have'
p1975
aS'for'
p1976
aS'God'
p1977
aaa(lp1978
g1553
a(lp1979
S'hes'
p1980
aS'talking'
p1981
aS'about'
p1982
aS'the'
p1983
aS'gift'
p1984
aS'of'
p1985
aS'love'
p1986
aS'that'
p1987
aS'God'
p1988
aS'has'
p1989
aS'for'
p1990
aS'us'
p1991
aaa(lp1992
g1553
a(lp1993
S'Because'
p1994
aS'he'
p1995
aS'goes'
p1996
aS'on'
p1997
aS'to'
p1998
aS'describe'
p1999
aS'that'
p2000
aS'love'
p2001
aS'of'
p2002
aS'God'
p2003
aaa(lp2004
g1553
a(lp2005
S'God'
p2006
aS'commends'
p2007
aS'his'
p2008
aS'love'
p2009
aS'toward'
p2010
aS'us'
p2011
aaa(lp2012
g1553
a(lp2013
S'in'
p2014
aS'that'
p2015
aS'while'
p2016
aS'we'
p2017
aS'were'
p2018
aS'yet'
p2019
aS'sinners'
p2020
aS'Christ'
p2021
aS'died'
p2022
aS'for'
p2023
aS'us'
p2024
aaa(lp2025
g1553
a(lp2026
S'So'
p2027
aS'its'
p2028
aS'Gods'
p2029
aS'love'
p2030
aS'for'
p2031
aS'us'
p2032
aaa(lp2033
g1553
a(lp2034
S'thats'
p2035
aS'poured'
p2036
aS'out'
p2037
aS'in'
p2038
aS'our'
p2039
aS'hearts'
p2040
aaa(lp2041
g1553
a(lp2042
S'by'
p2043
aS'the'
p2044
aS'Holy'
p2045
aS'Spirit'
p2046
aS'given'
p2047
aS'to'
p2048
aS'us'
p2049
aaa(lp2050
g1553
a(lp2051
S'Which'
p2052
aS'is'
p2053
aS'uh'
p2054
aaa(lp2055
g1553
a(lp2056
S'again'
p2057
aaa(lp2058
g1553
a(lp2059
S'uh'
p2060
aaa(lp2061
g1553
a(lp2062
g273
aS'wonderful'
p2063
aS'reality'
p2064
aaa(lp2065
g1553
a(lp2066
S'Because'
p2067
aaa(lp2068
g1553
a(lp2069
S'if'
p2070
aS'God'
p2071
aS'didnt'
p2072
aS'do'
p2073
aS'that'
p2074
aaa(lp2075
g1553
a(lp2076
S'uh'
p2077
aaa(lp2078
g1553
a(lp2079
S'we'
p2080
aS'wouldnt'
p2081
aS'have'
p2082
ag273
aS'love'
p2083
aS'for'
p2084
aS'God'
p2085
aaa(lp2086
g1553
a(lp2087
S'Theres'
p2088
aS'no'
p2089
aS'spring'
p2090
aS'of'
p2091
aS'that'
p2092
aS'divine'
p2093
aS'love'
p2094
aS'within'
p2095
aS'us'
p2096
aaa(lp2097
g1553
a(lp2098
S'It'
p2099
aS'comes'
p2100
aS'from'
p2101
aS'him'
p2102
aaa(lp2103
g1553
a(lp2104
S'And'
p2105
aS'it'
p2106
aS'does'
p2107
aS'come'
p2108
aS'from'
p2109
aS'him'
p2110
aaa(lp2111
g1553
a(lp2112
S'and'
p2113
aS'he'
p2114
aS'does'
p2115
aS'give'
p2116
aS'it'
p2117
aaa(lp2118
g1553
a(lp2119
S'uh'
p2120
aS'adoption'
p2121
aaa(lp2122
g1553
a(lp2123
S'The'
p2124
aS'spirit'
p2125
aS'of'
p2126
aS'sonship'
p2127
aaa(lp2128
g1553
a(lp2129
S'Now'
p2130
aaa(lp2131
g1553
a(lp2132
S'to'
p2133
aS'be'
p2134
aS'the'
p2135
aS'spirit'
p2136
aS'of'
p2137
aS'sonship'
p2138
aaa(lp2139
g1553
a(lp2140
S'he'
p2141
aS'has'
p2142
aS'to'
p2143
aS'be'
p2144
aS'also'
p2145
aS'the'
p2146
aS'spirit'
p2147
aS'of'
p2148
aS'fatherhood'
p2149
aaa(lp2150
g1553
a(lp2151
S'right'
p2152
aaa(lp2153
g1553
a(lp2154
S'Uh'
p2155
aS'to'
p2156
aS'make'
p2157
aS'us'
p2158
aS'POUND'
p2159
aS'aware'
p2160
aS'POUND'
p2161
aaa(lp2162
g1553
a(lp2163
S'that'
p2164
aS'we'
p2165
aS'are'
p2166
aS'children'
p2167
aS'of'
p2168
aS'God'
p2169
aaa(lp2170
g1553
a(lp2171
S'uh'
p2172
aS'we'
p2173
aS'have'
p2174
aS'to'
p2175
aS'know'
p2176
aaa(lp2177
g1553
a(lp2178
S'that'
p2179
aS'he'
p2180
aS'is'
p2181
aS'our'
p2182
aS'father'
p2183
aaa(lp2184
g1553
a(lp2185
S'And'
p2186
aS'so'
p2187
aaa(lp2188
g1553
a(lp2189
S'it'
p2190
aS'is'
p2191
aS'the'
p2192
aS'love'
p2193
aS'of'
p2194
aS'God'
p2195
aaa(lp2196
g1553
a(lp2197
S'made'
p2198
aS'real'
p2199
aS'to'
p2200
aS'our'
p2201
aS'hearts'
p2202
aaa(lp2203
g1553
a(lp2204
S'the'
p2205
aS'knowledge'
p2206
aS'that'
p2207
aS'he'
p2208
aS'does'
p2209
aS'love'
p2210
aS'us'
p2211
aaa(lp2212
g1553
a(lp2213
S'that'
p2214
aS'he'
p2215
aS'is'
p2216
aS'present'
p2217
aS'with'
p2218
aS'us'
p2219
aaa(lp2220
g1553
a(lp2221
S'that'
p2222
aS'uh'
p2223
aS'becomes'
p2224
aS'of'
p2225
aS'course'
p2226
aS'then'
p2227
aS'the'
p2228
aS'source'
p2229
aaa(lp2230
g1553
a(lp2231
S'of'
p2232
aS'our'
p2233
aS'uh'
p2234
aS'love'
p2235
aS'toward'
p2236
aS'him'
p2237
aaa(lp2238
g1553
a(lp2239
S'Um'
p2240
aaa(lp2241
g1553
a(lp2242
S'uh'
p2243
aS'friends'
p2244
aaa(lp2245
S'AUD'
p2246
a(lp2247
aa(lp2248
S'JEFFuh'
p2249
a(lp2250
aa(lp2251
g2249
a(lp2252
S'theres'
p2253
aaa(lp2254
g2249
a(lp2255
S'theres'
p2256
aS'nothing'
p2257
aS'more'
p2258
aS'important'
p2259
aaa(lp2260
g2249
a(lp2261
S'For'
p2262
aS'the'
p2263
aS'whole'
p2264
aS'balance'
p2265
aaa(lp2266
g2249
a(lp2267
S'and'
p2268
aS'stability'
p2269
aaa(lp2270
g2249
a(lp2271
S'and'
p2272
aS'progress'
p2273
aaa(lp2274
g2249
a(lp2275
S'and'
p2276
aS'growth'
p2277
aaa(lp2278
g2249
a(lp2279
S'of'
p2280
aS'our'
p2281
aS'Christian'
p2282
aS'lives'
p2283
aaa(lp2284
g2249
a(lp2285
S'Than'
p2286
aaa(lp2287
g2249
a(lp2288
S'to'
p2289
aS'realize'
p2290
aaa(lp2291
g2249
a(lp2292
S'again'
p2293
aaa(lp2294
g2249
a(lp2295
S'and'
p2296
aS'again'
p2297
aaa(lp2298
g2249
a(lp2299
S'and'
p2300
aS'again'
p2301
aaa(lp2302
g2249
a(lp2303
S'the'
p2304
aS'uh'
p2305
aaa(lp2306
g2249
a(lp2307
S'the'
p2308
aS'wonder'
p2309
aaa(lp2310
g2249
a(lp2311
S'of'
p2312
aS'our'
p2313
aS'union'
p2314
aS'with'
p2315
aS'Jesus'
p2316
aS'Christ'
p2317
aaa(lp2318
g2249
a(lp2319
S'Through'
p2320
aS'the'
p2321
aS'Spirit'
p2322
aaa(lp2323
g2249
a(lp2324
S'Because'
p2325
aS'its'
p2326
aS'in'
p2327
aS'Jesus'
p2328
aS'Christ'
p2329
aS'that'
p2330
aS'we'
p2331
aS'are'
p2332
aS'united'
p2333
aS'to'
p2334
aS'the'
p2335
aS'Father'
p2336
aaa(lp2337
g2249
a(lp2338
S'and'
p2339
aS'it'
p2340
aS'is'
p2341
aS'by'
p2342
aS'the'
p2343
aS'Spirit'
p2344
aS'that'
p2345
aS'Christ'
p2346
aS'is'
p2347
aS'present'
p2348
aS'in'
p2349
aS'our'
p2350
aS'hearts'
p2351
aaa(lp2352
g2249
a(lp2353
S'and'
p2354
aS'its'
p2355
aS'by'
p2356
aS'the'
p2357
aS'Spirit'
p2358
aS'that'
p2359
aS'the'
p2360
aS'Father'
p2361
aS'is'
p2362
aS'present'
p2363
aS'in'
p2364
aS'our'
p2365
aS'hearts'
p2366
aaa(lp2367
g2249
a(lp2368
S'Two'
p2369
aS'aspects'
p2370
aS'of'
p2371
aS'union'
p2372
aS'with'
p2373
aS'Christ'
p2374
aaa(lp2375
g2249
a(lp2376
g590
ag9
aS'think'
p2377
aS'you'
p2378
aS'all'
p2379
aS'know'
p2380
aS'this'
p2381
aS'theology'
p2382
aaa(lp2383
g2249
a(lp2384
S'but'
p2385
aS'it'
p2386
aS'always'
p2387
aS'pays'
p2388
aS'X'
p2389
aS'to'
p2390
ag2389
aS'think'
p2391
aS'about'
p2392
aS'it'
p2393
aS'again'
p2394
aaa(lp2395
g2249
a(lp2396
S'The'
p2397
aS'representative'
p2398
aS'union'
p2399
aaa(lp2400
g2249
a(lp2401
S'the'
p2402
aS'vital'
p2403
aS'union'
p2404
aaa(lp2405
g2249
a(lp2406
S'The'
p2407
aS'representative'
p2408
aS'union'
p2409
aaa(lp2410
g2249
a(lp2411
S'The'
p2412
aS'basis'
p2413
aS'of'
p2414
aS'our'
p2415
aS'salvation'
p2416
aaa(lp2417
g2249
a(lp2418
S'When'
p2419
aS'Christ'
p2420
aS'died'
p2421
aaa(lp2422
g2249
a(lp2423
S'we'
p2424
aS'died'
p2425
aaa(lp2426
g2249
a(lp2427
S'Because'
p2428
aS'he'
p2429
aS'died'
p2430
aS'for'
p2431
aS'us'
p2432
aaa(lp2433
g2249
a(lp2434
S'He'
p2435
aS'died'
p2436
aS'as'
p2437
aS'our'
p2438
aS'representative'
p2439
aaa(lp2440
g2249
a(lp2441
S'he'
p2442
aS'died'
p2443
aS'in'
p2444
aS'our'
p2445
aS'place'
p2446
aaa(lp2447
g2249
a(lp2448
S'uh'
p2449
aS'he'
p2450
aS'died'
p2451
aS'as'
p2452
aS'uh'
p2453
aaa(lp2454
g2249
a(lp2455
S'uh'
p2456
aS'the'
p2457
aS'one'
p2458
aaa(lp2459
g2249
a(lp2460
S'uh'
p2461
aS'who'
p2462
aS'bore'
p2463
aS'our'
p2464
aS'sins'
p2465
aaa(lp2466
g2249
a(lp2467
S'In'
p2468
aS'his'
p2469
aS'own'
p2470
aS'body'
p2471
aaa(lp2472
g2249
a(lp2473
S'on'
p2474
aS'the'
p2475
aS'tree'
p2476
aaa(lp2477
g2249
a(lp2478
S'So'
p2479
aS'he'
p2480
aS'was'
p2481
aS'our'
p2482
aS'representative'
p2483
aaa(lp2484
g2249
a(lp2485
S'Right'
p2486
aaa(lp2487
g2249
a(lp2488
S'And'
p2489
aS'he'
p2490
aS'represented'
p2491
aS'us'
p2492
aaa(lp2493
g2249
a(lp2494
S'not'
p2495
aS'only'
p2496
aS'as'
p2497
aS'Paul'
p2498
aS'teaches'
p2499
aaa(lp2500
g2249
a(lp2501
S'not'
p2502
aS'only'
p2503
aS'when'
p2504
aS'he'
p2505
aS'died'
p2506
aS'for'
p2507
aS'us'
p2508
aaa(lp2509
g2249
a(lp2510
S'but'
p2511
aS'when'
p2512
aS'he'
p2513
aS'rose'
p2514
aS'for'
p2515
aS'us'
p2516
aaa(lp2517
g2249
a(lp2518
S'And'
p2519
aS'then'
p2520
aS'he'
p2521
aS'ascended'
p2522
aaa(lp2523
g2249
a(lp2524
S'into'
p2525
aS'the'
p2526
aS'heavenly'
p2527
aS'places'
p2528
aaa(lp2529
g2249
a(lp2530
S'and'
p2531
aS'where'
p2532
aS'he'
p2533
aS'is'
p2534
aaa(lp2535
g2249
a(lp2536
S'we'
p2537
aS'are'
p2538
aaa(lp2539
g2249
a(lp2540
S'And'
p2541
aS'thats'
p2542
aS'why'
p2543
aS'Paul'
p2544
aS'says'
p2545
aS'in'
p2546
aS'Ephesians'
p2547
aaa(lp2548
g2249
a(lp2549
S'that'
p2550
aS'we'
p2551
aS'are'
p2552
aS'in'
p2553
aS'the'
p2554
aS'heavenly'
p2555
aS'places'
p2556
aaa(lp2557
g2249
a(lp2558
S'in'
p2559
aS'Christ'
p2560
aS'Jesus'
p2561
aaa(lp2562
g2249
a(lp2563
S'Why'
p2564
aaa(lp2565
g2249
a(lp2566
S'Representatively'
p2567
aaa(lp2568
g2249
a(lp2569
S'Where'
p2570
aS'he'
p2571
aS'is'
p2572
aaa(lp2573
g2249
a(lp2574
S'we'
p2575
aS'are'
p2576
aaa(lp2577
g2249
a(lp2578
S'Now'
p2579
aaa(lp2580
g2249
a(lp2581
S'thats'
p2582
ag273
aS'tremendously'
p2583
aaa(lp2584
g2249
a(lp2585
S'important'
p2586
aS'of'
p2587
aS'course'
p2588
aaa(lp2589
g2249
a(lp2590
S'foundational'
p2591
aaa(lp2592
g2249
a(lp2593
S'lifetransforming'
p2594
aS'truth'
p2595
aaa(lp2596
g2249
a(lp2597
S'See'
p2598
aaa(lp2599
g2249
a(lp2600
S'you'
p2601
aS'are'
p2602
ag273
ag273
aS'new'
p2603
aS'creature'
p2604
aS'in'
p2605
aS'Christ'
p2606
aaa(lp2607
g2249
a(lp2608
S'because'
p2609
aS'youre'
p2610
aS'united'
p2611
aS'to'
p2612
aS'him'
p2613
aaa(lp2614
g2249
a(lp2615
S'You'
p2616
aS'have'
p2617
aS'triumphed'
p2618
aS'over'
p2619
aS'sin'
p2620
aS'and'
p2621
aS'death'
p2622
aaa(lp2623
g2249
a(lp2624
S'You'
p2625
aS'have'
p2626
aS'died'
p2627
aS'to'
p2628
aS'sin'
p2629
aaa(lp2630
g2249
a(lp2631
S'And'
p2632
aS'Pauls'
p2633
aS'reasoning'
p2634
aS'about'
p2635
aS'how'
p2636
aS'we'
p2637
aS'ought'
p2638
aS'to'
p2639
aS'live'
p2640
aaa(lp2641
g2249
a(lp2642
S'is'
p2643
aS'always'
p2644
aS'grounded'
p2645
aS'in'
p2646
aS'that'
p2647
aaa(lp2648
S'AUD'
p2649
a(lp2650
aa(lp2651
S'JEFF'
p2652
a(lp2653
S'Uh'
p2654
aS'you'
p2655
aS'know'
p2656
aaa(lp2657
g2652
a(lp2658
S'in'
p2659
aS'Colossians'
p2660
aaa(lp2661
g2652
a(lp2662
S'Uh'
p2663
aaa(lp2664
g2652
a(lp2665
S'its'
p2666
aS'because'
p2667
aaa(lp2668
g2652
a(lp2669
S'Christ'
p2670
aS'rose'
p2671
aaa(lp2672
g2652
a(lp2673
S'that'
p2674
aS'we'
p2675
aS'are'
p2676
aS'to'
p2677
aS'seek'
p2678
aS'the'
p2679
aS'things'
p2680
aS'which'
p2681
aS'are'
p2682
aS'above'
p2683
aaa(lp2684
g2652
a(lp2685
S'You'
p2686
aS'are'
p2687
aS'risen'
p2688
aS'with'
p2689
aS'Christ'
p2690
aaa(lp2691
g2652
a(lp2692
S'Seek'
p2693
aS'the'
p2694
aS'things'
p2695
aS'which'
p2696
aS'are'
p2697
aS'above'
p2698
aaa(lp2699
g2652
a(lp2700
S'Because'
p2701
aS'you'
p2702
aS'died'
p2703
aS'with'
p2704
aS'Christ'
p2705
aaa(lp2706
g2652
a(lp2707
S'therefore'
p2708
aS'mortify'
p2709
aS'sin'
p2710
aS'in'
p2711
aS'your'
p2712
aS'members'
p2713
aaa(lp2714
g2652
a(lp2715
S'Put'
p2716
aS'to'
p2717
aS'death'
p2718
aS'sin'
p2719
aaa(lp2720
g2652
a(lp2721
S'because'
p2722
aS'it'
p2723
aS'has'
p2724
aS'died'
p2725
aaa(lp2726
g2652
a(lp2727
S'In'
p2728
aS'other'
p2729
aS'words'
p2730
aaa(lp2731
g2652
a(lp2732
S'the'
p2733
aS'imperative'
p2734
aS'is'
p2735
aS'always'
p2736
aS'grounded'
p2737
aS'in'
p2738
aS'the'
p2739
aS'indicative'
p2740
aaa(lp2741
g2652
a(lp2742
S'Because'
p2743
aS'of'
p2744
aS'what'
p2745
aS'Christ'
p2746
aS'did'
p2747
aS'for'
p2748
aS'us'
p2749
aaa(lp2750
g2652
a(lp2751
S'therefore'
p2752
aaa(lp2753
g2652
a(lp2754
S'uh'
p2755
aS'we'
p2756
aS'live'
p2757
aS'out'
p2758
aS'of'
p2759
aS'the'
p2760
aS'fact'
p2761
aaa(lp2762
g2652
a(lp2763
S'the'
p2764
aS'reality'
p2765
aaa(lp2766
g2652
a(lp2767
S'the'
p2768
aS'accomplishment'
p2769
aaa(lp2770
g2652
a(lp2771
S'of'
p2772
aS'his'
p2773
aS'perfect'
p2774
aS'work'
p2775
aaa(lp2776
g2652
a(lp2777
S'And'
p2778
aS'dont'
p2779
aS'forget'
p2780
aaa(lp2781
g2652
a(lp2782
S'Jesus'
p2783
aS'not'
p2784
aS'only'
p2785
aS'paid'
p2786
aS'the'
p2787
aS'price'
p2788
aS'of'
p2789
aS'your'
p2790
aS'sins'
p2791
aaa(lp2792
g2652
a(lp2793
S'That'
p2794
aS'the'
p2795
aS'white'
p2796
aS'robe'
p2797
aS'of'
p2798
aS'righteousness'
p2799
aaa(lp2800
g2652
a(lp2801
S'that'
p2802
aS'you'
p2803
aS'wear'
p2804
aS'in'
p2805
aS'that'
p2806
aS'last'
p2807
aS'day'
p2808
aaa(lp2809
g2652
a(lp2810
S'is'
p2811
aS'the'
p2812
aS'robe'
p2813
aS'of'
p2814
aS'Christs'
p2815
aS'righteousness'
p2816
aaa(lp2817
g2652
a(lp2818
S'So'
p2819
aaa(lp2820
g2652
a(lp2821
S'its'
p2822
aS'all'
p2823
aS'that'
p2824
aS'Christ'
p2825
aS'MRC'
p2826
aS'did'
p2827
aS'for'
p2828
aS'you'
p2829
aS'MRC'
p2830
aaa(lp2831
g2652
a(lp2832
S'Uh'
p2833
aS'let'
p2834
aS'it'
p2835
aS'be'
p2836
aS'done'
p2837
aS'to'
p2838
aS'fill'
p2839
aS'all'
p2840
aS'righteousness'
p2841
aaa(lp2842
g2652
a(lp2843
S'The'
p2844
aS'righteousness'
p2845
aS'he'
p2846
aS'had'
p2847
aS'to'
p2848
aS'fill'
p2849
aS'for'
p2850
aS'you'
p2851
aaa(lp2852
g2652
a(lp2853
S'See'
p2854
aS'he'
p2855
aS'he'
p2856
aS'did'
p2857
aS'it'
p2858
aS'all'
p2859
aS'for'
p2860
aS'you'
p2861
aaa(lp2862
g2652
a(lp2863
S'But'
p2864
aS'then'
p2865
aS'of'
p2866
aS'course'
p2867
aS'the'
p2868
aS'other'
p2869
aS'side'
p2870
aS'of'
p2871
aS'it'
p2872
aS'is'
p2873
aaa(lp2874
g2652
a(lp2875
S'its'
p2876
aS'not'
p2877
aS'only'
p2878
aS'representative'
p2879
aaa(lp2880
g2652
a(lp2881
S'its'
p2882
aS'also'
p2883
aS'vital'
p2884
aaa(lp2885
g2652
a(lp2886
S'Jesus'
p2887
aS'Christ'
p2888
aS'is'
p2889
aS'the'
p2890
aS'vine'
p2891
aaa(lp2892
g2652
a(lp2893
S'and'
p2894
aS'we'
p2895
aS'are'
p2896
aS'the'
p2897
aS'branches'
p2898
aaa(lp2899
g2652
a(lp2900
S'Y'
p2901
aS'were'
p2902
aS'united'
p2903
aS'to'
p2904
aS'him'
p2905
aaa(lp2906
g2652
a(lp2907
S'Our'
p2908
aS'life'
p2909
aS'is'
p2910
aS'drawn'
p2911
aS'from'
p2912
aS'Christ'
p2913
aaa(lp2914
g2652
a(lp2915
S'There'
p2916
aS'is'
p2917
aS'the'
p2918
aS'uh'
p2919
aaa(lp2920
g2652
a(lp2921
S'the'
p2922
aS'the'
p2923
aS'legal'
p2924
aS'uh'
p2925
aS'aspect'
p2926
aS'of'
p2927
aS'that'
p2928
aS'which'
p2929
aS'Christ'
p2930
aS'did'
p2931
aS'for'
p2932
aS'us'
p2933
aaa(lp2934
g2652
a(lp2935
S'as'
p2936
aS'our'
p2937
aS'representative'
p2938
aaa(lp2939
g2652
a(lp2940
S'there'
p2941
aS'is'
p2942
aS'the'
p2943
aS'vital'
p2944
aS'aspect'
p2945
aaa(lp2946
g2652
a(lp2947
S'of'
p2948
aS'what'
p2949
aS'Christ'
p2950
aS'does'
p2951
aS'in'
p2952
aS'us'
p2953
aaa(lp2954
g2652
a(lp2955
S'as'
p2956
aS'he'
p2957
aS'lives'
p2958
aS'in'
p2959
aS'us'
p2960
aaa(lp2961
g2652
a(lp2962
S'and'
p2963
aS'dwells'
p2964
aS'in'
p2965
aS'us'
p2966
aaa(lp2967
g2652
a(lp2968
S'and'
p2969
aS'has'
p2970
aS'fellowship'
p2971
aS'with'
p2972
aS'us'
p2973
aaa(lp2974
g2652
a(lp2975
S'and'
p2976
aS'and'
p2977
aS'we'
p2978
aS'walk'
p2979
aS'with'
p2980
aS'him'
p2981
aaa(lp2982
g2652
a(lp2983
S'Uh'
p2984
aaa(lp2985
g2652
a(lp2986
S'uh'
p2987
aS'every'
p2988
aaa(lp2989
g2652
a(lp2990
S'uh'
p2991
aS'y'
p2992
ag2992
aS'you'
p2993
aS'know'
p2994
aaa(lp2995
g2652
a(lp2996
g590
aS'ts'
p2997
aS'uh'
p2998
aaa(lp2999
g2652
a(lp3000
S'its'
p3001
aS'been'
p3002
aS'long'
p3003
aS'fashionable'
p3004
aS'in'
p3005
aS'theological'
p3006
aS'circles'
p3007
aS'to'
p3008
aS'uh'
p3009
aaa(lp3010
g2652
a(lp3011
S'sniff'
p3012
aS'at'
p3013
aS'the'
p3014
aS'hymn'
p3015
aaa(lp3016
g2652
a(lp3017
S'uh'
p3018
ag9
aS'walked'
p3019
aS'in'
p3020
aS'the'
p3021
aS'garden'
p3022
aS'alone'
p3023
aaa(lp3024
g2652
a(lp3025
S'while'
p3026
aS'the'
p3027
aS'dew'
p3028
aS'was'
p3029
aS'still'
p3030
aS'on'
p3031
aS'the'
p3032
aS'roses'
p3033
aaa(lp3034
g2652
a(lp3035
S'you'
p3036
aS'know'
p3037
aaa(lp3038
g2652
a(lp3039
S'uh'
p3040
aS'all'
p3041
aS'this'
p3042
aS'uh'
p3043
aS'romantic'
p3044
aS'business'
p3045
aaa(lp3046
g2652
a(lp3047
S'and'
p3048
aS'uh'
p3049
aaa(lp3050
g2652
a(lp3051
S'and'
p3052
aS'not'
p3053
ag273
aS'shred'
p3054
aS'of'
p3055
aS'theology'
p3056
aS'in'
p3057
aS'the'
p3058
aS'whole'
p3059
aS'hymn'
p3060
aaa(lp3061
g2652
a(lp3062
S'and'
p3063
aS'yet'
p3064
aS'everybody'
p3065
aS'perversely'
p3066
aS'seems'
p3067
aS'to'
p3068
aS'love'
p3069
aS'it'
p3070
aaa(lp3071
g2652
a(lp3072
S'Uh'
p3073
aS'well'
p3074
aS'uh'
p3075
aaa(lp3076
g2652
a(lp3077
S'uh'
p3078
aaa(lp3079
g2652
a(lp3080
g9
ag9
ag9
aS'think'
p3081
aaa(lp3082
g2652
a(lp3083
g9
aS'think'
p3084
aS'the'
p3085
aS'reason'
p3086
aS'its'
p3087
aS'so'
p3088
aS'loved'
p3089
aaa(lp3090
g2652
a(lp3091
S'in'
p3092
aS'spite'
p3093
aS'of'
p3094
aS'its'
p3095
aS'uh'
p3096
aaa(lp3097
g2652
a(lp3098
S'uh'
p3099
aS'uh'
p3100
aS'theological'
p3101
aS'vacuity'
p3102
aaa(lp3103
g2652
a(lp3104
S'uh'
p3105
aS'is'
p3106
aS'that'
p3107
aS'its'
p3108
aS'uh'
p3109
aS'experientially'
p3110
aaa(lp3111
S'MANY'
p3112
a(lp3113
aa(lp3114
S'JEFFuh'
p3115
a(lp3116
S'retty'
p3117
aS'much'
p3118
aS'on'
p3119
aS'target'
p3120
aaa(lp3121
g3115
a(lp3122
S'Weve'
p3123
aS'all'
p3124
aS'known'
p3125
aS'those'
p3126
aS'uh'
p3127
aS'precious'
p3128
aS'times'
p3129
aS'of'
p3130
aS'uh'
p3131
aS'of'
p3132
aS'genuine'
p3133
aS'fellowship'
p3134
aS'with'
p3135
aS'the'
p3136
aS'Lord'
p3137
aaa(lp3138
g3115
a(lp3139
S'that'
p3140
aS'uh'
p3141
aaa(lp3142
g3115
a(lp3143
S'that'
p3144
aaa(lp3145
g3115
a(lp3146
S'we'
p3147
aS'can'
p3148
aS'describe'
p3149
aS'only'
p3150
aS'with'
p3151
aS'great'
p3152
aS'difficulty'
p3153
aaa(lp3154
g3115
a(lp3155
S'And'
p3156
aS'uh'
p3157
aaa(lp3158
g3115
a(lp3159
S'its'
p3160
aS'true'
p3161
aaa(lp3162
g3115
a(lp3163
S'you'
p3164
aS'see'
p3165
aaa(lp3166
g3115
a(lp3167
S'uh'
p3168
aaa(lp3169
g3115
a(lp3170
S'we'
p3171
aS'are'
p3172
aS'vitally'
p3173
aS'united'
p3174
aS'to'
p3175
aS'Jesus'
p3176
aS'Christ'
p3177
aaa(lp3178
g3115
a(lp3179
S'Uh'
p3180
aS'we'
p3181
aS'do'
p3182
aS'know'
p3183
aS'him'
p3184
aaa(lp3185
g3115
a(lp3186
S'and'
p3187
aS'the'
p3188
aS'knowledge'
p3189
aS'that'
p3190
aS'we'
p3191
aS'have'
p3192
aS'of'
p3193
aS'him'
p3194
aaa(lp3195
g3115
a(lp3196
S'is'
p3197
aS'the'
p3198
aS'knowledge'
p3199
aS'of'
p3200
aS'love'
p3201
aaa(lp3202
g3115
a(lp3203
S'We'
p3204
aS'just'
p3205
aS'simply'
p3206
aS'love'
p3207
aS'him'
p3208
aaa(lp3209
g3115
a(lp3210
S'Uh'
p3211
aaa(lp3212
g3115
a(lp3213
S'we'
p3214
aS'uh'
p3215
aaa(lp3216
g3115
a(lp3217
S'ow'
p3218
aS'the'
p3219
aS'mystics'
p3220
aaa(lp3221
g3115
a(lp3222
S'the'
p3223
aS'Christian'
p3224
aS'myth'
p3225
aS'mystics'
p3226
aaa(lp3227
g3115
a(lp3228
S'l'
p3229
aS'love'
p3230
aS'to'
p3231
aS'talk'
p3232
aS'about'
p3233
aaa(lp3234
g3115
a(lp3235
S'weve'
p3236
aS'got'
p3237
aS'some'
p3238
aS'kind'
p3239
aS'of'
p3240
aS'time'
p3241
aS'constraint'
p3242
aS'here'
p3243
aaa(lp3244
g3115
a(lp3245
S'what'
p3246
aS'uh'
p3247
aS'uh'
p3248
aS'what'
p3249
aaa(lp3250
S'MANY'
p3251
a(lp3252
aa(lp3253
S'JEFFw'
p3254
a(lp3255
S'w'
p3256
ag3256
aS'when'
p3257
aS'do'
p3258
aS'we'
p3259
aaa(lp3260
S'DANI'
p3261
a(lp3262
S'think'
p3263
aaa(lp3264
S'JEFFWhen'
p3265
a(lp3266
aa(lp3267
S'DANI'
p3268
a(lp3269
S'think'
p3270
aS'were'
p3271
aS'done'
p3272
aS'when'
p3273
aS'you'
p3274
aS'are'
p3275
aaa(lp3276
g3268
a(lp3277
S'so'
p3278
aaa(lp3279
S'JEFF'
p3280
a(lp3281
S'well'
p3282
aaa(lp3283
g3280
a(lp3284
g9
ag9
aS'gotta'
p3285
aS'be'
p3286
aaa(lp3287
S'DAN'
p3288
a(lp3289
S'finish'
p3290
aS'what'
p3291
aS'you'
p3292
aS'have'
p3293
ag2389
aS'to'
p3294
aS'say'
p3295
ag2389
aaa(lp3296
S'JEFF'
p3297
a(lp3298
g9
ag9
aS'well'
p3299
aaa(lp3300
g3297
a(lp3301
S'Ill'
p3302
ag9
aS'yeah'
p3303
aaa(lp3304
g3297
a(lp3305
S'Let'
p3306
aS'me'
p3307
aS'try'
p3308
aS'to'
p3309
aS'finish'
p3310
aS'what'
p3311
aS'Im'
p3312
aS'talking'
p3313
aS'about'
p3314
aS'here'
p3315
aS'but'
p3316
aaa(lp3317
g3297
a(lp3318
S'but'
p3319
aS'uh'
p3320
aaa(lp3321
g3297
a(lp3322
S'SM'
p3323
aS'there'
p3324
aS'there'
p3325
aaa(lp3326
g3297
a(lp3327
g9
aS'dont'
p3328
aS'often'
p3329
aS'get'
p3330
aS'chance'
p3331
aaa(lp3332
g3297
a(lp3333
S'to'
p3334
aS'talk'
p3335
aS'to'
p3336
aS'types'
p3337
aS'like'
p3338
aS'you'
p3339
aS'SM'
p3340
aaa(lp3341
g3297
a(lp3342
S'you'
p3343
aS'know'
p3344
aS'its'
p3345
aS'wonderful'
p3346
aaa(lp3347
S'MANY'
p3348
a(lp3349
aa(lp3350
S'JEFF'
p3351
a(lp3352
aa(lp3353
g3351
a(lp3354
S'uh'
p3355
aS'its'
p3356
aS'particularly'
p3357
aS'wonderful'
p3358
aaa(lp3359
g3351
a(lp3360
S'cause'
p3361
ag9
aS'know'
p3362
aS'you'
p3363
aS'know'
p3364
aS'everything'
p3365
aS'Im'
p3366
aS'saying'
p3367
aS'anywaysso'
p3368
aaa(lp3369
g3351
a(lp3370
S'you'
p3371
aS'can'
p3372
aS'smile'
p3373
aS'affirmatively'
p3374
aaa(lp3375
g3351
a(lp3376
S'and'
p3377
aS'that'
p3378
aS'encourages'
p3379
aS'me'
p3380
aaa(lp3381
g3351
a(lp3382
S'thats'
p3383
aS'great'
p3384
aaa(lp3385
g3351
a(lp3386
S'uh'
p3387
aS'but'
p3388
aaa(lp3389
S'MANY'
p3390
a(lp3391
aa(lp3392
S'JEFFBut'
p3393
a(lp3394
S'uh'
p3395
aaa(lp3396
g3393
a(lp3397
S'but'
p3398
aaa(lp3399
g3393
a(lp3400
S'really'
p3401
aaa(lp3402
g3393
a(lp3403
S'the'
p3404
aS'the'
p3405
aS'that'
p3406
aS'uh'
p3407
aaa(lp3408
g3393
a(lp3409
S'you'
p3410
aS'know'
p3411
aS'the'
p3412
aS'Christian'
p3413
aS'mystics'
p3414
aS'talked'
p3415
aS'about'
p3416
aS'climbing'
p3417
aS'Jacobs'
p3418
aS'ladder'
p3419
aaa(lp3420
g3393
a(lp3421
S'And'
p3422
aS'uh'
p3423
aaa(lp3424
g3393
a(lp3425
S'uh'
p3426
aS'you'
p3427
aS'you'
p3428
aS'youd'
p3429
aS'come'
p3430
aS'up'
p3431
aS'the'
p3432
aS'ladder'
p3433
aaa(lp3434
g3393
a(lp3435
S'and'
p3436
aS'when'
p3437
aS'you'
p3438
aS'get'
p3439
aS'at'
p3440
aS'the'
p3441
aS'top'
p3442
aaa(lp3443
g3393
a(lp3444
S'you'
p3445
aS'fling'
p3446
aS'yourself'
p3447
aS'down'
p3448
aaa(lp3449
g3393
a(lp3450
S'at'
p3451
aS'the'
p3452
aS'very'
p3453
aS'gate'
p3454
aS'of'
p3455
aS'heaven'
p3456
aaa(lp3457
g3393
a(lp3458
S'And'
p3459
aS'maybe'
p3460
aS'uh'
p3461
aaa(lp3462
g3393
a(lp3463
S'maybe'
p3464
aS'the'
p3465
aS'gate'
p3466
aS'will'
p3467
aS'open'
p3468
aaa(lp3469
g3393
a(lp3470
g2901
aS'you'
p3471
aS'cant'
p3472
aS'control'
p3473
aS'it'
p3474
aaa(lp3475
g3393
a(lp3476
S'you'
p3477
aS'dont'
p3478
aS'know'
p3479
aS'when'
p3480
aS'it'
p3481
aS'will'
p3482
aS'open'
p3483
aaa(lp3484
g3393
a(lp3485
S'but'
p3486
aS'maybe'
p3487
aS'it'
p3488
aS'will'
p3489
aS'open'
p3490
aaa(lp3491
g3393
a(lp3492
S'And'
p3493
aS'when'
p3494
aS'it'
p3495
aS'opens'
p3496
aaa(lp3497
g3393
a(lp3498
S'then'
p3499
aaa(lp3500
g3393
a(lp3501
S'uh'
p3502
aS'its'
p3503
aS'uh'
p3504
aaa(lp3505
g3393
a(lp3506
S'light'
p3507
aS'bursting'
p3508
aS'in'
p3509
aS'your'
p3510
aS'inner'
p3511
aS'heart'
p3512
aaa(lp3513
g3393
a(lp3514
S'And'
p3515
aS'uh'
p3516
aaa(lp3517
g3393
a(lp3518
S'once'
p3519
aS'youve'
p3520
aS'had'
p3521
aS'that'
p3522
aS'experience'
p3523
aaa(lp3524
g3393
a(lp3525
S'youd'
p3526
aS'give'
p3527
aS'anything'
p3528
aS'to'
p3529
aS'have'
p3530
aS'the'
p3531
aS'experience'
p3532
aS'repeated'
p3533
aaa(lp3534
g3393
a(lp3535
S'And'
p3536
aS'so'
p3537
aS'uh'
p3538
aaa(lp3539
g3393
a(lp3540
S'you'
p3541
aS'go'
p3542
aS'through'
p3543
aS'any'
p3544
aS'amount'
p3545
aS'of'
p3546
aS'discipline'
p3547
aaa(lp3548
g3393
a(lp3549
S'and'
p3550
aS'uh'
p3551
aaa(lp3552
g3393
a(lp3553
S'try'
p3554
aS'out'
p3555
aS'different'
p3556
aS'forms'
p3557
aS'of'
p3558
aS'discipline'
p3559
aaa(lp3560
g3393
a(lp3561
S'and'
p3562
aS'uh'
p3563
aaa(lp3564
g3393
a(lp3565
S'you'
p3566
aS'recite'
p3567
aS'the'
p3568
aS'Jesus'
p3569
aS'prayer'
p3570
aS'thousands'
p3571
aS'of'
p3572
aS'times'
p3573
aS'with'
p3574
aS'the'
p3575
aS'monks'
p3576
aS'of'
p3577
aS'Mount'
p3578
aS'Athos'
p3579
aaa(lp3580
g3393
a(lp3581
S'and'
p3582
aS'uh'
p3583
aaa(lp3584
g3393
a(lp3585
S'and'
p3586
aS'uh'
p3587
aaa(lp3588
g3393
a(lp3589
S'sooner'
p3590
aS'or'
p3591
aS'later'
p3592
aaa(lp3593
g3393
a(lp3594
S'uh'
p3595
aS'you'
p3596
aS'think'
p3597
aS'it'
p3598
aS'may'
p3599
aS'happen'
p3600
aaa(lp3601
g3393
a(lp3602
S'Uh'
p3603
aS'the'
p3604
aS'uh'
p3605
aaa(lp3606
g3393
a(lp3607
S'you'
p3608
aS'you'
p3609
aS'may'
p3610
aS'gain'
p3611
aS'that'
p3612
aS'experience'
p3613
aaa(lp3614
g3393
a(lp3615
S'Well'
p3616
aS'now'
p3617
aS'uh'
p3618
aaa(lp3619
g3393
a(lp3620
S'you'
p3621
aS'know'
p3622
aaa(lp3623
g3393
a(lp3624
S'there'
p3625
aS'are'
p3626
aS'experiences'
p3627
aS'of'
p3628
aS'ecstasy'
p3629
aaa(lp3630
g3393
a(lp3631
S'tha'
p3632
aS'uh'
p3633
aaa(lp3634
g3393
a(lp3635
S'that'
p3636
aS'can'
p3637
aS'be'
p3638
aS'induced'
p3639
aS'by'
p3640
ag273
aS'transformation'
p3641
aS'of'
p3642
aS'consciousness'
p3643
aaa(lp3644
g3393
a(lp3645
S'and'
p3646
aS'uh'
p3647
aaa(lp3648
g3393
a(lp3649
g9
aS'think'
p3650
aS'Christians'
p3651
aS'sometimes'
p3652
aS'have'
p3653
aS'uh'
p3654
aaa(lp3655
g3393
a(lp3656
S'uh'
p3657
aS'mingled'
p3658
aS'that'
p3659
aS'uh'
p3660
aS'psychological'
p3661
aS'experience'
p3662
aaa(lp3663
g3393
a(lp3664
S'uh'
p3665
aaa(lp3666
g3393
a(lp3667
S'whether'
p3668
aS'its'
p3669
aS'the'
p3670
aS'left'
p3671
aS'part'
p3672
aS'or'
p3673
aaa(lp3674
g3393
a(lp3675
S'or'
p3676
aS'the'
p3677
aS'right'
p3678
aS'part'
p3679
aS'of'
p3680
aS'the'
p3681
aS'brain'
p3682
aS'taking'
p3683
aS'over'
p3684
aaa(lp3685
g3393
a(lp3686
S'or'
p3687
aS'something'
p3688
aaa(lp3689
g3393
a(lp3690
g9
aS'dont'
p3691
aS'think'
p3692
aS'um'
p3693
aaa(lp3694
g3393
a(lp3695
S'uh'
p3696
aaa(lp3697
g3393
a(lp3698
S'the'
p3699
aS'um'
p3700
aaa(lp3701
g3393
a(lp3702
S'the'
p3703
aS'psychologists'
p3704
aS'are'
p3705
aS'as'
p3706
aS'sure'
p3707
aS'as'
p3708
aS'they'
p3709
aS'once'
p3710
aS'were'
p3711
aaa(lp3712
g3393
a(lp3713
S'or'
p3714
aS'even'
p3715
aS'the'
p3716
aS'neurologists'
p3717
aS'about'
p3718
aS'how'
p3719
aS'some'
p3720
aS'of'
p3721
aS'those'
p3722
aS'things'
p3723
aS'happen'
p3724
aaa(lp3725
g3393
a(lp3726
S'but'
p3727
aS'uh'
p3728
aaa(lp3729
g3393
a(lp3730
S'uh'
p3731
aS'at'
p3732
aS'any'
p3733
aS'rate'
p3734
aaa(lp3735
g3393
a(lp3736
S'uh'
p3737
aaa(lp3738
g3393
a(lp3739
S'you'
p3740
aS'see'
p3741
aaa(lp3742
S'AUD'
p3743
a(lp3744
aa(lp3745
S'JEFF'
p3746
a(lp3747
S'it'
p3748
aS'isnt'
p3749
aS'that'
p3750
aS'we'
p3751
aS'have'
p3752
aS'to'
p3753
aS'climb'
p3754
aS'the'
p3755
aS'ladder'
p3756
aaa(lp3757
g3746
a(lp3758
S'And'
p3759
aS'uh'
p3760
aaa(lp3761
g3746
a(lp3762
S'Im'
p3763
aS'Im'
p3764
aS'sorry'
p3765
aS'that'
p3766
aS'that'
p3767
aS'whole'
p3768
aS'episode'
p3769
aS'with'
p3770
aS'Jacob'
p3771
aS'got'
p3772
aS'misunderstood'
p3773
aaa(lp3774
g3746
a(lp3775
S'All'
p3776
aS'because'
p3777
aS'uh'
p3778
aaa(lp3779
g3746
a(lp3780
S'all'
p3781
aS'because'
p3782
aS'of'
p3783
aS'the'
p3784
aS'Hebrew'
p3785
aS'preposition'
p3786
aS'al'
p3787
aaa(lp3788
g3746
a(lp3789
S'That'
p3790
aS'uh'
p3791
aaa(lp3792
g3746
a(lp3793
S'wasnt'
p3794
aS'taken'
p3795
aS'account'
p3796
aS'of'
p3797
aaa(lp3798
g3746
a(lp3799
S'Uh'
p3800
aS'that'
p3801
aS'see'
p3802
aaa(lp3803
g3746
a(lp3804
S'uh'
p3805
aaa(lp3806
g3746
a(lp3807
S'he'
p3808
aS'he'
p3809
aS'stood'
p3810
aS'uh'
p3811
aS'upon'
p3812
aaa(lp3813
g3746
a(lp3814
S'not'
p3815
aS'it'
p3816
aaa(lp3817
g3746
a(lp3818
S'ee'
p3819
aaa(lp3820
g3746
a(lp3821
S'he'
p3822
aS'Jacob'
p3823
aS'st'
p3824
aS'saw'
p3825
aS'the'
p3826
aS'stairway'
p3827
aaa(lp3828
g3746
a(lp3829
S'not'
p3830
ag273
aS'painters'
p3831
aS'ladder'
p3832
aS'of'
p3833
aS'course'
p3834
aaa(lp3835
g3746
a(lp3836
S'but'
p3837
ag273
aaa(lp3838
g3746
a(lp3839
g273
aS'tower'
p3840
aS'of'
p3841
aS'Babel'
p3842
aS'type'
p3843
aS'of'
p3844
aS'thing'
p3845
aaa(lp3846
g3746
a(lp3847
g273
aS'uh'
p3848
aaa(lp3849
g3746
a(lp3850
g273
aS'zigarot'
p3851
aaa(lp3852
g3746
a(lp3853
S'r'
p3854
aS'right'
p3855
aaa(lp3856
g3746
a(lp3857
S'You'
p3858
aS'got'
p3859
ag273
aS'zigarot'
p3860
aS'and'
p3861
aaa(lp3862
g3746
a(lp3863
S'which'
p3864
aS'was'
p3865
aS'made'
p3866
aS'for'
p3867
aS'the'
p3868
aS'gods'
p3869
aS'to'
p3870
aS'touch'
p3871
aS'down'
p3872
aS'at'
p3873
aS'the'
p3874
aS'top'
p3875
aaa(lp3876
g3746
a(lp3877
S'and'
p3878
aS'then'
p3879
aS'they'
p3880
aS'could'
p3881
aS'come'
p3882
aS'down'
p3883
aS'uh'
p3884
aaa(lp3885
g3746
a(lp3886
S'to'
p3887
aS'the'
p3888
aS'bottom'
p3889
aaa(lp3890
g3746
a(lp3891
S'You'
p3892
aS'know'
p3893
aS'it'
p3894
aS'was'
p3895
aS'like'
p3896
ag273
aS'little'
p3897
aS'heliport'
p3898
aS'for'
p3899
aS'the'
p3900
aS'gods'
p3901
aS'there'
p3902
aaa(lp3903
g3746
a(lp3904
S'That'
p3905
aS'was'
p3906
aS'he'
p3907
aS'idea'
p3908
aaa(lp3909
S'MANY'
p3910
a(lp3911
aa(lp3912
S'JEFFBut'
p3913
a(lp3914
S'but'
p3915
aS'uh'
p3916
aaa(lp3917
g3913
a(lp3918
S'th'
p3919
aS'they'
p3920
aS'theyd'
p3921
aS'come'
p3922
aS'down'
p3923
aaa(lp3924
g3913
a(lp3925
S'thered'
p3926
aS'be'
p3927
ag273
aS'temple'
p3928
aS'at'
p3929
aS'the'
p3930
aS'bottom'
p3931
aaa(lp3932
g3913
a(lp3933
S'and'
p3934
aS'then'
p3935
aS'uh'
p3936
aS'the'
p3937
aS'god'
p3938
aS'could'
p3939
aS'be'
p3940
aS'with'
p3941
aS'the'
p3942
aS'people'
p3943
aaa(lp3944
g3913
a(lp3945
S'But'
p3946
aS'uh'
p3947
aaa(lp3948
S'AUD'
p3949
a(lp3950
aa(lp3951
S'JEFF'
p3952
a(lp3953
S'uh'
p3954
aS'but'
p3955
aS'it'
p3956
aS'it'
p3957
aS'wasnt'
p3958
aS'that'
p3959
aS'that'
p3960
aS'God'
p3961
aaa(lp3962
g3952
a(lp3963
S'that'
p3964
aS'that'
p3965
aS'uh'
p3966
aS'Jacob'
p3967
aS'saw'
p3968
aS'God'
p3969
aS'at'
p3970
aS'the'
p3971
aS'top'
p3972
aS'of'
p3973
aS'the'
p3974
aS'ladder'
p3975
aaa(lp3976
g3952
a(lp3977
S'up'
p3978
aS'in'
p3979
aS'Heaven'
p3980
aaa(lp3981
g3952
a(lp3982
S'uh'
p3983
aS'upon'
p3984
aS'him'
p3985
aaa(lp3986
g3952
a(lp3987
S'Uh'
p3988
aS'the'
p3989
aS'the'
p3990
aS'masculine'
p3991
aS'uh'
p3992
aS'there'
p3993
aaa(lp3994
g3952
a(lp3995
S'the'
p3996
aS'uh'
p3997
aaa(lp3998
g3952
a(lp3999
S'v'
p4000
ag4000
ag4000
aS'vowel'
p4001
aS'with'
p4002
aS'the'
p4003
aS'little'
p4004
aS'dot'
p4005
aS'over'
p4006
aS'it'
p4007
aaa(lp4008
g3952
a(lp4009
S'you'
p4010
aS'know'
p4011
aS'the'
p4012
aS'the'
p4013
aS'the'
p4014
aS'holem'
p4015
aaa(lp4016
g3952
a(lp4017
S'Uh'
p4018
aS'he'
p4019
aS'he'
p4020
aS'hes'
p4021
aS'uh'
p4022
aaa(lp4023
g3952
a(lp4024
g874
aS'he'
p4025
aS'stood'
p4026
aS'upon'
p4027
aS'him'
p4028
aaa(lp4029
g3952
a(lp4030
S'uh'
p4031
aaa(lp4032
g3952
a(lp4033
S'which'
p4034
aS'is'
p4035
aS'the'
p4036
aS'common'
p4037
aS'Hebrew'
p4038
aS'expression'
p4039
aaa(lp4040
g3952
a(lp4041
S'and'
p4042
aS'you'
p4043
aS'know'
p4044
aS'thats'
p4045
aS'what'
p4046
aS'it'
p4047
aS'is'
p4048
aaa(lp4049
g3952
a(lp4050
S'because'
p4051
aS'the'
p4052
aS'second'
p4053
aS'time'
p4054
aS'when'
p4055
aS'God'
p4056
aS'appeared'
p4057
aS'to'
p4058
aS'b'
p4059
ag874
aS'uh'
p4060
aS'j'
p4061
aS'Jacob'
p4062
aS'at'
p4063
aS'Bethel'
p4064
aaa(lp4065
g3952
a(lp4066
S'uh'
p4067
aaa(lp4068
g3952
a(lp4069
S'the'
p4070
aS'same'
p4071
aS'expression'
p4072
aS'is'
p4073
aS'used'
p4074
aaa(lp4075
g3952
a(lp4076
S'He'
p4077
aS'went'
p4078
aS'up'
p4079
aS'from'
p4080
aS'upon'
p4081
aS'him'
p4082
aaa(lp4083
g3952
a(lp4084
S'See'
p4085
aaa(lp4086
g3952
a(lp4087
S'Uh'
p4088
aaa(lp4089
g3952
a(lp4090
S'its'
p4091
aS'the'
p4092
aS'same'
p4093
aS'expression'
p4094
aaa(lp4095
g3952
a(lp4096
S'So'
p4097
aaa(lp4098
g3952
a(lp4099
S'God'
p4100
aS'had'
p4101
aS'come'
p4102
aS'down'
p4103
aS'the'
p4104
aS'ladder'
p4105
aaa(lp4106
g3952
a(lp4107
S'Thats'
p4108
aS'what'
p4109
aS'we'
p4110
aS'miss'
p4111
aaa(lp4112
g3952
a(lp4113
S'He'
p4114
aS'wasnt'
p4115
aS'standing'
p4116
aS'up'
p4117
aS'there'
p4118
aS'at'
p4119
aS'the'
p4120
aS'top'
p4121
aaa(lp4122
g3952
a(lp4123
S'uh'
p4124
aS'he'
p4125
aS'came'
p4126
aS'down'
p4127
aS'the'
p4128
aS'ladder'
p4129
aaa(lp4130
g3952
a(lp4131
S'And'
p4132
aS'uh'
p4133
aS'when'
p4134
aS'he'
p4135
aS'came'
p4136
aS'down'
p4137
aS'the'
p4138
aS'ladder'
p4139
aaa(lp4140
g3952
a(lp4141
S'he'
p4142
aS'stood'
p4143
aS'over'
p4144
aS'Jacob'
p4145
aaa(lp4146
g3952
a(lp4147
S'and'
p4148
aS'revealed'
p4149
aS'himself'
p4150
aS'to'
p4151
aS'Jacob'
p4152
aaa(lp4153
g3952
a(lp4154
S'And'
p4155
aS'thats'
p4156
aS'why'
p4157
aS'Jacob'
p4158
aS'said'
p4159
aaa(lp4160
g3952
a(lp4161
S'this'
p4162
aS'is'
p4163
aS'the'
p4164
aS'house'
p4165
aS'of'
p4166
aS'God'
p4167
aaa(lp4168
g3952
a(lp4169
S'this'
p4170
aS'is'
p4171
aS'the'
p4172
aS'gate'
p4173
aS'of'
p4174
aS'Heaven'
p4175
aaa(lp4176
g3952
a(lp4177
S'It'
p4178
aS'was'
p4179
aS'the'
p4180
aS'House'
p4181
aS'of'
p4182
aS'God'
p4183
aaa(lp4184
g3952
a(lp4185
S'he'
p4186
aS'said'
p4187
aaa(lp4188
g3952
a(lp4189
S'because'
p4190
aS'God'
p4191
aS'was'
p4192
aS'in'
p4193
aS'this'
p4194
aS'place'
p4195
aaa(lp4196
g3952
a(lp4197
S'and'
p4198
ag9
aS'didnt'
p4199
aS'know'
p4200
aS'it'
p4201
aaa(lp4202
g3952
a(lp4203
S'See'
p4204
aaa(lp4205
g3952
a(lp4206
S'it'
p4207
aS'its'
p4208
aaa(lp4209
g3952
a(lp4210
S'this'
p4211
aS'is'
p4212
aS'Bethel'
p4213
aS'here'
p4214
aaa(lp4215
g3952
a(lp4216
S'because'
p4217
aS'here'
p4218
aS'God'
p4219
aS'has'
p4220
aS'come'
p4221
aS'to'
p4222
aS'us'
p4223
aaa(lp4224
g3952
a(lp4225
S'So'
p4226
aS'God'
p4227
aS'was'
p4228
aS'revealing'
p4229
aS'himself'
p4230
aS'to'
p4231
aS'Jacob'
p4232
aaa(lp4233
g3952
a(lp4234
S'and'
p4235
aS'God'
p4236
aS'reveals'
p4237
aS'himself'
p4238
aS'to'
p4239
aS'us'
p4240
aaa(lp4241
g3952
a(lp4242
S'He'
p4243
aS'comes'
p4244
aS'to'
p4245
aS'us'
p4246
aaa(lp4247
g3952
a(lp4248
S'And'
p4249
aS'uh'
p4250
aaa(lp4251
g3952
a(lp4252
S'he'
p4253
aS'seeks'
p4254
aS'us'
p4255
aaa(lp4256
g3952
a(lp4257
S'As'
p4258
aS'we'
p4259
aS'seek'
p4260
aS'him'
p4261
aaa(lp4262
g3952
a(lp4263
S'And'
p4264
aS'our'
p4265
aS'love'
p4266
aS'is'
p4267
aS'always'
p4268
aS'in'
p4269
aS'response'
p4270
aS'to'
p4271
aS'his'
p4272
aS'love'
p4273
aaa(lp4274
g3952
a(lp4275
S'And'
p4276
aS'its'
p4277
aS'the'
p4278
aS'assurance'
p4279
aS'that'
p4280
aS'your'
p4281
aS'God'
p4282
aS'loves'
p4283
aS'you'
p4284
aaa(lp4285
g3952
a(lp4286
S'that'
p4287
aS'he'
p4288
aS'seeks'
p4289
aS'you'
p4290
aaa(lp4291
g3952
a(lp4292
S'that'
p4293
aS'hes'
p4294
aS'with'
p4295
aS'you'
p4296
aaa(lp4297
g3952
a(lp4298
S'That'
p4299
aS'he'
p4300
aS'comes'
p4301
aS'to'
p4302
aS'you'
p4303
aaa(lp4304
g3952
a(lp4305
S'Its'
p4306
aS'this'
p4307
aS'assurance'
p4308
aaa(lp4309
g3952
a(lp4310
S'that'
p4311
aS'draws'
p4312
aS'you'
p4313
aS'to'
p4314
aS'repentance'
p4315
aaa(lp4316
g3952
a(lp4317
S'and'
p4318
aS'draws'
p4319
aS'you'
p4320
aS'to'
p4321
aS'faith'
p4322
aaa(lp4323
g3952
a(lp4324
S'and'
p4325
aS'draws'
p4326
aS'you'
p4327
aS'to'
p4328
aS'himself'
p4329
aaa(lp4330
g3952
a(lp4331
S'Um'
p4332
aaa(lp4333
g3952
a(lp4334
S'the'
p4335
aS'uh'
p4336
aaa(lp4337
g3952
a(lp4338
g874
aaa(lp4339
g3952
a(lp4340
S'salvation'
p4341
aS'is'
p4342
aS'of'
p4343
aS'the'
p4344
aS'Lord'
p4345
aaa(lp4346
g3952
a(lp4347
S'And'
p4348
aS'uh'
p4349
aaa(lp4350
g3952
a(lp4351
S'its'
p4352
aS'the'
p4353
aS'Lords'
p4354
aS'love'
p4355
aaa(lp4356
g3952
a(lp4357
S'who'
p4358
aS'quickens'
p4359
aS'your'
p4360
aS'love'
p4361
aaa(lp4362
g3952
a(lp4363
S'Well'
p4364
aaa(lp4365
g3952
a(lp4366
S'Im'
p4367
aS'not'
p4368
aS'going'
p4369
aS'to'
p4370
aS'say'
p4371
aaa(lp4372
g3952
a(lp4373
S'uh'
p4374
aS'th'
p4375
aS'the'
p4376
aS'rest'
p4377
aS'of'
p4378
aS'the'
p4379
aS'things'
p4380
ag9
ag9
aS'had'
p4381
aS'in'
p4382
aS'mind'
p4383
aS'to'
p4384
aS'say'
p4385
aaa(lp4386
g3952
a(lp4387
S'But'
p4388
aaa(lp4389
g3952
a(lp4390
S'uh'
p4391
ag9
aaa(lp4392
g3952
a(lp4393
S'you'
p4394
aS'can'
p4395
aS'fill'
p4396
aS'out'
p4397
aS'the'
p4398
aS'talk'
p4399
aS'for'
p4400
aS'me'
p4401
aaa(lp4402
g3952
a(lp4403
S'would'
p4404
aS'you'
p4405
aS'please'
p4406
aS'sometime'
p4407
aaa(lp4408
g3952
a(lp4409
S'the'
p4410
aS'commitment'
p4411
aS'of'
p4412
aS'love'
p4413
aaa(lp4414
g3952
a(lp4415
S'the'
p4416
aS'obedience'
p4417
aS'of'
p4418
aS'love'
p4419
aaa(lp4420
g3952
a(lp4421
S'If'
p4422
aS'you'
p4423
aS'love'
p4424
aS'me'
p4425
aS'keep'
p4426
aS'my'
p4427
aS'commandments'
p4428
aaa(lp4429
g3952
a(lp4430
S'Um'
p4431
aaa(lp4432
g3952
a(lp4433
S'remember'
p4434
aaa(lp4435
g3952
a(lp4436
S'uh'
p4437
aS'Marys'
p4438
aS'adoration'
p4439
aaa(lp4440
g3952
a(lp4441
S'Uh'
p4442
aS'when'
p4443
aS'she'
p4444
aS'uh'
p4445
aS'brought'
p4446
aS'the'
p4447
aS'spikenard'
p4448
aaa(lp4449
g3952
a(lp4450
S'and'
p4451
aS'uh'
p4452
aaa(lp4453
g3952
a(lp4454
S'opened'
p4455
aS'it'
p4456
aS'and'
p4457
aS'poured'
p4458
aS'it'
p4459
aS'out'
p4460
aS'on'
p4461
aS'the'
p4462
aS'feet'
p4463
aS'of'
p4464
aS'Jesus'
p4465
aaa(lp4466
g3952
a(lp4467
S'just'
p4468
aS'before'
p4469
aS'he'
p4470
aS'went'
p4471
aS'to'
p4472
aS'the'
p4473
aS'cross'
p4474
aaa(lp4475
g3952
a(lp4476
S'And'
p4477
aS'Judas'
p4478
aS'criticized'
p4479
aS'her'
p4480
aS'remember'
p4481
aaa(lp4482
g3952
a(lp4483
S'Uh'
p4484
aS'because'
p4485
aaa(lp4486
g3952
a(lp4487
S'he'
p4488
aS'said'
p4489
aaa(lp4490
g3952
a(lp4491
S'this'
p4492
aS'could'
p4493
aS'have'
p4494
aS'been'
p4495
aS'given'
p4496
aS'to'
p4497
aS'the'
p4498
aS'poor'
p4499
aaa(lp4500
g3952
a(lp4501
S'uh'
p4502
aaa(lp4503
g3952
a(lp4504
S'he'
p4505
aS'he'
p4506
aS'he'
p4507
aS'was'
p4508
aS'the'
p4509
aS'first'
p4510
aS'oldfashioned'
p4511
aS'liberal'
p4512
aaa(lp4513
g3952
a(lp4514
S'Dont'
p4515
aS'worship'
p4516
aS'Jesus'
p4517
aaa(lp4518
g3952
a(lp4519
S'but'
p4520
aS'help'
p4521
aS'the'
p4522
aS'poor'
p4523
aaa(lp4524
g3952
a(lp4525
S'Uh'
p4526
aaa(lp4527
g3952
a(lp4528
S'but'
p4529
aS'uh'
p4530
aaa(lp4531
S'MANY'
p4532
a(lp4533
aa(lp4534
S'JEFF'
p4535
a(lp4536
S'Uh'
p4537
ag2992
aS'you'
p4538
aS'see'
p4539
aaa(lp4540
g4535
a(lp4541
S'uh'
p4542
aaa(lp4543
g4535
a(lp4544
S'uh'
p4545
aaa(lp4546
g4535
a(lp4547
g3256
aS'what'
p4548
aS'what'
p4549
aS'was'
p4550
aS'the'
p4551
aS'answer'
p4552
aaa(lp4553
g4535
a(lp4554
S'What'
p4555
aS'was'
p4556
aS'the'
p4557
aS'answer'
p4558
aS'that'
p4559
aS'Jesus'
p4560
aS'uh'
p4561
aS'gave'
p4562
aaa(lp4563
g4535
a(lp4564
S'Uh'
p4565
aaa(lp4566
g4535
a(lp4567
S'uh'
p4568
aaa(lp4569
g4535
a(lp4570
g1952
aS'let'
p4571
aS'her'
p4572
aS'do'
p4573
aS'this'
p4574
aaa(lp4575
g4535
a(lp4576
S'Let'
p4577
aS'her'
p4578
aS'keep'
p4579
aS'it'
p4580
aaa(lp4581
g4535
a(lp4582
S'Not'
p4583
aS'in'
p4584
aS'the'
p4585
aS'sense'
p4586
aS'of'
p4587
aS'preserving'
p4588
aS'the'
p4589
aS'ointment'
p4590
aaa(lp4591
g4535
a(lp4592
S'she'
p4593
aS'was'
p4594
aS'pouring'
p4595
aS'it'
p4596
aS'out'
p4597
aaa(lp4598
g4535
a(lp4599
S'but'
p4600
aS'in'
p4601
aS'the'
p4602
aS'sense'
p4603
aS'of'
p4604
aS'observing'
p4605
aS'it'
p4606
aaa(lp4607
g4535
a(lp4608
S'Observing'
p4609
ag273
ag273
aS'an'
p4610
aS'observance'
p4611
aS'against'
p4612
aS'his'
p4613
aS'burial'
p4614
aaa(lp4615
g4535
a(lp4616
S'Uh'
p4617
aS'so'
p4618
aaa(lp4619
g4535
a(lp4620
S'she'
p4621
aS'realized'
p4622
aS'what'
p4623
aS'his'
p4624
aS'death'
p4625
aS'meant'
p4626
aaa(lp4627
g4535
a(lp4628
S'and'
p4629
aS'she'
p4630
aS'realized'
p4631
aS'who'
p4632
aS'he'
p4633
aS'was'
p4634
aaa(lp4635
g4535
a(lp4636
S'He'
p4637
aS'said'
p4638
aS'the'
p4639
aS'poor'
p4640
aS'you'
p4641
aS'have'
p4642
aS'with'
p4643
aS'you'
p4644
aS'always'
p4645
aaa(lp4646
g4535
a(lp4647
S'but'
p4648
aS'me'
p4649
aaa(lp4650
g4535
a(lp4651
S'you'
p4652
aS'have'
p4653
aS'not'
p4654
aS'always'
p4655
aaa(lp4656
g4535
a(lp4657
S'A'
p4658
aS'tremendous'
p4659
aS'assurance'
p4660
aS'of'
p4661
aS'his'
p4662
aS'own'
p4663
aS'deity'
p4664
aaa(lp4665
g4535
a(lp4666
S'Who'
p4667
aS'else'
p4668
aS'could'
p4669
aS'say'
p4670
aS'something'
p4671
aS'like'
p4672
aS'that'
p4673
aaa(lp4674
g4535
a(lp4675
S'Hunh'
p4676
aaa(lp4677
g4535
a(lp4678
S'But'
p4679
aS'Jesus'
p4680
aS'said'
p4681
aS'it'
p4682
aaa(lp4683
g4535
a(lp4684
S'and'
p4685
aS'uh'
p4686
aaa(lp4687
g4535
a(lp4688
S'uh'
p4689
aS'you'
p4690
aS'see'
p4691
aS'what'
p4692
aS'that'
p4693
aS'says'
p4694
aS'to'
p4695
aS'us'
p4696
aaa(lp4697
g4535
a(lp4698
S'Uh'
p4699
aaa(lp4700
g4535
a(lp4701
S'if'
p4702
aS'our'
p4703
aS'Lord'
p4704
aS'were'
p4705
aS'here'
p4706
aaa(lp4707
g4535
a(lp4708
S'then'
p4709
aS'we'
p4710
aS'could'
p4711
aS'pour'
p4712
aS'out'
p4713
aS'perfume'
p4714
aS'on'
p4715
aS'his'
p4716
aS'feet'
p4717
aaa(lp4718
g4535
a(lp4719
S'Hes'
p4720
aS'not'
p4721
aS'here'
p4722
aaa(lp4723
g4535
a(lp4724
S'But'
p4725
aS'who'
p4726
aS'is'
p4727
aaa(lp4728
g4535
a(lp4729
S'So'
p4730
aS'whose'
p4731
aS'feet'
p4732
aS'can'
p4733
aS'we'
p4734
aS'anoint'
p4735
aaa(lp4736
g4535
a(lp4737
S'The'
p4738
aS'feet'
p4739
aS'of'
p4740
aS'the'
p4741
aS'poor'
p4742
aaa(lp4743
g4535
a(lp4744
S'in'
p4745
aS'his'
p4746
aS'name'
p4747
aaa(lp4748
g4535
a(lp4749
S'See'
p4750
aaa(lp4751
g4535
a(lp4752
S'Uh'
p4753
aaa(lp4754
g4535
a(lp4755
S'love'
p4756
aS'uh'
p4757
aS'uh'
p4758
aS'doesnt'
p4759
aS'mean'
p4760
aaa(lp4761
g4535
a(lp4762
g874
aS'climbing'
p4763
aS'up'
p4764
aS'Jacobs'
p4765
aS'ladder'
p4766
aS'to'
p4767
aS'the'
p4768
aS'heavenlies'
p4769
aaa(lp4770
g4535
a(lp4771
S'where'
p4772
aS'nobody'
p4773
aS'else'
p4774
aS'can'
p4775
aS'be'
p4776
aS'around'
p4777
aaa(lp4778
g4535
a(lp4779
S'The'
p4780
aS'love'
p4781
aS'of'
p4782
aS'God'
p4783
aS'is'
p4784
aS'experienced'
p4785
aS'in'
p4786
aS'the'
p4787
aS'community'
p4788
aS'of'
p4789
aS'the'
p4790
aS'saints'
p4791
aaa(lp4792
g4535
a(lp4793
S'its'
p4794
aS'experienced'
p4795
aS'as'
p4796
aS'we'
p4797
aS'all'
p4798
aS'reached'
p4799
aS'out'
p4800
aaa(lp4801
g4535
a(lp4802
S'reach'
p4803
aS'out'
p4804
aaa(lp4805
g4535
a(lp4806
S'to'
p4807
aS'the'
p4808
aS'breadth'
p4809
aaa(lp4810
g4535
a(lp4811
S'and'
p4812
aS'the'
p4813
aS'length'
p4814
aaa(lp4815
g4535
a(lp4816
S'and'
p4817
aS'the'
p4818
aS'height'
p4819
aaa(lp4820
g4535
a(lp4821
S'and'
p4822
aS'the'
p4823
aS'depth'
p4824
aaa(lp4825
g4535
a(lp4826
S'and'
p4827
aS'the'
p4828
aS'love'
p4829
aS'of'
p4830
aS'God'
p4831
aS'is'
p4832
aS'experienced'
p4833
aaa(lp4834
g4535
a(lp4835
S'in'
p4836
aS'the'
p4837
aS'course'
p4838
aS'of'
p4839
aS'service'
p4840
aaa(lp4841
g4535
a(lp4842
g4658
ag9
aS'heard'
p4843
aS'you'
p4844
aS'describe'
p4845
aS'some'
p4846
aS'of'
p4847
aS'these'
p4848
aS'service'
p4849
aS'projects'
p4850
aaa(lp4851
g4535
a(lp4852
S'that'
p4853
aS'uh'
p4854
aaa(lp4855
g4535
a(lp4856
S'um'
p4857
aS'Intervarsity'
p4858
aS'is'
p4859
aS'involved'
p4860
aS'in'
p4861
aaa(lp4862
g4535
a(lp4863
S'and'
p4864
aS'friends'
p4865
aaa(lp4866
g4535
a(lp4867
S'um'
p4868
aaa(lp4869
g4535
a(lp4870
S'these'
p4871
aS'projects'
p4872
aaa(lp4873
g4535
a(lp4874
S'even'
p4875
aS'if'
p4876
aS'uh'
p4877
aS'theyre'
p4878
aS'working'
p4879
aS'about'
p4880
aS'rebuilding'
p4881
aS'old'
p4882
aS'houses'
p4883
aaa(lp4884
g4535
a(lp4885
S'or'
p4886
aS'whatever'
p4887
aaa(lp4888
g4535
a(lp4889
S'they'
p4890
aS'are'
p4891
aS'not'
p4892
aS'things'
p4893
aS'that'
p4894
aS'have'
p4895
aS'nothing'
p4896
aS'to'
p4897
aS'do'
p4898
aS'with'
p4899
aS'love'
p4900
aaa(lp4901
g4535
a(lp4902
S'They'
p4903
aS'are'
p4904
aS'works'
p4905
aS'of'
p4906
aS'love'
p4907
aaa(lp4908
g4535
a(lp4909
S'They'
p4910
aS'are'
p4911
aS'the'
p4912
aS'evidence'
p4913
aaa(lp4914
g4535
a(lp4915
S'of'
p4916
aS'that'
p4917
aS'love'
p4918
aS'of'
p4919
aS'God'
p4920
aaa(lp4921
g4535
a(lp4922
S'in'
p4923
aS'our'
p4924
aS'hearts'
p4925
aaa(lp4926
g4535
a(lp4927
S'Uh'
p4928
aS'they'
p4929
aS'are'
p4930
aS'the'
p4931
aS'fruit'
p4932
aaa(lp4933
g4535
a(lp4934
S'that'
p4935
aS'is'
p4936
aS'borne'
p4937
aaa(lp4938
g4535
a(lp4939
S'by'
p4940
aS'the'
p4941
aS'tree'
p4942
aaa(lp4943
g4535
a(lp4944
S'that'
p4945
aS'has'
p4946
aS'the'
p4947
aS'roots'
p4948
aS'down'
p4949
aS'into'
p4950
aS'the'
p4951
aS'water'
p4952
aS'of'
p4953
aS'Gods'
p4954
aS'refreshing'
p4955
aS'grace'
p4956
aS'and'
p4957
aS'love'
p4958
aaa(lp4959
g4535
a(lp4960
S'And'
p4961
aS'uh'
p4962
aaa(lp4963
g4535
a(lp4964
S'the'
p4965
aS'mystical'
p4966
aS'heights'
p4967
aS'of'
p4968
aS'Christian'
p4969
aS'devotion'
p4970
aaa(lp4971
g4535
a(lp4972
S'ought'
p4973
aS'never'
p4974
aS'to'
p4975
aS'be'
p4976
aS'separated'
p4977
aS'from'
p4978
aS'the'
p4979
aS'realities'
p4980
aaa(lp4981
g4535
a(lp4982
S'of'
p4983
aS'uh'
p4984
aS'Christian'
p4985
aS'service'
p4986
aaa(lp4987
g4535
a(lp4988
S'The'
p4989
aS'uh'
p4990
aaa(lp4991
g4535
a(lp4992
S'there'
p4993
aS'was'
p4994
ag273
aS'hymn'
p4995
aS'in'
p4996
aS'the'
p4997
aS'old'
p4998
aS'InterVarsity'
p4999
aS'hymnal'
p5000
aaa(lp5001
g4535
a(lp5002
S'its'
p5003
aS'not'
p5004
aS'in'
p5005
aS'the'
p5006
aS'new'
p5007
aS'one'
p5008
aaa(lp5009
g4535
a(lp5010
S'by'
p5011
aS'XX'
p5012
aS'XX'
p5013
aaa(lp5014
g4535
a(lp5015
g273
aS'hymn'
p5016
aS'that'
p5017
ag9
aS'love'
p5018
ag4000
aS'very'
p5019
aS'much'
p5020
aaa(lp5021
g4535
a(lp5022
S'Talks'
p5023
aS'about'
p5024
aS'how'
p5025
aS'we'
p5026
aS'go'
p5027
aS'with'
p5028
aS'Jesus'
p5029
aS'through'
p5030
aS'the'
p5031
aS'desert'
p5032
aaa(lp5033
g4535
a(lp5034
S'and'
p5035
aS'through'
p5036
aS'uh'
p5037
aaa(lp5038
g4535
a(lp5039
S'the'
p5040
aS'sufferings'
p5041
aaa(lp5042
g4535
a(lp5043
S'and'
p5044
aS'the'
p5045
aS'trials'
p5046
aS'of'
p5047
aS'this'
p5048
aS'life'
p5049
aaa(lp5050
g4535
a(lp5051
S'And'
p5052
aS'uh'
p5053
aaa(lp5054
g4535
a(lp5055
S'its'
p5056
aS'very'
p5057
aS'last'
p5058
aS'verse'
p5059
aS'is'
p5060
aS'uh'
p5061
aaa(lp5062
g4535
a(lp5063
S'READ'
p5064
aS'he'
p5065
aS'who'
p5066
aS'in'
p5067
aS'his'
p5068
aS'hour'
p5069
aS'of'
p5070
aS'sorrow'
p5071
aaa(lp5072
g4535
a(lp5073
S'bore'
p5074
aS'the'
p5075
aS'curse'
p5076
aS'alone'
p5077
aaa(lp5078
g4535
a(lp5079
g9
aS'who'
p5080
aS'through'
p5081
aS'the'
p5082
aS'lonely'
p5083
aS'desert'
p5084
aaa(lp5085
g4535
a(lp5086
S'trod'
p5087
aS'where'
p5088
aS'he'
p5089
aS'had'
p5090
aS'gone'
p5091
aaa(lp5092
g4535
a(lp5093
S'He'
p5094
aS'and'
p5095
ag9
aaa(lp5096
g4535
a(lp5097
S'in'
p5098
aS'that'
p5099
aS'bright'
p5100
aS'glory'
p5101
aaa(lp5102
S'AUD'
p5103
a(lp5104
aa(lp5105
S'JEFF'
p5106
a(lp5107
S'one'
p5108
aS'deep'
p5109
aS'joy'
p5110
aS'shall'
p5111
aS'share'
p5112
aaa(lp5113
g5106
a(lp5114
S'Mine'
p5115
aaa(lp5116
g5106
a(lp5117
S'to'
p5118
aS'be'
p5119
aS'forever'
p5120
aS'with'
p5121
aS'him'
p5122
aaa(lp5123
g5106
a(lp5124
S'His'
p5125
aaa(lp5126
g5106
a(lp5127
S'My'
p5128
aS'friends'
p5129
aaa(lp5130
g5106
a(lp5131
S'in'
p5132
aS'the'
p5133
aS'wonder'
p5134
aS'of'
p5135
aS'Gods'
p5136
aS'love'
p5137
aaa(lp5138
g5106
a(lp5139
S'Hes'
p5140
aS'pleased'
p5141
aS'with'
p5142
aS'you'
p5143
aaa(lp5144
g5106
a(lp5145
S'God'
p5146
aS'who'
p5147
aS'looked'
p5148
aS'at'
p5149
aS'his'
p5150
aS'own'
p5151
aS'Son'
p5152
aaa(lp5153
g5106
a(lp5154
S'and'
p5155
aS'his'
p5156
aS'heart'
p5157
aS'rejoiced'
p5158
aaa(lp5159
g5106
a(lp5160
S'His'
p5161
aS'heart'
p5162
aS'rejoices'
p5163
aS'this'
p5164
aS'morning'
p5165
aaa(lp5166
g5106
a(lp5167
S'In'
p5168
aS'your'
p5169
aS'praise'
p5170
aaa(lp5171
g5106
a(lp5172
S'In'
p5173
aS'your'
p5174
aS'worship'
p5175
aaa(lp5176
g5106
a(lp5177
S'In'
p5178
aS'the'
p5179
aS'service'
p5180
aS'of'
p5181
aS'your'
p5182
aS'hands'
p5183
aaa(lp5184
g5106
a(lp5185
S'In'
p5186
aS'the'
p5187
aS'love'
p5188
aS'of'
p5189
aS'your'
p5190
aS'heart'
p5191
aaa(lp5192
g5106
a(lp5193
S'Shall'
p5194
aS'we'
p5195
aS'pray'
p5196
aaa(lp5197
g5106
a(lp5198
S'Our'
p5199
aS'heavenly'
p5200
aS'Father'
p5201
aaa(lp5202
g5106
a(lp5203
S'we'
p5204
aS'annot'
p5205
aS'find'
p5206
aS'words'
p5207
aS'to'
p5208
aS'express'
p5209
aS'our'
p5210
aS'love'
p5211
aS'for'
p5212
aS'you'
p5213
aaa(lp5214
g5106
a(lp5215
S'because'
p5216
aS'we'
p5217
aS'are'
p5218
aS'overwhelmed'
p5219
aS'by'
p5220
aS'your'
p5221
aS'love'
p5222
aS'for'
p5223
aS'us'
p5224
aaa(lp5225
g5106
a(lp5226
S'Lord'
p5227
aS'Jesus'
p5228
aaa(lp5229
g5106
a(lp5230
S'how'
p5231
aS'may'
p5232
aS'we'
p5233
aS'speak'
p5234
aS'to'
p5235
aS'you'
p5236
aaa(lp5237
g5106
a(lp5238
S'of'
p5239
aS'that'
p5240
aS'which'
p5241
aS'you'
p5242
aS'give'
p5243
aS'to'
p5244
aS'us'
p5245
aaa(lp5246
g5106
a(lp5247
S'Spirit'
p5248
aS'of'
p5249
aS'God'
p5250
aaa(lp5251
g5106
a(lp5252
S'how'
p5253
aS'we'
p5254
aS'praise'
p5255
aS'you'
p5256
aaa(lp5257
g5106
a(lp5258
S'that'
p5259
aS'when'
p5260
aS'we'
p5261
aS'do'
p5262
aS'not'
p5263
aS'know'
p5264
aS'what'
p5265
aS'to'
p5266
aS'pray'
p5267
aS'as'
p5268
aS'we'
p5269
aS'should'
p5270
aaa(lp5271
g5106
a(lp5272
S'you'
p5273
aS'make'
p5274
aS'intercession'
p5275
aS'for'
p5276
aS'us'
p5277
aaa(lp5278
g5106
a(lp5279
S'with'
p5280
aS'groanings'
p5281
aS'that'
p5282
aS'cannot'
p5283
aS'be'
p5284
aS'uttered'
p5285
aaa(lp5286
g5106
a(lp5287
S'And'
p5288
aS'o'
p5289
aS'Lord'
p5290
aaa(lp5291
g5106
a(lp5292
S'receive'
p5293
aS'we'
p5294
aS'pray'
p5295
aS'this'
p5296
aS'morning'
p5297
aaa(lp5298
g5106
a(lp5299
S'the'
p5300
aS'incense'
p5301
aS'of'
p5302
aS'our'
p5303
aS'love'
p5304
aS'for'
p5305
aS'you'
p5306
aaa(lp5307
S'AUD'
p5308
a(lp5309
aa(lp5310
S'JEFFand'
p5311
a(lp5312
S'forbid'
p5313
aS'Lord'
p5314
aaa(lp5315
g5311
a(lp5316
S'that'
p5317
aS'this'
p5318
aS'should'
p5319
aS'be'
p5320
aS'just'
p5321
ag273
aS'passing'
p5322
aS'emotion'
p5323
aS'in'
p5324
aS'our'
p5325
aS'hearts'
p5326
aaa(lp5327
g5311
a(lp5328
S'uh'
p5329
aS'burn'
p5330
aS'it'
p5331
aS'upon'
p5332
aS'the'
p5333
aS'deepest'
p5334
aS'recesses'
p5335
aS'of'
p5336
aS'our'
p5337
aS'being'
p5338
aaa(lp5339
g5311
a(lp5340
S'Make'
p5341
aS'us'
p5342
aS'Lord'
p5343
aS'your'
p5344
aS'servants'
p5345
aaa(lp5346
g5311
a(lp5347
S'Your'
p5348
aS'servants'
p5349
aS'in'
p5350
aS'love'
p5351
aaa(lp5352
g5311
a(lp5353
S'We'
p5354
aS'ask'
p5355
aS'it'
p5356
aS'in'
p5357
aS'Jesuss'
p5358
aS'name'
p5359
aaa(lp5360
g5311
a(lp5361
S'amen'
p5362
aaa(lp5363
S'DAN'
p5364
a(lp5365
S'Doctor'
p5366
aS'Mosely'
p5367
aS'thank'
p5368
aS'you'
p5369
aaa(lp5370
S'JEFF'
p5371
a(lp5372
aa(lp5373
S'DAN'
p5374
a(lp5375
S'for'
p5376
aaa(lp5377
S'AUDYeah'
p5378
a(lp5379
aa(lp5380
S'DAN'
p5381
a(lp5382
S'coming'
p5383
aS'and'
p5384
aS'speaking'
p5385
aS'to'
p5386
aS'us'
p5387
aaa(lp5388
S'JEFF'
p5389
a(lp5390
S'N_yeah'
p5391
aaa(lp5392
S'MANY'
p5393
a(lp5394
aa.