(lp0
(lp1
S'BRENDABut'
p2
a(lp3
S'anyway'
p4
aaa(lp5
S'ANDREW'
p6
a(lp7
S'Hm'
p8
aaa(lp9
S'BRENDAHes'
p10
a(lp11
S'a'
p12
aS'good'
p13
aS'kid'
p14
aaa(lp15
S'ANDREW'
p16
a(lp17
S'N_Yeah'
p18
aaa(lp19
g16
a(lp20
S'Well'
p21
aS'listen'
p22
aaa(lp23
g16
a(lp24
S'You'
p25
aS'have'
p26
ag12
aS'merry'
p27
aS'Christmas'
p28
aaa(lp29
S'BRENDAWell'
p30
a(lp31
S'you'
p32
aS'too'
p33
aaa(lp34
S'ANDREWWho'
p35
a(lp36
S'else'
p37
aS'is'
p38
aS'there'
p39
aaa(lp40
S'BRENDA'
p41
a(lp42
S'Hunh'
p43
aaa(lp44
S'ANDREW'
p45
a(lp46
S'Who'
p47
aS'else'
p48
aS'is'
p49
aS'there'
p50
aaa(lp51
S'BRENDA'
p52
a(lp53
S'I'
p54
aS'dont'
p55
aS'know'
p56
aaa(lp57
g52
a(lp58
g54
aS'dont'
p59
aS'know'
p60
aS'who'
p61
aS'youve'
p62
aS'talked'
p63
aS'to'
p64
aS'or'
p65
aS'not'
p66
aS'X'
p67
aS'yet'
p68
ag67
aaa(lp69
S'ANDREWI'
p70
a(lp71
S'talked'
p72
aS'to'
p73
aS'Jenny'
p74
aaa(lp75
g70
a(lp76
S'Danny'
p77
aaa(lp78
g70
a(lp79
S'and'
p80
aS'now'
p81
aS'you'
p82
aaa(lp83
g70
a(lp84
S'Now'
p85
aS'who'
p86
aS'else'
p87
aaa(lp88
S'BRENDAOh'
p89
a(lp90
aa(lp91
g89
a(lp92
S'Heres'
p93
aS'Darlene'
p94
aaa(lp95
S'ANDREWOkay'
p96
a(lp97
aa(lp98
S'BRENDAOkay'
p99
a(lp100
aa(lp101
g99
a(lp102
S'Shes'
p103
aS'coming'
p104
aS'out'
p105
aS'here'
p106
aS'and'
p107
aS'making'
p108
aS'herself'
p109
aS'comfortable'
p110
aaa(lp111
g99
a(lp112
S'And'
p113
aaa(lp114
g99
a(lp115
S'ha'
p116
aS'ha'
p117
aaa(lp118
g99
a(lp119
S'Here'
p120
aS'she'
p121
aS'is'
p122
aaa(lp123
S'ANDREWOkay'
p124
a(lp125
aa(lp126
S'BRENDAHave'
p127
a(lp128
g12
aS'merry'
p129
aS'Christmas'
p130
aaa(lp131
S'ANDREW'
p132
a(lp133
S'Merry'
p134
aS'Christmas'
p135
aaa(lp136
S'DARLENEI'
p137
a(lp138
S'didnt'
p139
aS'wanna'
p140
aS'sit'
p141
aS'on'
p142
aS'all'
p143
aS'the'
p144
aS'birdie'
p145
aS'poop'
p146
aS'on'
p147
aS'the'
p148
aaa(lp149
g137
a(lp150
S'on'
p151
aS'the'
p152
aS'swing'
p153
aaa(lp154
g137
a(lp155
S'Yeah'
p156
ag67
aS'possibly'
p157
ag67
aaa(lp158
S'ANDREWYou'
p159
a(lp160
S'what'
p161
aaa(lp162
g159
a(lp163
S'Oh'
p164
aaa(lp165
g159
a(lp166
S'youre'
p167
aS'out'
p168
aS'on'
p169
aS'the'
p170
aS'swing'
p171
aaa(lp172
S'DARLENEOh'
p173
a(lp174
S'the'
p175
aS'birdie'
p176
aaa(lp177
g173
a(lp178
S'Yeah'
p179
aaa(lp180
S'ANDREW'
p181
a(lp182
aa(lp183
S'DARLENEYeah'
p184
a(lp185
aa(lp186
g184
a(lp187
S'you'
p188
aS'got'
p189
aS'birdie'
p190
aS'poop'
p191
aaa(lp192
g184
a(lp193
S'Its'
p194
aS'dry'
p195
aaa(lp196
g184
a(lp197
S'Its'
p198
aS'just'
p199
aS'like'
p200
ag12
aS'chalk'
p201
aS'mark'
p202
aaa(lp203
S'BRENDA'
p204
a(lp205
aa(lp206
S'ANDREW'
p207
a(lp208
aa(lp209
S'DARLENE'
p210
a(lp211
aa(lp212
g210
a(lp213
S'Uh'
p214
aaa(lp215
S'ANDREW'
p216
a(lp217
S'Well'
p218
aaa(lp219
g216
a(lp220
S'merry'
p221
aS'Christmas'
p222
aaa(lp223
S'DARLENEMerry'
p224
a(lp225
S'Christmas'
p226
aaa(lp227
S'ANDREW'
p228
a(lp229
S'So'
p230
aS'what'
p231
aS'you'
p232
aS'been'
p233
aS'doing'
p234
aaa(lp235
S'DARLENE'
p236
a(lp237
S'Oh'
p238
aaa(lp239
g236
a(lp240
S'running'
p241
aS'from'
p242
aS'phone'
p243
aS'to'
p244
aS'phone'
p245
aaa(lp246
g236
a(lp247
S'answering'
p248
aS'it'
p249
aaa(lp250
g236
a(lp251
S'When'
p252
aS'every'
p253
aS'time'
p254
aS'you'
p255
aS'hung'
p256
aS'up'
p257
aaa(lp258
S'ANDREW'
p259
a(lp260
S'What'
p261
aaa(lp262
S'DARLENE'
p263
a(lp264
S'Didnt'
p265
aS'you'
p266
aS'call'
p267
aaa(lp268
g263
a(lp269
S'b'
p270
aS'd'
p271
aS'have'
p272
aS'to'
p273
aS'dial'
p274
aS'about'
p275
aS'four'
p276
aS'or'
p277
aS'five'
p278
aS'times'
p279
aaa(lp280
S'ANDREW'
p281
a(lp282
g54
aS'sta'
p283
aaa(lp284
g281
a(lp285
S'And'
p286
aS'no'
p287
aS'one'
p288
aS'ever'
p289
aS'picked'
p290
aS'it'
p291
aS'up'
p292
aaa(lp293
g281
a(lp294
S'It'
p295
aS'rang'
p296
aaa(lp297
g281
a(lp298
S'Itd'
p299
aS'ring'
p300
aS'ten'
p301
aS'times'
p302
aaa(lp303
g281
a(lp304
S'and'
p305
aS'then'
p306
aS'quit'
p307
aaa(lp308
S'DARLENE'
p309
a(lp310
S'Oh'
p311
aaa(lp312
g309
a(lp313
S'See'
p314
aaa(lp315
g309
a(lp316
S'something'
p317
aS'was'
p318
aS'wrong'
p319
aaa(lp320
g309
a(lp321
S'you'
p322
aS'need'
p323
aS'to'
p324
aS'call'
p325
aS'the'
p326
aS'telephone'
p327
aS'company'
p328
aS'then'
p329
aaa(lp330
g309
a(lp331
S'Because'
p332
aaa(lp333
g309
a(lp334
g54
aaa(lp335
g309
a(lp336
S'either'
p337
aS'me'
p338
aS'or'
p339
aS'ans'
p340
aaa(lp341
g309
a(lp342
S'uh'
p343
aS'Jenn'
p344
aS'answered'
p345
aS'it'
p346
aS'about'
p347
aS'five'
p348
aS'times'
p349
aaa(lp350
S'ANDREWYou'
p351
a(lp352
S'did'
p353
aaa(lp354
S'DARLENEYeah'
p355
a(lp356
aa(lp357
g355
a(lp358
S'The'
p359
aS'phone'
p360
aaa(lp361
S'ANDREWCause'
p362
a(lp363
S'we'
p364
aS'literally'
p365
aS'started'
p366
aaa(lp367
g362
a(lp368
S'the'
p369
aS'minute'
p370
aS'Darlene'
p371
aS's'
p372
aaa(lp373
g362
a(lp374
S'PAR'
p375
aS'Uh'
p376
aaa(lp377
g362
a(lp378
S'not'
p379
aS'Darlene'
p380
aS'PAR'
p381
aaa(lp382
g362
a(lp383
S'Janine'
p384
aS'said'
p385
aaa(lp386
g362
a(lp387
S'call'
p388
aS'at'
p389
aS'one'
p390
aS'thirty'
p391
aaa(lp392
g362
a(lp393
S'Okay'
p394
aaa(lp395
S'DARLENEYeah'
p396
a(lp397
aa(lp398
S'ANDREW'
p399
a(lp400
S'And'
p401
aaa(lp402
g399
a(lp403
S'about'
p404
aS'every'
p405
aS'tenth'
p406
aS'time'
p407
aaa(lp408
g399
a(lp409
S'wed'
p410
aS'get'
p411
aS'past'
p412
aS'the'
p413
aS'busy'
p414
aS'circuit'
p415
aS'thing'
p416
aaa(lp417
S'DARLENE'
p418
a(lp419
S'Yeah'
p420
aaa(lp421
S'ANDREW'
p422
a(lp423
S'But'
p424
aS'we'
p425
aS'got'
p426
aS'through'
p427
aS'now'
p428
aaa(lp429
g422
a(lp430
S'Whats'
p431
aS'the'
p432
aS'difference'
p433
aaa(lp434
S'DARLENE'
p435
a(lp436
S'The'
p437
aS'busy'
p438
aS'circuit'
p439
aS'time'
p440
aaa(lp441
S'ANDREWSi'
p442
a(lp443
aa(lp444
S'DARLENEand'
p445
a(lp446
S'then'
p447
aaa(lp448
g445
a(lp449
S'did'
p450
aS'you'
p451
aS'get'
p452
ag12
aS'busy'
p453
aS'signal'
p454
aS'here'
p455
aS'sometimes'
p456
aaa(lp457
S'ANDREW'
p458
a(lp459
S'Sometimes'
p460
aaa(lp461
S'DARLENEYeah'
p462
a(lp463
aa(lp464
g462
a(lp465
S'because'
p466
aaa(lp467
g462
a(lp468
S'Doug'
p469
aS'called'
p470
aS'at'
p471
aS'twelve'
p472
aS'thirty'
p473
aS'and'
p474
aaa(lp475
g462
a(lp476
g54
aS'think'
p477
aS'it'
p478
aS'was'
p479
aS'quarter'
p480
aS'to'
p481
aS'two'
p482
aS'before'
p483
aS'we'
p484
aS'got'
p485
aS'off'
p486
aaa(lp487
S'ANDREW'
p488
a(lp489
S'But'
p490
aS'we'
p491
aS'called'
p492
aS'until'
p493
aaa(lp494
g488
a(lp495
S'we'
p496
aS'called'
p497
aS'from'
p498
aaa(lp499
g488
a(lp500
S'm'
p501
aS'uh'
p502
aS'one'
p503
aS'thirty'
p504
aaa(lp505
g488
a(lp506
S'until'
p507
aS'two'
p508
aS'your'
p509
aS'time'
p510
aaa(lp511
g488
a(lp512
g54
aS'literally'
p513
aS'sat'
p514
aS'there'
p515
aaa(lp516
g488
a(lp517
S'and'
p518
aaa(lp519
g488
a(lp520
S'punched'
p521
aS'it'
p522
aS'out'
p523
aaa(lp524
g488
a(lp525
S'and'
p526
aS'r'
p527
aaa(lp528
g488
a(lp529
S'and'
p530
aS'hit'
p531
aS'redial'
p532
aaa(lp533
g488
a(lp534
S'Every'
p535
aS'time'
p536
aaa(lp537
S'DARLENEWell'
p538
a(lp539
S'until'
p540
aS'quarter'
p541
aS'to'
p542
aS'two'
p543
aS'the'
p544
aS'line'
p545
aS'was'
p546
aS'busy'
p547
aaa(lp548
S'ANDREW'
p549
a(lp550
S'But'
p551
aS'after'
p552
aS'that'
p553
aS'we'
p554
aS'never'
p555
aS'got'
p556
aS'through'
p557
aaa(lp558
g549
a(lp559
S'Thats'
p560
aS'what'
p561
ag54
aS'cant'
p562
aS'figure'
p563
aS'out'
p564
aaa(lp565
S'DARLENEOh'
p566
a(lp567
g54
aS'dont'
p568
aS'know'
p569
aaa(lp570
S'ANDREW'
p571
a(lp572
g54
aS'mean'
p573
aaa(lp574
g571
a(lp575
S'literally'
p576
aaa(lp577
g571
a(lp578
S'my'
p579
aS'thumb'
p580
aS'was'
p581
aS'sore'
p582
aS'fro'
p583
aaa(lp584
S'CINDYWe'
p585
a(lp586
S'tried'
p587
aS'Brendas'
p588
aaa(lp589
g585
a(lp590
S'and'
p591
aS'got'
p592
aS'them'
p593
aaa(lp594
S'ANDREW'
p595
a(lp596
S'In'
p597
aS'fact'
p598
aaa(lp599
g595
a(lp600
S'we'
p601
aS'we'
p602
aS'were'
p603
aS'wondering'
p604
aS'if'
p605
aS'our'
p606
aS'machine'
p607
aS'was'
p608
aS'working'
p609
aaa(lp610
g595
a(lp611
S'so'
p612
aS'we'
p613
aS'called'
p614
aS'Brendas'
p615
aaa(lp616
g595
a(lp617
S'and'
p618
aS'Mason'
p619
aaa(lp620
g595
a(lp621
S'is'
p622
aS'on'
p623
aS'the'
p624
aS'answering'
p625
aS'machine'
p626
aaa(lp627
S'DARLENEYeah'
p628
a(lp629
aa(lp630
S'ANDREW'
p631
a(lp632
S'And'
p633
aS'we'
p634
aS'said'
p635
aaa(lp636
g631
a(lp637
S'Yep'
p638
aaa(lp639
g631
a(lp640
S'worked'
p641
aaa(lp642
g631
a(lp643
S'and'
p644
aS'hung'
p645
aS'up'
p646
aaa(lp647
g631
a(lp648
S'We'
p649
aS'didnt'
p650
aS'leave'
p651
ag12
aS'message'
p652
aaa(lp653
g631
a(lp654
S'we'
p655
aS'we'
p656
aS'were'
p657
aaa(lp658
g631
a(lp659
S'You'
p660
aS'know'
p661
aaa(lp662
g631
a(lp663
S'We'
p664
aS'were'
p665
aS'concerned'
p666
aS'we'
p667
aS'couldnt'
p668
aS'get'
p669
aS'through'
p670
aaa(lp671
g631
a(lp672
S'But'
p673
aS'we'
p674
aS'never'
p675
aaa(lp676
S'DARLENEUh'
p677
a(lp678
aa(lp679
g677
a(lp680
S'W'
p681
aS'it'
p682
aS'was'
p683
aS'probably'
p684
aS'something'
p685
aS'with'
p686
aS'the'
p687
aS'telephone'
p688
aS'lines'
p689
aS'here'
p690
aS'in'
p691
aS'San'
p692
aS'Antonio'
p693
aS'then'
p694
aaa(lp695
g677
a(lp696
S'Because'
p697
aS'uh'
p698
aaa(lp699
S'ANDREWHunh'
p700
a(lp701
aa(lp702
S'DARLENE'
p703
a(lp704
S'Well'
p705
aaa(lp706
S'ANDREWSo'
p707
a(lp708
S'you'
p709
aS'answered'
p710
aS'it'
p711
aaa(lp712
g707
a(lp713
S'And'
p714
aS'no'
p715
aS'one'
p716
aS'was'
p717
aS'there'
p718
aaa(lp719
S'DARLENE'
p720
a(lp721
S'Yeah'
p722
aaa(lp723
g720
a(lp724
S'me'
p725
aS'and'
p726
aS'Jenn'
p727
aS'both'
p728
aaa(lp729
g720
a(lp730
S'and'
p731
aS'then'
p732
ag54
aS'says'
p733
aaa(lp734
g720
a(lp735
S'well'
p736
aS'dont'
p737
aS'answer'
p738
aS'this'
p739
aS'time'
p740
aaa(lp741
g720
a(lp742
S'let'
p743
aS'it'
p744
aS'ring'
p745
ag12
aS'couple'
p746
aS'times'
p747
aaa(lp748
g720
a(lp749
S'see'
p750
aS'cause'
p751
aS'wed'
p752
aS'answer'
p753
aS'it'
p754
aaa(lp755
g720
a(lp756
S'and'
p757
ag54
aS'could'
p758
aS'hear'
p759
aS'you'
p760
aaa(lp761
S'ANDREW'
p762
a(lp763
S'You'
p764
aS'could'
p765
aS'hear'
p766
aS'me'
p767
aaa(lp768
S'DARLENEI'
p769
a(lp770
S'heard'
p771
aS'you'
p772
aaa(lp773
g769
a(lp774
g54
aS'heard'
p775
aS'you'
p776
aS'say'
p777
aS'something'
p778
aaa(lp779
g769
a(lp780
S'uh'
p781
aaa(lp782
g769
a(lp783
S'what'
p784
ag271
aS'what'
p785
aS'did'
p786
aS'you'
p787
aS'say'
p788
aaa(lp789
g769
a(lp790
S'Uh'
p791
aaa(lp792
g769
a(lp793
S'S'
p794
aS'uh'
p795
aS'you'
p796
aS'said'
p797
aS'something'
p798
aS'to'
p799
aS'the'
p800
aS'effect'
p801
aaa(lp802
g769
a(lp803
S'somethings'
p804
aS'wrong'
p805
aS'here'
p806
aaa(lp807
g769
a(lp808
g54
aS'think'
p809
aS'thats'
p810
aS'exactly'
p811
aS'what'
p812
aS'you'
p813
ag271
aaa(lp814
g769
a(lp815
S'Somethings'
p816
aS'wrong'
p817
aS'here'
p818
aaa(lp819
S'ANDREW'
p820
a(lp821
S'Hunh'
p822
aaa(lp823
S'DARLENE'
p824
a(lp825
S'Am'
p826
aaa(lp827
g824
a(lp828
S'you'
p829
aS'mustve'
p830
aS'been'
p831
aS'telling'
p832
aS'Cindy'
p833
aS'or'
p834
aaa(lp835
g824
a(lp836
S'Lisa'
p837
aS'or'
p838
aS'somebody'
p839
aaa(lp840
S'ANDREW'
p841
a(lp842
S'Mhm'
p843
aaa(lp844
S'DARLENE'
p845
a(lp846
S'And'
p847
aS'then'
p848
aaa(lp849
g845
a(lp850
S'uh'
p851
aaa(lp852
g845
a(lp853
S'we'
p854
aS'hung'
p855
aS'up'
p856
aS'again'
p857
aaa(lp858
g845
a(lp859
S'and'
p860
aS'it'
p861
aS'rang'
p862
aS'again'
p863
aaa(lp864
g845
a(lp865
S'and'
p866
ag54
aS'said'
p867
aS'let'
p868
aS'me'
p869
aS'run'
p870
aS'get'
p871
aS'it'
p872
aS'in'
p873
aS'the'
p874
aS'bedroom'
p875
aaa(lp876
g845
a(lp877
S'And'
p878
aaa(lp879
g845
a(lp880
S'maybe'
p881
aS'its'
p882
aS'something'
p883
aS'with'
p884
aS'this'
p885
aS'phone'
p886
aaa(lp887
S'ANDREW'
p888
a(lp889
S'Yeah'
p890
aaa(lp891
S'DARLENE'
p892
a(lp893
S'And'
p894
aaa(lp895
g892
a(lp896
g54
aS'got'
p897
aS'to'
p898
aS'the'
p899
aS'other'
p900
aS'phone'
p901
aaa(lp902
g892
a(lp903
S'and'
p904
aS'it'
p905
aS'was'
p906
aS'the'
p907
aS'same'
p908
aS'thing'
p909
aaa(lp910
S'ANDREW'
p911
a(lp912
S'Hm'
p913
aaa(lp914
g911
a(lp915
S'See'
p916
ag54
aS'never'
p917
aS'heard'
p918
aS'you'
p919
aaa(lp920
S'DARLENEYou'
p921
a(lp922
aa(lp923
g921
a(lp924
S'Well'
p925
ag54
aS'screamed'
p926
aS'one'
p927
aS'time'
p928
aaa(lp929
g921
a(lp930
S'Pretty'
p931
aS'loud'
p932
aaa(lp933
S'ANDREW'
p934
a(lp935
aa(lp936
S'DARLENE'
p937
a(lp938
S'Hoping'
p939
aS'youd'
p940
aS'just'
p941
aS'get'
p942
ag12
aS'hint'
p943
aS'of'
p944
aS'my'
p945
aS'voice'
p946
aaa(lp947
S'ANDREW'
p948
a(lp949
aa(lp950
S'DARLENEand'
p951
a(lp952
S'know'
p953
aaa(lp954
g951
a(lp955
S'something'
p956
aS'was'
p957
aS'wrong'
p958
aaa(lp959
g951
a(lp960
S'and'
p961
aS'maybe'
p962
aS'just'
p963
aS'try'
p964
aS'later'
p965
aaa(lp966
S'ANDREW'
p967
a(lp968
S'We'
p969
aS'tri'
p970
ag501
aaa(lp971
g967
a(lp972
S'My'
p973
aS'thumb'
p974
aS'was'
p975
aS'sore'
p976
aS'from'
p977
ag527
aaa(lp978
g967
a(lp979
g54
aS'says'
p980
aaa(lp981
g967
a(lp982
S'were'
p983
aS'gonna'
p984
aS'wait'
p985
ag12
aS'half'
p986
aS'hour'
p987
aaa(lp988
g967
a(lp989
S'Let'
p990
aS'my'
p991
aS'thumb'
p992
aS'heal'
p993
aaa(lp994
S'DARLENE'
p995
a(lp996
S'Do'
p997
aS'you'
p998
aS'have'
p999
ag12
aS'redial'
p1000
aS'on'
p1001
aS'your'
p1002
aS'phone'
p1003
aaa(lp1004
S'ANDREW'
p1005
a(lp1006
aa(lp1007
g1005
a(lp1008
S'Yeah'
p1009
aaa(lp1010
S'DARLENE'
p1011
a(lp1012
S'Yeah'
p1013
aaa(lp1014
g1011
a(lp1015
S'And'
p1016
aS'just'
p1017
aS'from'
p1018
aS'punching'
p1019
aS'redial'
p1020
aS'it'
p1021
aS'was'
p1022
aS'sore'
p1023
aaa(lp1024
S'ANDREW'
p1025
a(lp1026
S'Yeah'
p1027
aaa(lp1028
S'DARLENE'
p1029
a(lp1030
S'Mm'
p1031
aaa(lp1032
S'ANDREWI'
p1033
a(lp1034
S'mean'
p1035
ag54
ag54
ag54
aaa(lp1036
g1033
a(lp1037
S'If'
p1038
aS'you'
p1039
aaa(lp1040
g1033
a(lp1041
S'if'
p1042
aS'you'
p1043
aS'hit'
p1044
aS'the'
p1045
aS'button'
p1046
aaa(lp1047
g1033
a(lp1048
S'nn'
p1049
aaa(lp1050
g1033
a(lp1051
S'and'
p1052
aS'then'
p1053
aaa(lp1054
g1033
a(lp1055
S'you'
p1056
aS'know'
p1057
aaa(lp1058
g1033
a(lp1059
S'as'
p1060
aS'soon'
p1061
aS'as'
p1062
aS'you'
p1063
aS'know'
p1064
aS'its'
p1065
aS'uh'
p1066
aS'not'
p1067
ag12
aS'connect'
p1068
aaa(lp1069
g1033
a(lp1070
S'you'
p1071
aS'hit'
p1072
aS'uh'
p1073
aS'redial'
p1074
aaa(lp1075
S'DARLENE'
p1076
a(lp1077
S'Yeah'
p1078
aaa(lp1079
S'ANDREW'
p1080
a(lp1081
S'Uh'
p1082
aaa(lp1083
g1080
a(lp1084
S'it'
p1085
aS'goes'
p1086
aaa(lp1087
g1080
a(lp1088
S'and'
p1089
aS'uh'
p1090
aaa(lp1091
g1080
a(lp1092
S'BR'
p1093
aS'God'
p1094
aS'BR'
p1095
aaa(lp1096
g1080
a(lp1097
S'We'
p1098
aS'literally'
p1099
aaa(lp1100
g1080
a(lp1101
S'Oh'
p1102
ag54
aS'thought'
p1103
aS'we'
p1104
aS'were'
p1105
aS'gonna'
p1106
aS'wear'
p1107
aS'out'
p1108
aS'the'
p1109
aS'buttons'
p1110
aS'on'
p1111
aS'the'
p1112
aS'phone'
p1113
aaa(lp1114
S'DARLENE'
p1115
a(lp1116
S'Well'
p1117
aaa(lp1118
g1115
a(lp1119
S'uh'
p1120
aS'when'
p1121
aS'there'
p1122
aS'was'
p1123
aS'that'
p1124
aS'earthquake'
p1125
aS'out'
p1126
aS'in'
p1127
aS'California'
p1128
aaa(lp1129
g1115
a(lp1130
g67
aS'sorta'
p1131
aS'close'
p1132
aS'to'
p1133
ag67
aaa(lp1134
g1115
a(lp1135
g67
aS'what'
p1136
aS'it'
p1137
aS'what'
p1138
ag67
aaa(lp1139
g1115
a(lp1140
S'the'
p1141
aS'Bay'
p1142
aS'Bridge'
p1143
aaa(lp1144
g1115
a(lp1145
S'and'
p1146
aS'all'
p1147
aS'that'
p1148
aS'stuff'
p1149
aaa(lp1150
g1115
a(lp1151
S'A'
p1152
aS'few'
p1153
aS'years'
p1154
aS'ago'
p1155
aaa(lp1156
S'ANDREW'
p1157
a(lp1158
S'Mhm'
p1159
aaa(lp1160
S'DARLENEAnd'
p1161
a(lp1162
S'they'
p1163
aS'said'
p1164
aaa(lp1165
g1161
a(lp1166
S'dont'
p1167
aS'call'
p1168
aS'out'
p1169
aS'there'
p1170
aaa(lp1171
g1161
a(lp1172
S'tie'
p1173
aS'up'
p1174
aS'the'
p1175
aS'lines'
p1176
aaa(lp1177
g1161
a(lp1178
S'blah'
p1179
aS'blah'
p1180
aS'blah'
p1181
aaa(lp1182
g1161
a(lp1183
S'But'
p1184
ag54
aS'wanted'
p1185
aS'to'
p1186
aaa(lp1187
g1161
a(lp1188
S'try'
p1189
aS'to'
p1190
aS'get'
p1191
ag12
aS'hold'
p1192
aS'of'
p1193
aS'Doug'
p1194
aS'anyway'
p1195
aaa(lp1196
g1161
a(lp1197
S'And'
p1198
ag54
aS'sat'
p1199
aS'there'
p1200
aS'for'
p1201
aS'like'
p1202
aS'two'
p1203
aS'or'
p1204
aS'three'
p1205
aS'hours'
p1206
aaa(lp1207
g1161
a(lp1208
S'In'
p1209
aS'front'
p1210
aS'of'
p1211
aS'the'
p1212
aS'TV'
p1213
aaa(lp1214
S'ANDREWHours'
p1215
a(lp1216
aa(lp1217
S'DARLENE'
p1218
a(lp1219
S'Yeah'
p1220
aaa(lp1221
S'ANDREW'
p1222
a(lp1223
S'That'
p1224
aS'hurts'
p1225
aaa(lp1226
S'DARLENE'
p1227
a(lp1228
aa(lp1229
g1227
a(lp1230
S'Punching'
p1231
aaa(lp1232
S'ANDREW'
p1233
a(lp1234
aa(lp1235
S'DARLENEEvery'
p1236
a(lp1237
S'time'
p1238
aS'it'
p1239
aS'come'
p1240
aS'up'
p1241
aS'busy'
p1242
aaa(lp1243
g1236
a(lp1244
S'Id'
p1245
aS'punch'
p1246
aS'redial'
p1247
aaa(lp1248
g1236
a(lp1249
S'And'
p1250
aS'you'
p1251
aS'know'
p1252
aaa(lp1253
S'ANDREWHm'
p1254
a(lp1255
aa(lp1256
S'DARLENEdisconnect'
p1257
a(lp1258
aa(lp1259
g1257
a(lp1260
S'and'
p1261
aS'then'
p1262
aS'redial'
p1263
aaa(lp1264
g1257
a(lp1265
S'Disconnect'
p1266
aaa(lp1267
g1257
a(lp1268
S'redial'
p1269
aaa(lp1270
g1257
a(lp1271
S'Disconnect'
p1272
aaa(lp1273
g1257
a(lp1274
S'redial'
p1275
aaa(lp1276
S'ANDREW'
p1277
a(lp1278
S'God'
p1279
aaa(lp1280
S'DARLENEAnd'
p1281
a(lp1282
S'then'
p1283
aS'finally'
p1284
ag54
aS'gave'
p1285
aS'up'
p1286
aaa(lp1287
S'ANDREW'
p1288
a(lp1289
S'Hm'
p1290
aaa(lp1291
S'DARLENEWell'
p1292
a(lp1293
S'see'
p1294
aaa(lp1295
g1292
a(lp1296
S'Ive'
p1297
aS'got'
p1298
aaa(lp1299
g1292
a(lp1300
S'tough'
p1301
aS'fingers'
p1302
aS'from'
p1303
aS'all'
p1304
ag67
aS'that'
p1305
ag67
aS'stuff'
p1306
aaa(lp1307
S'ANDREW'
p1308
a(lp1309
aa(lp1310
S'DARLENEwhen'
p1311
a(lp1312
S'youre'
p1313
aS'working'
p1314
aS'the'
p1315
aS'registers'
p1316
aS'so'
p1317
aS'many'
p1318
aS'years'
p1319
aaa(lp1320
g1311
a(lp1321
S'and'
p1322
aS'then'
p1323
aaa(lp1324
S'ANDREWMhm'
p1325
a(lp1326
aa(lp1327
S'DARLENE'
p1328
a(lp1329
S'now'
p1330
aS'the'
p1331
aaa(lp1332
g1328
a(lp1333
S'well'
p1334
aaa(lp1335
g1328
a(lp1336
g54
ag270
aS'do'
p1337
aS'some'
p1338
aS'of'
p1339
aS'my'
p1340
aS'computer'
p1341
aS'stuff'
p1342
aS'at'
p1343
aS'the'
p1344
aS'computer'
p1345
aS'registers'
p1346
aaa(lp1347
g1328
a(lp1348
S'some'
p1349
aS'of'
p1350
aS'it'
p1351
aS'at'
p1352
aS'personal'
p1353
aS'computer'
p1354
aaa(lp1355
g1328
a(lp1356
S'But'
p1357
aaa(lp1358
g1328
a(lp1359
S'Uh'
p1360
ag54
aS'got'
p1361
aS'tough'
p1362
aS'fingers'
p1363
aaa(lp1364
S'ANDREWYeah'
p1365
a(lp1366
aa(lp1367
S'DARLENE'
p1368
a(lp1369
aa(lp1370
S'ANDREW'
p1371
a(lp1372
S'You'
p1373
aS'must'
p1374
aaa(lp1375
g1371
a(lp1376
S'Hm'
p1377
aaa(lp1378
S'DARLENE'
p1379
a(lp1380
S'But'
p1381
ag54
aS'never'
p1382
aS'did'
p1383
aS'get'
p1384
aS'through'
p1385
aS'at'
p1386
aS'that'
p1387
aS'time'
p1388
aaa(lp1389
S'ANDREW'
p1390
a(lp1391
S'So'
p1392
aS'whatd'
p1393
aS'you'
p1394
aS'get'
p1395
aS'for'
p1396
aS'Christmas'
p1397
aaa(lp1398
S'DARLENE'
p1399
a(lp1400
S'Uh'
p1401
aaa(lp1402
g1399
a(lp1403
S'Brenda'
p1404
aS'and'
p1405
aS'Danny'
p1406
aS'gave'
p1407
aS'me'
p1408
ag12
aS'pair'
p1409
aS'of'
p1410
aS'earrings'
p1411
aaa(lp1412
g1399
a(lp1413
S'which'
p1414
ag54
aS'have'
p1415
aS'on'
p1416
aS'now'
p1417
aaa(lp1418
S'ANDREWAh'
p1419
a(lp1420
aa(lp1421
S'DARLENE'
p1422
a(lp1423
g54
aS'was'
p1424
aS'waiting'
p1425
aS'to'
p1426
aS'put'
p1427
aS'em'
p1428
aS'on'
p1429
aaa(lp1430
g1422
a(lp1431
S'till'
p1432
aS'after'
p1433
ag54
aS'put'
p1434
aS'my'
p1435
aS'shirt'
p1436
aS'over'
p1437
aS'my'
p1438
aS'head'
p1439
aaa(lp1440
g1422
a(lp1441
S'and'
p1442
aS'then'
p1443
aaa(lp1444
g1422
a(lp1445
S'until'
p1446
ag54
aS'saw'
p1447
aS'Pattys'
p1448
aS'earrings'
p1449
aaa(lp1450
g1422
a(lp1451
S'and'
p1452
ag54
aS'said'
p1453
aaa(lp1454
g1422
a(lp1455
S'VOX'
p1456
aS'Oh'
p1457
aS'my'
p1458
aS'gosh'
p1459
aS'VOX'
p1460
aaa(lp1461
g1422
a(lp1462
S'cause'
p1463
ag54
aS'saw'
p1464
aS'that'
p1465
aS'hers'
p1466
aS'were'
p1467
aS'pretty'
p1468
aaa(lp1469
g1422
a(lp1470
g54
aS'said'
p1471
aS'oh'
p1472
aS'my'
p1473
aS'gosh'
p1474
aaa(lp1475
g1422
a(lp1476
S'forgot'
p1477
aS'to'
p1478
aS'put'
p1479
aS'my'
p1480
aS'earrings'
p1481
aS'on'
p1482
aaa(lp1483
g1422
a(lp1484
S'so'
p1485
ag54
aS'ran'
p1486
aS'and'
p1487
aS'put'
p1488
aS'em'
p1489
aS'on'
p1490
aaa(lp1491
S'ANDREW'
p1492
a(lp1493
S'Hm'
p1494
aaa(lp1495
S'DARLENEAnd'
p1496
a(lp1497
S'this'
p1498
aS'little'
p1499
aS'figurine'
p1500
aaa(lp1501
g1496
a(lp1502
S'with'
p1503
aS'Santa'
p1504
aS'Claus'
p1505
aaa(lp1506
g1496
a(lp1507
S'and'
p1508
ag12
aS'little'
p1509
aS'boy'
p1510
aS'and'
p1511
ag12
aS'deer'
p1512
aaa(lp1513
S'ANDREW'
p1514
a(lp1515
S'Mm'
p1516
aaa(lp1517
S'DARLENE'
p1518
a(lp1519
S'And'
p1520
aaa(lp1521
g1518
a(lp1522
S'until'
p1523
aS'Brenda'
p1524
aS'pointed'
p1525
aS'it'
p1526
aS'out'
p1527
aaa(lp1528
g1518
a(lp1529
S'it'
p1530
aS'didnt'
p1531
aS'dawn'
p1532
aS'on'
p1533
aS'me'
p1534
aS'what'
p1535
aS'it'
p1536
aS'was'
p1537
aaa(lp1538
g1518
a(lp1539
g794
aS'the'
p1540
aS'little'
p1541
aS'boy'
p1542
aS'had'
p1543
aS'brought'
p1544
aS'the'
p1545
aS'deer'
p1546
aS'to'
p1547
aS'Santa'
p1548
aS'Claus'
p1549
aaa(lp1550
g1518
a(lp1551
S'Santa'
p1552
aS'Claus'
p1553
aS'was'
p1554
aS'bandaging'
p1555
aS'its'
p1556
aS'foot'
p1557
aaa(lp1558
g1518
a(lp1559
S'Its'
p1560
aS'foot'
p1561
aS'was'
p1562
aS'up'
p1563
aS'there'
p1564
aaa(lp1565
g1518
a(lp1566
S'and'
p1567
aS'you'
p1568
aS'could'
p1569
aS'see'
p1570
aS'the'
p1571
aaa(lp1572
g1518
a(lp1573
S'like'
p1574
aS'tape'
p1575
aS'bandage'
p1576
aaa(lp1577
S'ANDREW'
p1578
a(lp1579
S'Hm'
p1580
aaa(lp1581
S'DARLENESanta'
p1582
a(lp1583
S'Claus'
p1584
aS'was'
p1585
aS'putting'
p1586
aS'on'
p1587
aaa(lp1588
g1582
a(lp1589
S'Its'
p1590
aS'real'
p1591
aS'cute'
p1592
aaa(lp1593
g1582
a(lp1594
S'And'
p1595
aS'Janine'
p1596
aS'gave'
p1597
aS'me'
p1598
aS'money'
p1599
aaa(lp1600
S'ANDREW'
p1601
a(lp1602
S'N_good'
p1603
aaa(lp1604
S'DARLENE'
p1605
a(lp1606
S'VOX'
p1607
aS'And'
p1608
aS'uh'
p1609
aaa(lp1610
g1605
a(lp1611
g54
aS'guess'
p1612
aS'thats'
p1613
aS'it'
p1614
aS'VOX'
p1615
aaa(lp1616
S'ANDREW'
p1617
a(lp1618
S'Hm'
p1619
aaa(lp1620
S'DARLENEOh'
p1621
a(lp1622
aa(lp1623
g1621
a(lp1624
S'Mason'
p1625
aS'gave'
p1626
aS'me'
p1627
aS'uh'
p1628
aaa(lp1629
g1621
a(lp1630
S'like'
p1631
ag12
aS'Chris'
p1632
aaa(lp1633
S'ANDREWOh'
p1634
a(lp1635
S'thank'
p1636
aS'you'
p1637
aS'for'
p1638
aS'the'
p1639
aaa(lp1640
g1634
a(lp1641
S'what'
p1642
aS'you'
p1643
aS'sent'
p1644
aaa(lp1645
S'DARLENE'
p1646
a(lp1647
S'Well'
p1648
aS'youre'
p1649
aS'welcome'
p1650
aaa(lp1651
S'ANDREW'
p1652
a(lp1653
S'She'
p1654
aS'uh'
p1655
aS'sh'
p1656
aaa(lp1657
g1652
a(lp1658
g54
aS'think'
p1659
aS'she'
p1660
aS'spent'
p1661
aS'it'
p1662
aS'yesterday'
p1663
aaa(lp1664
S'DARLENE'
p1665
a(lp1666
S'Yeah'
p1667
aaa(lp1668
S'ANDREW'
p1669
a(lp1670
aa(lp1671
S'DARLENEWell'
p1672
a(lp1673
aa(lp1674
g1672
a(lp1675
S'Im'
p1676
aS'no'
p1677
aS'good'
p1678
aS'at'
p1679
aaa(lp1680
S'ANDREW'
p1681
a(lp1682
aa(lp1683
S'DARLENE'
p1684
a(lp1685
S'uh'
p1686
aaa(lp1687
S'ANDREW'
p1688
a(lp1689
S'Oh'
p1690
aS'you'
p1691
aS'did'
p1692
aS'great'
p1693
aaa(lp1694
S'DARLENEI'
p1695
a(lp1696
S'cant'
p1697
aaa(lp1698
S'ANDREW'
p1699
a(lp1700
aa(lp1701
S'DARLENEI'
p1702
a(lp1703
S'cant'
p1704
aaa(lp1705
g1702
a(lp1706
S'Im'
p1707
aS'no'
p1708
aaa(lp1709
g1702
a(lp1710
S'Im'
p1711
aS'no'
p1712
aS'good'
p1713
aS'at'
p1714
aaa(lp1715
g1702
a(lp1716
S'People'
p1717
aS'tell'
p1718
aS'me'
p1719
aS'stuff'
p1720
aaa(lp1721
g1702
a(lp1722
S'well'
p1723
ag54
aS'knew'
p1724
aS'something'
p1725
aS'Brenda'
p1726
aS'wanted'
p1727
aaa(lp1728
g1702
a(lp1729
S'she'
p1730
aS'wanted'
p1731
ag12
aS'new'
p1732
aS'canister'
p1733
aS'set'
p1734
aaa(lp1735
g1702
a(lp1736
S'like'
p1737
aS'the'
p1738
aS'one'
p1739
aS'she'
p1740
aS'has'
p1741
aaa(lp1742
g1702
a(lp1743
S'for'
p1744
ag12
aS'whole'
p1745
aS'five'
p1746
aS'pound'
p1747
aS'bag'
p1748
aS'of'
p1749
aS'sugar'
p1750
aaa(lp1751
g1702
a(lp1752
S'for'
p1753
ag12
aS'whole'
p1754
aS'five'
p1755
aS'pound'
p1756
aS'bag'
p1757
aS'of'
p1758
aS'flour'
p1759
aaa(lp1760
g1702
a(lp1761
g12
aS'fit'
p1762
aS'in'
p1763
aS'the'
p1764
aS'thing'
p1765
aaa(lp1766
g1702
a(lp1767
S'without'
p1768
aS'being'
p1769
aS'opened'
p1770
aS'up'
p1771
aaa(lp1772
S'ANDREW'
p1773
a(lp1774
S'Mm'
p1775
aaa(lp1776
S'DARLENE'
p1777
a(lp1778
S'And'
p1779
aaa(lp1780
g1777
a(lp1781
g54
aS'looked'
p1782
aS'around'
p1783
ag12
aS'little'
p1784
aS'bit'
p1785
aaa(lp1786
g1777
a(lp1787
S'but'
p1788
aS'Im'
p1789
aS'not'
p1790
aaa(lp1791
g1777
a(lp1792
S'Im'
p1793
aS'the'
p1794
aS'worlds'
p1795
aS'worst'
p1796
aS'shopper'
p1797
aaa(lp1798
g1777
a(lp1799
S'Stores'
p1800
aS'bug'
p1801
aS'me'
p1802
aaa(lp1803
g1777
a(lp1804
g54
aS'cant'
p1805
aS'light'
p1806
ag12
aS'cigarette'
p1807
aS'and'
p1808
aS'then'
p1809
aaa(lp1810
g1777
a(lp1811
S'makes'
p1812
aS'me'
p1813
aS'mad'
p1814
aaa(lp1815
g1777
a(lp1816
S'and'
p1817
ag54
aS'turn'
p1818
aS'around'
p1819
aS'and'
p1820
aS'walk'
p1821
aS'out'
p1822
aS'after'
p1823
ag12
aS'little'
p1824
aS'while'
p1825
aaa(lp1826
S'ANDREW'
p1827
a(lp1828
S'Mhm'
p1829
aaa(lp1830
S'DARLENE'
p1831
a(lp1832
S'And'
p1833
aS'um'
p1834
aaa(lp1835
g1831
a(lp1836
g54
aS'knew'
p1837
aS'she'
p1838
aS'wanted'
p1839
aS'that'
p1840
aaa(lp1841
g1831
a(lp1842
S'but'
p1843
aaa(lp1844
g1831
a(lp1845
g54
aS'saw'
p1846
aS'something'
p1847
aaa(lp1848
g1831
a(lp1849
S'that'
p1850
ag54
aS'thought'
p1851
aS'she'
p1852
aS'needed'
p1853
aaa(lp1854
S'ANDREW'
p1855
a(lp1856
aa(lp1857
S'DARLENEthat'
p1858
a(lp1859
S'she'
p1860
aS'hadnt'
p1861
aS'said'
p1862
aS'shed'
p1863
aS'needed'
p1864
aaa(lp1865
g1858
a(lp1866
S'that'
p1867
aS'way'
p1868
aS'itd'
p1869
aS'be'
p1870
aaa(lp1871
g1858
a(lp1872
g12
aS'little'
p1873
aS'bit'
p1874
aS'of'
p1875
ag12
aS'surprise'
p1876
aaa(lp1877
g1858
a(lp1878
S'if'
p1879
aS'she'
p1880
aS'hadnt'
p1881
aaa(lp1882
g1858
a(lp1883
S'remembered'
p1884
aS'me'
p1885
aS'saying'
p1886
aaa(lp1887
g1858
a(lp1888
S'Oh'
p1889
aaa(lp1890
g1858
a(lp1891
S'you'
p1892
aS'need'
p1893
ag12
aS'breadbox'
p1894
aaa(lp1895
S'ANDREW'
p1896
a(lp1897
S'Yeah'
p1898
aaa(lp1899
S'DARLENE'
p1900
a(lp1901
S'Cause'
p1902
aS'she'
p1903
aS'just'
p1904
aS'had'
p1905
aS'loaves'
p1906
aS'of'
p1907
aS'bread'
p1908
aS'up'
p1909
aS'on'
p1910
aS'the'
p1911
aS'counter'
p1912
aaa(lp1913
g1900
a(lp1914
S'And'
p1915
aaa(lp1916
g1900
a(lp1917
g54
aS'guess'
p1918
aS'they'
p1919
aS'eat'
p1920
ag12
aS'lotta'
p1921
aS'bread'
p1922
aaa(lp1923
g1900
a(lp1924
S'And'
p1925
aS'there'
p1926
aS'were'
p1927
aS'like'
p1928
aS'two'
p1929
aS'or'
p1930
aS'three'
p1931
aS'loaves'
p1932
aS'of'
p1933
aS'bread'
p1934
aaa(lp1935
g1900
a(lp1936
S'different'
p1937
aS'kinds'
p1938
aaa(lp1939
g1900
a(lp1940
S'open'
p1941
aaa(lp1942
g1900
a(lp1943
S'And'
p1944
aaa(lp1945
S'ANDREWMhm'
p1946
a(lp1947
aa(lp1948
S'DARLENEso'
p1949
a(lp1950
S'thats'
p1951
aS'what'
p1952
ag54
aS'wanted'
p1953
aS'to'
p1954
aS'get'
p1955
aS'em'
p1956
aaa(lp1957
g1949
a(lp1958
S'And'
p1959
aS'uh'
p1960
aaa(lp1961
g1949
a(lp1962
g54
aS'kept'
p1963
aS'watching'
p1964
aS'the'
p1965
aS'ads'
p1966
aaa(lp1967
g1949
a(lp1968
g54
aS'thought'
p1969
aaa(lp1970
g1949
a(lp1971
S'well'
p1972
aS'Ill'
p1973
aS'see'
p1974
aS'some'
p1975
aS'place'
p1976
aS'that'
p1977
aS'has'
p1978
aS'the'
p1979
aS'kind'
p1980
aS'Im'
p1981
aS'looking'
p1982
aS'for'
p1983
aS'for'
p1984
aS'em'
p1985
aaa(lp1986
g1949
a(lp1987
S'Cause'
p1988
aS'theyve'
p1989
aS'got'
p1990
aS'dark'
p1991
aS'cabinets'
p1992
aaa(lp1993
S'ANDREWHm'
p1994
a(lp1995
aa(lp1996
S'DARLENEReal'
p1997
a(lp1998
aa(lp1999
g1997
a(lp2000
S'real'
p2001
aS'dark'
p2002
aS'brown'
p2003
aaa(lp2004
g1997
a(lp2005
S'As'
p2006
aS'opposed'
p2007
aS'to'
p2008
aS'my'
p2009
aS'kinda'
p2010
aS'medium'
p2011
aS'brown'
p2012
aaa(lp2013
S'ANDREWHm'
p2014
a(lp2015
aa(lp2016
S'DARLENE'
p2017
a(lp2018
S'And'
p2019
aS'so'
p2020
aaa(lp2021
g2017
a(lp2022
S'but'
p2023
aS'all'
p2024
aS'the'
p2025
aS'ones'
p2026
ag67
aS'in'
p2027
ag67
aS'the'
p2028
aS'paper'
p2029
aS'were'
p2030
aS'showing'
p2031
aaa(lp2032
g2017
a(lp2033
S'the'
p2034
aS'early'
p2035
aS'American'
p2036
aaa(lp2037
g2017
a(lp2038
S'the'
p2039
aS'lighter'
p2040
aS'maple'
p2041
aS'type'
p2042
aS'wood'
p2043
aaa(lp2044
S'ANDREW'
p2045
a(lp2046
S'Yeah'
p2047
aaa(lp2048
S'DARLENE'
p2049
a(lp2050
S'Uh'
p2051
aaa(lp2052
g2049
a(lp2053
S'so'
p2054
aaa(lp2055
g2049
a(lp2056
g54
aS'just'
p2057
aS'gave'
p2058
aS'em'
p2059
ag12
aS'check'
p2060
aaa(lp2061
g2049
a(lp2062
S'And'
p2063
aS'said'
p2064
aS'oh'
p2065
ag372
aaa(lp2066
g2049
a(lp2067
S'Whe'
p2068
aS'when'
p2069
aS'you'
p2070
aS'see'
p2071
ag12
aS'dark'
p2072
aS'dark'
p2073
aS'brown'
p2074
aS'breadbox'
p2075
aaa(lp2076
g2049
a(lp2077
S'like'
p2078
aS'your'
p2079
aS'cabinets'
p2080
aaa(lp2081
S'ANDREW'
p2082
a(lp2083
aa(lp2084
S'DARLENEthats'
p2085
a(lp2086
S'my'
p2087
aS'Christmas'
p2088
aS'present'
p2089
aaa(lp2090
S'ANDREW'
p2091
a(lp2092
aa(lp2093
S'DARLENE'
p2094
a(lp2095
S'So'
p2096
aaa(lp2097
g2094
a(lp2098
g54
aS'need'
p2099
aS'to'
p2100
aS'tell'
p2101
aS'her'
p2102
aS'though'
p2103
aaa(lp2104
g2094
a(lp2105
S'if'
p2106
aS'she'
p2107
aS'sees'
p2108
aS'canisters'
p2109
aS'first'
p2110
aaa(lp2111
g2094
a(lp2112
S'she'
p2113
aS'can'
p2114
aS'do'
p2115
aS'that'
p2116
aS'too'
p2117
aaa(lp2118
S'ANDREW'
p2119
a(lp2120
S'Yeah'
p2121
aaa(lp2122
S'DARLENE'
p2123
a(lp2124
S'But'
p2125
aaa(lp2126
g2123
a(lp2127
g54
aS'had'
p2128
aS'an'
p2129
aS'idea'
p2130
aaa(lp2131
g2123
a(lp2132
S'of'
p2133
aS'what'
p2134
aaa(lp2135
g2123
a(lp2136
S'they'
p2137
aS'could'
p2138
aS'use'
p2139
aaa(lp2140
g2123
a(lp2141
S'but'
p2142
aaa(lp2143
g2123
a(lp2144
S'and'
p2145
aS'then'
p2146
aaa(lp2147
g2123
a(lp2148
S'Janine'
p2149
aaa(lp2150
g2123
a(lp2151
S'the'
p2152
aS'only'
p2153
aS'thing'
p2154
aS'she'
p2155
aS'ever'
p2156
aS'wants'
p2157
aS'is'
p2158
aS'Charlie'
p2159
aS'cologne'
p2160
aaa(lp2161
S'ANDREWOh'
p2162
a(lp2163
S'really'
p2164
aaa(lp2165
S'DARLENE'
p2166
a(lp2167
S'And'
p2168
ag54
aS'never'
p2169
aS'got'
p2170
aS'around'
p2171
aS'to'
p2172
aS'going'
p2173
aS'to'
p2174
aS'the'
p2175
aS'drug'
p2176
aS'store'
p2177
aaa(lp2178
S'ANDREWHm'
p2179
a(lp2180
aa(lp2181
g2179
a(lp2182
S'Hm'
p2183
aaa(lp2184
S'DARLENEMy'
p2185
a(lp2186
S'store'
p2187
aS'was'
p2188
aS'out'
p2189
aaa(lp2190
g2185
a(lp2191
S'or'
p2192
ag54
aS'wouldve'
p2193
aS'picked'
p2194
aS'it'
p2195
aS'up'
p2196
aS'there'
p2197
aaa(lp2198
S'ANDREW'
p2199
a(lp2200
S'Yeah'
p2201
aaa(lp2202
S'DARLENE'
p2203
a(lp2204
S'And'
p2205
aS'so'
p2206
ag54
aS'just'
p2207
aS'gave'
p2208
aS'her'
p2209
ag12
aS'check'
p2210
aaa(lp2211
g2203
a(lp2212
g67
aS'No'
p2213
ag54
aS'gave'
p2214
aS'her'
p2215
aS'check'
p2216
ag67
aaa(lp2217
S'ANDREWSo'
p2218
a(lp2219
S'have'
p2220
aS'you'
p2221
aS'tried'
p2222
aS'the'
p2223
aS'Vanilla'
p2224
aS'Fields'
p2225
aaa(lp2226
S'DARLENE'
p2227
a(lp2228
S'Vanilla'
p2229
aS'Fields'
p2230
aS'perfume'
p2231
aaa(lp2232
g2227
a(lp2233
S'Cologne'
p2234
aaa(lp2235
S'ANDREWMm'
p2236
a(lp2237
aa(lp2238
g2236
a(lp2239
S'Either'
p2240
aS'one'
p2241
aaa(lp2242
S'DARLENE'
p2243
a(lp2244
S'Me'
p2245
aaa(lp2246
S'ANDREW'
p2247
a(lp2248
S'Yeah'
p2249
aaa(lp2250
S'DARLENE'
p2251
a(lp2252
S'No'
p2253
aaa(lp2254
g2251
a(lp2255
g54
aS'dont'
p2256
aS'use'
p2257
aS'it'
p2258
aaa(lp2259
g2251
a(lp2260
S'Any'
p2261
aS'kind'
p2262
aaa(lp2263
S'ANDREWYou'
p2264
a(lp2265
S'dont'
p2266
aaa(lp2267
g2264
a(lp2268
S'Hm'
p2269
aaa(lp2270
S'DARLENE'
p2271
a(lp2272
g54
aS'used'
p2273
aS'to'
p2274
aS'use'
p2275
aS'it'
p2276
aaa(lp2277
g2271
a(lp2278
S'and'
p2279
aaa(lp2280
g2271
a(lp2281
S'found'
p2282
aaa(lp2283
g2271
a(lp2284
S'come'
p2285
aS'to'
p2286
aS'find'
p2287
aS'out'
p2288
aaa(lp2289
g2271
a(lp2290
S'thats'
p2291
aS'one'
p2292
aS'of'
p2293
aS'the'
p2294
aS'things'
p2295
aS'that'
p2296
aS'would'
p2297
aS'give'
p2298
aS'me'
p2299
aS'headaches'
p2300
aaa(lp2301
S'ANDREW'
p2302
a(lp2303
S'Oh'
p2304
aS'really'
p2305
aaa(lp2306
S'DARLENE'
p2307
a(lp2308
S'Yeah'
p2309
aaa(lp2310
S'ANDREW'
p2311
a(lp2312
g54
aS'didnt'
p2313
aS'know'
p2314
aS'that'
p2315
aaa(lp2316
S'DARLENE'
p2317
a(lp2318
S'For'
p2319
ag12
aS'very'
p2320
aS'special'
p2321
aS'occasion'
p2322
aaa(lp2323
g2317
a(lp2324
S'and'
p2325
ag54
aS'mean'
p2326
aaa(lp2327
g2317
a(lp2328
S'its'
p2329
aS'gotta'
p2330
aS'be'
p2331
aS'very'
p2332
aS'special'
p2333
aaa(lp2334
g2317
a(lp2335
g54
aS'didnt'
p2336
aS'even'
p2337
aS'wear'
p2338
aS'it'
p2339
aS'to'
p2340
aS'Jennifer'
p2341
aS'or'
p2342
aS'Anns'
p2343
aS'wedding'
p2344
aaa(lp2345
g2317
a(lp2346
S'PAR'
p2347
aS'Not'
p2348
aS'Jennifer'
p2349
aS'PAR'
p2350
aaa(lp2351
g2317
a(lp2352
S'Shelly'
p2353
aS'or'
p2354
aS'Anns'
p2355
aS'weddings'
p2356
aaa(lp2357
S'ANDREWYeah'
p2358
a(lp2359
aa(lp2360
S'DARLENEI'
p2361
a(lp2362
S'didnt'
p2363
aS'even'
p2364
aS'put'
p2365
aaa(lp2366
g2361
a(lp2367
S'Cause'
p2368
ag54
aS'didnt'
p2369
aS'wanna'
p2370
aaa(lp2371
g2361
a(lp2372
S'go'
p2373
aS'to'
p2374
aaa(lp2375
g2361
a(lp2376
g12
aS'wedding'
p2377
aS'and'
p2378
ag12
aS'reception'
p2379
aaa(lp2380
g2361
a(lp2381
S'and'
p2382
aS'have'
p2383
ag12
aS'headache'
p2384
aS'the'
p2385
aS'whole'
p2386
aS'time'
p2387
aaa(lp2388
S'ANDREWTSK'
p2389
a(lp2390
aa(lp2391
S'DARLENE'
p2392
a(lp2393
S'So'
p2394
ag54
aS'dont'
p2395
aS'know'
p2396
aS'when'
p2397
aS'Id'
p2398
aS'wear'
p2399
aS'it'
p2400
aaa(lp2401
S'ANDREW'
p2402
a(lp2403
g54
aS'didnt'
p2404
aS'realize'
p2405
aaa(lp2406
S'DARLENEI'
p2407
a(lp2408
S'dont'
p2409
aS'know'
p2410
aS'when'
p2411
aaa(lp2412
S'ANDREWHm'
p2413
a(lp2414
aa(lp2415
S'DARLENE'
p2416
a(lp2417
aa(lp2418
S'ANDREW'
p2419
a(lp2420
S'Hm'
p2421
aaa(lp2422
S'DARLENE'
p2423
a(lp2424
S'Ive'
p2425
aS'got'
p2426
aS'some'
p2427
aS'here'
p2428
aS'still'
p2429
aaa(lp2430
g2423
a(lp2431
S'but'
p2432
aaa(lp2433
S'ANDREW'
p2434
a(lp2435
S'And'
p2436
aS'Janine'
p2437
aS'likes'
p2438
aS'Charlie'
p2439
aaa(lp2440
g2434
a(lp2441
S'Hunh'
p2442
aaa(lp2443
S'DARLENE'
p2444
a(lp2445
S'Janine'
p2446
aS'uses'
p2447
aS'Charlie'
p2448
aS'all'
p2449
aS'the'
p2450
aS'time'
p2451
aaa(lp2452
S'ANDREW'
p2453
a(lp2454
S'Hunh'
p2455
aaa(lp2456
S'DARLENE'
p2457
a(lp2458
S'And'
p2459
aaa(lp2460
g2457
a(lp2461
S'you'
p2462
aS'know'
p2463
aaa(lp2464
g2457
a(lp2465
S'its'
p2466
ag12
aS'nice'
p2467
aS'fragrance'
p2468
aaa(lp2469
g2457
a(lp2470
S'its'
p2471
aS'not'
p2472
aS'real'
p2473
aS'expensive'
p2474
aaa(lp2475
g2457
a(lp2476
S'and'
p2477
aaa(lp2478
S'ANDREWHm'
p2479
a(lp2480
aa(lp2481
S'DARLENEmost'
p2482
a(lp2483
S'of'
p2484
aS'the'
p2485
aS'time'
p2486
aS'for'
p2487
aaa(lp2488
g2482
a(lp2489
S'her'
p2490
aS'birthday'
p2491
aaa(lp2492
g2482
a(lp2493
S'and'
p2494
aS'then'
p2495
aS'for'
p2496
aS'Christmas'
p2497
aS'and'
p2498
aaa(lp2499
g2482
a(lp2500
S'and'
p2501
aS'then'
p2502
aaa(lp2503
g2482
a(lp2504
S'mommy'
p2505
aS'and'
p2506
aS'daddy'
p2507
aS'used'
p2508
aS'to'
p2509
aS'give'
p2510
aS'her'
p2511
aaa(lp2512
g2482
a(lp2513
S'uh'
p2514
aaa(lp2515
g2482
a(lp2516
g12
aS'bottle'
p2517
aaa(lp2518
g2482
a(lp2519
S'or'
p2520
aS'Mary'
p2521
aS'and'
p2522
aS'Hank'
p2523
aaa(lp2524
g2482
a(lp2525
S'or'
p2526
aaa(lp2527
g2482
a(lp2528
S'one'
p2529
aS'time'
p2530
aS'they'
p2531
aS'gave'
p2532
aS'her'
p2533
ag12
aS'little'
p2534
aS'gift'
p2535
aS'set'
p2536
aS'with'
p2537
aaa(lp2538
g2482
a(lp2539
S'cologne'
p2540
aS'and'
p2541
aS'dusting'
p2542
aS'powder'
p2543
aS'in'
p2544
aS'it'
p2545
aS'or'
p2546
aS'something'
p2547
aS'and'
p2548
aaa(lp2549
S'ANDREW'
p2550
a(lp2551
S'Mhm'
p2552
aaa(lp2553
S'DARLENEAnd'
p2554
a(lp2555
S'its'
p2556
aS'always'
p2557
aS'Charlie'
p2558
aS'and'
p2559
aaa(lp2560
g2554
a(lp2561
S'she'
p2562
aS'said'
p2563
aS'well'
p2564
aS'now'
p2565
ag54
aS'got'
p2566
aS'my'
p2567
aS'years'
p2568
aS'supply'
p2569
aaa(lp2570
g2554
a(lp2571
g54
aS'dont'
p2572
aS'have'
p2573
aS'to'
p2574
aS'buy'
p2575
aS'any'
p2576
aaa(lp2577
S'ANDREW'
p2578
a(lp2579
aa(lp2580
S'DARLENE'
p2581
a(lp2582
S'So'
p2583
aaa(lp2584
S'ANDREW'
p2585
a(lp2586
aa(lp2587
g2585
a(lp2588
S'So'
p2589
aS'hows'
p2590
aS'Maggie'
p2591
aS'do'
p2592
aaa(lp2593
S'DARLENEOh'
p2594
a(lp2595
S'uh'
p2596
aaa(lp2597
S'ANDREW'
p2598
a(lp2599
S'Hm'
p2600
aaa(lp2601
S'DARLENEShelly'
p2602
a(lp2603
S'gave'
p2604
aS'me'
p2605
aS'uh'
p2606
aaa(lp2607
g2602
a(lp2608
S'PAR'
p2609
aS'God'
p2610
aS'which'
p2611
aS'one'
p2612
aS'did'
p2613
aS'Shelly'
p2614
aS'give'
p2615
aS'me'
p2616
aS'PAR'
p2617
aaa(lp2618
g2602
a(lp2619
S'Judy'
p2620
aS'gave'
p2621
aS'me'
p2622
ag12
aS'picture'
p2623
aaa(lp2624
g2602
a(lp2625
S'of'
p2626
aS'her'
p2627
aS'and'
p2628
aS'John'
p2629
aS'together'
p2630
aS'in'
p2631
aS'this'
p2632
aaa(lp2633
g2602
a(lp2634
g54
aS'dont'
p2635
aS'know'
p2636
aaa(lp2637
g2602
a(lp2638
g54
aS'dont'
p2639
aS'think'
p2640
aS'its'
p2641
aS'sterling'
p2642
aS'silver'
p2643
aaa(lp2644
g2602
a(lp2645
S'it'
p2646
aS'might'
p2647
ag12
aS'pewter'
p2648
aS'frame'
p2649
aaa(lp2650
S'ANDREW'
p2651
a(lp2652
S'Mhm'
p2653
aaa(lp2654
S'DARLENEIts'
p2655
a(lp2656
S'real'
p2657
aS'nice'
p2658
aaa(lp2659
S'ANDREW'
p2660
a(lp2661
S'Yeah'
p2662
aaa(lp2663
S'DARLENE'
p2664
a(lp2665
S'And'
p2666
aaa(lp2667
g2664
a(lp2668
S'what'
p2669
aS'did'
p2670
aS'Shelly'
p2671
aS'give'
p2672
aS'me'
p2673
aaa(lp2674
g2664
a(lp2675
g54
aS'think'
p2676
aS'she'
p2677
aS'gave'
p2678
aS'me'
p2679
aS'the'
p2680
aS'ornament'
p2681
aaa(lp2682
g2664
a(lp2683
S'No'
p2684
aaa(lp2685
g2664
a(lp2686
S'the'
p2687
aS'ornament'
p2688
aS'was'
p2689
aS'on'
p2690
aS'the'
p2691
aS'outside'
p2692
aS'of'
p2693
aS'the'
p2694
aS'package'
p2695
aaa(lp2696
g2664
a(lp2697
S'one'
p2698
aS'that'
p2699
aS'they'
p2700
aS'made'
p2701
aaa(lp2702
S'ANDREW'
p2703
a(lp2704
S'Hm'
p2705
aaa(lp2706
S'DARLENE'
p2707
a(lp2708
S'They'
p2709
aS'made'
p2710
aS'the'
p2711
aS'cutest'
p2712
aS'gingerbread'
p2713
aS'ornaments'
p2714
aaa(lp2715
g2707
a(lp2716
S'They'
p2717
aaa(lp2718
g2707
a(lp2719
S'Well'
p2720
aaa(lp2721
g2707
a(lp2722
S'they'
p2723
aS'uh'
p2724
aaa(lp2725
g2707
a(lp2726
g54
aS'guess'
p2727
aS'theyre'
p2728
aS'like'
p2729
aS'uh'
p2730
aaa(lp2731
g2707
a(lp2732
S'plaster'
p2733
aaa(lp2734
g2707
a(lp2735
S'or'
p2736
aS'something'
p2737
aaa(lp2738
g2707
a(lp2739
S'they'
p2740
aS'painted'
p2741
aS'em'
p2742
aS'and'
p2743
aaa(lp2744
g2707
a(lp2745
S'theyre'
p2746
aS'real'
p2747
aS'cute'
p2748
aaa(lp2749
g2707
a(lp2750
S'Got'
p2751
aaa(lp2752
g2707
a(lp2753
g54
aS'hung'
p2754
aS'mine'
p2755
aS'on'
p2756
aS'the'
p2757
aS'tree'
p2758
aaa(lp2759
S'ANDREWYeah'
p2760
a(lp2761
aa(lp2762
S'DARLENE'
p2763
a(lp2764
g54
aS'got'
p2765
aS'home'
p2766
aS'and'
p2767
aS'then'
p2768
aS'um'
p2769
aaa(lp2770
g2763
a(lp2771
S'Janines'
p2772
aS'was'
p2773
aS'still'
p2774
aS'sitting'
p2775
aS'there'
p2776
aaa(lp2777
g2763
a(lp2778
S'So'
p2779
ag54
aS'hung'
p2780
aS'hers'
p2781
aS'on'
p2782
aS'the'
p2783
aS'tree'
p2784
aS'for'
p2785
aS'her'
p2786
aaa(lp2787
g2763
a(lp2788
S'Uh'
p2789
aaa(lp2790
g2763
a(lp2791
g54
aS'use'
p2792
aS'Oil'
p2793
aS'of'
p2794
aS'Olay'
p2795
aS'products'
p2796
aaa(lp2797
g2763
a(lp2798
S'and'
p2799
aS'she'
p2800
aS'got'
p2801
aS'me'
p2802
aS'Oil'
p2803
aS'of'
p2804
aS'Olay'
p2805
aS'moisturizer'
p2806
aaa(lp2807
g2763
a(lp2808
S'and'
p2809
aS'Oil'
p2810
aS'of'
p2811
aS'away'
p2812
aS'Olay'
p2813
aS'face'
p2814
aS'wash'
p2815
aaa(lp2816
S'ANDREW'
p2817
a(lp2818
S'Hm'
p2819
aaa(lp2820
S'DARLENE'
p2821
a(lp2822
S'And'
p2823
aaa(lp2824
g2821
a(lp2825
S'when'
p2826
ag54
aS'opened'
p2827
aS'it'
p2828
aS'up'
p2829
aaa(lp2830
g2821
a(lp2831
g54
aS'said'
p2832
aaa(lp2833
g2821
a(lp2834
S'VOX'
p2835
aS'Oh'
p2836
aS'wow'
p2837
ag54
aS'use'
p2838
aS'these'
p2839
aS'all'
p2840
aS'the'
p2841
aS'time'
p2842
aS'VOX'
p2843
aaa(lp2844
g2821
a(lp2845
S'Brenda'
p2846
aS'said'
p2847
aaa(lp2848
g2821
a(lp2849
S'yeah'
p2850
aaa(lp2851
g2821
a(lp2852
S'she'
p2853
aS'stole'
p2854
aS'my'
p2855
aS'idea'
p2856
aaa(lp2857
g2821
a(lp2858
S'Cause'
p2859
aS'thats'
p2860
aS'what'
p2861
aS'Brenda'
p2862
aS'had'
p2863
aS'given'
p2864
aS'me'
p2865
aS'last'
p2866
aS'year'
p2867
aaa(lp2868
S'ANDREW'
p2869
a(lp2870
aa(lp2871
S'DARLENE'
p2872
a(lp2873
aa(lp2874
S'ANDREW'
p2875
a(lp2876
S'HI'
p2877
aS'Oh'
p2878
aS'HI'
p2879
aaa(lp2880
S'DARLENE'
p2881
a(lp2882
S'Yeah'
p2883
aaa(lp2884
g2881
a(lp2885
S'might'
p2886
aS'as'
p2887
aS'well'
p2888
aS'be'
p2889
aS'something'
p2890
aS'somebodyll'
p2891
aS'use'
p2892
aaa(lp2893
S'ANDREW'
p2894
a(lp2895
S'Yeah'
p2896
aaa(lp2897
S'DARLENE'
p2898
a(lp2899
S'So'
p2900
aaa(lp2901
S'ANDREW'
p2902
a(lp2903
S'Hunh'
p2904
aaa(lp2905
S'DARLENEHow'
p2906
a(lp2907
S'about'
p2908
aS'yall'
p2909
aaa(lp2910
g2906
a(lp2911
S'Whatd'
p2912
aS'you'
p2913
aS'all'
p2914
aS'do'
p2915
aaa(lp2916
S'ANDREW'
p2917
a(lp2918
S'Ng_lets'
p2919
aS'see'
p2920
aaa(lp2921
g2917
a(lp2922
g54
aS'got'
p2923
aS'uh'
p2924
aS'VCR'
p2925
aS'tape'
p2926
aaa(lp2927
g2917
a(lp2928
S'the'
p2929
aS'movie'
p2930
aaa(lp2931
g2917
a(lp2932
g1152
aS'River'
p2933
aS'Runs'
p2934
aS'Through'
p2935
aS'It'
p2936
aaa(lp2937
S'DARLENE'
p2938
a(lp2939
S'Hm'
p2940
aaa(lp2941
S'ANDREWHave'
p2942
a(lp2943
S'you'
p2944
aS'seen'
p2945
aS'that'
p2946
aaa(lp2947
S'DARLENENo'
p2948
a(lp2949
g54
aaa(lp2950
S'ANDREWIts'
p2951
a(lp2952
S'about'
p2953
aS'fly'
p2954
aS'fishing'
p2955
aaa(lp2956
S'DARLENE'
p2957
a(lp2958
S'Oh'
p2959
aaa(lp2960
S'ANDREW'
p2961
a(lp2962
aa(lp2963
S'DARLENE'
p2964
a(lp2965
S'No'
p2966
aaa(lp2967
g2964
a(lp2968
g54
aS'havent'
p2969
aS'seen'
p2970
aS'it'
p2971
aaa(lp2972
S'ANDREW'
p2973
a(lp2974
S'No'
p2975
aaa(lp2976
g2973
a(lp2977
S'you'
p2978
aS'should'
p2979
aS'see'
p2980
aS'it'
p2981
aaa(lp2982
S'ENVMIC_NOISE'
p2983
a(lp2984
aa(lp2985
S'ANDREWRob'
p2986
a(lp2987
aa(lp2988
g2986
a(lp2989
S'Uhoh'
p2990
aaa(lp2991
g2986
a(lp2992
S'Its'
p2993
aS'Robert'
p2994
aS'Redford'
p2995
aaa(lp2996
g2986
a(lp2997
S'hold'
p2998
aS'on'
p2999
aaa(lp3000
g2986
a(lp3001
S'F'
p3002
aS'Kevin'
p3003
ag3002
aaa(lp3004
g2986
a(lp3005
S'Its'
p3006
aS'Robert'
p3007
aS'Redford'
p3008
aaa(lp3009
g2986
a(lp3010
S'and'
p3011
aS'theyre'
p3012
aS'fly'
p3013
aS'fishing'
p3014
aS'and'
p3015
aS'so'
p3016
aS'on'
p3017
aaa(lp3018
S'ENVMIC_NOISE'
p3019
a(lp3020
aa(lp3021
S'ANDREW'
p3022
a(lp3023
g3002
aS'Kevin'
p3024
ag3002
aaa(lp3025
g3022
a(lp3026
S'Uh'
p3027
aaa(lp3028
g3022
a(lp3029
g54
aS'bumped'
p3030
aS'something'
p3031
aS'here'
p3032
aS'and'
p3033
aaa(lp3034
g3022
a(lp3035
S'messed'
p3036
aS'up'
p3037
ag12
aS'cord'
p3038
aaa(lp3039
g3022
a(lp3040
S'Uh'
p3041
aaa(lp3042
g3022
a(lp3043
S'And'
p3044
aaa(lp3045
g3022
a(lp3046
S'what'
p3047
aS'else'
p3048
aS'did'
p3049
ag54
aS'have'
p3050
aaa(lp3051
S'ENV'
p3052
a(lp3053
S'MIC_NOISE'
p3054
aaa(lp3055
S'ANDREWLets'
p3056
a(lp3057
S'see'
p3058
aaa(lp3059
g3056
a(lp3060
S'Cindy'
p3061
aS'got'
p3062
aS'me'
p3063
ag12
aS'nice'
p3064
aS'shirt'
p3065
aaa(lp3066
g3056
a(lp3067
S'Um'
p3068
aaa(lp3069
g3056
a(lp3070
S'what'
p3071
aS'do'
p3072
aS'you'
p3073
aS'call'
p3074
aS'it'
p3075
aaa(lp3076
S'ENVMIC_NOISE'
p3077
a(lp3078
aa(lp3079
S'ANDREW'
p3080
a(lp3081
S'all'
p3082
aS'these'
p3083
aaa(lp3084
g3080
a(lp3085
g681
aS'plain'
p3086
aS'cotton'
p3087
aaa(lp3088
g3080
a(lp3089
S'Its'
p3090
aS'blue'
p3091
aS'with'
p3092
aS'white'
p3093
aS'stripes'
p3094
aaa(lp3095
S'ENVMIC_NOISE'
p3096
a(lp3097
aa(lp3098
S'DARLENE'
p3099
a(lp3100
S'Oh'
p3101
aaa(lp3102
S'ANDREW'
p3103
a(lp3104
aa(lp3105
g3103
a(lp3106
S'That'
p3107
aS'sounds'
p3108
aS'pretty'
p3109
aaa(lp3110
S'CINDYHundred'
p3111
a(lp3112
S'percent'
p3113
aS'cotton'
p3114
aaa(lp3115
S'ANDREWHundred'
p3116
a(lp3117
S'percent'
p3118
aS'cotton'
p3119
aaa(lp3120
g3116
a(lp3121
S'And'
p3122
aS'uh'
p3123
aaa(lp3124
g3116
a(lp3125
S'theyre'
p3126
aS'comfortable'
p3127
aS'as'
p3128
aS'hell'
p3129
aaa(lp3130
g3116
a(lp3131
S'and'
p3132
aS'she'
p3133
aS'likes'
p3134
aS'the'
p3135
aS'color'
p3136
aS'and'
p3137
aS'so'
p3138
aS'on'
p3139
aaa(lp3140
S'DARLENE'
p3141
a(lp3142
S'Yeah'
p3143
aaa(lp3144
S'ANDREW'
p3145
a(lp3146
S'And'
p3147
aaa(lp3148
S'DARLENEWell'
p3149
a(lp3150
aa(lp3151
g3149
a(lp3152
S'you'
p3153
aS'look'
p3154
aS'good'
p3155
aS'in'
p3156
aS'blue'
p3157
aS'anyway'
p3158
aaa(lp3159
S'ANDREW'
p3160
a(lp3161
S'Well'
p3162
aaa(lp3163
g3160
a(lp3164
S'Thats'
p3165
aS'what'
p3166
aS'everybody'
p3167
aS'says'
p3168
aaa(lp3169
g3160
a(lp3170
S'In'
p3171
aS'fact'
p3172
ag54
aS'stopped'
p3173
aS'wearing'
p3174
aS'it'
p3175
aS'to'
p3176
aS'work'
p3177
aaa(lp3178
S'CINDYXXXX'
p3179
a(lp3180
aa(lp3181
S'ANDREW'
p3182
a(lp3183
S'because'
p3184
aS'the'
p3185
aS'uh'
p3186
aaa(lp3187
g3182
a(lp3188
S'some'
p3189
aS'of'
p3190
aS'the'
p3191
aS'ladies'
p3192
aaa(lp3193
g3182
a(lp3194
S'uh'
p3195
aaa(lp3196
g3182
a(lp3197
S'were'
p3198
aS'commenting'
p3199
aS'on'
p3200
aS'my'
p3201
aS'shirt'
p3202
aaa(lp3203
g3182
a(lp3204
S'so'
p3205
ag54
aS'stopped'
p3206
aS'wearing'
p3207
aS'it'
p3208
aaa(lp3209
g3182
a(lp3210
g54
aS'figure'
p3211
aS'its'
p3212
aS'none'
p3213
aS'of'
p3214
aS'their'
p3215
aS'damn'
p3216
aS'business'
p3217
aaa(lp3218
S'DARLENETheyre'
p3219
a(lp3220
S'just'
p3221
aS'being'
p3222
aS'nice'
p3223
aaa(lp3224
S'CINDYXX'
p3225
a(lp3226
S'XXX'
p3227
aS'XX'
p3228
aaa(lp3229
S'ANDREW'
p3230
a(lp3231
aa(lp3232
S'DARLENEVOX'
p3233
a(lp3234
S'Andrew'
p3235
aS'VOX'
p3236
aaa(lp3237
S'ANDREW'
p3238
a(lp3239
aa(lp3240
S'DARLENEWhat'
p3241
a(lp3242
S'do'
p3243
aS'you'
p3244
aS'think'
p3245
aaa(lp3246
S'ANDREW'
p3247
a(lp3248
aa(lp3249
S'DARLENEtheyre'
p3250
a(lp3251
S'putting'
p3252
aS'the'
p3253
aS'make'
p3254
aS'on'
p3255
aS'you'
p3256
aS'or'
p3257
aS'something'
p3258
aaa(lp3259
S'ANDREWNo'
p3260
a(lp3261
aa(lp3262
g3260
a(lp3263
S'But'
p3264
ag54
aS'dont'
p3265
aS'wanna'
p3266
aS'give'
p3267
aS'em'
p3268
aS'any'
p3269
aS'reason'
p3270
aS'to'
p3271
aaa(lp3272
g3260
a(lp3273
S'So'
p3274
aaa(lp3275
S'ENVMIC_NOISE'
p3276
a(lp3277
aa(lp3278
S'DARLENEOh'
p3279
a(lp3280
aa(lp3281
S'ANDREW'
p3282
a(lp3283
aa(lp3284
g3282
a(lp3285
g54
aS'literally'
p3286
aS'stopped'
p3287
aS'wearing'
p3288
aaa(lp3289
S'DARLENEXXX'
p3290
a(lp3291
aa(lp3292
S'ANDREWone'
p3293
a(lp3294
S'blue'
p3295
aS'shirt'
p3296
aS'to'
p3297
aS'work'
p3298
aaa(lp3299
g3293
a(lp3300
S'because'
p3301
aS'they'
p3302
aS'all'
p3303
aS'commented'
p3304
aS'on'
p3305
aS'it'
p3306
aaa(lp3307
S'DARLENEHm'
p3308
a(lp3309
aa(lp3310
S'ANDREW'
p3311
a(lp3312
S'Uh'
p3313
aaa(lp3314
g3311
a(lp3315
g54
aS'mean'
p3316
aS'Im'
p3317
aS'very'
p3318
aS'sensitive'
p3319
aS'about'
p3320
aS'that'
p3321
aaa(lp3322
g3311
a(lp3323
g54
aS'wont'
p3324
aS'put'
p3325
aS'up'
p3326
aS'with'
p3327
aS'that'
p3328
aS'bullshit'
p3329
aaa(lp3330
g3311
a(lp3331
S'Lets'
p3332
aS'see'
p3333
aaa(lp3334
g3311
a(lp3335
S'what'
p3336
aS'else'
p3337
aS'did'
p3338
ag54
aS'get'
p3339
aaa(lp3340
g3311
a(lp3341
g54
aS'got'
p3342
aS'socks'
p3343
aaa(lp3344
g3311
a(lp3345
g54
aS'got'
p3346
aS'underwear'
p3347
aaa(lp3348
g3311
a(lp3349
S'and'
p3350
aS'uh'
p3351
aaa(lp3352
S'CINDY'
p3353
a(lp3354
S'The'
p3355
aS'tie'
p3356
aaa(lp3357
S'ANDREW'
p3358
a(lp3359
S'Oh'
p3360
aaa(lp3361
g3358
a(lp3362
g1152
aS'tie'
p3363
aaa(lp3364
g3358
a(lp3365
S'The'
p3366
ag54
aS'got'
p3367
aS'the'
p3368
aS'tie'
p3369
aS'so'
p3370
aS'they'
p3371
aS'can'
p3372
aS'comment'
p3373
aS'on'
p3374
ag67
aS'it'
p3375
ag67
aaa(lp3376
S'CINDYX'
p3377
a(lp3378
S'What'
p3379
ag67
aaa(lp3380
S'ANDREW'
p3381
a(lp3382
S'Its'
p3383
aS'got'
p3384
aS'horses'
p3385
aS'and'
p3386
aS'ducks'
p3387
aS'and'
p3388
aaa(lp3389
S'DARLENE'
p3390
a(lp3391
aa(lp3392
S'ANDREW'
p3393
a(lp3394
g54
aS'got'
p3395
aS'it'
p3396
aS'specifically'
p3397
aS'so'
p3398
aS'they'
p3399
aS'can'
p3400
aS'comment'
p3401
aS'about'
p3402
aS'it'
p3403
aaa(lp3404
S'DARLENEHm'
p3405
a(lp3406
aa(lp3407
S'ANDREW'
p3408
a(lp3409
S'Yeah'
p3410
aaa(lp3411
S'CINDYA'
p3412
a(lp3413
S'book'
p3414
aaa(lp3415
S'ANDREWI'
p3416
a(lp3417
S'mean'
p3418
aS'its'
p3419
aS'the'
p3420
aS'k'
p3421
aaa(lp3422
g3416
a(lp3423
g54
aS'got'
p3424
aS'me'
p3425
ag12
aS'book'
p3426
aaa(lp3427
S'CINDYA'
p3428
a(lp3429
S'saw'
p3430
aaa(lp3431
g3428
a(lp3432
g12
aS'ha'
p3433
aaa(lp3434
g3428
a(lp3435
g12
aS'screwdriver'
p3436
aaa(lp3437
S'ANDREWOh'
p3438
a(lp3439
S'God'
p3440
aaa(lp3441
g3438
a(lp3442
S'yeah'
p3443
aaa(lp3444
g3438
a(lp3445
g54
aS'got'
p3446
ag12
aS'skill'
p3447
aS'saw'
p3448
aaa(lp3449
g3438
a(lp3450
S'and'
p3451
ag54
aS'got'
p3452
ag12
aS'power'
p3453
aS'drill'
p3454
aaa(lp3455
g3438
a(lp3456
g54
aS'havent'
p3457
aS'tried'
p3458
aS'out'
p3459
aS'my'
p3460
aS'power'
p3461
aS'drill'
p3462
aS'yet'
p3463
aaa(lp3464
S'DARLENEI'
p3465
a(lp3466
S'thought'
p3467
aS'you'
p3468
aS'had'
p3469
aS'that'
p3470
aS'kinda'
p3471
aS'stuff'
p3472
aS'already'
p3473
aaa(lp3474
S'CINDYNo'
p3475
a(lp3476
g12
aS'screwdriver'
p3477
aaa(lp3478
S'ANDREW'
p3479
a(lp3480
S'Well'
p3481
aS'the'
p3482
aaa(lp3483
g3479
a(lp3484
S'the'
p3485
aS'ski'
p3486
aaa(lp3487
g3479
a(lp3488
S'uh'
p3489
aaa(lp3490
g3479
a(lp3491
S'PAR'
p3492
aS'not'
p3493
aS'drill'
p3494
aaa(lp3495
g3479
a(lp3496
S'screwdriver'
p3497
aS'PAR'
p3498
aaa(lp3499
g3479
a(lp3500
S'um'
p3501
aaa(lp3502
g3479
a(lp3503
g54
aS'never'
p3504
aS'would'
p3505
aS'buy'
p3506
aS'the'
p3507
aS'power'
p3508
aS'screwdriver'
p3509
aaa(lp3510
g3479
a(lp3511
S'because'
p3512
ag54
aS'figured'
p3513
aS'they'
p3514
aS'were'
p3515
aS'too'
p3516
aS'expensive'
p3517
aaa(lp3518
g3479
a(lp3519
S'And'
p3520
aaa(lp3521
S'DARLENEYeah'
p3522
a(lp3523
aa(lp3524
S'ANDREWso'
p3525
a(lp3526
S'they'
p3527
aS'found'
p3528
aS'it'
p3529
aS'on'
p3530
aS'sale'
p3531
aaa(lp3532
g3525
a(lp3533
S'Black'
p3534
aS'and'
p3535
aS'Decker'
p3536
aaa(lp3537
g3525
a(lp3538
S'and'
p3539
aS'got'
p3540
aS'me'
p3541
aS'that'
p3542
aS'for'
p3543
aS'Christmas'
p3544
aaa(lp3545
S'DARLENEIs'
p3546
a(lp3547
S'it'
p3548
ag12
aS'rechargeable'
p3549
aS'thing'
p3550
aaa(lp3551
S'ANDREWOh'
p3552
a(lp3553
S'yeah'
p3554
aaa(lp3555
g3552
a(lp3556
S'yeah'
p3557
aaa(lp3558
S'DARLENEX'
p3559
a(lp3560
S'Yeah'
p3561
ag67
aaa(lp3562
S'ANDREW'
p3563
a(lp3564
S'And'
p3565
aS'then'
p3566
aS'um'
p3567
aaa(lp3568
g3563
a(lp3569
S'uh'
p3570
aaa(lp3571
g3563
a(lp3572
S'my'
p3573
aS'skill'
p3574
aS'saw'
p3575
aS'broke'
p3576
aaa(lp3577
g3563
a(lp3578
S'mm'
p3579
aaa(lp3580
g3563
a(lp3581
S'Six'
p3582
aS'or'
p3583
aS'eight'
p3584
aS'years'
p3585
aS'ago'
p3586
aaa(lp3587
g3563
a(lp3588
S'So'
p3589
aS'they'
p3590
aS'got'
p3591
aS'me'
p3592
ag12
aS'new'
p3593
aS'skill'
p3594
aS'saw'
p3595
aaa(lp3596
S'CINDYI'
p3597
a(lp3598
S'guess'
p3599
ag54
aS'didnt'
p3600
aS'know'
p3601
aS'it'
p3602
aS'was'
p3603
aS'broken'
p3604
aaa(lp3605
S'ANDREW'
p3606
a(lp3607
S'And'
p3608
aS'uh'
p3609
aaa(lp3610
g3606
a(lp3611
S'what'
p3612
aS'else'
p3613
aaa(lp3614
S'CINDY'
p3615
a(lp3616
S'Some'
p3617
aS'underwear'
p3618
aaa(lp3619
S'ANDREW'
p3620
a(lp3621
S'Yeah'
p3622
aaa(lp3623
g3620
a(lp3624
S'underwear'
p3625
aS'socks'
p3626
aaa(lp3627
g3620
a(lp3628
S'Some'
p3629
aaa(lp3630
S'DARLENEWhatd'
p3631
a(lp3632
S'you'
p3633
aS'get'
p3634
aS'the'
p3635
aS'kids'
p3636
aaa(lp3637
S'CINDYX'
p3638
a(lp3639
S'Dont'
p3640
aS'forget'
p3641
aS'the'
p3642
aS'thing'
p3643
aS'for'
p3644
ag67
aS'after'
p3645
aS'you'
p3646
aS'get'
p3647
aS'out'
p3648
aS'of'
p3649
aS'the'
p3650
aS'shower'
p3651
aaa(lp3652
S'ANDREW'
p3653
a(lp3654
S'What'
p3655
aS'did'
p3656
aS'we'
p3657
aS'get'
p3658
aS'the'
p3659
aS'kids'
p3660
aaa(lp3661
g3653
a(lp3662
S'Lets'
p3663
aS'see'
p3664
aaa(lp3665
g3653
a(lp3666
S'we'
p3667
aS'got'
p3668
aS'Kevin'
p3669
ag12
aS'camera'
p3670
aaa(lp3671
g3653
a(lp3672
S'And'
p3673
aS'we'
p3674
aS'got'
p3675
aS'him'
p3676
aaa(lp3677
S'CINDYYou'
p3678
a(lp3679
S'went'
p3680
aS'crazy'
p3681
aS'on'
p3682
aS'Kevin'
p3683
aaa(lp3684
S'ANDREW'
p3685
a(lp3686
aa(lp3687
g3685
a(lp3688
S'from'
p3689
aS'uh'
p3690
aaa(lp3691
g3685
a(lp3692
S'course'
p3693
aS'he'
p3694
aS'got'
p3695
aS'his'
p3696
aS'new'
p3697
aaa(lp3698
g3685
a(lp3699
S'He'
p3700
aS'bought'
p3701
aS'his'
p3702
aS'new'
p3703
aS'computer'
p3704
aaa(lp3705
g3685
a(lp3706
S'Thats'
p3707
aaa(lp3708
g3685
a(lp3709
S'He'
p3710
aS'bought'
p3711
aS'that'
p3712
aaa(lp3713
g3685
a(lp3714
S'But'
p3715
aaa(lp3716
g3685
a(lp3717
S'we'
p3718
aS'got'
p3719
aS'him'
p3720
aS'am'
p3721
aS'upg'
p3722
aS'upgrade'
p3723
aaa(lp3724
g3685
a(lp3725
S'of'
p3726
aS'Word'
p3727
aS'Perfect'
p3728
aaa(lp3729
g3685
a(lp3730
S'from'
p3731
aS'five'
p3732
aS'point'
p3733
aS'one'
p3734
aS'to'
p3735
aS'six'
p3736
aS'point'
p3737
aS'o'
p3738
aaa(lp3739
g3685
a(lp3740
S'and'
p3741
aaa(lp3742
g3685
a(lp3743
S'put'
p3744
aS'it'
p3745
aS'under'
p3746
aS'Windows'
p3747
aaa(lp3748
g3685
a(lp3749
S'Hes'
p3750
aS'got'
p3751
aS'Windows'
p3752
aS'on'
p3753
aS'his'
p3754
aS'machine'
p3755
aaa(lp3756
g3685
a(lp3757
S'Uh'
p3758
aaa(lp3759
S'DARLENEHm'
p3760
a(lp3761
aa(lp3762
S'ANDREWSo'
p3763
a(lp3764
S'hes'
p3765
aS'using'
p3766
aS'the'
p3767
aS'current'
p3768
aS'stuff'
p3769
aS'now'
p3770
aaa(lp3771
g3763
a(lp3772
S'He'
p3773
aaa(lp3774
g3763
a(lp3775
g54
aS'dont'
p3776
aS'even'
p3777
aS'have'
p3778
aS'it'
p3779
aS'that'
p3780
aS'fancy'
p3781
aS'at'
p3782
aS'work'
p3783
aaa(lp3784
S'DARLENE'
p3785
a(lp3786
S'Mhm'
p3787
aaa(lp3788
S'ANDREWAnd'
p3789
a(lp3790
g54
aS'got'
p3791
ag12
aS'highpowered'
p3792
aS'machine'
p3793
aaa(lp3794
S'DARLENESo'
p3795
a(lp3796
S'Wor'
p3797
aaa(lp3798
g3795
a(lp3799
S'At'
p3800
aS'work'
p3801
aS'they'
p3802
aaa(lp3803
g3795
a(lp3804
S'usually'
p3805
aS'give'
p3806
aS'you'
p3807
aS'the'
p3808
aaa(lp3809
g3795
a(lp3810
S'least'
p3811
aS'one'
p3812
aS'you'
p3813
aS'can'
p3814
aS'get'
p3815
aS'by'
p3816
aS'with'
p3817
aaa(lp3818
S'ANDREW'
p3819
a(lp3820
S'No'
p3821
aaa(lp3822
g3819
a(lp3823
S'theyve'
p3824
aS'learned'
p3825
aS'over'
p3826
aS'the'
p3827
aS'years'
p3828
aaa(lp3829
g3819
a(lp3830
S'theyre'
p3831
aS'getting'
p3832
aS'fancier'
p3833
aS'there'
p3834
aaa(lp3835
g3819
a(lp3836
g54
aS'think'
p3837
aS'were'
p3838
aS'gonna'
p3839
aS'go'
p3840
aS'to'
p3841
aS'six'
p3842
aS'point'
p3843
aS'O'
p3844
aS'next'
p3845
aS'year'
p3846
aaa(lp3847
g3819
a(lp3848
S'but'
p3849
aS'Im'
p3850
aS'not'
p3851
aS'sure'
p3852
aaa(lp3853
g3819
a(lp3854
S'And'
p3855
aS'lets'
p3856
aS'see'
p3857
aaa(lp3858
g3819
a(lp3859
S'Uh'
p3860
aS'what'
p3861
aS'did'
p3862
aS'we'
p3863
aS'get'
p3864
aaa(lp3865
S'CINDYFinished'
p3866
a(lp3867
S'his'
p3868
aS'afghan'
p3869
aaa(lp3870
S'ANDREW'
p3871
a(lp3872
S'Oh'
p3873
aaa(lp3874
g3871
a(lp3875
S'Cindy'
p3876
aS'finished'
p3877
aS'off'
p3878
aS'his'
p3879
aS'afghan'
p3880
aaa(lp3881
g3871
a(lp3882
S'He'
p3883
aS'started'
p3884
aS'complaining'
p3885
aaa(lp3886
g3871
a(lp3887
S'about'
p3888
aS'three'
p3889
aS'weeks'
p3890
aS'ago'
p3891
aaa(lp3892
g3871
a(lp3893
S'he'
p3894
aS'was'
p3895
aS'cold'
p3896
aS'out'
p3897
aS'there'
p3898
aaa(lp3899
g3871
a(lp3900
S'apparently'
p3901
aS'they'
p3902
aS'build'
p3903
aS'the'
p3904
aS'buildings'
p3905
aaa(lp3906
g3871
a(lp3907
S'and'
p3908
aS'dont'
p3909
aS'put'
p3910
aS'any'
p3911
aS'insulation'
p3912
aS'in'
p3913
aaa(lp3914
g3871
a(lp3915
S'Cause'
p3916
aS'they'
p3917
aS'dont'
p3918
aS'expect'
p3919
aS'it'
p3920
aS'to'
p3921
aS'get'
p3922
aS'cold'
p3923
aaa(lp3924
S'DARLENEMm'
p3925
a(lp3926
aa(lp3927
S'ANDREW'
p3928
a(lp3929
S'But'
p3930
aS'he'
p3931
aS'was'
p3932
aS'cold'
p3933
aaa(lp3934
g3928
a(lp3935
S'And'
p3936
aS'uh'
p3937
aaa(lp3938
g3928
a(lp3939
S'it'
p3940
aS'was'
p3941
aS'getting'
p3942
aS'down'
p3943
aS'in'
p3944
aaa(lp3945
S'CINDY'
p3946
a(lp3947
S'We'
p3948
aS'gave'
p3949
aS'him'
p3950
ag12
aS'tape'
p3951
aS'with'
p3952
aS'all'
p3953
aS'the'
p3954
aS'Simpsons'
p3955
aS'on'
p3956
aS'it'
p3957
aaa(lp3958
S'ANDREWMm'
p3959
a(lp3960
aa(lp3961
g3959
a(lp3962
S'upper'
p3963
aS'thirties'
p3964
aaa(lp3965
g3959
a(lp3966
S'low'
p3967
aS'forties'
p3968
aaa(lp3969
g3959
a(lp3970
S'Gave'
p3971
aS'him'
p3972
ag12
aS'tape'
p3973
aaa(lp3974
S'DARLENEY_unhunh'
p3975
a(lp3976
aa(lp3977
S'ANDREWtheyve'
p3978
a(lp3979
S'been'
p3980
aS'recording'
p3981
aaa(lp3982
g3978
a(lp3983
S'faithfully'
p3984
aS're'
p3985
aaa(lp3986
g3978
a(lp3987
S'every'
p3988
aS'week'
p3989
aaa(lp3990
g3978
a(lp3991
S'recording'
p3992
aS'all'
p3993
aS'the'
p3994
aS'Simpsons'
p3995
aaa(lp3996
g3978
a(lp3997
S'and'
p3998
aS'uh'
p3999
aaa(lp4000
g3978
a(lp4001
S'editing'
p4002
aS'out'
p4003
aS'all'
p4004
aS'the'
p4005
aS'commercials'
p4006
aaa(lp4007
g3978
a(lp4008
S'So'
p4009
aS'they'
p4010
aS'gave'
p4011
aS'him'
p4012
aS'that'
p4013
aaa(lp4014
S'CINDYAnd'
p4015
a(lp4016
g12
aS'Simpsons'
p4017
aS'calendar'
p4018
aaa(lp4019
S'ANDREW'
p4020
a(lp4021
S'and'
p4022
ag12
aS'Simpsons'
p4023
aS'calendar'
p4024
aaa(lp4025
g4020
a(lp4026
S'lets'
p4027
aS'see'
p4028
aS'l'
p4029
aaa(lp4030
S'CINDYOh'
p4031
a(lp4032
S'and'
p4033
ag12
aS'care'
p4034
aS'package'
p4035
aaa(lp4036
S'DARLENEA'
p4037
a(lp4038
S'tape'
p4039
aS'of'
p4040
aS'what'
p4041
aaa(lp4042
S'ANDREW'
p4043
a(lp4044
S'Hunh'
p4045
aaa(lp4046
S'DARLENE'
p4047
a(lp4048
S'With'
p4049
aS'what'
p4050
aaa(lp4051
g4047
a(lp4052
S'the'
p4053
aS'commercials'
p4054
aS'taped'
p4055
aS'out'
p4056
aaa(lp4057
S'ANDREW'
p4058
a(lp4059
S'All'
p4060
aS'the'
p4061
aS'Simpsons'
p4062
aS'shows'
p4063
aaa(lp4064
S'DARLENE'
p4065
a(lp4066
S'Oh'
p4067
aS'Simpsons'
p4068
aaa(lp4069
S'ANDREWYeah'
p4070
a(lp4071
aa(lp4072
S'DARLENE'
p4073
a(lp4074
S'Okay'
p4075
aaa(lp4076
S'ANDREWAnd'
p4077
a(lp4078
S'and'
p4079
aS'they'
p4080
aS'edited'
p4081
aS'out'
p4082
aS'all'
p4083
aS'the'
p4084
aS'commercials'
p4085
aaa(lp4086
g4077
a(lp4087
S'so'
p4088
aS'hes'
p4089
aS'got'
p4090
aaa(lp4091
g4077
a(lp4092
S'what'
p4093
aaa(lp4094
g4077
a(lp4095
S'Three'
p4096
aS'hours'
p4097
aaa(lp4098
g4077
a(lp4099
S'of'
p4100
aaa(lp4101
g4077
a(lp4102
S'or'
p4103
aS'four'
p4104
aS'hours'
p4105
aaa(lp4106
g4077
a(lp4107
S'of'
p4108
aS'nothing'
p4109
aS'but'
p4110
aS'solid'
p4111
ag372
aaa(lp4112
S'CINDYCould'
p4113
a(lp4114
S'be'
p4115
aS'six'
p4116
aaa(lp4117
S'ANDREW'
p4118
a(lp4119
S'Maybe'
p4120
aS'six'
p4121
aS'hours'
p4122
aaa(lp4123
g4118
a(lp4124
S'because'
p4125
aS'they'
p4126
aS'did'
p4127
aS'it'
p4128
aaa(lp4129
S'CINDYIts'
p4130
a(lp4131
S'on'
p4132
aS'the'
p4133
aS'slow'
p4134
aS'speed'
p4135
aaa(lp4136
S'ANDREW'
p4137
a(lp4138
S'on'
p4139
aS'the'
p4140
aS'slow'
p4141
aS'speed'
p4142
aaa(lp4143
g4137
a(lp4144
S'of'
p4145
aaa(lp4146
g4137
a(lp4147
S'nothing'
p4148
aS'but'
p4149
aS'the'
p4150
aS'Simpsons'
p4151
aaa(lp4152
S'CINDY'
p4153
a(lp4154
S'And'
p4155
aS'then'
p4156
aS'he'
p4157
aS'got'
p4158
aS'that'
p4159
aS'care'
p4160
aS'package'
p4161
aaa(lp4162
S'ANDREW'
p4163
a(lp4164
aa(lp4165
g4163
a(lp4166
S'Oh'
p4167
aaa(lp4168
g4163
a(lp4169
S'and'
p4170
aS'then'
p4171
aS'we'
p4172
aS'got'
p4173
aS'him'
p4174
ag12
aS'New'
p4175
aS'Mexico'
p4176
aS'care'
p4177
aS'package'
p4178
aaa(lp4179
g4163
a(lp4180
S'they'
p4181
aS'got'
p4182
ag12
aS'store'
p4183
aS'here'
p4184
aaa(lp4185
g4163
a(lp4186
g12
aS'New'
p4187
aS'Mexico'
p4188
aS'store'
p4189
aaa(lp4190
g4163
a(lp4191
S'where'
p4192
aS'all'
p4193
aS'these'
p4194
aS'things'
p4195
aS'made'
p4196
aaa(lp4197
g4163
a(lp4198
S'uh'
p4199
aaa(lp4200
g4163
a(lp4201
S'you'
p4202
aS'know'
p4203
aS'in'
p4204
aS'the'
p4205
aS'state'
p4206
aaa(lp4207
g4163
a(lp4208
S'They'
p4209
aS'sell'
p4210
aaa(lp4211
g4163
a(lp4212
S'so'
p4213
aS'we'
p4214
aS'got'
p4215
aS'him'
p4216
aaa(lp4217
g4163
a(lp4218
S'uh'
p4219
ag12
aS'little'
p4220
aS'thing'
p4221
aS'of'
p4222
aS'honey'
p4223
aaa(lp4224
g4163
a(lp4225
S'and'
p4226
aaa(lp4227
g4163
a(lp4228
S'P'
p4229
aS'what'
p4230
aS'else'
p4231
aaa(lp4232
g4163
a(lp4233
g54
aS'cant'
p4234
aS'remember'
p4235
ag4229
aaa(lp4236
S'CINDYThose'
p4237
a(lp4238
S'pistachio'
p4239
aS'nuts'
p4240
aaa(lp4241
g4237
a(lp4242
S'with'
p4243
aS'green'
p4244
aS'chili'
p4245
aaa(lp4246
S'ANDREWOh'
p4247
a(lp4248
aa(lp4249
g4247
a(lp4250
S'pistachio'
p4251
aS'mu'
p4252
aS'uh'
p4253
aS'nuts'
p4254
aS'with'
p4255
aS'uh'
p4256
aaa(lp4257
g4247
a(lp4258
S'the'
p4259
aS'green'
p4260
aS'chili'
p4261
aS'on'
p4262
aS'them'
p4263
aaa(lp4264
S'CINDYAnd'
p4265
a(lp4266
S'some'
p4267
aS'kinda'
p4268
aS'chili'
p4269
aS'mustard'
p4270
aaa(lp4271
S'DARLENEMm'
p4272
a(lp4273
aa(lp4274
S'ANDREW'
p4275
a(lp4276
S'And'
p4277
ag12
aS'ch'
p4278
aS'some'
p4279
aS'kinda'
p4280
aS'chili'
p4281
aS'mustard'
p4282
aaa(lp4283
S'CINDYChili'
p4284
a(lp4285
S'honey'
p4286
aS'mustard'
p4287
aaa(lp4288
S'ANDREW'
p4289
a(lp4290
S'Chili'
p4291
aS'honey'
p4292
aS'mustard'
p4293
aS'or'
p4294
aS'something'
p4295
aaa(lp4296
S'CINDYor'
p4297
a(lp4298
S'something'
p4299
aaa(lp4300
S'ANDREW'
p4301
a(lp4302
S'Anyway'
p4303
aaa(lp4304
g4301
a(lp4305
S'so'
p4306
aS'hell'
p4307
aS'remember'
p4308
aaa(lp4309
g4301
a(lp4310
S'Uh'
p4311
aaa(lp4312
g4301
a(lp4313
S'lets'
p4314
aS'see'
p4315
aaa(lp4316
g4301
a(lp4317
S'And'
p4318
aS'then'
p4319
aS'Lisa'
p4320
aS'got'
p4321
ag12
aS'coat'
p4322
aaa(lp4323
g4301
a(lp4324
S'shes'
p4325
aS'been'
p4326
aS'needing'
p4327
ag12
aS'winter'
p4328
aS'coat'
p4329
aaa(lp4330
g4301
a(lp4331
S'And'
p4332
aaa(lp4333
g4301
a(lp4334
S'some'
p4335
aS'slacks'
p4336
aaa(lp4337
S'CINDYAnd'
p4338
a(lp4339
g12
aS'pair'
p4340
aS'of'
p4341
aS'sweats'
p4342
aaa(lp4343
S'ANDREW'
p4344
a(lp4345
S'Oh'
p4346
aaa(lp4347
g4344
a(lp4348
S'and'
p4349
aS'got'
p4350
aS'her'
p4351
aS'uh'
p4352
aS'Aladdin'
p4353
aaa(lp4354
g4344
a(lp4355
S'shes'
p4356
aS'been'
p4357
aS'wanting'
p4358
aS'Ala'
p4359
aaa(lp4360
S'DARLENEOh'
p4361
a(lp4362
S'the'
p4363
aS'movie'
p4364
aaa(lp4365
S'ANDREW'
p4366
a(lp4367
S'Hunh'
p4368
aaa(lp4369
S'DARLENE'
p4370
a(lp4371
S'The'
p4372
aS'movie'
p4373
aaa(lp4374
S'ANDREWYeah'
p4375
a(lp4376
aa(lp4377
g4375
a(lp4378
S'Yeah'
p4379
aaa(lp4380
g4375
a(lp4381
S'So'
p4382
aaa(lp4383
g4375
a(lp4384
S'So'
p4385
aS'when'
p4386
aS'she'
p4387
aS'wants'
p4388
aS'to'
p4389
aS'sit'
p4390
aS'here'
p4391
aS'and'
p4392
aS'blob'
p4393
aS'out'
p4394
aS'some'
p4395
aS'afternoon'
p4396
aaa(lp4397
g4375
a(lp4398
S'if'
p4399
aS'she'
p4400
aS'ever'
p4401
aS'gets'
p4402
aS'one'
p4403
aaa(lp4404
g4375
a(lp4405
S'she'
p4406
aS'can'
p4407
aS'put'
p4408
aS'Aladdin'
p4409
aS'on'
p4410
aS'and'
p4411
aS'watch'
p4412
aS'it'
p4413
aaa(lp4414
S'DARLENE'
p4415
a(lp4416
aa(lp4417
S'ANDREW'
p4418
a(lp4419
S'Round'
p4420
aS'trip'
p4421
aS'and'
p4422
aS'so'
p4423
aS'on'
p4424
aaa(lp4425
g4418
a(lp4426
S'So'
p4427
aaa(lp4428
g4418
a(lp4429
S'lets'
p4430
aS'see'
p4431
aaa(lp4432
g4418
a(lp4433
S'What'
p4434
aS'did'
p4435
aS'Cathy'
p4436
aS'get'
p4437
aaa(lp4438
g4418
a(lp4439
S'She'
p4440
aS'got'
p4441
aS'the'
p4442
aS'sweater'
p4443
aS'red'
p4444
aS'sweater'
p4445
aS'shes'
p4446
aS'wearing'
p4447
aS'now'
p4448
aaa(lp4449
g4418
a(lp4450
S'Uh'
p4451
aaa(lp4452
g4418
a(lp4453
g4229
ag67
aS'oh'
p4454
aS'God'
p4455
ag67
aaa(lp4456
g4418
a(lp4457
S'so'
p4458
aS'much'
p4459
ag54
aS'c'
p4460
ag4229
aaa(lp4461
S'CINDYLisa'
p4462
a(lp4463
S'got'
p4464
ag12
aS'whole'
p4465
aS'bunch'
p4466
aS'more'
p4467
aS'stuff'
p4468
aS'than'
p4469
aaa(lp4470
S'ANDREW'
p4471
a(lp4472
S'Yeah'
p4473
aaa(lp4474
g4471
a(lp4475
S'what'
p4476
aS'did'
p4477
aS'you'
p4478
aS'get'
p4479
aS'though'
p4480
aaa(lp4481
S'CINDY'
p4482
a(lp4483
S'VOX'
p4484
aS'Books'
p4485
aS'VOX'
p4486
aaa(lp4487
S'ANDREW'
p4488
a(lp4489
S'Oh'
p4490
aaa(lp4491
g4488
a(lp4492
S'Books'
p4493
aaa(lp4494
S'CINDYAnd'
p4495
a(lp4496
S'CDs'
p4497
aaa(lp4498
S'ANDREW'
p4499
a(lp4500
S'And'
p4501
aS'CD'
p4502
aaa(lp4503
S'DARLENEWhat'
p4504
a(lp4505
S'kinda'
p4506
aS'books'
p4507
aaa(lp4508
S'ANDREW'
p4509
a(lp4510
S'What'
p4511
aS'kinda'
p4512
aS'book'
p4513
aaa(lp4514
S'DARLENECause'
p4515
a(lp4516
aa(lp4517
g4515
a(lp4518
S'cause'
p4519
aS'you'
p4520
aS'said'
p4521
aS'you'
p4522
aS'got'
p4523
ag12
aS'book'
p4524
aS'too'
p4525
aaa(lp4526
S'ANDREWF'
p4527
a(lp4528
S'Hold'
p4529
aS'on'
p4530
ag3002
aaa(lp4531
g4527
a(lp4532
S'Huh'
p4533
aS'hunh'
p4534
aaa(lp4535
S'DARLENE'
p4536
a(lp4537
S'You'
p4538
aS'said'
p4539
aS'you'
p4540
aS'got'
p4541
ag12
aS'book'
p4542
aS'too'
p4543
aaa(lp4544
S'ANDREW'
p4545
a(lp4546
S'Well'
p4547
aaa(lp4548
S'DARLENEX'
p4549
a(lp4550
S'this'
p4551
aS'Christmas'
p4552
ag67
aaa(lp4553
S'ANDREWyou'
p4554
a(lp4555
S'wouldnt'
p4556
aS'wanna'
p4557
aS'know'
p4558
aaa(lp4559
g4554
a(lp4560
S'Mine'
p4561
aS'is'
p4562
aS'called'
p4563
aS'uh'
p4564
aS'uh'
p4565
aaa(lp4566
g4554
a(lp4567
S'Seven'
p4568
aS'Habits'
p4569
aS'of'
p4570
aS'Effective'
p4571
aS'People'
p4572
aS'or'
p4573
aS'something'
p4574
aS'like'
p4575
aS'this'
p4576
aaa(lp4577
S'DARLENEOh'
p4578
a(lp4579
aa(lp4580
S'ANDREW'
p4581
a(lp4582
g67
aS'Y'
p4583
ag67
aS'bullshit'
p4584
aS'stuff'
p4585
aaa(lp4586
g4581
a(lp4587
S'None'
p4588
aaa(lp4589
g4581
a(lp4590
S'No'
p4591
aS'fun'
p4592
aS'stuff'
p4593
aaa(lp4594
S'DARLENE'
p4595
a(lp4596
aa(lp4597
S'CINDYXX'
p4598
a(lp4599
aa(lp4600
S'ANDREWMines'
p4601
a(lp4602
S'pure'
p4603
aS'work'
p4604
aaa(lp4605
g4601
a(lp4606
S'Hold'
p4607
aS'on'
p4608
aaa(lp4609
g4601
a(lp4610
S'Cindys'
p4611
aS'gonna'
p4612
aS'tell'
p4613
aS'you'
p4614
aS'about'
p4615
aS'her'
p4616
aS'books'
p4617
aaa(lp4618
S'CINDYX'
p4619
a(lp4620
S'We'
p4621
aS'didnt'
p4622
aS'send'
p4623
aS'em'
p4624
ag67
aaa(lp4625
g4619
a(lp4626
g54
aS'dont'
p4627
aS'even'
p4628
aS'know'
p4629
aS'for'
p4630
aS'sure'
p4631
aaa(lp4632
S'DARLENEOkay'
p4633
a(lp4634
aa(lp4635
S'ANDREW'
p4636
a(lp4637
S'Shes'
p4638
aS'gonna'
p4639
aS'ga'
p4640
aS'grab'
p4641
aS'her'
p4642
aS'books'
p4643
aaa(lp4644
g4636
a(lp4645
S'Shes'
p4646
aS'got'
p4647
aS'so'
p4648
aS'many'
p4649
aaa(lp4650
g4636
a(lp4651
S'But'
p4652
aS'she'
p4653
aS'got'
p4654
aS'about'
p4655
aS'five'
p4656
aS'or'
p4657
aS'six'
p4658
aS'books'
p4659
aaa(lp4660
g4636
a(lp4661
S'And'
p4662
ag12
aS'bunch'
p4663
aS'of'
p4664
aS'CDs'
p4665
aaa(lp4666
g4636
a(lp4667
S'Apparently'
p4668
aS'Frank'
p4669
aS'Sinatra'
p4670
aaa(lp4671
g4636
a(lp4672
S'They'
p4673
aS'did'
p4674
aS'duets'
p4675
aaa(lp4676
S'DARLENE'
p4677
a(lp4678
S'With'
p4679
aS'who'
p4680
aaa(lp4681
S'ANDREW'
p4682
a(lp4683
S'Well'
p4684
aaa(lp4685
g4682
a(lp4686
S'they'
p4687
aS'did'
p4688
ag12
aS'whole'
p4689
aS'bunch'
p4690
aS'of'
p4691
aS'people'
p4692
aaa(lp4693
g4682
a(lp4694
S'What'
p4695
aS'they'
p4696
aS'did'
p4697
aS'is'
p4698
aaa(lp4699
g4682
a(lp4700
S'Frank'
p4701
aS'did'
p4702
aS'his'
p4703
aS'singing'
p4704
aaa(lp4705
g4682
a(lp4706
S'and'
p4707
aS'then'
p4708
aS'they'
p4709
aaa(lp4710
g4682
a(lp4711
S'had'
p4712
aS'these'
p4713
aS'other'
p4714
aS'people'
p4715
aS'sing'
p4716
aS'along'
p4717
aaa(lp4718
g4682
a(lp4719
S'separately'
p4720
aaa(lp4721
S'DARLENEX'
p4722
a(lp4723
S'Oh'
p4724
ag67
aaa(lp4725
S'ANDREWBarbara'
p4726
a(lp4727
S'Streisand'
p4728
aS'and'
p4729
aS'so'
p4730
aS'on'
p4731
aaa(lp4732
S'DARLENE'
p4733
a(lp4734
S'Hm'
p4735
aaa(lp4736
S'ANDREW'
p4737
a(lp4738
S'And'
p4739
aS'its'
p4740
aS'called'
p4741
aS'Duets'
p4742
aaa(lp4743
g4737
a(lp4744
S'and'
p4745
aS'shes'
p4746
aS'got'
p4747
aS'that'
p4748
aaa(lp4749
S'CINDYOkay'
p4750
a(lp4751
g54
aS'got'
p4752
aaa(lp4753
S'ANDREW'
p4754
a(lp4755
S'Hold'
p4756
aS'on'
p4757
aaa(lp4758
S'CINDYDays'
p4759
a(lp4760
S'of'
p4761
aS'Grace'
p4762
aaa(lp4763
g4759
a(lp4764
S'ANDREWIm'
p4765
aS'gonna'
p4766
aaa(lp4767
g4759
a(lp4768
S'Just'
p4769
ag12
aS'minute'
p4770
aaa(lp4771
g4759
a(lp4772
S'Im'
p4773
aS'gonna'
p4774
aS'let'
p4775
aS'Cindy'
p4776
aS'tell'
p4777
aS'you'
p4778
aaa(lp4779
g4759
a(lp4780
S'Hold'
p4781
aS'on'
p4782
aaa(lp4783
S'DARLENE'
p4784
a(lp4785
S'Okay'
p4786
aaa(lp4787
S'CINDY'
p4788
a(lp4789
S'Hi'
p4790
aaa(lp4791
g4788
a(lp4792
S'Who'
p4793
aS'am'
p4794
ag54
aS'talking'
p4795
aS'to'
p4796
aaa(lp4797
S'DARLENEThis'
p4798
a(lp4799
S'is'
p4800
aS'Darlee'
p4801
aaa(lp4802
S'ANDREWDarlene'
p4803
a(lp4804
aa(lp4805
S'CINDY'
p4806
a(lp4807
S'HI'
p4808
aS'Hi'
p4809
aS'Darlee'
p4810
aaa(lp4811
g4806
a(lp4812
S'how'
p4813
aS'you'
p4814
aS'doing'
p4815
aS'HI'
p4816
aaa(lp4817
S'DARLENEOh'
p4818
a(lp4819
S'fine'
p4820
aaa(lp4821
S'CINDY'
p4822
a(lp4823
S'Merry'
p4824
aS'Christmas'
p4825
aaa(lp4826
S'DARLENEMerry'
p4827
a(lp4828
S'Christmas'
p4829
ag67
aS'to'
p4830
aS'you'
p4831
aS'too'
p4832
ag67
aaa(lp4833
S'CINDY'
p4834
a(lp4835
S'Okay'
p4836
aaa(lp4837
g4834
a(lp4838
S'One'
p4839
aS'thing'
p4840
aaa(lp4841
g4834
a(lp4842
S'we'
p4843
aS'joined'
p4844
ag12
aS'book'
p4845
aS'club'
p4846
aaa(lp4847
g4834
a(lp4848
S'And'
p4849
ag54
aS'got'
p4850
aS'it'
p4851
aS'for'
p4852
aS'hardly'
p4853
aS'any'
p4854
aS'money'
p4855
aaa(lp4856
g4834
a(lp4857
S'you'
p4858
aS'know'
p4859
aaa(lp4860
g4834
a(lp4861
S'theyll'
p4862
aS'send'
p4863
aS'you'
p4864
aS'all'
p4865
aS'these'
p4866
aS'free'
p4867
aS'books'
p4868
aaa(lp4869
g4834
a(lp4870
S'all'
p4871
aS'you'
p4872
aS'have'
p4873
aS'to'
p4874
aS'do'
p4875
aS'is'
p4876
aS'do'
p4877
aS'postage'
p4878
aaa(lp4879
g4834
a(lp4880
S'and'
p4881
aS'then'
p4882
aS'supposedly'
p4883
aaa(lp4884
g4834
a(lp4885
S'you'
p4886
aS'dont'
p4887
aS'have'
p4888
aS'to'
p4889
aS'um'
p4890
aaa(lp4891
g4834
a(lp4892
S'buy'
p4893
aS'any'
p4894
aS'more'
p4895
aS'books'
p4896
aaa(lp4897
g4834
a(lp4898
S'but'
p4899
aS'they'
p4900
aS'want'
p4901
aS'you'
p4902
aS'to'
p4903
aaa(lp4904
g4834
a(lp4905
S'So'
p4906
ag54
aS'got'
p4907
aS'like'
p4908
aS'five'
p4909
aS'of'
p4910
aS'em'
p4911
aaa(lp4912
S'DARLENEYeah'
p4913
a(lp4914
g54
aS'know'
p4915
aaa(lp4916
S'CINDY'
p4917
a(lp4918
S'Okay'
p4919
aaa(lp4920
g4917
a(lp4921
g54
aS'got'
p4922
aS'Days'
p4923
aS'of'
p4924
aS'Grace'
p4925
aS'Arthur'
p4926
aS'Ashe'
p4927
aaa(lp4928
g4917
a(lp4929
S'and'
p4930
aS'then'
p4931
ag54
aS'got'
p4932
aS'that'
p4933
aS'Molly'
p4934
aS'Ives'
p4935
aaa(lp4936
g4917
a(lp4937
S'uh'
p4938
aS'Nothing'
p4939
aS'but'
p4940
aS'Good'
p4941
aS'Times'
p4942
aaa(lp4943
g4917
a(lp4944
S'and'
p4945
aS'lets'
p4946
aS'see'
p4947
aaa(lp4948
g4917
a(lp4949
S'Medieval'
p4950
aaa(lp4951
S'DARLENEEw'
p4952
a(lp4953
aa(lp4954
g4952
a(lp4955
g54
aS'didnt'
p4956
aS'know'
p4957
aS'you'
p4958
aS'liked'
p4959
aS'that'
p4960
aS'kinda'
p4961
aS'stuff'
p4962
aaa(lp4963
S'CINDYYeah'
p4964
a(lp4965
aa(lp4966
g4964
a(lp4967
g54
aS'like'
p4968
aS'history'
p4969
aaa(lp4970
g4964
a(lp4971
S'and'
p4972
aS'then'
p4973
aaa(lp4974
g4964
a(lp4975
S'uh'
p4976
aaa(lp4977
g4964
a(lp4978
S'the'
p4979
aS'uh'
p4980
aaa(lp4981
g4964
a(lp4982
S'Official'
p4983
aS'and'
p4984
aS'Confidential'
p4985
aaa(lp4986
g4964
a(lp4987
S'its'
p4988
ag12
aS'VOX'
p4989
aS'secret'
p4990
aS'life'
p4991
aS'of'
p4992
aaa(lp4993
S'DARLENEOh'
p4994
a(lp4995
aa(lp4996
S'CINDY'
p4997
a(lp4998
aa(lp4999
S'DARLENE'
p5000
a(lp5001
aa(lp5002
g5000
a(lp5003
S'That'
p5004
aS'should'
p5005
aS'be'
p5006
aS'interesting'
p5007
aaa(lp5008
S'CINDYH'
p5009
a(lp5010
aa(lp5011
S'DARLENE'
p5012
a(lp5013
aa(lp5014
S'CINDYYeah'
p5015
a(lp5016
aa(lp5017
g5015
a(lp5018
S'Th'
p5019
aaa(lp5020
g5015
a(lp5021
S'Oh'
p5022
aS'hes'
p5023
aS'supposed'
p5024
aS'to'
p5025
aS'be'
p5026
aaa(lp5027
g5015
a(lp5028
S'you'
p5029
aS'know'
p5030
aaa(lp5031
g5015
a(lp5032
g12
aS'closet'
p5033
aS'everything'
p5034
aaa(lp5035
S'DARLENEYeah'
p5036
a(lp5037
aa(lp5038
S'CINDY'
p5039
a(lp5040
aa(lp5041
S'ANDREW'
p5042
a(lp5043
aa(lp5044
S'CINDY'
p5045
a(lp5046
S'and'
p5047
aS'then'
p5048
aaa(lp5049
S'ANDREWXX'
p5050
a(lp5051
aa(lp5052
S'CINDYAudrey'
p5053
a(lp5054
S'Hepburn'
p5055
aaa(lp5056
g5053
a(lp5057
S'And'
p5058
aS'uh'
p5059
aaa(lp5060
g5053
a(lp5061
S'then'
p5062
aS'the'
p5063
aS'kids'
p5064
aS'got'
p5065
aS'me'
p5066
aaa(lp5067
g5053
a(lp5068
S'uh'
p5069
aaa(lp5070
g5053
a(lp5071
S'Kevin'
p5072
aS'got'
p5073
aS'me'
p5074
aS'one'
p5075
aaa(lp5076
g5053
a(lp5077
S'Dont'
p5078
aS'Know'
p5079
aS'Much'
p5080
aS'about'
p5081
aS'Geography'
p5082
aaa(lp5083
S'DARLENE'
p5084
a(lp5085
S'The'
p5086
aS'name'
p5087
aS'of'
p5088
aS'its'
p5089
aaa(lp5090
S'CINDYP'
p5091
a(lp5092
S'Yeah'
p5093
ag4229
aaa(lp5094
S'DARLENE'
p5095
a(lp5096
g54
aS'Dont'
p5097
aS'Know'
p5098
aS'Much'
p5099
aS'about'
p5100
aS'Geography'
p5101
aaa(lp5102
S'CINDY'
p5103
a(lp5104
aa(lp5105
g5103
a(lp5106
S'Yeah'
p5107
aaa(lp5108
g5103
a(lp5109
S'Dont'
p5110
aS'Know'
p5111
aS'Much'
p5112
aaa(lp5113
g5103
a(lp5114
S'You'
p5115
aS'know'
p5116
aS'that'
p5117
aS'song'
p5118
aaa(lp5119
g5103
a(lp5120
S'Dont'
p5121
aS'know'
p5122
ag501
aaa(lp5123
S'DARLENEYeah'
p5124
a(lp5125
aa(lp5126
S'CINDYYeah'
p5127
a(lp5128
aa(lp5129
S'DARLENESING'
p5130
a(lp5131
S'Much'
p5132
aS'about'
p5133
aS'history'
p5134
aaa(lp5135
S'CINDYYeah'
p5136
a(lp5137
aa(lp5138
g5136
a(lp5139
S'dont'
p5140
aS'know'
p5141
aS'much'
p5142
aS'about'
p5143
aS'geo'
p5144
aaa(lp5145
S'DARLENEDont'
p5146
a(lp5147
S'know'
p5148
aS'much'
p5149
aS'about'
p5150
aS'ge'
p5151
aS'SING'
p5152
aaa(lp5153
S'CINDY'
p5154
a(lp5155
S'Yeah'
p5156
aaa(lp5157
g5154
a(lp5158
S'And'
p5159
aS'this'
p5160
aS'guy'
p5161
aaa(lp5162
g5154
a(lp5163
S'uh'
p5164
aaa(lp5165
g5154
a(lp5166
S'wrote'
p5167
ag12
aS'book'
p5168
aS'about'
p5169
aaa(lp5170
g5154
a(lp5171
S'Dont'
p5172
aS'Know'
p5173
aS'Much'
p5174
aS'about'
p5175
aS'History'
p5176
aS'either'
p5177
aaa(lp5178
g5154
a(lp5179
S'So'
p5180
aaa(lp5181
g5154
a(lp5182
S'hes'
p5183
aS'written'
p5184
aaa(lp5185
g5154
a(lp5186
S'you'
p5187
aS'know'
p5188
aaa(lp5189
g5154
a(lp5190
S'quite'
p5191
ag12
aS'few'
p5192
ag54
aS'Dont'
p5193
aS'Know'
p5194
aS'Much'
p5195
aaa(lp5196
g5154
a(lp5197
S'Yeah'
p5198
aaa(lp5199
S'DARLENE'
p5200
a(lp5201
aa(lp5202
S'CINDYYeah'
p5203
a(lp5204
aa(lp5205
g5203
a(lp5206
S'so'
p5207
ag54
aS'think'
p5208
ag54
aS'got'
p5209
aS'that'
p5210
aS'one'
p5211
aaa(lp5212
g5203
a(lp5213
S'Yeah'
p5214
aaa(lp5215
S'DARLENEWell'
p5216
a(lp5217
S'theres'
p5218
ag12
aS'uh'
p5219
aaa(lp5220
g5216
a(lp5221
g54
aS'dont'
p5222
aS'know'
p5223
aaa(lp5224
g5216
a(lp5225
S'do'
p5226
aS'you'
p5227
aS'go'
p5228
aS'out'
p5229
aS'shopping'
p5230
aS'very'
p5231
aS'often'
p5232
aaa(lp5233
S'CINDY'
p5234
a(lp5235
aa(lp5236
S'DARLENELike'
p5237
a(lp5238
S'to'
p5239
aS'the'
p5240
aS'mall'
p5241
aS'or'
p5242
aS'anything'
p5243
aaa(lp5244
S'CINDYWell'
p5245
a(lp5246
aa(lp5247
g5245
a(lp5248
S'we'
p5249
aS'go'
p5250
aS'out'
p5251
aaa(lp5252
g5245
a(lp5253
S'Saturday'
p5254
aS'morning'
p5255
aS'to'
p5256
aS'breakfast'
p5257
aaa(lp5258
g5245
a(lp5259
S'Every'
p5260
aS'Saturday'
p5261
aaa(lp5262
g5245
a(lp5263
S'ad'
p5264
aS'the'
p5265
aS'place'
p5266
aS'we'
p5267
aS'go'
p5268
aaa(lp5269
g5245
a(lp5270
S'is'
p5271
aS'on'
p5272
aaa(lp5273
g5245
a(lp5274
S'in'
p5275
aS'the'
p5276
aS'pyramid'
p5277
aS'area'
p5278
aaa(lp5279
g5245
a(lp5280
S'where'
p5281
aS'they'
p5282
aS'have'
p5283
aS'kinda'
p5284
aS'like'
p5285
ag12
aS'food'
p5286
aS'court'
p5287
aaa(lp5288
g5245
a(lp5289
S'So'
p5290
aS'were'
p5291
aS'in'
p5292
aS'the'
p5293
aS'mall'
p5294
aS'at'
p5295
aS'least'
p5296
aS'once'
p5297
ag12
aS'week'
p5298
aaa(lp5299
S'DARLENE'
p5300
a(lp5301
S'Unhunh'
p5302
aaa(lp5303
S'CINDY'
p5304
a(lp5305
S'Which'
p5306
aS'is'
p5307
aS'VOX'
p5308
aS'bad'
p5309
aS'VOX'
p5310
aaa(lp5311
S'DARLENEX'
p5312
a(lp5313
S'Well'
p5314
ag54
aS'watched'
p5315
aS'don'
p5316
ag67
aaa(lp5317
g5312
a(lp5318
g54
aS'watched'
p5319
aS'Donahue'
p5320
aaa(lp5321
g5312
a(lp5322
S'Well'
p5323
ag54
aS'didnt'
p5324
aS'watch'
p5325
aS'it'
p5326
aaa(lp5327
g5312
a(lp5328
g54
aS'went'
p5329
aS'to'
p5330
aS'work'
p5331
aaa(lp5332
g5312
a(lp5333
g54
aS'taped'
p5334
aS'it'
p5335
aS'and'
p5336
aaa(lp5337
g5312
a(lp5338
S'when'
p5339
ag54
aS'came'
p5340
aS'home'
p5341
ag54
aS'watched'
p5342
aS'it'
p5343
aaa(lp5344
g5312
a(lp5345
S'And'
p5346
aS'they'
p5347
aS'had'
p5348
ag12
aaa(lp5349
g5312
a(lp5350
S'show'
p5351
aS'on'
p5352
aS'about'
p5353
aS'uh'
p5354
aaa(lp5355
g5312
a(lp5356
S'mostly'
p5357
aS'about'
p5358
aS'doctors'
p5359
aaa(lp5360
g5312
a(lp5361
S'and'
p5362
aS'then'
p5363
aS'hospitals'
p5364
aS'too'
p5365
aaa(lp5366
S'CINDY'
p5367
a(lp5368
S'Unhunh'
p5369
aaa(lp5370
S'DARLENE'
p5371
a(lp5372
S'Horrorstory'
p5373
aS'type'
p5374
aS'things'
p5375
aaa(lp5376
S'CINDYOh'
p5377
a(lp5378
S'joy'
p5379
aaa(lp5380
S'DARLENERemember'
p5381
a(lp5382
S'that'
p5383
aS'book'
p5384
aS'yall'
p5385
aS'sent'
p5386
aaa(lp5387
g5381
a(lp5388
S'Worst'
p5389
aS'Pills'
p5390
aS'Best'
p5391
aS'Pills'
p5392
aaa(lp5393
S'CINDYOh'
p5394
a(lp5395
S'yeah'
p5396
aaa(lp5397
S'DARLENE'
p5398
a(lp5399
g54
aS'dont'
p5400
aS'know'
p5401
aS'if'
p5402
aS'theyre'
p5403
aS'the'
p5404
aS'same'
p5405
aS'guys'
p5406
aaa(lp5407
g5398
a(lp5408
S'but'
p5409
aS'this'
p5410
aS'is'
p5411
aS'Best'
p5412
aaa(lp5413
g5398
a(lp5414
S'uh'
p5415
aaa(lp5416
g5398
a(lp5417
S'Good'
p5418
aS'Surgery'
p5419
aS'Bad'
p5420
aS'Surgery'
p5421
aaa(lp5422
S'CINDY'
p5423
a(lp5424
S'Oh'
p5425
aS'is'
p5426
aS'it'
p5427
aS'Wolfe'
p5428
aaa(lp5429
g5423
a(lp5430
S'Is'
p5431
aS'his'
p5432
aS'last'
p5433
aS'name'
p5434
aS'Wolfe'
p5435
aaa(lp5436
S'DARLENEI'
p5437
a(lp5438
S'dont'
p5439
aS'know'
p5440
aaa(lp5441
S'CINDY'
p5442
a(lp5443
S'Is'
p5444
aS'he'
p5445
aS'one'
p5446
aS'of'
p5447
aS'w'
p5448
aaa(lp5449
S'DARLENEX'
p5450
a(lp5451
S'He'
p5452
aS'said'
p5453
ag67
aS'never'
p5454
aaa(lp5455
S'CINDY'
p5456
a(lp5457
S'uh'
p5458
aS'Naders'
p5459
aS'raiders'
p5460
aaa(lp5461
S'DARLENE'
p5462
a(lp5463
S'It'
p5464
aS'wasnt'
p5465
aaa(lp5466
g5462
a(lp5467
S'Uh'
p5468
aaa(lp5469
g5462
a(lp5470
S'Ralph'
p5471
aS'Nader'
p5472
aS'wasnt'
p5473
aS'on'
p5474
aS'the'
p5475
aS'show'
p5476
aaa(lp5477
g5462
a(lp5478
S'and'
p5479
ag54
aS'never'
p5480
aS'heard'
p5481
aS'him'
p5482
aS'mentioned'
p5483
aaa(lp5484
S'CINDY'
p5485
a(lp5486
S'Oh'
p5487
aaa(lp5488
S'DARLENEBut'
p5489
a(lp5490
S'this'
p5491
aS'guy'
p5492
aaa(lp5493
g5489
a(lp5494
S'was'
p5495
aS'some'
p5496
aS'kinda'
p5497
aaa(lp5498
g5489
a(lp5499
S'Oh'
p5500
ag54
aS'wrote'
p5501
aS'it'
p5502
aS'down'
p5503
aaa(lp5504
g5489
a(lp5505
S'Medical'
p5506
aS'society'
p5507
aaa(lp5508
g5489
a(lp5509
S'but'
p5510
aS'its'
p5511
aS'not'
p5512
aS'connected'
p5513
aS'to'
p5514
aS'the'
p5515
aS'medical'
p5516
aS'profession'
p5517
aaa(lp5518
g5489
a(lp5519
S'its'
p5520
aS'like'
p5521
ag12
aS'medical'
p5522
aS'investigating'
p5523
aS'place'
p5524
aaa(lp5525
S'CINDY'
p5526
a(lp5527
S'Oh'
p5528
aaa(lp5529
g5526
a(lp5530
S'that'
p5531
aS'sounds'
p5532
aS'like'
p5533
ag12
aS'good'
p5534
aaa(lp5535
S'DARLENEUm'
p5536
a(lp5537
aa(lp5538
S'CINDY'
p5539
a(lp5540
aa(lp5541
S'DARLENE'
p5542
a(lp5543
S'Because'
p5544
aaa(lp5545
g5542
a(lp5546
S'like'
p5547
aS'they'
p5548
aS'have'
p5549
aS'one'
p5550
aS'guy'
p5551
aS'on'
p5552
aS'there'
p5553
aaa(lp5554
g5542
a(lp5555
S'he'
p5556
aS'went'
p5557
aS'in'
p5558
aS'for'
p5559
aS'arthroscopic'
p5560
aS'surgery'
p5561
aS'on'
p5562
aS'his'
p5563
aS'knee'
p5564
aaa(lp5565
g5542
a(lp5566
S'almo'
p5567
aaa(lp5568
g5542
a(lp5569
S'he'
p5570
aS'had'
p5571
aS'last'
p5572
aS'rites'
p5573
aS'twice'
p5574
aaa(lp5575
g5542
a(lp5576
S'And'
p5577
aS'all'
p5578
aS'kinds'
p5579
aS'of'
p5580
aS'stuff'
p5581
aaa(lp5582
S'CINDYUnhunh'
p5583
a(lp5584
aa(lp5585
S'DARLENE'
p5586
a(lp5587
S'And'
p5588
aS'he'
p5589
aS'got'
p5590
aS'so'
p5591
aS'bad'
p5592
aaa(lp5593
g5586
a(lp5594
S'The'
p5595
aS'doctor'
p5596
aS'did'
p5597
aS'him'
p5598
aS'the'
p5599
aS'way'
p5600
aS'that'
p5601
aS'one'
p5602
aS'doctor'
p5603
aS'did'
p5604
aS'you'
p5605
aaa(lp5606
g5586
a(lp5607
S'Operate'
p5608
aS'and'
p5609
aS'then'
p5610
aS'leave'
p5611
aaa(lp5612
S'CINDY'
p5613
a(lp5614
S'Yeah'
p5615
aaa(lp5616
S'DARLENE'
p5617
a(lp5618
S'Town'
p5619
aaa(lp5620
g5617
a(lp5621
S'And'
p5622
aaa(lp5623
g5617
a(lp5624
S'anyway'
p5625
aaa(lp5626
g5617
a(lp5627
S'he'
p5628
aS'almost'
p5629
aS'died'
p5630
aaa(lp5631
g5617
a(lp5632
S'Too'
p5633
aaa(lp5634
g5617
a(lp5635
S'He'
p5636
aS'almost'
p5637
aS'died'
p5638
aS'twice'
p5639
aaa(lp5640
g5617
a(lp5641
S'Evidently'
p5642
aaa(lp5643
g5617
a(lp5644
S'they'
p5645
aS'gave'
p5646
aS'him'
p5647
aS'last'
p5648
aS'rites'
p5649
aS'twice'
p5650
aaa(lp5651
S'CINDY'
p5652
a(lp5653
S'Yeah'
p5654
aaa(lp5655
S'DARLENEBut'
p5656
a(lp5657
S'um'
p5658
aaa(lp5659
g5656
a(lp5660
S'uh'
p5661
aaa(lp5662
g5656
a(lp5663
S'just'
p5664
aaa(lp5665
g5656
a(lp5666
S'They'
p5667
aS'held'
p5668
aS'up'
p5669
aS'the'
p5670
aS'book'
p5671
aaa(lp5672
g5656
a(lp5673
S'but'
p5674
aS'they'
p5675
aS'didnt'
p5676
aS'say'
p5677
aaa(lp5678
g5656
a(lp5679
S'who'
p5680
aS'wrote'
p5681
aS'it'
p5682
aaa(lp5683
g5656
a(lp5684
S'they'
p5685
aS'didnt'
p5686
aaa(lp5687
g5656
a(lp5688
g54
aS'told'
p5689
aS'Janine'
p5690
aaa(lp5691
g5656
a(lp5692
g54
aS'wish'
p5693
aS'theyd'
p5694
aS'given'
p5695
aS'that'
p5696
aS'address'
p5697
aaa(lp5698
g5656
a(lp5699
S'you'
p5700
aS'can'
p5701
aS'send'
p5702
aS'and'
p5703
aS'write'
p5704
aS'off'
p5705
aS'for'
p5706
aS'it'
p5707
aaa(lp5708
S'CINDY'
p5709
a(lp5710
S'You'
p5711
aS'know'
p5712
ag54
aS'wish'
p5713
aaa(lp5714
g5709
a(lp5715
S'that'
p5716
ag12
aS'lot'
p5717
aS'of'
p5718
aS'times'
p5719
aaa(lp5720
g5709
a(lp5721
S'it'
p5722
aS'seems'
p5723
aS'like'
p5724
aaa(lp5725
g5709
a(lp5726
S'when'
p5727
aS'Ill'
p5728
aaa(lp5729
g5709
a(lp5730
g54
aS'wont'
p5731
aS'care'
p5732
aS'about'
p5733
aaa(lp5734
g5709
a(lp5735
g67
aS'itll'
p5736
ag67
aS'introduce'
p5737
aS'something'
p5738
aS'on'
p5739
aS'the'
p5740
aS'Today'
p5741
aS'Show'
p5742
aS'or'
p5743
aS'something'
p5744
aaa(lp5745
g5709
a(lp5746
S'and'
p5747
aS'theyll'
p5748
aS'be'
p5749
aS'talking'
p5750
aS'about'
p5751
ag12
aS'book'
p5752
aaa(lp5753
g5709
a(lp5754
S'or'
p5755
aS'an'
p5756
aS'album'
p5757
aaa(lp5758
g5709
a(lp5759
S'or'
p5760
ag12
aS'CD'
p5761
aaa(lp5762
g5709
a(lp5763
S'or'
p5764
aS'anything'
p5765
aS'you'
p5766
aS'know'
p5767
aaa(lp5768
g5709
a(lp5769
S'And'
p5770
ag54
aS'dont'
p5771
aaa(lp5772
g5709
a(lp5773
S'They'
p5774
aS'give'
p5775
aS'it'
p5776
aS'in'
p5777
aS'the'
p5778
aS'beginning'
p5779
aaa(lp5780
g5709
a(lp5781
S'and'
p5782
ag54
aS'dont'
p5783
aS'really'
p5784
aS'care'
p5785
aS'that'
p5786
aS'much'
p5787
aaa(lp5788
g5709
a(lp5789
S'And'
p5790
aS'then'
p5791
aaa(lp5792
g5709
a(lp5793
S'when'
p5794
aS'theyre'
p5795
aS'done'
p5796
aaa(lp5797
g5709
a(lp5798
S'they'
p5799
aS'dont'
p5800
aS'tell'
p5801
aS'you'
p5802
aS'what'
p5803
aS'it'
p5804
aS'is'
p5805
aS'again'
p5806
aaa(lp5807
S'DARLENE'
p5808
a(lp5809
S'Yeah'
p5810
aaa(lp5811
S'CINDYAnd'
p5812
a(lp5813
S'then'
p5814
ag54
aS'n'
p5815
aaa(lp5816
g5812
a(lp5817
S'Then'
p5818
ag54
aS'care'
p5819
aaa(lp5820
g5812
a(lp5821
S'You'
p5822
aS'know'
p5823
aaa(lp5824
S'DARLENE'
p5825
a(lp5826
S'Yeah'
p5827
aaa(lp5828
S'CINDY'
p5829
a(lp5830
S'Yeah'
p5831
aaa(lp5832
g5829
a(lp5833
S'and'
p5834
aS'that'
p5835
ag372
aS'sounds'
p5836
aS'like'
p5837
aaa(lp5838
S'DARLENE'
p5839
a(lp5840
S'Well'
p5841
aS'because'
p5842
aaa(lp5843
g5839
a(lp5844
S'No'
p5845
aaa(lp5846
g5839
a(lp5847
g54
aS'had'
p5848
aS'this'
p5849
aS'on'
p5850
aS'tape'
p5851
aS'though'
p5852
aaa(lp5853
g5839
a(lp5854
S'And'
p5855
aS'they'
p5856
aS'never'
p5857
aS'did'
p5858
aaa(lp5859
g5839
a(lp5860
g54
aS'think'
p5861
aS'they'
p5862
aS'introduced'
p5863
aS'the'
p5864
aS'guy'
p5865
aaa(lp5866
S'CINDYPeriod'
p5867
a(lp5868
aa(lp5869
S'DARLENEbut'
p5870
a(lp5871
S'they'
p5872
aS'didnt'
p5873
aS'say'
p5874
aS'he'
p5875
aS'was'
p5876
aS'the'
p5877
aS'one'
p5878
aS'who'
p5879
aS'wrote'
p5880
aS'the'
p5881
aS'book'
p5882
aaa(lp5883
S'CINDY'
p5884
a(lp5885
S'Hm'
p5886
aaa(lp5887
S'DARLENE'
p5888
a(lp5889
S'All'
p5890
aaa(lp5891
g5888
a(lp5892
S'so'
p5893
aS'all'
p5894
ag54
aS'got'
p5895
aS'out'
p5896
aS'of'
p5897
aS'it'
p5898
aaa(lp5899
g5888
a(lp5900
S'was'
p5901
aS'the'
p5902
aS'name'
p5903
aS'of'
p5904
aS'the'
p5905
aS'book'
p5906
aaa(lp5907
S'CINDY'
p5908
a(lp5909
S'You'
p5910
aS'know'
p5911
aS'what'
p5912
aaa(lp5913
g5908
a(lp5914
S'if'
p5915
aS'you'
p5916
aS'go'
p5917
aS'down'
p5918
aS'to'
p5919
ag501
aaa(lp5920
g5908
a(lp5921
g12
aS'lot'
p5922
aS'of'
p5923
aS'those'
p5924
aS'book'
p5925
aS'stores'
p5926
aaa(lp5927
g5908
a(lp5928
S'Ill'
p5929
aS'bet'
p5930
aS'you'
p5931
aS'theyd'
p5932
aS'track'
p5933
aS'it'
p5934
aS'by'
p5935
aS'name'
p5936
aaa(lp5937
g5908
a(lp5938
S'And'
p5939
aaa(lp5940
S'DARLENEYeah'
p5941
a(lp5942
aa(lp5943
S'CINDYyou'
p5944
a(lp5945
S'know'
p5946
aaa(lp5947
g5944
a(lp5948
S'you'
p5949
aS'could'
p5950
aS'find'
p5951
aaa(lp5952
g5944
a(lp5953
S'cause'
p5954
aS'you'
p5955
aS'dont'
p5956
aaa(lp5957
g5944
a(lp5958
S'You'
p5959
aS'can'
p5960
aS'do'
p5961
aS'it'
p5962
aS'either'
p5963
aS'way'
p5964
aaa(lp5965
g5944
a(lp5966
S'Yeah'
p5967
aaa(lp5968
S'DARLENENot'
p5969
a(lp5970
S'that'
p5971
aS'Im'
p5972
aS'planning'
p5973
aS'on'
p5974
aS'having'
p5975
aS'surge'
p5976
aaa(lp5977
g5969
a(lp5978
S'Well'
p5979
ag54
aS'thought'
p5980
aS'of'
p5981
aS'going'
p5982
aS'back'
p5983
aS'to'
p5984
aS'an'
p5985
aS'orthopedic'
p5986
aS'doctor'
p5987
aaa(lp5988
g5969
a(lp5989
S'and'
p5990
aS'seeing'
p5991
aS'if'
p5992
aS'they'
p5993
aS'could'
p5994
aS'do'
p5995
aS'anything'
p5996
aS'about'
p5997
aS'my'
p5998
aS'foot'
p5999
aS'or'
p6000
aS'my'
p6001
aS'ankle'
p6002
aaa(lp6003
g5969
a(lp6004
S'whatever'
p6005
aS'it'
p6006
aS'is'
p6007
aS'thats'
p6008
aS'giving'
p6009
aS'me'
p6010
aS'trouble'
p6011
aaa(lp6012
S'CINDYYeah'
p6013
a(lp6014
aa(lp6015
g6013
a(lp6016
S'You'
p6017
aS'know'
p6018
aaa(lp6019
g6013
a(lp6020
g54
aS'thank'
p6021
aS'God'
p6022
aaa(lp6023
g6013
a(lp6024
S'because'
p6025
aS'they'
p6026
ag5448
aaa(lp6027
S'DARLENE'
p6028
a(lp6029
aa(lp6030
S'CINDYyou'
p6031
a(lp6032
S'know'
p6033
aS'how'
p6034
aS'theyve'
p6035
aS'been'
p6036
aS'talking'
p6037
aS'about'
p6038
aaa(lp6039
g6031
a(lp6040
S'what'
p6041
aS'was'
p6042
aS'it'
p6043
aS'those'
p6044
aS'uh'
p6045
aS'screws'
p6046
aaa(lp6047
g6031
a(lp6048
S'that'
p6049
aS'they'
p6050
ag5448
aaa(lp6051
g6031
a(lp6052
S'Theyre'
p6053
aS'okay'
p6054
aaa(lp6055
g6031
a(lp6056
S'for'
p6057
aS'different'
p6058
aS'parts'
p6059
aS'of'
p6060
aS'the'
p6061
aS'body'
p6062
aaa(lp6063
g6031
a(lp6064
S'but'
p6065
aS'then'
p6066
aS'they'
p6067
aaa(lp6068
g6031
a(lp6069
S'Some'
p6070
aS'of'
p6071
aS'these'
p6072
ag271
aS'orthopedic'
p6073
aS'surgeons'
p6074
aS'were'
p6075
aS'going'
p6076
aS'and'
p6077
aS'putting'
p6078
aS'em'
p6079
aS'in'
p6080
aS'the'
p6081
aS'back'
p6082
aaa(lp6083
S'DARLENE'
p6084
a(lp6085
S'Mm'
p6086
aaa(lp6087
S'CINDY'
p6088
a(lp6089
S'And'
p6090
aS'theyre'
p6091
aS'just'
p6092
aS'deadly'
p6093
aaa(lp6094
g6088
a(lp6095
g54
aS'mean'
p6096
aS'these'
p6097
aS'people'
p6098
aS'are'
p6099
aS'just'
p6100
aS'in'
p6101
aS'unbelievable'
p6102
aS'agony'
p6103
aaa(lp6104
g6088
a(lp6105
S'And'
p6106
aaa(lp6107
S'DARLENEWell'
p6108
a(lp6109
S'they'
p6110
aaa(lp6111
g6108
a(lp6112
S'What'
p6113
aS'about'
p6114
aS'that'
p6115
aaa(lp6116
g6108
a(lp6117
S'uh'
p6118
aaa(lp6119
g6108
a(lp6120
S'people'
p6121
aS'being'
p6122
aS'operated'
p6123
aS'on'
p6124
aS'on'
p6125
aS'their'
p6126
aS'jaw'
p6127
aaa(lp6128
S'CINDY'
p6129
a(lp6130
S'Oh'
p6131
aaa(lp6132
S'DARLENEThat'
p6133
a(lp6134
S'temporal'
p6135
aS'stuff'
p6136
aaa(lp6137
S'CINDY'
p6138
a(lp6139
S'And'
p6140
aS'they'
p6141
aS'would'
p6142
aaa(lp6143
S'DARLENE'
p6144
a(lp6145
S'And'
p6146
aS'theyre'
p6147
aS'putting'
p6148
aS'in'
p6149
aS'this'
p6150
aS'stuff'
p6151
aaa(lp6152
g6144
a(lp6153
S'that'
p6154
aS'would'
p6155
aS'had'
p6156
aS'never'
p6157
aS'been'
p6158
aS'tested'
p6159
aaa(lp6160
S'CINDY'
p6161
a(lp6162
g54
aS'dont'
p6163
aS'understand'
p6164
aS'this'
p6165
aS'sometimes'
p6166
aaa(lp6167
S'DARLENEIt'
p6168
a(lp6169
S'was'
p6170
aS'some'
p6171
aS'kinda'
p6172
aS'Teflon'
p6173
aS'material'
p6174
aaa(lp6175
g6168
a(lp6176
S'it'
p6177
aS'had'
p6178
aS'never'
p6179
aS'been'
p6180
aS'tested'
p6181
aS'on'
p6182
aS'animals'
p6183
aS'even'
p6184
aaa(lp6185
g6168
a(lp6186
S'or'
p6187
aS'anything'
p6188
aaa(lp6189
S'CINDY'
p6190
a(lp6191
S'Hunh'
p6192
aaa(lp6193
S'DARLENEAnd'
p6194
a(lp6195
S'this'
p6196
aS'guy'
p6197
aS'started'
p6198
aaa(lp6199
g6194
a(lp6200
S'it'
p6201
aS'was'
p6202
ag12
aS'doctor'
p6203
aaa(lp6204
g6194
a(lp6205
S'He'
p6206
aS'invented'
p6207
aS'it'
p6208
aaa(lp6209
g6194
a(lp6210
S'And'
p6211
aS'started'
p6212
aS'his'
p6213
aS'own'
p6214
aS'business'
p6215
aaa(lp6216
g6194
a(lp6217
S'and'
p6218
aS'sold'
p6219
aS'it'
p6220
aS'to'
p6221
aS'other'
p6222
aS'doctors'
p6223
aaa(lp6224
S'CINDY'
p6225
a(lp6226
S'Oh'
p6227
aaa(lp6228
g6225
a(lp6229
S'wait'
p6230
ag12
aS'second'
p6231
aaa(lp6232
g6225
a(lp6233
S'Um'
p6234
aaa(lp6235
g6225
a(lp6236
S'Was'
p6237
aS'that'
p6238
aS'just'
p6239
aS'recently'
p6240
aS'on'
p6241
aS'the'
p6242
aS'news'
p6243
aaa(lp6244
g6225
a(lp6245
S'Because'
p6246
aS'that'
p6247
aS'se'
p6248
aaa(lp6249
g6225
a(lp6250
S'Or'
p6251
aS'was'
p6252
aS'it'
p6253
aS'okayed'
p6254
aS'for'
p6255
aaa(lp6256
S'DARLENE'
p6257
a(lp6258
S'It'
p6259
aS'was'
p6260
aS'on'
p6261
aS'uh'
p6262
aaa(lp6263
g6257
a(lp6264
S'like'
p6265
aS'one'
p6266
aS'of'
p6267
aS'these'
p6268
aaa(lp6269
g6257
a(lp6270
S'uh'
p6271
aaa(lp6272
g6257
a(lp6273
S'Fortyeight'
p6274
aS'Hours'
p6275
aaa(lp6276
g6257
a(lp6277
S'or'
p6278
aS'something'
p6279
aS'like'
p6280
aS'that'
p6281
aaa(lp6282
S'CINDY'
p6283
a(lp6284
S'Yeah'
p6285
aaa(lp6286
g6283
a(lp6287
g54
aS'wonder'
p6288
aS'if'
p6289
ag54
aS'saw'
p6290
ag67
aS'the'
p6291
ag67
aS'similar'
p6292
aS'report'
p6293
aaa(lp6294
g6283
a(lp6295
S'Because'
p6296
aS'that'
p6297
aS'really'
p6298
aS'sounded'
p6299
aS'familiar'
p6300
aaa(lp6301
S'DARLENE'
p6302
a(lp6303
S'And'
p6304
aaa(lp6305
g6302
a(lp6306
S'they'
p6307
aS'they'
p6308
aS'had'
p6309
aS'some'
p6310
aS'people'
p6311
aS'there'
p6312
aS'who'
p6313
aS'had'
p6314
aS'had'
p6315
aS'the'
p6316
aS'surgery'
p6317
aaa(lp6318
g6302
a(lp6319
S'and'
p6320
aS'like'
p6321
aaa(lp6322
g6302
a(lp6323
S'this'
p6324
aS'one'
p6325
aS'day'
p6326
aS'uh'
p6327
aS'lady'
p6328
aaa(lp6329
S'ANDREW'
p6330
a(lp6331
aa(lp6332
S'DARLENEall'
p6333
a(lp6334
S'she'
p6335
aaa(lp6336
g6333
a(lp6337
S'She'
p6338
aS'was'
p6339
aS'in'
p6340
aS'so'
p6341
aS'much'
p6342
aS'pain'
p6343
aaa(lp6344
g6333
a(lp6345
S'all'
p6346
aS'she'
p6347
aS'could'
p6348
aS'do'
p6349
aS'was'
p6350
aS'curl'
p6351
aS'up'
p6352
aS'in'
p6353
aS'bed'
p6354
aS'all'
p6355
aS'the'
p6356
aS'time'
p6357
aaa(lp6358
S'CINDY'
p6359
a(lp6360
S'Yeah'
p6361
aaa(lp6362
S'DARLENE'
p6363
a(lp6364
S'And'
p6365
aaa(lp6366
S'CINDY'
p6367
a(lp6368
S'That'
p6369
aS'sounds'
p6370
aS'like'
p6371
aS'those'
p6372
aS'screws'
p6373
aS'things'
p6374
aS'that'
p6375
aaa(lp6376
g6367
a(lp6377
S'the'
p6378
aS'one'
p6379
ag54
aS'was'
p6380
aS'telling'
p6381
aS'you'
p6382
aS'about'
p6383
aaa(lp6384
S'DARLENEX'
p6385
a(lp6386
S'Yeah'
p6387
aaa(lp6388
S'CINDYyeah'
p6389
a(lp6390
aa(lp6391
S'DARLENE'
p6392
a(lp6393
S'Well'
p6394
ag54
aS'dont'
p6395
aS'know'
p6396
aaa(lp6397
g6392
a(lp6398
S'these'
p6399
aaa(lp6400
g6392
a(lp6401
g54
aS'think'
p6402
aS'they'
p6403
aS'called'
p6404
aS'em'
p6405
aS'hinges'
p6406
aS'or'
p6407
aS'something'
p6408
aaa(lp6409
S'CINDY'
p6410
a(lp6411
S'Hm'
p6412
aaa(lp6413
S'DARLENE'
p6414
a(lp6415
S'So'
p6416
aS'um'
p6417
aaa(lp6418
S'CINDY'
p6419
a(lp6420
S'Terrifying'
p6421
aaa(lp6422
g6419
a(lp6423
g54
aS'dont'
p6424
aaa(lp6425
S'DARLENE'
p6426
a(lp6427
aa(lp6428
g6426
a(lp6429
S'You'
p6430
aS'know'
p6431
aaa(lp6432
S'CINDY'
p6433
a(lp6434
S'Well'
p6435
aaa(lp6436
S'DARLENEI'
p6437
a(lp6438
S'very'
p6439
aS'briefly'
p6440
aS'thought'
p6441
aS'of'
p6442
aS'having'
p6443
aS'my'
p6444
aS'jaw'
p6445
aS'fixed'
p6446
aS'for'
p6447
aaa(lp6448
S'CINDYUh'
p6449
a(lp6450
aa(lp6451
S'DARLENE'
p6452
a(lp6453
S'See'
p6454
aS'my'
p6455
aS'bottom'
p6456
aS'jaw'
p6457
aS'doesnt'
p6458
aS'come'
p6459
aS'up'
p6460
aS'quite'
p6461
aS'far'
p6462
aS'enough'
p6463
aaa(lp6464
S'CINDY'
p6465
a(lp6466
S'Yeah'
p6467
aaa(lp6468
S'DARLENE'
p6469
a(lp6470
S'And'
p6471
aS'um'
p6472
aaa(lp6473
S'CINDY'
p6474
a(lp6475
g54
aS'tell'
p6476
aS'you'
p6477
aaa(lp6478
S'DARLENEX'
p6479
a(lp6480
S'thats'
p6481
ag67
aaa(lp6482
S'CINDY'
p6483
a(lp6484
S'Im'
p6485
aS'gonna'
p6486
aS'have'
p6487
aS'to'
p6488
aS'be'
p6489
aS'in'
p6490
ag12
aS'really'
p6491
aS'bi'
p6492
aaa(lp6493
g6483
a(lp6494
g54
ag54
aS'Ill'
p6495
aS'admit'
p6496
aaa(lp6497
g6483
a(lp6498
S'Ive'
p6499
aS'had'
p6500
aS'bad'
p6501
aS'experience'
p6502
aaa(lp6503
g6483
a(lp6504
S'But'
p6505
aaa(lp6506
g6483
a(lp6507
S'Im'
p6508
aS'not'
p6509
aS'volunteering'
p6510
aS'for'
p6511
aS'anything'
p6512
aaa(lp6513
S'DARLENE'
p6514
a(lp6515
S'Uh'
p6516
aaa(lp6517
S'CINDY'
p6518
a(lp6519
S'Surgerywise'
p6520
aaa(lp6521
S'DARLENEWell'
p6522
a(lp6523
S'see'
p6524
aaa(lp6525
g6522
a(lp6526
S'mine'
p6527
aS'would'
p6528
aS'be'
p6529
aS'more'
p6530
aS'for'
p6531
aS'looks'
p6532
aS'than'
p6533
aS'anything'
p6534
aS'else'
p6535
aaa(lp6536
S'CINDY'
p6537
a(lp6538
S'Oh'
p6539
aaa(lp6540
g6537
a(lp6541
S'Darlee'
p6542
aS'it'
p6543
aS'doesnt'
p6544
aS'chang'
p6545
aaa(lp6546
S'DARLENECause'
p6547
a(lp6548
S'my'
p6549
aS'jaws'
p6550
aS'dont'
p6551
aS'hurt'
p6552
aaa(lp6553
S'CINDYYoure'
p6554
a(lp6555
S'li'
p6556
aaa(lp6557
g6554
a(lp6558
S'Your'
p6559
aS'looks'
p6560
aS'are'
p6561
aS'fine'
p6562
aaa(lp6563
S'DARLENE'
p6564
a(lp6565
S'Uh'
p6566
aaa(lp6567
g6564
a(lp6568
S'Dont'
p6569
aS'ever'
p6570
aS'take'
p6571
ag12
aS'picture'
p6572
aS'of'
p6573
aS'me'
p6574
aS'from'
p6575
aS'the'
p6576
aS'side'
p6577
aaa(lp6578
g6564
a(lp6579
g54
aS'saw'
p6580
aS'me'
p6581
aS'on'
p6582
aS'television'
p6583
aaa(lp6584
g6564
a(lp6585
S'Talking'
p6586
aaa(lp6587
g6564
a(lp6588
S'and'
p6589
aS'they'
p6590
aS'had'
p6591
ag12
aS'side'
p6592
aS'angle'
p6593
aaa(lp6594
g6564
a(lp6595
S'And'
p6596
aS'it'
p6597
aS'looked'
p6598
aS'terrible'
p6599
aaa(lp6600
S'CINDYYeah'
p6601
a(lp6602
aa(lp6603
g6601
a(lp6604
S'but'
p6605
aS'youre'
p6606
aS'probably'
p6607
aS'extremely'
p6608
aS'critical'
p6609
aS'too'
p6610
aaa(lp6611
g6601
a(lp6612
S'And'
p6613
aS'everybody'
p6614
aS'else'
p6615
aS'probably'
p6616
aS'wouldnt'
p6617
aS'even'
p6618
aaa(lp6619
S'DARLENEP'
p6620
a(lp6621
S'Yeah'
p6622
ag4229
aaa(lp6623
S'CINDYYou'
p6624
a(lp6625
S'know'
p6626
aaa(lp6627
S'DARLENEBecause'
p6628
a(lp6629
S'this'
p6630
aS'guy'
p6631
aaa(lp6632
g6628
a(lp6633
S'at'
p6634
aS'work'
p6635
aaa(lp6636
g6628
a(lp6637
S'uh'
p6638
aaa(lp6639
g6628
a(lp6640
S'well'
p6641
aaa(lp6642
g6628
a(lp6643
S'they'
p6644
aS'had'
p6645
aS'they'
p6646
aS'had'
p6647
aS'it'
p6648
aS'on'
p6649
aS'the'
p6650
aS'night'
p6651
aS'before'
p6652
aaa(lp6653
g6628
a(lp6654
S'Its'
p6655
aS'back'
p6656
aS'when'
p6657
aS'they'
p6658
aS'had'
p6659
aS'this'
p6660
aaa(lp6661
g6628
a(lp6662
S'San'
p6663
aS'Antonio'
p6664
aS'Housing'
p6665
aS'Authority'
p6666
aS'putting'
p6667
aaa(lp6668
g6628
a(lp6669
S'the'
p6670
aS'houses'
p6671
aS'in'
p6672
aS'your'
p6673
aS'neighborhood'
p6674
aaa(lp6675
g6628
a(lp6676
S'and'
p6677
aS'they'
p6678
aS'put'
p6679
aS'three'
p6680
aS'on'
p6681
aS'my'
p6682
aS'street'
p6683
aaa(lp6684
g6628
a(lp6685
S'You'
p6686
aS'know'
p6687
aaa(lp6688
g6628
a(lp6689
g54
aS'said'
p6690
aS'hey'
p6691
aaa(lp6692
g6628
a(lp6693
S'if'
p6694
aS'you'
p6695
aS'wanna'
p6696
aS'be'
p6697
aS'fair'
p6698
aS'about'
p6699
aS'it'
p6700
aaa(lp6701
g6628
a(lp6702
S'spread'
p6703
aS'it'
p6704
aS'around'
p6705
aS'the'
p6706
aS'neighborhood'
p6707
aaa(lp6708
g6628
a(lp6709
S'Dont'
p6710
aS'just'
p6711
aS'put'
p6712
aS'em'
p6713
aS'all'
p6714
aaa(lp6715
g6628
a(lp6716
S'They'
p6717
aS'put'
p6718
aS'all'
p6719
aS'three'
p6720
aS'on'
p6721
aS'my'
p6722
aS'street'
p6723
aaa(lp6724
g6628
a(lp6725
S'And'
p6726
aaa(lp6727
S'CINDY'
p6728
a(lp6729
S'They'
p6730
aS'put'
p6731
aS'what'
p6732
aS'on'
p6733
aS'your'
p6734
aS'street'
p6735
aaa(lp6736
S'ENV'
p6737
a(lp6738
aa(lp6739
S'DARLENEUh'
p6740
a(lp6741
aa(lp6742
g6740
a(lp6743
S'public'
p6744
aS'housing'
p6745
aaa(lp6746
S'CINDY'
p6747
a(lp6748
S'Oh'
p6749
aS'yeah'
p6750
aaa(lp6751
g6747
a(lp6752
S'They'
p6753
aS'do'
p6754
aS'that'
p6755
ag12
aS'lot'
p6756
aS'in'
p6757
ag12
aS'lotta'
p6758
aS'areas'
p6759
aaa(lp6760
g6747
a(lp6761
S'Theyre'
p6762
aS'doing'
p6763
aS'that'
p6764
aS'around'
p6765
aS'here'
p6766
aS'too'
p6767
aaa(lp6768
S'DARLENEYeah'
p6769
a(lp6770
S'but'
p6771
aaa(lp6772
g6769
a(lp6773
S'this'
p6774
aS'is'
p6775
aaa(lp6776
g6769
a(lp6777
S'Usually'
p6778
aS'its'
p6779
aS'uh'
p6780
aaa(lp6781
g6769
a(lp6782
S'uh'
p6783
aS'p'
p6784
aS'uh'
p6785
aaa(lp6786
g6769
a(lp6787
S'PAR'
p6788
aS'oh'
p6789
aS'what'
p6790
aS'is'
p6791
aS'it'
p6792
aaa(lp6793
S'ANDREWWH'
p6794
a(lp6795
S'Its'
p6796
aS'on'
p6797
aS'the'
p6798
aS'cords'
p6799
aS'WH'
p6800
aaa(lp6801
S'DARLENEuh'
p6802
a(lp6803
S'PAR'
p6804
aaa(lp6805
g6802
a(lp6806
S'Something'
p6807
aS'with'
p6808
ag12
aS'number'
p6809
aS'in'
p6810
aS'it'
p6811
aaa(lp6812
S'ANDREWWH'
p6813
a(lp6814
S'XX'
p6815
aS'hold'
p6816
aS'this'
p6817
aS'XX'
p6818
aS'WH'
p6819
aaa(lp6820
S'CINDYHu'
p6821
a(lp6822
S'its'
p6823
aS'not'
p6824
aS'like'
p6825
aS'HUD'
p6826
aaa(lp6827
S'ANDREW'
p6828
a(lp6829
aa(lp6830
S'CINDYYeah'
p6831
a(lp6832
S'thats'
p6833
aS'how'
p6834
aS'they'
p6835
aaa(lp6836
g6831
a(lp6837
S'Thats'
p6838
aS'public'
p6839
aS'housing'
p6840
aaa(lp6841
S'DARLENETheres'
p6842
a(lp6843
S'HUD'
p6844
aaa(lp6845
g6842
a(lp6846
S'and'
p6847
aS'then'
p6848
aS'theres'
p6849
aS'something'
p6850
aS'else'
p6851
aaa(lp6852
S'ENV'
p6853
a(lp6854
aa(lp6855
S'CINDYHm'
p6856
a(lp6857
aa(lp6858
g6856
a(lp6859
g54
aS'dont'
p6860
aS'really'
p6861
aS'know'
p6862
aaa(lp6863
S'DARLENEAnd'
p6864
a(lp6865
S'uh'
p6866
aaa(lp6867
g6864
a(lp6868
S'They'
p6869
aS'check'
p6870
aS'on'
p6871
aS'the'
p6872
aS'stuff'
p6873
aS'and'
p6874
aS'all'
p6875
aaa(lp6876
g6864
a(lp6877
g67
aS'At'
p6878
aS'least'
p6879
ag67
aS'San'
p6880
aS'Antonio'
p6881
aS'Housing'
p6882
aS'Authority'
p6883
aS'does'
p6884
aaa(lp6885
g6864
a(lp6886
S'Well'
p6887
aaa(lp6888
g6864
a(lp6889
S'its'
p6890
aS'real'
p6891
aS'funny'
p6892
aaa(lp6893
g6864
a(lp6894
S'One'
p6895
aS'of'
p6896
aS'the'
p6897
aS'guys'
p6898
aS'is'
p6899
aaa(lp6900
g6864
a(lp6901
S'uh'
p6902
aS'family'
p6903
aS'is'
p6904
aaa(lp6905
g6864
a(lp6906
S'and'
p6907
aS'its'
p6908
aS'uh'
p6909
aaa(lp6910
g6864
a(lp6911
S'husband'
p6912
aS'and'
p6913
aS'wife'
p6914
aS'and'
p6915
aS'two'
p6916
aS'kids'
p6917
aaa(lp6918
g6864
a(lp6919
S'He'
p6920
aS'works'
p6921
aS'for'
p6922
aS'the'
p6923
aS'city'
p6924
aaa(lp6925
g6864
a(lp6926
S'he'
p6927
aS'works'
p6928
aS'for'
p6929
aS'the'
p6930
aS'city'
p6931
aS'dogcatcher'
p6932
aaa(lp6933
g6864
a(lp6934
g54
aS'dont'
p6935
aS'know'
p6936
aS'how'
p6937
aS'much'
p6938
aS'they'
p6939
aS'make'
p6940
aaa(lp6941
g6864
a(lp6942
S'But'
p6943
aaa(lp6944
g6864
a(lp6945
S'like'
p6946
aS'my'
p6947
aS'house'
p6948
aaa(lp6949
g6864
a(lp6950
S'damn'
p6951
aS'good'
p6952
aS'thing'
p6953
ag54
aS'bought'
p6954
aS'it'
p6955
aS'when'
p6956
ag54
aS'did'
p6957
aaa(lp6958
g6864
a(lp6959
S'My'
p6960
aS'friend'
p6961
aS'up'
p6962
aS'the'
p6963
aS'street'
p6964
aaa(lp6965
g6864
a(lp6966
S'she'
p6967
aS'pays'
p6968
aS'almost'
p6969
aS'fivehundred'
p6970
aS'dollars'
p6971
ag12
aS'month'
p6972
aS'house'
p6973
aS'payments'
p6974
aaa(lp6975
g6864
a(lp6976
S'this'
p6977
aS'guy'
p6978
aS'gets'
p6979
aS'his'
p6980
aS'for'
p6981
aS'ninety'
p6982
aS'dollars'
p6983
ag12
aS'month'
p6984
aaa(lp6985
S'CINDY'
p6986
a(lp6987
S'Yeah'
p6988
aaa(lp6989
S'DARLENE'
p6990
a(lp6991
g54
aS'mean'
p6992
aaa(lp6993
S'CINDY'
p6994
a(lp6995
aa(lp6996
S'DARLENEgive'
p6997
a(lp6998
S'the'
p6999
aS'people'
p7000
aS'who'
p7001
aS'arent'
p7002
aS'making'
p7003
aS'the'
p7004
aS'money'
p7005
ag12
aS'break'
p7006
aaa(lp7007
g6997
a(lp7008
S'But'
p7009
aS'one'
p7010
aS'fifth'
p7011
aaa(lp7012
S'ANDREW'
p7013
a(lp7014
aa(lp7015
S'DARLENEYou'
p7016
a(lp7017
S'know'
p7018
aaa(lp7019
g7016
a(lp7020
S'How'
p7021
aS'much'
p7022
aS'could'
p7023
aS'that'
p7024
aS'person'
p7025
aS'be'
p7026
aS'making'
p7027
aS'less'
p7028
aS'than'
p7029
aS'say'
p7030
aS'Danny'
p7031
aS'right'
p7032
aS'now'
p7033
aaa(lp7034
g7016
a(lp7035
S'Um'
p7036
aaa(lp7037
S'CINDY'
p7038
a(lp7039
S'Yeah'
p7040
aaa(lp7041
g7038
a(lp7042
g54
aS'dont'
p7043
aS'really'
p7044
aS'know'
p7045
aaa(lp7046
S'DARLENE'
p7047
a(lp7048
S'But'
p7049
aaa(lp7050
g7047
a(lp7051
S'So'
p7052
aaa(lp7053
g7047
a(lp7054
S'other'
p7055
aS'than'
p7056
aS'it'
p7057
aS'looking'
p7058
aS'kinda'
p7059
aS'tacky'
p7060
aaa(lp7061
g7047
a(lp7062
S'they'
p7063
aS'just'
p7064
aS'got'
p7065
aS'all'
p7066
aS'kinda'
p7067
aS'planters'
p7068
aaa(lp7069
g7047
a(lp7070
S'and'
p7071
aS'all'
p7072
aS'kinda'
p7073
aS'crap'
p7074
aS'piled'
p7075
aS'outside'
p7076
aaa(lp7077
g7047
a(lp7078
S'They'
p7079
aS'dont'
p7080
aaa(lp7081
g7047
a(lp7082
S'They'
p7083
aS'havent'
p7084
aS'gotten'
p7085
aS'to'
p7086
aS'the'
p7087
aS'point'
p7088
aS'of'
p7089
aaa(lp7090
g7047
a(lp7091
S'putting'
p7092
aS'their'
p7093
aS'old'
p7094
aS'water'
p7095
aS'heater'
p7096
aS'out'
p7097
aS'there'
p7098
aS'or'
p7099
aS'anything'
p7100
aS'like'
p7101
aS'that'
p7102
aaa(lp7103
g7047
a(lp7104
S'Theres'
p7105
aS'one'
p7106
aS'house'
p7107
aaa(lp7108
g7047
a(lp7109
S'when'
p7110
aS'they'
p7111
aS'started'
p7112
aS'all'
p7113
aS'this'
p7114
aaa(lp7115
g7047
a(lp7116
S'we'
p7117
aaa(lp7118
g7047
a(lp7119
S'Somebody'
p7120
aS'got'
p7121
ag12
aS'list'
p7122
aS'of'
p7123
aS'the'
p7124
aS'houses'
p7125
aS'on'
p7126
aS'this'
p7127
aS'one'
p7128
aaa(lp7129
g7047
a(lp7130
S'um'
p7131
aaa(lp7132
g7047
a(lp7133
S'subsidized'
p7134
aS'thing'
p7135
aaa(lp7136
S'CINDYUnhunh'
p7137
a(lp7138
aa(lp7139
S'DARLENE'
p7140
a(lp7141
S'And'
p7142
aaa(lp7143
g7140
a(lp7144
S'me'
p7145
aaa(lp7146
g7140
a(lp7147
S'and'
p7148
aS'about'
p7149
aS'five'
p7150
aS'other'
p7151
aS'people'
p7152
aaa(lp7153
g7140
a(lp7154
S'drove'
p7155
aS'around'
p7156
aS'to'
p7157
aS'all'
p7158
aS'these'
p7159
aS'houses'
p7160
aaa(lp7161
g7140
a(lp7162
S'to'
p7163
aS'see'
p7164
aS'what'
p7165
aS'they'
p7166
aS'look'
p7167
aS'like'
p7168
aaa(lp7169
S'CINDY'
p7170
a(lp7171
aa(lp7172
S'DARLENE'
p7173
a(lp7174
S'And'
p7175
aaa(lp7176
g7173
a(lp7177
S'about'
p7178
aS'half'
p7179
aS'of'
p7180
aS'em'
p7181
aS'were'
p7182
aS'as'
p7183
aS'nice'
p7184
aS'as'
p7185
aS'mine'
p7186
aS'or'
p7187
aS'nicer'
p7188
aaa(lp7189
g7173
a(lp7190
g794
aS'kept'
p7191
aS'up'
p7192
aaa(lp7193
g7173
a(lp7194
g67
aS'You'
p7195
aS'know'
p7196
ag501
ag67
aaa(lp7197
g7173
a(lp7198
S'Then'
p7199
aS'some'
p7200
aS'of'
p7201
aS'em'
p7202
aS'had'
p7203
aS'better'
p7204
aS'uh'
p7205
aS'landscaping'
p7206
aaa(lp7207
g7173
a(lp7208
S'But'
p7209
aaa(lp7210
g7173
a(lp7211
S'you'
p7212
aS'know'
p7213
aS'like'
p7214
ag54
aS'keep'
p7215
aS'my'
p7216
aS'lawn'
p7217
aS'mowed'
p7218
aaa(lp7219
g7173
a(lp7220
S'and'
p7221
aS'trimmed'
p7222
aS'and'
p7223
aS'all'
p7224
aS'that'
p7225
aaa(lp7226
g7173
a(lp7227
S'About'
p7228
aS'half'
p7229
aS'of'
p7230
aS'em'
p7231
aS'were'
p7232
aS'as'
p7233
aS'good'
p7234
aaa(lp7235
g7173
a(lp7236
S'or'
p7237
aS'better'
p7238
aS'than'
p7239
aS'mine'
p7240
aaa(lp7241
g7173
a(lp7242
S'Which'
p7243
aaa(lp7244
g7173
a(lp7245
S'Thats'
p7246
aS'fine'
p7247
aaa(lp7248
S'CINDY'
p7249
a(lp7250
S'Yeah'
p7251
aaa(lp7252
S'DARLENEThey'
p7253
a(lp7254
S'they'
p7255
aaa(lp7256
g7253
a(lp7257
g54
aS'thought'
p7258
aS'they'
p7259
aS'were'
p7260
aS'doing'
p7261
ag12
aS'real'
p7262
aS'good'
p7263
aS'job'
p7264
aaa(lp7265
g7253
a(lp7266
S'The'
p7267
aS'other'
p7268
aS'half'
p7269
aaa(lp7270
g7253
a(lp7271
S'they'
p7272
aaa(lp7273
g7253
a(lp7274
S'long'
p7275
aS'weeds'
p7276
aS'and'
p7277
aS'stuff'
p7278
aS'was'
p7279
aS'the'
p7280
aS'least'
p7281
aS'of'
p7282
aS'the'
p7283
aS'the'
p7284
aS'problem'
p7285
aaa(lp7286
g7253
a(lp7287
S'This'
p7288
aS'one'
p7289
aS'house'
p7290
aS'had'
p7291
aaa(lp7292
g7253
a(lp7293
S'it'
p7294
aS'looked'
p7295
aS'like'
p7296
aS'an'
p7297
aS'abandoned'
p7298
aS'junkyard'
p7299
aaa(lp7300
g7253
a(lp7301
S'It'
p7302
aS'had'
p7303
aS'so'
p7304
aS'many'
p7305
aS'old'
p7306
aS'appliances'
p7307
aaa(lp7308
g7253
a(lp7309
S'and'
p7310
aS'broken'
p7311
aS'down'
p7312
aS'shit'
p7313
aS'out'
p7314
aS'in'
p7315
aS'the'
p7316
aS'front'
p7317
aS'yard'
p7318
aaa(lp7319
g7253
a(lp7320
g54
aS'dont'
p7321
aS'know'
p7322
aS'what'
p7323
aS'the'
p7324
aaa(lp7325
g7253
a(lp7326
S'what'
p7327
aS'the'
p7328
aS'thing'
p7329
aS'was'
p7330
aaa(lp7331
S'CINDY'
p7332
a(lp7333
S'But'
p7334
aS'you'
p7335
aS'find'
p7336
aS'people'
p7337
aS'do'
p7338
aS'that'
p7339
aaa(lp7340
S'DARLENEIf'
p7341
a(lp7342
S'they'
p7343
aS'were'
p7344
aS'my'
p7345
aS'neighbors'
p7346
aaa(lp7347
S'CINDYthat'
p7348
a(lp7349
aa(lp7350
g7348
a(lp7351
S'all'
p7352
aS'all'
p7353
aaa(lp7354
g7348
a(lp7355
g54
aS'mean'
p7356
aaa(lp7357
g7348
a(lp7358
g54
aS'hate'
p7359
aS'to'
p7360
aS'say'
p7361
aS'it'
p7362
aaa(lp7363
g7348
a(lp7364
g12
aS'lotta'
p7365
aS'times'
p7366
aS'the'
p7367
aS'people'
p7368
aS'in'
p7369
aS'our'
p7370
aS'neighborhood'
p7371
aaa(lp7372
g7348
a(lp7373
S'That'
p7374
aS'do'
p7375
aS'that'
p7376
aaa(lp7377
g7348
a(lp7378
S'Theres'
p7379
aS'no'
p7380
aS'reason'
p7381
aS'for'
p7382
aaa(lp7383
g7348
a(lp7384
g54
aS'cannot'
p7385
aaa(lp7386
g7348
a(lp7387
g54
aS'dont'
p7388
aS'underst'
p7389
aaa(lp7390
g7348
a(lp7391
S'Of'
p7392
aS'course'
p7393
ag54
aS'dont'
p7394
aS'know'
p7395
aS'their'
p7396
aS'finances'
p7397
aaa(lp7398
S'DARLENEYeah'
p7399
a(lp7400
aa(lp7401
S'CINDYI'
p7402
a(lp7403
S'mean'
p7404
aaa(lp7405
g7402
a(lp7406
S'you'
p7407
aS'know'
p7408
aaa(lp7409
S'DARLENEX'
p7410
a(lp7411
S'right'
p7412
ag67
aaa(lp7413
S'CINDYIm'
p7414
a(lp7415
S'not'
p7416
aS'into'
p7417
aS'their'
p7418
aS'books'
p7419
aaa(lp7420
g7414
a(lp7421
S'or'
p7422
aS'anything'
p7423
aaa(lp7424
g7414
a(lp7425
S'But'
p7426
ag54
ag54
aaa(lp7427
g7414
a(lp7428
S'There'
p7429
aS'doesnt'
p7430
aS'appear'
p7431
aS'to'
p7432
aS'be'
p7433
aS'any'
p7434
aS'logical'
p7435
aS'reason'
p7436
aS'for'
p7437
aS'it'
p7438
aS'to'
p7439
aS'me'
p7440
aaa(lp7441
S'DARLENETheyre'
p7442
a(lp7443
S'just'
p7444
aS'pack'
p7445
aS'rats'
p7446
aaa(lp7447
S'CINDY'
p7448
a(lp7449
aa(lp7450
S'DARLENEor'
p7451
a(lp7452
S'something'
p7453
aaa(lp7454
g7451
a(lp7455
g54
aS'dont'
p7456
aS'know'
p7457
aaa(lp7458
S'CINDYYeah'
p7459
a(lp7460
aa(lp7461
S'DARLENEBut'
p7462
a(lp7463
S'if'
p7464
aaa(lp7465
g7462
a(lp7466
S'Hey'
p7467
aaa(lp7468
g7462
a(lp7469
S'If'
p7470
aaa(lp7471
g7462
a(lp7472
S'If'
p7473
aS'people'
p7474
aS'had'
p7475
aS'to'
p7476
aS'come'
p7477
aS'to'
p7478
aS'my'
p7479
aS'house'
p7480
aaa(lp7481
g7462
a(lp7482
S'and'
p7483
aS'pass'
p7484
aS'one'
p7485
aS'of'
p7486
aS'these'
p7487
aS'houses'
p7488
aS'that'
p7489
aS'look'
p7490
aS'like'
p7491
aS'that'
p7492
aaa(lp7493
S'CINDYI'
p7494
a(lp7495
S'know'
p7496
aaa(lp7497
g7494
a(lp7498
S'its'
p7499
aS'depressing'
p7500
aaa(lp7501
S'DARLENE'
p7502
a(lp7503
S'Id'
p7504
aS'call'
p7505
aS'the'
p7506
aS'health'
p7507
aS'department'
p7508
aaa(lp7509
g7502
a(lp7510
S'and'
p7511
aS'tell'
p7512
aS'em'
p7513
aS'its'
p7514
ag12
aS'health'
p7515
aS'hazard'
p7516
aaa(lp7517
g7502
a(lp7518
S'Cause'
p7519
ag54
aS'think'
p7520
aS'it'
p7521
aS'is'
p7522
aaa(lp7523
S'CINDY'
p7524
a(lp7525
S'Yeah'
p7526
aaa(lp7527
g7524
a(lp7528
S'Well'
p7529
aaa(lp7530
S'DARLENEIts'
p7531
a(lp7532
S'gotta'
p7533
aS'breed'
p7534
aS'rats'
p7535
aS'and'
p7536
aS'stuff'
p7537
aaa(lp7538
S'CINDY'
p7539
a(lp7540
aa(lp7541
S'DARLENEall'
p7542
a(lp7543
S'those'
p7544
aS'little'
p7545
aS'spaces'
p7546
aS'they'
p7547
aS'can'
p7548
aS'get'
p7549
aS'into'
p7550
aS'and'
p7551
aS'stuff'
p7552
aaa(lp7553
S'CINDY'
p7554
a(lp7555
S'Yeah'
p7556
aaa(lp7557
S'DARLENEI'
p7558
a(lp7559
S'gue'
p7560
ag54
aS'gue'
p7561
aaa(lp7562
S'CINDYprobably'
p7563
a(lp7564
aa(lp7565
S'DARLENEItd'
p7566
a(lp7567
S'be'
p7568
ag12
aS'good'
p7569
aS'place'
p7570
aS'for'
p7571
aS'em'
p7572
aS'to'
p7573
aS'get'
p7574
aS'out'
p7575
aS'of'
p7576
aS'the'
p7577
aS'sun'
p7578
aS'or'
p7579
aS'get'
p7580
aS'out'
p7581
aS'of'
p7582
aS'the'
p7583
aS'cold'
p7584
aaa(lp7585
S'CINDY'
p7586
a(lp7587
S'Yeah'
p7588
aaa(lp7589
g7586
a(lp7590
S'Thats'
p7591
aS'true'
p7592
aaa(lp7593
S'DARLENEBut'
p7594
a(lp7595
aa(lp7596
g7594
a(lp7597
S'evidently'
p7598
aaa(lp7599
g7594
a(lp7600
S'that'
p7601
aS'one'
p7602
aS'house'
p7603
aaa(lp7604
g7594
a(lp7605
g54
ag54
aS'went'
p7606
aS'by'
p7607
aS'it'
p7608
aaa(lp7609
g7594
a(lp7610
S'about'
p7611
ag12
aS'year'
p7612
aS'after'
p7613
aS'that'
p7614
aaa(lp7615
g7594
a(lp7616
S'And'
p7617
aaa(lp7618
g7594
a(lp7619
S'it'
p7620
aS'was'
p7621
aS'still'
p7622
aS'the'
p7623
aS'same'
p7624
aS'way'
p7625
aaa(lp7626
g7594
a(lp7627
S'Worse'
p7628
aaa(lp7629
g7594
a(lp7630
S'Worse'
p7631
aaa(lp7632
S'CINDYHm'
p7633
a(lp7634
aa(lp7635
g7633
a(lp7636
S'Yeah'
p7637
aaa(lp7638
S'DARLENEMore'
p7639
a(lp7640
S'things'
p7641
aaa(lp7642
S'CINDYit'
p7643
a(lp7644
S'gets'
p7645
aaa(lp7646
S'DARLENEbut'
p7647
a(lp7648
aa(lp7649
S'CINDY'
p7650
a(lp7651
g67
ag54
aS'dont'
p7652
aS'know'
p7653
ag67
aaa(lp7654
S'DARLENEUh'
p7655
a(lp7656
aa(lp7657
g7655
a(lp7658
g54
aS'guess'
p7659
aaa(lp7660
g7655
a(lp7661
S'uh'
p7662
aaa(lp7663
g7655
a(lp7664
g54
aS'wish'
p7665
ag54
aS'could'
p7666
aS'think'
p7667
aS'of'
p7668
aS'the'
p7669
aS'name'
p7670
aS'of'
p7671
aS'that'
p7672
aS'other'
p7673
aS'program'
p7674
aaa(lp7675
g7655
a(lp7676
S'See'
p7677
aS'this'
p7678
aS'one'
p7679
aS'guy'
p7680
aS'at'
p7681
aS'the'
p7682
aS'store'
p7683
aS'had'
p7684
ag12
aS'house'
p7685
aaa(lp7686
g7655
a(lp7687
S'that'
p7688
aS'he'
p7689
aS'bought'
p7690
aaa(lp7691
g7655
a(lp7692
S'and'
p7693
aS'then'
p7694
aS'he'
p7695
aS'couldnt'
p7696
aS'afford'
p7697
aS'the'
p7698
aS'house'
p7699
aS'payments'
p7700
aS'anymore'
p7701
aaa(lp7702
g7655
a(lp7703
S'so'
p7704
aaa(lp7705
g7655
a(lp7706
S'he'
p7707
aS'got'
p7708
aS'with'
p7709
aS'one'
p7710
aS'of'
p7711
aS'these'
p7712
aaa(lp7713
g7655
a(lp7714
S'um'
p7715
aaa(lp7716
g7655
a(lp7717
S'support'
p7718
aS'things'
p7719
aS'and'
p7720
aaa(lp7721
g7655
a(lp7722
S'uh'
p7723
aaa(lp7724
g7655
a(lp7725
S'like'
p7726
aS'HUD'
p7727
aaa(lp7728
g7655
a(lp7729
S'and'
p7730
ag54
aS'cant'
p7731
aS'think'
p7732
aS'of'
p7733
aS'the'
p7734
aS'name'
p7735
aS'of'
p7736
aS'it'
p7737
aaa(lp7738
g7655
a(lp7739
S'and'
p7740
aS'they'
p7741
aS'guaranteed'
p7742
aS'him'
p7743
aaa(lp7744
g7655
a(lp7745
g12
aS'residence'
p7746
aaa(lp7747
S'CINDYSection'
p7748
a(lp7749
S'eight'
p7750
aS'are'
p7751
aS'you'
p7752
aS'talking'
p7753
aaa(lp7754
S'DARLENE'
p7755
a(lp7756
S'Section'
p7757
aS'eight'
p7758
aaa(lp7759
g7755
a(lp7760
S'Yeah'
p7761
aaa(lp7762
S'CINDY'
p7763
a(lp7764
g4229
aS'Yeah'
p7765
ag4229
aaa(lp7766
S'DARLENEAnd'
p7767
a(lp7768
aa(lp7769
g7767
a(lp7770
S'it'
p7771
aS'worked'
p7772
aS'out'
p7773
aS'good'
p7774
aS'for'
p7775
aS'him'
p7776
aaa(lp7777
g7767
a(lp7778
S'otherwise'
p7779
aS'he'
p7780
aS'wouldve'
p7781
aS'lost'
p7782
aS'the'
p7783
aS'house'
p7784
aaa(lp7785
g7767
a(lp7786
S'Eventually'
p7787
aS'he'
p7788
aS'got'
p7789
aS'it'
p7790
aS'back'
p7791
aaa(lp7792
g7767
a(lp7793
S'You'
p7794
aS'know'
p7795
aaa(lp7796
g7767
a(lp7797
S'he'
p7798
aS'took'
p7799
aS'it'
p7800
aS'off'
p7801
aS'that'
p7802
aS'and'
p7803
aaa(lp7804
g7767
a(lp7805
S'he'
p7806
aS'got'
p7807
aS'his'
p7808
aS'finances'
p7809
aS'back'
p7810
aS'in'
p7811
aS'order'
p7812
aaa(lp7813
g7767
a(lp7814
S'so'
p7815
aS'he'
p7816
aS'didnt'
p7817
aS'lose'
p7818
aS'his'
p7819
aS'house'
p7820
aaa(lp7821
g7767
a(lp7822
S'So'
p7823
aS'it'
p7824
aS'worked'
p7825
aS'out'
p7826
aS'good'
p7827
aS'for'
p7828
aS'him'
p7829
aS'on'
p7830
aS'that'
p7831
aaa(lp7832
g7767
a(lp7833
S'and'
p7834
aS'he'
p7835
aS'said'
p7836
aaa(lp7837
g7767
a(lp7838
S'the'
p7839
aS'people'
p7840
aS'that'
p7841
aaa(lp7842
g7767
a(lp7843
S'all'
p7844
aS'the'
p7845
aS'people'
p7846
aS'that'
p7847
aS'had'
p7848
aS'rented'
p7849
aS'his'
p7850
aS'house'
p7851
aaa(lp7852
g7767
a(lp7853
S'he'
p7854
aS'said'
p7855
aS'Section'
p7856
aS'eight'
p7857
aaa(lp7858
g7767
a(lp7859
S'That'
p7860
aS'uh'
p7861
aaa(lp7862
g7767
a(lp7863
S'Section'
p7864
aS'eight'
p7865
aS'people'
p7866
aS'kept'
p7867
aS'up'
p7868
aS'good'
p7869
aS'with'
p7870
aS'it'
p7871
aaa(lp7872
g7767
a(lp7873
S'And'
p7874
aS'checked'
p7875
aS'on'
p7876
aS'the'
p7877
aS'people'
p7878
aaa(lp7879
g7767
a(lp7880
S'But'
p7881
aS'on'
p7882
aS'this'
p7883
aS'other'
p7884
aS'program'
p7885
aaa(lp7886
g7767
a(lp7887
S'it'
p7888
aS'didnt'
p7889
aS'look'
p7890
aS'like'
p7891
aS'they'
p7892
aS'did'
p7893
aaa(lp7894
S'CINDY'
p7895
a(lp7896
S'Yeah'
p7897
aaa(lp7898
S'DARLENE'
p7899
a(lp7900
S'So'
p7901
aaa(lp7902
g7899
a(lp7903
S'anyway'
p7904
aaa(lp7905
S'CINDYHunh'
p7906
a(lp7907
aa(lp7908
S'DARLENE'
p7909
a(lp7910
S'But'
p7911
aaa(lp7912
S'CINDY'
p7913
a(lp7914
S'So'
p7915
aS'what'
p7916
aS'did'
p7917
aS'you'
p7918
aS'get'
p7919
aaa(lp7920
S'DARLENEX'
p7921
a(lp7922
S'And'
p7923
aS'now'
p7924
aS'how'
p7925
aS'did'
p7926
aS'we'
p7927
aS'get'
p7928
aS'on'
p7929
aS'that'
p7930
ag67
aaa(lp7931
S'CINDY'
p7932
a(lp7933
S'Hunh'
p7934
aaa(lp7935
S'DARLENEI'
p7936
a(lp7937
S'dont'
p7938
aS'know'
p7939
aS'how'
p7940
aS'we'
p7941
aS'got'
p7942
aS'on'
p7943
aS'that'
p7944
aaa(lp7945
S'ANDREW'
p7946
a(lp7947
aa(lp7948
S'CINDY'
p7949
a(lp7950
g54
aS'cant'
p7951
aS'understand'
p7952
aS'you'
p7953
aaa(lp7954
S'DARLENEI'
p7955
a(lp7956
S'dont'
p7957
aS'know'
p7958
aS'how'
p7959
aS'we'
p7960
aS'got'
p7961
aS'on'
p7962
aS'that'
p7963
aaa(lp7964
S'ANDREW'
p7965
a(lp7966
aa(lp7967
S'CINDYNo'
p7968
a(lp7969
aa(lp7970
g7968
a(lp7971
g54
ag54
aS'dont'
p7972
aS'know'
p7973
aaa(lp7974
g7968
a(lp7975
S'oh'
p7976
ag54
aaa(lp7977
g7968
a(lp7978
S'We'
p7979
aS'were'
p7980
aS'talking'
p7981
aS'about'
p7982
aS'books'
p7983
aaa(lp7984
g7968
a(lp7985
g54
aS'dont'
p7986
aS'know'
p7987
aaa(lp7988
g7968
a(lp7989
S'How'
p7990
aS'we'
p7991
aS'jumped'
p7992
aS'to'
p7993
aS'that'
p7994
aaa(lp7995
S'DARLENE'
p7996
a(lp7997
S'Uh'
p7998
aaa(lp7999
S'CINDY'
p8000
a(lp8001
S'But'
p8002
aaa(lp8003
g8000
a(lp8004
S'what'
p8005
aS'was'
p8006
ag54
aS'gonna'
p8007
aaa(lp8008
g8000
a(lp8009
S'oh'
p8010
aS'um'
p8011
aaa(lp8012
g8000
a(lp8013
S'ask'
p8014
aS'you'
p8015
aaa(lp8016
g8000
a(lp8017
S'Whatd'
p8018
aS'you'
p8019
aS'get'
p8020
aS'for'
p8021
aS'Christmas'
p8022
aaa(lp8023
S'DARLENEOh'
p8024
a(lp8025
aa(lp8026
g8024
a(lp8027
S'some'
p8028
aS'earrings'
p8029
aS'from'
p8030
aS'Brenda'
p8031
aS'and'
p8032
aS'Danny'
p8033
aaa(lp8034
g8024
a(lp8035
g12
aS'little'
p8036
aS'Christmas'
p8037
aS'statue'
p8038
aS'from'
p8039
aS'Brenda'
p8040
aS'and'
p8041
aS'Danny'
p8042
aaa(lp8043
g8024
a(lp8044
S'that'
p8045
aaa(lp8046
g8024
a(lp8047
S'its'
p8048
aS'um'
p8049
aaa(lp8050
g8024
a(lp8051
g54
aS'dont'
p8052
aS'know'
p8053
aaa(lp8054
g8024
a(lp8055
S'ceramic'
p8056
aaa(lp8057
g8024
a(lp8058
S'or'
p8059
aaa(lp8060
g8024
a(lp8061
S'what'
p8062
aS'its'
p8063
aS'made'
p8064
aS'out'
p8065
aS'of'
p8066
aaa(lp8067
g8024
a(lp8068
S'and'
p8069
aS'its'
p8070
aS'real'
p8071
aS'cute'
p8072
aaa(lp8073
g8024
a(lp8074
S'its'
p8075
aS'got'
p8076
ag12
aaa(lp8077
g8024
a(lp8078
S'little'
p8079
aS'boy'
p8080
aaa(lp8081
g8024
a(lp8082
S'with'
p8083
ag12
aS'deer'
p8084
aaa(lp8085
g8024
a(lp8086
S'and'
p8087
aS'Santa'
p8088
aS'Claus'
p8089
aaa(lp8090
g8024
a(lp8091
S'And'
p8092
aS'until'
p8093
aS'Brenda'
p8094
aS'pointed'
p8095
aS'it'
p8096
aS'out'
p8097
aS'to'
p8098
aS'me'
p8099
aaa(lp8100
S'CINDYHunh'
p8101
a(lp8102
aa(lp8103
S'DARLENEI'
p8104
a(lp8105
S'didnt'
p8106
aS'realize'
p8107
aS'it'
p8108
aaa(lp8109
g8104
a(lp8110
S'It'
p8111
aS'looks'
p8112
aS'like'
p8113
aS'the'
p8114
aS'little'
p8115
aS'boy'
p8116
aS'brought'
p8117
aS'the'
p8118
aS'deer'
p8119
aaa(lp8120
g8104
a(lp8121
S'to'
p8122
aS'Santa'
p8123
aS'Claus'
p8124
aaa(lp8125
g8104
a(lp8126
S'for'
p8127
aS'Santa'
p8128
aS'Claus'
p8129
aS'to'
p8130
aS'fix'
p8131
aS'its'
p8132
aaa(lp8133
g8104
a(lp8134
S'Had'
p8135
aS'the'
p8136
aS'deer'
p8137
aS'with'
p8138
aS'its'
p8139
aS'uh'
p8140
aS'leg'
p8141
aS'up'
p8142
aaa(lp8143
g8104
a(lp8144
S'and'
p8145
aS'Santa'
p8146
aS'Claus'
p8147
aS'was'
p8148
aS'bandaging'
p8149
aS'it'
p8150
aaa(lp8151
S'CINDYAw'
p8152
a(lp8153
aa(lp8154
S'DARLENE'
p8155
a(lp8156
aa(lp8157
S'CINDY'
p8158
a(lp8159
aa(lp8160
S'DARLENE'
p8161
a(lp8162
S'So'
p8163
aaa(lp8164
S'CINDY'
p8165
a(lp8166
S'Thats'
p8167
aS'cute'
p8168
aaa(lp8169
S'DARLENEX'
p8170
a(lp8171
S'well'
p8172
aS'and'
p8173
ag67
aaa(lp8174
S'CINDYYeah'
p8175
a(lp8176
aa(lp8177
S'DARLENEThat'
p8178
a(lp8179
S'was'
p8180
aS'real'
p8181
aS'cute'
p8182
aaa(lp8183
S'ENV'
p8184
a(lp8185
aa(lp8186
S'CINDY'
p8187
a(lp8188
S'Did'
p8189
aS'uh'
p8190
aS'Andy'
p8191
aS'mention'
p8192
aS'anything'
p8193
aS'about'
p8194
aS'the'
p8195
aS'uh'
p8196
aS'cards'
p8197
aaa(lp8198
S'DARLENEX'
p8199
a(lp8200
aa(lp8201
S'CINDYthat'
p8202
a(lp8203
S'we'
p8204
aS'got'
p8205
aS'for'
p8206
aS'Christmas'
p8207
aaa(lp8208
S'DARLENE'
p8209
a(lp8210
S'Unhunh'
p8211
aaa(lp8212
S'CINDYThe'
p8213
a(lp8214
S'Christmas'
p8215
aS'cards'
p8216
aaa(lp8217
g8213
a(lp8218
S'Oh'
p8219
aaa(lp8220
g8213
a(lp8221
S'why'
p8222
aS'dont'
p8223
ag54
aS'let'
p8224
aS'him'
p8225
aS'tell'
p8226
aS'you'
p8227
aaa(lp8228
g8213
a(lp8229
S'because'
p8230
aaa(lp8231
g8213
a(lp8232
S'it'
p8233
aS'was'
p8234
aS'something'
p8235
aS'th'
p8236
aaa(lp8237
g8213
a(lp8238
S'we'
p8239
aS'really'
p8240
aS'got'
p8241
aS'struck'
p8242
aS'by'
p8243
aS'it'
p8244
aaa(lp8245
g8213
a(lp8246
S'because'
p8247
aS'its'
p8248
aS'uh'
p8249
aaa(lp8250
g8213
a(lp8251
S'what'
p8252
aS'is'
p8253
aS'the'
p8254
aS'poet'
p8255
aaa(lp8256
g8213
a(lp8257
S'Or'
p8258
aS'something'
p8259
aaa(lp8260
g8213
a(lp8261
S'That'
p8262
aS'did'
p8263
aS'the'
p8264
aS'verse'
p8265
aaa(lp8266
g8213
a(lp8267
S'That'
p8268
aS'your'
p8269
aS'mom'
p8270
aS'really'
p8271
aS'liked'
p8272
aaa(lp8273
S'ANDREWX'
p8274
a(lp8275
aa(lp8276
S'CINDY'
p8277
a(lp8278
S'What'
p8279
aS'was'
p8280
aS'it'
p8281
aaa(lp8282
S'DARLENEOh'
p8283
a(lp8284
S'um'
p8285
aaa(lp8286
S'ANDREWHelen'
p8287
a(lp8288
S'Steiner'
p8289
aS'Rice'
p8290
aaa(lp8291
S'CINDYYeah'
p8292
a(lp8293
aa(lp8294
g8292
a(lp8295
S'What'
p8296
ag372
ag372
aaa(lp8297
g8292
a(lp8298
S'Wait'
p8299
ag12
aS'se'
p8300
aaa(lp8301
S'ANDREWHelen'
p8302
a(lp8303
aa(lp8304
S'CINDY'
p8305
a(lp8306
S'Helen'
p8307
aS'Steiner'
p8308
aS'Rice'
p8309
aaa(lp8310
S'DARLENEXX'
p8311
a(lp8312
aa(lp8313
S'CINDYor'
p8314
a(lp8315
S'something'
p8316
aS'like'
p8317
aS'that'
p8318
aaa(lp8319
S'DARLENE'
p8320
a(lp8321
S'Helen'
p8322
aS'Keller'
p8323
aS'Rice'
p8324
aaa(lp8325
S'CINDY'
p8326
a(lp8327
S'Or'
p8328
aS'something'
p8329
aS'like'
p8330
aS'that'
p8331
aaa(lp8332
g8326
a(lp8333
S'anyway'
p8334
aaa(lp8335
g8326
a(lp8336
S'he'
p8337
aS'was'
p8338
aS'all'
p8339
aS'excited'
p8340
aaa(lp8341
g8326
a(lp8342
S'so'
p8343
aS'we'
p8344
aaa(lp8345
g8326
a(lp8346
S'kinda'
p8347
aS'made'
p8348
aS'sure'
p8349
aS'that'
p8350
aS'we'
p8351
aaa(lp8352
g8326
a(lp8353
S'sent'
p8354
aS'em'
p8355
aS'all'
p8356
aS'to'
p8357
aS'you'
p8358
aS'guys'
p8359
aaa(lp8360
g8326
a(lp8361
S'Because'
p8362
aS'we'
p8363
aS'were'
p8364
aS'thinking'
p8365
aS'that'
p8366
aS'maybe'
p8367
aS'one'
p8368
aS'of'
p8369
aS'you'
p8370
aS'might'
p8371
aS'remember'
p8372
aS'that'
p8373
aaa(lp8374
g8326
a(lp8375
S'Yeah'
p8376
aaa(lp8377
S'DARLENEOh'
p8378
a(lp8379
S'yeah'
p8380
aaa(lp8381
g8378
a(lp8382
S'Helen'
p8383
aS'Steiner'
p8384
aS'Rice'
p8385
aaa(lp8386
S'CINDY'
p8387
a(lp8388
S'Steiner'
p8389
aS'Rice'
p8390
aaa(lp8391
S'DARLENESteiner'
p8392
a(lp8393
S'Rice'
p8394
aaa(lp8395
S'CINDYYeah'
p8396
a(lp8397
aa(lp8398
g8396
a(lp8399
g54
aS'had'
p8400
ag5815
aaa(lp8401
g8396
a(lp8402
g54
aS'had'
p8403
aS'never'
p8404
aS'heard'
p8405
aS'of'
p8406
aS'her'
p8407
aaa(lp8408
g8396
a(lp8409
S'But'
p8410
aS'that'
p8411
aS'doesnt'
p8412
aS'mean'
p8413
aS'much'
p8414
aaa(lp8415
g8396
a(lp8416
S'but'
p8417
aS'uh'
p8418
aaa(lp8419
g8396
a(lp8420
S'they'
p8421
aS'were'
p8422
aS'nice'
p8423
aS'verses'
p8424
aaa(lp8425
g8396
a(lp8426
S'Yeah'
p8427
aaa(lp8428
g8396
a(lp8429
g54
aS'kinda'
p8430
aS'liked'
p8431
aS'her'
p8432
aaa(lp8433
S'DARLENEMhm'
p8434
a(lp8435
aa(lp8436
S'CINDYYeah'
p8437
a(lp8438
aa(lp8439
S'DARLENE'
p8440
a(lp8441
S'That'
p8442
aaa(lp8443
g8440
a(lp8444
S'and'
p8445
aS'then'
p8446
aaa(lp8447
g8440
a(lp8448
g54
aS'also'
p8449
aS'got'
p8450
ag12
aS'Christmas'
p8451
aS'card'
p8452
aS'um'
p8453
aaa(lp8454
g8440
a(lp8455
S'from'
p8456
aaa(lp8457
g8440
a(lp8458
S'one'
p8459
aS'of'
p8460
aS'my'
p8461
aS'friends'
p8462
aaa(lp8463
g8440
a(lp8464
S'that'
p8465
aS'was'
p8466
aS'from'
p8467
aS'uh'
p8468
aaa(lp8469
g8440
a(lp8470
S'MD'
p8471
aS'Anderson'
p8472
aaa(lp8473
g8440
a(lp8474
S'you'
p8475
aS'know'
p8476
aaa(lp8477
g8440
a(lp8478
S'the'
p8479
aS'childrens'
p8480
aaa(lp8481
g8440
a(lp8482
S'uh'
p8483
aaa(lp8484
g8440
a(lp8485
S'MD'
p8486
aS'Anderson'
p8487
aS'cancer'
p8488
aS'thing'
p8489
aaa(lp8490
S'CINDYOh'
p8491
a(lp8492
aa(lp8493
S'DARLENEin'
p8494
a(lp8495
S'Houston'
p8496
aaa(lp8497
g8494
a(lp8498
S'where'
p8499
aS'they'
p8500
aS'design'
p8501
aS'the'
p8502
aS'cards'
p8503
aaa(lp8504
S'CINDY'
p8505
a(lp8506
S'Oh'
p8507
aS'yeah'
p8508
aaa(lp8509
S'DARLENEX'
p8510
a(lp8511
S'So'
p8512
ag54
aS'thought'
p8513
aS'that'
p8514
aS'was'
p8515
aS'nice'
p8516
aS'too'
p8517
ag67
aaa(lp8518
S'CINDYYeah'
p8519
a(lp8520
aa(lp8521
g8519
a(lp8522
S'thats'
p8523
aS'neat'
p8524
aaa(lp8525
g8519
a(lp8526
S'Yeah'
p8527
aaa(lp8528
g8519
a(lp8529
g4229
aS'Yeah'
p8530
aaa(lp8531
g8519
a(lp8532
S'sounds'
p8533
aS'good'
p8534
ag4229
aaa(lp8535
g8519
a(lp8536
S'Well'
p8537
aS'listen'
p8538
aaa(lp8539
g8519
a(lp8540
S'Im'
p8541
aS'gonna'
p8542
aS'pass'
p8543
aS'you'
p8544
aS'back'
p8545
aS'to'
p8546
aS'Andy'
p8547
aaa(lp8548
S'DARLENE'
p8549
a(lp8550
S'Okay'
p8551
aaa(lp8552
S'CINDYOkay'
p8553
a(lp8554
aa(lp8555
g8553
a(lp8556
S'Have'
p8557
ag12
aS'nice'
p8558
aS'Christmas'
p8559
aaa(lp8560
S'DARLENEY'
p8561
a(lp8562
S'yall'
p8563
aS'too'
p8564
aaa(lp8565
S'CINDYOkay'
p8566
a(lp8567
aa(lp8568
g8566
a(lp8569
S'Bye'
p8570
aS'bye'
p8571
aaa(lp8572
S'DARLENEBye'
p8573
a(lp8574
S'bye'
p8575
aaa(lp8576
S'ANDREW'
p8577
a(lp8578
S'Whos'
p8579
aS'there'
p8580
aaa(lp8581
S'DARLENE'
p8582
a(lp8583
S'Darlene'
p8584
aaa(lp8585
S'ANDREW'
p8586
a(lp8587
S'HI'
p8588
aS'Yeah'
p8589
aS'HI'
p8590
aaa(lp8591
g8586
a(lp8592
S'So'
p8593
aS'you'
p8594
aS'had'
p8595
ag12
aS'good'
p8596
aS'Ch'
p8597
aaa(lp8598
S'DARLENEX'
p8599
a(lp8600
S'So'
p8601
aS'she'
p8602
ag67
aS'said'
p8603
aS'you'
p8604
aS'wanted'
p8605
aS'to'
p8606
aS'tell'
p8607
aS'me'
p8608
aS'about'
p8609
aS'that'
p8610
aS'Christmas'
p8611
aS'card'
p8612
aaa(lp8613
S'ANDREW'
p8614
a(lp8615
S'Hunh'
p8616
aaa(lp8617
S'DARLENE'
p8618
a(lp8619
S'She'
p8620
aS'said'
p8621
aS'you'
p8622
aS'wanted'
p8623
aS'to'
p8624
aS'tell'
p8625
aS'me'
p8626
aS'about'
p8627
aS'that'
p8628
aS'Helen'
p8629
aS'Steiner'
p8630
aS'R'
p8631
aaa(lp8632
S'ANDREWWell'
p8633
a(lp8634
g54
aS'was'
p8635
aS'gonna'
p8636
aS'tell'
p8637
aS'you'
p8638
aS'about'
p8639
aS'it'
p8640
aaa(lp8641
g8633
a(lp8642
S'but'
p8643
aS'she'
p8644
aS'beat'
p8645
aS'me'
p8646
aS'to'
p8647
aS'it'
p8648
aaa(lp8649
g8633
a(lp8650
S'Well'
p8651
aS'it'
p8652
aS'was'
p8653
aS'Helen'
p8654
aS'Steiner'
p8655
aS'Rice'
p8656
aaa(lp8657
S'DARLENEYeah'
p8658
a(lp8659
aa(lp8660
g8658
a(lp8661
S'thats'
p8662
aS'the'
p8663
aS'one'
p8664
aS'mother'
p8665
aS'liked'
p8666
aaa(lp8667
S'ANDREW'
p8668
a(lp8669
g54
aS'know'
p8670
aaa(lp8671
g8668
a(lp8672
S'Thats'
p8673
aaa(lp8674
g8668
a(lp8675
S'When'
p8676
aS'we'
p8677
aS'saw'
p8678
aS'that'
p8679
aaa(lp8680
g8668
a(lp8681
g54
aS'just'
p8682
aS'grabbed'
p8683
aS'the'
p8684
aS'whole'
p8685
aS'box'
p8686
aaa(lp8687
S'DARLENE'
p8688
a(lp8689
aa(lp8690
S'ANDREW'
p8691
a(lp8692
aa(lp8693
S'DARLENE'
p8694
a(lp8695
S'Yeah'
p8696
aaa(lp8697
S'ANDREW'
p8698
a(lp8699
aa.