(lp0
(lp1
S'CYNTHIA'
p2
a(lp3
S'Um'
p4
aaa(lp5
g2
a(lp6
S'any'
p7
aS'of'
p8
aS'you'
p9
aS'who'
p10
aS'find'
p11
aS'that'
p12
aS'you'
p13
aS'really'
p14
aS'enjoy'
p15
aS'storytelling'
p16
aaa(lp17
g2
a(lp18
S'I'
p19
aS'would'
p20
aS'like'
p21
aS'to'
p22
aS'mention'
p23
aaa(lp24
g2
a(lp25
S'that'
p26
aS'the'
p27
aS'last'
p28
aS'weekend'
p29
aS'in'
p30
aS'July'
p31
aaa(lp32
g2
a(lp33
S'In'
p34
aS'Spring'
p35
aS'Grove'
p36
aS'Illinois'
p37
aaa(lp38
g2
a(lp39
S'there'
p40
aS'is'
p41
aS'a'
p42
aS'festival'
p43
aaa(lp44
g2
a(lp45
S'children'
p46
aS'under'
p47
aS'twelve'
p48
aS'are'
p49
aS'free'
p50
aaa(lp51
g2
a(lp52
S'PAR'
p53
aS'Ill'
p54
aS'just'
p55
aS'mention'
p56
aS'that'
p57
aS'to'
p58
aS'all'
p59
aS'you'
p60
aS'parents'
p61
aS'PAR'
p62
aaa(lp63
g2
a(lp64
S'Um'
p65
aaa(lp66
g2
a(lp67
S'and'
p68
aS'its'
p69
aS'called'
p70
aS'the'
p71
aS'Illinois'
p72
aS'storytelling'
p73
aS'festival'
p74
aaa(lp75
g2
a(lp76
S'Have'
p77
aS'any'
p78
aS'of'
p79
aS'you'
p80
aS'ever'
p81
aS'gone'
p82
aaa(lp83
g2
a(lp84
g19
aS'know'
p85
aS'you'
p86
aS'have'
p87
aaa(lp88
g2
a(lp89
S'Alright'
p90
aaa(lp91
S'MANY'
p92
a(lp93
aa(lp94
S'CYNTHIAPut'
p95
a(lp96
S'your'
p97
aS'hand'
p98
aS'down'
p99
aaa(lp100
g95
a(lp101
S'Uh'
p102
aaa(lp103
g95
a(lp104
S'When'
p105
ag19
aS'found'
p106
aS'out'
p107
ag19
aS'was'
p108
aS'telling'
p109
aS'here'
p110
aaa(lp111
g95
a(lp112
g19
aS'didnt'
p113
aS'realize'
p114
aaa(lp115
g95
a(lp116
S'that'
p117
aS'Dusty'
p118
aaa(lp119
g95
a(lp120
S'had'
p121
aS'attended'
p122
aS'your'
p123
aS'church'
p124
ag42
aS'number'
p125
aS'of'
p126
aS'times'
p127
aaa(lp128
g95
a(lp129
S'hes'
p130
aS'also'
p131
ag42
aS'storyteller'
p132
aaa(lp133
g95
a(lp134
S'uh'
p135
aaa(lp136
g95
a(lp137
S'from'
p138
aS'the'
p139
aS'Illinois'
p140
aS'storytelling'
p141
aS'festival'
p142
aaa(lp143
g95
a(lp144
S'And'
p145
aS'uh'
p146
aaa(lp147
g95
a(lp148
S'we'
p149
aS'would'
p150
aS'love'
p151
aS'to'
p152
aS'have'
p153
aS'you'
p154
aS'all'
p155
aS'come'
p156
aaa(lp157
g95
a(lp158
S'There'
p159
aS'are'
p160
aS'four'
p161
aS'tents'
p162
aaa(lp163
g95
a(lp164
g42
aS'childrens'
p165
aS'tent'
p166
aaa(lp167
g95
a(lp168
S'an'
p169
aS'adult'
p170
aS'tent'
p171
aaa(lp172
g95
a(lp173
g42
aS'general'
p174
aS'tent'
p175
aaa(lp176
g95
a(lp177
S'and'
p178
aS'then'
p179
ag42
aS'traditions'
p180
aS'tent'
p181
aaa(lp182
g95
a(lp183
S'Where'
p184
aS'everyone'
p185
aS'can'
p186
aS'come'
p187
aS'and'
p188
aS'just'
p189
aaa(lp190
g95
a(lp191
S'share'
p192
aS'their'
p193
aS'memories'
p194
aS'of'
p195
aS'growing'
p196
aS'up'
p197
aaa(lp198
g95
a(lp199
S'or'
p200
aaa(lp201
g95
a(lp202
S'world'
p203
aS'war'
p204
aS'whatever'
p205
aaa(lp206
g95
a(lp207
S'or'
p208
aaa(lp209
g95
a(lp210
S'f'
p211
aS'first'
p212
aS'time'
p213
aS'you'
p214
aS'ever'
p215
aS'rode'
p216
aS'in'
p217
ag42
aS'train'
p218
aaa(lp219
g95
a(lp220
S'all'
p221
aS'of'
p222
aS'those'
p223
aS'things'
p224
aaa(lp225
g95
a(lp226
S'its'
p227
ag42
aS'wonderful'
p228
aS'family'
p229
aS'event'
p230
aaa(lp231
g95
a(lp232
S'And'
p233
ag19
aS'hope'
p234
aS'that'
p235
aS'some'
p236
aS'of'
p237
aS'you'
p238
aS'would'
p239
aS'be'
p240
aS'able'
p241
aS'to'
p242
aS'come'
p243
aaa(lp244
S'AUD'
p245
a(lp246
aa(lp247
S'CYNTHIA'
p248
a(lp249
S'The'
p250
aS'next'
p251
aS'story'
p252
aS'that'
p253
ag19
aS'have'
p254
aaa(lp255
g248
a(lp256
S'is'
p257
aS'from'
p258
aaa(lp259
g248
a(lp260
S'the'
p261
aS'Native'
p262
aS'Americans'
p263
aaa(lp264
g248
a(lp265
S'Its'
p266
aS'called'
p267
aS'how'
p268
aS'the'
p269
aS'stars'
p270
aS'got'
p271
aS'in'
p272
aS'the'
p273
aS'sky'
p274
aaa(lp275
g248
a(lp276
S'Did'
p277
aS'you'
p278
aS'ever'
p279
aS'wonder'
p280
aS'how'
p281
aS'the'
p282
aS'stars'
p283
aS'got'
p284
aS'in'
p285
aS'the'
p286
aS'sky'
p287
aaa(lp288
g248
a(lp289
S'This'
p290
aS'is'
p291
aS'the'
p292
aS'way'
p293
aS'the'
p294
aS'Indians'
p295
aS'think'
p296
aS'that'
p297
aS'the'
p298
aS'stars'
p299
aS'got'
p300
aS'in'
p301
aS'the'
p302
aS'sky'
p303
aaa(lp304
g248
a(lp305
S'And'
p306
ag19
aS'learned'
p307
aS'this'
p308
aS'story'
p309
aaa(lp310
g248
a(lp311
S'from'
p312
aaa(lp313
g248
a(lp314
g42
aS'white'
p315
aS'man'
p316
aaa(lp317
g248
a(lp318
S'who'
p319
aS'had'
p320
aS'been'
p321
aS'adopted'
p322
aS'into'
p323
ag42
aS'tribe'
p324
aS'in'
p325
aS'Michigan'
p326
aaa(lp327
g248
a(lp328
S'In'
p329
aS'Wisconsin'
p330
aaa(lp331
g248
a(lp332
S'he'
p333
aS'has'
p334
aS'taken'
p335
aS'on'
p336
aS'all'
p337
aS'of'
p338
aS'the'
p339
aS'Native'
p340
aS'American'
p341
aS'ways'
p342
aaa(lp343
g248
a(lp344
S'And'
p345
aS'the'
p346
aS'people'
p347
aS'thought'
p348
aS'so'
p349
aS'much'
p350
aS'of'
p351
aS'him'
p352
aaa(lp353
g248
a(lp354
S'that'
p355
aS'they'
p356
aS'have'
p357
aS'given'
p358
aS'him'
p359
aaa(lp360
g248
a(lp361
S'uh'
p362
aaa(lp363
g248
a(lp364
S'also'
p365
ag42
aS'Native'
p366
aS'American'
p367
aS'name'
p368
aaa(lp369
g248
a(lp370
S'And'
p371
aS'he'
p372
aS'gave'
p373
aS'me'
p374
aS'permission'
p375
aS'to'
p376
aS'tell'
p377
aS'the'
p378
aS'story'
p379
aaa(lp380
g248
a(lp381
S'Long'
p382
aS'ago'
p383
aaa(lp384
g248
a(lp385
S'in'
p386
aS'the'
p387
aS'sky'
p388
aS'there'
p389
aS'was'
p390
aS'only'
p391
aS'the'
p392
aS'sun'
p393
aS'and'
p394
aS'the'
p395
aS'moon'
p396
aaa(lp397
g248
a(lp398
S'And'
p399
aS'on'
p400
aS'the'
p401
aS'nights'
p402
aaa(lp403
g248
a(lp404
S'when'
p405
aS'the'
p406
aS'moon'
p407
aS'didnt'
p408
aS'shine'
p409
aaa(lp410
g248
a(lp411
S'it'
p412
aS'was'
p413
aS'very'
p414
aS'dark'
p415
aaa(lp416
g248
a(lp417
S'Indeed'
p418
aaa(lp419
g248
a(lp420
S'Well'
p421
aS'all'
p422
aS'of'
p423
aS'the'
p424
aS'animals'
p425
aS'got'
p426
aS'together'
p427
aaa(lp428
g248
a(lp429
S'and'
p430
aS'decided'
p431
aS'they'
p432
aS'were'
p433
aS'going'
p434
aS'to'
p435
aS'go'
p436
aS'to'
p437
aS'the'
p438
aS'creator'
p439
aaa(lp440
g248
a(lp441
S'To'
p442
aS'see'
p443
aS'if'
p444
aS'he'
p445
aS'could'
p446
aS'help'
p447
aS'with'
p448
aS'the'
p449
aS'problem'
p450
aaa(lp451
g248
a(lp452
S'Well'
p453
aaa(lp454
g248
a(lp455
S'when'
p456
aS'they'
p457
aS'arrived'
p458
aaa(lp459
g248
a(lp460
S'the'
p461
aS'creator'
p462
aS'said'
p463
aaa(lp464
g248
a(lp465
g19
aS'will'
p466
aS'help'
p467
aS'you'
p468
aaa(lp469
g248
a(lp470
S'but'
p471
aS'first'
p472
aS'you'
p473
aS'must'
p474
aS'do'
p475
aS'something'
p476
aaa(lp477
g248
a(lp478
S'All'
p479
aS'of'
p480
aS'you'
p481
aS'are'
p482
aS'to'
p483
aS'go'
p484
aS'down'
p485
aS'to'
p486
aS'the'
p487
aS'lake'
p488
aaa(lp489
g248
a(lp490
S'And'
p491
aS'gather'
p492
aS'stones'
p493
aaa(lp494
g248
a(lp495
S'Now'
p496
aS'not'
p497
aS'round'
p498
aS'stones'
p499
aaa(lp500
g248
a(lp501
S'like'
p502
aS'the'
p503
aS'moon'
p504
aaa(lp505
g248
a(lp506
S'but'
p507
aS'jagged'
p508
aS'stones'
p509
aaa(lp510
g248
a(lp511
S'And'
p512
aS'when'
p513
aS'you'
p514
aS'have'
p515
aS'got'
p516
aS'as'
p517
aS'many'
p518
aS'as'
p519
aS'you'
p520
aS'can'
p521
aS'carry'
p522
aaa(lp523
g248
a(lp524
S'bring'
p525
aS'them'
p526
aS'to'
p527
aS'me'
p528
aaa(lp529
g248
a(lp530
S'and'
p531
aS'then'
p532
aS'MRC'
p533
ag19
aS'will'
p534
aS'help'
p535
aS'you'
p536
aS'MRC'
p537
aaa(lp538
g248
a(lp539
S'And'
p540
aS'so'
p541
aaa(lp542
g248
a(lp543
S'all'
p544
aS'the'
p545
aS'animals'
p546
aS'went'
p547
aS'to'
p548
aS'the'
p549
aS'lake'
p550
aaa(lp551
g248
a(lp552
S'All'
p553
aS'except'
p554
aS'coyote'
p555
aaa(lp556
g248
a(lp557
S'Because'
p558
aS'L'
p559
aS'coyote'
p560
aS'was'
p561
aS'lazy'
p562
ag559
aaa(lp563
S'AUD'
p564
a(lp565
aa(lp566
S'CYNTHIAAnd'
p567
a(lp568
S'he'
p569
aS'was'
p570
aS'asleep'
p571
aaa(lp572
g567
a(lp573
S'So'
p574
aaa(lp575
g567
a(lp576
S'all'
p577
aS'the'
p578
aS'animals'
p579
aS'gathered'
p580
aS'as'
p581
aS'many'
p582
aS'stones'
p583
aS'as'
p584
aS'they'
p585
aS'could'
p586
aS'carry'
p587
aaa(lp588
g567
a(lp589
S'the'
p590
aS'large'
p591
aS'animals'
p592
aS'had'
p593
ag42
aS'great'
p594
aS'many'
p595
aS'stones'
p596
aaa(lp597
g567
a(lp598
S'And'
p599
aS'the'
p600
aS'little'
p601
aS'animals'
p602
aS'like'
p603
aS'grasshopper'
p604
aS'and'
p605
aS'bumblebee'
p606
aaa(lp607
g567
a(lp608
S'they'
p609
aS'could'
p610
aS'only'
p611
aS'carry'
p612
aS'one'
p613
aaa(lp614
S'AUD'
p615
a(lp616
aa(lp617
S'CYNTHIA'
p618
a(lp619
S'But'
p620
aS'they'
p621
aS'all'
p622
aS'brought'
p623
aS'them'
p624
aS'to'
p625
aS'the'
p626
aS'feet'
p627
aS'of'
p628
aS'the'
p629
aS'creator'
p630
aaa(lp631
g618
a(lp632
g559
aS'All'
p633
aS'except'
p634
aS'coyote'
p635
aaa(lp636
g618
a(lp637
S'Because'
p638
aaa(lp639
g618
a(lp640
S'he'
p641
aS'was'
p642
aS'lazy'
p643
aS'and'
p644
aaa(lp645
S'AUD'
p646
a(lp647
aa(lp648
S'CYNTHIAhe'
p649
a(lp650
S'was'
p651
aS'asleep'
p652
ag559
aaa(lp653
g649
a(lp654
S'So'
p655
aS'the'
p656
aS'creator'
p657
aS'looked'
p658
aS'over'
p659
aS'all'
p660
aS'the'
p661
aS'stones'
p662
aS'that'
p663
aS'were'
p664
aS'brought'
p665
aaa(lp666
g649
a(lp667
S'and'
p668
aS'chose'
p669
aS'one'
p670
aaa(lp671
g649
a(lp672
S'Not'
p673
aS'too'
p674
aS'large'
p675
aaa(lp676
S'AUD'
p677
a(lp678
aa(lp679
S'CYNTHIA'
p680
a(lp681
S'and'
p682
aS'reached'
p683
aS'up'
p684
aaa(lp685
g680
a(lp686
S'and'
p687
aS'placed'
p688
aS'it'
p689
aS'in'
p690
aS'the'
p691
aS'sky'
p692
aaa(lp693
g680
a(lp694
S'And'
p695
aS'when'
p696
aS'he'
p697
aS'did'
p698
aaa(lp699
g680
a(lp700
S'it'
p701
aS'began'
p702
aS'to'
p703
aS'twinkle'
p704
aaa(lp705
g680
a(lp706
S'And'
p707
aS'he'
p708
aS'said'
p709
aaa(lp710
g680
a(lp711
S'this'
p712
ag19
aS'will'
p713
aS'call'
p714
ag42
aS'star'
p715
aaa(lp716
g680
a(lp717
S'And'
p718
aS'this'
p719
aS'one'
p720
ag42
aS'special'
p721
aS'star'
p722
aaa(lp723
g680
a(lp724
S'A'
p725
aS'homing'
p726
aS'star'
p727
aaa(lp728
g680
a(lp729
S'The'
p730
aS'North'
p731
aS'Star'
p732
aaa(lp733
g680
a(lp734
S'And'
p735
aS'this'
p736
aS'evening'
p737
aaa(lp738
g680
a(lp739
S'all'
p740
aS'of'
p741
aS'you'
p742
aS'animals'
p743
aaa(lp744
g680
a(lp745
S'are'
p746
aS'going'
p747
aS'to'
p748
aS'go'
p749
aaa(lp750
g680
a(lp751
S'off'
p752
aS'the'
p753
aS'edge'
p754
aS'of'
p755
aS'the'
p756
aS'Earth'
p757
aaa(lp758
g680
a(lp759
S'into'
p760
aS'the'
p761
aS'sky'
p762
aaa(lp763
g680
a(lp764
S'to'
p765
aS'make'
p766
aS'your'
p767
aS'pictures'
p768
aaa(lp769
g680
a(lp770
S'With'
p771
aS'stars'
p772
aaa(lp773
g680
a(lp774
S'And'
p775
aS'so'
p776
aaa(lp777
g680
a(lp778
S'that'
p779
aS'evening'
p780
aaa(lp781
g680
a(lp782
S'all'
p783
aS'of'
p784
aS'the'
p785
aS'animals'
p786
aaa(lp787
g680
a(lp788
S'gathered'
p789
aS'their'
p790
aS'stones'
p791
aaa(lp792
g680
a(lp793
S'and'
p794
aS'they'
p795
aS'MRC'
p796
aS'walked'
p797
aS'off'
p798
aS'the'
p799
aS'edge'
p800
aS'of'
p801
aS'the'
p802
aS'world'
p803
aS'MRC'
p804
aaa(lp805
g680
a(lp806
S'Into'
p807
aS'the'
p808
aS'sky'
p809
aaa(lp810
g680
a(lp811
S'To'
p812
aS'make'
p813
aS'their'
p814
aS'pictures'
p815
aaa(lp816
g680
a(lp817
S'With'
p818
aS'the'
p819
aS'brilliant'
p820
aS'dots'
p821
aaa(lp822
g680
a(lp823
S'that'
p824
aS'would'
p825
aS'turn'
p826
aS'into'
p827
aS'stars'
p828
aaa(lp829
g680
a(lp830
S'They'
p831
aS'all'
p832
aS'went'
p833
aS'except'
p834
aS'coyote'
p835
aaa(lp836
g680
a(lp837
S'Because'
p838
aS'he'
p839
aS'was'
p840
aS'lazy'
p841
aaa(lp842
g680
a(lp843
S'And'
p844
aS'he'
p845
aS'was'
p846
aS'asleep'
p847
aaa(lp848
g680
a(lp849
S'Well'
p850
aS'after'
p851
aS'all'
p852
aS'the'
p853
aS'animals'
p854
aS'had'
p855
aS'gone'
p856
aaa(lp857
g680
a(lp858
S'the'
p859
aS'creator'
p860
aS'called'
p861
aS'to'
p862
aS'coyote'
p863
aaa(lp864
S'AUD'
p865
a(lp866
aa(lp867
S'CYNTHIAHe'
p868
a(lp869
S'said'
p870
aaa(lp871
g868
a(lp872
S'VOX'
p873
aS'Coyote'
p874
aaa(lp875
g868
a(lp876
S'come'
p877
aS'on'
p878
aS'now'
p879
aaa(lp880
g868
a(lp881
S'get'
p882
aS'up'
p883
aaa(lp884
g868
a(lp885
S'X'
p886
aS'Time'
p887
ag886
aaa(lp888
g868
a(lp889
S'Enough'
p890
aS'of'
p891
aS'this'
p892
aS'being'
p893
aS'lazy'
p894
aaa(lp895
g868
a(lp896
S'come'
p897
aS'on'
p898
aS'over'
p899
aS'here'
p900
aaa(lp901
g868
a(lp902
g19
aS'have'
p903
ag42
aS'job'
p904
aS'for'
p905
aS'you'
p906
aS'VOX'
p907
aaa(lp908
g868
a(lp909
S'And'
p910
aS'coyote'
p911
aaa(lp912
g868
a(lp913
S'he'
p914
aS'got'
p915
aS'up'
p916
aaa(lp917
g868
a(lp918
S'and'
p919
aS'he'
p920
aS'VOX'
p921
aS'dragged'
p922
aS'himself'
p923
aS'to'
p924
aS'the'
p925
aS'presence'
p926
aS'of'
p927
aS'the'
p928
aS'creator'
p929
aS'VOX'
p930
aaa(lp931
g868
a(lp932
S'and'
p933
aS'said'
p934
aS'VOX'
p935
aS'ye'
p936
aS'yes'
p937
aaa(lp938
g868
a(lp939
S'what'
p940
aaa(lp941
g868
a(lp942
S'what'
p943
aS'do'
p944
aS'you'
p945
aS'need'
p946
aS'me'
p947
aS'to'
p948
aS'do'
p949
aS'VOX'
p950
aaa(lp951
g868
a(lp952
S'And'
p953
aS'the'
p954
aS'creator'
p955
aS'said'
p956
aaa(lp957
g868
a(lp958
S'well'
p959
aS'all'
p960
aS'of'
p961
aS'the'
p962
aS'animals'
p963
aS'have'
p964
aS'gone'
p965
aS'off'
p966
aS'the'
p967
aS'edge'
p968
aS'of'
p969
aS'the'
p970
aS'Earth'
p971
aaa(lp972
g868
a(lp973
S'to'
p974
aS'make'
p975
aS'pictures'
p976
aS'in'
p977
aS'the'
p978
aS'sky'
p979
aaa(lp980
g868
a(lp981
S'But'
p982
aS'some'
p983
aS'of'
p984
aS'them'
p985
aS'cant'
p986
aS'carry'
p987
aS'very'
p988
aS'many'
p989
aS'stones'
p990
aaa(lp991
g868
a(lp992
g19
aS'want'
p993
aS'you'
p994
aS'to'
p995
aS'take'
p996
aS'this'
p997
aaa(lp998
S'AUD'
p999
a(lp1000
aa(lp1001
S'CYNTHIA'
p1002
a(lp1003
S'VOX'
p1004
aS'this'
p1005
aS'great'
p1006
aS'big'
p1007
aS'bag'
p1008
aS'of'
p1009
aS'stones'
p1010
aS'into'
p1011
aS'the'
p1012
aS'sky'
p1013
aS'VOX'
p1014
aaa(lp1015
g1002
a(lp1016
S'and'
p1017
aS'when'
p1018
aS'any'
p1019
aS'of'
p1020
aS'the'
p1021
aS'other'
p1022
aS'animals'
p1023
aS'need'
p1024
aS'them'
p1025
aaa(lp1026
g1002
a(lp1027
S'then'
p1028
aS'you'
p1029
aS'give'
p1030
aS'them'
p1031
aS'the'
p1032
aS'extras'
p1033
aS'that'
p1034
aS'they'
p1035
aS'need'
p1036
aaa(lp1037
S'AUD'
p1038
a(lp1039
aa(lp1040
S'CYNTHIA'
p1041
a(lp1042
g559
aS'Well'
p1043
aaa(lp1044
g1041
a(lp1045
S'coyote'
p1046
aS'was'
p1047
aS'lazy'
p1048
ag559
aaa(lp1049
g1041
a(lp1050
S'And'
p1051
aS'he'
p1052
aS'took'
p1053
aS'one'
p1054
aS'look'
p1055
aS'at'
p1056
aS'that'
p1057
aS'bag'
p1058
aS'and'
p1059
aS'thought'
p1060
aaa(lp1061
g1041
a(lp1062
S'VOX'
p1063
aS'hoh'
p1064
aaa(lp1065
g1041
a(lp1066
g19
aS'dont'
p1067
aS'wanna'
p1068
aS'do'
p1069
aS'that'
p1070
aS'VOX'
p1071
aaa(lp1072
g1041
a(lp1073
S'But'
p1074
aS'you'
p1075
aS'dont'
p1076
aS'argue'
p1077
aS'with'
p1078
aS'the'
p1079
aS'creator'
p1080
aaa(lp1081
S'AUD'
p1082
a(lp1083
aa(lp1084
S'CYNTHIA'
p1085
a(lp1086
S'And'
p1087
aS'so'
p1088
aaa(lp1089
g1085
a(lp1090
S'he'
p1091
aS'said'
p1092
aS'he'
p1093
aS'would'
p1094
aaa(lp1095
g1085
a(lp1096
S'And'
p1097
aS'he'
p1098
aaa(lp1099
g1085
a(lp1100
S'got'
p1101
aS'up'
p1102
aS'and'
p1103
aS'he'
p1104
aaa(lp1105
g1085
a(lp1106
S'took'
p1107
aS'that'
p1108
aS'heavy'
p1109
aS'bag'
p1110
aS'and'
p1111
aaa(lp1112
g1085
a(lp1113
S'put'
p1114
aS'it'
p1115
aS'on'
p1116
aS'his'
p1117
aS'back'
p1118
aS'and'
p1119
aaa(lp1120
g1085
a(lp1121
S'he'
p1122
aS'walked'
p1123
aS'off'
p1124
aS'the'
p1125
aS'edge'
p1126
aS'of'
p1127
aS'the'
p1128
aS'Earth'
p1129
aaa(lp1130
S'AUD'
p1131
a(lp1132
aa(lp1133
S'CYNTHIA'
p1134
a(lp1135
S'Into'
p1136
aS'the'
p1137
aS'sky'
p1138
aaa(lp1139
g1134
a(lp1140
S'Well'
p1141
aS'he'
p1142
aS'hadnt'
p1143
aS'gone'
p1144
aS'very'
p1145
aS'far'
p1146
aaa(lp1147
S'AUD'
p1148
a(lp1149
aa(lp1150
S'CYNTHIAwhen'
p1151
a(lp1152
S'that'
p1153
aS'bag'
p1154
aS'started'
p1155
aS'to'
p1156
aS'feel'
p1157
aS'very'
p1158
aS'heavy'
p1159
aaa(lp1160
g1151
a(lp1161
S'And'
p1162
aS'so'
p1163
aS'he'
p1164
aS'looked'
p1165
aS'one'
p1166
aS'way'
p1167
aaa(lp1168
S'AUD'
p1169
a(lp1170
aa(lp1171
S'CYNTHIA'
p1172
a(lp1173
S'and'
p1174
aS'then'
p1175
aS'he'
p1176
aS'looked'
p1177
aS'the'
p1178
aS'other'
p1179
aaa(lp1180
g1172
a(lp1181
S'and'
p1182
aS'he'
p1183
aS'put'
p1184
aS'that'
p1185
aS'big'
p1186
aS'bag'
p1187
aS'down'
p1188
aaa(lp1189
g1172
a(lp1190
S'VOX'
p1191
aS'and'
p1192
aS'then'
p1193
aS'he'
p1194
aS'VOX'
p1195
aS'dug'
p1196
aS'both'
p1197
aS'paws'
p1198
aS'in'
p1199
aaa(lp1200
g1172
a(lp1201
S'and'
p1202
aS'threw'
p1203
ag42
aS'whole'
p1204
aS'bunch'
p1205
aS'of'
p1206
aS'stones'
p1207
aS'behind'
p1208
aS'him'
p1209
aS'one'
p1210
aS'way'
p1211
aaa(lp1212
g1172
a(lp1213
S'and'
p1214
ag42
aS'whole'
p1215
aS'bunch'
p1216
aS'the'
p1217
aS'other'
p1218
aS'way'
p1219
aaa(lp1220
S'AUD'
p1221
a(lp1222
aa(lp1223
S'CYNTHIAand'
p1224
a(lp1225
S'of'
p1226
aS'course'
p1227
aaa(lp1228
g1224
a(lp1229
S'as'
p1230
aS'soon'
p1231
aS'as'
p1232
aS'they'
p1233
aS'hit'
p1234
aS'the'
p1235
aS'sky'
p1236
aaa(lp1237
g1224
a(lp1238
S'they'
p1239
aS'all'
p1240
aS'began'
p1241
aS'to'
p1242
aS'twinkle'
p1243
aS'behind'
p1244
aS'him'
p1245
aaa(lp1246
S'AUD'
p1247
a(lp1248
aa(lp1249
S'CYNTHIA'
p1250
a(lp1251
S'and'
p1252
aS'then'
p1253
aS'he'
p1254
aS'picked'
p1255
aS'that'
p1256
aS'bag'
p1257
aS'up'
p1258
aaa(lp1259
g1250
a(lp1260
S'put'
p1261
aS'it'
p1262
aS'on'
p1263
aS'his'
p1264
aS'back'
p1265
aS'again'
p1266
aaa(lp1267
g1250
a(lp1268
S'Well'
p1269
aS'it'
p1270
aS'wasnt'
p1271
aS'so'
p1272
aS'heavy'
p1273
aS'now'
p1274
aaa(lp1275
g1250
a(lp1276
S'So'
p1277
aS'he'
p1278
aS'walked'
p1279
ag42
aS'little'
p1280
aS'further'
p1281
aaa(lp1282
g1250
a(lp1283
S'and'
p1284
ag42
aS'little'
p1285
aS'further'
p1286
aaa(lp1287
g1250
a(lp1288
S'but'
p1289
aS'that'
p1290
ag559
aS'bag'
p1291
aS'began'
p1292
aS'to'
p1293
aS'feel'
p1294
aS'heavy'
p1295
aS'again'
p1296
ag559
aaa(lp1297
S'AUD'
p1298
a(lp1299
aa(lp1300
S'CYNTHIA'
p1301
a(lp1302
S'And'
p1303
aS'he'
p1304
aS'looked'
p1305
aS'one'
p1306
aS'way'
p1307
aaa(lp1308
S'AUD'
p1309
a(lp1310
aa(lp1311
S'CYNTHIA'
p1312
a(lp1313
S'And'
p1314
aS'he'
p1315
aS'looked'
p1316
aS'the'
p1317
aS'other'
p1318
aS'way'
p1319
aaa(lp1320
g1312
a(lp1321
S'And'
p1322
aS'then'
p1323
aS'he'
p1324
aS'put'
p1325
aS'that'
p1326
aS'bag'
p1327
aS'down'
p1328
aaa(lp1329
g1312
a(lp1330
S'VOX'
p1331
aS'and'
p1332
aS'he'
p1333
aS'VOX'
p1334
aS'dug'
p1335
aS'in'
p1336
aS'again'
p1337
aaa(lp1338
g1312
a(lp1339
S'Flung'
p1340
aS'one'
p1341
aS'paw'
p1342
aS'full'
p1343
aS'of'
p1344
aS'stones'
p1345
aS'one'
p1346
aS'way'
p1347
aaa(lp1348
g1312
a(lp1349
S'one'
p1350
aS'the'
p1351
aS'other'
p1352
aS'way'
p1353
aaa(lp1354
g1312
a(lp1355
S'and'
p1356
aS'no'
p1357
aS'one'
p1358
aS'had'
p1359
aS'seen'
p1360
aS'him'
p1361
aaa(lp1362
g1312
a(lp1363
S'But'
p1364
aS'the'
p1365
aS'sky'
p1366
aS'was'
p1367
aS'getting'
p1368
aS'brighter'
p1369
aS'behind'
p1370
aS'him'
p1371
aaa(lp1372
g1312
a(lp1373
S'He'
p1374
aS'put'
p1375
aS'that'
p1376
aS'bag'
p1377
aS'right'
p1378
aS'up'
p1379
aS'back'
p1380
aS'on'
p1381
aS'his'
p1382
aS'back'
p1383
aaa(lp1384
S'AUD'
p1385
a(lp1386
aa(lp1387
S'CYNTHIA'
p1388
a(lp1389
S'walked'
p1390
ag42
aS'little'
p1391
aS'further'
p1392
aaa(lp1393
g1388
a(lp1394
S'Well'
p1395
aS'it'
p1396
aS'felt'
p1397
aS'good'
p1398
aS'for'
p1399
aS'about'
p1400
ag42
aS'minute'
p1401
aS'or'
p1402
aS'two'
p1403
aaa(lp1404
g1388
a(lp1405
S'and'
p1406
aS'then'
p1407
aS'lazy'
p1408
aS'coyote'
p1409
aaa(lp1410
g1388
a(lp1411
S'he'
p1412
aS'just'
p1413
aS'couldnt'
p1414
aS'stand'
p1415
aS'it'
p1416
aS'anymore'
p1417
aaa(lp1418
g1388
a(lp1419
g559
aS'He'
p1420
aS'looked'
p1421
aS'one'
p1422
aS'way'
p1423
aaa(lp1424
g1388
a(lp1425
S'he'
p1426
aS'looked'
p1427
aS'the'
p1428
aS'other'
p1429
ag559
aaa(lp1430
g1388
a(lp1431
S'then'
p1432
aS'he'
p1433
aS'put'
p1434
aS'that'
p1435
aS'bag'
p1436
aS'down'
p1437
aaa(lp1438
g1388
a(lp1439
S'opened'
p1440
aS'it'
p1441
aS'real'
p1442
aS'wide'
p1443
aaa(lp1444
g1388
a(lp1445
S'and'
p1446
aS'like'
p1447
ag42
aS'puppy'
p1448
aS'digging'
p1449
ag42
aS'hole'
p1450
aaa(lp1451
g1388
a(lp1452
S'he'
p1453
aS'just'
p1454
aS'dug'
p1455
aaa(lp1456
g1388
a(lp1457
S'all'
p1458
aS'of'
p1459
aS'those'
p1460
aS'stones'
p1461
aaa(lp1462
g1388
a(lp1463
S'right'
p1464
aS'out'
p1465
aS'of'
p1466
aS'that'
p1467
aS'bag'
p1468
aaa(lp1469
g1388
a(lp1470
S'until'
p1471
aS'he'
p1472
aS'got'
p1473
aS'right'
p1474
aS'down'
p1475
aS'to'
p1476
aS'the'
p1477
aS'bottom'
p1478
aaa(lp1479
g1388
a(lp1480
S'And'
p1481
aS'all'
p1482
aS'those'
p1483
aS'stones'
p1484
aaa(lp1485
g1388
a(lp1486
S'started'
p1487
aS'sparkling'
p1488
aS'behind'
p1489
aS'him'
p1490
aaa(lp1491
g1388
a(lp1492
S'Then'
p1493
aS'he'
p1494
aS'took'
p1495
aS'that'
p1496
aS'bag'
p1497
aaa(lp1498
g1388
a(lp1499
S'made'
p1500
aS'sure'
p1501
aS'it'
p1502
aS'was'
p1503
aS'empty'
p1504
aaa(lp1505
g1388
a(lp1506
S'folded'
p1507
aS'it'
p1508
aS'up'
p1509
aaa(lp1510
g1388
a(lp1511
S'made'
p1512
ag42
aS'little'
p1513
aS'pillow'
p1514
aaa(lp1515
g1388
a(lp1516
S'pulled'
p1517
aS'up'
p1518
ag42
aS'comfortable'
p1519
aS'cloud'
p1520
aaa(lp1521
g1388
a(lp1522
S'laid'
p1523
aS'down'
p1524
aaa(lp1525
g1388
a(lp1526
S'and'
p1527
aS'went'
p1528
aS'to'
p1529
aS'sleep'
p1530
aaa(lp1531
g1388
a(lp1532
S'Well'
p1533
aaa(lp1534
g1388
a(lp1535
S'pretty'
p1536
aS'soon'
p1537
aS'the'
p1538
aS'animals'
p1539
aS'were'
p1540
aS'running'
p1541
aS'out'
p1542
aS'of'
p1543
aS'stones'
p1544
aaa(lp1545
g1388
a(lp1546
S'they'
p1547
aS'started'
p1548
aS'calling'
p1549
aaa(lp1550
g1388
a(lp1551
S'VOX'
p1552
aS'coyote'
p1553
aaa(lp1554
g1388
a(lp1555
S'we'
p1556
aS'need'
p1557
aS'some'
p1558
aS'more'
p1559
aS'stones'
p1560
aS'over'
p1561
aS'here'
p1562
aaa(lp1563
g1388
a(lp1564
S'right'
p1565
aS'over'
p1566
aaa(lp1567
g1388
a(lp1568
S'where'
p1569
aS'are'
p1570
aS'you'
p1571
aS'coyote'
p1572
aS'VOX'
p1573
aaa(lp1574
g1388
a(lp1575
S'Well'
p1576
aaa(lp1577
S'AUD'
p1578
a(lp1579
aa(lp1580
S'CYNTHIA'
p1581
a(lp1582
S'coyote'
p1583
aS'didnt'
p1584
aS'hear'
p1585
aS'them'
p1586
aaa(lp1587
g1581
a(lp1588
S'Because'
p1589
aS'he'
p1590
aS'was'
p1591
aS'lazy'
p1592
aaa(lp1593
g1581
a(lp1594
S'and'
p1595
aS'he'
p1596
aS'was'
p1597
aaa(lp1598
g1581
a(lp1599
S'asleep'
p1600
aaa(lp1601
g1581
a(lp1602
S'WH'
p1603
aS'Well'
p1604
aS'WH'
p1605
aaa(lp1606
g1581
a(lp1607
S'the'
p1608
aS'first'
p1609
aS'rays'
p1610
aS'of'
p1611
aS'morning'
p1612
aaa(lp1613
g1581
a(lp1614
S'started'
p1615
aS'peeking'
p1616
aS'over'
p1617
aS'the'
p1618
aS'edge'
p1619
aS'of'
p1620
aS'the'
p1621
aS'Earth'
p1622
aaa(lp1623
g1581
a(lp1624
S'and'
p1625
aS'all'
p1626
aS'the'
p1627
aS'animals'
p1628
aS'had'
p1629
aS'to'
p1630
aS'scurry'
p1631
aaa(lp1632
g1581
a(lp1633
S'back'
p1634
aS'onto'
p1635
aS'the'
p1636
aS'Earth'
p1637
aaa(lp1638
g1581
a(lp1639
S'Before'
p1640
aS'day'
p1641
aS'broke'
p1642
aaa(lp1643
g1581
a(lp1644
S'Some'
p1645
aS'of'
p1646
aS'them'
p1647
aS'had'
p1648
aS'to'
p1649
aS'leave'
p1650
aS'their'
p1651
aS'pictures'
p1652
aaa(lp1653
g1581
a(lp1654
S'half'
p1655
aS'done'
p1656
aaa(lp1657
g1581
a(lp1658
S'Some'
p1659
aS'had'
p1660
aS'only'
p1661
aS'had'
p1662
aS'one'
p1663
aS'stone'
p1664
aaa(lp1665
g1581
a(lp1666
S'They'
p1667
aS'could'
p1668
aS'just'
p1669
aS'put'
p1670
aS'up'
p1671
aS'in'
p1672
aS'the'
p1673
aS'sky'
p1674
aaa(lp1675
g1581
a(lp1676
g725
aS'few'
p1677
aS'were'
p1678
aS'finished'
p1679
aaa(lp1680
g1581
a(lp1681
S'like'
p1682
aS'the'
p1683
aS'swan'
p1684
aaa(lp1685
g1581
a(lp1686
S'and'
p1687
aS'finally'
p1688
aS'when'
p1689
ag42
aS'ray'
p1690
aS'of'
p1691
aS'light'
p1692
aS'hit'
p1693
aS'coyote'
p1694
aS'in'
p1695
aS'the'
p1696
aS'eye'
p1697
aaa(lp1698
g1581
a(lp1699
S'he'
p1700
aS'woke'
p1701
aS'up'
p1702
aS'and'
p1703
aaa(lp1704
g1581
a(lp1705
S'he'
p1706
aS'realized'
p1707
aaa(lp1708
g1581
a(lp1709
S'he'
p1710
aS'too'
p1711
aS'had'
p1712
aS'to'
p1713
aS'hurry'
p1714
aS'back'
p1715
aS'onto'
p1716
aS'Earth'
p1717
aaa(lp1718
g1581
a(lp1719
S'So'
p1720
aS'he'
p1721
aS'did'
p1722
aaa(lp1723
g1581
a(lp1724
S'But'
p1725
aS'that'
p1726
aS'night'
p1727
aaa(lp1728
g1581
a(lp1729
S'MRC'
p1730
aS'when'
p1731
aS'he'
p1732
aS'looked'
p1733
aS'up'
p1734
aS'at'
p1735
aS'the'
p1736
aS'sky'
p1737
aS'MRC'
p1738
aaa(lp1739
g1581
a(lp1740
S'thats'
p1741
aS'when'
p1742
aS'he'
p1743
aS'learned'
p1744
aS'how'
p1745
aS'to'
p1746
aS'howl'
p1747
aaa(lp1748
g1581
a(lp1749
S'Because'
p1750
aS'he'
p1751
aS'saw'
p1752
ag559
aS'all'
p1753
aS'the'
p1754
aS'other'
p1755
aS'animals'
p1756
aS'with'
p1757
aS'their'
p1758
aS'pictures'
p1759
aS'in'
p1760
aS'the'
p1761
aS'sky'
p1762
ag559
aaa(lp1763
g1581
a(lp1764
S'and'
p1765
aS'MRC'
p1766
aS'his'
p1767
aS'wasnt'
p1768
aS'there'
p1769
aS'MRC'
p1770
aaa(lp1771
g1581
a(lp1772
S'Because'
p1773
aS'hed'
p1774
aS'been'
p1775
aS'lazy'
p1776
aaa(lp1777
g1581
a(lp1778
S'And'
p1779
aS'he'
p1780
aS'had'
p1781
aS'been'
p1782
aS'asleep'
p1783
aaa(lp1784
g1581
a(lp1785
S'And'
p1786
aS'thats'
p1787
aS'the'
p1788
aS'story'
p1789
aaa(lp1790
g1581
a(lp1791
S'of'
p1792
aS'how'
p1793
aS'all'
p1794
aS'the'
p1795
aS'stars'
p1796
aS'got'
p1797
aS'in'
p1798
aS'the'
p1799
aS'sky'
p1800
aaa(lp1801
S'MANY'
p1802
a(lp1803
aa(lp1804
S'AUD'
p1805
a(lp1806
aa(lp1807
S'CYNTHIAWell'
p1808
a(lp1809
aa(lp1810
S'AUD'
p1811
a(lp1812
aa(lp1813
S'CYNTHIA'
p1814
a(lp1815
S'Some'
p1816
aS'of'
p1817
aS'my'
p1818
aS'favorite'
p1819
aS'kinds'
p1820
aS'of'
p1821
aS'stories'
p1822
aaa(lp1823
g1814
a(lp1824
S'are'
p1825
aS'stories'
p1826
aS'where'
p1827
aS'the'
p1828
aS'audience'
p1829
aS'gets'
p1830
aS'to'
p1831
aS'help'
p1832
ag42
aS'little'
p1833
aS'bit'
p1834
aaa(lp1835
S'AUD'
p1836
a(lp1837
aa(lp1838
S'CYNTHIA'
p1839
a(lp1840
S'And'
p1841
aS'this'
p1842
aS'is'
p1843
ag42
aS'story'
p1844
aS'that'
p1845
aS'has'
p1846
ag42
aS'tiger'
p1847
aaa(lp1848
S'AUD'
p1849
a(lp1850
aa(lp1851
S'CYNTHIA'
p1852
a(lp1853
S'And'
p1854
ag19
aS'need'
p1855
aS'you'
p1856
aS'to'
p1857
aS'be'
p1858
aS'the'
p1859
aS'tiger'
p1860
aaa(lp1861
g1852
a(lp1862
S'Now'
p1863
aS'this'
p1864
aS'tiger'
p1865
aS'keeps'
p1866
aS'changing'
p1867
aS'his'
p1868
aS'mind'
p1869
aS'about'
p1870
aS'things'
p1871
aaa(lp1872
g1852
a(lp1873
S'sometimes'
p1874
aS'youre'
p1875
aS'going'
p1876
aS'to'
p1877
aS'say'
p1878
aaa(lp1879
g1852
a(lp1880
S'thats'
p1881
aS'good'
p1882
aS'said'
p1883
aS'tiger'
p1884
aaa(lp1885
g1852
a(lp1886
S'Can'
p1887
ag19
aS'hear'
p1888
aS'you'
p1889
aS'say'
p1890
aS'that'
p1891
aaa(lp1892
S'MANY'
p1893
a(lp1894
S'Thats'
p1895
aS'good'
p1896
aS'said'
p1897
aS'tiger'
p1898
aaa(lp1899
S'CYNTHIAThats'
p1900
a(lp1901
S'good'
p1902
aS'said'
p1903
aS'tiger'
p1904
aaa(lp1905
S'AUDX'
p1906
a(lp1907
aa(lp1908
S'CYNTHIAAnd'
p1909
a(lp1910
S'sometimes'
p1911
aaa(lp1912
g1909
a(lp1913
S'that'
p1914
aS'tiger'
p1915
aS'changes'
p1916
aS'his'
p1917
aS'mind'
p1918
aaa(lp1919
g1909
a(lp1920
S'And'
p1921
aS'he'
p1922
aS'says'
p1923
aaa(lp1924
g1909
a(lp1925
S'thats'
p1926
aS'bad'
p1927
aS'said'
p1928
aS'tiger'
p1929
aaa(lp1930
S'MANY'
p1931
a(lp1932
S'Thats'
p1933
aS'bad'
p1934
aS'says'
p1935
aS'tiger'
p1936
aaa(lp1937
S'CYNTHIAAlright'
p1938
a(lp1939
aa(lp1940
g1938
a(lp1941
S'Well'
p1942
aS'lets'
p1943
aS'see'
p1944
aaa(lp1945
g1938
a(lp1946
S'what'
p1947
aS'keeps'
p1948
aS'flipping'
p1949
aS'this'
p1950
aS'tiger'
p1951
aS'back'
p1952
aS'and'
p1953
aS'forth'
p1954
aaa(lp1955
g1938
a(lp1956
S'Shall'
p1957
aS'we'
p1958
aaa(lp1959
g1938
a(lp1960
g559
aS'Boy'
p1961
aS'was'
p1962
aS'sitting'
p1963
aS'on'
p1964
ag42
aS'big'
p1965
aS'rock'
p1966
ag559
aaa(lp1967
g1938
a(lp1968
S'In'
p1969
aS'the'
p1970
aS'middle'
p1971
aS'of'
p1972
aS'the'
p1973
aS'jungle'
p1974
aaa(lp1975
g1938
a(lp1976
S'Just'
p1977
aS'sitting'
p1978
aaa(lp1979
g1938
a(lp1980
S'When'
p1981
aS'along'
p1982
aS'came'
p1983
aS'tiger'
p1984
aaa(lp1985
g1938
a(lp1986
S'VOX'
p1987
aS'Run'
p1988
aS'boy'
p1989
aS'VOX'
p1990
aaa(lp1991
g1938
a(lp1992
S'Said'
p1993
aS'tiger'
p1994
aaa(lp1995
g1938
a(lp1996
S'VOX'
p1997
aS'Run'
p1998
aS'VOX'
p1999
aaa(lp2000
g1938
a(lp2001
S'And'
p2002
aS'then'
p2003
aaa(lp2004
g1938
a(lp2005
S'VOX'
p2006
ag19
aS'will'
p2007
aS'chase'
p2008
aS'you'
p2009
aaa(lp2010
g1938
a(lp2011
S'And'
p2012
ag19
aS'will'
p2013
aS'catch'
p2014
aS'you'
p2015
aaa(lp2016
g1938
a(lp2017
S'And'
p2018
aS'then'
p2019
aaa(lp2020
g1938
a(lp2021
S'hmhmhmhm'
p2022
aaa(lp2023
g1938
a(lp2024
g19
aS'will'
p2025
aS'eat'
p2026
aS'you'
p2027
aaa(lp2028
g1938
a(lp2029
S'So'
p2030
aS'run'
p2031
aS'VOX'
p2032
aS'said'
p2033
aS'tiger'
p2034
aaa(lp2035
g1938
a(lp2036
S'Well'
p2037
aS'said'
p2038
aS'boy'
p2039
aaa(lp2040
g1938
a(lp2041
g19
aS'have'
p2042
aS'no'
p2043
aS'run'
p2044
aS'left'
p2045
aS'in'
p2046
aS'me'
p2047
aaa(lp2048
g1938
a(lp2049
S'VOX'
p2050
aS'What'
p2051
aaa(lp2052
g1938
a(lp2053
S'You'
p2054
aS'wont'
p2055
aS'run'
p2056
aaa(lp2057
g1938
a(lp2058
S'Tell'
p2059
aS'me'
p2060
aS'why'
p2061
aS'you'
p2062
aS'wont'
p2063
aS'run'
p2064
aaa(lp2065
g1938
a(lp2066
S'and'
p2067
aS'then'
p2068
ag19
aS'will'
p2069
aS'eat'
p2070
aS'you'
p2071
aS'VOX'
p2072
aaa(lp2073
g1938
a(lp2074
S'Said'
p2075
aS'tiger'
p2076
aaa(lp2077
g1938
a(lp2078
S'Well'
p2079
aS'its'
p2080
aS'like'
p2081
aS'this'
p2082
aS'said'
p2083
aS'the'
p2084
aS'boy'
p2085
aaa(lp2086
g1938
a(lp2087
g19
aS'was'
p2088
aS'walking'
p2089
aaa(lp2090
g1938
a(lp2091
S'Just'
p2092
aS'walking'
p2093
aS'in'
p2094
aS'the'
p2095
aS'jungle'
p2096
aS'when'
p2097
aaa(lp2098
g1938
a(lp2099
g19
aS'bumped'
p2100
aS'into'
p2101
aS'rhino'
p2102
aaa(lp2103
g1938
a(lp2104
S'PAR'
p2105
aS'You'
p2106
aS'know'
p2107
aS'what'
p2108
ag42
aS'rhino'
p2109
aS'is'
p2110
aaa(lp2111
g1938
a(lp2112
S'dont'
p2113
aS'you'
p2114
aS'PAR'
p2115
aaa(lp2116
g1938
a(lp2117
g725
aS'great'
p2118
aS'big'
p2119
aS'animal'
p2120
aS'with'
p2121
ag42
aS'horn'
p2122
aaa(lp2123
S'AUD'
p2124
a(lp2125
aa(lp2126
S'CYNTHIA'
p2127
a(lp2128
S'Or'
p2129
aS'rhino'
p2130
aS'bumped'
p2131
aS'into'
p2132
aS'me'
p2133
aaa(lp2134
g2127
a(lp2135
g19
aS'was'
p2136
aS'willing'
p2137
aS'to'
p2138
aS'forget'
p2139
aS'it'
p2140
aaa(lp2141
g2127
a(lp2142
S'But'
p2143
aS'not'
p2144
aS'rhino'
p2145
aaa(lp2146
g2127
a(lp2147
S'So'
p2148
aS'he'
p2149
aS'got'
p2150
aS'mad'
p2151
aaa(lp2152
g2127
a(lp2153
S'and'
p2154
ag19
aS'ran'
p2155
aS'away'
p2156
aS'from'
p2157
aS'there'
p2158
aS'fast'
p2159
aaa(lp2160
g2127
a(lp2161
S'Now'
p2162
aS'this'
p2163
aS'is'
p2164
aS'where'
p2165
aS'you'
p2166
aS'say'
p2167
aaa(lp2168
g2127
a(lp2169
S'thats'
p2170
aS'good'
p2171
aS'said'
p2172
aS'tiger'
p2173
aaa(lp2174
g2127
a(lp2175
S'Thats'
p2176
aS'good'
p2177
aS'said'
p2178
aS'tiger'
p2179
aaa(lp2180
S'MANYThats'
p2181
a(lp2182
S'good'
p2183
aS'said'
p2184
aS'tiger'
p2185
aaa(lp2186
S'CYNTHIA'
p2187
a(lp2188
S'Well'
p2189
ag19
aS'ran'
p2190
aaa(lp2191
g2187
a(lp2192
S'and'
p2193
ag19
aS'ran'
p2194
aS'and'
p2195
ag19
aS'ran'
p2196
aS'and'
p2197
ag19
aS'ran'
p2198
aaa(lp2199
g2187
a(lp2200
S'but'
p2201
aS'all'
p2202
aS'the'
p2203
aS'while'
p2204
aaa(lp2205
g2187
a(lp2206
S'there'
p2207
aS'was'
p2208
aS'rhino'
p2209
aaa(lp2210
g2187
a(lp2211
S'Running'
p2212
aS'right'
p2213
aS'after'
p2214
aS'me'
p2215
aaa(lp2216
g2187
a(lp2217
S'He'
p2218
aS'cant'
p2219
aS'see'
p2220
aS'very'
p2221
aS'well'
p2222
aS'but'
p2223
aaa(lp2224
g2187
a(lp2225
S'boy'
p2226
aS'can'
p2227
aS'he'
p2228
aS'run'
p2229
aS'fast'
p2230
aaa(lp2231
g2187
a(lp2232
S'Thats'
p2233
aS'bad'
p2234
aS'said'
p2235
aS'tiger'
p2236
aaa(lp2237
S'MANYThats'
p2238
a(lp2239
S'bad'
p2240
aS'said'
p2241
aS'tiger'
p2242
aaa(lp2243
S'CYNTHIA'
p2244
a(lp2245
S'Well'
p2246
ag19
aS'ran'
p2247
aS'and'
p2248
ag19
aS'ran'
p2249
aS'and'
p2250
ag19
aS'ran'
p2251
aS'and'
p2252
ag19
aS'ran'
p2253
aaa(lp2254
g2244
a(lp2255
S'until'
p2256
ag19
aS'found'
p2257
ag42
aS'low'
p2258
aS'tree'
p2259
aaa(lp2260
g2244
a(lp2261
S'And'
p2262
ag19
aS'climbed'
p2263
aS'up'
p2264
aS'in'
p2265
aS'that'
p2266
aS'tree'
p2267
aaa(lp2268
g2244
a(lp2269
S'and'
p2270
ag19
aS'sat'
p2271
aS'on'
p2272
ag42
aS'branch'
p2273
aaa(lp2274
g2244
a(lp2275
S'and'
p2276
aS'rhino'
p2277
aaa(lp2278
g2244
a(lp2279
S'he'
p2280
aS'ran'
p2281
aS'right'
p2282
aS'under'
p2283
aS'me'
p2284
aaa(lp2285
g2244
a(lp2286
S'and'
p2287
aS'he'
p2288
aS'kept'
p2289
aS'right'
p2290
aS'on'
p2291
aS'going'
p2292
aaa(lp2293
g2244
a(lp2294
S'Thats'
p2295
aS'good'
p2296
aS'said'
p2297
aS'tiger'
p2298
aaa(lp2299
S'MANYThats'
p2300
a(lp2301
S'good'
p2302
aS'said'
p2303
aS'tiger'
p2304
aaa(lp2305
S'CYNTHIA'
p2306
a(lp2307
S'But'
p2308
aaa(lp2309
g2306
a(lp2310
g559
aS'he'
p2311
aS'came'
p2312
aS'back'
p2313
aS'looking'
p2314
aS'for'
p2315
aS'me'
p2316
ag559
aaa(lp2317
g2306
a(lp2318
S'Thats'
p2319
aS'bad'
p2320
aS'said'
p2321
aS'tiger'
p2322
aaa(lp2323
S'MANYThats'
p2324
a(lp2325
S'bad'
p2326
aS'said'
p2327
aS'tiger'
p2328
aaa(lp2329
S'CYNTHIA'
p2330
a(lp2331
S'So'
p2332
ag19
aS'got'
p2333
aS'down'
p2334
aaa(lp2335
g2330
a(lp2336
S'and'
p2337
ag19
aS'picked'
p2338
aS'up'
p2339
ag42
aS'stone'
p2340
aaa(lp2341
g2330
a(lp2342
S'and'
p2343
ag19
aS'threw'
p2344
aS'it'
p2345
aS'at'
p2346
aS'rhino'
p2347
aS'to'
p2348
aS'scare'
p2349
aS'him'
p2350
aS'away'
p2351
aaa(lp2352
g2330
a(lp2353
S'Thats'
p2354
aS'good'
p2355
aS'said'
p2356
aS'tiger'
p2357
aaa(lp2358
S'MANYThats'
p2359
a(lp2360
S'good'
p2361
aS'said'
p2362
aS'tiger'
p2363
aaa(lp2364
S'CYNTHIA'
p2365
a(lp2366
S'But'
p2367
aaa(lp2368
g2365
a(lp2369
g559
aS'it'
p2370
aS'didnt'
p2371
aS'scare'
p2372
aS'him'
p2373
aS'away'
p2374
ag559
aaa(lp2375
S'MANY'
p2376
a(lp2377
S'Thats'
p2378
aS'bad'
p2379
aS'said'
p2380
aS'tiger'
p2381
aaa(lp2382
S'CYNTHIAThats'
p2383
a(lp2384
S'bad'
p2385
aS'said'
p2386
aS'tiger'
p2387
aaa(lp2388
S'AUD'
p2389
a(lp2390
aa(lp2391
S'CYNTHIA'
p2392
a(lp2393
S'So'
p2394
ag19
aS'got'
p2395
aS'down'
p2396
aaa(lp2397
g2392
a(lp2398
S'and'
p2399
ag19
aS'ran'
p2400
ag42
aS'little'
p2401
aS'more'
p2402
aaa(lp2403
g2392
a(lp2404
g725
aS'little'
p2405
aS'slower'
p2406
aS'now'
p2407
aaa(lp2408
g2392
a(lp2409
S'because'
p2410
ag19
aS'was'
p2411
aS'so'
p2412
aS'tired'
p2413
aS'but'
p2414
aaa(lp2415
g2392
a(lp2416
S'at'
p2417
aS'least'
p2418
aS'rhino'
p2419
aS'was'
p2420
aS'getting'
p2421
aS'tired'
p2422
aS'too'
p2423
aaa(lp2424
g2392
a(lp2425
S'Thats'
p2426
aS'good'
p2427
aS'said'
p2428
aS'tiger'
p2429
aaa(lp2430
S'MANYThats'
p2431
a(lp2432
S'good'
p2433
aS'said'
p2434
aS'tiger'
p2435
aaa(lp2436
S'CYNTHIA'
p2437
a(lp2438
S'And'
p2439
aS'then'
p2440
aaa(lp2441
g2437
a(lp2442
S'then'
p2443
aaa(lp2444
g2437
a(lp2445
g19
aS'was'
p2446
aS'running'
p2447
aaa(lp2448
g2437
a(lp2449
S'and'
p2450
ag19
aS'tripped'
p2451
aaa(lp2452
g2437
a(lp2453
S'into'
p2454
ag42
aS'shallow'
p2455
aS'ditch'
p2456
aaa(lp2457
g2437
a(lp2458
S'right'
p2459
aS'in'
p2460
aS'front'
p2461
aS'of'
p2462
aS'rhino'
p2463
aaa(lp2464
S'MANY'
p2465
a(lp2466
S'Thats'
p2467
aS'bad'
p2468
aS'said'
p2469
aS'tiger'
p2470
aaa(lp2471
S'CYNTHIAThats'
p2472
a(lp2473
S'bad'
p2474
aS'said'
p2475
aS'tiger'
p2476
aaa(lp2477
S'AUDX'
p2478
a(lp2479
S'Yes'
p2480
ag886
aaa(lp2481
S'CYNTHIAWell'
p2482
a(lp2483
aa(lp2484
g2482
a(lp2485
S'but'
p2486
aS'rhino'
p2487
aS'was'
p2488
aS'going'
p2489
aS'so'
p2490
aS'fast'
p2491
aS'this'
p2492
aS'time'
p2493
aaa(lp2494
g2482
a(lp2495
S'he'
p2496
aS'ran'
p2497
aS'right'
p2498
aS'over'
p2499
aS'me'
p2500
aaa(lp2501
g2482
a(lp2502
S'Thats'
p2503
aS'good'
p2504
aS'said'
p2505
aS'tiger'
p2506
aaa(lp2507
S'MANYThats'
p2508
a(lp2509
S'good'
p2510
aS'said'
p2511
aS'tiger'
p2512
aaa(lp2513
S'CYNTHIA'
p2514
a(lp2515
S'But'
p2516
ag19
aS'got'
p2517
aS'up'
p2518
aaa(lp2519
g2514
a(lp2520
S'and'
p2521
aaa(lp2522
g2514
a(lp2523
S'there'
p2524
aS'was'
p2525
aS'rhino'
p2526
aaa(lp2527
g2514
a(lp2528
S'Right'
p2529
aS'there'
p2530
aS'back'
p2531
aS'again'
p2532
aaa(lp2533
g2514
a(lp2534
S'Thats'
p2535
aS'bad'
p2536
aS'said'
p2537
aS'tiger'
p2538
aaa(lp2539
S'MANYThats'
p2540
a(lp2541
S'bad'
p2542
aS'said'
p2543
aS'tiger'
p2544
aaa(lp2545
S'CYNTHIA'
p2546
a(lp2547
S'So'
p2548
ag19
aS'ran'
p2549
aS'and'
p2550
ag19
aS'ran'
p2551
aaa(lp2552
g2546
a(lp2553
S'until'
p2554
ag19
aS'saw'
p2555
ag42
aS'vine'
p2556
aaa(lp2557
g2546
a(lp2558
S'and'
p2559
ag19
aS'grabbed'
p2560
aS'the'
p2561
aS'vine'
p2562
aaa(lp2563
g2546
a(lp2564
S'and'
p2565
ag19
aS'swung'
p2566
aS'across'
p2567
aS'the'
p2568
aS'river'
p2569
aaa(lp2570
g2546
a(lp2571
S'to'
p2572
aS'the'
p2573
aS'other'
p2574
aS'side'
p2575
aaa(lp2576
S'MANY'
p2577
a(lp2578
S'Thats'
p2579
aS'good'
p2580
aS'said'
p2581
aS'tiger'
p2582
aaa(lp2583
S'CYNTHIAThats'
p2584
a(lp2585
S'good'
p2586
aS'said'
p2587
aS'tiger'
p2588
aaa(lp2589
g2584
a(lp2590
S'But'
p2591
aS'on'
p2592
aS'the'
p2593
aS'other'
p2594
aS'side'
p2595
aaa(lp2596
g2584
a(lp2597
S'was'
p2598
aS'crocodile'
p2599
aaa(lp2600
g2584
a(lp2601
S'With'
p2602
aS'his'
p2603
aS'mouth'
p2604
aS'wide'
p2605
aS'open'
p2606
aaa(lp2607
S'MANY'
p2608
a(lp2609
S'Thats'
p2610
aS'bad'
p2611
aS'said'
p2612
aS'tiger'
p2613
aaa(lp2614
S'CYNTHIAThats'
p2615
a(lp2616
S'bad'
p2617
aS'said'
p2618
aS'tiger'
p2619
aaa(lp2620
g2615
a(lp2621
S'So'
p2622
ag19
aS'swang'
p2623
aS'back'
p2624
aaa(lp2625
g2615
a(lp2626
S'and'
p2627
ag19
aS'let'
p2628
aS'go'
p2629
aS'of'
p2630
aS'the'
p2631
aS'vine'
p2632
aaa(lp2633
g2615
a(lp2634
S'and'
p2635
ag19
aS'landed'
p2636
aS'with'
p2637
ag42
aS'thump'
p2638
aaa(lp2639
g2615
a(lp2640
S'and'
p2641
ag19
aS'didnt'
p2642
aS'see'
p2643
aS'rhino'
p2644
aS'anywhere'
p2645
aaa(lp2646
S'MANY'
p2647
a(lp2648
S'Thats'
p2649
aS'good'
p2650
aS'said'
p2651
aS'tiger'
p2652
aaa(lp2653
S'CYNTHIAThats'
p2654
a(lp2655
S'good'
p2656
aS'said'
p2657
aS'tiger'
p2658
aaa(lp2659
g2654
a(lp2660
S'So'
p2661
ag19
aS'got'
p2662
aS'down'
p2663
aaa(lp2664
g2654
a(lp2665
S'and'
p2666
aS'then'
p2667
ag19
aS'realized'
p2668
aaa(lp2669
g2654
a(lp2670
g19
aS'had'
p2671
aS'been'
p2672
aS'on'
p2673
aS'rhinos'
p2674
aS'back'
p2675
aaa(lp2676
S'AUD'
p2677
a(lp2678
aa(lp2679
S'AUD_Tha'
p2680
a(lp2681
aa(lp2682
S'AUD_Tha'
p2683
a(lp2684
aa(lp2685
S'MANYThats'
p2686
a(lp2687
S'bad'
p2688
aS'said'
p2689
aS'tiger'
p2690
aaa(lp2691
S'CYNTHIAThats'
p2692
a(lp2693
S'bad'
p2694
aS'said'
p2695
aS'tiger'
p2696
aaa(lp2697
S'AUD'
p2698
a(lp2699
aa(lp2700
S'CYNTHIA'
p2701
a(lp2702
S'So'
p2703
ag19
aS'got'
p2704
aS'behind'
p2705
ag42
aS'tree'
p2706
aaa(lp2707
g2701
a(lp2708
S'And'
p2709
ag19
aS'picked'
p2710
aS'up'
p2711
aS'another'
p2712
aS'stone'
p2713
aaa(lp2714
g2701
a(lp2715
S'and'
p2716
ag19
aS'threw'
p2717
aS'it'
p2718
aS'just'
p2719
aS'as'
p2720
aS'far'
p2721
aS'as'
p2722
ag19
aS'could'
p2723
aaa(lp2724
g2701
a(lp2725
S'rhino'
p2726
aS'cant'
p2727
aS'see'
p2728
aS'very'
p2729
aS'well'
p2730
aaa(lp2731
g2701
a(lp2732
S'but'
p2733
aS'he'
p2734
aS'heard'
p2735
aS'that'
p2736
aS'stone'
p2737
aaa(lp2738
g2701
a(lp2739
S'and'
p2740
aS'he'
p2741
aS'ran'
p2742
aS'off'
p2743
aS'after'
p2744
aS'it'
p2745
aaa(lp2746
S'MANY'
p2747
a(lp2748
S'Thats'
p2749
aS'good'
p2750
aS'said'
p2751
aS'tiger'
p2752
aaa(lp2753
S'CYNTHIAThats'
p2754
a(lp2755
S'good'
p2756
aS'said'
p2757
aS'tiger'
p2758
aaa(lp2759
g2754
a(lp2760
S'And'
p2761
aS'then'
p2762
aS'tiger'
p2763
aS'said'
p2764
aaa(lp2765
g2754
a(lp2766
S'And'
p2767
aS'so'
p2768
aS'then'
p2769
aaa(lp2770
g2754
a(lp2771
S'you'
p2772
aS'ran'
p2773
aS'away'
p2774
aaa(lp2775
g2754
a(lp2776
S'And'
p2777
aS'you'
p2778
aS'got'
p2779
aS'away'
p2780
aS'from'
p2781
aS'rhino'
p2782
aaa(lp2783
g2754
a(lp2784
S'And'
p2785
aS'boy'
p2786
aS'said'
p2787
aaa(lp2788
g2754
a(lp2789
g559
aS'well'
p2790
aaa(lp2791
g2754
a(lp2792
S'No'
p2793
aaa(lp2794
g2754
a(lp2795
g19
aS'was'
p2796
aS'so'
p2797
aS'tired'
p2798
aaa(lp2799
g2754
a(lp2800
g19
aS'just'
p2801
aS'sat'
p2802
aS'down'
p2803
aS'here'
p2804
aaa(lp2805
g2754
a(lp2806
S'and'
p2807
aaa(lp2808
g2754
a(lp2809
S'and'
p2810
aaa(lp2811
g2754
a(lp2812
S'and'
p2813
aS'now'
p2814
aS'Im'
p2815
aS'going'
p2816
aS'to'
p2817
aS'get'
p2818
aS'behind'
p2819
aS'this'
p2820
aS'big'
p2821
aS'stone'
p2822
aaa(lp2823
g2754
a(lp2824
S'because'
p2825
aaa(lp2826
g2754
a(lp2827
S'here'
p2828
aS'comes'
p2829
aS'rhino'
p2830
aS'now'
p2831
ag559
aaa(lp2832
S'AUDrhino'
p2833
a(lp2834
aa(lp2835
S'MANY'
p2836
a(lp2837
aa(lp2838
S'CYNTHIAThats'
p2839
a(lp2840
S'bad'
p2841
aS'said'
p2842
aS'tiger'
p2843
aaa(lp2844
S'MANYThats'
p2845
a(lp2846
S'bad'
p2847
aS'said'
p2848
aS'tiger'
p2849
aaa(lp2850
S'CYNTHIAAnd'
p2851
a(lp2852
S'he'
p2853
aS'took'
p2854
aS'off'
p2855
aS'running'
p2856
aS'fast'
p2857
aaa(lp2858
g2851
a(lp2859
S'And'
p2860
aS'the'
p2861
aS'little'
p2862
aS'boy'
p2863
aaa(lp2864
g2851
a(lp2865
S'got'
p2866
aS'up'
p2867
aaa(lp2868
g2851
a(lp2869
S'P'
p2870
aS'not'
p2871
aS'tired'
p2872
aS'anymore'
p2873
ag2870
aaa(lp2874
g2851
a(lp2875
S'and'
p2876
aS'he'
p2877
aS'ran'
p2878
aS'away'
p2879
aS'home'
p2880
aaa(lp2881
g2851
a(lp2882
S'as'
p2883
aS'fast'
p2884
aS'as'
p2885
aS'his'
p2886
aS'little'
p2887
aS'brown'
p2888
aS'legs'
p2889
aS'would'
p2890
aS'carry'
p2891
aS'him'
p2892
aaa(lp2893
g2851
a(lp2894
g2870
aS'And'
p2895
aS'thats'
p2896
aS'good'
p2897
aaa(lp2898
g2851
a(lp2899
S'thats'
p2900
aS'bad'
p2901
aaa(lp2902
g2851
a(lp2903
S'is'
p2904
aS'the'
p2905
aS'name'
p2906
aS'of'
p2907
aS'that'
p2908
aS'story'
p2909
ag2870
aaa(lp2910
S'MANY'
p2911
a(lp2912
aa(lp2913
S'CYNTHIA'
p2914
a(lp2915
S'Now'
p2916
ag19
aS'know'
p2917
aS'storytelling'
p2918
aS'is'
p2919
ag42
aS'new'
p2920
aS'thing'
p2921
aS'for'
p2922
ag42
aS'lot'
p2923
aS'of'
p2924
aS'you'
p2925
aaa(lp2926
g2914
a(lp2927
S'but'
p2928
aS'it'
p2929
aaa(lp2930
g2914
a(lp2931
S'Um'
p2932
aaa(lp2933
g2914
a(lp2934
S'if'
p2935
aS'you'
p2936
aS'do'
p2937
aS'have'
p2938
aS'enjoyment'
p2939
aS'of'
p2940
aS'it'
p2941
aaa(lp2942
g2914
a(lp2943
g19
aS'hope'
p2944
aS'you'
p2945
aS'will'
p2946
aS'join'
p2947
aS'us'
p2948
aS'another'
p2949
aS'time'
p2950
aaa(lp2951
g2914
a(lp2952
S'at'
p2953
aS'at'
p2954
aS'the'
p2955
aS'storytelling'
p2956
aS'festival'
p2957
aaa(lp2958
g2914
a(lp2959
g19
aS'have'
p2960
aS'one'
p2961
aS'more'
p2962
aS'story'
p2963
aS'for'
p2964
aS'you'
p2965
aaa(lp2966
g2914
a(lp2967
S'And'
p2968
aaa(lp2969
S'AUD'
p2970
a(lp2971
aa(lp2972
S'CYNTHIA'
p2973
a(lp2974
S'How'
p2975
aS'many'
p2976
aS'of'
p2977
aS'you'
p2978
aS'already'
p2979
aS'know'
p2980
aS'the'
p2981
aS'story'
p2982
aS'the'
p2983
aS'frog'
p2984
aS'prince'
p2985
aaa(lp2986
g2973
a(lp2987
S'The'
p2988
aS'frog'
p2989
aS'prince'
p2990
aaa(lp2991
g2973
a(lp2992
S'the'
p2993
aS'prince'
p2994
aS'who'
p2995
aS'is'
p2996
aaa(lp2997
g2973
a(lp2998
S'turned'
p2999
aS'into'
p3000
ag42
aS'frog'
p3001
aS'by'
p3002
ag42
aS'witch'
p3003
aaa(lp3004
g2973
a(lp3005
S'and'
p3006
aaa(lp3007
g2973
a(lp3008
S'and'
p3009
aS'then'
p3010
aaa(lp3011
g2973
a(lp3012
S'in'
p3013
aS'order'
p3014
aS'to'
p3015
aaa(lp3016
S'AUD'
p3017
a(lp3018
aa(lp3019
S'AUD_'
p3020
a(lp3021
aa(lp3022
S'CYNTHIAIs'
p3023
a(lp3024
S'it'
p3025
aS'reminding'
p3026
aS'you'
p3027
aS'of'
p3028
aS'someone'
p3029
aS'you'
p3030
aS'know'
p3031
aaa(lp3032
S'MANY'
p3033
a(lp3034
aa(lp3035
S'CYNTHIAI'
p3036
a(lp3037
S'h'
p3038
aaa(lp3039
g3036
a(lp3040
S'Um'
p3041
aaa(lp3042
S'AUD'
p3043
a(lp3044
aa(lp3045
S'CYNTHIAand'
p3046
a(lp3047
S'then'
p3048
aS'in'
p3049
aS'order'
p3050
aS'to'
p3051
aS'regain'
p3052
aS'his'
p3053
aS'form'
p3054
aaa(lp3055
g3046
a(lp3056
S'he'
p3057
aS'has'
p3058
aS'to'
p3059
aaa(lp3060
g3046
a(lp3061
S'be'
p3062
aS'kissed'
p3063
aS'by'
p3064
ag42
aS'beautiful'
p3065
aS'princess'
p3066
aaa(lp3067
g3046
a(lp3068
S'Youve'
p3069
aS'all'
p3070
aS'heard'
p3071
aS'that'
p3072
aS'story'
p3073
aS'Im'
p3074
aS'sure'
p3075
aaa(lp3076
g3046
a(lp3077
S'Well'
p3078
aaa(lp3079
S'AUD'
p3080
a(lp3081
aa(lp3082
S'CYNTHIAthis'
p3083
a(lp3084
S'is'
p3085
aS'the'
p3086
aS'story'
p3087
aS'of'
p3088
aS'the'
p3089
aS'other'
p3090
aS'frog'
p3091
aS'prince'
p3092
aaa(lp3093
S'AUD'
p3094
a(lp3095
aa(lp3096
S'CYNTHIA'
p3097
a(lp3098
S'It'
p3099
aS'was'
p3100
ag42
aS'beautiful'
p3101
aS'day'
p3102
aS'at'
p3103
aS'the'
p3104
aS'pond'
p3105
aaa(lp3106
S'AUD'
p3107
a(lp3108
aa(lp3109
S'CYNTHIA'
p3110
a(lp3111
S'But'
p3112
aS'the'
p3113
aS'frog'
p3114
aS'prince'
p3115
aaa(lp3116
g3110
a(lp3117
S'who'
p3118
aS'was'
p3119
aS'sitting'
p3120
aS'on'
p3121
aS'his'
p3122
aS'lily'
p3123
aS'pad'
p3124
aS'in'
p3125
aS'the'
p3126
aS'middle'
p3127
aS'of'
p3128
aS'the'
p3129
aS'pond'
p3130
aaa(lp3131
g3110
a(lp3132
S'huh'
p3133
aaa(lp3134
g3110
a(lp3135
S'was'
p3136
aS'he'
p3137
aS'lonely'
p3138
aaa(lp3139
g3110
a(lp3140
g19
aS'mean'
p3141
aS'the'
p3142
aS'MRC'
p3143
aS'birds'
p3144
aS'were'
p3145
aS'flying'
p3146
aS'above'
p3147
aS'him'
p3148
aaa(lp3149
g3110
a(lp3150
S'the'
p3151
aS'fish'
p3152
aS'were'
p3153
aS'swimming'
p3154
aS'below'
p3155
aS'him'
p3156
aaa(lp3157
g3110
a(lp3158
S'but'
p3159
aS'no'
p3160
aS'one'
p3161
aS'was'
p3162
aS'paying'
p3163
ag42
aS'bit'
p3164
aS'of'
p3165
aS'attention'
p3166
aS'to'
p3167
aS'him'
p3168
aS'MRC'
p3169
aaa(lp3170
g3110
a(lp3171
S'VOX'
p3172
aS'When'
p3173
aS'VOX'
p3174
aaa(lp3175
g3110
a(lp3176
S'who'
p3177
aS'should'
p3178
aS'he'
p3179
aS'see'
p3180
aaa(lp3181
g3110
a(lp3182
S'walking'
p3183
aS'along'
p3184
aS'the'
p3185
aS'path'
p3186
aS'with'
p3187
ag42
aS'book'
p3188
aS'under'
p3189
aS'her'
p3190
aS'arm'
p3191
aaa(lp3192
g3110
a(lp3193
S'but'
p3194
ag559
aS'the'
p3195
aS'most'
p3196
aS'beautiful'
p3197
aS'princess'
p3198
aS'he'
p3199
aS'had'
p3200
aS'ever'
p3201
aS'seen'
p3202
ag559
aaa(lp3203
g3110
a(lp3204
S'VOX'
p3205
aS'Well'
p3206
aS'uh'
p3207
aaa(lp3208
g3110
a(lp3209
S'finally'
p3210
ag42
aS'little'
p3211
aS'company'
p3212
aS'VOX'
p3213
aaa(lp3214
g3110
a(lp3215
S'He'
p3216
aS'said'
p3217
aS'to'
p3218
aS'himself'
p3219
aaa(lp3220
S'AUD'
p3221
a(lp3222
aa(lp3223
S'CYNTHIA'
p3224
a(lp3225
S'And'
p3226
aS'he'
p3227
aS'took'
p3228
aS'off'
p3229
aS'his'
p3230
aS'little'
p3231
aS'gold'
p3232
aS'crown'
p3233
aaa(lp3234
g3224
a(lp3235
S'put'
p3236
aS'it'
p3237
aS'next'
p3238
aS'to'
p3239
aS'him'
p3240
aS'on'
p3241
aS'the'
p3242
aS'lily'
p3243
aS'pad'
p3244
aaa(lp3245
g3224
a(lp3246
S'hopped'
p3247
aS'into'
p3248
aS'the'
p3249
aS'water'
p3250
aaa(lp3251
g3224
a(lp3252
S'and'
p3253
aS'swam'
p3254
aS'across'
p3255
aaa(lp3256
g3224
a(lp3257
S'poking'
p3258
aS'his'
p3259
aS'little'
p3260
aS'head'
p3261
aS'up'
p3262
aS'through'
p3263
aS'the'
p3264
aS'reeds'
p3265
aaa(lp3266
g3224
a(lp3267
S'VOX'
p3268
aS'Oh'
p3269
aS'uh'
p3270
aaa(lp3271
g3224
a(lp3272
S'pardon'
p3273
aS'me'
p3274
aaa(lp3275
g3224
a(lp3276
S'Beautiful'
p3277
aS'princess'
p3278
aS'VOX'
p3279
aaa(lp3280
g3224
a(lp3281
S'he'
p3282
aS'said'
p3283
aS'in'
p3284
aS'his'
p3285
aS'most'
p3286
aS'pitiful'
p3287
aS'and'
p3288
aS'pathetic'
p3289
aS'voice'
p3290
aaa(lp3291
g3224
a(lp3292
S'VOX'
p3293
aS'But'
p3294
aS'uh'
p3295
aaa(lp3296
S'AUD'
p3297
a(lp3298
aa(lp3299
S'CYNTHIAI'
p3300
a(lp3301
S'was'
p3302
aS'wondering'
p3303
aS'if'
p3304
aaa(lp3305
g3300
a(lp3306
S'if'
p3307
aS'you'
p3308
aS'could'
p3309
aS'help'
p3310
aS'me'
p3311
aS'VOX'
p3312
aaa(lp3313
g3300
a(lp3314
S'Well'
p3315
aaa(lp3316
g3300
a(lp3317
S'the'
p3318
aS'princess'
p3319
aS'was'
p3320
aS'quite'
p3321
aS'surprised'
p3322
aS'to'
p3323
aS'be'
p3324
aS'spoken'
p3325
aS'to'
p3326
aS'by'
p3327
ag42
aS'frog'
p3328
aaa(lp3329
g3300
a(lp3330
S'but'
p3331
aS'she'
p3332
aS'felt'
p3333
aS'so'
p3334
aS'sorry'
p3335
aS'for'
p3336
aS'his'
p3337
aS'pitiful'
p3338
aS'and'
p3339
aS'pathetic'
p3340
aS'voice'
p3341
aaa(lp3342
g3300
a(lp3343
S'that'
p3344
aS'she'
p3345
aS'said'
p3346
aaa(lp3347
g3300
a(lp3348
S'VOX'
p3349
aS'Why'
p3350
aaa(lp3351
g3300
a(lp3352
S'you'
p3353
aS'dear'
p3354
aS'little'
p3355
aS'frog'
p3356
aaa(lp3357
g3300
a(lp3358
S'Whatever'
p3359
aS'can'
p3360
ag19
aS'can'
p3361
ag19
aS'do'
p3362
aS'to'
p3363
aS'help'
p3364
aS'you'
p3365
aS'VOX'
p3366
aaa(lp3367
g3300
a(lp3368
S'And'
p3369
aS'he'
p3370
aS'said'
p3371
aaa(lp3372
g3300
a(lp3373
S'VOX'
p3374
aS'Oh'
p3375
aaa(lp3376
g3300
a(lp3377
S'well'
p3378
aS'you'
p3379
aS'see'
p3380
aaa(lp3381
g3300
a(lp3382
g19
aS'am'
p3383
aS'not'
p3384
aS'really'
p3385
ag42
aS'frog'
p3386
aaa(lp3387
g3300
a(lp3388
g19
aS'am'
p3389
aS'really'
p3390
ag42
aS'handsome'
p3391
aS'prince'
p3392
aaa(lp3393
g3300
a(lp3394
S'Who'
p3395
aS'has'
p3396
aS'been'
p3397
aS'turned'
p3398
aS'into'
p3399
ag42
aS'frog'
p3400
aS'by'
p3401
aaa(lp3402
g3300
a(lp3403
S'the'
p3404
aS'spell'
p3405
aS'of'
p3406
ag42
aS'wicked'
p3407
aS'witch'
p3408
aaa(lp3409
g3300
a(lp3410
S'And'
p3411
aS'in'
p3412
aS'order'
p3413
aS'to'
p3414
aS'break'
p3415
aS'the'
p3416
aS'spell'
p3417
aaa(lp3418
g3300
a(lp3419
g19
aS'must'
p3420
aS'be'
p3421
aS'kissed'
p3422
aaa(lp3423
g3300
a(lp3424
S'by'
p3425
aaa(lp3426
g3300
a(lp3427
g42
aS'beautiful'
p3428
aS'princess'
p3429
aS'VOX'
p3430
aaa(lp3431
g3300
a(lp3432
S'Well'
p3433
aaa(lp3434
g3300
a(lp3435
g559
aS'somehow'
p3436
aS'the'
p3437
aS'princess'
p3438
aaa(lp3439
g3300
a(lp3440
S'had'
p3441
aS'the'
p3442
aS'feeling'
p3443
aS'that'
p3444
aS'he'
p3445
aS'was'
p3446
aS'gonna'
p3447
aS'say'
p3448
aS'that'
p3449
ag559
aaa(lp3450
S'AUD'
p3451
a(lp3452
aa(lp3453
S'CYNTHIAL'
p3454
a(lp3455
S'but'
p3456
aS'she'
p3457
aS'looked'
p3458
aS'down'
p3459
aS'at'
p3460
aS'him'
p3461
aaa(lp3462
g3454
a(lp3463
S'and'
p3464
aS'felt'
p3465
aS'so'
p3466
aS'sorry'
p3467
aS'for'
p3468
aS'him'
p3469
ag559
aaa(lp3470
g3454
a(lp3471
S'and'
p3472
aS'she'
p3473
aS'thought'
p3474
aaa(lp3475
g3454
a(lp3476
S'VOX'
p3477
aS'Well'
p3478
aaa(lp3479
g3454
a(lp3480
S'What'
p3481
aS'do'
p3482
ag19
aS'have'
p3483
aS'to'
p3484
aS'lose'
p3485
aS'VOX'
p3486
aaa(lp3487
g3454
a(lp3488
S'VOX'
p3489
aS'And'
p3490
aS'so'
p3491
aS'VOX'
p3492
aaa(lp3493
g3454
a(lp3494
S'she'
p3495
aS'reached'
p3496
aS'down'
p3497
aaa(lp3498
g3454
a(lp3499
S'And'
p3500
aS'she'
p3501
aS'picked'
p3502
aS'him'
p3503
aS'up'
p3504
aaa(lp3505
g3454
a(lp3506
S'and'
p3507
aS'she'
p3508
aS'brought'
p3509
aS'him'
p3510
aS'MRC'
p3511
aS'right'
p3512
aS'up'
p3513
aS'close'
p3514
aS'to'
p3515
aS'her'
p3516
aS'face'
p3517
aS'MRC'
p3518
aaa(lp3519
g3454
a(lp3520
S'and'
p3521
aS'she'
p3522
aS'closed'
p3523
aS'her'
p3524
aS'eyes'
p3525
aaa(lp3526
S'AUD'
p3527
a(lp3528
aa(lp3529
S'CYNTHIA'
p3530
a(lp3531
S'and'
p3532
aS'she'
p3533
aS'gave'
p3534
aS'him'
p3535
aaa(lp3536
g3530
a(lp3537
g42
aS'great'
p3538
aS'big'
p3539
aS'kiss'
p3540
aaa(lp3541
g3530
a(lp3542
S'Do'
p3543
aS'you'
p3544
aS'wanna'
p3545
aS'help'
p3546
aS'me'
p3547
aS'make'
p3548
aS'kiss'
p3549
aS'sounds'
p3550
aaa(lp3551
g3530
a(lp3552
S'Okay'
p3553
aaa(lp3554
g3530
a(lp3555
S'here'
p3556
aS'we'
p3557
aS'go'
p3558
aaa(lp3559
S'MANY'
p3560
a(lp3561
aa(lp3562
S'CYNTHIA'
p3563
a(lp3564
S'But'
p3565
aS'when'
p3566
aS'she'
p3567
aS'opened'
p3568
aS'her'
p3569
aS'eyes'
p3570
aaa(lp3571
g3563
a(lp3572
S'She'
p3573
aS'was'
p3574
aS'surprised'
p3575
aS'to'
p3576
aS'see'
p3577
aaa(lp3578
g3563
a(lp3579
S'the'
p3580
aS'frog'
p3581
aaa(lp3582
g3563
a(lp3583
S'still'
p3584
aS'sitting'
p3585
aS'there'
p3586
aaa(lp3587
S'MANY'
p3588
a(lp3589
aa(lp3590
S'CYNTHIA'
p3591
a(lp3592
S'With'
p3593
ag42
aS'great'
p3594
aS'big'
p3595
aS'smile'
p3596
aaa(lp3597
S'MANY'
p3598
a(lp3599
aa(lp3600
S'CYNTHIAOn'
p3601
a(lp3602
S'his'
p3603
aS'face'
p3604
aaa(lp3605
S'MANY'
p3606
a(lp3607
aa(lp3608
S'CYNTHIA'
p3609
a(lp3610
S'And'
p3611
aS'he'
p3612
aS'said'
p3613
aaa(lp3614
g3609
a(lp3615
S'VOX'
p3616
aS'nice'
p3617
aS'kiss'
p3618
aS'sweetie'
p3619
aaa(lp3620
g3609
a(lp3621
g19
aS'was'
p3622
aS'just'
p3623
aS'kidding'
p3624
aS'about'
p3625
aS'the'
p3626
aS'prince'
p3627
aS'part'
p3628
aaa(lp3629
S'MANY'
p3630
a(lp3631
aa(lp3632
S'CYNTHIATa'
p3633
a(lp3634
S'ta'
p3635
aS'VOX'
p3636
aaa(lp3637
g3633
a(lp3638
S'and'
p3639
aS'he'
p3640
aS'hopped'
p3641
aS'into'
p3642
aS'the'
p3643
aS'water'
p3644
aaa(lp3645
S'MANY'
p3646
a(lp3647
aa(lp3648
S'CYNTHIA'
p3649
a(lp3650
S'And'
p3651
aS'she'
p3652
aS'wiped'
p3653
aS'the'
p3654
aS'frog'
p3655
aS'slime'
p3656
aaa(lp3657
S'MANY'
p3658
a(lp3659
aa(lp3660
S'CYNTHIAoff'
p3661
a(lp3662
S'her'
p3663
aS'lips'
p3664
aaa(lp3665
g3661
a(lp3666
S'VOX'
p3667
aS'Ugh'
p3668
aS'VOX'
p3669
aaa(lp3670
g3661
a(lp3671
S'And'
p3672
aS'thats'
p3673
aS'the'
p3674
aS'story'
p3675
aS'of'
p3676
aS'the'
p3677
aS'other'
p3678
aS'frog'
p3679
aS'prince'
p3680
aaa(lp3681
S'MANY'
p3682
a(lp3683
aa(lp3684
S'CYNTHIAThank'
p3685
a(lp3686
S'you'
p3687
aS'very'
p3688
aS'much'
p3689
aaa(lp3690
g3685
a(lp3691
S'Um'
p3692
aaa(lp3693
g3685
a(lp3694
S'there'
p3695
aS'are'
p3696
ag42
aS'couple'
p3697
aS'of'
p3698
aS'other'
p3699
aS'storytelling'
p3700
aS'events'
p3701
aaa(lp3702
g3685
a(lp3703
S'that'
p3704
aS'Id'
p3705
aS'just'
p3706
aS'like'
p3707
aS'to'
p3708
aS'share'
p3709
aS'with'
p3710
aS'you'
p3711
aaa(lp3712
g3685
a(lp3713
S'one'
p3714
aS'is'
p3715
aS'in'
p3716
aS'Elgin'
p3717
aS'tomorrow'
p3718
aS'evening'
p3719
aaa(lp3720
g3685
a(lp3721
S'Jim'
p3722
aS'May'
p3723
aS'is'
p3724
aS'going'
p3725
aS'to'
p3726
aS'be'
p3727
aaa(lp3728
g3685
a(lp3729
S'um'
p3730
aaa(lp3731
g3685
a(lp3732
S'doing'
p3733
aS'some'
p3734
aS'stories'
p3735
aaa(lp3736
g3685
a(lp3737
S'uh'
p3738
aaa(lp3739
g3685
a(lp3740
S'for'
p3741
ag42
aS'church'
p3742
aS'group'
p3743
aS'there'
p3744
aaa(lp3745
g3685
a(lp3746
S'and'
p3747
aS'you'
p3748
aaa(lp3749
g3685
a(lp3750
S'Its'
p3751
ag42
aS'public'
p3752
aS'uh'
p3753
aS'occasion'
p3754
aaa(lp3755
g3685
a(lp3756
S'and'
p3757
aS'youd'
p3758
aS'all'
p3759
aS'be'
p3760
aS'welcome'
p3761
aaa(lp3762
g3685
a(lp3763
S'Ill'
p3764
aS'leave'
p3765
aS'some'
p3766
aS'fliers'
p3767
aS'for'
p3768
aS'you'
p3769
aS'here'
p3770
aS'if'
p3771
aS'youd'
p3772
aS'like'
p3773
aS'them'
p3774
aaa(lp3775
g3685
a(lp3776
S'And'
p3777
aS'uh'
p3778
aS'next'
p3779
aS'Saturday'
p3780
aaa(lp3781
g3685
a(lp3782
S'at'
p3783
aS'the'
p3784
aS'McHenry'
p3785
aS'County'
p3786
aS'Conservation'
p3787
aS'District'
p3788
aaa(lp3789
g3685
a(lp3790
S'which'
p3791
aS'isnt'
p3792
aS'really'
p3793
aS'all'
p3794
aS'that'
p3795
aS'far'
p3796
aaa(lp3797
g3685
a(lp3798
S'Um'
p3799
aaa(lp3800
g3685
a(lp3801
S'Rosalee'
p3802
aS'Sorrells'
p3803
aaa(lp3804
g3685
a(lp3805
S'who'
p3806
aS'is'
p3807
ag42
aS'wellknown'
p3808
aS'folk'
p3809
aS'singer'
p3810
aS'and'
p3811
aS'storyteller'
p3812
aaa(lp3813
g3685
a(lp3814
S'will'
p3815
aS'be'
p3816
aS'doing'
p3817
ag42
aS'program'
p3818
aaa(lp3819
g3685
a(lp3820
S'and'
p3821
aaa(lp3822
g3685
a(lp3823
S'at'
p3824
aS'seventhirty'
p3825
aaa(lp3826
g3685
a(lp3827
S'and'
p3828
aS'youd'
p3829
aS'all'
p3830
aS'be'
p3831
aS'welcome'
p3832
aS'to'
p3833
aS'come'
p3834
aaa(lp3835
g3685
a(lp3836
S'Wed'
p3837
aS'love'
p3838
aS'to'
p3839
aS'have'
p3840
aS'you'
p3841
aS'there'
p3842
aaa(lp3843
g3685
a(lp3844
S'So'
p3845
ag19
aS'thank'
p3846
aS'you'
p3847
aS'very'
p3848
aS'much'
p3849
aaa(lp3850
g3685
a(lp3851
S'if'
p3852
aS'any'
p3853
aS'of'
p3854
aS'you'
p3855
aS'have'
p3856
aS'occasions'
p3857
aS'to'
p3858
aS'use'
p3859
aS'storytellers'
p3860
aaa(lp3861
g3685
a(lp3862
S'Id'
p3863
aS'be'
p3864
aS'happy'
p3865
aS'to'
p3866
aS'talk'
p3867
aS'with'
p3868
aS'you'
p3869
aaa(lp3870
g3685
a(lp3871
S'or'
p3872
aS'to'
p3873
aS'find'
p3874
aS'you'
p3875
aS'an'
p3876
aS'appropriate'
p3877
aS'storyteller'
p3878
aS'for'
p3879
aaa(lp3880
g3685
a(lp3881
S'any'
p3882
aS'other'
p3883
aS'group'
p3884
aS'you'
p3885
aS'might'
p3886
aS'belong'
p3887
aS'to'
p3888
aaa(lp3889
g3685
a(lp3890
S'Thank'
p3891
aS'you'
p3892
aS'very'
p3893
aS'much'
p3894
aaa(lp3895
S'MANY'
p3896
a(lp3897
aa(lp3898
S'CYNTHIAYou'
p3899
a(lp3900
S'guys'
p3901
aS'are'
p3902
aS'awesome'
p3903
aaa(lp3904
g3899
a(lp3905
S'What'
p3906
ag42
aS'great'
p3907
aS'audience'
p3908
aaa.