(lp0
(lp1
S'FRAN'
p2
a(lp3
S'Well'
p4
aS'I'
p5
aS'went'
p6
aS'to'
p7
aS'this'
p8
aS'church'
p9
aaa(lp10
g2
a(lp11
S'and'
p12
aS'this'
p13
aS'is'
p14
aS'very'
p15
aS'interesting'
p16
aaa(lp17
S'SEAN'
p18
a(lp19
S'This'
p20
aS'is'
p21
aS'in'
p22
aS'Meridia'
p23
aaa(lp24
S'FRAN'
p25
a(lp26
S'Merida'
p27
aaa(lp28
S'SEAN'
p29
a(lp30
S'Merida'
p31
aaa(lp32
S'FRAN'
p33
a(lp34
S'In'
p35
aS'the'
p36
aS'Yucatan'
p37
aaa(lp38
S'SEAN'
p39
a(lp40
S'Thats'
p41
aS'right'
p42
aaa(lp43
S'FRAN'
p44
a(lp45
S'And'
p46
aS'its'
p47
aS'lovely'
p48
aaa(lp49
g44
a(lp50
S'The'
p51
aS'people'
p52
aS'are'
p53
aS'sweet'
p54
aS'and'
p55
aS'nice'
p56
aaa(lp57
g44
a(lp58
S'theyre'
p59
aS'little'
p60
aaa(lp61
g44
a(lp62
S'theyre'
p63
aS'dark'
p64
aaa(lp65
g44
a(lp66
S'they'
p67
aS'all'
p68
aS'wear'
p69
aS'white'
p70
aaa(lp71
g44
a(lp72
S'and'
p73
aS'the'
p74
aS'city'
p75
aS'is'
p76
aS'quite'
p77
aS'nice'
p78
aaa(lp79
g44
a(lp80
S'Its'
p81
aS'a'
p82
aS'very'
p83
aS'manageable'
p84
aS'size'
p85
aaa(lp86
g44
a(lp87
S'Merida'
p88
aaa(lp89
g44
a(lp90
S'You'
p91
aS'can'
p92
aaa(lp93
S'SEAN'
p94
a(lp95
S'Unhunh'
p96
aaa(lp97
S'FRAN'
p98
a(lp99
S'You'
p100
aS'know'
p101
aaa(lp102
g98
a(lp103
S'walk'
p104
aS'around'
p105
ag82
aS'lot'
p106
aaa(lp107
S'SEAN'
p108
a(lp109
S'Walk'
p110
aS'everywhere'
p111
aaa(lp112
S'FRAN'
p113
a(lp114
S'and'
p115
aaa(lp116
g113
a(lp117
S'you'
p118
aS'know'
p119
aaa(lp120
g113
a(lp121
S'i'
p122
ag122
aS'its'
p123
aS'really'
p124
aS'lovely'
p125
aaa(lp126
g113
a(lp127
S'And'
p128
aaa(lp129
g113
a(lp130
S'uh'
p131
aaa(lp132
g113
a(lp133
S'anyway'
p134
ag5
aS'wen'
p135
aaa(lp136
g113
a(lp137
S'And'
p138
aS'th'
p139
aaa(lp140
g113
a(lp141
S'And'
p142
aS'the'
p143
aS'twine'
p144
aS'makers'
p145
aaa(lp146
g113
a(lp147
S'the'
p148
aS'jute'
p149
aS'industry'
p150
aS'was'
p151
aS'very'
p152
aS'big'
p153
aS'there'
p154
aS'at'
p155
aS'one'
p156
aS'time'
p157
aaa(lp158
g113
a(lp159
S'And'
p160
aS'the'
p161
aS'cemetery'
p162
aaa(lp163
g113
a(lp164
S'theres'
p165
ag82
aaa(lp166
g113
a(lp167
S'there'
p168
aS'was'
p169
aaa(lp170
g113
a(lp171
g5
aS'dont'
p172
aS'know'
p173
aS'if'
p174
aS'it'
p175
aS'was'
p176
aS'called'
p177
ag82
aS'labor'
p178
aS'union'
p179
aaa(lp180
g113
a(lp181
S'But'
p182
aS'some'
p183
aS'kind'
p184
aS'of'
p185
aS'association'
p186
aaa(lp187
g113
a(lp188
S'Uh'
p189
aaa(lp190
g113
a(lp191
S'of'
p192
aS'twine'
p193
aS'makers'
p194
aaa(lp195
g113
a(lp196
S'Were'
p197
aaa(lp198
g113
a(lp199
S'uh'
p200
aaa(lp201
g113
a(lp202
S'buried'
p203
aS'together'
p204
aaa(lp205
g113
a(lp206
S'they'
p207
aS'had'
p208
ag82
aS'section'
p209
aS'in'
p210
aS'the'
p211
aS'cemetery'
p212
aaa(lp213
g113
a(lp214
S'And'
p215
aS'carved'
p216
aS'in'
p217
aS'marble'
p218
aaa(lp219
g113
a(lp220
S'and'
p221
aS'then'
p222
aS'painted'
p223
aS'garish'
p224
aS'colors'
p225
aaa(lp226
g113
a(lp227
S'like'
p228
aS'aqua'
p229
aaa(lp230
g113
a(lp231
S'and'
p232
aS'yellow'
p233
aaa(lp234
g113
a(lp235
S'and'
p236
aS'everything'
p237
aaa(lp238
g113
a(lp239
S'But'
p240
aS'carved'
p241
aS'in'
p242
aS'stone'
p243
aS'is'
p244
aS'these'
p245
aS'ropes'
p246
aaa(lp247
g113
a(lp248
S'all'
p249
aS'around'
p250
aS'the'
p251
aaa(lp252
g113
a(lp253
S'the'
p254
aS'various'
p255
aS'graves'
p256
aaa(lp257
g113
a(lp258
S'and'
p259
aS'great'
p260
aS'knots'
p261
aS'and'
p262
aS'things'
p263
aaa(lp264
g113
a(lp265
S'And'
p266
aaa(lp267
g113
a(lp268
S'But'
p269
aS'it'
p270
aS'all'
p271
aS'carved'
p272
aS'in'
p273
aS'stone'
p274
aaa(lp275
g113
a(lp276
S'and'
p277
aS'then'
p278
aS'painted'
p279
aaa(lp280
g113
a(lp281
S'your'
p282
aS'basic'
p283
aS'Mexican'
p284
aS'house'
p285
aS'paint'
p286
aaa(lp287
g113
a(lp288
S'You'
p289
aS'know'
p290
aS'all'
p291
aS'those'
p292
aS'colors'
p293
aaa(lp294
S'SEAN'
p295
a(lp296
S'Yeah'
p297
aaa(lp298
S'FRAN'
p299
a(lp300
S'Yellow'
p301
aaa(lp302
S'SEAN'
p303
a(lp304
S'Nice'
p305
aS'bright'
p306
aaa(lp307
S'FRAN'
p308
a(lp309
S'and'
p310
aS'aqua'
p311
aaa(lp312
g308
a(lp313
S'and'
p314
aS'pink'
p315
aaa(lp316
g308
a(lp317
S'and'
p318
aaa(lp319
g308
a(lp320
S'you'
p321
aS'know'
p322
aaa(lp323
S'SEAN'
p324
a(lp325
S'Nice'
p326
aS'bright'
p327
aS'colors'
p328
aaa(lp329
S'FRAN'
p330
a(lp331
S'green'
p332
aaa(lp333
g330
a(lp334
S'you'
p335
aS'know'
p336
aS'that'
p337
aS'green'
p338
aaa(lp339
S'SEAN'
p340
a(lp341
aa(lp342
S'FRAN'
p343
a(lp344
S'And'
p345
aaa(lp346
g343
a(lp347
S'its'
p348
ag82
aS'wonderful'
p349
aS'place'
p350
aaa(lp351
S'ALICE'
p352
a(lp353
S'Celandine'
p354
aaa(lp355
S'SEAN'
p356
a(lp357
S'Indian'
p358
aS'Indian'
p359
aS'colors'
p360
aaa(lp361
S'FRAN'
p362
a(lp363
S'The'
p364
aS'cemetery'
p365
aaa(lp366
g362
a(lp367
S'But'
p368
aS'the'
p369
aaa(lp370
g362
a(lp371
S'But'
p372
aS'this'
p373
aaa(lp374
g362
a(lp375
S'Where'
p376
aS'now'
p377
aS'is'
p378
aS'this'
p379
aS'church'
p380
aaa(lp381
S'SEAN'
p382
a(lp383
S'celandine'
p384
aaa(lp385
S'BERNARD'
p386
a(lp387
S'not'
p388
aS'celandine'
p389
aaa(lp390
g386
a(lp391
S'No'
p392
aS'thats'
p393
aS'Ch'
p394
aaa(lp395
S'FRAN'
p396
a(lp397
S'that'
p398
aS'was'
p399
aS'built'
p400
aS'from'
p401
aS'the'
p402
aaa(lp403
S'SEAN'
p404
a(lp405
S'much'
p406
aS'too'
p407
aS'subtle'
p408
aaa(lp409
S'ALICE'
p410
a(lp411
S'darn'
p412
aaa(lp413
S'BERNARD'
p414
a(lp415
S'Thats'
p416
aS'f'
p417
aS'China'
p418
aaa(lp419
S'FRAN'
p420
a(lp421
S'uh'
p422
aaa(lp423
g420
a(lp424
S'stones'
p425
aS'of'
p426
aS'the'
p427
aS'temple'
p428
aaa(lp429
S'BERNARD'
p430
a(lp431
aa(lp432
S'FRAN'
p433
a(lp434
S'by'
p435
aS'this'
p436
aS'p'
p437
aS't'
p438
aaa(lp439
S'ALICE'
p440
a(lp441
S'Modern'
p442
aaa(lp443
S'FRAN'
p444
a(lp445
S'this'
p446
aS'same'
p447
aS'priest'
p448
aaa(lp449
S'SEAN'
p450
a(lp451
S'Mhm'
p452
aaa(lp453
S'BERNARD'
p454
a(lp455
aa(lp456
S'FRAN'
p457
a(lp458
S'and'
p459
aS'is'
p460
aaa(lp461
g457
a(lp462
S'A'
p463
aaa(lp464
g457
a(lp465
S'there'
p466
aaa(lp467
g457
a(lp468
S'There'
p469
aS'was'
p470
ag82
aS'tree'
p471
aaa(lp472
g457
a(lp473
S'that'
p474
aS'burned'
p475
aS'all'
p476
aS'night'
p477
aaa(lp478
g457
a(lp479
S'and'
p480
aS'never'
p481
aaa(lp482
g457
a(lp483
S'And'
p484
aS'and'
p485
aS'wasnt'
p486
aS'consumed'
p487
aS'by'
p488
aS'the'
p489
aS'flame'
p490
aaa(lp491
g457
a(lp492
S'and'
p493
aS'the'
p494
aS'trees'
p495
aS'still'
p496
aS'there'
p497
aaa(lp498
g457
a(lp499
S'and'
p500
aS'they'
p501
aaa(lp502
g457
a(lp503
S'Its'
p504
aaa(lp505
g457
a(lp506
S'you'
p507
aS'know'
p508
aaa(lp509
g457
a(lp510
g122
aS'its'
p511
aS'fenced'
p512
aaa(lp513
g457
a(lp514
S'and'
p515
aS'people'
p516
aS'say'
p517
aaa(lp518
g457
a(lp519
S'this'
p520
aS'is'
p521
aS'the'
p522
aS'tree'
p523
aaa(lp524
g457
a(lp525
S'and'
p526
aS'there'
p527
aS'are'
p528
aS'several'
p529
aS'things'
p530
aS'around'
p531
aS'this'
p532
aS'big'
p533
aS'square'
p534
aaa(lp535
S'ALICE'
p536
a(lp537
S'Oh'
p538
aaa(lp539
g536
a(lp540
S'mythologys'
p541
aS'so'
p542
aS'great'
p543
aaa(lp544
S'FRAN'
p545
a(lp546
S'and'
p547
aaa(lp548
S'ALICE'
p549
a(lp550
S'Thats'
p551
aS'what'
p552
aS'were'
p553
aS'doing'
p554
aaa(lp555
g549
a(lp556
S'were'
p557
aS'making'
p558
aS'our'
p559
aS'own'
p560
aS'up'
p561
aS'right'
p562
aS'now'
p563
aaa(lp564
S'FRAN'
p565
a(lp566
S'you'
p567
aS'know'
p568
aS'whats'
p569
aS'right'
p570
aS'there'
p571
aaa(lp572
S'ALICE'
p573
a(lp574
S'WH'
p575
aS'With'
p576
aS'our'
p577
aS'little'
p578
aS'tape'
p579
aS'recorder'
p580
aS'WH'
p581
aaa(lp582
S'FRAN'
p583
a(lp584
S'An'
p585
aS'AA'
p586
aS'uh'
p587
aS'meeting'
p588
aS'place'
p589
aaa(lp590
g583
a(lp591
S'And'
p592
aS'painted'
p593
aaa(lp594
S'SEAN'
p595
a(lp596
S'Ah'
p597
aaa(lp598
S'FRAN'
p599
a(lp600
S'on'
p601
aS'the'
p602
aS'door'
p603
aS'of'
p604
aS'this'
p605
aS'little'
p606
aS'shacky'
p607
aS'building'
p608
aaa(lp609
g599
a(lp610
S'its'
p611
ag82
aaa(lp612
g599
a(lp613
g463
aS'all'
p614
aS'around'
p615
aS'this'
p616
aS'big'
p617
aS'square'
p618
aaa(lp619
g599
a(lp620
S'there'
p621
aS'are'
p622
aS'these'
p623
aS'kinda'
p624
aS'beatup'
p625
aS'little'
p626
aS'buildings'
p627
aaa(lp628
g599
a(lp629
S'And'
p630
aaa(lp631
g599
a(lp632
S'painted'
p633
aS'on'
p634
aS'one'
p635
aaa(lp636
g599
a(lp637
g82
aS'big'
p638
aaa(lp639
g599
a(lp640
S'the'
p641
aS'circle'
p642
aS'with'
p643
aS'the'
p644
aS'triangle'
p645
aS'inside'
p646
aaa(lp647
g599
a(lp648
S'And'
p649
ag5
aS'looked'
p650
aaa(lp651
g599
a(lp652
S'and'
p653
ag5
aS'said'
p654
aaa(lp655
g599
a(lp656
S'VOX'
p657
aS'God'
p658
aaa(lp659
g599
a(lp660
S'is'
p661
aS'that'
p662
aS'what'
p663
ag5
aS'think'
p664
aS'it'
p665
aS'is'
p666
aS'VOX'
p667
aaa(lp668
g599
a(lp669
S'And'
p670
ag5
aS'walked'
p671
aS'over'
p672
aaa(lp673
g599
a(lp674
S'and'
p675
aS'there'
p676
aS'it'
p677
aS'was'
p678
aaa(lp679
g599
a(lp680
S'in'
p681
aS'Spanish'
p682
aaa(lp683
g599
a(lp684
S'and'
p685
aS'the'
p686
aS'meeting'
p687
aS'schedule'
p688
aS'was'
p689
aS'painted'
p690
aS'on'
p691
aS'the'
p692
aS'wall'
p693
aS'and'
p694
aS'everything'
p695
aaa(lp696
g599
a(lp697
S'and'
p698
aS'its'
p699
aS'right'
p700
aS'there'
p701
aS'by'
p702
aS'this'
p703
aS'most'
p704
aS'sacred'
p705
aS'site'
p706
aaa(lp707
S'ALICE'
p708
a(lp709
S'Did'
p710
aS'you'
p711
aS'go'
p712
aS'to'
p713
aS'that'
p714
aS'meeting'
p715
aS'Sean'
p716
aaa(lp717
S'BERNARD'
p718
a(lp719
S'Thats'
p720
aS'amazing'
p721
aaa(lp722
S'SEAN'
p723
a(lp724
S'Ive'
p725
aS'never'
p726
aS'been'
p727
aS'there'
p728
aaa(lp729
S'FRAN'
p730
a(lp731
S'Isnt'
p732
aS'that'
p733
aS'wonderful'
p734
aaa(lp735
S'ALICE'
p736
a(lp737
S'P'
p738
aS'Oh'
p739
aS'you'
p740
aS'werent'
p741
aaa(lp742
g736
a(lp743
S'Oh'
p744
ag738
aaa(lp745
S'SEAN'
p746
a(lp747
g738
aS'No'
p748
ag738
aaa(lp749
S'FRAN'
p750
a(lp751
S'It'
p752
aS'was'
p753
aS'great'
p754
aaa(lp755
S'BERNARD'
p756
a(lp757
S'That'
p758
aS'is'
p759
aaa(lp760
S'SEAN'
p761
a(lp762
g738
aS'Ive'
p763
aS'never'
p764
aS'been'
p765
aS'to'
p766
aS'Merida'
p767
ag738
aaa(lp768
S'FRAN'
p769
a(lp770
S'Yeah'
p771
aaa(lp772
S'BERNARD'
p773
a(lp774
S'Cause'
p775
aS'they'
p776
aS'have'
p777
ag82
aS'lot'
p778
aaa(lp779
S'FRAN'
p780
a(lp781
S'Right'
p782
aS'there'
p783
aS'by'
p784
aS'this'
p785
aS'sacred'
p786
aS'site'
p787
aaa(lp788
S'ALICE'
p789
a(lp790
g738
ag5
aS'thought'
p791
aS'you'
p792
aS'were'
p793
ag738
aaa(lp794
S'BERNARD'
p795
a(lp796
S'We'
p797
aS'were'
p798
aS'in'
p799
aS'Mexico'
p800
aS'City'
p801
aaa(lp802
S'SEAN'
p803
a(lp804
S'VOX'
p805
aS'No'
p806
aS'VOX'
p807
aaa(lp808
S'ALICE'
p809
a(lp810
S'HIX'
p811
aS'Really'
p812
aS'XHI'
p813
aaa(lp814
S'BERNARD'
p815
a(lp816
S'and'
p817
aS'it'
p818
aS'was'
p819
aS'hard'
p820
aS'to'
p821
aS'scrape'
p822
aS'up'
p823
ag82
aS'meeting'
p824
aaa(lp825
g815
a(lp826
S'It'
p827
aS'was'
p828
aS'mostly'
p829
aS'Americans'
p830
aaa(lp831
g815
a(lp832
S'that'
p833
aS'work'
p834
aS'for'
p835
aS'the'
p836
aaa(lp837
S'SEAN'
p838
a(lp839
g738
aS'Embassy'
p840
ag738
aaa(lp841
S'BERNARD'
p842
a(lp843
S'CIA'
p844
aS'or'
p845
aaa(lp846
g842
a(lp847
S'X'
p848
aS'Was'
p849
aaa(lp850
g842
a(lp851
S'We'
p852
aS'were'
p853
ag848
aaa(lp854
S'SEAN'
p855
a(lp856
S'Well'
p857
aS'no'
p858
aaa(lp859
g855
a(lp860
S'They'
p861
aaa(lp862
g855
a(lp863
S'In'
p864
aS'Mexico'
p865
aS'City'
p866
aaa(lp867
g855
a(lp868
S'there'
p869
aS'was'
p870
aS'always'
p871
ag82
aS'Mexican'
p872
aS'meeting'
p873
aS'going'
p874
aS'on'
p875
aaa(lp876
g855
a(lp877
S'same'
p878
aS'time'
p879
aS'as'
p880
aS'an'
p881
aS'American'
p882
aS'speak'
p883
aS'English'
p884
aS'speaking'
p885
aaa(lp886
g855
a(lp887
S'English'
p888
aS'speaking'
p889
aS'was'
p890
aS'upstairs'
p891
aaa(lp892
S'BERNARD'
p893
a(lp894
S'But'
p895
aS'its'
p896
aS'harder'
p897
aS'for'
p898
aS'them'
p899
aS'to'
p900
aS'be'
p901
aS'alcoholic'
p902
aaa(lp903
S'SEAN'
p904
a(lp905
S'and'
p906
aaa(lp907
g904
a(lp908
S'Spanish'
p909
aS'people'
p910
aS'were'
p911
aS'downstairs'
p912
aaa(lp913
S'FRAN'
p914
a(lp915
S'Why'
p916
aaa(lp917
g914
a(lp918
S'they'
p919
aS'cant'
p920
aS'find'
p921
aS'booze'
p922
aaa(lp923
g914
a(lp924
g5
aS'mean'
p925
aS'whats'
p926
aS'the'
p927
aS'problem'
p928
aaa(lp929
S'SEAN'
p930
a(lp931
S'No'
p932
aS'there'
p933
aaa(lp934
S'FRAN'
p935
a(lp936
aa(lp937
S'SEAN'
p938
a(lp939
S'there'
p940
aS'was'
p941
aS'always'
p942
aaa(lp943
S'BERNARD'
p944
a(lp945
S'No'
p946
aaa(lp947
g944
a(lp948
S'its'
p949
aS'th'
p950
aS'harder'
p951
aS'for'
p952
aS'th'
p953
aaa(lp954
g944
a(lp955
S'Uh'
p956
aS'supposedly'
p957
aS'its'
p958
aS'harder'
p959
aS'for'
p960
aS'them'
p961
aaa(lp962
g944
a(lp963
S'Its'
p964
aaa(lp965
g944
a(lp966
S'Its'
p967
aS'so'
p968
aS'like'
p969
aS'hard'
p970
ag122
aaa(lp971
S'FRAN'
p972
a(lp973
S'To'
p974
aaa(lp975
S'BERNARD'
p976
a(lp977
S'Its'
p978
aS'against'
p979
aS'their'
p980
aS'machismo'
p981
aS'to'
p982
aaa(lp983
S'FRAN'
p984
a(lp985
S'Oh'
p986
aS'of'
p987
aS'course'
p988
aaa(lp989
S'BERNARD'
p990
a(lp991
S'Machismo'
p992
aS'to'
p993
aS'be'
p994
aaa(lp995
S'ALICE'
p996
a(lp997
S'Y'
p998
aS'you'
p999
aS'know'
p1000
aaa(lp1001
g996
a(lp1002
S'at'
p1003
aS'at'
p1004
aS'gay'
p1005
aS'AA'
p1006
aS'meetings'
p1007
aaa(lp1008
g996
a(lp1009
S'do'
p1010
aS'they'
p1011
aS'have'
p1012
aS'signers'
p1013
aaa(lp1014
S'SEAN'
p1015
a(lp1016
S'Yes'
p1017
aaa(lp1018
S'BERNARD'
p1019
a(lp1020
S'Sometimes'
p1021
aaa(lp1022
S'FRAN'
p1023
a(lp1024
S'They'
p1025
aS'are'
p1026
aS'in'
p1027
aS'New'
p1028
aS'York'
p1029
aS'now'
p1030
aaa(lp1031
g1023
a(lp1032
S'More'
p1033
aS'and'
p1034
aS'more'
p1035
aaa(lp1036
S'SEAN'
p1037
a(lp1038
S'Yes'
p1039
aaa(lp1040
S'BERNARD'
p1041
a(lp1042
S'Yeah'
p1043
aS'they'
p1044
aS'do'
p1045
aS'this'
p1046
ag82
aS'lot'
p1047
aaa(lp1048
S'ALICE'
p1049
a(lp1050
aa(lp1051
S'FRAN'
p1052
a(lp1053
aa(lp1054
g1052
a(lp1055
S'Thats'
p1056
ag82
aS'sign'
p1057
aaa(lp1058
S'ALICE'
p1059
a(lp1060
S'Yeah'
p1061
aaa(lp1062
S'BERNARD'
p1063
a(lp1064
S'It'
p1065
aS'certainly'
p1066
aS'is'
p1067
aaa(lp1068
S'FRAN'
p1069
a(lp1070
aa(lp1071
S'ALICE'
p1072
a(lp1073
aa(lp1074
S'BERNARD'
p1075
a(lp1076
aa(lp1077
S'FRAN'
p1078
a(lp1079
aa(lp1080
S'X'
p1081
a(lp1082
g848
aS'Yes'
p1083
ag848
aaa(lp1084
S'SEAN'
p1085
a(lp1086
S'About'
p1087
ag82
aS'year'
p1088
aS'ago'
p1089
aS'we'
p1090
aS'had'
p1091
ag82
aS'lot'
p1092
aaa(lp1093
g1085
a(lp1094
S'And'
p1095
aS'they'
p1096
aS'sort'
p1097
aS'of'
p1098
aS'all'
p1099
aaa(lp1100
S'BERNARD'
p1101
a(lp1102
S'Went'
p1103
aS'to'
p1104
aS'different'
p1105
aS'meetings'
p1106
aaa(lp1107
S'SEAN'
p1108
a(lp1109
S'disappeared'
p1110
aaa(lp1111
g1108
a(lp1112
g848
aS'Its'
p1113
ag82
aS'har'
p1114
aS'to'
p1115
ag848
aaa(lp1116
g1108
a(lp1117
S'Oh'
p1118
ag5
aS'think'
p1119
aS'it'
p1120
aS'would'
p1121
aS'be'
p1122
aS'hard'
p1123
aaa(lp1124
S'ALICE'
p1125
a(lp1126
S'What'
p1127
aaa(lp1128
g1125
a(lp1129
S'signing'
p1130
aaa(lp1131
S'FRAN'
p1132
a(lp1133
S'Well'
p1134
aS'there'
p1135
aS'are'
p1136
ag82
aS'few'
p1137
aaa(lp1138
g1132
a(lp1139
S'and'
p1140
aS'theres'
p1141
ag82
aaa(lp1142
S'SEAN'
p1143
a(lp1144
S'Signing'
p1145
aaa(lp1146
S'FRAN'
p1147
a(lp1148
S'There'
p1149
aS'are'
p1150
ag82
aS'couple'
p1151
aS'of'
p1152
aS'deaf'
p1153
aS'meetings'
p1154
aaa(lp1155
S'ALICE'
p1156
a(lp1157
S'XXXX'
p1158
aS'always'
p1159
aS'at'
p1160
aS'gay'
p1161
aS'things'
p1162
aaa(lp1163
S'FRAN'
p1164
a(lp1165
S'in'
p1166
aS'New'
p1167
aS'York'
p1168
aS'now'
p1169
aaa(lp1170
S'ALICE'
p1171
a(lp1172
S'Every'
p1173
aS'gay'
p1174
aS'thing'
p1175
aS'Ive'
p1176
aS'ever'
p1177
aS'been'
p1178
aS'to'
p1179
aaa(lp1180
g1171
a(lp1181
S'there'
p1182
aS'was'
p1183
ag82
aS'signer'
p1184
aaa(lp1185
S'SEAN'
p1186
a(lp1187
S'Signer'
p1188
aaa(lp1189
S'ALICE'
p1190
a(lp1191
S'Yeah'
p1192
aaa(lp1193
S'SEAN'
p1194
a(lp1195
g848
aS'Hosts'
p1196
ag848
aaa(lp1197
S'ALICE'
p1198
a(lp1199
S'not'
p1200
aS'at'
p1201
aS'SLICK'
p1202
aaa(lp1203
S'FRAN'
p1204
a(lp1205
S'Theyre'
p1206
aS'listed'
p1207
aS'in'
p1208
aS'the'
p1209
aS'book'
p1210
aS'as'
p1211
aaa(lp1212
g1204
a(lp1213
S'you'
p1214
aS'know'
p1215
aaa(lp1216
g1204
a(lp1217
S'always'
p1218
aaa(lp1219
g1204
a(lp1220
g82
aS'signer'
p1221
aS'is'
p1222
aS'always'
p1223
aS'at'
p1224
aS'this'
p1225
aS'meeting'
p1226
aaa(lp1227
g1204
a(lp1228
S'And'
p1229
aaa(lp1230
S'BERNARD'
p1231
a(lp1232
g5
aS'forgot'
p1233
aaa(lp1234
g1231
a(lp1235
S'do'
p1236
aS'y'
p1237
aaa(lp1238
g1231
a(lp1239
S'Yeah'
p1240
aaa(lp1241
g1231
a(lp1242
S'Thats'
p1243
aS'right'
p1244
aaa(lp1245
g1231
a(lp1246
S'Of'
p1247
aS'course'
p1248
aaa(lp1249
g1231
a(lp1250
S'you'
p1251
aS'go'
p1252
aS'to'
p1253
aS'meeting'
p1254
aaa(lp1255
S'FRAN'
p1256
a(lp1257
S'Oh'
p1258
aS'sure'
p1259
aaa(lp1260
S'BERNARD'
p1261
a(lp1262
S'Yeah'
p1263
aaa(lp1264
g1261
a(lp1265
S'You'
p1266
aS'have'
p1267
aS'for'
p1268
ag82
aS'while'
p1269
aaa(lp1270
S'FRAN'
p1271
a(lp1272
S'PX'
p1273
aS'Yeah'
p1274
ag848
aaa(lp1275
g1271
a(lp1276
S'Im'
p1277
aS'sober'
p1278
aS'for'
p1279
aS'twelve'
p1280
aS'years'
p1281
ag738
aaa(lp1282
S'BERNARD'
p1283
a(lp1284
S'Do'
p1285
aS'you'
p1286
aaa(lp1287
g1283
a(lp1288
S'Does'
p1289
aS'she'
p1290
aS'know'
p1291
aS'your'
p1292
aS'sponsor'
p1293
aaa(lp1294
S'SEAN'
p1295
a(lp1296
S'Same'
p1297
aS'as'
p1298
aS'Rick'
p1299
aaa(lp1300
g1295
a(lp1301
S'same'
p1302
aS'as'
p1303
aS'me'
p1304
aaa(lp1305
S'FRAN'
p1306
a(lp1307
S'Beg'
p1308
aS'your'
p1309
aS'pardon'
p1310
aaa(lp1311
S'SEAN'
p1312
a(lp1313
S'Same'
p1314
aS'as'
p1315
aS'me'
p1316
aaa(lp1317
g1312
a(lp1318
S'Lynne'
p1319
aS'Bissell'
p1320
aaa(lp1321
S'BERNARD'
p1322
a(lp1323
S'Do'
p1324
aS'you'
p1325
aS'know'
p1326
aS'Lynne'
p1327
aS'Bissell'
p1328
aaa(lp1329
S'SEAN'
p1330
a(lp1331
S'Thats'
p1332
aS'my'
p1333
aS'sponsor'
p1334
aS'in'
p1335
aS'New'
p1336
aS'York'
p1337
aaa(lp1338
S'FRAN'
p1339
a(lp1340
g738
aS'No'
p1341
aaa(lp1342
g1339
a(lp1343
g5
aS'dont'
p1344
aS'know'
p1345
aS'her'
p1346
ag738
aaa(lp1347
S'SEAN'
p1348
a(lp1349
S'Shes'
p1350
aS'an'
p1351
aS'actress'
p1352
aaa(lp1353
g1348
a(lp1354
S'Woody'
p1355
aS'Allen'
p1356
aS'movies'
p1357
aaa(lp1358
g1348
a(lp1359
S'Older'
p1360
aS'woman'
p1361
aaa(lp1362
g1348
a(lp1363
S'about'
p1364
aS'seventytwo'
p1365
aaa(lp1366
S'FRAN'
p1367
a(lp1368
g5
aS'may'
p1369
aS'know'
p1370
aS'her'
p1371
aaa(lp1372
g1367
a(lp1373
S'and'
p1374
aS'not'
p1375
aS'know'
p1376
aS'her'
p1377
aaa(lp1378
S'SEAN'
p1379
a(lp1380
S'Youd'
p1381
aS're'
p1382
aaa(lp1383
g1379
a(lp1384
S'you'
p1385
aS'might'
p1386
aS'know'
p1387
aS'her'
p1388
aaa(lp1389
S'FRAN'
p1390
a(lp1391
S'Yeah'
p1392
aaa(lp1393
S'SEAN'
p1394
a(lp1395
S'Maybe'
p1396
aS'not'
p1397
aaa(lp1398
S'BERNARD'
p1399
a(lp1400
S'Lynne'
p1401
aaa(lp1402
S'FRAN'
p1403
a(lp1404
g5
aS'mean'
p1405
aaa(lp1406
g1403
a(lp1407
g5
aS'dont'
p1408
aS'know'
p1409
aS'where'
p1410
aS'she'
p1411
aS'goes'
p1412
aS'to'
p1413
aS'meetings'
p1414
aaa(lp1415
S'SEAN'
p1416
a(lp1417
S'New'
p1418
aS'Yorks'
p1419
ag82
aS'big'
p1420
aS'place'
p1421
aaa(lp1422
S'FRAN'
p1423
a(lp1424
S'Yeah'
p1425
aaa(lp1426
g1423
a(lp1427
S'Because'
p1428
aS'youve'
p1429
aS'got'
p1430
ag82
aS'thousand'
p1431
aS'meetings'
p1432
ag82
aS'week'
p1433
aaa(lp1434
S'SEAN'
p1435
a(lp1436
S'Upper'
p1437
aS'East'
p1438
aS'Side'
p1439
aaa(lp1440
S'ENV'
p1441
a(lp1442
S'DOG_BARKING'
p1443
aaa(lp1444
S'FRAN'
p1445
a(lp1446
S'Oh'
p1447
aS'no'
p1448
aaa(lp1449
g1445
a(lp1450
g5
aS'dont'
p1451
aS'go'
p1452
aS'uptown'
p1453
aS'so'
p1454
aS'much'
p1455
aaa(lp1456
g1445
a(lp1457
S'Im'
p1458
aS'generally'
p1459
aS'mostly'
p1460
aS'in'
p1461
aS'the'
p1462
aS'Village'
p1463
aaa(lp1464
S'SEAN'
p1465
a(lp1466
S'But'
p1467
aS'she'
p1468
aS'comes'
p1469
aS'downtown'
p1470
aaa(lp1471
S'BERNARD'
p1472
a(lp1473
S'You'
p1474
aS'stay'
p1475
aS'in'
p1476
aS'the'
p1477
aS'Village'
p1478
aaa(lp1479
S'FRAN'
p1480
a(lp1481
S'Yeah'
p1482
aaa(lp1483
S'BERNARD'
p1484
a(lp1485
g848
aaa(lp1486
S'FRAN'
p1487
a(lp1488
S'well'
p1489
aS'its'
p1490
aS'convenient'
p1491
aaa(lp1492
g1487
a(lp1493
S'And'
p1494
aS'its'
p1495
aS'XXXX'
p1496
aaa(lp1497
g1487
a(lp1498
g738
aS'So'
p1499
ag738
aaa(lp1500
g1487
a(lp1501
S'If'
p1502
ag5
aS'go'
p1503
aS'off'
p1504
aS'for'
p1505
ag438
aS'some'
p1506
aS'dinner'
p1507
aS'party'
p1508
aS'uptown'
p1509
aS'or'
p1510
aS'something'
p1511
aaa(lp1512
g1487
a(lp1513
g5
aS'might'
p1514
aS'go'
p1515
aS'to'
p1516
ag82
aS'meeting'
p1517
aS'uptown'
p1518
aaa(lp1519
g1487
a(lp1520
S'but'
p1521
aS'mostly'
p1522
aS'Im'
p1523
aS'downtown'
p1524
aaa(lp1525
g1487
a(lp1526
S'PP'
p1527
aS'So'
p1528
aS'PP'
p1529
aaa(lp1530
S'ALICE'
p1531
a(lp1532
g738
aS'New'
p1533
aS'York'
p1534
aaa(lp1535
g1531
a(lp1536
S'Oh'
p1537
aS'wow'
p1538
aaa(lp1539
g1531
a(lp1540
S'Greenwich'
p1541
aS'Village'
p1542
ag738
aaa(lp1543
S'FRAN'
p1544
a(lp1545
S'Yes'
p1546
aaa(lp1547
S'BERNARD'
p1548
a(lp1549
S'Our'
p1550
aS'New'
p1551
aS'York'
p1552
aS'connection'
p1553
aaa(lp1554
g1548
a(lp1555
S'we'
p1556
aS'can'
p1557
aS'all'
p1558
aS'like'
p1559
aS'remember'
p1560
aS'through'
p1561
ag1237
aS'Fran'
p1562
aaa(lp1563
S'ALICE'
p1564
a(lp1565
g738
aS'Oh'
p1566
ag738
aaa(lp1567
S'FRAN'
p1568
a(lp1569
aa(lp1570
g1568
a(lp1571
g848
aS'Well'
p1572
ag848
aaa(lp1573
g1568
a(lp1574
S'the'
p1575
aS'neighborhoods'
p1576
aS'probably'
p1577
aS'the'
p1578
aS'same'
p1579
aaa(lp1580
g1568
a(lp1581
S'since'
p1582
aS'its'
p1583
ag82
aS'historic'
p1584
aS'district'
p1585
aaa(lp1586
S'ENV'
p1587
a(lp1588
S'DOG_BARKING'
p1589
aaa(lp1590
S'FRAN'
p1591
a(lp1592
S'and'
p1593
aS'they'
p1594
aS'wont'
p1595
aS'let'
p1596
aS'em'
p1597
aS'tear'
p1598
aS'anything'
p1599
aS'down'
p1600
aaa(lp1601
S'X'
p1602
a(lp1603
aa(lp1604
S'FRAN'
p1605
a(lp1606
S'You'
p1607
aS'could'
p1608
aS'find'
p1609
aS'your'
p1610
aS'way'
p1611
aS'around'
p1612
aaa(lp1613
g1605
a(lp1614
S'except'
p1615
aS'that'
p1616
aaa(lp1617
S'SEAN'
p1618
a(lp1619
S'Your'
p1620
aaa(lp1621
S'FRAN'
p1622
a(lp1623
aa(lp1624
S'SEAN'
p1625
a(lp1626
S'Your'
p1627
aS'buildings'
p1628
aS'new'
p1629
aaa(lp1630
g1625
a(lp1631
S'Isnt'
p1632
aS'it'
p1633
aaa(lp1634
S'FRAN'
p1635
a(lp1636
S'No'
p1637
aaa(lp1638
g1635
a(lp1639
S'My'
p1640
aS'buildings'
p1641
aS'old'
p1642
aaa(lp1643
g1635
a(lp1644
g5
aS'dont'
p1645
aS'know'
p1646
aS'when'
p1647
aS'my'
p1648
aS'building'
p1649
aS'was'
p1650
aS'built'
p1651
aaa(lp1652
S'SEAN'
p1653
a(lp1654
S'Fifties'
p1655
aaa(lp1656
S'FRAN'
p1657
a(lp1658
S'Nineteenten'
p1659
aaa(lp1660
g1657
a(lp1661
S'No'
p1662
aaa(lp1663
S'ALICE'
p1664
a(lp1665
S'Nineteenten'
p1666
aaa(lp1667
S'SEAN'
p1668
a(lp1669
S'Oh'
p1670
aaa(lp1671
g1668
a(lp1672
S'wow'
p1673
aaa(lp1674
g1668
a(lp1675
S'No'
p1676
aS'Im'
p1677
aaa(lp1678
g1668
a(lp1679
S'Im'
p1680
aS'thinking'
p1681
aS'of'
p1682
ag82
aS'different'
p1683
aS'building'
p1684
aS'in'
p1685
aaa(lp1686
S'FRAN'
p1687
a(lp1688
S'Nineteentwenty'
p1689
aaa(lp1690
S'BERNARD'
p1691
a(lp1692
S'So'
p1693
aS'is'
p1694
aS'it'
p1695
ag82
aS'big'
p1696
aS'apartment'
p1697
aaa(lp1698
S'SEAN'
p1699
a(lp1700
S'Shes'
p1701
aS'just'
p1702
aS'moving'
p1703
aS'into'
p1704
ag82
aS'new'
p1705
aS'apartment'
p1706
aaa(lp1707
g1699
a(lp1708
S'She'
p1709
aS'and'
p1710
aS'her'
p1711
aS'husband'
p1712
aaa(lp1713
S'FRAN'
p1714
a(lp1715
S'About'
p1716
ag82
aS'hundred'
p1717
aS'and'
p1718
aS'ninety'
p1719
aS'apartments'
p1720
aaa(lp1721
g1714
a(lp1722
S'Seventeen'
p1723
aS'stories'
p1724
aaa(lp1725
S'BERNARD'
p1726
a(lp1727
g5
aS'mean'
p1728
ag122
aaa(lp1729
g1726
a(lp1730
S'Are'
p1731
aS'they'
p1732
aS'big'
p1733
aaa(lp1734
g1726
a(lp1735
S'like'
p1736
aS'rooms'
p1737
aaa(lp1738
g1726
a(lp1739
S'is'
p1740
aS'it'
p1741
aS'big'
p1742
aaa(lp1743
S'FRAN'
p1744
a(lp1745
S'Yeah'
p1746
aaa(lp1747
g1744
a(lp1748
S'There'
p1749
aS'are'
p1750
aaa(lp1751
g1744
a(lp1752
S'Were'
p1753
aS'in'
p1754
aaa(lp1755
S'ENV'
p1756
a(lp1757
aa(lp1758
S'FRAN'
p1759
a(lp1760
S'the'
p1761
aaa(lp1762
g1759
a(lp1763
S'Up'
p1764
aS'in'
p1765
aS'the'
p1766
aS'penthouse'
p1767
aaa(lp1768
g1759
a(lp1769
S'There'
p1770
aS'are'
p1771
aS'some'
p1772
aS'larger'
p1773
aS'apartments'
p1774
aaa(lp1775
S'ENV'
p1776
a(lp1777
aa(lp1778
S'FRAN'
p1779
a(lp1780
S'because'
p1781
aS'people'
p1782
aS'have'
p1783
aS'bought'
p1784
aS'neighboring'
p1785
aS'apartments'
p1786
aaa(lp1787
g1779
a(lp1788
S'and'
p1789
aS'expanded'
p1790
aS'and'
p1791
aS'mixed'
p1792
aS'them'
p1793
aaa(lp1794
g1779
a(lp1795
S'You'
p1796
aS'know'
p1797
aaa(lp1798
g1779
a(lp1799
S'but'
p1800
aaa(lp1801
g1779
a(lp1802
S'theyre'
p1803
aS'mostly'
p1804
aaa(lp1805
g1779
a(lp1806
S'well'
p1807
aS'therere'
p1808
aS'some'
p1809
aS'studios'
p1810
aaa(lp1811
g1779
a(lp1812
S'and'
p1813
aS'some'
p1814
aS'onebedrooms'
p1815
aaa(lp1816
g1779
a(lp1817
S'and'
p1818
aS'twobedrooms'
p1819
aaa(lp1820
S'SEAN'
p1821
a(lp1822
S'And'
p1823
aS'has'
p1824
aS'it'
p1825
aS'always'
p1826
aS'been'
p1827
aS'an'
p1828
aS'apartment'
p1829
aS'house'
p1830
aaa(lp1831
S'FRAN'
p1832
a(lp1833
g738
aS'Yeah'
p1834
ag738
aaa(lp1835
S'ENV'
p1836
a(lp1837
aa(lp1838
S'ALICE'
p1839
a(lp1840
S'What'
p1841
aaa(lp1842
g1839
a(lp1843
S'What'
p1844
aS'is'
p1845
aS'the'
p1846
aS'real'
p1847
aS'e'
p1848
aS'estate'
p1849
aS'market'
p1850
aS'doing'
p1851
aaa(lp1852
g1839
a(lp1853
g738
aS'Is'
p1854
aS'it'
p1855
aS'down'
p1856
aS'now'
p1857
ag738
aaa(lp1858
S'FRAN'
p1859
a(lp1860
S'Well'
p1861
aaa(lp1862
g1859
a(lp1863
S'its'
p1864
aS'down'
p1865
aS'in'
p1866
aS'general'
p1867
aaa(lp1868
S'ALICE'
p1869
a(lp1870
S'In'
p1871
aS'New'
p1872
aS'York'
p1873
aaa(lp1874
S'FRAN'
p1875
a(lp1876
S'But'
p1877
aS'certain'
p1878
aS'areas'
p1879
aaa(lp1880
g1875
a(lp1881
S'yeah'
p1882
aaa(lp1883
g1875
a(lp1884
S'Certain'
p1885
aS'areas'
p1886
aS'sort'
p1887
aS'of'
p1888
aS'held'
p1889
aS'their'
p1890
aS'value'
p1891
aaa(lp1892
S'ENV'
p1893
a(lp1894
aa(lp1895
S'FRAN'
p1896
a(lp1897
S'And'
p1898
aS'what'
p1899
aS'happened'
p1900
aS'would'
p1901
aS'be'
p1902
aaa(lp1903
g1896
a(lp1904
S'rather'
p1905
aS'than'
p1906
aS'have'
p1907
aS'it'
p1908
aaa(lp1909
g1896
a(lp1910
S'things'
p1911
aS'kinda'
p1912
aS'crashing'
p1913
aaa(lp1914
g1896
a(lp1915
S'S'
p1916
ag82
aaa(lp1917
g1896
a(lp1918
S'W'
p1919
aaa(lp1920
g1896
a(lp1921
S'It'
p1922
aS'would'
p1923
aS'just'
p1924
aaa(lp1925
g1896
a(lp1926
S'Things'
p1927
aS'would'
p1928
aS'be'
p1929
aS'slow'
p1930
aS'to'
p1931
aS'sell'
p1932
aaa(lp1933
g1896
a(lp1934
S'But'
p1935
aaa(lp1936
g1896
a(lp1937
S'they'
p1938
aS'would'
p1939
aS'ho'
p1940
aaa(lp1941
g1896
a(lp1942
S'The'
p1943
aS'Village'
p1944
aS'is'
p1945
aS'one'
p1946
aS'of'
p1947
aS'the'
p1948
aS'few'
p1949
aS'areas'
p1950
aS'that'
p1951
aS'held'
p1952
aS'its'
p1953
aS'value'
p1954
aaa(lp1955
g1896
a(lp1956
S'Um'
p1957
aaa(lp1958
g1896
a(lp1959
S'but'
p1960
aaa(lp1961
g1896
a(lp1962
S'certain'
p1963
aS'things'
p1964
aS'are'
p1965
ag82
aS'drug'
p1966
aS'on'
p1967
aS'the'
p1968
aS'market'
p1969
aaa(lp1970
S'ENV'
p1971
a(lp1972
aa(lp1973
S'FRAN'
p1974
a(lp1975
S'If'
p1976
aS'you'
p1977
aS'have'
p1978
ag82
aS'studio'
p1979
aS'apartment'
p1980
aaa(lp1981
g1974
a(lp1982
S'youre'
p1983
aS'stuck'
p1984
aS'with'
p1985
aS'it'
p1986
aaa(lp1987
S'SEAN'
p1988
a(lp1989
aa(lp1990
S'ALICE'
p1991
a(lp1992
S'For'
p1993
aS'the'
p1994
aS'rest'
p1995
aS'of'
p1996
aS'your'
p1997
aS'life'
p1998
aaa(lp1999
g1991
a(lp2000
S'Like'
p2001
aS'herpes'
p2002
aaa(lp2003
S'FRAN'
p2004
a(lp2005
S'Certainly'
p2006
aS'for'
p2007
aS'the'
p2008
aS'next'
p2009
aS'ten'
p2010
aS'years'
p2011
aaa(lp2012
g2004
a(lp2013
S'And'
p2014
aaa(lp2015
g2004
a(lp2016
S'and'
p2017
aaa(lp2018
S'SEAN'
p2019
a(lp2020
aa(lp2021
S'FRAN'
p2022
a(lp2023
S'if'
p2024
aS'you'
p2025
aS'have'
p2026
ag82
aS'onebedroom'
p2027
aaa(lp2028
g2022
a(lp2029
S'it'
p2030
aS'has'
p2031
aS'to'
p2032
aS'have'
p2033
aS'something'
p2034
aS'kinda'
p2035
aS'going'
p2036
aS'for'
p2037
aS'it'
p2038
aaa(lp2039
g2022
a(lp2040
S'Or'
p2041
aS'youre'
p2042
aS'gonna'
p2043
aS'be'
p2044
aS'sorta'
p2045
aS'stuck'
p2046
aaa(lp2047
g2022
a(lp2048
S'You'
p2049
aS'could'
p2050
aS'be'
p2051
aS'stuck'
p2052
aS'with'
p2053
aS'it'
p2054
aaa(lp2055
g2022
a(lp2056
S'Um'
p2057
aaa(lp2058
g2022
a(lp2059
S'twobedrooms'
p2060
aS'and'
p2061
aS'up'
p2062
aS'are'
p2063
aaa(lp2064
g2022
a(lp2065
S'are'
p2066
ag417
aaa(lp2067
g2022
a(lp2068
S'easy'
p2069
aS'to'
p2070
aS'se'
p2071
aaa(lp2072
g2022
a(lp2073
S'easier'
p2074
aS'to'
p2075
aS'sell'
p2076
aaa(lp2077
S'ALICE'
p2078
a(lp2079
S'Cause'
p2080
aS'Beth'
p2081
aaa(lp2082
g2078
a(lp2083
S'You'
p2084
aS'know'
p2085
aaa(lp2086
g2078
a(lp2087
S'my'
p2088
aS'friend'
p2089
aaa(lp2090
S'SEAN'
p2091
a(lp2092
g848
aS'Eddies'
p2093
aS'still'
p2094
aS'in'
p2095
aS'New'
p2096
aS'York'
p2097
aS'or'
p2098
aS'some'
p2099
aS'other'
p2100
aS'state'
p2101
ag848
aaa(lp2102
S'ALICE'
p2103
a(lp2104
S'she'
p2105
aS'just'
p2106
aS'sold'
p2107
aS'one'
p2108
aaa(lp2109
g2103
a(lp2110
S'at'
p2111
ag82
aS'fiftythousanddollar'
p2112
aS'loss'
p2113
aaa(lp2114
g2103
a(lp2115
S'From'
p2116
aS'four'
p2117
aS'years'
p2118
aS'ago'
p2119
aaa(lp2120
S'BERNARD'
p2121
a(lp2122
S'XXXX'
p2123
aaa(lp2124
S'ALICE'
p2125
a(lp2126
S'That'
p2127
aS'she'
p2128
aS'bought'
p2129
aaa(lp2130
S'FRAN'
p2131
a(lp2132
S'Yeah'
p2133
aaa(lp2134
g2131
a(lp2135
S'Well'
p2136
aS'we'
p2137
aaa(lp2138
S'ALICE'
p2139
a(lp2140
S'On'
p2141
aS'Sutton'
p2142
aS'Place'
p2143
aaa(lp2144
S'FRAN'
p2145
a(lp2146
S'Uh'
p2147
aaa(lp2148
S'ALICE'
p2149
a(lp2150
S'Wheres'
p2151
aS'Sutton'
p2152
aS'Place'
p2153
aaa(lp2154
S'FRAN'
p2155
a(lp2156
S'Yeah'
p2157
aaa(lp2158
g2155
a(lp2159
S'Sutton'
p2160
aS'Place'
p2161
aS'is'
p2162
aS'up'
p2163
aS'on'
p2164
aS'the'
p2165
aS'East'
p2166
aS'Side'
p2167
aaa(lp2168
S'SEAN'
p2169
a(lp2170
S'E'
p2171
aaa(lp2172
S'FRAN'
p2173
a(lp2174
S'now'
p2175
aS'see'
p2176
aS'the'
p2177
aS'Upper'
p2178
aS'East'
p2179
aS'Side'
p2180
aS'took'
p2181
aS'one'
p2182
aS'of'
p2183
aS'the'
p2184
aaa(lp2185
S'SEAN'
p2186
a(lp2187
S'East'
p2188
aS'Side'
p2189
ag848
aS'isnt'
p2190
aS'it'
p2191
ag848
aaa(lp2192
S'BERNARD'
p2193
a(lp2194
S'Real'
p2195
aS'nice'
p2196
aS'Sutton'
p2197
aS'Place'
p2198
aaa(lp2199
S'SEAN'
p2200
a(lp2201
S'Its'
p2202
aS'nice'
p2203
aaa(lp2204
S'FRAN'
p2205
a(lp2206
S'One'
p2207
aS'of'
p2208
aS'the'
p2209
aS'hardest'
p2210
aS'hits'
p2211
aS'for'
p2212
aS'dropped'
p2213
aS'values'
p2214
aaa(lp2215
S'BERNARD'
p2216
a(lp2217
S'Because'
p2218
aS'it'
p2219
aS'had'
p2220
aS'soared'
p2221
aS'so'
p2222
aS'high'
p2223
aaa(lp2224
S'FRAN'
p2225
a(lp2226
S'Th'
p2227
aS'They'
p2228
aaa(lp2229
g2225
a(lp2230
S'Two'
p2231
aS'things'
p2232
aaa(lp2233
g2225
a(lp2234
S'They'
p2235
aS'had'
p2236
aS'soared'
p2237
aS'really'
p2238
aS'high'
p2239
aaa(lp2240
S'BERNARD'
p2241
a(lp2242
S'That'
p2243
aS'ch'
p2244
aaa(lp2245
S'FRAN'
p2246
a(lp2247
S'And'
p2248
aaa(lp2249
g2246
a(lp2250
S'there'
p2251
aS'was'
p2252
aS'an'
p2253
aS'awful'
p2254
aS'lot'
p2255
aaa(lp2256
g2246
a(lp2257
S'Because'
p2258
aS'they'
p2259
aS'soared'
p2260
aS'so'
p2261
aS'high'
p2262
aaa(lp2263
g2246
a(lp2264
S'that'
p2265
aS'area'
p2266
aS'had'
p2267
aS'less'
p2268
aS'zoning'
p2269
aaa(lp2270
g2246
a(lp2271
S'uh'
p2272
aaa(lp2273
S'ALICE'
p2274
a(lp2275
S'Restrictions'
p2276
aaa(lp2277
S'FRAN'
p2278
a(lp2279
S'restrictions'
p2280
aaa(lp2281
g2278
a(lp2282
S'And'
p2283
aS'they'
p2284
aS'w'
p2285
aaa(lp2286
g2278
a(lp2287
S'There'
p2288
aS'was'
p2289
aS'uh'
p2290
aaa(lp2291
g2278
a(lp2292
S'There'
p2293
aS'was'
p2294
ag82
aS'lotta'
p2295
aS'building'
p2296
aS'in'
p2297
aS'the'
p2298
aS'area'
p2299
aaa(lp2300
g2278
a(lp2301
S'And'
p2302
aS'so'
p2303
aaa(lp2304
g2278
a(lp2305
S'between'
p2306
aS'those'
p2307
aS'two'
p2308
aS'things'
p2309
aaa(lp2310
g2278
a(lp2311
S'that'
p2312
aS'market'
p2313
aS'was'
p2314
aaa(lp2315
S'BERNARD'
p2316
a(lp2317
S'Lotta'
p2318
aS'new'
p2319
aS'buildings'
p2320
aaa(lp2321
S'FRAN'
p2322
a(lp2323
S'Yeah'
p2324
aaa(lp2325
g2322
a(lp2326
S'And'
p2327
aS'the'
p2328
aS'new'
p2329
aS'buildings'
p2330
aS'are'
p2331
aaa(lp2332
g2322
a(lp2333
g5
aS'dont'
p2334
aS'like'
p2335
aS'the'
p2336
aS'new'
p2337
aS'buildings'
p2338
aaa(lp2339
S'ALICE'
p2340
a(lp2341
S'Do'
p2342
aS'you'
p2343
aS'like'
p2344
aS'living'
p2345
aS'in'
p2346
aS'New'
p2347
aS'York'
p2348
aaa(lp2349
S'FRAN'
p2350
a(lp2351
S'Yeah'
p2352
aaa(lp2353
g2350
a(lp2354
g5
aS'love'
p2355
aS'it'
p2356
aaa(lp2357
g2350
a(lp2358
S'We'
p2359
aS'traveled'
p2360
aS'all'
p2361
aS'over'
p2362
aaa(lp2363
g2350
a(lp2364
S'We'
p2365
aS'looked'
p2366
aS'around'
p2367
aaa(lp2368
g2350
a(lp2369
S'We'
p2370
aS'thought'
p2371
aaa(lp2372
g2350
a(lp2373
S'my'
p2374
aS'husband'
p2375
aS'and'
p2376
ag5
aS'stayed'
p2377
aS'out'
p2378
aS'on'
p2379
aS'the'
p2380
aS'road'
p2381
aaa(lp2382
g2350
a(lp2383
S'for'
p2384
aS'two'
p2385
aS'years'
p2386
aaa(lp2387
g2350
a(lp2388
S'And'
p2389
aS'we'
p2390
aS'went'
p2391
aS'all'
p2392
aS'over'
p2393
aS'the'
p2394
aS'United'
p2395
aS'States'
p2396
aaa(lp2397
g2350
a(lp2398
S'and'
p2399
aS'we'
p2400
aS'd'
p2401
aaa(lp2402
g2350
a(lp2403
S'we'
p2404
aS'didnt'
p2405
aS'find'
p2406
aS'any'
p2407
aS'place'
p2408
aS'we'
p2409
aS'liked'
p2410
aS'better'
p2411
aaa(lp2412
S'ALICE'
p2413
a(lp2414
S'So'
p2415
aS'you'
p2416
aS'went'
p2417
aS'from'
p2418
aS'New'
p2419
aS'Orleans'
p2420
aS'to'
p2421
aS'New'
p2422
aS'York'
p2423
aaa(lp2424
S'FRAN'
p2425
a(lp2426
S'Yeah'
p2427
aaa(lp2428
g2425
a(lp2429
S'Oh'
p2430
aS'that'
p2431
ag5
aS'did'
p2432
aS'years'
p2433
aS'ago'
p2434
aaa(lp2435
g2425
a(lp2436
S'That'
p2437
ag5
aS'did'
p2438
aaa(lp2439
S'ALICE'
p2440
a(lp2441
S'But'
p2442
aS'its'
p2443
aS'the'
p2444
aS'new'
p2445
aaa(lp2446
g2440
a(lp2447
S'That'
p2448
aS'part'
p2449
aS'XXXX'
p2450
aaa(lp2451
S'FRAN'
p2452
a(lp2453
S'God'
p2454
aS'knows'
p2455
aaa(lp2456
g2452
a(lp2457
S's'
p2458
aS'nineteen'
p2459
aS'si'
p2460
aS'sixty'
p2461
aS'something'
p2462
aaa(lp2463
g2452
a(lp2464
S'Sixtythree'
p2465
aaa(lp2466
g2452
a(lp2467
S'Thirty'
p2468
aS'years'
p2469
aS'ago'
p2470
aaa(lp2471
S'ALICE'
p2472
a(lp2473
S'So'
p2474
aS'youve'
p2475
aS'lived'
p2476
aS'in'
p2477
aS'New'
p2478
aS'York'
p2479
aS'all'
p2480
aS'this'
p2481
aS'time'
p2482
aaa(lp2483
S'FRAN'
p2484
a(lp2485
S'Mhm'
p2486
aaa(lp2487
g2484
a(lp2488
S'Thirty'
p2489
aS'years'
p2490
aaa(lp2491
g2484
a(lp2492
S'Except'
p2493
aaa(lp2494
g2484
a(lp2495
g5
aS'did'
p2496
aS'take'
p2497
aS'five'
p2498
aS'years'
p2499
aS'off'
p2500
aaa(lp2501
S'BERNARD'
p2502
a(lp2503
aa(lp2504
S'ALICE'
p2505
a(lp2506
S'HI'
p2507
aS'Thirty'
p2508
aS'years'
p2509
aS'in'
p2510
aS'New'
p2511
aS'York'
p2512
aS'HI'
p2513
aaa(lp2514
S'BERNARD'
p2515
a(lp2516
aa(lp2517
S'FRAN'
p2518
a(lp2519
S'Yeah'
p2520
aaa(lp2521
S'ALICE'
p2522
a(lp2523
S'Wow'
p2524
aaa(lp2525
S'FRAN'
p2526
a(lp2527
g5
aS'did'
p2528
aS'take'
p2529
aS'five'
p2530
aS'years'
p2531
aS'off'
p2532
aaa(lp2533
g2526
a(lp2534
g5
aS'went'
p2535
aS'to'
p2536
aS'uh'
p2537
aaa(lp2538
g2526
a(lp2539
S'Florida'
p2540
aaa(lp2541
g2526
a(lp2542
S'which'
p2543
aS'was'
p2544
ag82
aS'terrible'
p2545
aS'mistake'
p2546
aaa(lp2547
g2526
a(lp2548
S'We'
p2549
aS'needed'
p2550
ag82
aS'vacation'
p2551
aaa(lp2552
g2526
a(lp2553
S'and'
p2554
aS'we'
p2555
aS'accidentally'
p2556
aS'moved'
p2557
aS'instead'
p2558
aaa(lp2559
S'ALICE'
p2560
a(lp2561
S'Oh'
p2562
aaa(lp2563
S'FRAN'
p2564
a(lp2565
S'And'
p2566
aS'then'
p2567
aaa(lp2568
g2564
a(lp2569
S'we'
p2570
aS'realized'
p2571
aS'that'
p2572
aaa(lp2573
g2564
a(lp2574
S'Well'
p2575
aaa(lp2576
g2564
a(lp2577
S'The'
p2578
aS'first'
p2579
aS'year'
p2580
aS'we'
p2581
aS'were'
p2582
aS'there'
p2583
aaa(lp2584
g2564
a(lp2585
S'we'
p2586
aS'visited'
p2587
aS'New'
p2588
aS'York'
p2589
aS'six'
p2590
aS'times'
p2591
aaa(lp2592
g2564
a(lp2593
S'and'
p2594
aS'we'
p2595
aS'looked'
p2596
aS'at'
p2597
aS'each'
p2598
aS'other'
p2599
aS'and'
p2600
aS'said'
p2601
aaa(lp2602
S'BERNARD'
p2603
a(lp2604
aa(lp2605
S'FRAN'
p2606
a(lp2607
S'VOX'
p2608
aS'God'
p2609
aaa(lp2610
g2606
a(lp2611
S'we'
p2612
aS'certainly'
p2613
aS'do'
p2614
aS'go'
p2615
aS'back'
p2616
aS'up'
p2617
aS'there'
p2618
ag82
aS'lot'
p2619
aaa(lp2620
g2606
a(lp2621
S'what'
p2622
aS'do'
p2623
aS'you'
p2624
aS'think'
p2625
aS'thats'
p2626
aS'about'
p2627
aS'VOX'
p2628
aaa(lp2629
g2606
a(lp2630
S'You'
p2631
aS'know'
p2632
aaa(lp2633
g2606
a(lp2634
S'and'
p2635
aS'we'
p2636
aS'were'
p2637
aS'just'
p2638
aS'getting'
p2639
aS'increasingly'
p2640
aS'bored'
p2641
aS'down'
p2642
aS'there'
p2643
aS'and'
p2644
aaa(lp2645
g2606
a(lp2646
S'you'
p2647
aS'know'
p2648
aaa(lp2649
g2606
a(lp2650
S'you'
p2651
aS'get'
p2652
aS'occupied'
p2653
aS'fixing'
p2654
aS'up'
p2655
ag82
aS'house'
p2656
aaa(lp2657
g2606
a(lp2658
S'and'
p2659
aS'thats'
p2660
aS'kinda'
p2661
aS'fun'
p2662
aaa(lp2663
g2606
a(lp2664
S'and'
p2665
aS'then'
p2666
aaa(lp2667
S'ALICE'
p2668
a(lp2669
S'Where'
p2670
aS'in'
p2671
aS'Florida'
p2672
aS'were'
p2673
aS'you'
p2674
aaa(lp2675
S'FRAN'
p2676
a(lp2677
S'On'
p2678
aS'the'
p2679
aS'Gulf'
p2680
aS'Coast'
p2681
aaa(lp2682
g2676
a(lp2683
S'Fort'
p2684
aS'Myers'
p2685
aS'Beach'
p2686
aaa(lp2687
g2676
a(lp2688
S'We'
p2689
aS'had'
p2690
ag82
aS'nice'
p2691
aS'house'
p2692
aaa(lp2693
g2676
a(lp2694
S'right'
p2695
aS'on'
p2696
aS'the'
p2697
aS'sea'
p2698
aaa(lp2699
S'SEAN'
p2700
a(lp2701
S'In'
p2702
aaa(lp2703
g2700
a(lp2704
S'Yeah'
p2705
aaa(lp2706
S'FRAN'
p2707
a(lp2708
S'Right'
p2709
aS'on'
p2710
aS'the'
p2711
aS'sea'
p2712
aaa(lp2713
S'SEAN'
p2714
a(lp2715
g5
aS'saw'
p2716
aS'pictures'
p2717
aaa(lp2718
S'FRAN'
p2719
a(lp2720
S'It'
p2721
aS'was'
p2722
aS'beautiful'
p2723
aaa(lp2724
g2719
a(lp2725
S'But'
p2726
aS'the'
p2727
aS'poor'
p2728
aS'house'
p2729
aaa(lp2730
g2719
a(lp2731
S'was'
p2732
aS'in'
p2733
aS'fucking'
p2734
aS'Fort'
p2735
aS'Myers'
p2736
aS'Beach'
p2737
aaa(lp2738
S'ALICE'
p2739
a(lp2740
S'XXX'
p2741
aS'curbs'
p2742
aaa(lp2743
S'FRAN'
p2744
a(lp2745
aa(lp2746
S'ALICE'
p2747
a(lp2748
S'they'
p2749
aS'have'
p2750
aS'ramps'
p2751
aS'on'
p2752
aS'all'
p2753
aS'the'
p2754
aS'curbs'
p2755
aS'for'
p2756
aS'the'
p2757
aS'wheelchairs'
p2758
aaa(lp2759
S'FRAN'
p2760
a(lp2761
S'Yes'
p2762
aaa(lp2763
S'ALICE'
p2764
a(lp2765
aa(lp2766
S'FRAN'
p2767
a(lp2768
S'Right'
p2769
aaa(lp2770
g2767
a(lp2771
S'We'
p2772
aS'had'
p2773
aS'to'
p2774
aaa(lp2775
g2767
a(lp2776
g1919
ag122
aS'the'
p2777
aS'building'
p2778
aS'code'
p2779
aaa(lp2780
g2767
a(lp2781
S'you'
p2782
aS'have'
p2783
aS'to'
p2784
aS'have'
p2785
ag82
aS'ramp'
p2786
aaa(lp2787
S'ALICE'
p2788
a(lp2789
aa(lp2790
S'FRAN'
p2791
a(lp2792
aa(lp2793
g2791
a(lp2794
S'But'
p2795
aS'anyway'
p2796
aS'uh'
p2797
aaa(lp2798
S'ALICE'
p2799
a(lp2800
S'You'
p2801
aS'know'
p2802
aaa(lp2803
g2799
a(lp2804
S'handicap'
p2805
aS'bars'
p2806
aS'on'
p2807
aS'your'
p2808
aS'bathroom'
p2809
aaa(lp2810
g2799
a(lp2811
S'In'
p2812
aS'your'
p2813
aS'bathroom'
p2814
aaa(lp2815
S'FRAN'
p2816
a(lp2817
S'Thats'
p2818
aS'right'
p2819
aaa(lp2820
g2816
a(lp2821
S'But'
p2822
aS'uh'
p2823
aaa(lp2824
S'ALICE'
p2825
a(lp2826
aa(lp2827
S'FRAN'
p2828
a(lp2829
S'But'
p2830
aaa(lp2831
g2828
a(lp2832
S'we'
p2833
aS'didnt'
p2834
aS'like'
p2835
aS'it'
p2836
aaa(lp2837
g2828
a(lp2838
S'At'
p2839
aS'all'
p2840
aaa(lp2841
g2828
a(lp2842
S'And'
p2843
aS'so'
p2844
aaa(lp2845
g2828
a(lp2846
S'thats'
p2847
aS'when'
p2848
aS'we'
p2849
aS'said'
p2850
aaa(lp2851
g2828
a(lp2852
S'well'
p2853
aS'lets'
p2854
aS'not'
p2855
aS'do'
p2856
aS'anything'
p2857
aS'precipitous'
p2858
aaa(lp2859
g2828
a(lp2860
S'like'
p2861
aS'we'
p2862
aS'did'
p2863
aS'moving'
p2864
aS'down'
p2865
aS'here'
p2866
aaa(lp2867
g2828
a(lp2868
S'before'
p2869
aS'we'
p2870
aS'race'
p2871
aS'back'
p2872
aS'to'
p2873
aS'New'
p2874
aS'York'
p2875
aaa(lp2876
g2828
a(lp2877
S'lets'
p2878
aS'look'
p2879
aS'around'
p2880
ag82
aS'little'
p2881
aS'bit'
p2882
aaa(lp2883
g2828
a(lp2884
S'So'
p2885
aS'we'
p2886
aS'hit'
p2887
aS'the'
p2888
aS'road'
p2889
aaa(lp2890
g2828
a(lp2891
S'And'
p2892
aS'we'
p2893
aS'stayed'
p2894
aS'out'
p2895
aS'for'
p2896
ag82
aS'couple'
p2897
aS'years'
p2898
aaa(lp2899
S'SEAN'
p2900
a(lp2901
S'Two'
p2902
aS'years'
p2903
aS'theyd'
p2904
aS'been'
p2905
aS'looking'
p2906
aaa(lp2907
S'FRAN'
p2908
a(lp2909
S'looking'
p2910
aS'all'
p2911
aS'over'
p2912
aaa(lp2913
S'SEAN'
p2914
a(lp2915
S'for'
p2916
aS'other'
p2917
aS'places'
p2918
aaa(lp2919
S'ALICE'
p2920
a(lp2921
S'Looking'
p2922
aS'round'
p2923
aaa(lp2924
g2920
a(lp2925
S'Really'
p2926
aaa(lp2927
g2920
a(lp2928
S'And'
p2929
aaa(lp2930
S'FRAN'
p2931
a(lp2932
S'Unhunh'
p2933
aaa(lp2934
g2931
a(lp2935
S'Round'
p2936
aS'the'
p2937
aS'US'
p2938
aaa(lp2939
S'ALICE'
p2940
a(lp2941
S'Wow'
p2942
aaa(lp2943
S'FRAN'
p2944
a(lp2945
S'And'
p2946
aS'we'
p2947
aaa(lp2948
g2944
a(lp2949
S'kept'
p2950
aS'finding'
p2951
aS'these'
p2952
aS'nice'
p2953
aS'places'
p2954
aaa(lp2955
S'ENV'
p2956
a(lp2957
aa(lp2958
S'FRAN'
p2959
a(lp2960
S'And'
p2961
aS'wed'
p2962
aS'say'
p2963
aaa(lp2964
g2959
a(lp2965
S'VOX'
p2966
aS'isnt'
p2967
aS'this'
p2968
aS'place'
p2969
aS'nice'
p2970
aS'VOX'
p2971
aaa(lp2972
g2959
a(lp2973
S'And'
p2974
aaa(lp2975
g2959
a(lp2976
S'Larry'
p2977
aS'would'
p2978
aS'say'
p2979
aaa(lp2980
g2959
a(lp2981
S'VOX'
p2982
aS'yes'
p2983
aaa(lp2984
g2959
a(lp2985
S'its'
p2986
aS'lovely'
p2987
aaa(lp2988
g2959
a(lp2989
S'Look'
p2990
aS'at'
p2991
aS'these'
p2992
aS'beautiful'
p2993
aS'homes'
p2994
aaa(lp2995
g2959
a(lp2996
S'Isnt'
p2997
aS'that'
p2998
aS'nice'
p2999
aaa(lp3000
g2959
a(lp3001
S'Yes'
p3002
aaa(lp3003
g2959
a(lp3004
S'Isnt'
p3005
aS'that'
p3006
aS'nice'
p3007
aaa(lp3008
g2959
a(lp3009
S'Isnt'
p3010
aS'that'
p3011
aS'nice'
p3012
aS'VOX'
p3013
aaa(lp3014
g2959
a(lp3015
S'VOXP'
p3016
aS'Yeah'
p3017
aaa(lp3018
g2959
a(lp3019
S'but'
p3020
aS'its'
p3021
aS'not'
p3022
aS'New'
p3023
aS'York'
p3024
aS'PVOX'
p3025
aaa(lp3026
S'BERNARD'
p3027
a(lp3028
S'Its'
p3029
aaa(lp3030
S'FRAN'
p3031
a(lp3032
aa(lp3033
S'ALICE'
p3034
a(lp3035
S'You'
p3036
ag2285
aaa(lp3037
g3034
a(lp3038
S'Wow'
p3039
aaa(lp3040
S'FRAN'
p3041
a(lp3042
S'And'
p3043
aS'so'
p3044
aS'wed'
p3045
aS'drive'
p3046
aS'on'
p3047
aaa(lp3048
g3041
a(lp3049
S'We'
p3050
aS'found'
p3051
aS'lots'
p3052
aS'of'
p3053
aS'places'
p3054
aS'that'
p3055
aS'we'
p3056
aS'like'
p3057
aS'to'
p3058
aS'spend'
p3059
aaa(lp3060
S'BERNARD'
p3061
a(lp3062
S'Oh'
p3063
aaa(lp3064
g3061
a(lp3065
S'if'
p3066
aS'New'
p3067
aS'Yorks'
p3068
aS'under'
p3069
aS'your'
p3070
aS'skin'
p3071
aaa(lp3072
g3061
a(lp3073
S'watch'
p3074
aS'out'
p3075
aaa(lp3076
S'FRAN'
p3077
a(lp3078
S'Yeah'
p3079
aaa(lp3080
g3077
a(lp3081
S'its'
p3082
aS'like'
p3083
ag82
aS'drug'
p3084
aaa(lp3085
S'BERNARD'
p3086
a(lp3087
S'You'
p3088
aS'cant'
p3089
aS'get'
p3090
aS'out'
p3091
aaa(lp3092
g3086
a(lp3093
S'It'
p3094
aaa(lp3095
g3086
a(lp3096
S'It'
p3097
aS'is'
p3098
aaa(lp3099
S'FRAN'
p3100
a(lp3101
S'Youre'
p3102
aS'finished'
p3103
aaa(lp3104
S'BERNARD'
p3105
a(lp3106
S'It'
p3107
aS'is'
p3108
ag82
aS'drug'
p3109
aaa(lp3110
S'FRAN'
p3111
a(lp3112
S'Thats'
p3113
aS'it'
p3114
aaa(lp3115
g3111
a(lp3116
S'Youre'
p3117
aS'consigned'
p3118
aaa(lp3119
g3111
a(lp3120
S'the'
p3121
aS'rest'
p3122
aS'of'
p3123
aS'your'
p3124
aS'life'
p3125
aaa(lp3126
S'ALICE'
p3127
a(lp3128
S'Do'
p3129
aS'they'
p3130
aS'have'
p3131
aS'New'
p3132
aS'York'
p3133
aS'AA'
p3134
aaa(lp3135
S'FRAN'
p3136
a(lp3137
S'to'
p3138
aS'ludicrous'
p3139
aS'rents'
p3140
aaa(lp3141
S'ALICE'
p3142
a(lp3143
g848
aS'You'
p3144
aS'know'
p3145
ag848
aaa(lp3146
g3142
a(lp3147
S'or'
p3148
aS'maybe'
p3149
aS'theyve'
p3150
aS'been'
p3151
aS'to'
p3152
aS'New'
p3153
aS'York'
p3154
aaa(lp3155
S'BERNARD'
p3156
a(lp3157
S'Well'
p3158
aaa(lp3159
S'ALICE'
p3160
a(lp3161
aa(lp3162
S'BERNARD'
p3163
a(lp3164
S'they'
p3165
aS'do'
p3166
aaa(lp3167
S'ALICE'
p3168
a(lp3169
aa(lp3170
S'BERNARD'
p3171
a(lp3172
S'Dont'
p3173
aS'they'
p3174
aaa(lp3175
g3171
a(lp3176
S'They'
p3177
aS'have'
p3178
aS'their'
p3179
aS'own'
p3180
aS'ver'
p3181
aaa(lp3182
g3171
a(lp3183
S'They'
p3184
aaa(lp3185
S'ALICE'
p3186
a(lp3187
S'Get'
p3188
aS'me'
p3189
aS'outa'
p3190
aS'New'
p3191
aS'York'
p3192
aaa(lp3193
S'BERNARD'
p3194
a(lp3195
S'They'
p3196
aS'do'
p3197
aaa(lp3198
S'ALICE'
p3199
a(lp3200
S'Got'
p3201
aS'gotta'
p3202
aS'get'
p3203
aS'outa'
p3204
aS'this'
p3205
aS'place'
p3206
aaa(lp3207
S'FRAN'
p3208
a(lp3209
S'We'
p3210
aS'have'
p3211
aS'so'
p3212
aaa(lp3213
g3208
a(lp3214
S'We'
p3215
aaa(lp3216
g3208
a(lp3217
S'What'
p3218
aaa(lp3219
S'ALICE'
p3220
a(lp3221
S'Im'
p3222
ag82
aS'New'
p3223
aS'Yorka'
p3224
aS'holic'
p3225
aaa(lp3226
S'FRAN'
p3227
a(lp3228
g848
aS'Werent'
p3229
aS'we'
p3230
aS'saying'
p3231
ag848
aaa(lp3232
S'BERNARD'
p3233
a(lp3234
S'No'
p3235
aS'shes'
p3236
ag2458
aaa(lp3237
g3233
a(lp3238
S'Shes'
p3239
aS'asking'
p3240
aS'if'
p3241
aS'they'
p3242
aS'have'
p3243
aaa(lp3244
g3233
a(lp3245
S'they'
p3246
aS'should'
p3247
aS'have'
p3248
aS'an'
p3249
aS'addiction'
p3250
aS'to'
p3251
aS'New'
p3252
aS'York'
p3253
aaa(lp3254
S'SEAN'
p3255
a(lp3256
S'Or'
p3257
aaa(lp3258
S'FRAN'
p3259
a(lp3260
S'Oh'
p3261
aaa(lp3262
g3259
a(lp3263
S'New'
p3264
aS'Yorkers'
p3265
aS'Anonymous'
p3266
aaa(lp3267
S'SEAN'
p3268
a(lp3269
S'Or'
p3270
aS'if'
p3271
aS'they'
p3272
aS'have'
p3273
aS'like'
p3274
ag82
aaa(lp3275
g3268
a(lp3276
S'special'
p3277
aS'kind'
p3278
aS'of'
p3279
aS'like'
p3280
aaa(lp3281
g3268
a(lp3282
S'yeah'
p3283
aaa(lp3284
S'FRAN'
p3285
a(lp3286
S'Yeah'
p3287
aaa(lp3288
S'ALICE'
p3289
a(lp3290
g848
aS'Didnt'
p3291
aS'matter'
p3292
ag848
ag848
aaa(lp3293
S'BERNARD'
p3294
a(lp3295
S'But'
p3296
aS'they'
p3297
aS'do'
p3298
aS'have'
p3299
ag82
aaa(lp3300
S'SEAN'
p3301
a(lp3302
S'But'
p3303
aS'in'
p3304
aS'fact'
p3305
aaa(lp3306
S'BERNARD'
p3307
a(lp3308
S'they'
p3309
aS'do'
p3310
aS'have'
p3311
aS'an'
p3312
aS'AA'
p3313
aaa(lp3314
S'SEAN'
p3315
a(lp3316
S'AA'
p3317
aS'is'
p3318
aS'dif'
p3319
aaa(lp3320
g3315
a(lp3321
S'completely'
p3322
aS'different'
p3323
aS'in'
p3324
aS'New'
p3325
aS'York'
p3326
aS'City'
p3327
aaa(lp3328
S'BERNARD'
p3329
a(lp3330
S'which'
p3331
aS'is'
p3332
aaa(lp3333
g3329
a(lp3334
S'different'
p3335
aaa(lp3336
S'SEAN'
p3337
a(lp3338
S'than'
p3339
aS'it'
p3340
aS'is'
p3341
aS'anywhere'
p3342
aS'else'
p3343
aS'in'
p3344
aS'the'
p3345
aS'world'
p3346
aaa(lp3347
S'BERNARD'
p3348
a(lp3349
S'Thats'
p3350
aS'right'
p3351
aaa(lp3352
S'FRAN'
p3353
a(lp3354
S'Well'
p3355
aS'the'
p3356
aS'Village'
p3357
aS'is'
p3358
aaa(lp3359
S'BERNARD'
p3360
a(lp3361
S'Dont'
p3362
aS'you'
p3363
aS'think'
p3364
aaa(lp3365
S'SEAN'
p3366
a(lp3367
S'Much'
p3368
aS'more'
p3369
aS'exciting'
p3370
aaa(lp3371
S'FRAN'
p3372
a(lp3373
S'Yes'
p3374
aaa(lp3375
g3372
a(lp3376
S'its'
p3377
aS'true'
p3378
aaa(lp3379
S'SEAN'
p3380
a(lp3381
S'better'
p3382
aS'speak'
p3383
aaa(lp3384
S'ALICE'
p3385
a(lp3386
g848
aS'Really'
p3387
ag848
aaa(lp3388
S'FRAN'
p3389
a(lp3390
S'Well'
p3391
aaa(lp3392
g3389
a(lp3393
S'the'
p3394
aS'thing'
p3395
aS'that'
p3396
aaa(lp3397
S'SEAN'
p3398
a(lp3399
S'VOXHI'
p3400
aS'Oh'
p3401
aS'the'
p3402
aS'best'
p3403
aS'speakers'
p3404
aS'in'
p3405
aS'the'
p3406
aS'world'
p3407
aS'HI'
p3408
aaa(lp3409
S'BERNARD'
p3410
a(lp3411
S'You'
p3412
aS'know'
p3413
aaa(lp3414
g3410
a(lp3415
S'you'
p3416
aS'know'
p3417
aS'what'
p3418
aS'the'
p3419
aS'saying'
p3420
aS'in'
p3421
aS'AA'
p3422
aS'is'
p3423
aaa(lp3424
S'SEAN'
p3425
a(lp3426
S'Because'
p3427
aS'you'
p3428
aS'have'
p3429
aS'all'
p3430
aS'those'
p3431
aS'famous'
p3432
aS'people'
p3433
aS'VOX'
p3434
aaa(lp3435
S'BERNARD'
p3436
a(lp3437
S'If'
p3438
aS'you'
p3439
aS'can'
p3440
aaa(lp3441
g3436
a(lp3442
S'or'
p3443
aS'in'
p3444
aS'New'
p3445
aS'York'
p3446
aaa(lp3447
g3436
a(lp3448
S'we'
p3449
aS'weve'
p3450
aS'always'
p3451
aS'heard'
p3452
aS'that'
p3453
aS'the'
p3454
aS'saying'
p3455
aS'is'
p3456
aaa(lp3457
g3436
a(lp3458
S'if'
p3459
aS'you'
p3460
aS'can'
p3461
aS'stay'
p3462
aaa(lp3463
S'ENV'
p3464
a(lp3465
aa(lp3466
S'BERNARD'
p3467
a(lp3468
S'New'
p3469
aS'Yorkers'
p3470
aS'say'
p3471
aaa(lp3472
g3467
a(lp3473
S'if'
p3474
aS'you'
p3475
aS'can'
p3476
aS'stay'
p3477
aS'sober'
p3478
aS'in'
p3479
aS'AA'
p3480
aaa(lp3481
g3467
a(lp3482
S'you'
p3483
aS'can'
p3484
aS'stay'
p3485
aS'sober'
p3486
aS'anywhere'
p3487
aaa(lp3488
S'ENV'
p3489
a(lp3490
aa(lp3491
S'FRAN'
p3492
a(lp3493
S'Its'
p3494
aS'true'
p3495
aaa(lp3496
S'BERNARD'
p3497
a(lp3498
aa(lp3499
S'FRAN'
p3500
a(lp3501
aa(lp3502
g3500
a(lp3503
S'And'
p3504
aS'we'
p3505
aS'even'
p3506
aS'say'
p3507
aS'that'
p3508
aS'about'
p3509
aS'certain'
p3510
aS'meetings'
p3511
aaa(lp3512
S'ENV'
p3513
a(lp3514
aa(lp3515
S'FRAN'
p3516
a(lp3517
S'If'
p3518
aS'you'
p3519
aS'can'
p3520
aS'stay'
p3521
aS'sober'
p3522
aS'at'
p3523
aaa(lp3524
S'SEAN'
p3525
a(lp3526
S'Plus'
p3527
aS'really'
p3528
aS'smart'
p3529
aS'people'
p3530
aaa(lp3531
S'BERNARD'
p3532
a(lp3533
S'F'
p3534
aS'Jessa'
p3535
aaa(lp3536
g3532
a(lp3537
S'Calm'
p3538
aS'down'
p3539
ag3534
aaa(lp3540
S'SEAN'
p3541
a(lp3542
S'You'
p3543
aS'know'
p3544
aaa(lp3545
S'BERNARD'
p3546
a(lp3547
S'Quit'
p3548
aS'that'
p3549
aS'crying'
p3550
aaa(lp3551
S'FRAN'
p3552
a(lp3553
S'Well'
p3554
aS'New'
p3555
aS'Yorkers'
p3556
aS'are'
p3557
aS'extremely'
p3558
aS'candid'
p3559
aaa(lp3560
g3552
a(lp3561
S'And'
p3562
aaa(lp3563
g3552
a(lp3564
S'also'
p3565
aaa(lp3566
g3552
a(lp3567
S'very'
p3568
aaa(lp3569
g3552
a(lp3570
S'emotionally'
p3571
aS'accessible'
p3572
aaa(lp3573
g3552
a(lp3574
S'Which'
p3575
aS'is'
p3576
aS'not'
p3577
aS'the'
p3578
aS'reputation'
p3579
aS'we'
p3580
aS'have'
p3581
aS'outside'
p3582
aaa(lp3583
g3552
a(lp3584
S'Of'
p3585
aS'New'
p3586
aS'York'
p3587
aaa(lp3588
g3552
a(lp3589
S'But'
p3590
aaa(lp3591
g3552
a(lp3592
S'you'
p3593
aS'know'
p3594
aaa(lp3595
g3552
a(lp3596
g5
aS'mean'
p3597
aaa(lp3598
g3552
a(lp3599
S'if'
p3600
aS'you'
p3601
aS'ask'
p3602
ag82
aS'cab'
p3603
aS'driver'
p3604
aaa(lp3605
g3552
a(lp3606
S'if'
p3607
aS'he'
p3608
aS'speaks'
p3609
aS'English'
p3610
aaa(lp3611
g3552
a(lp3612
S'Okay'
p3613
aaa(lp3614
g3552
a(lp3615
S'lets'
p3616
aS'assume'
p3617
aS'you'
p3618
aS'got'
p3619
aS'one'
p3620
aS'who'
p3621
aS'speaks'
p3622
aS'English'
p3623
aaa(lp3624
g3552
a(lp3625
S'And'
p3626
aS'hes'
p3627
aS'sorta'
p3628
aS'been'
p3629
ag82
aS'little'
p3630
aS'bit'
p3631
aS'acculturated'
p3632
aaa(lp3633
g3552
a(lp3634
S'you'
p3635
aS'know'
p3636
aaa(lp3637
g3552
a(lp3638
S'But'
p3639
aS'if'
p3640
aS'you'
p3641
aS'g'
p3642
aaa(lp3643
g3552
a(lp3644
S'Not'
p3645
aS'not'
p3646
aS'the'
p3647
aS'Pakistanis'
p3648
aS'fresh'
p3649
aS'off'
p3650
aS'the'
p3651
aaa(lp3652
g3552
a(lp3653
S'off'
p3654
aS'the'
p3655
aS'boat'
p3656
aaa(lp3657
S'ALICE'
p3658
a(lp3659
S'Yeah'
p3660
aaa(lp3661
S'FRAN'
p3662
a(lp3663
S'or'
p3664
aS'any'
p3665
aS'of'
p3666
aS'that'
p3667
aaa(lp3668
g3662
a(lp3669
S'You'
p3670
aS'know'
p3671
aaa(lp3672
g3662
a(lp3673
S'but'
p3674
aS'you'
p3675
aS'get'
p3676
aS'your'
p3677
aS'basic'
p3678
aS'New'
p3679
aS'York'
p3680
aS'cab'
p3681
aS'driver'
p3682
aaa(lp3683
S'SEAN'
p3684
a(lp3685
S'They'
p3686
aS'talk'
p3687
aaa(lp3688
S'FRAN'
p3689
a(lp3690
S'and'
p3691
aS'you'
p3692
aaa(lp3693
g3689
a(lp3694
S'You'
p3695
aS'say'
p3696
aaa(lp3697
g3689
a(lp3698
S'you'
p3699
aS'know'
p3700
aaa(lp3701
g3689
a(lp3702
S'hows'
p3703
aS'it'
p3704
aS'going'
p3705
aaa(lp3706
g3689
a(lp3707
S'Hell'
p3708
aS'tell'
p3709
aS'you'
p3710
aaa(lp3711
S'SEAN'
p3712
a(lp3713
S'Yep'
p3714
aS'he'
p3715
aaa(lp3716
g3712
a(lp3717
S'Unhunh'
p3718
aaa(lp3719
S'FRAN'
p3720
a(lp3721
S'You'
p3722
aS'know'
p3723
aaa(lp3724
g3720
a(lp3725
g5
aS'mean'
p3726
aaa(lp3727
g3720
a(lp3728
S'HI'
p3729
ag5
aS'had'
p3730
aS'one'
p3731
aS'guy'
p3732
aaa(lp3733
g3720
a(lp3734
S'he'
p3735
aS'talked'
p3736
aS'to'
p3737
aS'me'
p3738
aS'the'
p3739
aS'whole'
p3740
aS'time'
p3741
ag5
aS'was'
p3742
aS'dr'
p3743
aS'HI'
p3744
aaa(lp3745
g3720
a(lp3746
S'about'
p3747
aS'this'
p3748
aS'new'
p3749
aS'diet'
p3750
aS'he'
p3751
aS'was'
p3752
aS'on'
p3753
aaa(lp3754
g3720
a(lp3755
S'and'
p3756
aaa(lp3757
g3720
a(lp3758
S'he'
p3759
aS'ate'
p3760
aS'apples'
p3761
aaa(lp3762
g3720
a(lp3763
S'and'
p3764
aS'his'
p3765
aS'wife'
p3766
aS'was'
p3767
aS'really'
p3768
aS'happy'
p3769
aaa(lp3770
g3720
a(lp3771
S'and'
p3772
aaa(lp3773
g3720
a(lp3774
S'and'
p3775
aS'their'
p3776
aS'sex'
p3777
aS'life'
p3778
aS'had'
p3779
aS'improved'
p3780
aaa(lp3781
g3720
a(lp3782
S'and'
p3783
aaa(lp3784
g3720
a(lp3785
S'and'
p3786
aS'this'
p3787
aS'is'
p3788
ag82
aS'guy'
p3789
aS'like'
p3790
aS'seventy'
p3791
aS'years'
p3792
aS'old'
p3793
aaa(lp3794
g3720
a(lp3795
S'or'
p3796
aS'something'
p3797
aaa(lp3798
g3720
a(lp3799
S'hed'
p3800
aS'been'
p3801
aS'driving'
p3802
ag82
aS'cab'
p3803
aS'for'
p3804
aS'forty'
p3805
aS'years'
p3806
aaa(lp3807
g3720
a(lp3808
S'and'
p3809
aS'proud'
p3810
aS'of'
p3811
aS'it'
p3812
aaa(lp3813
g3720
a(lp3814
S'and'
p3815
aaa(lp3816
g3720
a(lp3817
S'his'
p3818
aS'kids'
p3819
aS'went'
p3820
aS'through'
p3821
aS'this'
p3822
aS'school'
p3823
aS'and'
p3824
aS'that'
p3825
ag2458
aaa(lp3826
g3720
a(lp3827
g5
aS'mean'
p3828
aaa(lp3829
g3720
a(lp3830
S'very'
p3831
aS'open'
p3832
aaa(lp3833
g3720
a(lp3834
S'And'
p3835
aaa(lp3836
g3720
a(lp3837
S'the'
p3838
aaa(lp3839
g3720
a(lp3840
S'But'
p3841
aS'the'
p3842
aS'r'
p3843
aaa(lp3844
g3720
a(lp3845
S'The'
p3846
aS'new'
p3847
aaa(lp3848
g3720
a(lp3849
S'The'
p3850
aS'b'
p3851
aS'New'
p3852
aS'Yorker'
p3853
aS'is'
p3854
aS'usually'
p3855
aS'in'
p3856
ag82
aS'hurry'
p3857
aaa(lp3858
g3720
a(lp3859
S'And'
p3860
aS'so'
p3861
aS'theyll'
p3862
aS'tell'
p3863
aS'you'
p3864
aS'anything'
p3865
aaa(lp3866
g3720
a(lp3867
S'theyll'
p3868
aS'give'
p3869
aS'you'
p3870
aS'anything'
p3871
aaa(lp3872
g3720
a(lp3873
S'But'
p3874
aS'just'
p3875
aS'hurry'
p3876
aS'up'
p3877
aS'and'
p3878
aS'tell'
p3879
aS'em'
p3880
aS'exactly'
p3881
aS'what'
p3882
aS'you'
p3883
aS'want'
p3884
aaa(lp3885
S'ALICE'
p3886
a(lp3887
g5
ag5
aS'can'
p3888
aS'never'
p3889
aS'get'
p3890
ag82
aS'cab'
p3891
aS'in'
p3892
aS'New'
p3893
aS'York'
p3894
aaa(lp3895
g3886
a(lp3896
S'Cause'
p3897
aS'everybody'
p3898
aS'takes'
p3899
aS'it'
p3900
aS'away'
p3901
aS'from'
p3902
aS'me'
p3903
aaa(lp3904
S'BERNARD'
p3905
a(lp3906
aa(lp3907
S'ALICE'
p3908
a(lp3909
g5
aS'mean'
p3910
aS'when'
p3911
ag5
aS'am'
p3912
aaa(lp3913
g3908
a(lp3914
S'Im'
p3915
aS'just'
p3916
aS'there'
p3917
aS'for'
p3918
aS'hours'
p3919
aaa(lp3920
g3908
a(lp3921
S'fo'
p3922
ag122
aS'wi'
p3923
aaa(lp3924
S'BERNARD'
p3925
a(lp3926
g998
aS'you'
p3927
aS'gotta'
p3928
aS'jump'
p3929
aaa(lp3930
S'ALICE'
p3931
a(lp3932
g5
aaa(lp3933
g3931
a(lp3934
g5
aS'cant'
p3935
aS'do'
p3936
aS'it'
p3937
aaa(lp3938
S'BERNARD'
p3939
a(lp3940
S'Yeah'
p3941
aaa(lp3942
S'ALICE'
p3943
a(lp3944
g5
aS'go'
p3945
aaa(lp3946
S'BERNARD'
p3947
a(lp3948
S'Its'
p3949
ag82
aaa(lp3950
S'ALICE'
p3951
a(lp3952
S'Okay'
p3953
aaa(lp3954
g3951
a(lp3955
S'Im'
p3956
aS'outa'
p3957
aS'here'
p3958
aaa(lp3959
g3951
a(lp3960
S'If'
p3961
aS'you'
p3962
aS'dont'
p3963
aS'wanna'
p3964
aS'take'
p3965
aS'me'
p3966
aaa(lp3967
g3951
a(lp3968
g5
aS'wont'
p3969
aS'go'
p3970
aaa(lp3971
S'FRAN'
p3972
a(lp3973
aa(lp3974
S'ALICE'
p3975
a(lp3976
g5
aS'just'
p3977
aS'cant'
p3978
aS'get'
p3979
ag82
aS'cab'
p3980
aaa(lp3981
S'SEAN'
p3982
a(lp3983
S'Well'
p3984
aS'how'
p3985
aS'do'
p3986
aS'you'
p3987
aS'get'
p3988
aS'around'
p3989
aaa(lp3990
S'ALICE'
p3991
a(lp3992
g5
aS'just'
p3993
aS'wait'
p3994
aS'for'
p3995
aS'that'
p3996
aS'hour'
p3997
aaa(lp3998
g3991
a(lp3999
S'Until'
p4000
aaa(lp4001
S'SEAN'
p4002
a(lp4003
S'Oh'
p4004
aaa(lp4005
S'BERNARD'
p4006
a(lp4007
aa(lp4008
S'ALICE'
p4009
a(lp4010
S'you'
p4011
aS'know'
p4012
aaa(lp4013
g4009
a(lp4014
S'its'
p4015
aS'like'
p4016
aS'two'
p4017
aS'AM'
p4018
aaa(lp4019
g4009
a(lp4020
S'Okay'
p4021
aaa(lp4022
g4009
a(lp4023
S'no'
p4024
aS'one'
p4025
aS'is'
p4026
aS'here'
p4027
aaa(lp4028
g4009
a(lp4029
S'no'
p4030
aS'competition'
p4031
aaa(lp4032
g4009
a(lp4033
S'Im'
p4034
aS'gonna'
p4035
aS'get'
p4036
aS'this'
p4037
aS'cab'
p4038
aaa(lp4039
S'BERNARD'
p4040
a(lp4041
aa(lp4042
S'ALICE'
p4043
a(lp4044
S'My'
p4045
aS'kids'
p4046
aS'said'
p4047
aaa(lp4048
S'BERNARD'
p4049
a(lp4050
S'Oh'
p4051
aaa(lp4052
S'ALICE'
p4053
a(lp4054
S'VOX'
p4055
aS'come'
p4056
aS'on'
p4057
aaa(lp4058
g4053
a(lp4059
S'youre'
p4060
aS'VOX'
p4061
aaa(lp4062
g4053
a(lp4063
S'WH'
p4064
ag5
aS'said'
p4065
aaa(lp4066
g4053
a(lp4067
S'Im'
p4068
aS'doing'
p4069
aS'the'
p4070
aS'best'
p4071
ag5
aS'can'
p4072
aS'WH'
p4073
aaa(lp4074
S'SEAN'
p4075
a(lp4076
aa(lp4077
S'BERNARD'
p4078
a(lp4079
aa(lp4080
S'ALICE'
p4081
a(lp4082
g738
aS'You'
p4083
aS'know'
p4084
ag738
aaa(lp4085
g4081
a(lp4086
g5
aS'really'
p4087
aS'am'
p4088
aaa(lp4089
g4081
a(lp4090
S'this'
p4091
aS'is'
p4092
aS'me'
p4093
aS'being'
p4094
aS'assertive'
p4095
aaa(lp4096
S'BERNARD'
p4097
a(lp4098
S'MRC'
p4099
aS'Jump'
p4100
aS'out'
p4101
aS'MRC'
p4102
aaa(lp4103
S'ALICE'
p4104
a(lp4105
aa(lp4106
S'BERNARD'
p4107
a(lp4108
S'and'
p4109
aS'open'
p4110
aS'the'
p4111
aS'door'
p4112
aS'fast'
p4113
aaa(lp4114
S'FRAN'
p4115
a(lp4116
S'Well'
p4117
aS'theres'
p4118
aS'also'
p4119
ag82
aS'lighting'
p4120
aS'system'
p4121
aaa(lp4122
S'BERNARD'
p4123
a(lp4124
g738
ag738
aaa(lp4125
S'FRAN'
p4126
a(lp4127
S'that'
p4128
aS'if'
p4129
aS'you'
p4130
aS'dont'
p4131
aS'understand'
p4132
aS'it'
p4133
aaa(lp4134
S'ALICE'
p4135
a(lp4136
S'Ah'
p4137
aaa(lp4138
S'FRAN'
p4139
a(lp4140
S'its'
p4141
aS'confusing'
p4142
aaa(lp4143
g4139
a(lp4144
S'Because'
p4145
aaa(lp4146
g4139
a(lp4147
S'theres'
p4148
ag82
aS'light'
p4149
aS'on'
p4150
aS'the'
p4151
aS'top'
p4152
aaa(lp4153
g4139
a(lp4154
S'that'
p4155
aS'tells'
p4156
aS'you'
p4157
aS'if'
p4158
aS'theyre'
p4159
aS'on'
p4160
aS'duty'
p4161
aS'or'
p4162
aS'off'
p4163
aS'duty'
p4164
aaa(lp4165
g4139
a(lp4166
S'and'
p4167
aS'if'
p4168
aS'they'
p4169
aS'have'
p4170
ag82
aS'fare'
p4171
aS'or'
p4172
aS'not'
p4173
aaa(lp4174
g4139
a(lp4175
S'And'
p4176
aS'you'
p4177
aS'can'
p4178
aS'wave'
p4179
aS'forever'
p4180
aaa(lp4181
g4139
a(lp4182
S'and'
p4183
aS'if'
p4184
aS'they'
p4185
aS'have'
p4186
aS'fares'
p4187
aaa(lp4188
g4139
a(lp4189
S'they'
p4190
aS'c'
p4191
aS'they'
p4192
aS'wont'
p4193
aS'stop'
p4194
aaa(lp4195
S'ALICE'
p4196
a(lp4197
S'No'
p4198
aaa(lp4199
g4196
a(lp4200
S'they'
p4201
aS'would'
p4202
aS'always'
p4203
aS'stop'
p4204
aS'and'
p4205
aaa(lp4206
g4196
a(lp4207
g5
aS'would'
p4208
aS'get'
p4209
aS'em'
p4210
aaa(lp4211
g4196
a(lp4212
S'its'
p4213
aS'just'
p4214
aS'the'
p4215
aS'person'
p4216
aS'behind'
p4217
aS'me'
p4218
aaa(lp4219
g4196
a(lp4220
S'pushing'
p4221
aS'me'
p4222
aS'out'
p4223
aS'of'
p4224
aS'the'
p4225
aS'way'
p4226
aaa(lp4227
g4196
a(lp4228
S'Getting'
p4229
aS'into'
p4230
aS'the'
p4231
aS'cab'
p4232
aaa(lp4233
S'FRAN'
p4234
a(lp4235
S'Where'
p4236
aS'were'
p4237
aS'you'
p4238
aaa(lp4239
g4234
a(lp4240
S'in'
p4241
aS'front'
p4242
aS'of'
p4243
aS'Saks'
p4244
aS'or'
p4245
aS'something'
p4246
aaa(lp4247
S'BERNARD'
p4248
a(lp4249
aa(lp4250
S'ALICE'
p4251
a(lp4252
S'Grand'
p4253
aS'Central'
p4254
aS'Station'
p4255
aS'probably'
p4256
aaa(lp4257
S'FRAN'
p4258
a(lp4259
S'Oh'
p4260
aS'Grand'
p4261
aS'Central'
p4262
aaa(lp4263
S'BERNARD'
p4264
a(lp4265
g3534
ag3534
aaa(lp4266
S'ALICE'
p4267
a(lp4268
g3534
ag3534
aaa(lp4269
S'FRAN'
p4270
a(lp4271
S'Oh'
p4272
aaa(lp4273
g4270
a(lp4274
S'Im'
p4275
aS'guilty'
p4276
aaa(lp4277
g4270
a(lp4278
S'Grand'
p4279
aS'Central'
p4280
aaa(lp4281
g4270
a(lp4282
g5
aS'had'
p4283
ag82
aS'client'
p4284
aS'in'
p4285
aS'the'
p4286
aS'office'
p4287
aS'building'
p4288
aS'next'
p4289
aS'to'
p4290
aS'Grand'
p4291
aS'Central'
p4292
aaa(lp4293
S'ALICE'
p4294
a(lp4295
aa(lp4296
S'FRAN'
p4297
a(lp4298
S'and'
p4299
ag5
aS'used'
p4300
aS'to'
p4301
aS'get'
p4302
aS'in'
p4303
aS'there'
p4304
aS'and'
p4305
aS'muscle'
p4306
aS'people'
p4307
aS'in'
p4308
aS'front'
p4309
aS'of'
p4310
aS'me'
p4311
aaa(lp4312
S'ALICE'
p4313
a(lp4314
S'Its'
p4315
aS'impossible'
p4316
aaa(lp4317
S'FRAN'
p4318
a(lp4319
S'Yeah'
p4320
aS'really'
p4321
aaa(lp4322
S'ALICE'
p4323
a(lp4324
S'Ive'
p4325
aS'always'
p4326
aaa(lp4327
S'FRAN'
p4328
a(lp4329
S'Cause'
p4330
aS'its'
p4331
aS'an'
p4332
aaa(lp4333
g4328
a(lp4334
g82
aS'constant'
p4335
aS'flow'
p4336
aaa(lp4337
S'ALICE'
p4338
a(lp4339
S'Its'
p4340
aS'horrible'
p4341
aaa(lp4342
S'BERNARD'
p4343
a(lp4344
S'New'
p4345
aS'Yorkers'
p4346
aS'are'
p4347
aaa(lp4348
g4343
a(lp4349
S'Yeah'
p4350
aaa(lp4351
g4343
a(lp4352
S'Its'
p4353
aaa(lp4354
g4343
a(lp4355
S'Youre'
p4356
aS'in'
p4357
ag82
aS'hurry'
p4358
aaa(lp4359
g4343
a(lp4360
S'youre'
p4361
aS'in'
p4362
ag82
aS'rush'
p4363
aaa(lp4364
g4343
a(lp4365
S'and'
p4366
aS'you'
p4367
aS'learn'
p4368
aS'to'
p4369
aS'be'
p4370
ag82
aS'little'
p4371
aS'assertive'
p4372
aaa(lp4373
S'FRAN'
p4374
a(lp4375
S'Yeah'
p4376
aaa(lp4377
S'BERNARD'
p4378
a(lp4379
S'Or'
p4380
aS'is'
p4381
aS'it'
p4382
aS'aggressive'
p4383
aaa(lp4384
S'SEAN'
p4385
a(lp4386
S'Um'
p4387
aaa(lp4388
S'FRAN'
p4389
a(lp4390
S'Well'
p4391
aS'its'
p4392
aaa(lp4393
S'SEAN'
p4394
a(lp4395
S'who'
p4396
aS'would'
p4397
aS'like'
p4398
aS'what'
p4399
aS'to'
p4400
aS'drink'
p4401
aS'with'
p4402
aS'dinner'
p4403
aaa(lp4404
S'ALICE'
p4405
a(lp4406
aa(lp4407
g4405
a(lp4408
S'Its'
p4409
aS'ballistic'
p4410
aaa(lp4411
S'SEAN'
p4412
a(lp4413
S'Heres'
p4414
aS'the'
p4415
aS'choices'
p4416
aaa(lp4417
S'ALICE'
p4418
a(lp4419
g848
ag5
aS'have'
p4420
ag848
aaa(lp4421
S'SEAN'
p4422
a(lp4423
S'Mineral'
p4424
aS'water'
p4425
aaa(lp4426
g4422
a(lp4427
S'root'
p4428
aS'beer'
p4429
aaa(lp4430
g4422
a(lp4431
S'diet'
p4432
aS'soda'
p4433
aaa(lp4434
g4422
a(lp4435
S'or'
p4436
aS'um'
p4437
aaa(lp4438
g4422
a(lp4439
S'kinda'
p4440
aS'strawberry'
p4441
aS'so'
p4442
aS'soda'
p4443
aaa(lp4444
S'ALICE'
p4445
a(lp4446
S'How'
p4447
aS'about'
p4448
aS'regular'
p4449
aS'water'
p4450
aaa(lp4451
S'FRAN'
p4452
a(lp4453
g848
ag5
aS'think'
p4454
ag848
aS're'
p4455
aS'um'
p4456
aaa(lp4457
g4452
a(lp4458
S'mineral'
p4459
aS'water'
p4460
aS'is'
p4461
aS'what'
p4462
ag5
aS'want'
p4463
aaa(lp4464
S'SEAN'
p4465
a(lp4466
S'Okay'
p4467
aaa(lp4468
S'ALICE'
p4469
a(lp4470
S'Regular'
p4471
aS'water'
p4472
aaa(lp4473
g4469
a(lp4474
S'do'
p4475
aS'you'
p4476
aS'have'
p4477
aS'that'
p4478
aaa(lp4479
S'SEAN'
p4480
a(lp4481
S'Yep'
p4482
aaa(lp4483
g4480
a(lp4484
S'Oh'
p4485
aS'we'
p4486
aS'have'
p4487
aS'lots'
p4488
aS'of'
p4489
aS'that'
p4490
aaa(lp4491
S'FRAN'
p4492
a(lp4493
S'Sean'
p4494
aaa(lp4495
g4492
a(lp4496
S'Im'
p4497
aS'looking'
p4498
aS'at'
p4499
aS'all'
p4500
aS'the'
p4501
aS'paintings'
p4502
aS'around'
p4503
aaa(lp4504
g4492
a(lp4505
S'its'
p4506
aS'wonderful'
p4507
aS'to'
p4508
aS'see'
p4509
aS'your'
p4510
aS'work'
p4511
aaa(lp4512
g4492
a(lp4513
S'uh'
p4514
aaa(lp4515
S'SEAN'
p4516
a(lp4517
S'Thank'
p4518
aS'you'
p4519
aaa(lp4520
S'FRAN'
p4521
a(lp4522
g5
aS'particularly'
p4523
aS'like'
p4524
aS'this'
p4525
aS'one'
p4526
aaa(lp4527
g4521
a(lp4528
S'Theres'
p4529
aS'something'
p4530
aaa(lp4531
g4521
a(lp4532
S'that'
p4533
aS'makes'
p4534
aS'it'
p4535
aaa(lp4536
g4521
a(lp4537
S'That'
p4538
aS'feels'
p4539
aS'almost'
p4540
aS'Japanese'
p4541
aS'about'
p4542
aS'it'
p4543
aaa(lp4544
S'SEAN'
p4545
a(lp4546
S'What'
p4547
aaa(lp4548
S'ALICE'
p4549
a(lp4550
g848
aS'Whole'
p4551
aS'year'
p4552
ag848
aaa(lp4553
S'FRAN'
p4554
a(lp4555
S'This'
p4556
aS'almost'
p4557
aS'feels'
p4558
aS'Japanese'
p4559
aaa(lp4560
S'SEAN'
p4561
a(lp4562
aa(lp4563
g4561
a(lp4564
S'Oh'
p4565
aaa(lp4566
g4561
a(lp4567
S'that'
p4568
aS'one'
p4569
aS'goes'
p4570
aS'with'
p4571
aaa(lp4572
g4561
a(lp4573
S'Thats'
p4574
aS'um'
p4575
aaa(lp4576
g4561
a(lp4577
S'um'
p4578
aaa(lp4579
g4561
a(lp4580
g738
aS'God'
p4581
aS'XXXXX'
p4582
ag738
aaa(lp4583
g4561
a(lp4584
S'Isis'
p4585
aS'and'
p4586
aS'Osiris'
p4587
aaa(lp4588
g4561
a(lp4589
S'Osiris'
p4590
aaa(lp4591
S'FRAN'
p4592
a(lp4593
S'Mm'
p4594
aaa(lp4595
S'SEAN'
p4596
a(lp4597
S'and'
p4598
aaa(lp4599
g4596
a(lp4600
S'and'
p4601
aaa(lp4602
g4596
a(lp4603
S'with'
p4604
aS'his'
p4605
aS'fourteen'
p4606
aS'pieces'
p4607
aS'cut'
p4608
aS'up'
p4609
aaa(lp4610
g4596
a(lp4611
S'and'
p4612
aS'Isis'
p4613
aaa(lp4614
S'FRAN'
p4615
a(lp4616
S'Mm'
p4617
aaa(lp4618
S'SEAN'
p4619
a(lp4620
S'But'
p4621
aS'there'
p4622
aS'is'
p4623
ag82
aS'Japanese'
p4624
aaa(lp4625
g4619
a(lp4626
S'because'
p4627
aS'this'
p4628
aaa(lp4629
g4619
a(lp4630
S'These'
p4631
aS'were'
p4632
aS'um'
p4633
aaa(lp4634
g4619
a(lp4635
S'old'
p4636
aS'temple'
p4637
aS'hangings'
p4638
aaa(lp4639
S'FRAN'
p4640
a(lp4641
S'XX'
p4642
aaa(lp4643
g4640
a(lp4644
S'Oh'
p4645
aaa(lp4646
S'SEAN'
p4647
a(lp4648
S'That'
p4649
ag5
ag4191
aS'uh'
p4650
aS'that'
p4651
ag5
aS'cut'
p4652
aS'up'
p4653
aaa(lp4654
S'FRAN'
p4655
a(lp4656
S'Okay'
p4657
aaa(lp4658
S'SEAN'
p4659
a(lp4660
S'Yep'
p4661
aaa(lp4662
S'ALICE'
p4663
a(lp4664
S'Oh'
p4665
aS'wow'
p4666
aaa(lp4667
g4663
a(lp4668
S'PX'
p4669
aS'Thats'
p4670
aS'good'
p4671
aS'XP'
p4672
aaa(lp4673
S'FRAN'
p4674
a(lp4675
S'You'
p4676
aS'cut'
p4677
aS'up'
p4678
aS'the'
p4679
aS'temple'
p4680
aS'hanging'
p4681
aS'you'
p4682
aS'barbarian'
p4683
aaa(lp4684
S'BERNARD'
p4685
a(lp4686
S'They'
p4687
aS'were'
p4688
aaa(lp4689
S'SEAN'
p4690
a(lp4691
S'Well'
p4692
aaa(lp4693
S'BERNARD'
p4694
a(lp4695
S'They'
p4696
aS'started'
p4697
aS'falling'
p4698
aS'apart'
p4699
aaa(lp4700
S'SEAN'
p4701
a(lp4702
S'They'
p4703
aS'had'
p4704
aS'fallen'
p4705
aS'apart'
p4706
aS'Fran'
p4707
aaa(lp4708
S'FRAN'
p4709
a(lp4710
aa(lp4711
g4709
a(lp4712
S'You'
p4713
aS'actually'
p4714
aS'saved'
p4715
aS'them'
p4716
aaa(lp4717
S'SEAN'
p4718
a(lp4719
g5
ag848
aaa(lp4720
S'ALICE'
p4721
a(lp4722
g848
aS'Right'
p4723
ag848
aaa(lp4724
S'BERNARD'
p4725
a(lp4726
S'Yes'
p4727
aaa(lp4728
S'SEAN'
p4729
a(lp4730
g5
aS'had'
p4731
aS'tried'
p4732
aS'to'
p4733
aaa(lp4734
g4729
a(lp4735
g5
aS'have'
p4736
aS'em'
p4737
aS'in'
p4738
aS'some'
p4739
aS'pillows'
p4740
aaa(lp4741
g4729
a(lp4742
S'and'
p4743
aS'the'
p4744
aS'pillows'
p4745
aS'had'
p4746
aS'finally'
p4747
aS'had'
p4748
aS'it'
p4749
aaa(lp4750
g4729
a(lp4751
S'and'
p4752
ag5
aS'thought'
p4753
aaa(lp4754
g4729
a(lp4755
S'you'
p4756
aS'know'
p4757
aaa(lp4758
g4729
a(lp4759
S'this'
p4760
aS'is'
p4761
aS'it'
p4762
aaa(lp4763
S'FRAN'
p4764
a(lp4765
S'Yeah'
p4766
aaa(lp4767
S'ALICE'
p4768
a(lp4769
S'Recycling'
p4770
aaa(lp4771
g4768
a(lp4772
S'Yes'
p4773
aaa(lp4774
S'FRAN'
p4775
a(lp4776
S'Now'
p4777
aS'Bernard'
p4778
aaa(lp4779
g4775
a(lp4780
S'some'
p4781
aS'of'
p4782
aS'your'
p4783
aS'work'
p4784
aS'is'
p4785
aS'around'
p4786
aS'too'
p4787
aaa(lp4788
S'BERNARD'
p4789
a(lp4790
S'Well'
p4791
aS'theres'
p4792
ag82
aS'couple'
p4793
aS'sculptures'
p4794
aS'here'
p4795
aaa(lp4796
S'SEAN'
p4797
a(lp4798
S'Those'
p4799
aS'heads'
p4800
aaa(lp4801
S'FRAN'
p4802
a(lp4803
S'Yes'
p4804
ag5
aS'see'
p4805
aaa(lp4806
S'SEAN'
p4807
a(lp4808
S'theyre'
p4809
aS'Bernards'
p4810
aaa(lp4811
S'ALICE'
p4812
a(lp4813
g5
aS'love'
p4814
aS'this'
p4815
aaa(lp4816
S'FRAN'
p4817
a(lp4818
S'Yes'
p4819
aaa(lp4820
g4817
a(lp4821
S'Theyre'
p4822
aS'wonderful'
p4823
aaa(lp4824
S'ALICE'
p4825
a(lp4826
g848
ag5
aS'love'
p4827
aS'that'
p4828
ag848
aaa(lp4829
S'FRAN'
p4830
a(lp4831
S'You'
p4832
aS'know'
p4833
aS'Bernard'
p4834
aaa(lp4835
g4830
a(lp4836
g5
aS'hope'
p4837
aS'you'
p4838
aS'arent'
p4839
aS'disappointed'
p4840
aS'when'
p4841
aS'you'
p4842
aS'go'
p4843
aS'to'
p4844
aS'pick'
p4845
aS'up'
p4846
aS'those'
p4847
aS'two'
p4848
aS'bits'
p4849
aaa(lp4850
g4830
a(lp4851
S'that'
p4852
aS'are'
p4853
aS'left'
p4854
aaa(lp4855
g4830
a(lp4856
S'of'
p4857
aS'the'
p4858
aS'sculpture'
p4859
aaa(lp4860
S'BERNARD'
p4861
a(lp4862
g5
aS'wont'
p4863
aS'be'
p4864
aaa(lp4865
S'FRAN'
p4866
a(lp4867
S'You'
p4868
aS'know'
p4869
aaa(lp4870
g4866
a(lp4871
S'but'
p4872
aaa(lp4873
g4866
a(lp4874
S'theyll'
p4875
aS'be'
p4876
aS'nice'
p4877
aS'yard'
p4878
aS'ornaments'
p4879
aaa(lp4880
S'BERNARD'
p4881
a(lp4882
S'Sure'
p4883
aaa(lp4884
g4881
a(lp4885
S'And'
p4886
aaa(lp4887
S'SEAN'
p4888
a(lp4889
S'What'
p4890
aS'do'
p4891
aS'you'
p4892
aS'want'
p4893
aS'to'
p4894
aS'drink'
p4895
aS'Bernard'
p4896
aaa(lp4897
S'BERNARD'
p4898
a(lp4899
S'Im'
p4900
aS'gonna'
p4901
aS'have'
p4902
aS'water'
p4903
aS'also'
p4904
aaa(lp4905
g4898
a(lp4906
S'PX'
p4907
aS'But'
p4908
aS'XP'
p4909
aaa(lp4910
S'SEAN'
p4911
a(lp4912
S'Fizzy'
p4913
aS'or'
p4914
aaa(lp4915
S'ALICE'
p4916
a(lp4917
S'Well'
p4918
aS'how'
p4919
aS'long'
p4920
aaa(lp4921
g4916
a(lp4922
S'When'
p4923
aS'are'
p4924
aS'you'
p4925
aS'gonna'
p4926
aS'be'
p4927
aS'here'
p4928
ag848
aS'till'
p4929
ag848
aaa(lp4930
S'BERNARD'
p4931
a(lp4932
S'Fizzy'
p4933
aaa(lp4934
S'SEAN'
p4935
a(lp4936
S'Okay'
p4937
aaa(lp4938
S'FRAN'
p4939
a(lp4940
S'Ill'
p4941
aS'be'
p4942
aS'here'
p4943
aS'till'
p4944
aS'Wednesday'
p4945
aaa(lp4946
S'ALICE'
p4947
a(lp4948
g738
aS'Oh'
p4949
aaa(lp4950
g4947
a(lp4951
S'just'
p4952
ag82
aS'few'
p4953
aS'days'
p4954
ag738
aaa(lp4955
S'FRAN'
p4956
a(lp4957
S'Well'
p4958
aS'Ive'
p4959
aS'been'
p4960
aS'here'
p4961
aS'for'
p4962
aaa(lp4963
g4956
a(lp4964
S'since'
p4965
aaa(lp4966
g4956
a(lp4967
S'Ill'
p4968
ag5
aS'will'
p4969
aS'have'
p4970
aS'been'
p4971
aS'here'
p4972
aS'two'
p4973
aS'full'
p4974
aS'weeks'
p4975
aaa(lp4976
g4956
a(lp4977
S'By'
p4978
aS'the'
p4979
aS'time'
p4980
ag5
aS'leave'
p4981
aaa(lp4982
g4956
a(lp4983
S'Um'
p4984
aaa(lp4985
g4956
a(lp4986
S'but'
p4987
aS'Ive'
p4988
aS'just'
p4989
aS'been'
p4990
aS'real'
p4991
aS'busy'
p4992
aS'with'
p4993
aaa(lp4994
g4956
a(lp4995
S'with'
p4996
aS'this'
p4997
aS'chore'
p4998
ag5
aS'was'
p4999
aS'taking'
p5000
aS'care'
p5001
aS'of'
p5002
aS'while'
p5003
ag5
aS'was'
p5004
aS'here'
p5005
aaa(lp5006
S'ALICE'
p5007
a(lp5008
S'Oh'
p5009
aaa(lp5010
S'FRAN'
p5011
a(lp5012
S'So'
p5013
aaa(lp5014
g5011
a(lp5015
g5
aS'was'
p5016
aS'emptying'
p5017
ag82
aS'storeroom'
p5018
aaa(lp5019
g5011
a(lp5020
S'and'
p5021
aS'shipping'
p5022
aS'some'
p5023
aS'things'
p5024
aS'back'
p5025
aS'east'
p5026
aaa(lp5027
S'SEAN'
p5028
a(lp5029
S'Her'
p5030
aS'her'
p5031
aS'brother'
p5032
aS'was'
p5033
aS'Jerrod'
p5034
aS'Laker'
p5035
aaa(lp5036
g5028
a(lp5037
S'the'
p5038
aS'one'
p5039
ag5
aS'took'
p5040
aS'care'
p5041
aS'of'
p5042
aaa(lp5043
S'ALICE'
p5044
a(lp5045
S'Oh'
p5046
aS'yeah'
p5047
aaa(lp5048
S'SEAN'
p5049
a(lp5050
S'And'
p5051
aS'shes'
p5052
aS'been'
p5053
aS'sending'
p5054
aS'his'
p5055
aS'things'
p5056
aS'back'
p5057
aaa(lp5058
g5049
a(lp5059
S'He'
p5060
aS'had'
p5061
aS'her'
p5062
aS'brother'
p5063
aS'had'
p5064
ag82
aS'lotta'
p5065
aS'things'
p5066
aaa(lp5067
S'FRAN'
p5068
a(lp5069
S'Yeah'
p5070
aaa(lp5071
g5068
a(lp5072
S'he'
p5073
aS'had'
p5074
ag82
aS'bunch'
p5075
aS'of'
p5076
aS'stuff'
p5077
aaa(lp5078
S'ALICE'
p5079
a(lp5080
S'With'
p5081
aaa(lp5082
g5079
a(lp5083
S'He'
p5084
aaa(lp5085
g5079
a(lp5086
S'He'
p5087
aS'worked'
p5088
aS'for'
p5089
aS'um'
p5090
aaa(lp5091
g5079
a(lp5092
S'Benny'
p5093
aS'Keller'
p5094
aaa(lp5095
S'SEAN'
p5096
a(lp5097
S'Yeah'
p5098
aaa(lp5099
S'FRAN'
p5100
a(lp5101
S'For'
p5102
aS'years'
p5103
aaa(lp5104
g5100
a(lp5105
S'Yes'
p5106
aaa(lp5107
S'ALICE'
p5108
a(lp5109
S'Yeah'
p5110
ag5
aS'kne'
p5111
aaa(lp5112
g5108
a(lp5113
g5
aS'know'
p5114
aS'him'
p5115
aaa(lp5116
S'FRAN'
p5117
a(lp5118
S'Yeah'
p5119
aaa(lp5120
S'ALICE'
p5121
a(lp5122
g5
aS'did'
p5123
aaa(lp5124
S'FRAN'
p5125
a(lp5126
S'Yeah'
p5127
aaa(lp5128
S'ALICE'
p5129
a(lp5130
S'Thats'
p5131
aS'your'
p5132
aS'brother'
p5133
aaa(lp5134
S'FRAN'
p5135
a(lp5136
S'Yeah'
p5137
aaa(lp5138
S'ALICE'
p5139
a(lp5140
S'VOX'
p5141
aS'Oh'
p5142
aS'no'
p5143
aS'VOX'
p5144
aaa(lp5145
S'FRAN'
p5146
a(lp5147
g738
aS'Yeah'
p5148
ag738
aaa(lp5149
g5146
a(lp5150
S'So'
p5151
aaa(lp5152
g5146
a(lp5153
S'his'
p5154
aS'little'
p5155
aS'private'
p5156
aS'collection'
p5157
aaa(lp5158
S'SEAN'
p5159
a(lp5160
g848
aS'can'
p5161
aS'you'
p5162
aS'open'
p5163
aS'the'
p5164
ag848
aS'drawer'
p5165
aS'please'
p5166
aaa(lp5167
S'ALICE'
p5168
a(lp5169
S'So'
p5170
aS'you'
p5171
ag5
aaa(lp5172
S'SEAN'
p5173
a(lp5174
S'XX'
p5175
aaa(lp5176
S'FRAN'
p5177
a(lp5178
S'Im'
p5179
aS'sending'
p5180
aS'back'
p5181
aaa(lp5182
g5177
a(lp5183
S'and'
p5184
aS'it'
p5185
aS'sounds'
p5186
aaa(lp5187
g5177
a(lp5188
S'you'
p5189
aS'know'
p5190
aaa(lp5191
g5177
a(lp5192
S'to'
p5193
aS'use'
p5194
aS'the'
p5195
aS'word'
p5196
aS'collection'
p5197
aS'sounds'
p5198
aS'very'
p5199
aS'grand'
p5200
aaa(lp5201
S'SEAN'
p5202
a(lp5203
S'XX'
p5204
ag848
aaa(lp5205
S'FRAN'
p5206
a(lp5207
S'but'
p5208
aS'its'
p5209
aS'just'
p5210
aS'really'
p5211
ag82
aS'bunch'
p5212
aS'of'
p5213
aaa(lp5214
S'SEAN'
p5215
a(lp5216
g848
aaa(lp5217
S'BERNARD'
p5218
a(lp5219
g848
aS'put'
p5220
aS'this'
p5221
aS'in'
p5222
ag82
aS'plastic'
p5223
aS'bag'
p5224
ag848
aaa(lp5225
S'ALICE'
p5226
a(lp5227
g848
aS'His'
p5228
ag848
aS'personal'
p5229
aS'stuff'
p5230
aaa(lp5231
S'FRAN'
p5232
a(lp5233
S'Yeah'
p5234
aaa(lp5235
g5232
a(lp5236
S'Yeah'
p5237
aaa(lp5238
S'ALICE'
p5239
a(lp5240
S'Hes'
p5241
aS'your'
p5242
aS'only'
p5243
aS'brother'
p5244
aaa(lp5245
S'SEAN'
p5246
a(lp5247
g848
aS'Is'
p5248
aS'the'
p5249
aS'whole'
p5250
aS'ice'
p5251
aS'box'
p5252
aS'gonna'
p5253
aS'smell'
p5254
ag848
aaa(lp5255
S'FRAN'
p5256
a(lp5257
S'Yes'
p5258
aaa(lp5259
g5256
a(lp5260
S'and'
p5261
aS'we'
p5262
aS'were'
p5263
aS'very'
p5264
aS'close'
p5265
aaa(lp5266
g5256
a(lp5267
S'So'
p5268
aaa(lp5269
g5256
a(lp5270
S'it'
p5271
aS'was'
p5272
aS'uh'
p5273
aaa(lp5274
S'SEAN'
p5275
a(lp5276
g5
aS'have'
p5277
ag82
aS'little'
p5278
aS'one'
p5279
aS'right'
p5280
aS'here'
p5281
ag5
aS'think'
p5282
aaa(lp5283
S'FRAN'
p5284
a(lp5285
S'sad'
p5286
ag848
aS'thing'
p5287
ag848
aS'for'
p5288
aS'me'
p5289
aaa(lp5290
g5284
a(lp5291
S'to'
p5292
aS'lose'
p5293
aS'him'
p5294
aS'but'
p5295
aaa(lp5296
g5284
a(lp5297
S'Sean'
p5298
aS'is'
p5299
aS'marvellous'
p5300
aaa(lp5301
g5284
a(lp5302
S'Looking'
p5303
aS'after'
p5304
aS'him'
p5305
aaa(lp5306
g5284
a(lp5307
S'And'
p5308
ag82
aS'fellow'
p5309
aS'named'
p5310
aS'Bob'
p5311
aS'Butler'
p5312
aS'also'
p5313
aaa(lp5314
S'SEAN'
p5315
a(lp5316
g848
aS'How'
p5317
aS'strong'
p5318
aS'is'
p5319
aS'this'
p5320
ag848
aaa(lp5321
S'FRAN'
p5322
a(lp5323
g5
aS'dont'
p5324
aS'know'
p5325
aS'if'
p5326
aS'you'
p5327
aS'know'
p5328
aaa(lp5329
S'ALICE'
p5330
a(lp5331
g5
aS'know'
p5332
aS'Bob'
p5333
aaa(lp5334
S'FRAN'
p5335
a(lp5336
S'Yeah'
p5337
aaa(lp5338
g5335
a(lp5339
S'They'
p5340
aS'were'
p5341
aS'absolute'
p5342
aS'angels'
p5343
aaa(lp5344
S'ALICE'
p5345
a(lp5346
S'Wow'
p5347
aaa(lp5348
S'FRAN'
p5349
a(lp5350
S'So'
p5351
aaa(lp5352
S'ALICE'
p5353
a(lp5354
S'When'
p5355
aS'was'
p5356
aS'that'
p5357
aaa(lp5358
g5353
a(lp5359
S'Two'
p5360
aS'years'
p5361
aS'ago'
p5362
aaa(lp5363
S'FRAN'
p5364
a(lp5365
S'No'
p5366
aaa(lp5367
g5364
a(lp5368
S'Its'
p5369
aS'actually'
p5370
aS'quite'
p5371
ag82
aS'while'
p5372
aS'now'
p5373
aaa(lp5374
S'SEAN'
p5375
a(lp5376
S'Mm'
p5377
aaa(lp5378
S'FRAN'
p5379
a(lp5380
S'Its'
p5381
aS'four'
p5382
aS'years'
p5383
aaa(lp5384
S'X'
p5385
a(lp5386
S'PX'
p5387
aS'four'
p5388
aS'years'
p5389
aS'XP'
p5390
aaa(lp5391
S'FRAN'
p5392
a(lp5393
S'Yeah'
p5394
aaa(lp5395
g5392
a(lp5396
S'its'
p5397
aS'astounding'
p5398
aS'to'
p5399
aS'me'
p5400
aS'that'
p5401
aS'its'
p5402
aS'that'
p5403
aS'length'
p5404
aS'of'
p5405
aS'time'
p5406
aaa(lp5407
S'ALICE'
p5408
a(lp5409
S'And'
p5410
aS'his'
p5411
aS'stuff'
p5412
aS'was'
p5413
aS'put'
p5414
aS'in'
p5415
aS'storage'
p5416
aaa(lp5417
S'FRAN'
p5418
a(lp5419
S'Hmm'
p5420
aaa(lp5421
S'SEAN'
p5422
a(lp5423
S'Okay'
p5424
aaa(lp5425
S'BERNARD'
p5426
a(lp5427
S'FOOD'
p5428
aS'Ill'
p5429
aS'wait'
p5430
aS'with'
p5431
aS'that'
p5432
ag848
aS'and'
p5433
ag848
aaa(lp5434
S'FRAN'
p5435
a(lp5436
S'Yeah'
p5437
ag5
aS'just'
p5438
aS'couldnt'
p5439
aS'believe'
p5440
aaa(lp5441
S'BERNARD'
p5442
a(lp5443
S'Help'
p5444
aS'you'
p5445
aS'out'
p5446
aS'FOOD'
p5447
aaa(lp5448
S'SEAN'
p5449
a(lp5450
S'Sure'
p5451
aaa(lp5452
S'ALICE'
p5453
a(lp5454
S'Oh'
p5455
aS'wow'
p5456
aaa(lp5457
S'SEAN'
p5458
a(lp5459
S'Um'
p5460
aaa(lp5461
S'FRAN'
p5462
a(lp5463
S'For'
p5464
aS'one'
p5465
aS'thing'
p5466
aaa(lp5467
g5462
a(lp5468
g5
aS'had'
p5469
aS'uh'
p5470
aaa(lp5471
S'SEAN'
p5472
a(lp5473
S'You'
p5474
aS'bring'
p5475
aS'the'
p5476
aS'plates'
p5477
aaa(lp5478
S'FRAN'
p5479
a(lp5480
S'such'
p5481
ag82
aS'tiny'
p5482
aS'apartment'
p5483
aaa(lp5484
g5479
a(lp5485
S'Um'
p5486
aaa(lp5487
g5479
a(lp5488
S'when'
p5489
aS'we'
p5490
aS'went'
p5491
aS'back'
p5492
aS'to'
p5493
aS'New'
p5494
aS'York'
p5495
aaa(lp5496
g5479
a(lp5497
S'um'
p5498
aaa(lp5499
g5479
a(lp5500
g5
aS'had'
p5501
ag848
aS'kept'
p5502
ag848
ag82
aS'studio'
p5503
aS'there'
p5504
aaa(lp5505
g5479
a(lp5506
S'And'
p5507
aS'of'
p5508
aS'course'
p5509
aaa(lp5510
g5479
a(lp5511
S'that'
p5512
aS'was'
p5513
aS'small'
p5514
aS'and'
p5515
aaa(lp5516
g5479
a(lp5517
S'and'
p5518
aS'then'
p5519
aaa(lp5520
g5479
a(lp5521
S'we'
p5522
aS'found'
p5523
aS'another'
p5524
aS'studio'
p5525
aaa(lp5526
g5479
a(lp5527
S'in'
p5528
aS'uh'
p5529
aaa(lp5530
g5479
a(lp5531
S'in'
p5532
aS'our'
p5533
aS'neighborhood'
p5534
aaa(lp5535
g5479
a(lp5536
S'that'
p5537
aS'we'
p5538
aS'liked'
p5539
aaa(lp5540
g5479
a(lp5541
S'in'
p5542
aS'the'
p5543
aS'Village'
p5544
aaa(lp5545
g5479
a(lp5546
S'and'
p5547
aS'we'
p5548
aS'moved'
p5549
aS'into'
p5550
aS'that'
p5551
aaa(lp5552
g5479
a(lp5553
S'and'
p5554
aS'we'
p5555
aS'just'
p5556
aS'got'
p5557
aS'so'
p5558
aS'busy'
p5559
aaa(lp5560
g5479
a(lp5561
S'we'
p5562
aS'didnt'
p5563
aS'get'
p5564
aS'around'
p5565
aS'to'
p5566
aS'moving'
p5567
aS'into'
p5568
ag82
aS'real'
p5569
aS'apartment'
p5570
aaa(lp5571
S'SEAN'
p5572
a(lp5573
S'Mm'
p5574
aaa(lp5575
S'FRAN'
p5576
a(lp5577
S'until'
p5578
aS'this'
p5579
aS'past'
p5580
aS'year'
p5581
aaa(lp5582
g5576
a(lp5583
S'So'
p5584
aS'thats'
p5585
aS'why'
p5586
aS'Im'
p5587
aS'doing'
p5588
aS'it'
p5589
aS'now'
p5590
aaa(lp5591
S'SEAN'
p5592
a(lp5593
S'PX'
p5594
aS'This'
p5595
aS'is'
p5596
aS'alright'
p5597
aS'XP'
p5598
aaa(lp5599
S'FRAN'
p5600
a(lp5601
S'But'
p5602
ag5
aS'also'
p5603
aS'know'
p5604
aaa(lp5605
g5600
a(lp5606
S'that'
p5607
ag5
aS'wasnt'
p5608
aS'really'
p5609
aS'ready'
p5610
aS'to'
p5611
aS'do'
p5612
aS'it'
p5613
aS'until'
p5614
aS'now'
p5615
aaa(lp5616
g5600
a(lp5617
S'So'
p5618
aaa(lp5619
g5600
a(lp5620
S'You'
p5621
aS'know'
p5622
aaa(lp5623
g5600
a(lp5624
S'but'
p5625
aS'its'
p5626
aS'okay'
p5627
aS'now'
p5628
aaa(lp5629
S'ALICE'
p5630
a(lp5631
S'Yeah'
p5632
aaa(lp5633
g5630
a(lp5634
S'you'
p5635
aS'know'
p5636
ag5
aS'take'
p5637
aS'care'
p5638
aS'of'
p5639
aS'peoples'
p5640
aS'estates'
p5641
aaa(lp5642
g5630
a(lp5643
S'and'
p5644
aS'my'
p5645
aaa(lp5646
g5630
a(lp5647
S'my'
p5648
aS'garage'
p5649
aS'is'
p5650
aS'filled'
p5651
aS'with'
p5652
aS'dead'
p5653
aS'peoples'
p5654
aS'things'
p5655
aaa(lp5656
S'FRAN'
p5657
a(lp5658
S'Yeah'
p5659
aaa(lp5660
S'ALICE'
p5661
a(lp5662
S'That'
p5663
aaa(lp5664
g5661
a(lp5665
g5
aS'dont'
p5666
aaa(lp5667
g5661
a(lp5668
g5
aS'wanna'
p5669
aS'toss'
p5670
aS'em'
p5671
aaa(lp5672
g5661
a(lp5673
S'But'
p5674
aS'it'
p5675
aS'just'
p5676
aaa(lp5677
g5661
a(lp5678
S'Maybe'
p5679
aS'worth'
p5680
aS'something'
p5681
aaa(lp5682
g5661
a(lp5683
S'maybe'
p5684
aS'somebodyll'
p5685
aS'surface'
p5686
aaa(lp5687
g5661
a(lp5688
S'so'
p5689
ag5
aS'have'
p5690
aS'like'
p5691
aS'four'
p5692
aS'years'
p5693
aS'worth'
p5694
aS'now'
p5695
aaa(lp5696
g5661
a(lp5697
S'of'
p5698
aaa(lp5699
g5661
a(lp5700
S'well'
p5701
aaa(lp5702
g5661
a(lp5703
S'you'
p5704
aS'know'
p5705
aaa(lp5706
g5661
a(lp5707
S'an'
p5708
aS'antique'
p5709
aS'mirror'
p5710
aaa(lp5711
g5661
a(lp5712
S'just'
p5713
aaa(lp5714
g5661
a(lp5715
S'And'
p5716
aS'every'
p5717
aS'once'
p5718
aS'in'
p5719
ag82
aS'while'
p5720
aS'somebodyll'
p5721
aS'show'
p5722
aS'up'
p5723
aS'and'
p5724
aS'say'
p5725
aaa(lp5726
g5661
a(lp5727
S'VOX'
p5728
aS'do'
p5729
aS'you'
p5730
aS'know'
p5731
aS'where'
p5732
aS'such'
p5733
aS'and'
p5734
aS'such'
p5735
aS'is'
p5736
aS'VOX'
p5737
aaa(lp5738
g5661
a(lp5739
S'WH'
p5740
aS'And'
p5741
aS'Ill'
p5742
aS'say'
p5743
aaa(lp5744
g5661
a(lp5745
S'Ive'
p5746
aS'got'
p5747
aS'that'
p5748
aS'WH'
p5749
aaa(lp5750
g5661
a(lp5751
S'and'
p5752
aS'Ill'
p5753
aS'hand'
p5754
aS'it'
p5755
aS'to'
p5756
aS'em'
p5757
aaa(lp5758
g5661
a(lp5759
S'PX'
p5760
aS'and'
p5761
aS'theyre'
p5762
aS'XP'
p5763
aaa(lp5764
g5661
a(lp5765
g5
aS'mean'
p5766
aS'that'
p5767
aS'just'
p5768
aS'happened'
p5769
aS'to'
p5770
aS'me'
p5771
aaa(lp5772
S'FRAN'
p5773
a(lp5774
g848
aS'Yeah'
p5775
ag848
aaa(lp5776
S'ALICE'
p5777
a(lp5778
g82
aS'few'
p5779
aS'weeks'
p5780
aS'ago'
p5781
aaa(lp5782
S'FRAN'
p5783
a(lp5784
S'Theyre'
p5785
aS'excited'
p5786
aS'and'
p5787
aS'happy'
p5788
aaa(lp5789
S'ALICE'
p5790
a(lp5791
S'Mhm'
p5792
aaa(lp5793
S'FRAN'
p5794
a(lp5795
S'Yeah'
p5796
aaa(lp5797
g5794
a(lp5798
S'thats'
p5799
aS'great'
p5800
aaa(lp5801
S'ALICE'
p5802
a(lp5803
S'And'
p5804
aaa(lp5805
g5802
a(lp5806
S'But'
p5807
aS'its'
p5808
aS'stuff'
p5809
aaa(lp5810
S'FRAN'
p5811
a(lp5812
S'Yeah'
p5813
aaa(lp5814
S'ALICE'
p5815
a(lp5816
S'And'
p5817
aS'so'
p5818
aaa(lp5819
g5815
a(lp5820
g5
aS'dont'
p5821
aS'wanna'
p5822
ag848
aS'feel'
p5823
aS'discouraged'
p5824
ag848
aaa(lp5825
g5815
a(lp5826
S'cause'
p5827
aS'like'
p5828
aS'Im'
p5829
aS'the'
p5830
aS'only'
p5831
aS'one'
p5832
aaa(lp5833
S'BERNARD'
p5834
a(lp5835
S'Oh'
p5836
aS'yeah'
p5837
aS'its'
p5838
aaa(lp5839
g5834
a(lp5840
S'getting'
p5841
aS'XXXX'
p5842
aaa(lp5843
S'ALICE'
p5844
a(lp5845
S'Im'
p5846
aS'in'
p5847
aS'charge'
p5848
aS'of'
p5849
aS'this'
p5850
aaa(lp5851
g5844
a(lp5852
g848
aS'and'
p5853
aS'so'
p5854
ag848
aaa(lp5855
S'SEAN'
p5856
a(lp5857
S'Okay'
p5858
aS'ladies'
p5859
aaa(lp5860
S'ALICE'
p5861
a(lp5862
S'You'
p5863
aS'know'
p5864
aS'what'
p5865
ag5
aS'mean'
p5866
aaa(lp5867
S'SEAN'
p5868
a(lp5869
S'Dinner'
p5870
aaa(lp5871
S'FRAN'
p5872
a(lp5873
S'It'
p5874
aS'smells'
p5875
aS'divine'
p5876
aaa(lp5877
S'ALICE'
p5878
a(lp5879
S'Oo'
p5880
aaa(lp5881
S'BERNARD'
p5882
a(lp5883
S'PX'
p5884
aS'It'
p5885
aS'is'
p5886
ag848
aS'XXP'
p5887
aaa(lp5888
S'FRAN'
p5889
a(lp5890
S'Where'
p5891
aS'should'
p5892
aS'we'
p5893
aS'sit'
p5894
aaa(lp5895
S'ALICE'
p5896
a(lp5897
S'VOX'
p5898
aS'XX'
p5899
aS'VOX'
p5900
aaa(lp5901
S'SEAN'
p5902
a(lp5903
S'Fran'
p5904
aaa(lp5905
S'ALICE'
p5906
a(lp5907
S'Hey'
p5908
aaa(lp5909
g5906
a(lp5910
S'wait'
p5911
aS'wait'
p5912
aaa(lp5913
S'SEAN'
p5914
a(lp5915
S'Alice'
p5916
aaa(lp5917
S'BERNARD'
p5918
a(lp5919
S'VOX'
p5920
aS'Oh'
p5921
aS'yes'
p5922
aS'VOX'
p5923
aaa(lp5924
S'FRAN'
p5925
a(lp5926
S'Did'
p5927
aS'you'
p5928
aS'say'
p5929
aS'Fran'
p5930
aaa(lp5931
S'ALICE'
p5932
a(lp5933
g5
aS'dont'
p5934
aS'know'
p5935
aaa(lp5936
g5932
a(lp5937
g5
aS'dont'
p5938
aS'know'
p5939
aS'if'
p5940
aS'this'
p5941
aS'is'
p5942
aS'working'
p5943
aaa(lp5944
S'SEAN'
p5945
a(lp5946
S'Yes'
p5947
aaa(lp5948
S'ALICE'
p5949
a(lp5950
g5
aS'ha'
p5951
aS'dont'
p5952
aS'even'
p5953
aS'have'
p5954
ag82
aS'clue'
p5955
aaa(lp5956
S'FRAN'
p5957
a(lp5958
S'Oh'
p5959
aaa(lp5960
g5957
a(lp5961
S'heaven'
p5962
aaa(lp5963
S'ALICE'
p5964
a(lp5965
S'It'
p5966
aS'should'
p5967
aS'be'
p5968
aS'going'
p5969
aS'up'
p5970
aaa(lp5971
S'BERNARD'
p5972
a(lp5973
S'Wheres'
p5974
aS'the'
p5975
aS'microphone'
p5976
aaa(lp5977
S'ALICE'
p5978
a(lp5979
S'This'
p5980
aS'red'
p5981
aS'one'
p5982
aaa(lp5983
g5978
a(lp5984
S'Here'
p5985
aaa(lp5986
g5978
a(lp5987
S'VOX'
p5988
aS'Im'
p5989
aS'not'
p5990
aS'mechanical'
p5991
aS'Sean'
p5992
aS'VOX'
p5993
aaa(lp5994
S'SEAN'
p5995
a(lp5996
S'Its'
p5997
ag82
aS'Sean'
p5998
aS'concoction'
p5999
aaa(lp6000
S'ALICE'
p6001
a(lp6002
S'Its'
p6003
aaa(lp6004
g6001
a(lp6005
S'Looks'
p6006
aS'like'
p6007
aS'its'
p6008
aS'going'
p6009
aS'too'
p6010
aS'fast'
p6011
aS'to'
p6012
aS'be'
p6013
aS'recording'
p6014
aaa(lp6015
S'FRAN'
p6016
a(lp6017
S'What'
p6018
aS'is'
p6019
aS'it'
p6020
aaa(lp6021
S'BERNARD'
p6022
a(lp6023
g848
aS'No'
p6024
ag848
aaa(lp6025
g6022
a(lp6026
S'that'
p6027
aS'looks'
p6028
aS'right'
p6029
aaa(lp6030
S'FRAN'
p6031
a(lp6032
S'Oh'
p6033
aS'trust'
p6034
aS'the'
p6035
aS'machinery'
p6036
aaa(lp6037
S'ALICE'
p6038
a(lp6039
S'It'
p6040
aaa(lp6041
g6038
a(lp6042
g5
aS'dont'
p6043
aaa(lp6044
S'SEAN'
p6045
a(lp6046
S'If'
p6047
aS'it'
p6048
aS'didnt'
p6049
aS'it'
p6050
aS'didnt'
p6051
aaa(lp6052
S'FRAN'
p6053
a(lp6054
S'Oh'
p6055
aS'this'
p6056
aS'is'
p6057
aS'great'
p6058
aaa(lp6059
S'SEAN'
p6060
a(lp6061
S'Hey'
p6062
aaa(lp6063
S'FRAN'
p6064
a(lp6065
g5
aS'just'
p6066
aS'got'
p6067
aS'the'
p6068
aS'same'
p6069
aS'fabric'
p6070
aaa(lp6071
S'ALICE'
p6072
a(lp6073
S'Where'
p6074
aS'do'
p6075
ag5
aS'sit'
p6076
aaa(lp6077
g6072
a(lp6078
S'Here'
p6079
aaa(lp6080
S'SEAN'
p6081
a(lp6082
S'Here'
p6083
aaa(lp6084
S'ALICE'
p6085
a(lp6086
g5
aS'should'
p6087
aS'turn'
p6088
aaa(lp6089
S'FRAN'
p6090
a(lp6091
S'to'
p6092
aS'do'
p6093
aS'dining'
p6094
aS'room'
p6095
aS'chairs'
p6096
aaa(lp6097
S'ALICE'
p6098
a(lp6099
g848
ag5
aS'have'
p6100
aS'to'
p6101
aS'see'
p6102
aS'this'
p6103
ag848
aaa(lp6104
S'SEAN'
p6105
a(lp6106
S'Youre'
p6107
aS'kidding'
p6108
aaa(lp6109
S'FRAN'
p6110
a(lp6111
S'HI'
p6112
aS'Im'
p6113
aS'serious'
p6114
aS'HI'
p6115
aaa(lp6116
g6110
a(lp6117
g5
aS'did'
p6118
aS'it'
p6119
aS'in'
p6120
aS'navy'
p6121
aaa(lp6122
S'SEAN'
p6123
a(lp6124
S'Unhunh'
p6125
aaa(lp6126
S'FRAN'
p6127
a(lp6128
S'and'
p6129
aS'gold'
p6130
aaa(lp6131
S'SEAN'
p6132
a(lp6133
g5
aS'looked'
p6134
aS'at'
p6135
aS'the'
p6136
aS'navy'
p6137
aaa(lp6138
S'FRAN'
p6139
a(lp6140
S'and'
p6141
aaa(lp6142
S'ALICE'
p6143
a(lp6144
g738
aS'Oh'
p6145
aS'wow'
p6146
ag738
aaa(lp6147
S'FRAN'
p6148
a(lp6149
S'uh'
p6150
aaa(lp6151
g6148
a(lp6152
S'because'
p6153
aaa(lp6154
g6148
a(lp6155
g5
aS'had'
p6156
aS'another'
p6157
aS'fabric'
p6158
aaa(lp6159
g6148
a(lp6160
S'its'
p6161
aS'uh'
p6162
aaa(lp6163
g6148
a(lp6164
S'its'
p6165
ag82
aS'gorgeous'
p6166
aS'blue'
p6167
aS'with'
p6168
aS'gold'
p6169
ag848
aS'beads'
p6170
ag848
aaa(lp6171
S'BERNARD'
p6172
a(lp6173
g848
aS'Do'
p6174
aS'you'
p6175
aS'need'
p6176
aS'to'
p6177
aS'scoot'
p6178
ag848
aaa(lp6179
S'ALICE'
p6180
a(lp6181
S'WH'
p6182
aS'Wow'
p6183
aS'this'
p6184
aS'is'
p6185
aS'great'
p6186
aS'WH'
p6187
aaa(lp6188
S'FRAN'
p6189
a(lp6190
S'and'
p6191
ag5
aS'wanted'
p6192
aS'to'
p6193
aS'mix'
p6194
aS'the'
p6195
aS'two'
p6196
aS'fabrics'
p6197
aaa(lp6198
g6189
a(lp6199
S'And'
p6200
aS'the'
p6201
aS'red'
p6202
aS'didnt'
p6203
aS'work'
p6204
aS'with'
p6205
aS'it'
p6206
aaa(lp6207
S'BERNARD'
p6208
a(lp6209
S'WHX'
p6210
aS'Yeah'
p6211
aS'XWH'
p6212
aaa(lp6213
S'SEAN'
p6214
a(lp6215
S'Well'
p6216
ag5
aS'first'
p6217
aS'had'
p6218
ag82
aaa(lp6219
S'FRAN'
p6220
a(lp6221
S'Cause'
p6222
ag5
aS'fell'
p6223
aS'in'
p6224
aS'love'
p6225
aS'with'
p6226
aS'the'
p6227
aS'red'
p6228
aaa(lp6229
S'SEAN'
p6230
a(lp6231
g82
aS'kind'
p6232
aS'of'
p6233
ag82
aaa(lp6234
g6230
a(lp6235
S'flower'
p6236
aS'fabric'
p6237
aaa(lp6238
g6230
a(lp6239
S'that'
p6240
ag5
aS'ha'
p6241
aS'put'
p6242
aS'on'
p6243
aS'these'
p6244
aaa(lp6245
S'FRAN'
p6246
a(lp6247
S'Unhunh'
p6248
aaa(lp6249
S'SEAN'
p6250
a(lp6251
S'It'
p6252
aaa(lp6253
g6250
a(lp6254
S'The'
p6255
aS'chairs'
p6256
aS'died'
p6257
aaa(lp6258
S'BERNARD'
p6259
a(lp6260
S'It'
p6261
aS'was'
p6262
aS'horrible'
p6263
aaa(lp6264
g6259
a(lp6265
S'Yeah'
p6266
aaa(lp6267
S'FRAN'
p6268
a(lp6269
S'Yeah'
p6270
aaa(lp6271
S'SEAN'
p6272
a(lp6273
S'And'
p6274
aS'so'
p6275
ag5
aS'went'
p6276
aS'to'
p6277
aS'the'
p6278
aS'design'
p6279
aS'center'
p6280
aaa(lp6281
g6272
a(lp6282
S'and'
p6283
ag5
aS'went'
p6284
aS'to'
p6285
aS'all'
p6286
aS'the'
p6287
aS'places'
p6288
aaa(lp6289
g6272
a(lp6290
S'and'
p6291
aaa(lp6292
g6272
a(lp6293
S'that'
p6294
aS'was'
p6295
aS'the'
p6296
aS'one'
p6297
aaa(lp6298
S'FRAN'
p6299
a(lp6300
S'Yeah'
p6301
aaa(lp6302
S'ALICE'
p6303
a(lp6304
S'Why'
p6305
aS'do'
p6306
aS'we'
p6307
aS'have'
p6308
aS'to'
p6309
aS'look'
p6310
aS'at'
p6311
aS'the'
p6312
aS'one'
p6313
aS'Im'
p6314
aS'on'
p6315
aaa(lp6316
S'BERNARD'
p6317
a(lp6318
aa(lp6319
S'FRAN'
p6320
a(lp6321
aa(lp6322
S'BERNARD'
p6323
a(lp6324
aa(lp6325
S'ALICE'
p6326
a(lp6327
aa(lp6328
S'FRAN'
p6329
a(lp6330
S'Because'
p6331
aS'youre'
p6332
aS'the'
p6333
ag2458
aaa(lp6334
g6329
a(lp6335
S'youre'
p6336
aS'youre'
p6337
aS'the'
p6338
aS'slimmest'
p6339
aaa(lp6340
g6329
a(lp6341
S'and'
p6342
aS'show'
p6343
aS'the'
p6344
aS'most'
p6345
aS'cu'
p6346
aS'uh'
p6347
aaa(lp6348
S'ALICE'
p6349
a(lp6350
S'Oh'
p6351
aaa(lp6352
g6349
a(lp6353
S'chair'
p6354
aaa(lp6355
S'FRAN'
p6356
a(lp6357
S'cushion'
p6358
aS'cleft'
p6359
aaa(lp6360
S'ALICE'
p6361
a(lp6362
S'Okay'
p6363
aaa(lp6364
g6361
a(lp6365
S'that'
p6366
aS'was'
p6367
aS'cool'
p6368
aaa(lp6369
S'FRAN'
p6370
a(lp6371
S'Right'
p6372
aaa(lp6373
S'BERNARD'
p6374
a(lp6375
S'Cheers'
p6376
aS'everybody'
p6377
aaa(lp6378
g6374
a(lp6379
g848
aS'heres'
p6380
aS'to'
p6381
ag848
aaa(lp6382
S'ALICE'
p6383
a(lp6384
S'Cheers'
p6385
aS'cheers'
p6386
aaa(lp6387
S'FRAN'
p6388
a(lp6389
S'Cheers'
p6390
aaa(lp6391
g6388
a(lp6392
S'cheers'
p6393
aaa(lp6394
S'BERNARD'
p6395
a(lp6396
S'Cheers'
p6397
aaa(lp6398
S'SEAN'
p6399
a(lp6400
S'Its'
p6401
aS'nice'
p6402
aS'to'
p6403
aS'see'
p6404
aS'you'
p6405
aS'Fran'
p6406
aaa(lp6407
S'FRAN'
p6408
a(lp6409
S'Lovely'
p6410
aS'to'
p6411
aS'be'
p6412
aS'here'
p6413
aaa(lp6414
S'X'
p6415
a(lp6416
aa(lp6417
S'ALICE'
p6418
a(lp6419
g5
aS'didnt'
p6420
aS'realize'
p6421
aS'that'
p6422
aS'you'
p6423
aS'had'
p6424
aS'such'
p6425
ag82
aS'close'
p6426
aS'connection'
p6427
aaa(lp6428
g6418
a(lp6429
S'That'
p6430
aS'you'
p6431
aaa(lp6432
S'SEAN'
p6433
a(lp6434
S'Oh'
p6435
aS'yeah'
p6436
aaa(lp6437
S'ALICE'
p6438
a(lp6439
S'PX'
p6440
ag5
aS'didnt'
p6441
aS'get'
p6442
aS'that'
p6443
aS'XP'
p6444
aaa(lp6445
S'SEAN'
p6446
a(lp6447
S'We'
p6448
aS'took'
p6449
aS'care'
p6450
aS'of'
p6451
aS'Jerrod'
p6452
aaa(lp6453
g6446
a(lp6454
S'and'
p6455
aS'thats'
p6456
aS'when'
p6457
aS'we'
p6458
aS'really'
p6459
aaa(lp6460
g6446
a(lp6461
S'Well'
p6462
aaa(lp6463
g6446
a(lp6464
S'we'
p6465
aS'had'
p6466
aS'heard'
p6467
aS'of'
p6468
aS'Fran'
p6469
aaa(lp6470
S'FRAN'
p6471
a(lp6472
S'Thats'
p6473
aS'when'
p6474
ag5
aS'really'
p6475
aS'got'
p6476
aS'to'
p6477
aS'meet'
p6478
aS'em'
p6479
aaa(lp6480
S'SEAN'
p6481
a(lp6482
S'for'
p6483
ag82
aS'long'
p6484
aS'time'
p6485
aS'from'
p6486
aS'Jerrod'
p6487
aaa(lp6488
g6481
a(lp6489
S'and'
p6490
aaa(lp6491
g6481
a(lp6492
S'but'
p6493
aS'thats'
p6494
aS'how'
p6495
aS'we'
p6496
aS'really'
p6497
aS'met'
p6498
aaa(lp6499
S'ALICE'
p6500
a(lp6501
g848
aS'Brother'
p6502
aS'and'
p6503
aS'sister'
p6504
ag848
aaa(lp6505
S'BERNARD'
p6506
a(lp6507
g5
aS'thought'
p6508
aS'he'
p6509
aS'just'
p6510
aS'made'
p6511
aS'it'
p6512
aS'up'
p6513
aaa(lp6514
S'SEAN'
p6515
a(lp6516
S'And'
p6517
aS'then'
p6518
aS'shes'
p6519
aS'come'
p6520
aaa(lp6521
S'FRAN'
p6522
a(lp6523
S'His'
p6524
aS'faux'
p6525
aS'sister'
p6526
aaa(lp6527
S'SEAN'
p6528
a(lp6529
S'almost'
p6530
aS'every'
p6531
aS'year'
p6532
aaa(lp6533
S'BERNARD'
p6534
a(lp6535
S'Yes'
p6536
aaa(lp6537
S'FRAN'
p6538
a(lp6539
S'His'
p6540
aS'fantasy'
p6541
aS'sister'
p6542
aaa(lp6543
S'BERNARD'
p6544
a(lp6545
S'Right'
p6546
aaa(lp6547
S'FRAN'
p6548
a(lp6549
S'Well'
p6550
ag5
aS'used'
p6551
aS'to'
p6552
aS'come'
p6553
aS'out'
p6554
aS'here'
p6555
aaa(lp6556
S'ALICE'
p6557
a(lp6558
S'to'
p6559
aS'see'
p6560
aS'your'
p6561
aS'brother'
p6562
aaa(lp6563
S'FRAN'
p6564
a(lp6565
S'with'
p6566
aS'great'
p6567
aS'regularity'
p6568
aaa(lp6569
g6564
a(lp6570
g5
aS'mean'
p6571
aaa(lp6572
g6564
a(lp6573
g5
aS'was'
p6574
aS'out'
p6575
aS'here'
p6576
aS'about'
p6577
aS'every'
p6578
aS'year'
p6579
aaa(lp6580
S'ALICE'
p6581
a(lp6582
S'Dont'
p6583
aS'you'
p6584
aS'love'
p6585
aS'it'
p6586
aS'out'
p6587
aS'here'
p6588
aaa(lp6589
g6581
a(lp6590
S'dont'
p6591
aS'you'
p6592
aS'love'
p6593
aS'it'
p6594
aaa(lp6595
S'FRAN'
p6596
a(lp6597
g5
aS'do'
p6598
aaa(lp6599
g6596
a(lp6600
g5
aS'adore'
p6601
aS'it'
p6602
aaa(lp6603
S'ALICE'
p6604
a(lp6605
S'This'
p6606
aS'is'
p6607
aaa(lp6608
g6604
a(lp6609
S'Wouldnt'
p6610
aS'this'
p6611
aS'be'
p6612
aS'in'
p6613
aS'the'
p6614
aS'top'
p6615
aS'three'
p6616
aS'of'
p6617
aaa(lp6618
S'FRAN'
p6619
a(lp6620
S'This'
p6621
aS'would'
p6622
aS'be'
p6623
aaa(lp6624
g6619
a(lp6625
S'if'
p6626
aaa(lp6627
g6619
a(lp6628
S'L'
p6629
aS'Were'
p6630
ag5
ag6629
aS'going'
p6631
aS'to'
p6632
aS'leave'
p6633
aS'New'
p6634
aS'York'
p6635
aaa(lp6636
g6619
a(lp6637
S'This'
p6638
aS'would'
p6639
aS'definitely'
p6640
aS'be'
p6641
aaa(lp6642
g6619
a(lp6643
g5
aS'think'
p6644
aS'this'
p6645
aS'would'
p6646
aS'be'
p6647
aS'my'
p6648
aS'second'
p6649
aS'choice'
p6650
aaa(lp6651
g6619
a(lp6652
S'And'
p6653
aaa(lp6654
g6619
a(lp6655
S'the'
p6656
aS'other'
p6657
aS'thing'
p6658
ag5
aS'would'
p6659
aS'maybe'
p6660
aS'do'
p6661
aS'is'
p6662
aaa(lp6663
g6619
a(lp6664
S'go'
p6665
aS'back'
p6666
aS'to'
p6667
aS'New'
p6668
aS'Orleans'
p6669
aaa(lp6670
g6619
a(lp6671
S'But'
p6672
aS'then'
p6673
aS'like'
p6674
aaa(lp6675
g6619
a(lp6676
g5
aS'dont'
p6677
aS'know'
p6678
aaa(lp6679
S'SEAN'
p6680
a(lp6681
S'New'
p6682
aS'Orleans'
p6683
aaa(lp6684
S'FRAN'
p6685
a(lp6686
S'maybe'
p6687
aS'come'
p6688
aS'here'
p6689
aS'in'
p6690
aS'the'
p6691
aS'summer'
p6692
aS'or'
p6693
aS'something'
p6694
aaa(lp6695
g6685
a(lp6696
S'Because'
p6697
aaa(lp6698
g6685
a(lp6699
S'MRC'
p6700
aS'its'
p6701
aS'just'
p6702
aS'beastly'
p6703
aS'MRC'
p6704
aS'there'
p6705
aS'in'
p6706
aS'the'
p6707
aS'summer'
p6708
aaa(lp6709
g6685
a(lp6710
S'PP'
p6711
aS'You'
p6712
aS'know'
p6713
aS'PP'
p6714
aaa(lp6715
g6685
a(lp6716
S'but'
p6717
aS'this'
p6718
aS'is'
p6719
aS'definitely'
p6720
aaa(lp6721
g6685
a(lp6722
S'and'
p6723
aaa(lp6724
g6685
a(lp6725
S'oddly'
p6726
aS'enough'
p6727
aaa(lp6728
g6685
a(lp6729
S'do'
p6730
aS'you'
p6731
aS'know'
p6732
aS'where'
p6733
aS'else'
p6734
ag5
aS'might'
p6735
aS'go'
p6736
aaa(lp6737
g6685
a(lp6738
S'Buffalo'
p6739
aS'New'
p6740
aS'York'
p6741
aaa(lp6742
g6685
a(lp6743
S'Is'
p6744
ag82
aS'wonderful'
p6745
aS'city'
p6746
aaa(lp6747
S'BERNARD'
p6748
a(lp6749
S'Ive'
p6750
aS'heard'
p6751
aaa(lp6752
S'FRAN'
p6753
a(lp6754
S'It'
p6755
aS'has'
p6756
aaa(lp6757
S'ALICE'
p6758
a(lp6759
S'Buffalo'
p6760
aaa(lp6761
S'SEAN'
p6762
a(lp6763
g5
aS'was'
p6764
aS'on'
p6765
aS'the'
p6766
aS'radio'
p6767
aS'there'
p6768
aS'today'
p6769
aaa(lp6770
S'FRAN'
p6771
a(lp6772
S'You'
p6773
aS'were'
p6774
aaa(lp6775
S'SEAN'
p6776
a(lp6777
S'Yes'
p6778
aaa(lp6779
S'FRAN'
p6780
a(lp6781
S'HI'
p6782
aS'Oh'
p6783
aS'wow'
p6784
aS'HI'
p6785
aaa(lp6786
S'SEAN'
p6787
a(lp6788
S'Doubleu'
p6789
aaa(lp6790
g6787
a(lp6791
S'it'
p6792
aS'was'
p6793
aaa(lp6794
g6787
a(lp6795
g5
aS'dont'
p6796
aS'know'
p6797
aS'what'
p6798
aS'it'
p6799
aS'was'
p6800
aaa(lp6801
S'X'
p6802
a(lp6803
aa(lp6804
S'FRAN'
p6805
a(lp6806
S'Unhunh'
p6807
aaa(lp6808
S'SEAN'
p6809
a(lp6810
S'At'
p6811
aS'two'
p6812
aS'fortyfive'
p6813
aaa(lp6814
g6809
a(lp6815
S'Five'
p6816
aS'fortyfive'
p6817
aS'there'
p6818
aaa(lp6819
g6809
a(lp6820
S'Somebodys'
p6821
aS'show'
p6822
aaa(lp6823
g6809
a(lp6824
S'Mhm'
p6825
aaa(lp6826
g6809
a(lp6827
S'Was'
p6828
aS'raining'
p6829
aS'there'
p6830
aaa(lp6831
S'FRAN'
p6832
a(lp6833
S'It'
p6834
aS'was'
p6835
aaa(lp6836
S'SEAN'
p6837
a(lp6838
S'Mhm'
p6839
aaa(lp6840
S'FRAN'
p6841
a(lp6842
S'Oh'
p6843
aaa(lp6844
S'ALICE'
p6845
a(lp6846
S'Sean'
p6847
aS'this'
p6848
aS'is'
p6849
aS'great'
p6850
aaa(lp6851
S'FRAN'
p6852
a(lp6853
S'Well'
p6854
aS'its'
p6855
ag82
aS'good'
p6856
aS'day'
p6857
aS'for'
p6858
aS'people'
p6859
aS'to'
p6860
aS'be'
p6861
aS'indoors'
p6862
aS'listening'
p6863
aS'to'
p6864
aS'the'
p6865
aS'radio'
p6866
aaa(lp6867
S'BERNARD'
p6868
a(lp6869
S'Buffalo'
p6870
aaa(lp6871
S'SEAN'
p6872
a(lp6873
S'Is'
p6874
aS'that'
p6875
aS'where'
p6876
aS'Lindas'
p6877
aS'from'
p6878
aaa(lp6879
S'FRAN'
p6880
a(lp6881
S'Lindas'
p6882
aS'from'
p6883
aS'Corning'
p6884
aaa(lp6885
S'BERNARD'
p6886
a(lp6887
S'Or'
p6888
aS'is'
p6889
aS'she'
p6890
aS'up'
p6891
aS'farther'
p6892
aaa(lp6893
g6886
a(lp6894
S'Up'
p6895
aS'farther'
p6896
aaa(lp6897
S'FRAN'
p6898
a(lp6899
S'which'
p6900
aS'is'
p6901
aS'uh'
p6902
aS'not'
p6903
aS'too'
p6904
aS'far'
p6905
aS'away'
p6906
aaa(lp6907
g6898
a(lp6908
S'But'
p6909
aS'its'
p6910
aS'in'
p6911
aS'the'
p6912
ag2458
aaa(lp6913
S'BERNARD'
p6914
a(lp6915
aa(lp6916
S'FRAN'
p6917
a(lp6918
S'in'
p6919
aS'the'
p6920
aS'same'
p6921
aS'general'
p6922
aS'area'
p6923
aaa(lp6924
S'SEAN'
p6925
a(lp6926
S'Mm'
p6927
aaa(lp6928
g6925
a(lp6929
S'came'
p6930
aS'out'
p6931
aS'good'
p6932
aaa(lp6933
S'ALICE'
p6934
a(lp6935
S'Its'
p6936
aS'great'
p6937
aaa(lp6938
S'FRAN'
p6939
a(lp6940
S'Mm'
p6941
aaa(lp6942
g6939
a(lp6943
S'Is'
p6944
aS'this'
p6945
aaa(lp6946
g6939
a(lp6947
S'We'
p6948
aaa(lp6949
g6939
a(lp6950
S'This'
p6951
aS'looks'
p6952
aS'like'
p6953
aS'something'
p6954
aS'we'
p6955
aS'used'
p6956
aS'to'
p6957
aS'call'
p6958
aS'grillades'
p6959
aaa(lp6960
g6939
a(lp6961
S'In'
p6962
aS'New'
p6963
aS'in'
p6964
aS'New'
p6965
aS'Orleans'
p6966
aaa(lp6967
g6939
a(lp6968
S'What'
p6969
aS'is'
p6970
aS'it'
p6971
aaa(lp6972
S'SEAN'
p6973
a(lp6974
g738
aS'Grillades'
p6975
aaa(lp6976
g6973
a(lp6977
S'Hunh'
p6978
ag738
aaa(lp6979
S'FRAN'
p6980
a(lp6981
g738
aS'Mhm'
p6982
ag738
aaa(lp6983
S'SEAN'
p6984
a(lp6985
S'This'
p6986
aS'is'
p6987
aS'red'
p6988
aS'beans'
p6989
aS'and'
p6990
aS'rice'
p6991
aaa(lp6992
g6984
a(lp6993
S'with'
p6994
aS'some'
p6995
aS'steak'
p6996
aaa(lp6997
S'FRAN'
p6998
a(lp6999
S'Unhunh'
p7000
aaa(lp7001
S'SEAN'
p7002
a(lp7003
S'and'
p7004
aS'um'
p7005
aaa(lp7006
g7002
a(lp7007
S'green'
p7008
aS'and'
p7009
aS'and'
p7010
aS'red'
p7011
aS'peppers'
p7012
aS'cut'
p7013
aS'up'
p7014
aaa(lp7015
S'FRAN'
p7016
a(lp7017
S'FOOD'
p7018
aS'Its'
p7019
aS'delicious'
p7020
aS'FOOD'
p7021
aaa(lp7022
S'BERNARD'
p7023
a(lp7024
S'It'
p7025
aS'is'
p7026
aS'delicious'
p7027
aS'Sean'
p7028
aaa(lp7029
S'ALICE'
p7030
a(lp7031
S'Mm'
p7032
aaa(lp7033
g7030
a(lp7034
S'Its'
p7035
aS'great'
p7036
aaa(lp7037
S'BERNARD'
p7038
a(lp7039
aa(lp7040
S'FRAN'
p7041
a(lp7042
S'Did'
p7043
aS'you'
p7044
aS'invent'
p7045
aS'this'
p7046
aaa(lp7047
g7041
a(lp7048
S'Cause'
p7049
aS'its'
p7050
aS'very'
p7051
aS'like'
p7052
ag82
aS'New'
p7053
aS'Orleans'
p7054
aS'recipe'
p7055
aaa(lp7056
S'SEAN'
p7057
a(lp7058
S'Mhm'
p7059
aaa(lp7060
g7057
a(lp7061
S'FOOD'
p7062
ag5
aS'invented'
p7063
aS'it'
p7064
aS'FOOD'
p7065
aaa(lp7066
S'ALICE'
p7067
a(lp7068
S'Mhm'
p7069
aaa(lp7070
S'FRAN'
p7071
a(lp7072
S'Mm'
p7073
aaa(lp7074
g7071
a(lp7075
g738
aS'Wonderful'
p7076
ag738
aaa(lp7077
S'SEAN'
p7078
a(lp7079
S'FOOD'
p7080
ag5
aS'had'
p7081
aS'red'
p7082
aS'beans'
p7083
aS'and'
p7084
aS'rice'
p7085
aaa(lp7086
g7078
a(lp7087
S'for'
p7088
aS'dinner'
p7089
aaa(lp7090
g7078
a(lp7091
S'last'
p7092
aS'week'
p7093
aaa(lp7094
g7078
a(lp7095
S'and'
p7096
aS'it'
p7097
aS'was'
p7098
aS'so'
p7099
aS'great'
p7100
aaa(lp7101
g7078
a(lp7102
S'and'
p7103
ag5
aS'thought'
p7104
aaa(lp7105
g7078
a(lp7106
g738
ag5
aS'could'
p7107
aS'make'
p7108
aS'this'
p7109
aS'for'
p7110
ag82
aS'dinner'
p7111
aS'party'
p7112
ag738
aaa(lp7113
S'ALICE'
p7114
a(lp7115
S'Yeah'
p7116
aaa(lp7117
g7114
a(lp7118
S'what'
p7119
aS'can'
p7120
ag5
aaa(lp7121
g7114
a(lp7122
S'You'
p7123
aS'know'
p7124
aaa(lp7125
S'SEAN'
p7126
a(lp7127
S'And'
p7128
aS'just'
p7129
aaa(lp7130
g7126
a(lp7131
S'And'
p7132
aS'Ill'
p7133
aS'just'
p7134
aS'add'
p7135
aS'to'
p7136
aS'it'
p7137
aaa(lp7138
g7126
a(lp7139
S'and'
p7140
aaa(lp7141
g7126
a(lp7142
S'thats'
p7143
aS'what'
p7144
ag5
aS'like'
p7145
aaa(lp7146
g7126
a(lp7147
S'Is'
p7148
aS'to'
p7149
aS'add'
p7150
aaa(lp7151
S'FRAN'
p7152
a(lp7153
S'And'
p7154
aS'jazz'
p7155
aS'it'
p7156
aS'up'
p7157
aaa(lp7158
S'SEAN'
p7159
a(lp7160
g5
aS'couldnt'
p7161
aS'really'
p7162
aS'follow'
p7163
ag82
aS'recipe'
p7164
aaa(lp7165
S'FRAN'
p7166
a(lp7167
S'Mhm'
p7168
aaa(lp7169
S'SEAN'
p7170
a(lp7171
g5
aS'mean'
p7172
ag5
aS'could'
p7173
aS'but'
p7174
aaa(lp7175
g7170
a(lp7176
S'Hm'
p7177
aS'FOOD'
p7178
aaa(lp7179
S'BERNARD'
p7180
a(lp7181
S'FOOD'
p7182
ag5
aS'used'
p7183
aS'to'
p7184
aS'say'
p7185
aaa(lp7186
g7180
a(lp7187
S'well'
p7188
aS'how'
p7189
aS'much'
p7190
aS'did'
p7191
aS'you'
p7192
aS'put'
p7193
aS'in'
p7194
aS'FOOD'
p7195
aaa(lp7196
g7180
a(lp7197
g5
aS'dont'
p7198
aS'know'
p7199
aaa(lp7200
S'FRAN'
p7201
a(lp7202
S'Mhm'
p7203
aaa(lp7204
S'SEAN'
p7205
a(lp7206
S'FOOD'
p7207
ag5
aS'dont'
p7208
aS'know'
p7209
aS'FOOD'
p7210
aaa(lp7211
S'ALICE'
p7212
a(lp7213
S'Can'
p7214
aS'you'
p7215
aS'do'
p7216
aS'it'
p7217
aS'again'
p7218
aaa(lp7219
g7212
a(lp7220
S'No'
p7221
aaa(lp7222
g7212
a(lp7223
g5
aS'dont'
p7224
aS'think'
p7225
aS'so'
p7226
aaa(lp7227
S'SEAN'
p7228
a(lp7229
S'No'
p7230
aaa(lp7231
S'FRAN'
p7232
a(lp7233
S'Well'
p7234
aaa(lp7235
g7232
a(lp7236
S'my'
p7237
aS'cooking'
p7238
aS'comes'
p7239
aS'out'
p7240
aS'different'
p7241
aaa(lp7242
g7232
a(lp7243
S'differently'
p7244
aS'every'
p7245
aS'time'
p7246
aaa(lp7247
g7232
a(lp7248
S'Every'
p7249
aS'time'
p7250
ag5
aS'make'
p7251
aS'something'
p7252
aaa(lp7253
S'ALICE'
p7254
a(lp7255
S'Every'
p7256
aS'so'
p7257
aaa(lp7258
S'FRAN'
p7259
a(lp7260
S'The'
p7261
aS'only'
p7262
aS'thing'
p7263
aS'thats'
p7264
aS'consistent'
p7265
aS'is'
p7266
aaa(lp7267
g7259
a(lp7268
S'my'
p7269
aS'fried'
p7270
aS'chicken'
p7271
aaa(lp7272
g7259
a(lp7273
S'pretty'
p7274
aS'much'
p7275
aS'tastes'
p7276
aS'the'
p7277
aS'same'
p7278
aaa(lp7279
g7259
a(lp7280
S'and'
p7281
aaa(lp7282
g7259
a(lp7283
S'spaghetti'
p7284
aS'sauce'
p7285
ag5
aS'make'
p7286
aaa(lp7287
g7259
a(lp7288
S'tastes'
p7289
aS'pretty'
p7290
aS'much'
p7291
aS'the'
p7292
aS'same'
p7293
aaa(lp7294
S'SEAN'
p7295
a(lp7296
S'FOOD'
p7297
aS'Do'
p7298
aS'you'
p7299
aS'cook'
p7300
ag82
aS'lot'
p7301
aS'FOOD'
p7302
aaa(lp7303
S'FRAN'
p7304
a(lp7305
g5
aS'used'
p7306
aS'to'
p7307
aaa(lp7308
g7304
a(lp7309
g5
aS'havent'
p7310
aS'in'
p7311
aS'several'
p7312
aS'years'
p7313
aaa(lp7314
S'SEAN'
p7315
a(lp7316
S'Hm'
p7317
aaa(lp7318
S'FRAN'
p7319
a(lp7320
S'But'
p7321
aS'now'
p7322
aaa(lp7323
g7319
a(lp7324
g5
aS'have'
p7325
ag82
aS'kitchen'
p7326
aS'that'
p7327
aaa(lp7328
g7319
a(lp7329
S'again'
p7330
aS'Ill'
p7331
aS'cook'
p7332
aaa(lp7333
g7319
a(lp7334
g5
aS'at'
p7335
aS'least'
p7336
ag5
aaa(lp7337
S'SEAN'
p7338
a(lp7339
S'Youre'
p7340
aS'on'
p7341
aS'the'
p7342
aS'twelfth'
p7343
aS'floor'
p7344
aaa(lp7345
S'FRAN'
p7346
a(lp7347
S'Yeah'
p7348
aaa(lp7349
g7346
a(lp7350
g5
aS'have'
p7351
aS'great'
p7352
aS'views'
p7353
aaa(lp7354
g7346
a(lp7355
S'Im'
p7356
aS'thrilled'
p7357
aS'with'
p7358
aS'the'
p7359
aS'views'
p7360
aaa(lp7361
S'ALICE'
p7362
a(lp7363
S'You'
p7364
aS'can'
p7365
aS'ki'
p7366
aS'cook'
p7367
aS'on'
p7368
aS'the'
p7369
aS'twelfth'
p7370
aS'floor'
p7371
aaa(lp7372
S'FRAN'
p7373
a(lp7374
S'Mhm'
p7375
aaa(lp7376
S'SEAN'
p7377
a(lp7378
aa(lp7379
S'ALICE'
p7380
a(lp7381
S'XXX'
p7382
ag848
aaa(lp7383
S'SEAN'
p7384
a(lp7385
S'Are'
p7386
aS'you'
p7387
aS'sure'
p7388
aaa(lp7389
S'FRAN'
p7390
a(lp7391
S'Mhm'
p7392
aaa(lp7393
S'ALICE'
p7394
a(lp7395
g848
ag5
aS'think'
p7396
aS'theres'
p7397
aS'something'
p7398
ag848
aaa(lp7399
g7394
a(lp7400
S'the'
p7401
aS'pressure'
p7402
aS'though'
p7403
aaa(lp7404
g7394
a(lp7405
g848
aS'The'
p7406
aS'air'
p7407
aS'is'
p7408
aS'thin'
p7409
ag848
aaa(lp7410
S'FRAN'
p7411
a(lp7412
S'Mhm'
p7413
aaa(lp7414
S'ALICE'
p7415
a(lp7416
S'As'
p7417
aS'you'
p7418
aS'go'
p7419
aS'up'
p7420
aaa(lp7421
S'FRAN'
p7422
a(lp7423
S'You'
p7424
aS'have'
p7425
aS'to'
p7426
aS'adjust'
p7427
aS'for'
p7428
aS'altitude'
p7429
aaa(lp7430
S'BERNARD'
p7431
a(lp7432
g5
aS'was'
p7433
aS'thinking'
p7434
aS'of'
p7435
aS'the'
p7436
aS'barbecue'
p7437
aaa(lp7438
S'FRAN'
p7439
a(lp7440
aa(lp7441
S'BERNARD'
p7442
a(lp7443
aa(lp7444
S'ALICE'
p7445
a(lp7446
S'Thats'
p7447
aS'right'
p7448
aaa(lp7449
g7445
a(lp7450
S'Everything'
p7451
aS'cooks'
p7452
aS'faster'
p7453
aaa(lp7454
S'BERNARD'
p7455
a(lp7456
g5
aS'always'
p7457
aS'run'
p7458
aS'outside'
p7459
aS'and'
p7460
aS'cook'
p7461
aaa(lp7462
S'FRAN'
p7463
a(lp7464
S'Mm'
p7465
aaa(lp7466
S'BERNARD'
p7467
a(lp7468
S'The'
p7469
aS'altitude'
p7470
aaa(lp7471
g7467
a(lp7472
S'You'
p7473
aS'have'
p7474
aS'to'
p7475
aS'be'
p7476
aS'careful'
p7477
aaa(lp7478
g7467
a(lp7479
g848
aS'Right'
p7480
ag848
aaa(lp7481
g7467
a(lp7482
S'Especially'
p7483
aS'with'
p7484
aS'youre'
p7485
aS'baking'
p7486
aaa(lp7487
S'FRAN'
p7488
a(lp7489
S'Right'
p7490
aaa(lp7491
S'BERNARD'
p7492
a(lp7493
aa(lp7494
S'ALICE'
p7495
a(lp7496
aa(lp7497
S'FRAN'
p7498
a(lp7499
aa(lp7500
S'SEAN'
p7501
a(lp7502
S'Well'
p7503
aS'Fran'
p7504
aaa(lp7505
g7501
a(lp7506
S'Ive'
p7507
aS'been'
p7508
aS'looking'
p7509
aaa(lp7510
g7501
a(lp7511
S'really'
p7512
aaa(lp7513
g7501
a(lp7514
S'for'
p7515
ag82
aS'year'
p7516
aS'or'
p7517
aS'two'
p7518
aaa(lp7519
g7501
a(lp7520
S'at'
p7521
aS'different'
p7522
aS'places'
p7523
aS'to'
p7524
aS'live'
p7525
aaa(lp7526
g7501
a(lp7527
g5
aS'went'
p7528
aS'back'
p7529
aS'to'
p7530
aS'Europe'
p7531
aaa(lp7532
S'FRAN'
p7533
a(lp7534
S'Mhm'
p7535
aaa(lp7536
S'SEAN'
p7537
a(lp7538
S'to'
p7539
aS'London'
p7540
aS'and'
p7541
aS'Paris'
p7542
aaa(lp7543
g7537
a(lp7544
S'Ive'
p7545
aS'been'
p7546
aS'in'
p7547
aS'Sun'
p7548
aS'Valley'
p7549
aaa(lp7550
g7537
a(lp7551
S'Tucson'
p7552
aaa(lp7553
g7537
a(lp7554
S'Ive'
p7555
aS'been'
p7556
aaa(lp7557
g7537
a(lp7558
S'and'
p7559
aS'Montana'
p7560
aaa(lp7561
g7537
a(lp7562
S'Seattle'
p7563
aaa(lp7564
g7537
a(lp7565
g5
aS'liked'
p7566
aS'Seattle'
p7567
ag82
aS'lot'
p7568
aaa(lp7569
S'FRAN'
p7570
a(lp7571
S'Mhm'
p7572
aaa(lp7573
S'SEAN'
p7574
a(lp7575
S'But'
p7576
ag5
aS'couldnt'
p7577
aS'live'
p7578
aS'there'
p7579
aaa(lp7580
g7574
a(lp7581
S'And'
p7582
aaa(lp7583
g7574
a(lp7584
S'Outside'
p7585
aS'of'
p7586
aS'New'
p7587
aS'York'
p7588
aaa(lp7589
g7574
a(lp7590
S'and'
p7591
ag5
aS'couldnt'
p7592
aS'go'
p7593
aS'back'
p7594
aS'to'
p7595
aS'live'
p7596
aS'in'
p7597
aS'New'
p7598
aS'York'
p7599
aS'again'
p7600
aaa(lp7601
g7574
a(lp7602
S'its'
p7603
aS'been'
p7604
aaa(lp7605
g7574
a(lp7606
S'Im'
p7607
aS'over'
p7608
aS'it'
p7609
aaa(lp7610
S'FRAN'
p7611
a(lp7612
S'Mhm'
p7613
aaa(lp7614
S'SEAN'
p7615
a(lp7616
S'This'
p7617
aS'is'
p7618
aS'the'
p7619
aS'best'
p7620
aS'place'
p7621
aS'Ive'
p7622
aS'found'
p7623
aaa(lp7624
S'FRAN'
p7625
a(lp7626
S'It'
p7627
ag848
aS'got'
p7628
ag848
aaa(lp7629
g7625
a(lp7630
g5
aS'said'
p7631
aaa(lp7632
S'SEAN'
p7633
a(lp7634
S'and'
p7635
aS'Alice'
p7636
aS'always'
p7637
aS'says'
p7638
aaa(lp7639
S'ALICE'
p7640
a(lp7641
g5
aS'XX'
p7642
aaa(lp7643
S'SEAN'
p7644
a(lp7645
S'VOX'
p7646
aS'might'
p7647
aS'as'
p7648
aS'well'
p7649
aS'not'
p7650
aS'look'
p7651
aS'Sean'
p7652
aaa(lp7653
g7644
a(lp7654
S'Ive'
p7655
aS'looked'
p7656
aS'everywhere'
p7657
aS'VOX'
p7658
aaa(lp7659
S'ALICE'
p7660
a(lp7661
S'Ive'
p7662
aS'looked'
p7663
aS'everywhere'
p7664
aaa(lp7665
S'SEAN'
p7666
a(lp7667
aa(lp7668
S'ALICE'
p7669
a(lp7670
g848
aS'you'
p7671
aS'know'
p7672
ag848
aaa(lp7673
S'FRAN'
p7674
a(lp7675
S'Its'
p7676
aS'pointless'
p7677
aaa(lp7678
S'ALICE'
p7679
a(lp7680
S'Ive'
p7681
aS'looked'
p7682
aS'everywhere'
p7683
aaa(lp7684
S'FRAN'
p7685
a(lp7686
S'Right'
p7687
aaa(lp7688
S'SEAN'
p7689
a(lp7690
S'This'
p7691
aS'is'
p7692
ag82
aS'tiny'
p7693
aS'little'
p7694
aS'geographically'
p7695
aS'wonderful'
p7696
aaa(lp7697
S'ALICE'
p7698
a(lp7699
S'Haven'
p7700
aaa(lp7701
g7698
a(lp7702
g848
aS'This'
p7703
aS'is'
p7704
ag848
aaa(lp7705
S'SEAN'
p7706
a(lp7707
S'Mhm'
p7708
aaa(lp7709
S'FRAN'
p7710
a(lp7711
S'Bloom'
p7712
aaa(lp7713
S'SEAN'
p7714
a(lp7715
S'FOOD'
p7716
aS'And'
p7717
aS'it'
p7718
aS'is'
p7719
aS'the'
p7720
aS'geography'
p7721
aS'Alice'
p7722
aS'FOOD'
p7723
aaa(lp7724
S'ALICE'
p7725
a(lp7726
S'Its'
p7727
aS'whatever'
p7728
aS'it'
p7729
aS'is'
p7730
aaa(lp7731
g7725
a(lp7732
S'It'
p7733
aS'works'
p7734
aaa(lp7735
S'SEAN'
p7736
a(lp7737
S'Its'
p7738
aS'geography'
p7739
aaa(lp7740
g7736
a(lp7741
S'But'
p7742
ag5
aS'do'
p7743
aS'miss'
p7744
aaa(lp7745
g7736
a(lp7746
g82
aS'lot'
p7747
aS'of'
p7748
aS'things'
p7749
aS'about'
p7750
ag82
aS'city'
p7751
aaa(lp7752
g7736
a(lp7753
S'And'
p7754
aS'about'
p7755
aS'New'
p7756
aS'York'
p7757
aaa(lp7758
S'FRAN'
p7759
a(lp7760
S'Well'
p7761
aS'we'
p7762
aS'go'
p7763
aS'to'
p7764
aS'the'
p7765
aS'opera'
p7766
aaa(lp7767
g7759
a(lp7768
S'and'
p7769
ag5
aS'go'
p7770
aS'to'
p7771
aS'museums'
p7772
aaa(lp7773
S'SEAN'
p7774
a(lp7775
S'Mm'
p7776
aaa(lp7777
S'FRAN'
p7778
a(lp7779
S'And'
p7780
aaa(lp7781
g7778
a(lp7782
g5
aS'would'
p7783
aS'miss'
p7784
aS'that'
p7785
aaa(lp7786
S'SEAN'
p7787
a(lp7788
S'Mhm'
p7789
aaa(lp7790
S'BERNARD'
p7791
a(lp7792
S'The'
p7793
aS'New'
p7794
aS'York'
p7795
aS'opera'
p7796
aaa(lp7797
S'FRAN'
p7798
a(lp7799
S'The'
p7800
aS'Met'
p7801
aaa(lp7802
S'BERNARD'
p7803
a(lp7804
S'Mhm'
p7805
aaa(lp7806
S'ALICE'
p7807
a(lp7808
S'Thats'
p7809
aS'the'
p7810
aS'best'
p7811
aS'part'
p7812
aS'of'
p7813
aS'Age'
p7814
aS'of'
p7815
aS'Innocence'
p7816
aaa(lp7817
g7807
a(lp7818
S'The'
p7819
aS'beginning'
p7820
aS'of'
p7821
aS'it'
p7822
aaa(lp7823
g7807
a(lp7824
g5
aS'just'
p7825
aS'saw'
p7826
aS'that'
p7827
aS'today'
p7828
aaa(lp7829
S'SEAN'
p7830
a(lp7831
S'She'
p7832
aS'went'
p7833
aS'today'
p7834
aaa(lp7835
S'FRAN'
p7836
a(lp7837
S'Mm'
p7838
aaa(lp7839
S'ALICE'
p7840
a(lp7841
S'And'
p7842
aS'this'
p7843
aaa(lp7844
g7840
a(lp7845
S'the'
p7846
aS'scene'
p7847
aS'at'
p7848
aS'the'
p7849
aS'opera'
p7850
aaa(lp7851
S'SEAN'
p7852
a(lp7853
S'Mm'
p7854
aaa(lp7855
S'ALICE'
p7856
a(lp7857
S'New'
p7858
aS'York'
p7859
aaa(lp7860
g7856
a(lp7861
S'In'
p7862
aS'eighteen'
p7863
aS'seventy'
p7864
aaa(lp7865
S'FRAN'
p7866
a(lp7867
S'Mm'
p7868
aaa(lp7869
S'ALICE'
p7870
a(lp7871
S'Th'
p7872
aaa(lp7873
g7870
a(lp7874
S'VOX'
p7875
aS'Its'
p7876
aS'such'
p7877
aS'detail'
p7878
aS'VOX'
p7879
aaa(lp7880
g7870
a(lp7881
S'An'
p7882
aaa(lp7883
S'SEAN'
p7884
a(lp7885
g848
aS'It'
p7886
ag848
aS'said'
p7887
aS'thats'
p7888
aS'the'
p7889
aS'best'
p7890
aS'thing'
p7891
aaa(lp7892
S'ALICE'
p7893
a(lp7894
S'VOX'
p7895
aS'Oh'
p7896
aaa(lp7897
g7893
a(lp7898
S'God'
p7899
aS'is'
p7900
aS'it'
p7901
aS'VOX'
p7902
aaa(lp7903
S'SEAN'
p7904
a(lp7905
S'the'
p7906
aS'New'
p7907
aS'York'
p7908
aS'scene'
p7909
aaa(lp7910
S'BERNARD'
p7911
a(lp7912
g5
aS'wonder'
p7913
aS'where'
p7914
aS'the'
p7915
aS'opera'
p7916
aS'house'
p7917
aS'was'
p7918
aaa(lp7919
S'FRAN'
p7920
a(lp7921
S'Oh'
p7922
aS'well'
p7923
aaa(lp7924
S'SEAN'
p7925
a(lp7926
S'It'
p7927
aS'was'
p7928
aS'down'
p7929
aS'on'
p7930
aaa(lp7931
S'FRAN'
p7932
a(lp7933
S'when'
p7934
ag5
aS'came'
p7935
aS'to'
p7936
aS'New'
p7937
aS'York'
p7938
aaa(lp7939
g7932
a(lp7940
S'it'
p7941
aS'was'
p7942
aS'Thirtyninth'
p7943
aS'and'
p7944
ag2458
aaa(lp7945
S'SEAN'
p7946
a(lp7947
S'Fourteenth'
p7948
aS'St'
p7949
aaa(lp7950
S'FRAN'
p7951
a(lp7952
S'When'
p7953
ag5
aS'came'
p7954
aS'to'
p7955
aS'New'
p7956
aS'York'
p7957
aaa(lp7958
g7951
a(lp7959
S'it'
p7960
aS'was'
p7961
aS'on'
p7962
aS'Thirtyninth'
p7963
aS'and'
p7964
aS'and'
p7965
aS'Broadway'
p7966
aaa(lp7967
S'ALICE'
p7968
a(lp7969
g5
aS'think'
p7970
aS'its'
p7971
aS'at'
p7972
aS'the'
p7973
aS'big'
p7974
aS'XX'
p7975
aaa(lp7976
S'BERNARD'
p7977
a(lp7978
S'What'
p7979
aS'year'
p7980
aS'were'
p7981
aS'you'
p7982
aS'there'
p7983
aaa(lp7984
S'FRAN'
p7985
a(lp7986
S'Sixtyf'
p7987
aS'four'
p7988
aaa(lp7989
g7985
a(lp7990
S'There'
p7991
aS'were'
p7992
aaa(lp7993
g7985
a(lp7994
S'It'
p7995
aS'was'
p7996
aS'the'
p7997
aS'last'
p7998
aS'season'
p7999
aS'there'
p8000
aaa(lp8001
S'BERNARD'
p8002
a(lp8003
S'They'
p8004
aS'were'
p8005
ag3851
aaa(lp8006
g8002
a(lp8007
S'Oh'
p8008
aaa(lp8009
g8002
a(lp8010
S'they'
p8011
aS'were'
p8012
aS'building'
p8013
aS'Lincoln'
p8014
aS'Center'
p8015
aaa(lp8016
S'SEAN'
p8017
a(lp8018
S'That'
p8019
aS'was'
p8020
aS'the'
p8021
aS'old'
p8022
aS'opera'
p8023
aS'house'
p8024
aaa(lp8025
S'BERNARD'
p8026
a(lp8027
S'Because'
p8028
aaa(lp8029
S'FRAN'
p8030
a(lp8031
S'That'
p8032
aS'was'
p8033
aS'the'
p8034
aS'last'
p8035
aS'season'
p8036
aS'there'
p8037
aaa(lp8038
S'BERNARD'
p8039
a(lp8040
S'Cause'
p8041
ag5
aS'was'
p8042
aS'there'
p8043
aaa(lp8044
g8039
a(lp8045
g5
ag5
aS'was'
p8046
aS'there'
p8047
aaa(lp8048
g8039
a(lp8049
S'just'
p8050
aS'as'
p8051
aS'Lincoln'
p8052
aS'Center'
p8053
aS'was'
p8054
aS'being'
p8055
aS'finished'
p8056
aaa(lp8057
S'ENV'
p8058
a(lp8059
aa(lp8060
S'BERNARD'
p8061
a(lp8062
S'and'
p8063
aaa(lp8064
S'SEAN'
p8065
a(lp8066
S'Im'
p8067
aS'hungry'
p8068
aaa(lp8069
S'FRAN'
p8070
a(lp8071
S'So'
p8072
aS'that'
p8073
aS'would'
p8074
aS'have'
p8075
aS'been'
p8076
aS'sixtysix'
p8077
aaa(lp8078
S'ALICE'
p8079
a(lp8080
S'So'
p8081
aS'good'
p8082
aaa(lp8083
S'BERNARD'
p8084
a(lp8085
g738
aS'Was'
p8086
aS'it'
p8087
aS'that'
p8088
aS'late'
p8089
ag738
aaa(lp8090
g8084
a(lp8091
g5
aS'have'
p8092
aS'it'
p8093
aS'written'
p8094
aS'down'
p8095
aS'some'
p8096
aS'place'
p8097
aaa(lp8098
g8084
a(lp8099
S'Those'
p8100
aS'years'
p8101
aS'are'
p8102
aS'all'
p8103
aS'foggy'
p8104
aaa(lp8105
S'FRAN'
p8106
a(lp8107
S'Sixtyfive'
p8108
aaa(lp8109
S'BERNARD'
p8110
a(lp8111
S'Sixtyfive'
p8112
aaa(lp8113
g8110
a(lp8114
S'sixtysix'
p8115
aaa(lp8116
S'FRAN'
p8117
a(lp8118
S'Something'
p8119
aS'like'
p8120
aS'that'
p8121
aaa(lp8122
S'BERNARD'
p8123
a(lp8124
S'And'
p8125
aS'Leontyne'
p8126
aS'Price'
p8127
aS'sang'
p8128
aS'Cleopatra'
p8129
aS'in'
p8130
aaa(lp8131
S'FRAN'
p8132
a(lp8133
S'Oh'
p8134
aS'my'
p8135
aaa(lp8136
S'BERNARD'
p8137
a(lp8138
S'One'
p8139
aS'of'
p8140
aS'the'
p8141
aaa(lp8142
S'FRAN'
p8143
a(lp8144
S'Mm'
p8145
aaa(lp8146
g8143
a(lp8147
S'That'
p8148
aS'would'
p8149
aS'have'
p8150
aS'been'
p8151
aS'wonderful'
p8152
aS'to'
p8153
aS'see'
p8154
aaa(lp8155
S'SEAN'
p8156
a(lp8157
S'Th'
p8158
aS'was'
p8159
aS'it'
p8160
aS'the'
p8161
aS'old'
p8162
aS'opera'
p8163
aS'house'
p8164
aaa(lp8165
g8156
a(lp8166
S'or'
p8167
aS'the'
p8168
aS'new'
p8169
aS'one'
p8170
aaa(lp8171
S'BERNARD'
p8172
a(lp8173
S'No'
p8174
aS'the'
p8175
aS'new'
p8176
aaa(lp8177
g8172
a(lp8178
S'Lincoln'
p8179
aS'Center'
p8180
aaa(lp8181
S'SEAN'
p8182
a(lp8183
S'Oh'
p8184
aaa(lp8185
S'BERNARD'
p8186
a(lp8187
S'It'
p8188
aS'had'
p8189
aS'just'
p8190
aaa(lp8191
S'FRAN'
p8192
a(lp8193
S'Its'
p8194
aaa(lp8195
S'BERNARD'
p8196
a(lp8197
S'just'
p8198
aS'been'
p8199
aS'opened'
p8200
aaa(lp8201
S'FRAN'
p8202
a(lp8203
S'Well'
p8204
ag5
aS'like'
p8205
aS'it'
p8206
aaa(lp8207
g8202
a(lp8208
g5
aS'mean'
p8209
aaa(lp8210
S'BERNARD'
p8211
a(lp8212
S'FOOD'
p8213
aS'Oh'
p8214
aaa(lp8215
g8211
a(lp8216
S'so'
p8217
aS'you'
p8218
aS'got'
p8219
aS'to'
p8220
aS'go'
p8221
aS'to'
p8222
aS'the'
p8223
aS'old'
p8224
aS'one'
p8225
aS'FOOD'
p8226
aaa(lp8227
S'FRAN'
p8228
a(lp8229
S'Yeah'
p8230
aaa(lp8231
S'BERNARD'
p8232
a(lp8233
S'The'
p8234
aS'one'
p8235
aS'thats'
p8236
aS'from'
p8237
aS'eighteen'
p8238
aaa(lp8239
S'FRAN'
p8240
a(lp8241
S'But'
p8242
aS'the'
p8243
aaa(lp8244
g8240
a(lp8245
g5
aS'dont'
p8246
aS'know'
p8247
aS'when'
p8248
aS'it'
p8249
aaa(lp8250
g8240
a(lp8251
S'You'
p8252
aS'know'
p8253
aaa(lp8254
g8240
a(lp8255
S'they'
p8256
aS'tore'
p8257
aS'it'
p8258
aS'down'
p8259
aaa(lp8260
g8240
a(lp8261
S'and'
p8262
ag5
aS'dont'
p8263
aS'remember'
p8264
aaa(lp8265
g8240
a(lp8266
g5
aS'was'
p8267
aS'too'
p8268
aS'new'
p8269
aaa(lp8270
S'ALICE'
p8271
a(lp8272
S'Youll'
p8273
aS'be'
p8274
aS'able'
p8275
aS'to'
p8276
aS'see'
p8277
aS'in'
p8278
aS'the'
p8279
aS'movie'
p8280
aaa(lp8281
g8271
a(lp8282
S'if'
p8283
aS'you'
p8284
aS'recognize'
p8285
aaa(lp8286
S'FRAN'
p8287
a(lp8288
g5
aS'was'
p8289
aS'too'
p8290
aS'new'
p8291
aS'in'
p8292
aS'New'
p8293
aS'York'
p8294
aaa(lp8295
g8287
a(lp8296
S'to'
p8297
aS'understand'
p8298
aS'what'
p8299
aS'it'
p8300
aS'meant'
p8301
aaa(lp8302
g8287
a(lp8303
S'You'
p8304
aS'know'
p8305
aaa(lp8306
S'SEAN'
p8307
a(lp8308
S'Mm'
p8309
aaa(lp8310
S'FRAN'
p8311
a(lp8312
S'So'
p8313
aaa(lp8314
S'ALICE'
p8315
a(lp8316
S'Well'
p8317
ag5
aS'grew'
p8318
aS'up'
p8319
aS'in'
p8320
aS'Philadelphia'
p8321
aaa(lp8322
g8315
a(lp8323
S'and'
p8324
aS'thats'
p8325
aS'too'
p8326
aS'close'
p8327
aS'to'
p8328
aS'New'
p8329
aS'York'
p8330
aaa(lp8331
S'SEAN'
p8332
a(lp8333
aa(lp8334
S'ALICE'
p8335
a(lp8336
g5
aS'used'
p8337
aS'to'
p8338
aS'go'
p8339
aS'there'
p8340
aS'all'
p8341
aS'the'
p8342
aS'time'
p8343
aaa(lp8344
S'FRAN'
p8345
a(lp8346
S'Mhm'
p8347
aaa(lp8348
S'ALICE'
p8349
a(lp8350
S'On'
p8351
aS'the'
p8352
aS'train'
p8353
aaa(lp8354
g8349
a(lp8355
S'Every'
p8356
aS'Wednesday'
p8357
aaa(lp8358
g8349
a(lp8359
S'On'
p8360
aS'theater'
p8361
aS'day'
p8362
aaa(lp8363
S'SEAN'
p8364
a(lp8365
S'Oh'
p8366
aS'you'
p8367
aS'went'
p8368
ag82
aS'lot'
p8369
aaa(lp8370
S'ALICE'
p8371
a(lp8372
S'All'
p8373
aS'the'
p8374
aS'time'
p8375
aaa(lp8376
g8371
a(lp8377
S'Cause'
p8378
ag5
aS'was'
p8379
ag848
aS'this'
p8380
aS'theater'
p8381
ag848
aaa(lp8382
S'BERNARD'
p8383
a(lp8384
S'And'
p8385
aS'all'
p8386
aS'that'
p8387
aS'time'
p8388
aS'you'
p8389
aS'never'
p8390
aS'learned'
p8391
aS'to'
p8392
aS'get'
p8393
ag82
aS'cab'
p8394
aaa(lp8395
S'ALICE'
p8396
a(lp8397
g5
aS'love'
p8398
aS'theater'
p8399
aaa(lp8400
S'BERNARD'
p8401
a(lp8402
aa(lp8403
S'ALICE'
p8404
a(lp8405
S'No'
p8406
aaa(lp8407
g8404
a(lp8408
S'Oh'
p8409
aS'no'
p8410
aaa(lp8411
S'FRAN'
p8412
a(lp8413
S'Right'
p8414
aaa(lp8415
S'SEAN'
p8416
a(lp8417
aa(lp8418
S'ALICE'
p8419
a(lp8420
g5
aS'would'
p8421
aS'VOX'
p8422
aS'walk'
p8423
aS'VOX'
p8424
aaa(lp8425
g8419
a(lp8426
g5
aS'mean'
p8427
aaa(lp8428
S'BERNARD'
p8429
a(lp8430
aa(lp8431
S'ALICE'
p8432
a(lp8433
S'VOX'
p8434
ag5
aS'wouldnt'
p8435
aS'take'
p8436
ag82
aS'cab'
p8437
aS'when'
p8438
ag5
aS'was'
p8439
aS'young'
p8440
aS'VOX'
p8441
aaa(lp8442
S'SEAN'
p8443
a(lp8444
aa(lp8445
g8443
a(lp8446
S'Im'
p8447
aS'not'
p8448
aS'good'
p8449
aS'at'
p8450
aS'cabs'
p8451
aaa(lp8452
S'FRAN'
p8453
a(lp8454
S'Next'
p8455
aS'time'
p8456
aS'you'
p8457
aS'come'
p8458
aS'to'
p8459
aS'New'
p8460
aS'York'
p8461
aaa(lp8462
S'ALICE'
p8463
a(lp8464
aa(lp8465
S'FRAN'
p8466
a(lp8467
S'you'
p8468
aS'must'
p8469
aS'call'
p8470
aS'me'
p8471
aS'my'
p8472
aS'dear'
p8473
aaa(lp8474
g8466
a(lp8475
g5
aS'will'
p8476
aS'give'
p8477
aS'you'
p8478
aS'taxi'
p8479
aS'lessons'
p8480
aaa(lp8481
S'ALICE'
p8482
a(lp8483
aa(lp8484
S'FRAN'
p8485
a(lp8486
aa(lp8487
g8485
a(lp8488
S'See'
p8489
aS'what'
p8490
aS'you'
p8491
aS'do'
p8492
aS'is'
p8493
aaa(lp8494
g8485
a(lp8495
S'you'
p8496
aS'sort'
p8497
aS'of'
p8498
aS'sidle'
p8499
aS'up'
p8500
aS'to'
p8501
aS'em'
p8502
aaa(lp8503
g8485
a(lp8504
S'and'
p8505
aS'you'
p8506
aS'give'
p8507
aS'em'
p8508
ag82
aS'bump'
p8509
aaa(lp8510
g8485
a(lp8511
S'And'
p8512
aS'then'
p8513
aS'you'
p8514
aS'get'
p8515
aS'in'
p8516
aaa(lp8517
S'SEAN'
p8518
a(lp8519
aa(lp8520
S'FRAN'
p8521
a(lp8522
aa(lp8523
S'ALICE'
p8524
a(lp8525
aa(lp8526
S'BERNARD'
p8527
a(lp8528
aa(lp8529
S'ALICE'
p8530
a(lp8531
g5
aS'have'
p8532
aS'boxing'
p8533
aS'gloves'
p8534
aaa(lp8535
S'FRAN'
p8536
a(lp8537
aa(lp8538
S'ALICE'
p8539
a(lp8540
S'everything'
p8541
aaa(lp8542
S'FRAN'
p8543
a(lp8544
g848
aS'Right'
p8545
ag848
aaa(lp8546
S'BERNARD'
p8547
a(lp8548
aa(lp8549
S'SEAN'
p8550
a(lp8551
g5
aS'never'
p8552
aS'had'
p8553
aS'trouble'
p8554
aaa(lp8555
S'ALICE'
p8556
a(lp8557
S'Something'
p8558
aS'spray'
p8559
aaa(lp8560
g8556
a(lp8561
S'Youre'
p8562
aS'big'
p8563
aaa(lp8564
g8556
a(lp8565
S'Youre'
p8566
ag82
aS'big'
p8567
aS'man'
p8568
aaa(lp8569
S'SEAN'
p8570
a(lp8571
S'Yeah'
p8572
aaa(lp8573
g8570
a(lp8574
S'thats'
p8575
aS'true'
p8576
aaa(lp8577
S'BERNARD'
p8578
a(lp8579
S'No'
p8580
aaa(lp8581
S'ALICE'
p8582
a(lp8583
S'Im'
p8584
aS'this'
p8585
aS'little'
p8586
aS'person'
p8587
aS'you'
p8588
aS'know'
p8589
aaa(lp8590
S'BERNARD'
p8591
a(lp8592
S'It'
p8593
aS'was'
p8594
aaa(lp8595
g8591
a(lp8596
S'It'
p8597
aS'was'
p8598
ag82
aS'game'
p8599
aaa(lp8600
g8591
a(lp8601
S'To'
p8602
aS'me'
p8603
aS'it'
p8604
aS'was'
p8605
aS'like'
p8606
ag82
aS'game'
p8607
aaa(lp8608
g8591
a(lp8609
g848
aS'Do'
p8610
ag5
ag848
aS'get'
p8611
aS'it'
p8612
aS'or'
p8613
aS'not'
p8614
aaa(lp8615
S'ALICE'
p8616
a(lp8617
g5
aS'never'
p8618
aS'got'
p8619
aS'it'
p8620
aaa(lp8621
S'SEAN'
p8622
a(lp8623
aa(lp8624
S'ALICE'
p8625
a(lp8626
g5
aS'mean'
p8627
aS'really'
p8628
aaa(lp8629
g8625
a(lp8630
S'Im'
p8631
aS'used'
p8632
aS'to'
p8633
aS'getting'
p8634
aS'what'
p8635
ag5
aS'want'
p8636
aaa(lp8637
g8625
a(lp8638
S'But'
p8639
aS'n'
p8640
aaa(lp8641
S'SEAN'
p8642
a(lp8643
aa(lp8644
S'ALICE'
p8645
a(lp8646
g738
aS'Not'
p8647
aS'cabs'
p8648
ag738
aaa(lp8649
S'BERNARD'
p8650
a(lp8651
g5
aS'couldnt'
p8652
aS'have'
p8653
aS'been'
p8654
aS'greener'
p8655
aS'when'
p8656
ag5
aS'went'
p8657
aaa(lp8658
g8650
a(lp8659
g5
aS'mean'
p8660
aS'this'
p8661
aS'California'
p8662
aaa(lp8663
S'FRAN'
p8664
a(lp8665
aa(lp8666
S'BERNARD'
p8667
a(lp8668
S'you'
p8669
aS'know'
p8670
aaa(lp8671
g8667
a(lp8672
S'all'
p8673
ag5
aS'knew'
p8674
aS'was'
p8675
aS'the'
p8676
aS'beach'
p8677
aaa(lp8678
g8667
a(lp8679
S'And'
p8680
aS'there'
p8681
ag5
aS'was'
p8682
aaa(lp8683
g8667
a(lp8684
S'in'
p8685
aS'New'
p8686
aS'York'
p8687
aS'city'
p8688
aaa(lp8689
S'FRAN'
p8690
a(lp8691
S'Did'
p8692
aS'you'
p8693
aS'like'
p8694
aS'it'
p8695
aaa(lp8696
S'SEAN'
p8697
a(lp8698
g848
aS'Hair'
p8699
aS'school'
p8700
ag848
aaa(lp8701
S'FRAN'
p8702
a(lp8703
S'How'
p8704
aS'long'
p8705
aS'did'
p8706
aS'you'
p8707
aS'stay'
p8708
aaa(lp8709
S'BERNARD'
p8710
a(lp8711
S'Loved'
p8712
aS'it'
p8713
aaa(lp8714
g8710
a(lp8715
S'Four'
p8716
aS'years'
p8717
aaa(lp8718
S'FRAN'
p8719
a(lp8720
S'Whered'
p8721
aS'you'
p8722
aS'live'
p8723
aaa(lp8724
S'BERNARD'
p8725
a(lp8726
S'Eightyfirst'
p8727
aS'and'
p8728
aS'First'
p8729
aaa(lp8730
S'FRAN'
p8731
a(lp8732
S'Mhm'
p8733
aaa(lp8734
S'BERNARD'
p8735
a(lp8736
S'then'
p8737
aaa(lp8738
g8735
a(lp8739
S'Sixty'
p8740
aS'fourth'
p8741
aS'and'
p8742
aS'Second'
p8743
aaa(lp8744
S'FRAN'
p8745
a(lp8746
S'Mhm'
p8747
aaa(lp8748
S'BERNARD'
p8749
a(lp8750
S'and'
p8751
aS'then'
p8752
aaa(lp8753
g8749
a(lp8754
S'the'
p8755
aS'Lower'
p8756
aS'East'
p8757
aS'Side'
p8758
aaa(lp8759
g8749
a(lp8760
S'West'
p8761
aS'Tenth'
p8762
aaa(lp8763
S'FRAN'
p8764
a(lp8765
S'Well'
p8766
aaa(lp8767
g8764
a(lp8768
S'thats'
p8769
aS'not'
p8770
aS'the'
p8771
aS'Lower'
p8772
aS'East'
p8773
aS'Side'
p8774
aaa(lp8775
g8764
a(lp8776
S'West'
p8777
aS'Tenth'
p8778
aS'is'
p8779
aS'the'
p8780
aS'Village'
p8781
aaa(lp8782
S'BERNARD'
p8783
a(lp8784
S'Oh'
p8785
aS'no'
p8786
aS'wait'
p8787
aaa(lp8788
g8783
a(lp8789
S'Not'
p8790
aS'West'
p8791
aS'Tenth'
p8792
aaa(lp8793
g8783
a(lp8794
S'it'
p8795
aS'mustve'
p8796
aS'been'
p8797
aaa(lp8798
g8783
a(lp8799
g738
aS'Forget'
p8800
aS'my'
p8801
aS'last'
p8802
aS'address'
p8803
ag738
aaa(lp8804
S'FRAN'
p8805
a(lp8806
S'East'
p8807
aS'Tenth'
p8808
aaa(lp8809
S'BERNARD'
p8810
a(lp8811
S'Yeah'
p8812
aaa(lp8813
g8810
a(lp8814
S'East'
p8815
aS'Tenth'
p8816
aaa(lp8817
S'FRAN'
p8818
a(lp8819
S'Mhm'
p8820
aaa(lp8821
S'BERNARD'
p8822
a(lp8823
S'Thats'
p8824
aS'right'
p8825
aaa(lp8826
g8822
a(lp8827
S'It'
p8828
aS'changes'
p8829
aaa(lp8830
S'FRAN'
p8831
a(lp8832
S'Right'
p8833
aaa(lp8834
g8831
a(lp8835
S'at'
p8836
aS'Fifth'
p8837
aS'Avenue'
p8838
aaa(lp8839
S'BERNARD'
p8840
a(lp8841
g5
aS'think'
p8842
aS'between'
p8843
aS'First'
p8844
aS'and'
p8845
aS'Second'
p8846
aS'or'
p8847
aaa(lp8848
S'FRAN'
p8849
a(lp8850
S'Mhm'
p8851
aaa(lp8852
S'BERNARD'
p8853
a(lp8854
g5
aS'wasnt'
p8855
aS'down'
p8856
aS'in'
p8857
aS'As'
p8858
aS'bees'
p8859
aS'and'
p8860
aS'cees'
p8861
aaa(lp8862
S'FRAN'
p8863
a(lp8864
S'Right'
p8865
aaa(lp8866
S'BERNARD'
p8867
a(lp8868
S'It'
p8869
aS'wasnt'
p8870
aS'down'
p8871
aS'that'
p8872
aS'far'
p8873
aaa(lp8874
S'FRAN'
p8875
a(lp8876
S'Alphabet'
p8877
aS'city'
p8878
aaa(lp8879
S'BERNARD'
p8880
a(lp8881
S'Yeah'
p8882
aaa(lp8883
S'FRAN'
p8884
a(lp8885
S'Right'
p8886
aaa(lp8887
S'ALICE'
p8888
a(lp8889
S'Do'
p8890
aS'you'
p8891
aS'have'
p8892
aS'any'
p8893
aS'kids'
p8894
aaa(lp8895
g8888
a(lp8896
g738
aS'Did'
p8897
aS'you'
p8898
aS'ever'
p8899
aS'manage'
p8900
aS'kids'
p8901
ag738
aaa(lp8902
S'FRAN'
p8903
a(lp8904
S'My'
p8905
aS'husband'
p8906
aS'has'
p8907
aS'two'
p8908
aS'children'
p8909
aaa(lp8910
g8903
a(lp8911
S'And'
p8912
aaa(lp8913
S'ALICE'
p8914
a(lp8915
S'Did'
p8916
aS'you'
p8917
aS'raise'
p8918
aS'em'
p8919
aS'in'
p8920
aS'New'
p8921
aS'York'
p8922
aaa(lp8923
S'ENV'
p8924
a(lp8925
S'DOGS_BARKING'
p8926
aaa(lp8927
S'ALICE'
p8928
a(lp8929
g5
aS'was'
p8930
aS'gonna'
p8931
aS'say'
p8932
aaa(lp8933
g8928
a(lp8934
S'is'
p8935
aS'that'
p8936
aS'possible'
p8937
aaa(lp8938
S'FRAN'
p8939
a(lp8940
g5
aS'didnt'
p8941
aaa(lp8942
S'ALICE'
p8943
a(lp8944
S'can'
p8945
aS'anybody'
p8946
aaa(lp8947
S'FRAN'
p8948
a(lp8949
S'It'
p8950
aS'is'
p8951
aS'possible'
p8952
aaa(lp8953
g8948
a(lp8954
S'And'
p8955
aS'they'
p8956
aS'were'
p8957
aS'raised'
p8958
aS'partly'
p8959
aS'in'
p8960
aS'New'
p8961
aS'York'
p8962
aaa(lp8963
g8948
a(lp8964
S'But'
p8965
ag8640
aaa(lp8966
g8948
a(lp8967
S'But'
p8968
aS'not'
p8969
aS'by'
p8970
aS'me'
p8971
aaa(lp8972
g8948
a(lp8973
S'But'
p8974
aaa(lp8975
g8948
a(lp8976
S'um'
p8977
aaa(lp8978
g8948
a(lp8979
g5
aS'have'
p8980
aS'been'
p8981
aS'been'
p8982
aS'clever'
p8983
aS'enough'
p8984
aS'to'
p8985
aS'have'
p8986
aS'grandchildren'
p8987
aaa(lp8988
g8948
a(lp8989
S'and'
p8990
aS'skip'
p8991
aS'that'
p8992
aS'interim'
p8993
aS'step'
p8994
aS'of'
p8995
aS'having'
p8996
aS'to'
p8997
aS'raise'
p8998
aS'children'
p8999
aaa(lp9000
g8948
a(lp9001
S'So'
p9002
aaa(lp9003
S'ALICE'
p9004
a(lp9005
S'Oh'
p9006
aaa(lp9007
g9004
a(lp9008
S'right'
p9009
aS'to'
p9010
aS'the'
p9011
aaa(lp9012
S'FRAN'
p9013
a(lp9014
S'so'
p9015
aS'Im'
p9016
aS'the'
p9017
aS'grandmother'
p9018
aaa(lp9019
S'BERNARD'
p9020
a(lp9021
S'Oh'
p9022
aS'so'
p9023
aS'you'
p9024
aS'get'
p9025
aS'to'
p9026
aS'be'
p9027
ag82
aaa(lp9028
S'FRAN'
p9029
a(lp9030
S'and'
p9031
ag5
aaa(lp9032
S'BERNARD'
p9033
a(lp9034
g82
aS'grandma'
p9035
aaa(lp9036
S'FRAN'
p9037
a(lp9038
S'Uh'
p9039
aaa(lp9040
g9037
a(lp9041
S'yes'
p9042
aaa(lp9043
g9037
a(lp9044
g5
aS'get'
p9045
aS'to'
p9046
aS'be'
p9047
ag82
aS'grandmother'
p9048
aS'and'
p9049
aaa(lp9050
g9037
a(lp9051
g5
aS'babysit'
p9052
aaa(lp9053
S'ALICE'
p9054
a(lp9055
g463
aS'grandmother'
p9056
aaa(lp9057
S'FRAN'
p9058
a(lp9059
S'and'
p9060
ag5
aS'see'
p9061
aS'the'
p9062
aS'kids'
p9063
aaa(lp9064
g9058
a(lp9065
S'and'
p9066
aS'they'
p9067
aS'come'
p9068
aaa(lp9069
g9058
a(lp9070
S'you'
p9071
aS'know'
p9072
aaa(lp9073
g9058
a(lp9074
S'and'
p9075
aS'its'
p9076
aS'wonderful'
p9077
aaa(lp9078
S'BERNARD'
p9079
a(lp9080
S'How'
p9081
aS'long'
p9082
aS'have'
p9083
aS'you'
p9084
aS'been'
p9085
aS'married'
p9086
aaa(lp9087
S'ENV'
p9088
a(lp9089
S'DOGS_BARKING'
p9090
aaa(lp9091
S'FRAN'
p9092
a(lp9093
S'T'
p9094
aS'Ill'
p9095
aS'be'
p9096
aS'ten'
p9097
aS'years'
p9098
aS'in'
p9099
aaa(lp9100
g9092
a(lp9101
S'next'
p9102
aS'month'
p9103
aaa(lp9104
S'BERNARD'
p9105
a(lp9106
S'Ah'
p9107
aaa(lp9108
S'FRAN'
p9109
a(lp9110
S'So'
p9111
aaa(lp9112
g9109
a(lp9113
S'Its'
p9114
aS'great'
p9115
aaa(lp9116
g9109
a(lp9117
S'We'
p9118
aS'get'
p9119
aS'along'
p9120
aS'great'
p9121
aaa(lp9122
g9109
a(lp9123
g5
aS'mean'
p9124
aaa(lp9125
g9109
a(lp9126
S'delight'
p9127
aaa(lp9128
S'BERNARD'
p9129
a(lp9130
S'that'
p9131
aS'that'
p9132
aS'that'
p9133
aaa(lp9134
g9129
a(lp9135
S'That'
p9136
aS'helps'
p9137
aaa(lp9138
S'SEAN'
p9139
a(lp9140
S'Thats'
p9141
aS'wonderful'
p9142
aaa(lp9143
S'ALICE'
p9144
a(lp9145
S'That'
p9146
aS'is'
p9147
aaa(lp9148
S'BERNARD'
p9149
a(lp9150
aa(lp9151
S'FRAN'
p9152
a(lp9153
S'Well'
p9154
aaa(lp9155
S'ALICE'
p9156
a(lp9157
S'Thats'
p9158
aaa(lp9159
S'FRAN'
p9160
a(lp9161
g5
aS'was'
p9162
aS'the'
p9163
aS'worlds'
p9164
aS'oldest'
p9165
aS'bride'
p9166
aaa(lp9167
g9160
a(lp9168
g5
aS'mean'
p9169
aaa(lp9170
g9160
a(lp9171
g5
aS'waited'
p9172
aaa(lp9173
g9160
a(lp9174
S'and'
p9175
aS'waited'
p9176
aaa(lp9177
g9160
a(lp9178
S'And'
p9179
aS'waited'
p9180
aaa(lp9181
g9160
a(lp9182
S'and'
p9183
aS'waited'
p9184
aaa(lp9185
g9160
a(lp9186
S'and'
p9187
aS'everyone'
p9188
aS'had'
p9189
aS'given'
p9190
aS'up'
p9191
aaa(lp9192
g9160
a(lp9193
S'But'
p9194
aaa(lp9195
g9160
a(lp9196
S'when'
p9197
ag5
aS'finally'
p9198
aS'did'
p9199
aS'it'
p9200
aaa(lp9201
g9160
a(lp9202
S'Im'
p9203
aS'Im'
p9204
aaa(lp9205
g9160
a(lp9206
S'Im'
p9207
aS'delighted'
p9208
aS'that'
p9209
ag5
aS'waited'
p9210
aaa(lp9211
g9160
a(lp9212
S'You'
p9213
aS'know'
p9214
aaa(lp9215
g9160
a(lp9216
S'so'
p9217
aaa(lp9218
S'SEAN'
p9219
a(lp9220
S'Sure'
p9221
aaa(lp9222
g9219
a(lp9223
S'Found'
p9224
aS'somebody'
p9225
aS'fun'
p9226
aaa(lp9227
S'FRAN'
p9228
a(lp9229
S'Mhm'
p9230
aaa(lp9231
S'SEAN'
p9232
a(lp9233
S'somebody'
p9234
aS'with'
p9235
aS'interests'
p9236
aS'and'
p9237
aaa(lp9238
S'BERNARD'
p9239
a(lp9240
S'FOOD'
p9241
ag463
aS'good'
p9242
aS'writer'
p9243
aS'FOOD'
p9244
aaa(lp9245
S'FRAN'
p9246
a(lp9247
S'Mhm'
p9248
aaa(lp9249
S'ALICE'
p9250
a(lp9251
g463
aS'bad'
p9252
aS'name'
p9253
aS'though'
p9254
aaa(lp9255
S'BERNARD'
p9256
a(lp9257
aa(lp9258
S'ALICE'
p9259
a(lp9260
S'Larry'
p9261
aaa(lp9262
g9259
a(lp9263
S'That'
p9264
aS'was'
p9265
aS'my'
p9266
aS'husbands'
p9267
aS'name'
p9268
aaa(lp9269
S'SEAN'
p9270
a(lp9271
S'The'
p9272
aaa(lp9273
S'BERNARD'
p9274
a(lp9275
aa(lp9276
S'FRAN'
p9277
a(lp9278
g848
aS'oh'
p9279
aS'yeah'
p9280
ag848
aaa(lp9281
S'ALICE'
p9282
a(lp9283
S'Im'
p9284
aS'sorry'
p9285
aaa(lp9286
g9282
a(lp9287
S'Ugh'
p9288
aaa.