(lp0
(lp1
S'KIRSTEN'
p2
a(lp3
S'Um'
p4
aaa(lp5
g2
a(lp6
S'first'
p7
aS'of'
p8
aS'all'
p9
aaa(lp10
g2
a(lp11
S'maybe'
p12
aS'you'
p13
aS'guys'
p14
aaa(lp15
g2
a(lp16
S'can'
p17
aS'tell'
p18
aS'me'
p19
aaa(lp20
g2
a(lp21
S'we'
p22
aS'talked'
p23
aS'a'
p24
aS'little'
p25
aS'bit'
p26
aS'about'
p27
aS'it'
p28
aaa(lp29
g2
a(lp30
S'last'
p31
aS'time'
p32
aS'you'
p33
aS'were'
p34
aS'here'
p35
aaa(lp36
g2
a(lp37
S'Or'
p38
aS'did'
p39
aS'we'
p40
aS'not'
p41
aaa(lp42
g2
a(lp43
S'talk'
p44
aS'about'
p45
aS'the'
p46
aS'history'
p47
aS'of'
p48
aS'the'
p49
aS'penguins'
p50
aaa(lp51
S'AMYX'
p52
a(lp53
S'Thanks'
p54
aS'X'
p55
aaa(lp56
S'DONI'
p57
a(lp58
S'wasnt'
p59
aS'here'
p60
aS'that'
p61
aS'weekend'
p62
aaa(lp63
S'LORI'
p64
a(lp65
S'No'
p66
aaa(lp67
g64
a(lp68
S'No'
p69
aaa(lp70
S'KIRSTENOkay'
p71
a(lp72
aa(lp73
S'LORIWe'
p74
a(lp75
S'talked'
p76
aS'about'
p77
aS'the'
p78
aS'endangered'
p79
aS'species'
p80
aaa(lp81
S'KIRSTENOkay'
p82
a(lp83
aa(lp84
g82
a(lp85
S'We'
p86
aS'have'
p87
aaa(lp88
S'LORI'
p89
a(lp90
aa(lp91
S'KIRSTEN'
p92
a(lp93
S'on'
p94
aS'exhibit'
p95
aS'now'
p96
aaa(lp97
g92
a(lp98
S'about'
p99
aS'L'
p100
aS'twentyfive'
p101
aS'of'
p102
aS'the'
p103
aS'thirty'
p104
aS'penguin'
p105
aS'chicks'
p106
ag100
aaa(lp107
S'AMY'
p108
a(lp109
S'Wow'
p110
aaa(lp111
S'KIRSTENThat'
p112
a(lp113
S'you'
p114
aS'have'
p115
aaa(lp116
S'ENV'
p117
a(lp118
aa(lp119
S'KIRSTEN'
p120
a(lp121
S'Um'
p122
aaa(lp123
S'LORIOops'
p124
a(lp125
aa(lp126
S'KIRSTEN'
p127
a(lp128
S'Last'
p129
aS'year'
p130
aaa(lp131
g127
a(lp132
S'I'
p133
aS's'
p134
aS'want'
p135
aS'to'
p136
aS'say'
p137
aS'around'
p138
aS'Christmas'
p139
aS'time'
p140
aaa(lp141
g127
a(lp142
S'we'
p143
aS'went'
p144
aS'down'
p145
aaa(lp146
g127
a(lp147
S'the'
p148
aS'Shed'
p149
aS'Aquarium'
p150
aaa(lp151
g127
a(lp152
S'as'
p153
aS'well'
p154
aS'as'
p155
aS'other'
p156
aS'researchers'
p157
aS'and'
p158
aS'scientists'
p159
aaa(lp160
g127
a(lp161
S'went'
p162
aS'down'
p163
aS'to'
p164
aS'Antarctica'
p165
aaa(lp166
g127
a(lp167
S'to'
p168
aS'collect'
p169
aaa(lp170
S'LORI'
p171
a(lp172
S'Mm'
p173
aaa(lp174
S'KIRSTENGentu'
p175
a(lp176
S'penguin'
p177
aS'eggs'
p178
aaa(lp179
g175
a(lp180
S'Okay'
p181
aaa(lp182
g175
a(lp183
S'so'
p184
aaa(lp185
g175
a(lp186
g133
aS'want'
p187
aS'to'
p188
aS'go'
p189
aS'into'
p190
ag24
aS'little'
p191
aS'bit'
p192
aS'about'
p193
aaa(lp194
g175
a(lp195
S'the'
p196
aS'history'
p197
aS'of'
p198
aS'the'
p199
aS'Gentus'
p200
aS'here'
p201
aaa(lp202
g175
a(lp203
S'um'
p204
aaa(lp205
g175
a(lp206
S'for'
p207
aS'you'
p208
aaa(lp209
g175
a(lp210
S'For'
p211
aS'Don'
p212
aS'and'
p213
aS'Lori'
p214
aaa(lp215
g175
a(lp216
S'where'
p217
aaa(lp218
g175
a(lp219
S'Where'
p220
aS'did'
p221
aS'our'
p222
aS'original'
p223
aS'Gentu'
p224
aS'penguins'
p225
aS'come'
p226
aS'from'
p227
aaa(lp228
S'DON'
p229
a(lp230
S'Uh'
p231
aaa(lp232
g229
a(lp233
S'Faulklands'
p234
aaa(lp235
g229
a(lp236
S'Wasnt'
p237
aS'it'
p238
aaa(lp239
S'KIRSTEN'
p240
a(lp241
S'Where'
p242
aS'did'
p243
aS'the'
p244
aaa(lp245
g240
a(lp246
S'But'
p247
aaa(lp248
g240
a(lp249
S'specifically'
p250
aaa(lp251
S'DONOh'
p252
a(lp253
S'specifically'
p254
aaa(lp255
g252
a(lp256
S'in'
p257
aS'the'
p258
aS'islands'
p259
aaa(lp260
S'KIRSTENWhere'
p261
a(lp262
S'did'
p263
aS'we'
p264
aS'get'
p265
aS'them'
p266
aaa(lp267
g261
a(lp268
S'for'
p269
aS'display'
p270
aS'here'
p271
aS'at'
p272
aS'the'
p273
aS'Shed'
p274
aS'Aquarium'
p275
aaa(lp276
S'DONOh'
p277
a(lp278
aa(lp279
g277
a(lp280
S'From'
p281
aS'the'
p282
aS'um'
p283
aaa(lp284
g277
a(lp285
S'was'
p286
aS'it'
p287
aS'Edinburgh'
p288
aS'uh'
p289
aS'Zoo'
p290
aaa(lp291
S'KIRSTENYeah'
p292
a(lp293
aa(lp294
g292
a(lp295
S'Great'
p296
aaa(lp297
S'DON'
p298
a(lp299
S'Yeah'
p300
aaa(lp301
S'KIRSTENIn'
p302
a(lp303
S'Scotland'
p304
aaa(lp305
S'DONYeah'
p306
a(lp307
aa(lp308
g306
a(lp309
S'Right'
p310
aaa(lp311
S'KIRSTEN'
p312
a(lp313
S'Okay'
p314
aaa(lp315
S'AMYAre'
p316
a(lp317
S'those'
p318
aS'the'
p319
aS'ones'
p320
aS'that'
p321
aS'dont'
p322
aS'like'
p323
aS'people'
p324
aaa(lp325
g316
a(lp326
S'The'
p327
aS'handsoff'
p328
aS'ones'
p329
aaa(lp330
S'KIRSTEN'
p331
a(lp332
S'P'
p333
aS'Handsoff'
p334
aS'ones'
p335
ag333
aaa(lp336
S'AMYThat'
p337
a(lp338
S'came'
p339
aS'from'
p340
aaa(lp341
g337
a(lp342
S'Wheres'
p343
aS'Ten'
p344
aS'from'
p345
aaa(lp346
S'KIRSTEN'
p347
a(lp348
S'There'
p349
aaa(lp350
S'AMYOr'
p351
a(lp352
S'is'
p353
aS'that'
p354
aaa(lp355
g351
a(lp356
S'Oh'
p357
aS'okay'
p358
aaa(lp359
S'KIRSTENYeah'
p360
a(lp361
aa(lp362
S'AMY'
p363
a(lp364
S'Well'
p365
aS'is'
p366
aaa(lp367
g363
a(lp368
S'Whats'
p369
aS'the'
p370
aS'other'
p371
aS'species'
p372
aaa(lp373
S'KIRSTEN'
p374
a(lp375
S'Rockhoppers'
p376
aaa(lp377
S'AMY'
p378
a(lp379
S'The'
p380
aaa(lp381
g378
a(lp382
S'No'
p383
aaa(lp384
S'KIRSTEN'
p385
a(lp386
S'Magellanics'
p387
aaa(lp388
S'DONMagellanic'
p389
a(lp390
aa(lp391
S'LORIXXXX'
p392
a(lp393
aa(lp394
S'AMYYeah'
p395
a(lp396
aa(lp397
g395
a(lp398
S'Okay'
p399
aaa(lp400
S'KIRSTENRa'
p401
a(lp402
aa(lp403
g401
a(lp404
S'Magellanics'
p405
aS'came'
p406
aaa(lp407
g401
a(lp408
S'from'
p409
aS'the'
p410
aS'John'
p411
aS'Ball'
p412
aS'Zoo'
p413
aaa(lp414
g401
a(lp415
S'in'
p416
aS'Grand'
p417
aS'Rapids'
p418
aS'Michigan'
p419
aaa(lp420
S'DONMhm'
p421
a(lp422
aa(lp423
S'KIRSTEN'
p424
a(lp425
S'So'
p426
aaa(lp427
g424
a(lp428
S'the'
p429
aS'Gentus'
p430
aaa(lp431
g424
a(lp432
S'which'
p433
aaa(lp434
g424
a(lp435
g133
aS'take'
p436
aS'it'
p437
aS'you'
p438
aS'work'
p439
aS'mammals'
p440
aS'as'
p441
aS'well'
p442
aaa(lp443
S'AMY'
p444
a(lp445
S'Yeah'
p446
aaa(lp447
S'KIRSTENOkay'
p448
a(lp449
aa(lp450
g448
a(lp451
S'so'
p452
aS'feel'
p453
aS'free'
p454
aS'to'
p455
aS'add'
p456
aS'in'
p457
aaa(lp458
S'AMYI'
p459
a(lp460
S'worked'
p461
aS'with'
p462
aS'the'
p463
aS'baby'
p464
aS'penguins'
p465
aaa(lp466
g459
a(lp467
S'when'
p468
aaa(lp469
g459
a(lp470
S'cause'
p471
aS'Ive'
p472
aS'only'
p473
aS'worked'
p474
aS'like'
p475
ag24
aS'weekend'
p476
aaa(lp477
g459
a(lp478
S'but'
p479
aS'both'
p480
aS'days'
p481
aS'were'
p482
aS'spent'
p483
aS'with'
p484
aS'the'
p485
aS'penguins'
p486
aaa(lp487
g459
a(lp488
S'Feeding'
p489
aS'the'
p490
aS'baby'
p491
aS'penguins'
p492
aS'and'
p493
aS'then'
p494
aaa(lp495
g459
a(lp496
S'Ten'
p497
aS'and'
p498
aaa(lp499
g459
a(lp500
S'all'
p501
aS'of'
p502
aS'them'
p503
aaa(lp504
S'KIRSTENGreat'
p505
a(lp506
aa(lp507
g505
a(lp508
S'Great'
p509
aaa(lp510
g505
a(lp511
S'So'
p512
aaa(lp513
g505
a(lp514
S'feel'
p515
aS'free'
p516
aaa(lp517
g505
a(lp518
S'after'
p519
aS'Ive'
p520
aS'go'
p521
aS'through'
p522
aS'this'
p523
aS'information'
p524
aaa(lp525
g505
a(lp526
S'you'
p527
aS'know'
p528
aaa(lp529
S'LORIXX'
p530
a(lp531
aa(lp532
S'KIRSTENshare'
p533
a(lp534
S'any'
p535
aS'information'
p536
aS'you'
p537
aS'might'
p538
aS'have'
p539
aaa(lp540
S'LORIMhm'
p541
a(lp542
aa(lp543
S'AMYWell'
p544
a(lp545
S'Ill'
p546
aS'probably'
p547
aS'have'
p548
ag24
aS'lot'
p549
aS'of'
p550
aS'questions'
p551
aS'for'
p552
aS'you'
p553
aaa(lp554
S'KIRSTENfrom'
p555
a(lp556
S'your'
p557
aS'experiences'
p558
aaa(lp559
S'AMYOkay'
p560
a(lp561
aa(lp562
S'KIRSTENCause'
p563
a(lp564
S'thats'
p565
aaa(lp566
g563
a(lp567
S'you'
p568
aS'know'
p569
aaa(lp570
S'LORIMhm'
p571
a(lp572
aa(lp573
S'KIRSTEN'
p574
a(lp575
S'usually'
p576
aS'the'
p577
aS'best'
p578
aS'way'
p579
aS'that'
p580
aS'we'
p581
aS'can'
p582
aS'get'
p583
aaa(lp584
g574
a(lp585
S'some'
p586
aS'good'
p587
aS'detailed'
p588
aS'information'
p589
aS'is'
p590
aS'from'
p591
aaa(lp592
g574
a(lp593
S'volunteers'
p594
aaa(lp595
g574
a(lp596
S'that'
p597
aS'actually'
p598
aS'work'
p599
aaa(lp600
g574
a(lp601
S'in'
p602
aS'mammals'
p603
aaa(lp604
g574
a(lp605
S'So'
p606
aaa(lp607
g574
a(lp608
S'we'
p609
aS'love'
p610
aS'that'
p611
aaa(lp612
g574
a(lp613
S'Um'
p614
aaa(lp615
g574
a(lp616
S'anyway'
p617
aaa(lp618
g574
a(lp619
S'so'
p620
aaa(lp621
g574
a(lp622
S'we'
p623
aS'got'
p624
aS'the'
p625
aS'penguins'
p626
aaa(lp627
g574
a(lp628
S'our'
p629
aS'original'
p630
aS'batch'
p631
aS'of'
p632
aS'penguins'
p633
aaa(lp634
g574
a(lp635
S'from'
p636
aaa(lp637
g574
a(lp638
S'from'
p639
aS'this'
p640
aS'zoo'
p641
aS'in'
p642
aS'Scotland'
p643
aaa(lp644
g574
a(lp645
S'and'
p646
aaa(lp647
g574
a(lp648
S'um'
p649
aaa(lp650
g574
a(lp651
S'you'
p652
aS'know'
p653
aaa(lp654
g574
a(lp655
S'as'
p656
aS'you'
p657
aS'know'
p658
aaa(lp659
g574
a(lp660
S'you'
p661
aS'ship'
p662
aS'them'
p663
aS'over'
p664
aaa(lp665
g574
a(lp666
S'and'
p667
aS'they'
p668
aS'go'
p669
aS'into'
p670
ag24
aS'quarantine'
p671
aS'period'
p672
aaa(lp673
g574
a(lp674
S'And'
p675
aaa(lp676
g574
a(lp677
g133
aS'do'
p678
aS'believe'
p679
aS'it'
p680
aS'was'
p681
aS'thirty'
p682
aS'days'
p683
aaa(lp684
g574
a(lp685
S'Dont'
p686
aS'dont'
p687
aaa(lp688
g574
a(lp689
S'its'
p690
aS'in'
p691
aS'my'
p692
aS'literature'
p693
aS'right'
p694
aS'there'
p695
aaa(lp696
g574
a(lp697
S'Ill'
p698
aS'check'
p699
aS'for'
p700
aS'certain'
p701
aaa(lp702
g574
a(lp703
S'Uh'
p704
aaa(lp705
g574
a(lp706
S'that'
p707
aS'is'
p708
aS'required'
p709
aS'by'
p710
aS'the'
p711
aS'USDA'
p712
aaa(lp713
g574
a(lp714
S'basically'
p715
aS'theres'
p716
aaa(lp717
g574
a(lp718
S'theres'
p719
ag24
aS'disease'
p720
aS'called'
p721
aS'n'
p722
aS'Newcastles'
p723
aS'Disease'
p724
aaa(lp725
g574
a(lp726
S'that'
p727
aaa(lp728
g574
a(lp729
S'is'
p730
aS'is'
p731
aS'very'
p732
aS'contagious'
p733
aS'apparently'
p734
aaa(lp735
g574
a(lp736
S'and'
p737
aS'so'
p738
aS'theres'
p739
aS'always'
p740
aS'the'
p741
aS'potential'
p742
aaa(lp743
g574
a(lp744
S'of'
p745
aaa(lp746
g574
a(lp747
S'when'
p748
aS'you'
p749
aS'bring'
p750
ag24
aS'bird'
p751
aS'over'
p752
aaa(lp753
g574
a(lp754
S'contamidate'
p755
aaa(lp756
g574
a(lp757
S'Contaminating'
p758
aS'the'
p759
aS'poultry'
p760
aaa(lp761
S'AMY'
p762
a(lp763
S'Mm'
p764
aaa(lp765
S'KIRSTEN'
p766
a(lp767
S'Business'
p768
aaa(lp769
g766
a(lp770
S'Okay'
p771
aaa(lp772
g766
a(lp773
S'and'
p774
aS'so'
p775
aS'that'
p776
aS'is'
p777
aaa(lp778
g766
a(lp779
S'th'
p780
aS'background'
p781
aS'information'
p782
aaa(lp783
g766
a(lp784
S'for'
p785
aS'the'
p786
aS'reason'
p787
aS'for'
p788
aS'quarantining'
p789
aaa(lp790
g766
a(lp791
S'Um'
p792
aaa(lp793
g766
a(lp794
S'with'
p795
aS'our'
p796
aS'other'
p797
aS'penguins'
p798
aaa(lp799
g766
a(lp800
S'uh'
p801
aS'we'
p802
aS'brought'
p803
aS'them'
p804
aS'over'
p805
aaa(lp806
g766
a(lp807
S'from'
p808
aS'Scotland'
p809
aaa(lp810
g766
a(lp811
S'and'
p812
aaa(lp813
g766
a(lp814
S'as'
p815
aS'it'
p816
aS'turned'
p817
aS'out'
p818
aaa(lp819
g766
a(lp820
S'in'
p821
ag24
aS'quarantine'
p822
aS'period'
p823
aS'that'
p824
aS'they'
p825
aS'had'
p826
aaa(lp827
g766
a(lp828
S'that'
p829
ag24
aS'vi'
p830
aaa(lp831
g766
a(lp832
S'or'
p833
ag133
aS'should'
p834
aS'say'
p835
ag24
aS'fungus'
p836
aaa(lp837
g766
a(lp838
S'okay'
p839
aS'this'
p840
aS'Aspergillosis'
p841
aS'fungus'
p842
aaa(lp843
g766
a(lp844
S'had'
p845
aS'come'
p846
aS'to'
p847
aS'fruition'
p848
aaa(lp849
g766
a(lp850
S'and'
p851
aS'we'
p852
aS'had'
p853
aS'lost'
p854
aaa(lp855
g766
a(lp856
S'you'
p857
aS'know'
p858
ag24
aS'good'
p859
aS'portion'
p860
aS'of'
p861
aS'penguins'
p862
aaa(lp863
g766
a(lp864
S'So'
p865
aaa(lp866
S'AMYX'
p867
a(lp868
S'Wow'
p869
ag55
aaa(lp870
S'KIRSTENokay'
p871
a(lp872
aa(lp873
g871
a(lp874
S'now'
p875
aS'its'
p876
aS'time'
p877
aS'to'
p878
aS'consider'
p879
aS'replacing'
p880
aS'these'
p881
aS'penguins'
p882
aaa(lp883
g871
a(lp884
S'how'
p885
aS'do'
p886
aS'we'
p887
aS'want'
p888
aS'to'
p889
aS'go'
p890
aS'about'
p891
aS'doing'
p892
aS'that'
p893
aaa(lp894
g871
a(lp895
S'Well'
p896
aaa(lp897
g871
a(lp898
S'really'
p899
aS'didnt'
p900
aS'want'
p901
aS'to'
p902
aS'go'
p903
aaa(lp904
g871
a(lp905
S'through'
p906
aaa(lp907
g871
a(lp908
S'transporting'
p909
aS'the'
p910
aS'birds'
p911
aaa(lp912
g871
a(lp913
S'Didnt'
p914
aS'work'
p915
aS'last'
p916
aS'time'
p917
aaa(lp918
g871
a(lp919
g24
aS'potential'
p920
aS'for'
p921
aS'bringing'
p922
aS'over'
p923
aS'diseases'
p924
aaa(lp925
g871
a(lp926
S'is'
p927
aS'obviously'
p928
aS'there'
p929
aaa(lp930
g871
a(lp931
S'so'
p932
aaa(lp933
g871
a(lp934
S'the'
p935
aS'thought'
p936
aS'was'
p937
aS'okay'
p938
aS'lets'
p939
aS'get'
p940
aS'some'
p941
aS'eggs'
p942
aaa(lp943
g871
a(lp944
S'Um'
p945
aaa(lp946
g871
a(lp947
S'Sea'
p948
aS'World'
p949
aS'San'
p950
aS'Diego'
p951
aS'has'
p952
aS'Gentus'
p953
aaa(lp954
g871
a(lp955
S'and'
p956
aaa(lp957
g871
a(lp958
S'apparently'
p959
aS'just'
p960
aS'not'
p961
aS'enough'
p962
aS'eggs'
p963
aS'to'
p964
aS'share'
p965
aaa(lp966
g871
a(lp967
S'If'
p968
aS'they'
p969
aS'had'
p970
aS'them'
p971
aS'they'
p972
aS'would'
p973
aS'gladly'
p974
aaa(lp975
g871
a(lp976
S'Same'
p977
aS'situation'
p978
aS'with'
p979
aS'the'
p980
aS'Edinburgh'
p981
aS'Zoo'
p982
aaa(lp983
g871
a(lp984
S'they'
p985
aS'would'
p986
aS'gladly'
p987
aS'send'
p988
aS'us'
p989
aS'birds'
p990
aaa(lp991
g871
a(lp992
S'but'
p993
aaa(lp994
g871
a(lp995
S'they'
p996
aS'didnt'
p997
aS'feel'
p998
aS'that'
p999
aS'they'
p1000
aS'had'
p1001
aS'enough'
p1002
aS'eggs'
p1003
aaa(lp1004
g871
a(lp1005
S'to'
p1006
aS'send'
p1007
aS'over'
p1008
aaa(lp1009
g871
a(lp1010
S'So'
p1011
aaa(lp1012
g871
a(lp1013
S'we'
p1014
aS'really'
p1015
aS'didnt'
p1016
aS'want'
p1017
aS'to'
p1018
aS'go'
p1019
aS'the'
p1020
aS'bird'
p1021
aS'route'
p1022
aaa(lp1023
g871
a(lp1024
S'and'
p1025
aS'so'
p1026
aaa(lp1027
g871
a(lp1028
S'that'
p1029
aS'left'
p1030
aS'us'
p1031
aS'the'
p1032
aS'choice'
p1033
aS'of'
p1034
aS'going'
p1035
aS'down'
p1036
aS'to'
p1037
aS'Antarctica'
p1038
aaa(lp1039
g871
a(lp1040
S'and'
p1041
aS'collecting'
p1042
aS'some'
p1043
aS'peng'
p1044
aaa(lp1045
g871
a(lp1046
S'some'
p1047
aS'penguin'
p1048
aS'eggs'
p1049
aS'ourselves'
p1050
aaa(lp1051
g871
a(lp1052
S'So'
p1053
aS'they'
p1054
aS'went'
p1055
aS'to'
p1056
aaa(lp1057
g871
a(lp1058
S'and'
p1059
ag133
aS'dont'
p1060
aS'know'
p1061
aS'if'
p1062
aS'this'
p1063
aS'is'
p1064
aS'pronounced'
p1065
aS'correctly'
p1066
aaa(lp1067
g871
a(lp1068
S'Wiencke'
p1069
aS'Island'
p1070
aaa(lp1071
S'LORIYeah'
p1072
a(lp1073
aa(lp1074
g1072
a(lp1075
S'thats'
p1076
aS'where'
p1077
ag24
aS'lot'
p1078
aS'of'
p1079
aS'seals'
p1080
aS'are'
p1081
aS'from'
p1082
aS'as'
p1083
aS'well'
p1084
aaa(lp1085
S'DONHm'
p1086
a(lp1087
aa(lp1088
S'KIRSTENOkay'
p1089
a(lp1090
aa(lp1091
S'LORIMhm'
p1092
a(lp1093
aa(lp1094
S'KIRSTENCool'
p1095
a(lp1096
aa(lp1097
S'LORIMhm'
p1098
a(lp1099
aa(lp1100
S'KIRSTENCool'
p1101
a(lp1102
aa(lp1103
S'DON'
p1104
a(lp1105
S'Thatll'
p1106
aS'fit'
p1107
aS'in'
p1108
aS'with'
p1109
aS'your'
p1110
aS'class'
p1111
aaa(lp1112
S'LORII'
p1113
a(lp1114
S'know'
p1115
aaa(lp1116
S'KIRSTENYeah'
p1117
a(lp1118
aa(lp1119
S'ALICENicole'
p1120
a(lp1121
S'is'
p1122
aS'here'
p1123
aaa(lp1124
S'KIRSTEN'
p1125
a(lp1126
S'Hi'
p1127
aaa(lp1128
g1125
a(lp1129
S'Nicole'
p1130
aaa(lp1131
S'NICOLEHi'
p1132
a(lp1133
aa(lp1134
S'ALICEHey'
p1135
a(lp1136
S'let'
p1137
aS'me'
p1138
aaa(lp1139
S'KIRSTENhow'
p1140
a(lp1141
S'you'
p1142
aS'doing'
p1143
aaa(lp1144
S'ALICECan'
p1145
a(lp1146
g133
aS'just'
p1147
aS'interrupt'
p1148
aS'for'
p1149
aS'one'
p1150
aS'minute'
p1151
aaa(lp1152
S'NICOLEX'
p1153
a(lp1154
S'Oh'
p1155
ag55
aS'okay'
p1156
aaa(lp1157
S'ALICEcan'
p1158
a(lp1159
g133
aS'see'
p1160
aS'your'
p1161
aS'ID'
p1162
aaa(lp1163
S'NICOLE'
p1164
a(lp1165
S'Mine'
p1166
aaa(lp1167
S'ALICEI'
p1168
a(lp1169
S'dont'
p1170
aS'think'
p1171
aS'Darren'
p1172
aS'put'
p1173
aS'anything'
p1174
aS'on'
p1175
aS'it'
p1176
aaa(lp1177
S'NICOLEHI'
p1178
a(lp1179
S'Mhm'
p1180
aS'HI'
p1181
aaa(lp1182
S'ALICE'
p1183
a(lp1184
S'Right'
p1185
aaa(lp1186
g1183
a(lp1187
S'Okay'
p1188
aaa(lp1189
S'KIRSTEN'
p1190
a(lp1191
S'Why'
p1192
aS'dont'
p1193
aS'you'
p1194
aS'have'
p1195
ag24
aS'seat'
p1196
aaa(lp1197
S'NICOLESure'
p1198
a(lp1199
aa(lp1200
S'LORI'
p1201
a(lp1202
aa(lp1203
g1201
a(lp1204
S'PX'
p1205
aS'Oh'
p1206
aS'Im'
p1207
aS'tired'
p1208
aS'XP'
p1209
aaa(lp1210
S'KIRSTENSo'
p1211
a(lp1212
aa(lp1213
g1211
a(lp1214
S'they'
p1215
aS'went'
p1216
aS'to'
p1217
aS'Wiencke'
p1218
aS'Island'
p1219
aaa(lp1220
g1211
a(lp1221
S'where'
p1222
ag24
aS'lot'
p1223
aS'of'
p1224
aS'seals'
p1225
aS'are'
p1226
aS'from'
p1227
aaa(lp1228
g1211
a(lp1229
S'and'
p1230
aaa(lp1231
S'LORIMhm'
p1232
a(lp1233
aa(lp1234
S'AMYXXXX'
p1235
a(lp1236
aa(lp1237
S'LORI'
p1238
a(lp1239
aa(lp1240
S'NICOLE'
p1241
a(lp1242
g55
aaa(lp1243
S'KIRSTEN'
p1244
a(lp1245
S'collected'
p1246
aS'eggs'
p1247
aaa(lp1248
S'LORI'
p1249
a(lp1250
S'Mhm'
p1251
aaa(lp1252
S'KIRSTEN'
p1253
a(lp1254
S'Okay'
p1255
aaa(lp1256
g1253
a(lp1257
S'so'
p1258
aaa(lp1259
g1253
a(lp1260
S'the'
p1261
aS'process'
p1262
aS'was'
p1263
aaa(lp1264
g1253
a(lp1265
S'Im'
p1266
aS'just'
p1267
aS'gonna'
p1268
aS'finish'
p1269
aS'up'
p1270
aS'on'
p1271
aS'my'
p1272
aS'story'
p1273
aaa(lp1274
g1253
a(lp1275
S'the'
p1276
aS'process'
p1277
aS'was'
p1278
aaa(lp1279
g1253
a(lp1280
S'was'
p1281
aS'they'
p1282
aaa(lp1283
g1253
a(lp1284
S'um'
p1285
aaa(lp1286
g1253
a(lp1287
S'they'
p1288
aS'went'
p1289
aS'to'
p1290
aS'the'
p1291
aS'nest'
p1292
aaa(lp1293
g1253
a(lp1294
S'okay'
p1295
aS'from'
p1296
aS'our'
p1297
aS'staff'
p1298
aaa(lp1299
g1253
a(lp1300
S'it'
p1301
aS'was'
p1302
aS'Mark'
p1303
aS'Ryan'
p1304
aS'from'
p1305
aS'marine'
p1306
aS'mammals'
p1307
aaa(lp1308
g1253
a(lp1309
S'and'
p1310
aS'Mike'
p1311
aS'Mulligan'
p1312
aS'from'
p1313
aS'fishes'
p1314
aaa(lp1315
g1253
a(lp1316
S'and'
p1317
aaa(lp1318
g1253
a(lp1319
S'frankly'
p1320
ag133
aS'Im'
p1321
aS'not'
p1322
aS'quite'
p1323
aS'sure'
p1324
aS'who'
p1325
aS'the'
p1326
aS'entourage'
p1327
aS'of'
p1328
aS'other'
p1329
aS'people'
p1330
aS'were'
p1331
aaa(lp1332
g1253
a(lp1333
S'But'
p1334
aaa(lp1335
g1253
a(lp1336
S'they'
p1337
aS'went'
p1338
aS'to'
p1339
aS'the'
p1340
aS'nest'
p1341
aaa(lp1342
g1253
a(lp1343
S'and'
p1344
aS'basically'
p1345
aaa(lp1346
g1253
a(lp1347
S'waited'
p1348
aS'for'
p1349
aS'the'
p1350
aS'penguin'
p1351
aS'to'
p1352
aS'stand'
p1353
aS'up'
p1354
aaa(lp1355
g1253
a(lp1356
S'and'
p1357
aS'checked'
p1358
aS'to'
p1359
aS'see'
p1360
aS'if'
p1361
aS'there'
p1362
aS'were'
p1363
aS'two'
p1364
aS'eggs'
p1365
aS'there'
p1366
aaa(lp1367
S'AMY'
p1368
a(lp1369
S'Hm'
p1370
aaa(lp1371
S'KIRSTEN'
p1372
a(lp1373
S'Gentu'
p1374
aS'penguins'
p1375
aaa(lp1376
g1372
a(lp1377
S'and'
p1378
aS'this'
p1379
aS'isn'
p1380
aaa(lp1381
g1372
a(lp1382
S'isnt'
p1383
aS'true'
p1384
aS'of'
p1385
aS'all'
p1386
aS'penguins'
p1387
aaa(lp1388
g1372
a(lp1389
S'often'
p1390
aaa(lp1391
g1372
a(lp1392
S'when'
p1393
ag24
aS'penguin'
p1394
aS'lays'
p1395
aS'eggs'
p1396
aaa(lp1397
g1372
a(lp1398
S'if'
p1399
aS'it'
p1400
aS'lays'
p1401
aS'two'
p1402
aaa(lp1403
g1372
a(lp1404
S'one'
p1405
aS'is'
p1406
aS'smaller'
p1407
aS'than'
p1408
aS'the'
p1409
aS'other'
p1410
aaa(lp1411
g1372
a(lp1412
S'Gentus'
p1413
aS'lay'
p1414
aS'two'
p1415
aS'equally'
p1416
aS'sized'
p1417
aS'eggs'
p1418
aaa(lp1419
g1372
a(lp1420
S'Okay'
p1421
aaa(lp1422
g1372
a(lp1423
S'um'
p1424
aaa(lp1425
S'LORIHm'
p1426
a(lp1427
aa(lp1428
S'KIRSTEN'
p1429
a(lp1430
S'the'
p1431
aS'reason'
p1432
ag133
aS'mentioned'
p1433
aS'that'
p1434
aS'was'
p1435
aaa(lp1436
g1429
a(lp1437
S'if'
p1438
aS'one'
p1439
aS'was'
p1440
aS'smaller'
p1441
aaa(lp1442
g1429
a(lp1443
S'he'
p1444
aS'would'
p1445
aS'have'
p1446
aS'went'
p1447
aS'for'
p1448
aS'the'
p1449
aS'smaller'
p1450
aS'egg'
p1451
aaa(lp1452
g1429
a(lp1453
S'Okay'
p1454
aaa(lp1455
S'DON'
p1456
a(lp1457
S'Why'
p1458
aaa(lp1459
S'KIRSTEN'
p1460
a(lp1461
S'Because'
p1462
aS'that'
p1463
aS'would'
p1464
aS'probably'
p1465
aS'mean'
p1466
aS'that'
p1467
aaa(lp1468
S'LORI'
p1469
a(lp1470
S'Female'
p1471
aaa(lp1472
S'KIRSTENDo'
p1473
a(lp1474
S'you'
p1475
aS'remember'
p1476
aS'reading'
p1477
aaa(lp1478
g1473
a(lp1479
S'in'
p1480
aS'the'
p1481
aS'exhibit'
p1482
aS'for'
p1483
aS'the'
p1484
aS'Rockhopper'
p1485
aS'penguins'
p1486
aaa(lp1487
g1473
a(lp1488
S'downstairs'
p1489
aaa(lp1490
g1473
a(lp1491
S'they'
p1492
aS'lay'
p1493
aS'two'
p1494
aS'different'
p1495
aS'sized'
p1496
aS'eggs'
p1497
aaa(lp1498
S'DONMhm'
p1499
a(lp1500
aa(lp1501
S'KIRSTEN'
p1502
a(lp1503
S'Depending'
p1504
aS'on'
p1505
aS'the'
p1506
aS'year'
p1507
aaa(lp1508
g1502
a(lp1509
S'and'
p1510
aS'depending'
p1511
aS'on'
p1512
aS'the'
p1513
aS'conditions'
p1514
aS'of'
p1515
aS'light'
p1516
aaa(lp1517
g1502
a(lp1518
S'um'
p1519
aaa(lp1520
g1502
a(lp1521
S'if'
p1522
aS'its'
p1523
ag24
aS'bad'
p1524
aS'year'
p1525
aaa(lp1526
g1502
a(lp1527
S'or'
p1528
aS'theres'
p1529
aS'just'
p1530
aS'not'
p1531
ag24
aS'lot'
p1532
aS'of'
p1533
aS'food'
p1534
aS'resources'
p1535
aaa(lp1536
g1502
a(lp1537
S'um'
p1538
aaa(lp1539
g1502
a(lp1540
S'environmental'
p1541
aS'conditions'
p1542
aS'are'
p1543
aS'rough'
p1544
aaa(lp1545
g1502
a(lp1546
S'its'
p1547
ag24
aS'stormy'
p1548
aS'bad'
p1549
aS'year'
p1550
aaa(lp1551
S'LORIMhm'
p1552
a(lp1553
aa(lp1554
S'KIRSTEN'
p1555
a(lp1556
S'A'
p1557
aS'penguin'
p1558
aS'might'
p1559
aS'lay'
p1560
aS'two'
p1561
aS'eggs'
p1562
aaa(lp1563
g1555
a(lp1564
S'and'
p1565
aS'at'
p1566
aS'that'
p1567
aS'point'
p1568
aaa(lp1569
g1555
a(lp1570
g333
ag133
aS'dont'
p1571
ag333
aaa(lp1572
g1555
a(lp1573
g133
aS'dont'
p1574
aS'really'
p1575
aS'wanna'
p1576
aS'use'
p1577
aS'the'
p1578
aS'word'
p1579
aS'VOX'
p1580
aS'decide'
p1581
aS'VOX'
p1582
aaa(lp1583
S'LORIMhm'
p1584
a(lp1585
aa(lp1586
S'KIRSTEN'
p1587
a(lp1588
S'thats'
p1589
aS'kind'
p1590
aS'of'
p1591
aS'anthropomorphic'
p1592
aaa(lp1593
g1587
a(lp1594
S'but'
p1595
aaa(lp1596
g1587
a(lp1597
S'somehow'
p1598
aS'figure'
p1599
aS'out'
p1600
aaa(lp1601
g1587
a(lp1602
S'Q'
p1603
aS'at'
p1604
aS'this'
p1605
aS'point'
p1606
aS'Im'
p1607
aS'gonna'
p1608
aS'kick'
p1609
aS'out'
p1610
aS'an'
p1611
aS'egg'
p1612
ag1603
aaa(lp1613
S'LORIDetermine'
p1614
a(lp1615
aa(lp1616
S'DON'
p1617
a(lp1618
S'Ah'
p1619
aaa(lp1620
S'LORIMhm'
p1621
a(lp1622
aa(lp1623
S'KIRSTENIm'
p1624
a(lp1625
S'going'
p1626
aS'to'
p1627
aS'determine'
p1628
aaa(lp1629
g1624
a(lp1630
S'through'
p1631
aS'whatever'
p1632
aaa(lp1633
S'AMYMm'
p1634
a(lp1635
aa(lp1636
S'KIRSTEN'
p1637
a(lp1638
S'however'
p1639
aS'it'
p1640
aS'does'
p1641
aS'determine'
p1642
aS'to'
p1643
aS'do'
p1644
aS'so'
p1645
aaa(lp1646
S'NICOLEHm'
p1647
a(lp1648
aa(lp1649
S'KIRSTEN'
p1650
a(lp1651
S'will'
p1652
aS'kick'
p1653
aS'out'
p1654
aS'an'
p1655
aS'egg'
p1656
aaa(lp1657
S'NICOLE'
p1658
a(lp1659
aa(lp1660
S'KIRSTEN'
p1661
a(lp1662
S'Otherwise'
p1663
aaa(lp1664
g1661
a(lp1665
S'it'
p1666
aS'will'
p1667
aS'brood'
p1668
aS'the'
p1669
aS'two'
p1670
aS'eggs'
p1671
aaa(lp1672
g1661
a(lp1673
S'and'
p1674
aS'hatch'
p1675
aS'em'
p1676
aS'out'
p1677
aaa(lp1678
g1661
a(lp1679
S'Its'
p1680
aS'not'
p1681
aS'uncommon'
p1682
aS'that'
p1683
aaa(lp1684
g1661
a(lp1685
S'at'
p1686
aS'this'
p1687
aS'point'
p1688
aaa(lp1689
g1661
a(lp1690
S'theyll'
p1691
aS'kick'
p1692
aS'out'
p1693
aS'the'
p1694
aS'smaller'
p1695
aS'chick'
p1696
aaa(lp1697
S'DON'
p1698
a(lp1699
S'Right'
p1700
aaa(lp1701
S'KIRSTEN'
p1702
a(lp1703
S'If'
p1704
aS'at'
p1705
aS'that'
p1706
aS'point'
p1707
aS'conditions'
p1708
aS'dont'
p1709
aS'seem'
p1710
aS'to'
p1711
aS'be'
p1712
aS'sufficient'
p1713
aS'to'
p1714
aS'support'
p1715
aS'raising'
p1716
aS'two'
p1717
aS'of'
p1718
aS'em'
p1719
aaa(lp1720
g1702
a(lp1721
S'its'
p1722
aS'kind'
p1723
aS'of'
p1724
aS'like'
p1725
aaa(lp1726
g1702
a(lp1727
S'hey'
p1728
aaa(lp1729
g1702
a(lp1730
S'why'
p1731
aS'bother'
p1732
aaa(lp1733
S'LORI'
p1734
a(lp1735
S'Mhm'
p1736
aaa(lp1737
S'KIRSTENAnd'
p1738
a(lp1739
S'kick'
p1740
aS'out'
p1741
aaa(lp1742
g1738
a(lp1743
S'one'
p1744
aS'of'
p1745
aaa(lp1746
g1738
a(lp1747
S'One'
p1748
aS'of'
p1749
aS'the'
p1750
aS'chicks'
p1751
aaa(lp1752
g1738
a(lp1753
S'If'
p1754
aS'its'
p1755
ag24
aS'F'
p1756
aS'great'
p1757
aS'year'
p1758
aaa(lp1759
g1738
a(lp1760
S'on'
p1761
aS'fat'
p1762
aaa(lp1763
g1738
a(lp1764
S'theres'
p1765
aS'food'
p1766
aaa(lp1767
g1738
a(lp1768
S'di'
p1769
aS'its'
p1770
ag24
aS'beautiful'
p1771
aS'day'
p1772
ag1756
aaa(lp1773
S'DONIts'
p1774
a(lp1775
S'called'
p1776
aS'penguin'
p1777
aS'euthanasia'
p1778
aaa(lp1779
S'LORI'
p1780
a(lp1781
aa(lp1782
S'KIRSTENOkay'
p1783
a(lp1784
aa(lp1785
S'DON'
p1786
a(lp1787
aa(lp1788
S'KIRSTEN'
p1789
a(lp1790
aa(lp1791
S'DONWH'
p1792
a(lp1793
S'WH'
p1794
aaa(lp1795
S'KIRSTEN'
p1796
a(lp1797
S'Theyll'
p1798
aS'theyll'
p1799
aaa(lp1800
g1796
a(lp1801
S'theyll'
p1802
aS'try'
p1803
aS'to'
p1804
aS'raise'
p1805
aS'both'
p1806
aaa(lp1807
S'LORI'
p1808
a(lp1809
aa(lp1810
S'KIRSTENSo'
p1811
a(lp1812
aa(lp1813
S'LORI'
p1814
a(lp1815
aa(lp1816
S'KIRSTEN'
p1817
a(lp1818
g133
aS'didnt'
p1819
aS'catch'
p1820
aS'that'
p1821
aaa(lp1822
g1817
a(lp1823
S'What'
p1824
aS'wa'
p1825
aaa(lp1826
S'DONIts'
p1827
a(lp1828
S'called'
p1829
aS'penguin'
p1830
aS'euthanasia'
p1831
aaa(lp1832
S'KIRSTENSh'
p1833
a(lp1834
aa(lp1835
S'LORI'
p1836
a(lp1837
aa(lp1838
S'KIRSTENCh'
p1839
a(lp1840
aa(lp1841
g1839
a(lp1842
S'WH'
p1843
aS'Yeah'
p1844
aS'WH'
p1845
aaa(lp1846
S'LORI'
p1847
a(lp1848
aa(lp1849
S'KIRSTEN'
p1850
a(lp1851
S'Um'
p1852
aaa(lp1853
g1850
a(lp1854
S'so'
p1855
aaa(lp1856
g1850
a(lp1857
S'anyway'
p1858
aaa(lp1859
g1850
a(lp1860
S'Apparently'
p1861
aS'what'
p1862
aS'th'
p1863
aS'what'
p1864
aS'they'
p1865
aaa(lp1866
g1850
a(lp1867
S'Now'
p1868
aS'at'
p1869
aS'this'
p1870
aS'point'
p1871
aS'they'
p1872
aS'wanted'
p1873
aS'to'
p1874
aS'see'
p1875
aaa(lp1876
g1850
a(lp1877
S'okay'
p1878
aaa(lp1879
g1850
a(lp1880
S'now'
p1881
aaa(lp1882
g1850
a(lp1883
S'is'
p1884
aS'there'
p1885
aS'actually'
p1886
ag24
aS'fertile'
p1887
aaa(lp1888
g1850
a(lp1889
S'Is'
p1890
aS'there'
p1891
ag24
aS'fertile'
p1892
aS'chick'
p1893
aaa(lp1894
g1850
a(lp1895
S'or'
p1896
aS'developing'
p1897
aS'chick'
p1898
aS'inside'
p1899
aaa(lp1900
S'LORIMhm'
p1901
a(lp1902
aa(lp1903
S'KIRSTENAnd'
p1904
a(lp1905
aa(lp1906
g1904
a(lp1907
S'apparently'
p1908
aS'it'
p1909
aS'was'
p1910
aS'very'
p1911
aS'very'
p1912
aS'muddy'
p1913
aaa(lp1914
g1904
a(lp1915
S'it'
p1916
aS'was'
p1917
aS'abnormally'
p1918
aS'warm'
p1919
aaa(lp1920
g1904
a(lp1921
S'and'
p1922
aS'it'
p1923
aS'was'
p1924
aS'just'
p1925
ag24
aS'big'
p1926
aS'mudbath'
p1927
aS'out'
p1928
aS'there'
p1929
aaa(lp1930
g1904
a(lp1931
S'and'
p1932
aS'they'
p1933
aS'couldnt'
p1934
aaa(lp1935
g1904
a(lp1936
S'They'
p1937
aS'couldnt'
p1938
aS'clean'
p1939
aS'off'
p1940
aS'the'
p1941
aS'mud'
p1942
aS'enough'
p1943
aaa(lp1944
g1904
a(lp1945
S'to'
p1946
aS'be'
p1947
aS'able'
p1948
aS'to'
p1949
aS'see'
p1950
aS'inside'
p1951
aaa(lp1952
g1904
a(lp1953
S'To'
p1954
aS'see'
p1955
aS'if'
p1956
aaa(lp1957
g1904
a(lp1958
S'if'
p1959
aS'it'
p1960
aS'was'
p1961
aS'viable'
p1962
aaa(lp1963
g1904
a(lp1964
S'So'
p1965
aaa(lp1966
g1904
a(lp1967
S'they'
p1968
aS'took'
p1969
aS'an'
p1970
aS'egg'
p1971
aS'from'
p1972
aS'nests'
p1973
aaa(lp1974
g1904
a(lp1975
S'that'
p1976
aS'had'
p1977
aS'two'
p1978
aS'eggs'
p1979
aaa(lp1980
g1904
a(lp1981
S'And'
p1982
ag133
aS'think'
p1983
aS'this'
p1984
aS'this'
p1985
aS'report'
p1986
aS'says'
p1987
aaa(lp1988
g1904
a(lp1989
S'within'
p1990
aS'thirtyone'
p1991
aS'hours'
p1992
aaa(lp1993
g1904
a(lp1994
S'the'
p1995
aS'eggs'
p1996
aS'were'
p1997
aS'back'
p1998
aS'here'
p1999
aS'in'
p2000
aS'Chicago'
p2001
aaa(lp2002
S'LORI'
p2003
a(lp2004
S'Wow'
p2005
aaa(lp2006
S'KIRSTEN'
p2007
a(lp2008
S'Thats'
p2009
aS'pretty'
p2010
aS'neat'
p2011
aaa(lp2012
S'NICOLEOh'
p2013
a(lp2014
aa(lp2015
S'KIRSTEN'
p2016
a(lp2017
S'And'
p2018
aS'then'
p2019
aaa(lp2020
g2016
a(lp2021
S'they'
p2022
aS'took'
p2023
aS'them'
p2024
aS'to'
p2025
aS'an'
p2026
ag100
aS'offsite'
p2027
aS'incubation'
p2028
aS'area'
p2029
ag100
aaa(lp2030
g2016
a(lp2031
S'in'
p2032
aS'Addison'
p2033
aaa(lp2034
g2016
a(lp2035
S'Is'
p2036
aS'anybody'
p2037
aS'from'
p2038
aS'Addison'
p2039
aaa(lp2040
g2016
a(lp2041
g133
aS'dont'
p2042
aS'know'
p2043
aS'where'
p2044
aS'Addison'
p2045
aS'is'
p2046
aaa(lp2047
S'NICOLE'
p2048
a(lp2049
g55
ag133
aS'dont'
p2050
aS'either'
p2051
ag134
ag55
aaa(lp2052
S'XIts'
p2053
a(lp2054
g24
aS'west'
p2055
aS'suburb'
p2056
aaa(lp2057
S'KIRSTEN'
p2058
a(lp2059
S'West'
p2060
aaa(lp2061
S'AMY'
p2062
a(lp2063
g55
aS'Yes'
p2064
ag55
aaa(lp2065
S'KIRSTEN'
p2066
a(lp2067
S'So'
p2068
aS'they'
p2069
aS'were'
p2070
aS'out'
p2071
aS'in'
p2072
aS'the'
p2073
aS'west'
p2074
aS'suburbs'
p2075
aaa(lp2076
g2066
a(lp2077
S'And'
p2078
aS'incubated'
p2079
aS'there'
p2080
aaa(lp2081
S'X'
p2082
a(lp2083
aa(lp2084
S'AMY'
p2085
a(lp2086
aa(lp2087
S'LORI'
p2088
a(lp2089
S'Mm'
p2090
aaa(lp2091
S'AMY'
p2092
a(lp2093
aa(lp2094
S'KIRSTEN'
p2095
a(lp2096
S'And'
p2097
aaa(lp2098
g2095
a(lp2099
S'apparently'
p2100
aS'now'
p2101
aS'theyre'
p2102
aS'about'
p2103
aaa(lp2104
g2095
a(lp2105
S'six'
p2106
aS'to'
p2107
aS'seven'
p2108
aS'weeks'
p2109
aS'old'
p2110
aaa(lp2111
S'NICOLE'
p2112
a(lp2113
S'Wow'
p2114
aaa(lp2115
S'AMYWhen'
p2116
a(lp2117
g133
aS'was'
p2118
aS'here'
p2119
aS'two'
p2120
aS'weeks'
p2121
aS'ago'
p2122
aaa(lp2123
g2116
a(lp2124
S'they'
p2125
aS'were'
p2126
aS'sixty'
p2127
aS'days'
p2128
aaa(lp2129
S'KIRSTENT'
p2130
a(lp2131
g134
aS'two'
p2132
aS'weeks'
p2133
aS'ago'
p2134
aS'it'
p2135
aS'was'
p2136
aS'sixty'
p2137
aS'days'
p2138
aaa(lp2139
S'AMYI'
p2140
a(lp2141
S'think'
p2142
aaa(lp2143
g2140
a(lp2144
S'maybe'
p2145
aS'it'
p2146
aS'was'
p2147
aS'four'
p2148
aS'weeks'
p2149
aS'ago'
p2150
aaa(lp2151
S'KIRSTEN'
p2152
a(lp2153
S'Okay'
p2154
aaa(lp2155
S'AMY'
p2156
a(lp2157
S'Yeah'
p2158
aaa(lp2159
S'KIRSTENI'
p2160
a(lp2161
S'think'
p2162
aaa(lp2163
g2160
a(lp2164
g133
aS'think'
p2165
aS'theyre'
p2166
aS'around'
p2167
aS'six'
p2168
aS'weeks'
p2169
aS'old'
p2170
aaa(lp2171
S'LORI'
p2172
a(lp2173
S'Mm'
p2174
aaa(lp2175
S'KIRSTENOkay'
p2176
a(lp2177
aa(lp2178
g2176
a(lp2179
S'But'
p2180
aS'when'
p2181
aS'you'
p2182
aS'see'
p2183
aS'them'
p2184
aaa(lp2185
g2176
a(lp2186
S'youll'
p2187
aS'see'
p2188
aS'that'
p2189
aS'theyre'
p2190
aS'just'
p2191
aS'about'
p2192
aS'as'
p2193
aS'big'
p2194
aS'as'
p2195
aS'number'
p2196
aS'ten'
p2197
aaa(lp2198
g2176
a(lp2199
S'Theyre'
p2200
aS'big'
p2201
aaa(lp2202
S'LORI'
p2203
a(lp2204
S'Nkay'
p2205
aaa(lp2206
S'AMYYeah'
p2207
a(lp2208
aa(lp2209
g2207
a(lp2210
S'When'
p2211
ag133
aaa(lp2212
g2207
a(lp2213
S'Yeah'
p2214
aaa(lp2215
g2207
a(lp2216
S'when'
p2217
ag133
aS'was'
p2218
aS'here'
p2219
aS'they'
p2220
aS'had'
p2221
aaa(lp2222
g2207
a(lp2223
S'they'
p2224
aS'were'
p2225
aS'losing'
p2226
aS'all'
p2227
aS'of'
p2228
aS'their'
p2229
aS'hair'
p2230
aaa(lp2231
g2207
a(lp2232
S'And'
p2233
aS'they'
p2234
aS'looked'
p2235
aaa(lp2236
g2207
a(lp2237
S'the'
p2238
aS'two'
p2239
aS'oldest'
p2240
aS'ones'
p2241
aS'looked'
p2242
aS'like'
p2243
aS'Ten'
p2244
aaa(lp2245
S'KIRSTEN'
p2246
a(lp2247
S'Right'
p2248
aaa(lp2249
g2246
a(lp2250
S'Right'
p2251
aaa(lp2252
g2246
a(lp2253
S'So'
p2254
aS'basically'
p2255
aaa(lp2256
g2246
a(lp2257
S'what'
p2258
aS'the'
p2259
aS'process'
p2260
aS'has'
p2261
aS'been'
p2262
aS'is'
p2263
aaa(lp2264
g2246
a(lp2265
S'we'
p2266
aS'brought'
p2267
aS'them'
p2268
aS'here'
p2269
aS'as'
p2270
aS'chicks'
p2271
aaa(lp2272
g2246
a(lp2273
S'but'
p2274
aS'they'
p2275
aS'still'
p2276
aS'had'
p2277
aS'their'
p2278
aS'downy'
p2279
aS'feathers'
p2280
aaa(lp2281
g2246
a(lp2282
S'Okay'
p2283
aaa(lp2284
g2246
a(lp2285
S'so'
p2286
aaa(lp2287
g2246
a(lp2288
S'as'
p2289
aS'they'
p2290
aS'lost'
p2291
aS'their'
p2292
aS'downy'
p2293
aS'feathers'
p2294
aaa(lp2295
g2246
a(lp2296
S'they'
p2297
aS'became'
p2298
aS'eligible'
p2299
aS'to'
p2300
aS'go'
p2301
aS'out'
p2302
aS'onto'
p2303
aS'exhibit'
p2304
aaa(lp2305
g2246
a(lp2306
S'And'
p2307
aS'so'
p2308
aS'what'
p2309
aS'they'
p2310
aS'did'
p2311
aS'last'
p2312
aS'time'
p2313
aS'you'
p2314
aS'guys'
p2315
aS'were'
p2316
aS'here'
p2317
aaa(lp2318
g2246
a(lp2319
S'there'
p2320
aS'was'
p2321
aS'maybe'
p2322
aS'ten'
p2323
aaa(lp2324
g2246
a(lp2325
S'That'
p2326
aS'were'
p2327
aaa(lp2328
g2246
a(lp2329
S'you'
p2330
aS'know'
p2331
aaa(lp2332
g2246
a(lp2333
g133
aS'say'
p2334
aS'eligible'
p2335
aaa(lp2336
g2246
a(lp2337
S'to'
p2338
aS'be'
p2339
aS'out'
p2340
aS'on'
p2341
aS'exhibit'
p2342
aaa(lp2343
S'NICOLE'
p2344
a(lp2345
aa(lp2346
S'KIRSTENand'
p2347
a(lp2348
S'what'
p2349
aS'they'
p2350
aS'would'
p2351
aS'do'
p2352
aS'is'
p2353
aaa(lp2354
g2347
a(lp2355
S'they'
p2356
aS'would'
p2357
aS'carry'
p2358
aS'them'
p2359
aS'in'
p2360
aaa(lp2361
g2347
a(lp2362
S'let'
p2363
aS'them'
p2364
aS'hang'
p2365
aS'out'
p2366
aS'for'
p2367
aS'about'
p2368
ag24
aS'half'
p2369
aS'an'
p2370
aS'hour'
p2371
aaa(lp2372
g2347
a(lp2373
S'get'
p2374
aS'acclimated'
p2375
aS'to'
p2376
aS'what'
p2377
aS'was'
p2378
aS'going'
p2379
aS'on'
p2380
aaa(lp2381
g2347
a(lp2382
S'and'
p2383
aS'then'
p2384
aS'take'
p2385
aS'them'
p2386
aS'off'
p2387
aaa(lp2388
g2347
a(lp2389
S'And'
p2390
aS'do'
p2391
aS'this'
p2392
aaa(lp2393
g2347
a(lp2394
S'Now'
p2395
aS'theyre'
p2396
aS'out'
p2397
aaa(lp2398
g2347
a(lp2399
S'Now'
p2400
aS'theyre'
p2401
aaa(lp2402
g2347
a(lp2403
S'they'
p2404
aS'are'
p2405
aS'out'
p2406
aS'on'
p2407
aS'exhibit'
p2408
aaa(lp2409
S'DON'
p2410
a(lp2411
S'All'
p2412
aS'of'
p2413
aS'them'
p2414
aaa(lp2415
S'KIRSTEN'
p2416
a(lp2417
S'Almost'
p2418
aS'all'
p2419
aS'of'
p2420
aS'em'
p2421
aaa(lp2422
g2416
a(lp2423
S'Two'
p2424
aS'days'
p2425
aS'ago'
p2426
aS'there'
p2427
aS'was'
p2428
aS'twentyfive'
p2429
aS'out'
p2430
aS'on'
p2431
aS'exhibit'
p2432
aaa(lp2433
g2416
a(lp2434
S'So'
p2435
aS'we'
p2436
aS'have'
p2437
aS'thirty'
p2438
aS'chicks'
p2439
aS'total'
p2440
aaa(lp2441
S'DONRight'
p2442
a(lp2443
aa(lp2444
S'LORIHm'
p2445
a(lp2446
aa(lp2447
S'KIRSTEN'
p2448
a(lp2449
S'So'
p2450
aaa(lp2451
g2448
a(lp2452
S'twentyfive'
p2453
aS'plus'
p2454
aS'are'
p2455
aS'out'
p2456
aS'on'
p2457
aS'exhibit'
p2458
aaa(lp2459
S'DON'
p2460
a(lp2461
S'Okay'
p2462
aaa(lp2463
S'KIRSTEN'
p2464
a(lp2465
S'Um'
p2466
aaa(lp2467
g2464
a(lp2468
S'thing'
p2469
aS'of'
p2470
aS'it'
p2471
aS'is'
p2472
aaa(lp2473
g2464
a(lp2474
S'is'
p2475
aS'lets'
p2476
aS'think'
p2477
ag24
aS'little'
p2478
aS'bit'
p2479
aS'about'
p2480
aS'penguin'
p2481
aS'natural'
p2482
aS'history'
p2483
aaa(lp2484
g2464
a(lp2485
S'Okay'
p2486
aaa(lp2487
g2464
a(lp2488
S'How'
p2489
aaa(lp2490
g2464
a(lp2491
S'how'
p2492
aS'long'
p2493
aS'do'
p2494
aS'penguins'
p2495
aS'spend'
p2496
aS'on'
p2497
aS'land'
p2498
aaa(lp2499
S'DON'
p2500
a(lp2501
S'Three'
p2502
aS'months'
p2503
ag133
aS'think'
p2504
aaa(lp2505
S'KIRSTEN'
p2506
a(lp2507
S'Whats'
p2508
aS'your'
p2509
aS'guess'
p2510
aaa(lp2511
S'LORI'
p2512
a(lp2513
S'Uh'
p2514
aaa(lp2515
S'DONThree'
p2516
a(lp2517
S'or'
p2518
aS'is'
p2519
aS'it'
p2520
aaa(lp2521
g2516
a(lp2522
S'three'
p2523
aS'to'
p2524
aS'six'
p2525
aS'months'
p2526
aaa(lp2527
S'KIRSTEN'
p2528
a(lp2529
S'Okay'
p2530
aaa(lp2531
S'LORI'
p2532
a(lp2533
S'Um'
p2534
aaa(lp2535
g2532
a(lp2536
S'four'
p2537
aaa(lp2538
g2532
a(lp2539
S'Five'
p2540
aaa(lp2541
S'KIRSTEN'
p2542
a(lp2543
S'Six'
p2544
aaa(lp2545
S'DONSix'
p2546
a(lp2547
aa(lp2548
S'KIRSTENOkay'
p2549
a(lp2550
aa(lp2551
S'NICOLESix'
p2552
a(lp2553
S'months'
p2554
aaa(lp2555
S'KIRSTEN'
p2556
a(lp2557
S'So'
p2558
aaa(lp2559
g2556
a(lp2560
S'its'
p2561
aS'its'
p2562
aS'basically'
p2563
aaa(lp2564
S'NICOLEWow'
p2565
a(lp2566
aa(lp2567
S'KIRSTENits'
p2568
a(lp2569
S'an'
p2570
aS'even'
p2571
aS'even'
p2572
aS'split'
p2573
aaa(lp2574
S'DON'
p2575
a(lp2576
aa(lp2577
S'KIRSTENbetween'
p2578
a(lp2579
aa(lp2580
g2578
a(lp2581
S'life'
p2582
aS'out'
p2583
aS'at'
p2584
aS'sea'
p2585
aS'and'
p2586
aS'life'
p2587
aS'on'
p2588
aS'land'
p2589
aaa(lp2590
g2578
a(lp2591
S'So'
p2592
aS'the'
p2593
aS'sequence'
p2594
aS'of'
p2595
aS'events'
p2596
aS'is'
p2597
aaa(lp2598
g2578
a(lp2599
S'they'
p2600
aS'come'
p2601
aS'on'
p2602
aS'to'
p2603
aS'shore'
p2604
aaa(lp2605
g2578
a(lp2606
S'springtime'
p2607
aaa(lp2608
g2578
a(lp2609
S'they'
p2610
aS'hook'
p2611
aS'up'
p2612
aS'with'
p2613
aS'their'
p2614
aS'mate'
p2615
aaa(lp2616
g2578
a(lp2617
S'they'
p2618
aS'build'
p2619
ag24
aS'nest'
p2620
aaa(lp2621
g2578
a(lp2622
S'they'
p2623
aS'mate'
p2624
aaa(lp2625
g2578
a(lp2626
S'they'
p2627
aS'lay'
p2628
aS'their'
p2629
aS'eggs'
p2630
aaa(lp2631
g2578
a(lp2632
S'they'
p2633
aS'brood'
p2634
aS'their'
p2635
aS'eggs'
p2636
aaa(lp2637
g2578
a(lp2638
S'they'
p2639
aS'hatch'
p2640
aS'their'
p2641
aS'chicks'
p2642
aaa(lp2643
g2578
a(lp2644
S'they'
p2645
aS'brood'
p2646
aS'their'
p2647
aS'chicks'
p2648
aaa(lp2649
g2578
a(lp2650
S'they'
p2651
aS'feed'
p2652
aS'their'
p2653
aS'chicks'
p2654
aaa(lp2655
g2578
a(lp2656
S'they'
p2657
aS'molt'
p2658
aaa(lp2659
g2578
a(lp2660
S'and'
p2661
aS'then'
p2662
aS'theyre'
p2663
aS'out'
p2664
aS'to'
p2665
aS'sea'
p2666
aaa(lp2667
g2578
a(lp2668
S'So'
p2669
aS'all'
p2670
aS'of'
p2671
aS'that'
p2672
aS'has'
p2673
aS'to'
p2674
aS'happen'
p2675
aaa(lp2676
g2578
a(lp2677
S'within'
p2678
aS'that'
p2679
aS'sixmonth'
p2680
aS'period'
p2681
aaa(lp2682
g2578
a(lp2683
S'thats'
p2684
ag24
aS'pretty'
p2685
aS'busy'
p2686
aS'bird'
p2687
aaa(lp2688
S'LORI'
p2689
a(lp2690
aa(lp2691
S'NICOLE'
p2692
a(lp2693
aa(lp2694
S'KIRSTENso'
p2695
a(lp2696
aa(lp2697
S'DON'
p2698
a(lp2699
S'WH'
p2700
aS'WH'
p2701
aaa(lp2702
S'KIRSTENthe'
p2703
a(lp2704
S'penguins'
p2705
aS'need'
p2706
aS'to'
p2707
aS'grow'
p2708
aaa(lp2709
g2703
a(lp2710
S'the'
p2711
aS'chicks'
p2712
aaa(lp2713
g2703
a(lp2714
S'in'
p2715
aS'order'
p2716
aS'to'
p2717
aS'be'
p2718
aS'ready'
p2719
aaa(lp2720
g2703
a(lp2721
S'to'
p2722
aS'go'
p2723
aS'out'
p2724
aS'there'
p2725
aaa(lp2726
g2703
a(lp2727
S'for'
p2728
aS'six'
p2729
aS'months'
p2730
aS'out'
p2731
aS'at'
p2732
aS'sea'
p2733
aaa(lp2734
g2703
a(lp2735
S'really'
p2736
aS'need'
p2737
aS'to'
p2738
aS'be'
p2739
aS'very'
p2740
aS'well'
p2741
aS'suited'
p2742
aS'for'
p2743
aS'that'
p2744
aaa(lp2745
S'DON'
p2746
a(lp2747
aa(lp2748
S'KIRSTENSo'
p2749
a(lp2750
S'they'
p2751
aS'nee'
p2752
aS'need'
p2753
aS'to'
p2754
aS'be'
p2755
aS'big'
p2756
aaa(lp2757
g2749
a(lp2758
S'they'
p2759
aS'need'
p2760
aS'to'
p2761
aS'be'
p2762
aS'hefty'
p2763
aaa(lp2764
g2749
a(lp2765
S'they'
p2766
aS'need'
p2767
aS'to'
p2768
aS'have'
p2769
aS'their'
p2770
aS'adult'
p2771
aS'feathers'
p2772
aaa(lp2773
g2749
a(lp2774
S'so'
p2775
aaa(lp2776
S'AMYMm'
p2777
a(lp2778
aa(lp2779
S'KIRSTEN'
p2780
a(lp2781
S'between'
p2782
aS'the'
p2783
aS'time'
p2784
aS'that'
p2785
aS'they'
p2786
aS'actually'
p2787
aS'hatch'
p2788
aS'out'
p2789
aaa(lp2790
g2780
a(lp2791
S'and'
p2792
aS'the'
p2793
aS'time'
p2794
aS'that'
p2795
aS'theyre'
p2796
aS'ready'
p2797
aS'to'
p2798
aS'go'
p2799
aS'out'
p2800
aS'to'
p2801
aS'sea'
p2802
aaa(lp2803
g2780
a(lp2804
S'is'
p2805
aS'just'
p2806
ag24
aS'couple'
p2807
aS'of'
p2808
aS'months'
p2809
aaa(lp2810
S'NICOLE'
p2811
a(lp2812
S'How'
p2813
aS'long'
p2814
aS'does'
p2815
aS'it'
p2816
aS'take'
p2817
aS'for'
p2818
aS'them'
p2819
aS'to'
p2820
aS'hatch'
p2821
aaa(lp2822
S'KIRSTEN'
p2823
a(lp2824
S'Well'
p2825
aS'the'
p2826
aS'incubation'
p2827
aS'period'
p2828
aaa(lp2829
S'NICOLEOr'
p2830
a(lp2831
S'um'
p2832
aaa(lp2833
g2830
a(lp2834
g55
aS'to'
p2835
aS'have'
p2836
aS'experience'
p2837
ag55
aaa(lp2838
S'KIRSTENis'
p2839
a(lp2840
S'anywhere'
p2841
aaa(lp2842
g2839
a(lp2843
S'depends'
p2844
aS'on'
p2845
aS'the'
p2846
aS'species'
p2847
aaa(lp2848
g2839
a(lp2849
S'its'
p2850
aS'its'
p2851
aS'one'
p2852
aS'month'
p2853
aS'to'
p2854
aS'two'
p2855
aS'months'
p2856
aaa(lp2857
S'NICOLEOh'
p2858
a(lp2859
S'okay'
p2860
aaa(lp2861
S'KIRSTEN'
p2862
a(lp2863
S'Okay'
p2864
aaa(lp2865
g2862
a(lp2866
S'so'
p2867
aaa(lp2868
g2862
a(lp2869
S'therefore'
p2870
aaa(lp2871
g2862
a(lp2872
S'you'
p2873
aS'know'
p2874
aS'basically'
p2875
aaa(lp2876
g2862
a(lp2877
S'between'
p2878
aS'building'
p2879
ag24
aS'nest'
p2880
aaa(lp2881
g2862
a(lp2882
S'and'
p2883
aS'mating'
p2884
aaa(lp2885
g2862
a(lp2886
S'and'
p2887
aS'all'
p2888
aS'of'
p2889
aS'that'
p2890
aS'other'
p2891
aS'stuff'
p2892
aaa(lp2893
g2862
a(lp2894
S'you'
p2895
aS'know'
p2896
aS'they'
p2897
aaa(lp2898
g2862
a(lp2899
g133
aS'would'
p2900
aS'say'
p2901
aS'that'
p2902
aS'they'
p2903
aS'have'
p2904
aS'three'
p2905
aS'months'
p2906
aaa(lp2907
g2862
a(lp2908
S'to'
p2909
aS'to'
p2910
aS'grow'
p2911
aS'and'
p2912
aS'get'
p2913
aS'ready'
p2914
aaa(lp2915
g2862
a(lp2916
S'Okay'
p2917
aaa(lp2918
g2862
a(lp2919
S'So'
p2920
aS'theyre'
p2921
aS'big'
p2922
aaa(lp2923
g2862
a(lp2924
S'Now'
p2925
aS'the'
p2926
aS'funny'
p2927
aS'thing'
p2928
aS'is'
p2929
aaa(lp2930
g2862
a(lp2931
S'is'
p2932
aS'that'
p2933
aaa(lp2934
g2862
a(lp2935
S'according'
p2936
aS'to'
p2937
aS'Mark'
p2938
aS'Ryan'
p2939
aaa(lp2940
g2862
a(lp2941
S'VOX'
p2942
aS'well'
p2943
aS'VOX'
p2944
aaa(lp2945
g2862
a(lp2946
S'hmm'
p2947
aaa(lp2948
S'NICOLE'
p2949
a(lp2950
aa(lp2951
S'KIRSTENOr'
p2952
a(lp2953
S'just'
p2954
aS'interesting'
p2955
aaa(lp2956
g2952
a(lp2957
g133
aS'guess'
p2958
aaa(lp2959
g2952
a(lp2960
S'Go'
p2961
aS'watch'
p2962
aS'them'
p2963
aaa(lp2964
g2952
a(lp2965
S'um'
p2966
aaa(lp2967
S'LORIMhm'
p2968
a(lp2969
aa(lp2970
S'KIRSTENif'
p2971
a(lp2972
S'you'
p2973
aS'watch'
p2974
aS'the'
p2975
aS'trainers'
p2976
aaa(lp2977
g2971
a(lp2978
S'they'
p2979
aS'walk'
p2980
aS'into'
p2981
aS'the'
p2982
aS'exhibit'
p2983
aaa(lp2984
g2971
a(lp2985
S'and'
p2986
aS'they'
p2987
aS'start'
p2988
aS'throwing'
p2989
aS'penguins'
p2990
aS'into'
p2991
aS'the'
p2992
aS'water'
p2993
aaa(lp2994
g2971
a(lp2995
S'And'
p2996
aS'pushing'
p2997
aS'them'
p2998
aS'in'
p2999
aaa(lp3000
g2971
a(lp3001
S'and'
p3002
aS'theyre'
p3003
aS'all'
p3004
aS'over'
p3005
aS'the'
p3006
aS'place'
p3007
aaa(lp3008
g2971
a(lp3009
S'um'
p3010
aaa(lp3011
S'NICOLE'
p3012
a(lp3013
aa(lp3014
S'KIRSTEN'
p3015
a(lp3016
S'they'
p3017
aS'try'
p3018
aS'to'
p3019
aS'get'
p3020
aS'out'
p3021
aaa(lp3022
g3015
a(lp3023
S'sometimes'
p3024
aS'they'
p3025
aS'make'
p3026
aS'it'
p3027
aaa(lp3028
g3015
a(lp3029
S'sometimes'
p3030
aS'they'
p3031
aS'fall'
p3032
aS'back'
p3033
aS'in'
p3034
aaa(lp3035
g3015
a(lp3036
S'Gentus'
p3037
aS'usually'
p3038
aS'dive'
p3039
aS'in'
p3040
aS'head'
p3041
aS'first'
p3042
aaa(lp3043
g3015
a(lp3044
S'these'
p3045
aS'guys'
p3046
aS'are'
p3047
aS'falling'
p3048
aS'in'
p3049
aaa(lp3050
S'AMY'
p3051
a(lp3052
aa(lp3053
S'KIRSTENjumping'
p3054
a(lp3055
S'in'
p3056
aaa(lp3057
g3054
a(lp3058
S'diving'
p3059
aS'in'
p3060
aaa(lp3061
g3054
a(lp3062
S'so'
p3063
aS'their'
p3064
aS'behaviors'
p3065
aS'if'
p3066
aS'you'
p3067
aS'will'
p3068
aS'are'
p3069
aaa(lp3070
g3054
a(lp3071
S'are'
p3072
aS'really'
p3073
aS'interesting'
p3074
aaa(lp3075
g3054
a(lp3076
S'Okay'
p3077
aaa(lp3078
S'LORIMhm'
p3079
a(lp3080
aa(lp3081
S'KIRSTENIts'
p3082
a(lp3083
S'just'
p3084
aaa(lp3085
g3082
a(lp3086
S'its'
p3087
aS'just'
p3088
ag24
aS'lot'
p3089
aS'of'
p3090
aS'fun'
p3091
aS'to'
p3092
aS'watch'
p3093
aS'them'
p3094
aaa(lp3095
g3082
a(lp3096
S'Um'
p3097
aaa(lp3098
g3082
a(lp3099
S'theyre'
p3100
aS'doing'
p3101
aS'something'
p3102
aS'different'
p3103
aS'with'
p3104
aS'these'
p3105
aS'chicks'
p3106
aS'than'
p3107
aS'weve'
p3108
aS'done'
p3109
aS'with'
p3110
aS'the'
p3111
aS'other'
p3112
aS'penguins'
p3113
aaa(lp3114
g3082
a(lp3115
S'is'
p3116
aS'that'
p3117
aS'theyre'
p3118
aS'trying'
p3119
aS'to'
p3120
aS'feed'
p3121
aS'them'
p3122
aS'crill'
p3123
aaa(lp3124
g3082
a(lp3125
S'Um'
p3126
aaa(lp3127
g3082
a(lp3128
S'yesterday'
p3129
ag133
aS'think'
p3130
aS'is'
p3131
aS'th'
p3132
aS'is'
p3133
aS'th'
p3134
aS'is'
p3135
aS'when'
p3136
aS'they'
p3137
aS'tried'
p3138
aS'it'
p3139
aS'for'
p3140
aS'the'
p3141
aS'first'
p3142
aS'time'
p3143
aaa(lp3144
g3082
a(lp3145
S'and'
p3146
aS'that'
p3147
aS'crill'
p3148
aaa(lp3149
g3082
a(lp3150
S'is'
p3151
aS'about'
p3152
aS'as'
p3153
aS'big'
p3154
aS'as'
p3155
aaa(lp3156
S'LORI'
p3157
a(lp3158
S'Mhm'
p3159
aaa(lp3160
S'KIRSTENyou'
p3161
a(lp3162
S'know'
p3163
aS'from'
p3164
aS'my'
p3165
aS'joint'
p3166
aaa(lp3167
g3161
a(lp3168
S'up'
p3169
aS'to'
p3170
aS'the'
p3171
aS'top'
p3172
aS'of'
p3173
aS'my'
p3174
aS'finger'
p3175
aS'here'
p3176
aaa(lp3177
g3161
a(lp3178
S'so'
p3179
aS'its'
p3180
aS'very'
p3181
aS'difficult'
p3182
aS'for'
p3183
ag24
aS'person'
p3184
aS'to'
p3185
aS'hold'
p3186
ag24
aS'crill'
p3187
aaa(lp3188
S'NICOLE'
p3189
a(lp3190
aa(lp3191
S'KIRSTEN'
p3192
a(lp3193
S'and'
p3194
aS'drop'
p3195
aS'it'
p3196
aS'into'
p3197
ag24
aS'penguins'
p3198
aS'mouth'
p3199
aaa(lp3200
g3192
a(lp3201
S'So'
p3202
aaa(lp3203
g3192
a(lp3204
S'very'
p3205
aS'good'
p3206
aS'f'
p3207
ag134
aS'food'
p3208
aS'source'
p3209
aS'for'
p3210
aS'them'
p3211
aaa(lp3212
g3192
a(lp3213
S'thats'
p3214
aS'what'
p3215
aS'they'
p3216
aS'would'
p3217
aS'feed'
p3218
aS'on'
p3219
aS'in'
p3220
aS'the'
p3221
aS'wild'
p3222
aaa(lp3223
g3192
a(lp3224
S'in'
p3225
aS'addition'
p3226
aS'to'
p3227
aS'other'
p3228
aS'things'
p3229
aaa(lp3230
g3192
a(lp3231
S'so'
p3232
aaa(lp3233
g3192
a(lp3234
S'what'
p3235
aS'theyre'
p3236
aS'trying'
p3237
aS'to'
p3238
aS'do'
p3239
aS'is'
p3240
aaa(lp3241
g3192
a(lp3242
S'theyre'
p3243
aS'throwing'
p3244
aS'the'
p3245
aS'crill'
p3246
aS'into'
p3247
aS'the'
p3248
aS'water'
p3249
aaa(lp3250
g3192
a(lp3251
S'and'
p3252
aS'seeing'
p3253
aS'if'
p3254
aS'the'
p3255
aS'chicksll'
p3256
aS'go'
p3257
aS'for'
p3258
aS'it'
p3259
aaa(lp3260
g3192
a(lp3261
S'So'
p3262
aS'they'
p3263
aS'tried'
p3264
aS'it'
p3265
aS'yesterday'
p3266
aaa(lp3267
g3192
a(lp3268
S'and'
p3269
aS'they'
p3270
aS'had'
p3271
aS'some'
p3272
aS'mixed'
p3273
aS'success'
p3274
aaa(lp3275
g3192
a(lp3276
S'you'
p3277
aS'know'
p3278
aS'some'
p3279
aS'animals'
p3280
aS'were'
p3281
aS'interested'
p3282
aaa(lp3283
g3192
a(lp3284
S'others'
p3285
aS'werent'
p3286
aaa(lp3287
g3192
a(lp3288
S'So'
p3289
aaa(lp3290
g3192
a(lp3291
S'y'
p3292
ag24
aS'apparently'
p3293
aS'they'
p3294
aS'theyll'
p3295
aS'keep'
p3296
aS'doing'
p3297
aS'this'
p3298
aaa(lp3299
g3192
a(lp3300
S'So'
p3301
aaa(lp3302
g3192
a(lp3303
S'Did'
p3304
aaa(lp3305
g3192
a(lp3306
S'Were'
p3307
aS'they'
p3308
aS'werent'
p3309
aS'doing'
p3310
aS'that'
p3311
aS'when'
p3312
aS'you'
p3313
aS'were'
p3314
aS'in'
p3315
aS'there'
p3316
aaa(lp3317
S'AMYNo'
p3318
a(lp3319
aa(lp3320
g3318
a(lp3321
S'No'
p3322
aS'no'
p3323
aS'no'
p3324
aaa(lp3325
S'KIRSTEN'
p3326
a(lp3327
S'Okay'
p3328
aaa(lp3329
g3326
a(lp3330
S'When'
p3331
aS'they'
p3332
aS'were'
p3333
aS'chicks'
p3334
aaa(lp3335
g3326
a(lp3336
S'cause'
p3337
aS'what'
p3338
aS'is'
p3339
aS'it'
p3340
aaa(lp3341
g3326
a(lp3342
S'How'
p3343
aS'does'
p3344
ag24
aS'mother'
p3345
aS'feed'
p3346
ag24
aS'penguin'
p3347
aS'chick'
p3348
aaa(lp3349
S'LORI'
p3350
a(lp3351
S'Doesnt'
p3352
aS'she'
p3353
aS'bring'
p3354
aS'food'
p3355
aS'to'
p3356
aS'it'
p3357
aaa(lp3358
S'AMY'
p3359
a(lp3360
S'She'
p3361
aS'regurgitates'
p3362
aS'it'
p3363
aaa(lp3364
S'KIRSTENShe'
p3365
a(lp3366
S'regurgitates'
p3367
aS'it'
p3368
aaa(lp3369
S'LORIOh'
p3370
a(lp3371
aa(lp3372
S'KIRSTENI'
p3373
a(lp3374
S'sh'
p3375
aS'shouldnt'
p3376
aS'say'
p3377
aS'she'
p3378
aaa(lp3379
g3373
a(lp3380
S'cause'
p3381
aS'mother'
p3382
aS'and'
p3383
aS'father'
p3384
aS'share'
p3385
aaa(lp3386
S'LORIBoth'
p3387
a(lp3388
aa(lp3389
S'NICOLEOh'
p3390
a(lp3391
aa(lp3392
S'KIRSTENshare'
p3393
a(lp3394
S'the'
p3395
aS'duties'
p3396
aaa(lp3397
g3393
a(lp3398
S'okay'
p3399
aaa(lp3400
g3393
a(lp3401
S'But'
p3402
aS'yeah'
p3403
aaa(lp3404
g3393
a(lp3405
S'they'
p3406
aS'go'
p3407
aS'out'
p3408
aaa(lp3409
g3393
a(lp3410
S'they'
p3411
aS'feed'
p3412
aaa(lp3413
g3393
a(lp3414
S'and'
p3415
aS'they'
p3416
aS'regurgitate'
p3417
aS'up'
p3418
aS'the'
p3419
aS'food'
p3420
aaa(lp3421
g3393
a(lp3422
S'and'
p3423
aS'thats'
p3424
aS'how'
p3425
aS'they'
p3426
aS'feed'
p3427
aS'the'
p3428
aS'chicks'
p3429
aaa(lp3430
S'NICOLEMm'
p3431
a(lp3432
aa(lp3433
S'LORI'
p3434
a(lp3435
S'Actually'
p3436
aS'other'
p3437
aS'birds'
p3438
aS'do'
p3439
aS'that'
p3440
aS'as'
p3441
aS'well'
p3442
aaa(lp3443
S'KIRSTENA'
p3444
a(lp3445
S'lot'
p3446
aaa(lp3447
S'AMYMhm'
p3448
a(lp3449
aa(lp3450
S'LORIDont'
p3451
a(lp3452
S'they'
p3453
aaa(lp3454
g3451
a(lp3455
g24
aS'lot'
p3456
aS'of'
p3457
aS'birds'
p3458
aS'do'
p3459
aaa(lp3460
S'AMYYeah'
p3461
a(lp3462
aa(lp3463
S'KIRSTENYeah'
p3464
a(lp3465
aa(lp3466
g3464
a(lp3467
g1557
aS'lot'
p3468
aS'of'
p3469
aS'birds'
p3470
aS'do'
p3471
aaa(lp3472
S'LORIThats'
p3473
a(lp3474
S'right'
p3475
aaa(lp3476
S'KIRSTENThey'
p3477
a(lp3478
S'never'
p3479
aS'really'
p3480
aS'did'
p3481
aS'any'
p3482
aaa(lp3483
g3477
a(lp3484
S'well'
p3485
aaa(lp3486
g3477
a(lp3487
S'we'
p3488
aS'h'
p3489
aS'didnt'
p3490
aS'regurgitate'
p3491
aS'for'
p3492
aS'them'
p3493
aaa(lp3494
g3477
a(lp3495
S'but'
p3496
aaa(lp3497
S'LORI'
p3498
a(lp3499
aa(lp3500
S'KIRSTENthey'
p3501
a(lp3502
S'started'
p3503
aS'them'
p3504
aS'off'
p3505
aS'with'
p3506
aS'um'
p3507
aS'strips'
p3508
aS'of'
p3509
aS'fish'
p3510
aaa(lp3511
g3501
a(lp3512
S'and'
p3513
aS'they'
p3514
aS'actually'
p3515
aS'dipped'
p3516
aS'it'
p3517
aS'in'
p3518
ag24
aS'vitamin'
p3519
aS'and'
p3520
aS'um'
p3521
aS'pureed'
p3522
aS'crill'
p3523
aS'batter'
p3524
aaa(lp3525
S'LORIMm'
p3526
a(lp3527
aa(lp3528
S'NICOLE'
p3529
a(lp3530
aa(lp3531
S'KIRSTENDipped'
p3532
a(lp3533
S'it'
p3534
aS'in'
p3535
aaa(lp3536
g3532
a(lp3537
S'and'
p3538
aS'then'
p3539
aS'gave'
p3540
aS'it'
p3541
aS'to'
p3542
aS'the'
p3543
aS'penguin'
p3544
aS'chicks'
p3545
aaa(lp3546
g3532
a(lp3547
S'So'
p3548
aS'theyve'
p3549
aS'been'
p3550
aS'on'
p3551
aS'solid'
p3552
aS'food'
p3553
aaa(lp3554
S'LORI'
p3555
a(lp3556
S'Hm'
p3557
aaa(lp3558
S'KIRSTEN'
p3559
a(lp3560
S'for'
p3561
aS'quite'
p3562
aS'some'
p3563
aS'time'
p3564
aaa(lp3565
g3559
a(lp3566
S'and'
p3567
aS'now'
p3568
aS'its'
p3569
aS'just'
p3570
aS'interesting'
p3571
aS'to'
p3572
aS'see'
p3573
aS'if'
p3574
aS'theyll'
p3575
aS'just'
p3576
aS'go'
p3577
aS'for'
p3578
aS'the'
p3579
aS'crill'
p3580
aS'itself'
p3581
aaa(lp3582
S'AMYAre'
p3583
a(lp3584
S'they'
p3585
aaa(lp3586
g3583
a(lp3587
g133
aS'mean'
p3588
aaa(lp3589
g3583
a(lp3590
S'are'
p3591
aS'they'
p3592
aS'being'
p3593
aS'hesitant'
p3594
aS'about'
p3595
aS'it'
p3596
aaa(lp3597
S'KIRSTEN'
p3598
a(lp3599
g133
aS'didnt'
p3600
aS'see'
p3601
aS'it'
p3602
aaa(lp3603
g3598
a(lp3604
S'Yesterday'
p3605
aS'was'
p3606
aS'the'
p3607
aS'first'
p3608
aS'time'
p3609
aaa(lp3610
S'AMYBecause'
p3611
a(lp3612
aa(lp3613
S'KIRSTENthey'
p3614
a(lp3615
S'did'
p3616
aS'it'
p3617
aS'at'
p3618
aS'eleven'
p3619
aS'thirty'
p3620
aS'and'
p3621
aS'four'
p3622
aS'oclock'
p3623
aaa(lp3624
g3614
a(lp3625
S'Where'
p3626
aS'the'
p3627
aaa(lp3628
S'AMYThats'
p3629
a(lp3630
S'really'
p3631
aS'interesting'
p3632
aaa(lp3633
g3629
a(lp3634
S'because'
p3635
aaa(lp3636
g3629
a(lp3637
g133
aS'mean'
p3638
aaa(lp3639
g3629
a(lp3640
S'going'
p3641
aS'from'
p3642
aS'being'
p3643
aS'handfed'
p3644
aaa(lp3645
S'KIRSTEN'
p3646
a(lp3647
S'Right'
p3648
aaa(lp3649
g3646
a(lp3650
S'Right'
p3651
aaa(lp3652
g3646
a(lp3653
S'So'
p3654
ag133
aS'dont'
p3655
aS'know'
p3656
aaa(lp3657
g3646
a(lp3658
S'So'
p3659
ag133
aS'would'
p3660
aS'say'
p3661
aaa(lp3662
g3646
a(lp3663
S'if'
p3664
aS'youve'
p3665
aS'got'
p3666
aS'the'
p3667
aS'time'
p3668
aaa(lp3669
g3646
a(lp3670
S'or'
p3671
aS'if'
p3672
aS'you'
p3673
aS'wanna'
p3674
aS'make'
p3675
aS'the'
p3676
aS'time'
p3677
aS'to'
p3678
aS'be'
p3679
aS'down'
p3680
aS'there'
p3681
aS'at'
p3682
aS'four'
p3683
aS'thirty'
p3684
aaa(lp3685
g3646
a(lp3686
S'hopefully'
p3687
aS'theyll'
p3688
aS'do'
p3689
aS'it'
p3690
aS'again'
p3691
aS'today'
p3692
aaa(lp3693
g3646
a(lp3694
S'and'
p3695
aS'itll'
p3696
aS'be'
p3697
aS'interesting'
p3698
aS'to'
p3699
aS'see'
p3700
aaa(lp3701
g3646
a(lp3702
S'so'
p3703
aaa(lp3704
g3646
a(lp3705
S'Ill'
p3706
aS'find'
p3707
aS'out'
p3708
aS'from'
p3709
aS'Mark'
p3710
aaa(lp3711
g3646
a(lp3712
S'Um'
p3713
aaa(lp3714
g3646
a(lp3715
S'you'
p3716
aS'know'
p3717
aS'what'
p3718
aS'the'
p3719
aS'response'
p3720
aS'with'
p3721
aS'that'
p3722
aS'is'
p3723
aaa(lp3724
S'LORISo'
p3725
a(lp3726
S'four'
p3727
aS'thirtys'
p3728
aS'chick'
p3729
aS'feeding'
p3730
aaa(lp3731
S'KIRSTEN'
p3732
a(lp3733
S'Yes'
p3734
aaa(lp3735
S'DON'
p3736
a(lp3737
S'Are'
p3738
aS'there'
p3739
aS'any'
p3740
aS'particular'
p3741
aS'trainers'
p3742
aS'working'
p3743
aS'with'
p3744
aS'the'
p3745
aS'penguins'
p3746
aaa(lp3747
g3736
a(lp3748
S'uh'
p3749
aaa(lp3750
g3736
a(lp3751
S'hm'
p3752
aaa(lp3753
g3736
a(lp3754
S'Are'
p3755
aS'all'
p3756
aS'the'
p3757
aS'trainers'
p3758
aS'allowed'
p3759
aS'to'
p3760
aS'work'
p3761
aS'with'
p3762
aS'the'
p3763
aS'penguins'
p3764
aaa(lp3765
S'KIRSTENYeah'
p3766
a(lp3767
aa(lp3768
g3766
a(lp3769
S'Well'
p3770
aS'basically'
p3771
aS'here'
p3772
aaa(lp3773
g3766
a(lp3774
S'um'
p3775
aaa(lp3776
g3766
a(lp3777
S'all'
p3778
aS'of'
p3779
aS'the'
p3780
aS'trainers'
p3781
aS'work'
p3782
aS'with'
p3783
aS'all'
p3784
aS'of'
p3785
aS'the'
p3786
aS'animals'
p3787
aaa(lp3788
g3766
a(lp3789
S'So'
p3790
aaa(lp3791
g3766
a(lp3792
S'they'
p3793
aS'rotate'
p3794
aS'them'
p3795
aS'around'
p3796
aaa(lp3797
g3766
a(lp3798
S'basically'
p3799
aaa(lp3800
g3766
a(lp3801
g333
aS'Excuse'
p3802
aS'me'
p3803
ag333
aaa(lp3804
g3766
a(lp3805
S'So'
p3806
aS'that'
p3807
aS'the'
p3808
aS'animals'
p3809
aS'dont'
p3810
aS'get'
p3811
aS'attached'
p3812
aS'to'
p3813
aS'one'
p3814
aS'person'
p3815
aaa(lp3816
g3766
a(lp3817
S'Because'
p3818
aS'if'
p3819
aS'that'
p3820
aS'person'
p3821
aS'decides'
p3822
aS'to'
p3823
aS'leave'
p3824
aaa(lp3825
g3766
a(lp3826
S'then'
p3827
aaa(lp3828
g3766
a(lp3829
S'that'
p3830
aS'could'
p3831
aS'be'
p3832
aS'detrimental'
p3833
aS'to'
p3834
aS'the'
p3835
aS'animals'
p3836
aaa(lp3837
g3766
a(lp3838
S'But'
p3839
aaa(lp3840
g3766
a(lp3841
S'we'
p3842
aS'do'
p3843
aS'have'
p3844
ag24
aS'lead'
p3845
aaa(lp3846
g3766
a(lp3847
g24
aS'lead'
p3848
aS'person'
p3849
aS'for'
p3850
aS'each'
p3851
aS'animal'
p3852
aaa(lp3853
S'LORI'
p3854
a(lp3855
aa(lp3856
S'KIRSTENMark'
p3857
a(lp3858
S'Ryan'
p3859
aS'is'
p3860
aS'lead'
p3861
aS'penguins'
p3862
aaa(lp3863
S'DONMhm'
p3864
a(lp3865
aa(lp3866
S'KIRSTEN'
p3867
a(lp3868
S'Meg'
p3869
aS'is'
p3870
aS'lead'
p3871
aS'otter'
p3872
aaa(lp3873
g3867
a(lp3874
S'Lisa'
p3875
aS'Takaki'
p3876
aS'was'
p3877
aS'lead'
p3878
aS'lag'
p3879
aaa(lp3880
S'DONX'
p3881
a(lp3882
aa(lp3883
S'LORIMhm'
p3884
a(lp3885
aa(lp3886
S'KIRSTENGreg'
p3887
a(lp3888
S'is'
p3889
aS'lead'
p3890
aS'seal'
p3891
aaa(lp3892
g3887
a(lp3893
S'So'
p3894
aaa(lp3895
g3887
a(lp3896
S'Mark'
p3897
aS'is'
p3898
aS'basically'
p3899
aS'calling'
p3900
aS'the'
p3901
aS'shots'
p3902
aaa(lp3903
g3887
a(lp3904
S'for'
p3905
aS'how'
p3906
aS'the'
p3907
aS'programs'
p3908
aS'gonna'
p3909
aS'be'
p3910
aS'structured'
p3911
aaa(lp3912
g3887
a(lp3913
S'So'
p3914
aS'hes'
p3915
aaa(lp3916
g3887
a(lp3917
S'hes'
p3918
aS'the'
p3919
aS'penguin'
p3920
aS'trivia'
p3921
aS'guy'
p3922
aaa(lp3923
g3887
a(lp3924
S'So'
p3925
aaa(lp3926
g3887
a(lp3927
S'its'
p3928
ag24
aS'neat'
p3929
aS'story'
p3930
aaa(lp3931
S'LORI'
p3932
a(lp3933
S'Mhm'
p3934
aaa(lp3935
S'KIRSTENits'
p3936
a(lp3937
S'its'
p3938
ag24
aS'very'
p3939
aS'neat'
p3940
aS'background'
p3941
aS'story'
p3942
aaa(lp3943
g3936
a(lp3944
S'and'
p3945
aaa(lp3946
g3936
a(lp3947
g133
aS'think'
p3948
aaa(lp3949
g3936
a(lp3950
S'you'
p3951
aS'know'
p3952
aaa(lp3953
g3936
a(lp3954
S'for'
p3955
ag134
aS'for'
p3956
aS'some'
p3957
aS'of'
p3958
aS'us'
p3959
aaa(lp3960
g3936
a(lp3961
S'underwater'
p3962
aS'viewing'
p3963
aS'gallery'
p3964
aS'has'
p3965
aS'not'
p3966
aS'been'
p3967
aS'your'
p3968
aS'favorite'
p3969
aS'place'
p3970
aaa(lp3971
g3936
a(lp3972
S'so'
p3973
aaa(lp3974
g3936
a(lp3975
S'this'
p3976
aS'could'
p3977
aaa(lp3978
g3936
a(lp3979
S'this'
p3980
aS'could'
p3981
aS'bring'
p3982
aS'new'
p3983
aS'light'
p3984
aS'to'
p3985
aS'the'
p3986
aS'underwater'
p3987
aS'viewing'
p3988
aS'gallery'
p3989
aaa(lp3990
S'LORICould'
p3991
a(lp3992
S'be'
p3993
ag24
aS'gift'
p3994
aaa(lp3995
S'KIRSTENand'
p3996
a(lp3997
S'actually'
p3998
aaa(lp3999
g3996
a(lp4000
S'just'
p4001
aS'give'
p4002
ag24
aS'new'
p4003
aS'focus'
p4004
aS'on'
p4005
aS'the'
p4006
aS'penguins'
p4007
aaa(lp4008
g3996
a(lp4009
S'We'
p4010
aS'havent'
p4011
aS'done'
p4012
aS'as'
p4013
aS'much'
p4014
aS'interpretation'
p4015
aS'with'
p4016
aS'the'
p4017
aS'penguins'
p4018
aaa(lp4019
g3996
a(lp4020
S'as'
p4021
aS'we'
p4022
aS'do'
p4023
aS'with'
p4024
aS'the'
p4025
aS'other'
p4026
aS'animals'
p4027
aaa(lp4028
g3996
a(lp4029
S'so'
p4030
aaa(lp4031
g3996
a(lp4032
S'you'
p4033
aS'actually'
p4034
aS'have'
p4035
aS'some'
p4036
aS'kinda'
p4037
aS'neat'
p4038
aS'things'
p4039
aS'to'
p4040
aS'interpret'
p4041
aS'here'
p4042
aaa(lp4043
g3996
a(lp4044
S'As'
p4045
aS'far'
p4046
aS'as'
p4047
aS'whats'
p4048
aS'going'
p4049
aS'on'
p4050
aaa(lp4051
g3996
a(lp4052
S'Some'
p4053
aS'other'
p4054
aS'things'
p4055
aS'that'
p4056
aS'you'
p4057
aS'might'
p4058
aS'see'
p4059
aaa(lp4060
g3996
a(lp4061
S'the'
p4062
aS'penguins'
p4063
aS'segregate'
p4064
aS'themselves'
p4065
aaa(lp4066
g3996
a(lp4067
S'The'
p4068
aS'species'
p4069
aS'dont'
p4070
aS'intermix'
p4071
aaa(lp4072
g3996
a(lp4073
S'Okay'
p4074
aaa(lp4075
g3996
a(lp4076
S'if'
p4077
aS'youve'
p4078
aS'noticed'
p4079
aS'that'
p4080
aS'before'
p4081
aaa(lp4082
S'NICOLEMm'
p4083
a(lp4084
aa(lp4085
S'KIRSTENthe'
p4086
a(lp4087
S'Rockhoppers'
p4088
aS'pretty'
p4089
aS'much'
p4090
aS'station'
p4091
aS'themselves'
p4092
aS'in'
p4093
aS'the'
p4094
aS'center'
p4095
aaa(lp4096
g4086
a(lp4097
S'the'
p4098
aS'Magellanics'
p4099
aS'used'
p4100
aS'to'
p4101
aS'be'
p4102
aS'off'
p4103
aS'to'
p4104
aS'the'
p4105
aS'right'
p4106
aaa(lp4107
S'DON'
p4108
a(lp4109
aa(lp4110
S'KIRSTEN'
p4111
a(lp4112
S'and'
p4113
aS'then'
p4114
aaa(lp4115
g4111
a(lp4116
S'well'
p4117
aS'number'
p4118
aS'ten'
p4119
aaa(lp4120
g4111
a(lp4121
S'could'
p4122
aS'do'
p4123
aS'whatever'
p4124
aS'she'
p4125
aS'wanted'
p4126
aaa(lp4127
S'AMY'
p4128
a(lp4129
aa(lp4130
S'DON'
p4131
a(lp4132
S'The'
p4133
aS'Gentu'
p4134
aaa(lp4135
S'KIRSTEN'
p4136
a(lp4137
S'But'
p4138
aaa(lp4139
S'NICOLEWhats'
p4140
a(lp4141
S'number'
p4142
aS'ten'
p4143
aaa(lp4144
g4140
a(lp4145
g133
aS'k'
p4146
aaa(lp4147
S'KIRSTEN'
p4148
a(lp4149
S'Im'
p4150
aS'sorry'
p4151
aaa(lp4152
S'NICOLEI'
p4153
a(lp4154
g133
ag4146
ag134
aaa(lp4155
S'AMY'
p4156
a(lp4157
aa(lp4158
S'NICOLEI'
p4159
a(lp4160
g4146
ag133
aS'keep'
p4161
aS'going'
p4162
aaa(lp4163
S'KIRSTENNumber'
p4164
a(lp4165
S'ten'
p4166
aaa(lp4167
S'NICOLEwhats'
p4168
a(lp4169
S'number'
p4170
aS'ten'
p4171
aS'here'
p4172
aaa(lp4173
S'AMY'
p4174
a(lp4175
aa(lp4176
S'NICOLE'
p4177
a(lp4178
aa(lp4179
S'KIRSTENKay'
p4180
a(lp4181
aa(lp4182
g4180
a(lp4183
S'the'
p4184
aS'the'
p4185
aS'penguins'
p4186
aS'are'
p4187
aS'numbered'
p4188
aaa(lp4189
S'NICOLE'
p4190
a(lp4191
S'Oh'
p4192
aS'okay'
p4193
aaa(lp4194
S'KIRSTENEach'
p4195
a(lp4196
S'penguin'
p4197
aS'is'
p4198
aS'numbered'
p4199
aaa(lp4200
S'NICOLE'
p4201
a(lp4202
aa(lp4203
S'KIRSTENAnd'
p4204
a(lp4205
S'on'
p4206
aaa(lp4207
g4204
a(lp4208
S'on'
p4209
aS'the'
p4210
aS'arm'
p4211
aaa(lp4212
S'LORIX'
p4213
a(lp4214
S'Wing'
p4215
ag55
aaa(lp4216
S'DON'
p4217
a(lp4218
aa(lp4219
S'KIRSTEN'
p4220
a(lp4221
S'okay'
p4222
aaa(lp4223
g4220
a(lp4224
S'the'
p4225
aS'the'
p4226
aS'joint'
p4227
aS'here'
p4228
aaa(lp4229
g4220
a(lp4230
S'well'
p4231
aaa(lp4232
g4220
a(lp4233
S'what'
p4234
aS'do'
p4235
aS'you'
p4236
aS'call'
p4237
aS'this'
p4238
aaa(lp4239
S'DONThe'
p4240
a(lp4241
S'wing'
p4242
aaa(lp4243
S'X'
p4244
a(lp4245
g333
aS'Humerus'
p4246
ag333
aaa(lp4247
S'DON'
p4248
a(lp4249
S'Hm'
p4250
aaa(lp4251
S'KIRSTEN'
p4252
a(lp4253
S'At'
p4254
aS'the'
p4255
aS'humerus'
p4256
aaa(lp4257
S'DONHu'
p4258
a(lp4259
aa(lp4260
S'KIRSTEN'
p4261
a(lp4262
S'We'
p4263
aS'would'
p4264
aS'have'
p4265
ag24
aS'tag'
p4266
aaa(lp4267
S'LORIMhm'
p4268
a(lp4269
aa(lp4270
S'KIRSTEN'
p4271
a(lp4272
S'and'
p4273
aS'theyre'
p4274
aS'colorcoded'
p4275
aaa(lp4276
g4271
a(lp4277
S'so'
p4278
aaa(lp4279
g4271
a(lp4280
S'if'
p4281
aS'you'
p4282
aS'were'
p4283
aS'like'
p4284
aS'to'
p4285
aS'see'
p4286
aaa(lp4287
g4271
a(lp4288
S'well'
p4289
aS'how'
p4290
aS'does'
p4291
aS'it'
p4292
aS'work'
p4293
aaa(lp4294
g4271
a(lp4295
S'Give'
p4296
aS'me'
p4297
ag24
aS'number'
p4298
aaa(lp4299
S'AMYWell'
p4300
a(lp4301
S'they'
p4302
aS'wear'
p4303
aS'colors'
p4304
aaa(lp4305
g4300
a(lp4306
S'When'
p4307
ag133
aS'was'
p4308
aS'there'
p4309
aaa(lp4310
S'KIRSTEN'
p4311
a(lp4312
S'Okay'
p4313
aaa(lp4314
S'AMYJust'
p4315
a(lp4316
S'seven'
p4317
aaa(lp4318
g4315
a(lp4319
S'Did'
p4320
aS'they'
p4321
aS'move'
p4322
aS'em'
p4323
aS'to'
p4324
aS'numbers'
p4325
aaa(lp4326
S'KIRSTEN'
p4327
a(lp4328
aa(lp4329
S'AMYThey'
p4330
a(lp4331
S'were'
p4332
aS'going'
p4333
aS'to'
p4334
aaa(lp4335
S'KIRSTEN'
p4336
a(lp4337
S'What'
p4338
aS'it'
p4339
aS'is'
p4340
aS'is'
p4341
aS'that'
p4342
aaa(lp4343
g4336
a(lp4344
S'green'
p4345
aaa(lp4346
g4336
a(lp4347
S'lets'
p4348
aS'say'
p4349
aS'for'
p4350
aS'example'
p4351
aaa(lp4352
g4336
a(lp4353
S'green'
p4354
aS'stands'
p4355
aS'for'
p4356
aS'one'
p4357
aaa(lp4358
g4336
a(lp4359
S'black'
p4360
aS'stands'
p4361
aS'for'
p4362
aS'two'
p4363
aaa(lp4364
g4336
a(lp4365
S'Thats'
p4366
aS'number'
p4367
aS'twelve'
p4368
aaa(lp4369
S'AMYIs'
p4370
a(lp4371
S'that'
p4372
aS'how'
p4373
aS'it'
p4374
aS'works'
p4375
aaa(lp4376
S'KIRSTENYeah'
p4377
a(lp4378
aa(lp4379
S'AMY'
p4380
a(lp4381
S'Okay'
p4382
aaa(lp4383
S'KIRSTEN'
p4384
a(lp4385
S'So'
p4386
aaa(lp4387
g4384
a(lp4388
S'they'
p4389
aS'number'
p4390
aS'them'
p4391
aaa(lp4392
g4384
a(lp4393
S'so'
p4394
aS'that'
p4395
aaa(lp4396
g4384
a(lp4397
S'when'
p4398
aS'theyre'
p4399
aS'feeding'
p4400
aS'them'
p4401
aaa(lp4402
g4384
a(lp4403
S'and'
p4404
aS'theyre'
p4405
aS'taking'
p4406
aS'down'
p4407
aS'the'
p4408
aS'records'
p4409
aS'of'
p4410
aaa(lp4411
g4384
a(lp4412
S'okay'
p4413
aS'number'
p4414
aS'twelve'
p4415
aS'ate'
p4416
aS'five'
p4417
aS'Columbia'
p4418
aS'River'
p4419
aS'smelts'
p4420
aaa(lp4421
g4384
a(lp4422
S'and'
p4423
aS'two'
p4424
aaa(lp4425
S'NICOLE'
p4426
a(lp4427
aa(lp4428
S'KIRSTENCapelands'
p4429
a(lp4430
aa(lp4431
S'LORIMhm'
p4432
a(lp4433
aa(lp4434
S'KIRSTEN'
p4435
a(lp4436
S'They'
p4437
aS'can'
p4438
aS'keep'
p4439
ag24
aS'record'
p4440
aS'of'
p4441
aS'what'
p4442
aS'the'
p4443
aS'animal'
p4444
aS'eats'
p4445
aaa(lp4446
g4435
a(lp4447
S'Okay'
p4448
aaa(lp4449
g4435
a(lp4450
S'so'
p4451
aS'they'
p4452
aS'dont'
p4453
aS'have'
p4454
aS'names'
p4455
aaa(lp4456
g4435
a(lp4457
S'but'
p4458
aaa(lp4459
g4435
a(lp4460
S'she'
p4461
aaa(lp4462
g4435
a(lp4463
S'because'
p4464
aS'sh'
p4465
aaa(lp4466
g4435
a(lp4467
S'Because'
p4468
aS'shes'
p4469
aS'the'
p4470
aS'lone'
p4471
aS'feisty'
p4472
aS'penguin'
p4473
aaa(lp4474
g4435
a(lp4475
S'number'
p4476
aS'ten'
p4477
aS'has'
p4478
aS'become'
p4479
aS'kind'
p4480
aS'of'
p4481
aS'famous'
p4482
aaa(lp4483
g4435
a(lp4484
S'in'
p4485
aS'the'
p4486
aS'penguin'
p4487
aS'world'
p4488
aS'downstairs'
p4489
aaa(lp4490
g4435
a(lp4491
S'So'
p4492
aaa(lp4493
g4435
a(lp4494
S'it'
p4495
aS'it'
p4496
aS'its'
p4497
ag24
aS'female'
p4498
aaa(lp4499
S'NICOLE'
p4500
a(lp4501
aa(lp4502
S'KIRSTENth'
p4503
a(lp4504
S'the'
p4505
aS'only'
p4506
aS'female'
p4507
aS'Gentu'
p4508
aS'penguin'
p4509
aaa(lp4510
g4503
a(lp4511
S'that'
p4512
aS'we'
p4513
aS'had'
p4514
aS'prior'
p4515
aS'to'
p4516
aS'the'
p4517
aS'chicks'
p4518
aS'coming'
p4519
aS'in'
p4520
aaa(lp4521
S'NICOLEOkay'
p4522
a(lp4523
aa(lp4524
S'KIRSTEN'
p4525
a(lp4526
S'Okay'
p4527
aaa(lp4528
g4525
a(lp4529
S'so'
p4530
aaa(lp4531
g4525
a(lp4532
S'um'
p4533
aaa(lp4534
g4525
a(lp4535
S'now'
p4536
aS'youll'
p4537
aS'see'
p4538
aS'that'
p4539
aS'theyre'
p4540
aS'segregated'
p4541
aaa(lp4542
g4525
a(lp4543
S'actually'
p4544
aS'the'
p4545
aS'Gentus'
p4546
aS'have'
p4547
aS'kind'
p4548
aS'of'
p4549
aS'broken'
p4550
aS'up'
p4551
aS'into'
p4552
aS'clumps'
p4553
aaa(lp4554
g4525
a(lp4555
S'and'
p4556
aS'theres'
p4557
aaa(lp4558
g4525
a(lp4559
S'From'
p4560
aS'what'
p4561
ag133
aS'saw'
p4562
aS'yesterday'
p4563
aaa(lp4564
g4525
a(lp4565
S'three'
p4566
aS'different'
p4567
aS'clumps'
p4568
aaa(lp4569
g4525
a(lp4570
S'um'
p4571
aaa(lp4572
g4525
a(lp4573
S'lets'
p4574
aS'see'
p4575
aaa(lp4576
g4525
a(lp4577
S'Lets'
p4578
aaa(lp4579
g4525
a(lp4580
S'G'
p4581
aaa(lp4582
g4525
a(lp4583
S'Lets'
p4584
aS'interpret'
p4585
aS'some'
p4586
aS'of'
p4587
aS'the'
p4588
aS'behaviors'
p4589
aS'we'
p4590
aS'might'
p4591
aS'see'
p4592
aaa(lp4593
g4525
a(lp4594
S'Okay'
p4595
aaa(lp4596
g4525
a(lp4597
S'what'
p4598
aS'is'
p4599
aaa(lp4600
g4525
a(lp4601
S'what'
p4602
aS'is'
p4603
ag24
aS'penguin'
p4604
aS'standing'
p4605
aS'out'
p4606
aS'with'
p4607
aS'its'
p4608
aS'arms'
p4609
aS'like'
p4610
aS'this'
p4611
aaa(lp4612
g4525
a(lp4613
g133
aS'shouldnt'
p4614
aS'say'
p4615
aS'arms'
p4616
aaa(lp4617
g4525
a(lp4618
S'Its'
p4619
aaa(lp4620
S'NICOLE'
p4621
a(lp4622
aa(lp4623
S'LORIWings'
p4624
a(lp4625
aa(lp4626
S'AMY'
p4627
a(lp4628
aa(lp4629
S'DONWings'
p4630
a(lp4631
aa(lp4632
S'KIRSTEN'
p4633
a(lp4634
S'Its'
p4635
aS'wings'
p4636
aaa(lp4637
S'NICOLEWings'
p4638
a(lp4639
aa(lp4640
S'AMY'
p4641
a(lp4642
aa(lp4643
S'KIRSTEN'
p4644
a(lp4645
aa(lp4646
S'LORI'
p4647
a(lp4648
aa(lp4649
S'KIRSTENRight'
p4650
a(lp4651
aa(lp4652
S'LORIUm'
p4653
a(lp4654
aa(lp4655
S'DONPerspiring'
p4656
a(lp4657
aa(lp4658
S'LORI'
p4659
a(lp4660
S'actually'
p4661
aS'cooling'
p4662
aS'off'
p4663
aaa(lp4664
S'DONCooling'
p4665
a(lp4666
S'off'
p4667
aaa(lp4668
S'LORIisnt'
p4669
a(lp4670
S'it'
p4671
aaa(lp4672
S'KIRSTEN'
p4673
a(lp4674
S'Yeah'
p4675
aaa(lp4676
g4673
a(lp4677
S'Yeah'
p4678
aaa(lp4679
S'LORIMhm'
p4680
a(lp4681
aa(lp4682
S'KIRSTEN'
p4683
a(lp4684
S'So'
p4685
aS'right'
p4686
aS'here'
p4687
aaa(lp4688
g4683
a(lp4689
S'is'
p4690
aS'where'
p4691
aS'you'
p4692
aS'dont'
p4693
aaa(lp4694
g4683
a(lp4695
S'where'
p4696
aS'the'
p4697
aS'penguins'
p4698
aS'dont'
p4699
aS'have'
p4700
ag24
ag24
aS'dense'
p4701
aS'covering'
p4702
aS'of'
p4703
aS'feathers'
p4704
aaa(lp4705
g4683
a(lp4706
S'So'
p4707
aS'if'
p4708
aS'they'
p4709
aS'wanna'
p4710
aS'cool'
p4711
aS'off'
p4712
aaa(lp4713
g4683
a(lp4714
S'they'
p4715
aS'tend'
p4716
aS'to'
p4717
aS'do'
p4718
aS'this'
p4719
aaa(lp4720
g4683
a(lp4721
S'Okay'
p4722
aS'if'
p4723
ag133
aS'was'
p4724
aS'to'
p4725
aS'see'
p4726
ag24
aS'penguin'
p4727
aS'doing'
p4728
aS'this'
p4729
aaa(lp4730
g4683
a(lp4731
S'lifting'
p4732
aS'one'
p4733
aS'leg'
p4734
aS'up'
p4735
aaa(lp4736
S'LORI'
p4737
a(lp4738
S'Its'
p4739
aS'resting'
p4740
aaa(lp4741
g4737
a(lp4742
S'Isnt'
p4743
aS'it'
p4744
aaa(lp4745
S'KIRSTEN'
p4746
a(lp4747
S'What'
p4748
aS'else'
p4749
aS'could'
p4750
aS'it'
p4751
aS'be'
p4752
aaa(lp4753
S'AMY'
p4754
a(lp4755
S'Sleeping'
p4756
aaa(lp4757
g4754
a(lp4758
g333
aS'No'
p4759
ag333
aaa(lp4760
S'NICOLE'
p4761
a(lp4762
S'Balance'
p4763
aaa(lp4764
g4761
a(lp4765
g133
aS'guess'
p4766
aaa(lp4767
S'KIRSTENIts'
p4768
a(lp4769
S'balancing'
p4770
aaa(lp4771
S'AMY'
p4772
a(lp4773
aa(lp4774
S'KIRSTENits'
p4775
a(lp4776
S'doing'
p4777
aS'thinking'
p4778
aS'tricks'
p4779
aaa(lp4780
S'NICOLE'
p4781
a(lp4782
aa(lp4783
S'DON'
p4784
a(lp4785
aa(lp4786
S'AMY'
p4787
a(lp4788
aa(lp4789
S'KIRSTENUm'
p4790
a(lp4791
aa(lp4792
S'NICOLE'
p4793
a(lp4794
aa(lp4795
S'KIRSTENactually'
p4796
a(lp4797
aa(lp4798
g4796
a(lp4799
S'it'
p4800
aS'would'
p4801
aS'be'
p4802
aS'conserving'
p4803
aS'heat'
p4804
aaa(lp4805
g4796
a(lp4806
S'Okay'
p4807
aaa(lp4808
S'NICOLEOh'
p4809
a(lp4810
aa(lp4811
S'DONHm'
p4812
a(lp4813
aa(lp4814
S'KIRSTENSo'
p4815
a(lp4816
aa(lp4817
g4815
a(lp4818
S'the'
p4819
aS'wings'
p4820
aaa(lp4821
g4815
a(lp4822
S'and'
p4823
aS'the'
p4824
ag3207
aS'legs'
p4825
aaa(lp4826
g4815
a(lp4827
S'feet'
p4828
aaa(lp4829
S'LORI'
p4830
a(lp4831
S'Mhm'
p4832
aaa(lp4833
S'KIRSTEN'
p4834
a(lp4835
S'theres'
p4836
aS'no'
p4837
aS'dense'
p4838
aS'feather'
p4839
aS'coverage'
p4840
aS'on'
p4841
aS'the'
p4842
aaa(lp4843
g4834
a(lp4844
S'on'
p4845
aS'the'
p4846
aS'legs'
p4847
aaa(lp4848
g4834
a(lp4849
S'so'
p4850
aS'they'
p4851
aS'might'
p4852
aS'be'
p4853
aS'conserving'
p4854
aS'heat'
p4855
aaa(lp4856
g4834
a(lp4857
S'Okay'
p4858
aaa(lp4859
g4834
a(lp4860
S'um'
p4861
aaa(lp4862
g4834
a(lp4863
S'if'
p4864
aaa(lp4865
g4834
a(lp4866
g133
aS'saw'
p4867
ag24
aS'penguin'
p4868
aaa(lp4869
g4834
a(lp4870
S'sneezing'
p4871
aaa(lp4872
S'NICOLE'
p4873
a(lp4874
aa(lp4875
S'KIRSTENWhat'
p4876
a(lp4877
S'might'
p4878
aS'be'
p4879
aS'happening'
p4880
aS'there'
p4881
aaa(lp4882
S'NICOLE'
p4883
a(lp4884
S'Allergic'
p4885
aaa(lp4886
g4883
a(lp4887
S'To'
p4888
aS'food'
p4889
aaa(lp4890
S'KIRSTEN'
p4891
a(lp4892
aa(lp4893
S'AMYSick'
p4894
a(lp4895
aa(lp4896
S'DON'
p4897
a(lp4898
S'Ive'
p4899
aS'never'
p4900
aS'heard'
p4901
ag24
aS'penguin'
p4902
aS'sneezing'
p4903
aS'but'
p4904
aaa(lp4905
S'AMY'
p4906
a(lp4907
aa(lp4908
S'NICOLE'
p4909
a(lp4910
aa(lp4911
S'AMY'
p4912
a(lp4913
aa(lp4914
S'NICOLE'
p4915
a(lp4916
S'Cold'
p4917
aaa(lp4918
S'DON'
p4919
a(lp4920
aa(lp4921
S'KIRSTENOkay'
p4922
a(lp4923
aa(lp4924
S'DON'
p4925
a(lp4926
aa(lp4927
S'LORIIt'
p4928
a(lp4929
S'actually'
p4930
aS'kind'
p4931
aS'of'
p4932
aS'sneezes'
p4933
aaa(lp4934
S'NICOLEI'
p4935
a(lp4936
S'know'
p4937
aaa(lp4938
g4935
a(lp4939
S'could'
p4940
aS'you'
p4941
aS'hear'
p4942
aS'it'
p4943
aaa(lp4944
S'AMY'
p4945
a(lp4946
aa(lp4947
S'NICOLE'
p4948
a(lp4949
S'How'
p4950
aS'can'
p4951
aS'you'
p4952
aS'tell'
p4953
aS'from'
p4954
aS'it'
p4955
aaa(lp4956
g4948
a(lp4957
S'like'
p4958
aS'shaking'
p4959
aS'his'
p4960
aS'head'
p4961
aaa(lp4962
S'KIRSTENYoull'
p4963
a(lp4964
aa(lp4965
S'NICOLEor'
p4966
a(lp4967
S'sneezing'
p4968
aaa(lp4969
S'KIRSTENyoull'
p4970
a(lp4971
S'see'
p4972
aS'him'
p4973
aaa(lp4974
g4970
a(lp4975
S'Youll'
p4976
aS'see'
p4977
aS'him'
p4978
aaa(lp4979
g4970
a(lp4980
S'just'
p4981
aS'like'
p4982
ag55
aS'what'
p4983
ag55
ag24
aS'person'
p4984
aS'sneezing'
p4985
aaa(lp4986
S'NICOLEOh'
p4987
a(lp4988
aa(lp4989
g4987
a(lp4990
S'okay'
p4991
aaa(lp4992
S'KIRSTENyou'
p4993
a(lp4994
S'can'
p4995
aS'tell'
p4996
aaa(lp4997
S'DONMhm'
p4998
a(lp4999
aa(lp5000
S'KIRSTEN'
p5001
a(lp5002
S'When'
p5003
aS'they'
p5004
aS'jerk'
p5005
aS'their'
p5006
aS'head'
p5007
aS'like'
p5008
aS'that'
p5009
aaa(lp5010
g5001
a(lp5011
S'How'
p5012
aS'was'
p5013
aaa(lp5014
g5001
a(lp5015
S'how'
p5016
aS'does'
p5017
ag24
aS'penguin'
p5018
aS'get'
p5019
aS'its'
p5020
aS'fresh'
p5021
aS'water'
p5022
aaa(lp5023
g5001
a(lp5024
S'How'
p5025
aS'does'
p5026
ag24
aS'penguin'
p5027
aS'drink'
p5028
aaa(lp5029
S'NICOLE'
p5030
a(lp5031
S'Oh'
p5032
aaa(lp5033
S'LORI'
p5034
a(lp5035
g133
aS'havent'
p5036
aS'studied'
p5037
aS'penguins'
p5038
aS'in'
p5039
ag24
aS'while'
p5040
aaa(lp5041
g5034
a(lp5042
S'Don'
p5043
aaa(lp5044
g5034
a(lp5045
S'do'
p5046
aS'you'
p5047
aS'know'
p5048
aaa(lp5049
S'DON'
p5050
a(lp5051
S'No'
p5052
aaa(lp5053
S'LORI'
p5054
a(lp5055
S'Hmmm'
p5056
aaa(lp5057
S'DONFrom'
p5058
a(lp5059
aa(lp5060
g5058
a(lp5061
g133
aS'thought'
p5062
ag24
aS'way'
p5063
aS'w'
p5064
aaa(lp5065
g5058
a(lp5066
S'Drank'
p5067
aS'from'
p5068
aS'pools'
p5069
aaa(lp5070
g5058
a(lp5071
S'Just'
p5072
aaa(lp5073
S'KIRSTEN'
p5074
a(lp5075
S'Theyll'
p5076
aS'drink'
p5077
aS'salt'
p5078
aS'water'
p5079
aaa(lp5080
S'DONSalt'
p5081
a(lp5082
S'water'
p5083
aaa(lp5084
S'KIRSTENall'
p5085
a(lp5086
S'also'
p5087
aaa(lp5088
g5085
a(lp5089
S'you'
p5090
aS'know'
p5091
aaa(lp5092
g5085
a(lp5093
S'like'
p5094
aS'the'
p5095
aS'dolphins'
p5096
aaa(lp5097
g5085
a(lp5098
S'they'
p5099
aS'actually'
p5100
aS'metabolize'
p5101
aS'the'
p5102
aS'water'
p5103
aaa(lp5104
g5085
a(lp5105
S'thats'
p5106
aS'stored'
p5107
aS'in'
p5108
aS'in'
p5109
aS'the'
p5110
aS'fat'
p5111
aS'of'
p5112
aS'the'
p5113
aS'fish'
p5114
aS'that'
p5115
aS'they'
p5116
aS'eat'
p5117
aaa(lp5118
g5085
a(lp5119
S'And'
p5120
aS'thats'
p5121
aS'how'
p5122
aS'they'
p5123
aS'get'
p5124
aS'their'
p5125
aS'water'
p5126
aS'source'
p5127
aaa(lp5128
S'LORIMhm'
p5129
a(lp5130
aa(lp5131
S'KIRSTENBut'
p5132
a(lp5133
S'basically'
p5134
aaa(lp5135
g5132
a(lp5136
S'youve'
p5137
aS'gotta'
p5138
aS'separate'
p5139
aaa(lp5140
g5132
a(lp5141
S'the'
p5142
aS'fresh'
p5143
aS'water'
p5144
aS'from'
p5145
aS'the'
p5146
aS'salt'
p5147
aS'water'
p5148
aaa(lp5149
g5132
a(lp5150
S'actually'
p5151
aS'just'
p5152
aS'have'
p5153
aS'to'
p5154
aS'separate'
p5155
aS'out'
p5156
aS'that'
p5157
aS'salt'
p5158
aaa(lp5159
g5132
a(lp5160
S'So'
p5161
aS'they'
p5162
aS'have'
p5163
ag24
aS'special'
p5164
ag134
aaa(lp5165
S'NICOLEThey'
p5166
a(lp5167
S'have'
p5168
aS'to'
p5169
aS'do'
p5170
aS'that'
p5171
aaa(lp5172
S'LORISo'
p5173
a(lp5174
S'thats'
p5175
aS'how'
p5176
aS'theyre'
p5177
aS'do'
p5178
aaa(lp5179
S'NICOLEOh'
p5180
a(lp5181
aa(lp5182
S'LORIThats'
p5183
a(lp5184
S'what'
p5185
aS'theyre'
p5186
aS'doing'
p5187
aS'when'
p5188
aS'they'
p5189
aS'sneeze'
p5190
aaa(lp5191
g5183
a(lp5192
S'is'
p5193
aS'theyre'
p5194
aS'getting'
p5195
aS'rid'
p5196
aS'of'
p5197
aS'the'
p5198
aS'salt'
p5199
aaa(lp5200
S'KIRSTENSalt'
p5201
a(lp5202
aa(lp5203
S'NICOLEOh'
p5204
a(lp5205
aa(lp5206
S'KIRSTENThat'
p5207
a(lp5208
S'they'
p5209
aS'have'
p5210
aS'accumulated'
p5211
aaa(lp5212
g5207
a(lp5213
S'They'
p5214
aS'have'
p5215
ag24
aS'salt'
p5216
aS'gland'
p5217
aaa(lp5218
g5207
a(lp5219
S'In'
p5220
aS'the'
p5221
aS'beak'
p5222
aaa(lp5223
g5207
a(lp5224
S'And'
p5225
aS'that'
p5226
aS'is'
p5227
aS'what'
p5228
aS'separates'
p5229
aS'the'
p5230
aS'salt'
p5231
aS'out'
p5232
aaa(lp5233
S'DONDid'
p5234
a(lp5235
S'you'
p5236
aS'know'
p5237
aS'that'
p5238
aS'before'
p5239
aaa(lp5240
S'KIRSTEN'
p5241
a(lp5242
S'And'
p5243
aS'to'
p5244
aS'get'
p5245
aS'rid'
p5246
aS'of'
p5247
aS'that'
p5248
aS'salt'
p5249
aS'they'
p5250
aaa(lp5251
S'LORIHmmm'
p5252
a(lp5253
aa(lp5254
S'DONMe'
p5255
a(lp5256
S'neither'
p5257
aaa(lp5258
S'KIRSTEN'
p5259
a(lp5260
aa(lp5261
g5259
a(lp5262
S'they'
p5263
aS'sneeze'
p5264
aaa(lp5265
S'LORI'
p5266
a(lp5267
S'Yeah'
p5268
aS'actually'
p5269
aaa(lp5270
S'NICOLEOh'
p5271
a(lp5272
aa(lp5273
g5271
a(lp5274
g133
aS'never'
p5275
aS'even'
p5276
aS'thought'
p5277
aS'of'
p5278
aS'that'
p5279
aaa(lp5280
S'LORII'
p5281
a(lp5282
S'remember'
p5283
aS'doing'
p5284
aS'the'
p5285
aS'penguin'
p5286
aS'thing'
p5287
ag24
aS'year'
p5288
aS'ago'
p5289
aaa(lp5290
g5281
a(lp5291
S'but'
p5292
ag133
aS'dont'
p5293
aS'remember'
p5294
aS'that'
p5295
aS'adaptation'
p5296
aaa(lp5297
S'DONNo'
p5298
a(lp5299
aa(lp5300
S'LORI'
p5301
a(lp5302
S'Oh'
p5303
aS'well'
p5304
aaa(lp5305
S'KIRSTEN'
p5306
a(lp5307
S'Um'
p5308
aaa(lp5309
g5306
a(lp5310
S'were'
p5311
aS'gonna'
p5312
aS'have'
p5313
aS'to'
p5314
aS'go'
p5315
aS'up'
p5316
aS'and'
p5317
aS'do'
p5318
ag1603
aS'and'
p5319
ag1557
aaa(lp5320
g5306
a(lp5321
S'in'
p5322
aS'three'
p5323
aS'minutes'
p5324
aaa(lp5325
g5306
a(lp5326
S'Just'
p5327
aS'looking'
p5328
aS'at'
p5329
aS'the'
p5330
aS'clock'
p5331
aaa(lp5332
S'LORIWhos'
p5333
a(lp5334
S'do'
p5335
aaa(lp5336
S'KIRSTENIm'
p5337
a(lp5338
S'facing'
p5339
aS'the'
p5340
aS'clock'
p5341
aaa(lp5342
S'LORIWhos'
p5343
a(lp5344
S'the'
p5345
aS'diver'
p5346
aaa(lp5347
S'KIRSTEN'
p5348
a(lp5349
g133
aS'dont'
p5350
aaa(lp5351
g5348
a(lp5352
S'Oh'
p5353
aaa(lp5354
g5348
a(lp5355
S'probably'
p5356
aS'Bernie'
p5357
aaa(lp5358
g5348
a(lp5359
S'Um'
p5360
aaa(lp5361
S'NICOLEDo'
p5362
a(lp5363
S'they'
p5364
aS'have'
p5365
aS'different'
p5366
aS'divers'
p5367
aaa(lp5368
g5362
a(lp5369
S'every'
p5370
aaa(lp5371
S'LORIMhm'
p5372
a(lp5373
aa(lp5374
S'NICOLEtime'
p5375
a(lp5376
aa(lp5377
S'KIRSTENYeah'
p5378
a(lp5379
aa(lp5380
g5378
a(lp5381
S'every'
p5382
aS'day'
p5383
aaa(lp5384
g5378
a(lp5385
g333
aS'Every'
p5386
aS'day'
p5387
ag333
aaa(lp5388
S'NICOLEOh'
p5389
a(lp5390
aa(lp5391
S'KIRSTENSo'
p5392
a(lp5393
S'that'
p5394
aS'would'
p5395
aS'be'
p5396
aS'excreting'
p5397
aS'salt'
p5398
aaa(lp5399
g5392
a(lp5400
S'Um'
p5401
aaa(lp5402
g5392
a(lp5403
S'when'
p5404
ag133
aS'see'
p5405
ag24
aS'penguin'
p5406
aS'picking'
p5407
aS'its'
p5408
aS'butt'
p5409
aaa(lp5410
g5392
a(lp5411
S'What'
p5412
aS'is'
p5413
aS'it'
p5414
aS'doing'
p5415
aaa(lp5416
S'NICOLE'
p5417
a(lp5418
aa(lp5419
S'AMY'
p5420
a(lp5421
aa(lp5422
S'LORI'
p5423
a(lp5424
aa(lp5425
g5423
a(lp5426
S'Kinda'
p5427
aS'like'
p5428
aaa(lp5429
g5423
a(lp5430
S'picking'
p5431
aS'at'
p5432
aS'its'
p5433
aS'feathers'
p5434
aaa(lp5435
S'DONPreening'
p5436
a(lp5437
aa(lp5438
g5436
a(lp5439
S'Preening'
p5440
aaa(lp5441
S'KIRSTEN'
p5442
a(lp5443
S'Okay'
p5444
aaa(lp5445
S'LORIPreening'
p5446
a(lp5447
aa(lp5448
S'KIRSTENIts'
p5449
a(lp5450
S'preening'
p5451
aaa(lp5452
g5449
a(lp5453
S'what'
p5454
aS'is'
p5455
aS'it'
p5456
aS'doing'
p5457
aaa(lp5458
g5449
a(lp5459
S'Whats'
p5460
aS'at'
p5461
aS'the'
p5462
aS'base'
p5463
aS'of'
p5464
aS'the'
p5465
aS'tail'
p5466
aaa(lp5467
S'DON'
p5468
a(lp5469
aa(lp5470
S'KIRSTENThis'
p5471
a(lp5472
S'is'
p5473
aS'fun'
p5474
aS'you'
p5475
aS'guys'
p5476
aaa(lp5477
S'DON'
p5478
a(lp5479
S'Yeah'
p5480
aaa(lp5481
g5478
a(lp5482
S'right'
p5483
aaa(lp5484
S'AMY'
p5485
a(lp5486
aa(lp5487
S'LORIIts'
p5488
a(lp5489
S'at'
p5490
aS'the'
p5491
aaa(lp5492
S'NICOLEIt'
p5493
a(lp5494
S'is'
p5495
aS'fun'
p5496
aaa(lp5497
S'KIRSTEN'
p5498
a(lp5499
aa(lp5500
S'DON'
p5501
a(lp5502
aa(lp5503
S'LORI'
p5504
a(lp5505
aa(lp5506
S'KIRSTEN'
p5507
a(lp5508
S'SM'
p5509
aS'Whats'
p5510
aS'at'
p5511
aS'the'
p5512
aS'base'
p5513
aS'of'
p5514
aS'the'
p5515
aS'tail'
p5516
aS'SM'
p5517
aaa(lp5518
S'NICOLEI'
p5519
a(lp5520
g55
aS'wouldntve'
p5521
ag55
aS'even'
p5522
aS'thought'
p5523
aS'of'
p5524
aS'these'
p5525
aS'things'
p5526
aaa(lp5527
S'DON'
p5528
a(lp5529
S'Well'
p5530
aS'the'
p5531
aS'anus'
p5532
aS'is'
p5533
aS'at'
p5534
aS'the'
p5535
aS'end'
p5536
aS'of'
p5537
aS'the'
p5538
aS'tail'
p5539
aaa(lp5540
S'NICOLEits'
p5541
a(lp5542
S'like'
p5543
aaa(lp5544
g5541
a(lp5545
S'oh'
p5546
aaa(lp5547
g5541
a(lp5548
S'didnt'
p5549
aS'know'
p5550
aS'they'
p5551
aS'had'
p5552
aS'meaning'
p5553
aaa(lp5554
S'KIRSTENPardon'
p5555
a(lp5556
S'me'
p5557
aaa(lp5558
S'DONRight'
p5559
a(lp5560
aa(lp5561
g5559
a(lp5562
S'The'
p5563
aS'anus'
p5564
aS'is'
p5565
aS'at'
p5566
aS'the'
p5567
aS'end'
p5568
aS'of'
p5569
aS'the'
p5570
aS'tail'
p5571
aaa(lp5572
S'KIRSTENThat'
p5573
a(lp5574
S'is'
p5575
aaa(lp5576
g5573
a(lp5577
S'that'
p5578
aS'is'
p5579
aS'very'
p5580
aS'true'
p5581
aaa(lp5582
S'DONRight'
p5583
a(lp5584
aa(lp5585
S'KIRSTENbut'
p5586
a(lp5587
aa(lp5588
S'DONBut'
p5589
a(lp5590
aa(lp5591
S'KIRSTENlets'
p5592
a(lp5593
S'say'
p5594
aS'near'
p5595
aS'the'
p5596
aS'anus'
p5597
aaa(lp5598
g5592
a(lp5599
S'What'
p5600
aS'might'
p5601
aS'be'
p5602
aS'there'
p5603
aaa(lp5604
S'DONWhy'
p5605
a(lp5606
S'dont'
p5607
aS'you'
p5608
aS'answer'
p5609
aS'this'
p5610
aS'question'
p5611
aaa(lp5612
S'LORII'
p5613
a(lp5614
S'got'
p5615
aS'preening'
p5616
aaa(lp5617
S'DON'
p5618
a(lp5619
aa(lp5620
S'LORI'
p5621
a(lp5622
aa(lp5623
S'NICOLE'
p5624
a(lp5625
S'Ah'
p5626
aaa(lp5627
S'KIRSTENIts'
p5628
a(lp5629
S'okay'
p5630
aaa(lp5631
S'LORI'
p5632
a(lp5633
S'Its'
p5634
aaa(lp5635
S'KIRSTENIts'
p5636
a(lp5637
S'the'
p5638
aS'preening'
p5639
aS'gland'
p5640
aaa(lp5641
S'DON'
p5642
a(lp5643
S'Yeah'
p5644
aaa(lp5645
S'LORI'
p5646
a(lp5647
S'Oh'
p5648
aaa(lp5649
g5646
a(lp5650
S'okay'
p5651
aaa(lp5652
S'KIRSTENOkay'
p5653
a(lp5654
aa(lp5655
g5653
a(lp5656
S'so'
p5657
aS'its'
p5658
ag24
aS'gland'
p5659
aaa(lp5660
g5653
a(lp5661
S'that'
p5662
aS'stores'
p5663
aS'oil'
p5664
aaa(lp5665
g5653
a(lp5666
S'so'
p5667
aS'what'
p5668
ag24
aS'penguin'
p5669
aS'will'
p5670
aS'do'
p5671
aaa(lp5672
g5653
a(lp5673
S'is'
p5674
aS'itll'
p5675
aS'go'
p5676
aS'back'
p5677
aaa(lp5678
g5653
a(lp5679
S'itll'
p5680
aS'squeeze'
p5681
aS'the'
p5682
aS'gland'
p5683
aaa(lp5684
S'DON'
p5685
a(lp5686
aa(lp5687
S'KIRSTEN'
p5688
a(lp5689
S'itll'
p5690
aS'get'
p5691
aS'some'
p5692
aS'oil'
p5693
aS'on'
p5694
aS'its'
p5695
aS'beak'
p5696
aaa(lp5697
g5688
a(lp5698
S'and'
p5699
aS'then'
p5700
aaa(lp5701
g5688
a(lp5702
S'its'
p5703
aS'rubbing'
p5704
aS'that'
p5705
aS'waterproofing'
p5706
aaa(lp5707
S'LORI'
p5708
a(lp5709
S'So'
p5710
aS'it'
p5711
aS'can'
p5712
aS'keep'
p5713
aS'itself'
p5714
aS'waterproof'
p5715
aaa(lp5716
g5708
a(lp5717
S'right'
p5718
aaa(lp5719
S'DONMm'
p5720
a(lp5721
aa(lp5722
S'KIRSTENwaterproofing'
p5723
a(lp5724
aa(lp5725
S'LORIMhm'
p5726
a(lp5727
aa(lp5728
S'NICOLEOh'
p5729
a(lp5730
aa(lp5731
S'KIRSTEN'
p5732
a(lp5733
S'all'
p5734
aS'over'
p5735
aS'its'
p5736
aS'feathers'
p5737
aaa(lp5738
S'AMYHm'
p5739
a(lp5740
aa(lp5741
S'LORIMhm'
p5742
a(lp5743
aa(lp5744
S'KIRSTEN'
p5745
a(lp5746
S'Preening'
p5747
aaa(lp5748
g5745
a(lp5749
S'also'
p5750
aS'consists'
p5751
aS'of'
p5752
aaa(lp5753
g5745
a(lp5754
S'working'
p5755
aS'an'
p5756
aS'air'
p5757
aS'layer'
p5758
aaa(lp5759
g5745
a(lp5760
S'at'
p5761
aS'the'
p5762
aS'base'
p5763
aS'of'
p5764
aS'the'
p5765
aS'feathers'
p5766
aaa(lp5767
g5745
a(lp5768
S'because'
p5769
aS'air'
p5770
aS'is'
p5771
ag24
aS'better'
p5772
aS'insulator'
p5773
aS'than'
p5774
aS'water'
p5775
aaa(lp5776
g5745
a(lp5777
S'If'
p5778
aS'there'
p5779
aS'was'
p5780
aS'water'
p5781
aS'touching'
p5782
aS'the'
p5783
aS'skin'
p5784
aaa(lp5785
S'LORIHm'
p5786
a(lp5787
aa(lp5788
S'KIRSTEN'
p5789
a(lp5790
S'water'
p5791
aS'is'
p5792
aS'like'
p5793
ag24
aS'vacuum'
p5794
aS'cleaner'
p5795
aaa(lp5796
g5789
a(lp5797
S'It'
p5798
aS'is'
p5799
aS'just'
p5800
aS'gonna'
p5801
aS'suck'
p5802
aS'the'
p5803
aS'heat'
p5804
aS'away'
p5805
aaa(lp5806
S'LORIMhm'
p5807
a(lp5808
aa(lp5809
S'KIRSTENso'
p5810
a(lp5811
S'by'
p5812
aS'having'
p5813
aS'the'
p5814
aS'air'
p5815
aS'there'
p5816
aaa(lp5817
g5810
a(lp5818
S'its'
p5819
ag24
aS'better'
p5820
aS'insulator'
p5821
aaa(lp5822
g5810
a(lp5823
S'So'
p5824
aS'when'
p5825
ag133
aS'see'
p5826
ag24
aS'penguin'
p5827
aS'dive'
p5828
aS'into'
p5829
aS'the'
p5830
aS'water'
p5831
aaa(lp5832
g5810
a(lp5833
S'and'
p5834
ag133
aS'see'
p5835
aS'all'
p5836
aS'of'
p5837
aS'these'
p5838
aS'little'
p5839
aS'air'
p5840
aS'bubbles'
p5841
aS'coming'
p5842
aS'out'
p5843
aaa(lp5844
g5810
a(lp5845
S'what'
p5846
aS'am'
p5847
ag133
aS'seeing'
p5848
aaa(lp5849
S'LORI'
p5850
a(lp5851
S'The'
p5852
aS'air'
p5853
aS'is'
p5854
aS'r'
p5855
aaa(lp5856
g5850
a(lp5857
S'Is'
p5858
aaa(lp5859
S'DON'
p5860
a(lp5861
S'Escaping'
p5862
aS'from'
p5863
aS'the'
p5864
aS'feathers'
p5865
aaa(lp5866
S'LORIescaping'
p5867
a(lp5868
aa(lp5869
g5867
a(lp5870
S'Right'
p5871
aaa(lp5872
S'KIRSTENIs'
p5873
a(lp5874
S'compressed'
p5875
aS'out'
p5876
aaa(lp5877
S'LORIFrom'
p5878
a(lp5879
S'the'
p5880
aaa(lp5881
S'KIRSTEN'
p5882
a(lp5883
aa(lp5884
g5882
a(lp5885
S'so'
p5886
aS'the'
p5887
aS'penguin'
p5888
aS'comes'
p5889
aS'up'
p5890
aS'on'
p5891
aS'land'
p5892
aaa(lp5893
g5882
a(lp5894
S'and'
p5895
aS'lets'
p5896
aS'start'
p5897
aS'again'
p5898
aaa(lp5899
S'LORIMhm'
p5900
a(lp5901
aa(lp5902
S'KIRSTEN'
p5903
a(lp5904
S'And'
p5905
aS'will'
p5906
aS'start'
p5907
aS'preening'
p5908
aaa(lp5909
g5903
a(lp5910
S'working'
p5911
aS'that'
p5912
aS'air'
p5913
aS'layer'
p5914
aS'in'
p5915
aaa(lp5916
g5903
a(lp5917
S'getting'
p5918
aS'some'
p5919
aS'oil'
p5920
aaa(lp5921
S'LORI'
p5922
a(lp5923
aa(lp5924
S'KIRSTEN'
p5925
a(lp5926
S'spreading'
p5927
aS'it'
p5928
aS'out'
p5929
aaa(lp5930
S'LORI'
p5931
a(lp5932
S'How'
p5933
aS'often'
p5934
aS'do'
p5935
aS'the'
p5936
aaa(lp5937
S'DONMm'
p5938
a(lp5939
aa(lp5940
S'LORIHow'
p5941
a(lp5942
S'd'
p5943
aS'often'
p5944
aS'does'
p5945
aS'the'
p5946
aS'bird'
p5947
aS'molt'
p5948
aaa(lp5949
S'KIRSTEN'
p5950
a(lp5951
aa(lp5952
S'LORIOnce'
p5953
a(lp5954
g24
aS'year'
p5955
aaa(lp5956
S'KIRSTENOnce'
p5957
a(lp5958
g24
aS'year'
p5959
aaa(lp5960
S'LORIOkay'
p5961
a(lp5962
aa(lp5963
S'KIRSTEN'
p5964
a(lp5965
S'Some'
p5966
aS'speciesll'
p5967
aS'molt'
p5968
aS'twice'
p5969
aaa(lp5970
S'LORI'
p5971
a(lp5972
S'Twice'
p5973
aaa(lp5974
S'KIRSTEN'
p5975
a(lp5976
S'But'
p5977
aS'basically'
p5978
aaa(lp5979
g5975
a(lp5980
S'if'
p5981
aS'you'
p5982
aS'think'
p5983
aS'about'
p5984
aS'it'
p5985
aaa(lp5986
g5975
a(lp5987
S'you'
p5988
aS'know'
p5989
aaa(lp5990
g5975
a(lp5991
g24
aS'year'
p5992
aaa(lp5993
g5975
a(lp5994
S'of'
p5995
aS'picking'
p5996
aS'at'
p5997
aS'the'
p5998
aS'feathers'
p5999
aaa(lp6000
g5975
a(lp6001
S'the'
p6002
aS'feathers'
p6003
aS'are'
p6004
aS'gonna'
p6005
aS'wear'
p6006
aS'out'
p6007
aaa(lp6008
S'LORIMhm'
p6009
a(lp6010
aa(lp6011
S'KIRSTEN'
p6012
a(lp6013
S'So'
p6014
aS'the'
p6015
aS'last'
p6016
aS'thing'
p6017
aS'that'
p6018
ag24
aS'penguin'
p6019
aS'does'
p6020
aaa(lp6021
g6012
a(lp6022
S'before'
p6023
aS'it'
p6024
aS'goes'
p6025
aS'out'
p6026
aS'to'
p6027
aS'sea'
p6028
aaa(lp6029
g6012
a(lp6030
S'is'
p6031
aaa(lp6032
S'LORIShed'
p6033
a(lp6034
S'its'
p6035
aaa(lp6036
g6033
a(lp6037
S'yeah'
p6038
aaa(lp6039
S'NICOLEOkay'
p6040
a(lp6041
aa(lp6042
S'KIRSTENIt'
p6043
a(lp6044
S'does'
p6045
ag24
aS'clean'
p6046
aS'sweep'
p6047
aaa(lp6048
S'LORI'
p6049
a(lp6050
S'Mhm'
p6051
aaa(lp6052
S'KIRSTENAnd'
p6053
a(lp6054
aa(lp6055
g6053
a(lp6056
S'molts'
p6057
aS'all'
p6058
aS'of'
p6059
aS'its'
p6060
aS'feathers'
p6061
aS'off'
p6062
aaa(lp6063
g6053
a(lp6064
S'And'
p6065
aS'then'
p6066
aS'gets'
p6067
aS'the'
p6068
aS'new'
p6069
aS'feathers'
p6070
aS'on'
p6071
aaa(lp6072
g6053
a(lp6073
S'Okay'
p6074
aaa(lp6075
g6053
a(lp6076
S'So'
p6077
aaa(lp6078
g6053
a(lp6079
S'other'
p6080
aS'than'
p6081
aS'that'
p6082
aaa(lp6083
g6053
a(lp6084
S'um'
p6085
aaa(lp6086
g6053
a(lp6087
S'really'
p6088
aS'the'
p6089
aS'only'
p6090
aS'training'
p6091
aaa(lp6092
g6053
a(lp6093
S'That'
p6094
aS'they'
p6095
aS'do'
p6096
aS'with'
p6097
aS'the'
p6098
aS'penguins'
p6099
aaa(lp6100
g6053
a(lp6101
S'You'
p6102
aS'know'
p6103
aaa(lp6104
g6053
a(lp6105
S'we'
p6106
aS'train'
p6107
aS'all'
p6108
aS'kinds'
p6109
aS'of'
p6110
aS'behaviors'
p6111
aaa(lp6112
g6053
a(lp6113
S'with'
p6114
aS'the'
p6115
aS'other'
p6116
aS'animals'
p6117
aaa(lp6118
g6053
a(lp6119
S'The'
p6120
aS'the'
p6121
aS'the'
p6122
aS'the'
p6123
aS'training'
p6124
aS'that'
p6125
aS'they'
p6126
aS'do'
p6127
aS'with'
p6128
aS'the'
p6129
aS'penguins'
p6130
aaa(lp6131
g6053
a(lp6132
S'is'
p6133
aS'basically'
p6134
aaa(lp6135
g6053
a(lp6136
S'that'
p6137
aS'they'
p6138
aS'have'
p6139
aS'feeding'
p6140
aS'stations'
p6141
aS'for'
p6142
aS'them'
p6143
aaa(lp6144
S'DONHm'
p6145
a(lp6146
aa(lp6147
S'KIRSTEN'
p6148
a(lp6149
S'Uh'
p6150
aS'Rockhoppers'
p6151
aS'is'
p6152
aS'here'
p6153
aaa(lp6154
g6148
a(lp6155
S'uh'
p6156
aS'Gentus'
p6157
aS'is'
p6158
aS'here'
p6159
aaa(lp6160
g6148
a(lp6161
S'Magellanics'
p6162
aS'is'
p6163
aS'here'
p6164
aaa(lp6165
g6148
a(lp6166
S'and'
p6167
aS'you'
p6168
aS'are'
p6169
aS'not'
p6170
aS'gonna'
p6171
aS'get'
p6172
ag24
aS'fish'
p6173
aaa(lp6174
g6148
a(lp6175
S'unless'
p6176
aS'you'
p6177
aS'come'
p6178
aS'to'
p6179
aS'your'
p6180
aS'feeding'
p6181
aS'station'
p6182
aaa(lp6183
S'LORI'
p6184
a(lp6185
S'Do'
p6186
aS'they'
p6187
aS'pretty'
p6188
aS'much'
p6189
aS'know'
p6190
aS'that'
p6191
aS'by'
p6192
aS'now'
p6193
aaa(lp6194
g6184
a(lp6195
S'Have'
p6196
aS'they'
p6197
aS'pretty'
p6198
aS'much'
p6199
aS'adapted'
p6200
aS'to'
p6201
aS'that'
p6202
aaa(lp6203
S'AMY'
p6204
a(lp6205
S'They'
p6206
aS'were'
p6207
aS'still'
p6208
aS'in'
p6209
aS'the'
p6210
aS'room'
p6211
aaa(lp6212
S'KIRSTEN'
p6213
a(lp6214
S'Okay'
p6215
aaa(lp6216
S'AMYWhen'
p6217
a(lp6218
aa(lp6219
g6217
a(lp6220
S'when'
p6221
ag133
aS'was'
p6222
aS'here'
p6223
aaa(lp6224
g6217
a(lp6225
S'And'
p6226
aaa(lp6227
g6217
a(lp6228
S'they'
p6229
aS'were'
p6230
aaa(lp6231
g6217
a(lp6232
S'they'
p6233
aS'were'
p6234
aS'pretty'
p6235
aS'random'
p6236
aS'about'
p6237
aS'it'
p6238
aaa(lp6239
g6217
a(lp6240
S'because'
p6241
aS'Mark'
p6242
aS'would'
p6243
aS'take'
p6244
aaa(lp6245
g6217
a(lp6246
S'you'
p6247
aS'know'
p6248
ag24
aS'bucket'
p6249
aS'over'
p6250
aS'here'
p6251
aaa(lp6252
S'KIRSTENRight'
p6253
a(lp6254
aa(lp6255
g6253
a(lp6256
S'And'
p6257
aS'that'
p6258
aS'was'
p6259
aS'with'
p6260
aS'the'
p6261
aS'chicks'
p6262
aaa(lp6263
S'AMYand'
p6264
a(lp6265
S'then'
p6266
aaa(lp6267
g6264
a(lp6268
S'whoever'
p6269
aaa(lp6270
g6264
a(lp6271
S'yeah'
p6272
aaa(lp6273
S'KIRSTENOkay'
p6274
a(lp6275
aa(lp6276
S'AMY'
p6277
a(lp6278
S'With'
p6279
aS'the'
p6280
aaa(lp6281
g6277
a(lp6282
S'HI'
p6283
aS'yeah'
p6284
aS'HI'
p6285
aaa(lp6286
g6277
a(lp6287
g133
aS'mean'
p6288
aaa(lp6289
g6277
a(lp6290
S'the'
p6291
aS'ones'
p6292
aS'that'
p6293
aS'were'
p6294
aS'in'
p6295
aS'there'
p6296
aaa(lp6297
S'LORIThe'
p6298
a(lp6299
S'adult'
p6300
aS'penguins'
p6301
aaa(lp6302
S'AMYthey'
p6303
a(lp6304
aa(lp6305
g6303
a(lp6306
S'yeah'
p6307
aaa(lp6308
g6303
a(lp6309
S'the'
p6310
aS'adult'
p6311
aS'ones'
p6312
aS'were'
p6313
aS'fine'
p6314
aS'about'
p6315
aS'it'
p6316
aaa(lp6317
S'LORIMhm'
p6318
a(lp6319
aa(lp6320
S'AMYyou'
p6321
a(lp6322
S'know'
p6323
aaa(lp6324
g6321
a(lp6325
S'someone'
p6326
aS'set'
p6327
aS'up'
p6328
aS'over'
p6329
aS'here'
p6330
aaa(lp6331
g6321
a(lp6332
S'and'
p6333
aS'someone'
p6334
aS'over'
p6335
aS'here'
p6336
aaa(lp6337
g6321
a(lp6338
S'and'
p6339
aS'they'
p6340
aS'pretty'
p6341
aS'much'
p6342
aS'went'
p6343
aaa(lp6344
g6321
a(lp6345
S'where'
p6346
aS'they'
p6347
aS'were'
p6348
aS'supposed'
p6349
aS'to'
p6350
aaa(lp6351
S'LORISo'
p6352
a(lp6353
S'they'
p6354
aS'knew'
p6355
aaa(lp6356
g6352
a(lp6357
S'to'
p6358
aS'go'
p6359
aS'to'
p6360
aS'station'
p6361
aS'one'
p6362
aaa(lp6363
S'AMY'
p6364
a(lp6365
S'Yeah'
p6366
aaa(lp6367
g6364
a(lp6368
S'Versus'
p6369
aS'station'
p6370
aS'two'
p6371
aaa(lp6372
S'KIRSTENRight'
p6373
a(lp6374
aa(lp6375
S'AMYYeah'
p6376
a(lp6377
aa(lp6378
S'LORI'
p6379
a(lp6380
S'Okay'
p6381
aaa(lp6382
S'KIRSTENSo'
p6383
a(lp6384
aa(lp6385
g6383
a(lp6386
g133
aS'guess'
p6387
aaa(lp6388
g6383
a(lp6389
S'Not'
p6390
aS'Im'
p6391
aS'not'
p6392
aaa(lp6393
g6383
a(lp6394
S'Im'
p6395
aS'not'
p6396
aS'sure'
p6397
aaa(lp6398
g6383
a(lp6399
S'but'
p6400
aaa(lp6401
g6383
a(lp6402
S'its'
p6403
aS'just'
p6404
aS'kind'
p6405
aS'of'
p6406
aS'interesting'
p6407
aaa(lp6408
g6383
a(lp6409
S'because'
p6410
aaa(lp6411
g6383
a(lp6412
S'other'
p6413
aS'facilities'
p6414
aaa(lp6415
g6383
a(lp6416
S'as'
p6417
aS'far'
p6418
aS'as'
p6419
aS'Im'
p6420
aS'aware'
p6421
aaa(lp6422
g6383
a(lp6423
S'its'
p6424
aS'like'
p6425
aS'with'
p6426
aS'the'
p6427
aS'sea'
p6428
aS'otters'
p6429
aS'as'
p6430
aS'well'
p6431
aaa(lp6432
g6383
a(lp6433
S'you'
p6434
aS'know'
p6435
aaa(lp6436
g6383
a(lp6437
S'the'
p6438
aS'training'
p6439
aS'that'
p6440
aS'they'
p6441
aS'do'
p6442
aS'with'
p6443
aS'these'
p6444
aS'animals'
p6445
aS'is'
p6446
aS'pretty'
p6447
aS'minimal'
p6448
aaa(lp6449
g6383
a(lp6450
S'With'
p6451
aS'the'
p6452
aS'sea'
p6453
aS'otters'
p6454
aaa(lp6455
g6383
a(lp6456
S'theyre'
p6457
aS'pretty'
p6458
aaa(lp6459
g6383
a(lp6460
S'They'
p6461
aS'can'
p6462
aS'be'
p6463
aS'aggressive'
p6464
aaa(lp6465
g6383
a(lp6466
S'they'
p6467
aS'have'
p6468
aS'big'
p6469
aS'teeth'
p6470
aaa(lp6471
g6383
a(lp6472
S'People'
p6473
aS'have'
p6474
aS'historically'
p6475
aS'done'
p6476
aS'more'
p6477
aS'training'
p6478
aaa(lp6479
g6383
a(lp6480
S'with'
p6481
aS'cetaceans'
p6482
aaa(lp6483
g6383
a(lp6484
S'than'
p6485
aS'they'
p6486
aS'have'
p6487
aS'with'
p6488
aS'other'
p6489
aS'animals'
p6490
aaa(lp6491
g6383
a(lp6492
S'and'
p6493
aS'we'
p6494
aaa(lp6495
g6383
a(lp6496
S'we'
p6497
aS'really'
p6498
aS'do'
p6499
aS'some'
p6500
aS'pretty'
p6501
aS'unique'
p6502
aS'training'
p6503
aS'here'
p6504
aaa(lp6505
g6383
a(lp6506
S'with'
p6507
aS'our'
p6508
aS'penguins'
p6509
aaa(lp6510
g6383
a(lp6511
S'with'
p6512
aS'our'
p6513
aS'sea'
p6514
aS'otters'
p6515
aaa(lp6516
g6383
a(lp6517
S'and'
p6518
aS'with'
p6519
aS'our'
p6520
aS'seals'
p6521
aaa(lp6522
S'LORIMhm'
p6523
a(lp6524
aa(lp6525
S'KIRSTENSo'
p6526
a(lp6527
aa(lp6528
g6526
a(lp6529
S'Its'
p6530
aS'kinda'
p6531
aS'neat'
p6532
aS'stuff'
p6533
aaa(lp6534
S'LORI'
p6535
a(lp6536
S'Cool'
p6537
aaa(lp6538
S'KIRSTEN'
p6539
a(lp6540
S'Anything'
p6541
aS'else'
p6542
aaa(lp6543
g6539
a(lp6544
S'About'
p6545
aS'penguins'
p6546
aaa(lp6547
g6539
a(lp6548
S'that'
p6549
aS'we'
p6550
aS'should'
p6551
aS'discuss'
p6552
aaa(lp6553
g6539
a(lp6554
S'For'
p6555
aS'you'
p6556
aS'guys'
p6557
aaa(lp6558
g6539
a(lp6559
S'the'
p6560
aS'key'
p6561
aS'to'
p6562
aS'the'
p6563
aS'penguin'
p6564
aS'cart'
p6565
aaa(lp6566
g6539
a(lp6567
S'if'
p6568
aS'you'
p6569
ag5943
aaa(lp6570
g6539
a(lp6571
S'Well'
p6572
aaa(lp6573
g6539
a(lp6574
g133
aS'dont'
p6575
aaa(lp6576
S'LORI'
p6577
a(lp6578
S'The'
p6579
aS'puffin'
p6580
aS'cart'
p6581
aaa(lp6582
S'KIRSTEN'
p6583
a(lp6584
aa(lp6585
g6583
a(lp6586
S'Are'
p6587
aaa(lp6588
g6583
a(lp6589
S'Yeah'
p6590
aS'the'
p6591
aaa(lp6592
S'DONPuffin'
p6593
a(lp6594
S'cart'
p6595
aaa(lp6596
S'LORIMhm'
p6597
a(lp6598
aa(lp6599
S'KIRSTEN'
p6600
a(lp6601
S'Is'
p6602
aS'on'
p6603
aaa(lp6604
g6600
a(lp6605
S'is'
p6606
aS'behind'
p6607
aS'the'
p6608
aS'tide'
p6609
aS'pool'
p6610
aaa(lp6611
g6600
a(lp6612
S'On'
p6613
aS'one'
p6614
aS'of'
p6615
aS're'
p6616
aS'the'
p6617
aS'reserve'
p6618
aS'tanks'
p6619
aaa(lp6620
g6600
a(lp6621
S'So'
p6622
aS'if'
p6623
aS'you'
p6624
aS'choose'
p6625
aS'to'
p6626
aS'pick'
p6627
ag24
aS'specimen'
p6628
aaa(lp6629
g6600
a(lp6630
S'you'
p6631
aS'dont'
p6632
aS'have'
p6633
aS'to'
p6634
aS'bring'
p6635
aS'the'
p6636
aS'whole'
p6637
aS'cart'
p6638
aS'out'
p6639
aaa(lp6640
g6600
a(lp6641
S'If'
p6642
aS'you'
p6643
aS'wanna'
p6644
aS'grab'
p6645
ag24
aS'specimen'
p6646
aaa(lp6647
S'DONHm'
p6648
a(lp6649
aa(lp6650
S'KIRSTENand'
p6651
a(lp6652
S'bring'
p6653
aS'it'
p6654
aS'out'
p6655
aS'to'
p6656
aS'the'
p6657
aS'exhibit'
p6658
aaa(lp6659
g6651
a(lp6660
S'thats'
p6661
aS'fine'
p6662
aaa(lp6663
g6651
a(lp6664
S'But'
p6665
aaa(lp6666
g6651
a(lp6667
g133
aS'suggest'
p6668
aS'that'
p6669
aS'you'
p6670
aS'check'
p6671
aS'it'
p6672
aS'out'
p6673
aS'today'
p6674
aaa(lp6675
g6651
a(lp6676
S'anyway'
p6677
aaa(lp6678
g6651
a(lp6679
S'um'
p6680
aaa(lp6681
g6651
a(lp6682
S'theres'
p6683
aS'just'
p6684
aaa(lp6685
g6651
a(lp6686
S'Theres'
p6687
aS'some'
p6688
aS'neat'
p6689
aS'things'
p6690
aS'to'
p6691
aS'interpret'
p6692
aaa(lp6693
g6651
a(lp6694
S'So'
p6695
aaa(lp6696
g6651
a(lp6697
S'Check'
p6698
aS'it'
p6699
aS'out'
p6700
aaa(lp6701
S'LORIYouve'
p6702
a(lp6703
S'got'
p6704
aS'underwater'
p6705
aS'viewing'
p6706
aaa(lp6707
S'DONYeah'
p6708
a(lp6709
aa(lp6710
g6708
a(lp6711
S'At'
p6712
aS'three'
p6713
aaa(lp6714
S'KIRSTENCheck'
p6715
a(lp6716
S'it'
p6717
aS'out'
p6718
aaa(lp6719
g6715
a(lp6720
S'So'
p6721
aS'if'
p6722
aS'theres'
p6723
ag24
aS'time'
p6724
aaa(lp6725
g6715
a(lp6726
S'you'
p6727
aS'know'
p6728
aS'for'
p6729
aS'Lori'
p6730
aS'to'
p6731
aS'go'
p6732
aS'do'
p6733
aS'it'
p6734
aaa(lp6735
S'LORI'
p6736
a(lp6737
S'Well'
p6738
aS'Ill'
p6739
aS'probably'
p6740
aS'go'
p6741
aS'between'
p6742
aS'coastal'
p6743
aaa(lp6744
g6736
a(lp6745
S'Ill'
p6746
aS'probably'
p6747
aS'meander'
p6748
aS'coastal'
p6749
aS'downstairs'
p6750
aaa(lp6751
S'KIRSTEN'
p6752
a(lp6753
S'Okay'
p6754
aaa(lp6755
S'LORICause'
p6756
a(lp6757
S'theres'
p6758
ag24
aS'presentation'
p6759
aS'close'
p6760
aS'to'
p6761
aS'four'
p6762
aS'thirty'
p6763
aaa(lp6764
S'KIRSTENOkay'
p6765
a(lp6766
aa(lp6767
g6765
a(lp6768
S'Great'
p6769
aaa(lp6770
S'LORIOh'
p6771
a(lp6772
S'wait'
p6773
aaa(lp6774
g6771
a(lp6775
S'Never'
p6776
aS'mind'
p6777
aaa(lp6778
g6771
a(lp6779
S'Ill'
p6780
aS'do'
p6781
aS'it'
p6782
aS'then'
p6783
aaa(lp6784
g6771
a(lp6785
S'When'
p6786
aS'theres'
p6787
ag24
aS'presentation'
p6788
aS'at'
p6789
aS'three'
p6790
aaa(lp6791
S'KIRSTEN'
p6792
a(lp6793
S'VOX'
p6794
aS'Perfect'
p6795
aS'VOX'
p6796
aaa(lp6797
S'LORI'
p6798
a(lp6799
S'Mhm'
p6800
aaa(lp6801
S'KIRSTEN'
p6802
a(lp6803
S'So'
p6804
aS'that'
p6805
aS'is'
p6806
aS'penguin'
p6807
aS'stuff'
p6808
aaa(lp6809
g6802
a(lp6810
S'Um'
p6811
aaa(lp6812
g6802
a(lp6813
g133
aS'hate'
p6814
aS'to'
p6815
aS'say'
p6816
aS'it'
p6817
aaa(lp6818
g6802
a(lp6819
S'but'
p6820
aaa(lp6821
g6802
a(lp6822
S'can'
p6823
aS'you'
p6824
aS'guys'
p6825
aS'go'
p6826
aS'do'
p6827
ag1603
aS'and'
p6828
ag1557
aaa(lp6829
g6802
a(lp6830
S'or'
p6831
aS'who'
p6832
aaa(lp6833
g6802
a(lp6834
S'Or'
p6835
aS'Lori'
p6836
aS'are'
p6837
aS'you'
p6838
aS'doing'
p6839
ag1603
aS'and'
p6840
ag1557
aaa(lp6841
S'LORINo'
p6842
a(lp6843
aa(lp6844
g6842
a(lp6845
g133
aS'dont'
p6846
aS'think'
p6847
aS'anyone'
p6848
aS'signed'
p6849
aS'up'
p6850
aS'for'
p6851
ag1603
aS'and'
p6852
ag1557
aaa(lp6853
S'DONNobody'
p6854
a(lp6855
S'signed'
p6856
aS'up'
p6857
aS'for'
p6858
ag1603
aS'and'
p6859
ag1557
aaa(lp6860
S'LORI'
p6861
a(lp6862
aa(lp6863
S'KIRSTENNobodys'
p6864
a(lp6865
S'gonna'
p6866
aS'do'
p6867
ag1603
aS'and'
p6868
ag1557
aaa(lp6869
S'LORI'
p6870
a(lp6871
aa(lp6872
S'KIRSTEN'
p6873
a(lp6874
g133
aS'shouldve'
p6875
aS'cancelled'
p6876
aS'it'
p6877
aS'then'
p6878
aaa(lp6879
g6873
a(lp6880
S'WH'
p6881
aS'Guys'
p6882
ag55
aS'why'
p6883
aS'wont'
p6884
ag55
aS'somebody'
p6885
aS'do'
p6886
ag1603
aS'and'
p6887
ag1557
aS'WH'
p6888
aaa(lp6889
S'LORIWell'
p6890
a(lp6891
aa(lp6892
g6890
a(lp6893
S'both'
p6894
aS'of'
p6895
aS'us'
p6896
aaa(lp6897
S'KIRSTENDo'
p6898
a(lp6899
S'it'
p6900
aS'together'
p6901
aaa(lp6902
S'DONYou'
p6903
a(lp6904
S'wanna'
p6905
aS'do'
p6906
aS'it'
p6907
aaa(lp6908
S'LORIYeah'
p6909
a(lp6910
aa(lp6911
g6909
a(lp6912
S'cause'
p6913
ag133
aS'cant'
p6914
aS'remember'
p6915
aS'the'
p6916
aS'questions'
p6917
aaa(lp6918
S'KIRSTEN'
p6919
a(lp6920
S'Do'
p6921
aS'it'
p6922
aS'together'
p6923
aaa(lp6924
S'LORIYou'
p6925
a(lp6926
S'have'
p6927
aS'to'
p6928
aS'remind'
p6929
aS'me'
p6930
aS'the'
p6931
aS'question'
p6932
aaa(lp6933
S'DONI'
p6934
a(lp6935
S'gotta'
p6936
aS'be'
p6937
aS'down'
p6938
aS'at'
p6939
aS'the'
p6940
aS'tide'
p6941
aS'pool'
p6942
aS'at'
p6943
aS'two'
p6944
aS'thirty'
p6945
aaa(lp6946
S'LORIAlright'
p6947
a(lp6948
aa(lp6949
g6947
a(lp6950
S'Thats'
p6951
aS'okay'
p6952
aaa(lp6953
S'KIRSTENOkay'
p6954
a(lp6955
aa(lp6956
g6954
a(lp6957
S'Okay'
p6958
aaa(lp6959
S'LORIWell'
p6960
a(lp6961
S'do'
p6962
ag1603
aS'and'
p6963
ag1557
aaa(lp6964
g6960
a(lp6965
S'And'
p6966
aS'if'
p6967
aS'its'
p6968
aaa(lp6969
S'KIRSTENThanks'
p6970
a(lp6971
S'guys'
p6972
aaa(lp6973
S'LORI'
p6974
a(lp6975
S'Uh'
p6976
aS'what'
p6977
aS'time'
p6978
aS'is'
p6979
ag1603
aS'and'
p6980
ag1557
aaa(lp6981
g6974
a(lp6982
S'two'
p6983
aS'twenty'
p6984
aaa(lp6985
S'KIRSTENNow'
p6986
a(lp6987
aa(lp6988
S'LORI'
p6989
a(lp6990
S'And'
p6991
aaa(lp6992
S'DONRight'
p6993
a(lp6994
S'now'
p6995
aaa(lp6996
S'LORItell'
p6997
a(lp6998
S'me'
p6999
aS'when'
p7000
ag133
aS'can'
p7001
aS'get'
p7002
aS'checked'
p7003
aS'out'
p7004
aS'on'
p7005
aS'seals'
p7006
aaa(lp7007
S'DON'
p7008
a(lp7009
S'Two'
p7010
aS'fifteen'
p7011
aaa(lp7012
S'KIRSTENOkay'
p7013
a(lp7014
aa(lp7015
g7013
a(lp7016
S'Ill'
p7017
aS'find'
p7018
aS'you'
p7019
aaa(lp7020
S'LORIToday'
p7021
a(lp7022
aa(lp7023
S'DONWheres'
p7024
a(lp7025
g55
aS'the'
p7026
aS'um'
p7027
ag55
aaa(lp7028
S'KIRSTENI'
p7029
a(lp7030
S'will'
p7031
aS'find'
p7032
aS'you'
p7033
aaa(lp7034
S'LORI'
p7035
a(lp7036
g133
aS'dont'
p7037
aS'wanna'
p7038
aS'do'
p7039
aS'it'
p7040
aS'in'
p7041
aS'two'
p7042
aS'weeks'
p7043
aaa(lp7044
g7035
a(lp7045
S'Ill'
p7046
aS'forget'
p7047
aaa(lp7048
S'DONwheres'
p7049
a(lp7050
S'the'
p7051
aaa(lp7052
S'LORI'
p7053
a(lp7054
aa(lp7055
S'KIRSTENNo'
p7056
a(lp7057
g133
aS'wont'
p7058
aaa(lp7059
g7056
a(lp7060
g133
aS'promise'
p7061
aaa.