(lp0
(lp1
S'JEFF'
p2
a(lp3
S'We'
p4
aS'often'
p5
aS'meditate'
p6
aaa(lp7
g2
a(lp8
S'I'
p9
aS'think'
p10
aaa(lp11
g2
a(lp12
S'on'
p13
aS'the'
p14
aS'love'
p15
aS'of'
p16
aS'Christ'
p17
aaa(lp18
g2
a(lp19
S'and'
p20
aS'there'
p21
aS'are'
p22
aS'many'
p23
aS'ways'
p24
aS'to'
p25
aS'do'
p26
aS'it'
p27
aaa(lp28
g2
a(lp29
S'and'
p30
aS'those'
p31
aS'who'
p32
aS'have'
p33
aS'meditated'
p34
aS'on'
p35
aS'the'
p36
aS'love'
p37
aS'of'
p38
aS'Christ'
p39
aaa(lp40
g2
a(lp41
S'have'
p42
aS'often'
p43
aS'done'
p44
aS'so'
p45
aaa(lp46
g2
a(lp47
S'in'
p48
aS'terms'
p49
aS'of'
p50
aS'the'
p51
aS'cross'
p52
aS'itself'
p53
aaa(lp54
g2
a(lp55
S'have'
p56
aS'imagined'
p57
aS'again'
p58
aS'and'
p59
aS'afresh'
p60
aaa(lp61
g2
a(lp62
S'uh'
p63
aaa(lp64
g2
a(lp65
S'his'
p66
aS'uh'
p67
aS'bleeding'
p68
aS'wounds'
p69
aaa(lp70
g2
a(lp71
S'uh'
p72
aS'see'
p73
aS'him'
p74
aS'as'
p75
aS'he'
p76
aS'died'
p77
aS'on'
p78
aS'the'
p79
aS'cross'
p80
aaa(lp81
g2
a(lp82
S'but'
p83
aaa(lp84
S'AUD'
p85
a(lp86
aa(lp87
S'JEFF'
p88
a(lp89
S'wherever'
p90
aS'we'
p91
aS'turn'
p92
aaa(lp93
g88
a(lp94
S'uh'
p95
aS'in'
p96
aS'considering'
p97
aS'the'
p98
aS'love'
p99
aS'of'
p100
aS'Christ'
p101
aaa(lp102
g88
a(lp103
S'we'
p104
aS'turn'
p105
aS'always'
p106
aS'to'
p107
aS'the'
p108
aS'Gospel'
p109
aS'records'
p110
aaa(lp111
g88
a(lp112
S'dont'
p113
aS'we'
p114
aaa(lp115
g88
a(lp116
S'We'
p117
aS'we'
p118
aS'turn'
p119
aS'to'
p120
aS'the'
p121
aS'Word'
p122
aS'of'
p123
aS'God'
p124
aaa(lp125
g88
a(lp126
S'We'
p127
aS'turn'
p128
aS'to'
p129
aS'the'
p130
aS'real'
p131
aS'Jesus'
p132
aaa(lp133
g88
a(lp134
S'as'
p135
aS'hes'
p136
aS'described'
p137
aaa(lp138
g88
a(lp139
S'And'
p140
aS'uh'
p141
aaa(lp142
g88
a(lp143
S'There'
p144
aS'there'
p145
aS'is'
p146
aS'where'
p147
aS'our'
p148
aS'meditation'
p149
aS'always'
p150
aS'centers'
p151
aaa(lp152
S'AUD'
p153
a(lp154
aa(lp155
S'JEFF'
p156
a(lp157
S'That'
p158
aS'we'
p159
aS'might'
p160
aS'know'
p161
aS'him'
p162
aaa(lp163
g156
a(lp164
S'of'
p165
aS'his'
p166
aS'love'
p167
aaa(lp168
g156
a(lp169
S'And'
p170
aS'not'
p171
aS'only'
p172
aS'hear'
p173
aS'him'
p174
aS'as'
p175
aS'he'
p176
aS'cries'
p177
aaa(lp178
g156
a(lp179
S'why'
p180
aS'have'
p181
aS'you'
p182
aS'forsaken'
p183
aS'me'
p184
aaa(lp185
g156
a(lp186
S'but'
p187
aS'uh'
p188
aaa(lp189
g156
a(lp190
S'see'
p191
aS'him'
p192
aS'also'
p193
aaa(lp194
g156
a(lp195
S'in'
p196
aS'his'
p197
aS'seeking'
p198
aS'love'
p199
aaa(lp200
g156
a(lp201
S'as'
p202
aS'the'
p203
aS'risen'
p204
aS'Lord'
p205
aaa(lp206
g156
a(lp207
S'Uh'
p208
aS'see'
p209
aS'him'
p210
aS'uh'
p211
aaa(lp212
g156
a(lp213
S'with'
p214
aS'that'
p215
aS'fish'
p216
aS'breakfast'
p217
aaa(lp218
g156
a(lp219
S'by'
p220
aS'the'
p221
aS'Lake'
p222
aS'of'
p223
aS'Galilee'
p224
aaa(lp225
g156
a(lp226
S'Broiling'
p227
aS'fish'
p228
aaa(lp229
g156
a(lp230
S'Dont'
p231
aS'you'
p232
aS'like'
p233
aS'that'
p234
aaa(lp235
g156
a(lp236
S'You'
p237
aS'know'
p238
aS'he'
p239
aS'had'
p240
aS'that'
p241
aS'uh'
p242
aaa(lp243
g156
a(lp244
S'he'
p245
aS'had'
p246
aS'that'
p247
aS'breakfast'
p248
aS'all'
p249
aS'cooking'
p250
aaa(lp251
g156
a(lp252
S'While'
p253
aS'the'
p254
aS'disciples'
p255
aS'were'
p256
aS'still'
p257
aS'out'
p258
aS'in'
p259
aS'the'
p260
aS'boat'
p261
aaa(lp262
g156
a(lp263
S'And'
p264
aS'then'
p265
aS'uh'
p266
aaa(lp267
g156
a(lp268
S'of'
p269
aS'course'
p270
aS'he'
p271
aS'has'
p272
aS'a'
p273
aS'special'
p274
aS'interview'
p275
aS'with'
p276
aS'Peter'
p277
aaa(lp278
g156
a(lp279
S'Not'
p280
aS'the'
p281
aS'first'
p282
aS'time'
p283
aS'hed'
p284
aS'seen'
p285
aS'him'
p286
aaa(lp287
g156
a(lp288
S'he'
p289
aS'made'
p290
ag273
aS'special'
p291
aS'resurrection'
p292
aS'appearance'
p293
aaa(lp294
g156
a(lp295
S'uh'
p296
aS'to'
p297
aS'Peter'
p298
aaa(lp299
g156
a(lp300
S'But'
p301
aS'uh'
p302
aaa(lp303
g156
a(lp304
S'there'
p305
aS'in'
p306
aS'the'
p307
aS'morning'
p308
aaa(lp309
g156
a(lp310
S'early'
p311
aS'morning'
p312
aaa(lp313
g156
a(lp314
S'in'
p315
aS'the'
p316
aS'Lake'
p317
aS'of'
p318
aS'Galilee'
p319
aaa(lp320
g156
a(lp321
S'And'
p322
aS'there'
p323
aS'are'
p324
aS'cocks'
p325
aS'crowing'
p326
aS'in'
p327
aS'the'
p328
aS'distance'
p329
aaa(lp330
g156
a(lp331
S'And'
p332
aS'Jesus'
p333
aS'says'
p334
aS'to'
p335
aS'Peter'
p336
aaa(lp337
g156
a(lp338
S'do'
p339
aS'you'
p340
aS'love'
p341
aS'me'
p342
aaa(lp343
g156
a(lp344
S'more'
p345
aS'than'
p346
aS'these'
p347
aaa(lp348
g156
a(lp349
S'Simon'
p350
aaa(lp351
g156
a(lp352
S'son'
p353
aS'of'
p354
aS'Jonah'
p355
aaa(lp356
g156
a(lp357
S'do'
p358
aS'you'
p359
aS'love'
p360
aS'me'
p361
aaa(lp362
g156
a(lp363
S'more'
p364
aS'than'
p365
aS'these'
p366
aaa(lp367
g156
a(lp368
S'Three'
p369
aS'times'
p370
aS'the'
p371
aS'question'
p372
aaa(lp373
S'AUD'
p374
a(lp375
aa(lp376
S'JEFF'
p377
a(lp378
S'Because'
p379
aaa(lp380
g377
a(lp381
S'you'
p382
aS'see'
p383
aaa(lp384
g377
a(lp385
S'as'
p386
aS'uh'
p387
aS'we'
p388
aS'were'
p389
aS'saying'
p390
ag273
aS'bit'
p391
aS'ago'
p392
aaa(lp393
g377
a(lp394
S'the'
p395
aS'love'
p396
aS'and'
p397
aS'the'
p398
aS'service'
p399
aS'go'
p400
aS'together'
p401
aaa(lp402
g377
a(lp403
S'Dont'
p404
aS'they'
p405
aaa(lp406
g377
a(lp407
S'If'
p408
aS'Peter'
p409
aS'is'
p410
aS'to'
p411
aS'be'
p412
aS'restored'
p413
aS'in'
p414
aS'service'
p415
aaa(lp416
g377
a(lp417
S'he'
p418
aS'has'
p419
aS'to'
p420
aS'be'
p421
aS'restored'
p422
aS'in'
p423
aS'love'
p424
aaa(lp425
g377
a(lp426
S'And'
p427
aS'when'
p428
aS'Peter'
p429
aS'says'
p430
aaa(lp431
g377
a(lp432
S'uh'
p433
aaa(lp434
g377
a(lp435
g9
aS'love'
p436
aS'you'
p437
aaa(lp438
g377
a(lp439
S'then'
p440
aS'Jesus'
p441
aS'says'
p442
aaa(lp443
g377
a(lp444
S'uh'
p445
aaa(lp446
g377
a(lp447
S'feed'
p448
aS'my'
p449
aS'sheep'
p450
aaa(lp451
g377
a(lp452
S'tend'
p453
aS'my'
p454
aS'lambs'
p455
aaa(lp456
g377
a(lp457
S'care'
p458
aS'for'
p459
aS'my'
p460
aS'little'
p461
aS'ones'
p462
aaa(lp463
g377
a(lp464
S'We'
p465
aaa(lp466
g377
a(lp467
S'we'
p468
aS'cant'
p469
aS'love'
p470
aS'others'
p471
aaa(lp472
g377
a(lp473
S'in'
p474
aS'the'
p475
aS'name'
p476
aS'of'
p477
aS'Christ'
p478
aaa(lp479
g377
a(lp480
S'unless'
p481
aS'the'
p482
aS'love'
p483
aS'for'
p484
aS'others'
p485
aS'is'
p486
ag273
aS'overflow'
p487
aaa(lp488
g377
a(lp489
S'of'
p490
aS'our'
p491
aS'love'
p492
aS'for'
p493
aS'the'
p494
aS'Lord'
p495
aS'himself'
p496
aaa(lp497
g377
a(lp498
S'The'
p499
aS'people'
p500
aS'that'
p501
aS'were'
p502
aS'called'
p503
aS'to'
p504
aS'love'
p505
aaa(lp506
g377
a(lp507
S'are'
p508
aS'unfortunately'
p509
aaa(lp510
g377
a(lp511
S'not'
p512
aaa(lp513
g377
a(lp514
S'uh'
p515
aaa(lp516
g377
a(lp517
S'warrantably'
p518
aS'lovable'
p519
aaa(lp520
g377
a(lp521
S'We'
p522
aS'uh'
p523
aaa(lp524
g377
a(lp525
S'The'
p526
aS'source'
p527
aS'of'
p528
aS'our'
p529
aS'love'
p530
aaa(lp531
g377
a(lp532
S'is'
p533
aS'not'
p534
aS'how'
p535
aS'appealing'
p536
aS'they'
p537
aS'are'
p538
aaa(lp539
g377
a(lp540
S'although'
p541
aaa(lp542
g377
a(lp543
S'we'
p544
aS'can'
p545
aS'praise'
p546
aS'God'
p547
aS'for'
p548
aS'his'
p549
aS'image'
p550
aS'in'
p551
aS'them'
p552
aaa(lp553
g377
a(lp554
S'and'
p555
aS'rejoice'
p556
aS'in'
p557
aS'the'
p558
aS'many'
p559
aS'SM'
p560
aS'evidences'
p561
aS'of'
p562
aS'Gods'
p563
aS'common'
p564
aS'grace'
p565
aS'in'
p566
aS'their'
p567
aS'lives'
p568
aS'SM'
p569
aaa(lp570
g377
a(lp571
S'but'
p572
aaa(lp573
g377
a(lp574
S'nevertheless'
p575
aaa(lp576
g377
a(lp577
S'uh'
p578
aS'basically'
p579
aaa(lp580
g377
a(lp581
S'the'
p582
aS'the'
p583
aS'fountain'
p584
aS'of'
p585
aS'our'
p586
aS'love'
p587
aaa(lp588
g377
a(lp589
S'i'
p590
aS'is'
p591
aS'uh'
p592
aaa(lp593
g377
a(lp594
S'the'
p595
aS'seeking'
p596
aS'love'
p597
aS'of'
p598
aS'the'
p599
aS'savior'
p600
aaa(lp601
g377
a(lp602
S'The'
p603
aS'selfdenying'
p604
aS'love'
p605
aaa(lp606
g377
a(lp607
S'That'
p608
aS'is'
p609
aS'uh'
p610
aS'willing'
p611
aS'to'
p612
aS'serve'
p613
aS'in'
p614
aS'his'
p615
aS'name'
p616
aaa(lp617
g377
a(lp618
S'Do'
p619
aS'you'
p620
aS'love'
p621
aS'me'
p622
aaa(lp623
g377
a(lp624
S'You'
p625
aS'know'
p626
aaa(lp627
g377
a(lp628
S'Jesus'
p629
aS'didnt'
p630
aS'ask'
p631
aS'Peter'
p632
aS'those'
p633
aS'questions'
p634
aaa(lp635
g377
a(lp636
S'to'
p637
aS'undercut'
p638
aS'his'
p639
aS'love'
p640
aaa(lp641
g377
a(lp642
S'or'
p643
aS'his'
p644
aS'faith'
p645
aaa(lp646
g377
a(lp647
S'He'
p648
aS'asked'
p649
aS'those'
p650
aS'questions'
p651
aS'to'
p652
aS'establish'
p653
aS'it'
p654
aaa(lp655
g377
a(lp656
S'And'
p657
aS'uh'
p658
aS'Jesus'
p659
aS'does'
p660
aS'the'
p661
aS'same'
p662
aS'with'
p663
aS'you'
p664
aaa(lp665
g377
a(lp666
S'my'
p667
aS'friend'
p668
aaa(lp669
g377
a(lp670
S'he'
p671
aS'does'
p672
aS'the'
p673
aS'same'
p674
aaa(lp675
g377
a(lp676
S'He'
p677
aS'does'
p678
aS'ask'
p679
aS'you'
p680
aaa(lp681
g377
a(lp682
S'this'
p683
aS'morning'
p684
aaa(lp685
g377
a(lp686
S'do'
p687
aS'you'
p688
aS'love'
p689
aS'me'
p690
aaa(lp691
g377
a(lp692
S'Do'
p693
aS'you'
p694
aS'really'
p695
aS'love'
p696
aS'me'
p697
aaa(lp698
g377
a(lp699
S'But'
p700
aS'he'
p701
aS'asks'
p702
aS'it'
p703
aaa(lp704
g377
a(lp705
S'in'
p706
aS'order'
p707
aS'that'
p708
aS'youll'
p709
aS'be'
p710
aS'able'
p711
aS'to'
p712
aS'say'
p713
aS'at'
p714
aS'last'
p715
aS'with'
p716
aS'Peter'
p717
aaa(lp718
g377
a(lp719
S'Lord'
p720
aaa(lp721
g377
a(lp722
S'you'
p723
aS'know'
p724
aS'everything'
p725
aaa(lp726
g377
a(lp727
S'You'
p728
aS'know'
p729
aS'my'
p730
aS'heart'
p731
aaa(lp732
g377
a(lp733
S'And'
p734
aS'Lord'
p735
aS'you'
p736
aS'know'
p737
aS'that'
p738
aS'in'
p739
aS'spite'
p740
aS'of'
p741
aS'everything'
p742
aaa(lp743
g377
a(lp744
S'yes'
p745
aS'Lord'
p746
ag9
aS'do'
p747
aS'love'
p748
aS'you'
p749
aaa(lp750
g377
a(lp751
S'Well'
p752
aaa(lp753
g377
a(lp754
S'the'
p755
aS'saving'
p756
aS'love'
p757
aS'of'
p758
aS'uh'
p759
aS'the'
p760
aS'Father'
p761
aaa(lp762
g377
a(lp763
S'and'
p764
aS'the'
p765
aS'Son'
p766
aaa(lp767
g377
a(lp768
S'is'
p769
aS'also'
p770
aS'the'
p771
aS'saving'
p772
aS'love'
p773
aS'of'
p774
aS'the'
p775
aS'Spirit'
p776
aaa(lp777
g377
a(lp778
S'and'
p779
aS'thats'
p780
aS'why'
p781
ag9
aS'read'
p782
aS'that'
p783
aS'section'
p784
aS'from'
p785
aS'Romans'
p786
aS'eight'
p787
aaa(lp788
g377
a(lp789
S'Uh'
p790
aS'you'
p791
aS'see'
p792
aaa(lp793
g377
a(lp794
S'Gods'
p795
aS'love'
p796
aS'is'
p797
aS'is'
p798
aS'present'
p799
aS'in'
p800
aS'the'
p801
aS'Spirit'
p802
aaa(lp803
g377
a(lp804
S'There'
p805
aS'theres'
p806
ag273
aS'wonderful'
p807
aS'theology'
p808
aS'of'
p809
aS'the'
p810
aS'Spirit'
p811
aaa(lp812
g377
a(lp813
S'in'
p814
aS'uh'
p815
aaa(lp816
g377
a(lp817
S'in'
p818
aS'the'
p819
aS'Scriptures'
p820
aaa(lp821
g377
a(lp822
S'Especially'
p823
aS'of'
p824
aS'course'
p825
aS'in'
p826
aS'the'
p827
aS'New'
p828
aS'Testament'
p829
aaa(lp830
g377
a(lp831
S'Um'
p832
aaa(lp833
g377
a(lp834
S'Bultmann'
p835
aaa(lp836
g377
a(lp837
S'in'
p838
aS'his'
p839
aS'uh'
p840
aS'commentary'
p841
aS'on'
p842
aS'uh'
p843
aS'Romans'
p844
aS'eight'
p845
aaa(lp846
g377
a(lp847
S'uh'
p848
aaa(lp849
g377
a(lp850
S'talks'
p851
aS'about'
p852
aaa(lp853
g377
a(lp854
S'uh'
p855
aaa(lp856
g377
a(lp857
S'the'
p858
aS'two'
p859
aS'ways'
p860
aS'in'
p861
aS'which'
p862
aS'the'
p863
aS'Spirit'
p864
ag590
aS'is'
p865
aS'spoken'
p866
aS'of'
p867
aaa(lp868
g377
a(lp869
S'And'
p870
aS'uh'
p871
aaa(lp872
g377
a(lp873
S'h'
p874
aS'he'
p875
aS'unfortunately'
p876
aS'uses'
p877
aS'anthropological'
p878
aS'terms'
p879
aS'to'
p880
aS'describe'
p881
aS'it'
p882
aaa(lp883
g377
a(lp884
S'uh'
p885
aaa(lp886
g377
a(lp887
S'he'
p888
aS'talks'
p889
aS'about'
p890
aS'uh'
p891
aaa(lp892
g377
a(lp893
S'the'
p894
aS'the'
p895
aS'the'
p896
aS'Spirit'
p897
aS'in'
p898
aS'uh'
p899
aaa(lp900
g377
a(lp901
S'the'
p902
aS'sense'
p903
aS'of'
p904
aS'mana'
p905
aaa(lp906
g377
a(lp907
S'as'
p908
aS'in'
p909
aS'uh'
p910
aS'animism'
p911
aaa(lp912
g377
a(lp913
S'where'
p914
aS'the'
p915
aS'spirit'
p916
aaa(lp917
g377
a(lp918
S'you'
p919
aS'have'
p920
ag273
aS'spirit'
p921
aS'of'
p922
aS'of'
p923
ag273
aS'tree'
p924
aaa(lp925
g377
a(lp926
S'or'
p927
ag273
ag273
aS'stone'
p928
aaa(lp929
g377
a(lp930
S'or'
p931
aS'something'
p932
aS'like'
p933
aS'that'
p934
aaa(lp935
g377
a(lp936
S'and'
p937
aS'then'
p938
aS'you'
p939
aS'have'
p940
aS'the'
p941
aS'more'
p942
aS'personal'
p943
aS'concept'
p944
aS'of'
p945
aS'the'
p946
aS'Spirit'
p947
aaa(lp948
g377
a(lp949
S'uh'
p950
aS'uh'
p951
aaa(lp952
g377
a(lp953
S'both'
p954
aS'an'
p955
aS'impersonal'
p956
aS'and'
p957
ag273
aS'personal'
p958
aS'concept'
p959
aS'of'
p960
aS'the'
p961
aS'Spirit'
p962
aaa(lp963
g377
a(lp964
S'Now'
p965
aaa(lp966
g377
a(lp967
g9
aS'd'
p968
ag9
aS'dont'
p969
aS'care'
p970
aS'for'
p971
aS'his'
p972
aS'analogy'
p973
aaa(lp974
g377
a(lp975
S'but'
p976
aS'uh'
p977
aS'the'
p978
aS'point'
p979
aS'is'
p980
aS'well'
p981
aS'taken'
p982
aaa(lp983
g377
a(lp984
S'Uh'
p985
aaa(lp986
g377
a(lp987
S'the'
p988
aS'point'
p989
aS'is'
p990
aS'that'
p991
aS'Paul'
p992
aS'does'
p993
aS'speak'
p994
aS'of'
p995
aS'the'
p996
aS'Spirit'
p997
aaa(lp998
g377
a(lp999
S'both'
p1000
aS'as'
p1001
aS'possessor'
p1002
aaa(lp1003
g377
a(lp1004
S'and'
p1005
aS'as'
p1006
aS'possessed'
p1007
aaa(lp1008
g377
a(lp1009
S'You'
p1010
aS'see'
p1011
aaa(lp1012
g377
a(lp1013
S'the'
p1014
aS'Spirit'
p1015
aS'possesses'
p1016
aS'us'
p1017
aaa(lp1018
g377
a(lp1019
S'Uh'
p1020
aaa(lp1021
g377
a(lp1022
S'as'
p1023
aS'Christians'
p1024
aaa(lp1025
g377
a(lp1026
S'we'
p1027
aS'are'
p1028
aS'not'
p1029
aS'demon'
p1030
aS'possessed'
p1031
aaa(lp1032
g377
a(lp1033
S'we'
p1034
aS'are'
p1035
aS'Holy'
p1036
aS'Spirit'
p1037
aS'possessed'
p1038
aaa(lp1039
g377
a(lp1040
S'And'
p1041
aS'uh'
p1042
aaa(lp1043
g377
a(lp1044
S'Holy'
p1045
aS'Spirit'
p1046
aS'possession'
p1047
aaa(lp1048
g377
a(lp1049
S'has'
p1050
ag273
aS'close'
p1051
aS'relationship'
p1052
aS'to'
p1053
aS'demon'
p1054
aS'possession'
p1055
aaa(lp1056
g377
a(lp1057
S'uh'
p1058
aaa(lp1059
g377
a(lp1060
S'the'
p1061
aS'close'
p1062
aS'relationship'
p1063
aS'is'
p1064
aS'what'
p1065
aS'makes'
p1066
aS'it'
p1067
aS'so'
p1068
aS'different'
p1069
aaa(lp1070
g377
a(lp1071
S'You'
p1072
aS'see'
p1073
aaa(lp1074
g377
a(lp1075
S'uh'
p1076
aS'demon'
p1077
aS'possession'
p1078
aS'is'
p1079
aS'always'
p1080
aS'destructive'
p1081
aaa(lp1082
g377
a(lp1083
S'because'
p1084
aS'uh'
p1085
aS'Satan'
p1086
aS'cant'
p1087
aS'create'
p1088
aaa(lp1089
g377
a(lp1090
S'And'
p1091
aS'the'
p1092
aS'demonpossessed'
p1093
aS'man'
p1094
aS'in'
p1095
aS'Gadare'
p1096
aaa(lp1097
g377
a(lp1098
S'Remember'
p1099
aaa(lp1100
g377
a(lp1101
S'uh'
p1102
aS'he'
p1103
aS'couldnt'
p1104
aS'even'
p1105
aS'give'
p1106
aS'his'
p1107
aS'name'
p1108
aaa(lp1109
g377
a(lp1110
S'When'
p1111
aS'Jesus'
p1112
aS'asked'
p1113
aS'him'
p1114
aS'what'
p1115
aS'his'
p1116
aS'name'
p1117
aS'was'
p1118
aaa(lp1119
g377
a(lp1120
S'Uh'
p1121
aS'he'
p1122
aaa(lp1123
g377
a(lp1124
S'His'
p1125
aS'personality'
p1126
aS'was'
p1127
aS'destroyed'
p1128
aaa(lp1129
g377
a(lp1130
S'You'
p1131
aS'know'
p1132
aS'how'
p1133
aS'C'
p1134
aS'S'
p1135
aS'Lewis'
p1136
aS'has'
p1137
aS'done'
p1138
aS'that'
p1139
aS'in'
p1140
aS'his'
p1141
aS'uh'
p1142
aaa(lp1143
g377
a(lp1144
S'uh'
p1145
aS'adult'
p1146
aS'novels'
p1147
aaa(lp1148
g377
a(lp1149
S'Uh'
p1150
aaa(lp1151
g377
a(lp1152
S'uh'
p1153
aS'but'
p1154
aS'uh'
p1155
aaa(lp1156
g377
a(lp1157
S'there'
p1158
aS'it'
p1159
aS'is'
p1160
aaa(lp1161
g377
a(lp1162
g1135
aS'emon'
p1163
aS'possession'
p1164
aS'is'
p1165
aS'personality'
p1166
aS'destructive'
p1167
aaa(lp1168
g377
a(lp1169
S'It'
p1170
aS'depersonalizes'
p1171
aaa(lp1172
g377
a(lp1173
S'because'
p1174
aS'uh'
p1175
aS'Satan'
p1176
aS'can'
p1177
aS'only'
p1178
aS'corrode'
p1179
aaa(lp1180
g377
a(lp1181
S'he'
p1182
aS'cant'
p1183
aS'create'
p1184
aaa(lp1185
g377
a(lp1186
S'He'
p1187
aS'can'
p1188
aS'only'
p1189
aS'destroy'
p1190
aaa(lp1191
g377
a(lp1192
S'But'
p1193
aaa(lp1194
g377
a(lp1195
S'Holy'
p1196
aS'Spirit'
p1197
aS'POUND'
p1198
aS'possession'
p1199
aaa(lp1200
g377
a(lp1201
S'is'
p1202
aS'no'
p1203
aS'less'
p1204
aS'real'
p1205
aS'possession'
p1206
aaa(lp1207
g377
a(lp1208
S'only'
p1209
aaa(lp1210
g377
a(lp1211
S'it'
p1212
aS'has'
p1213
aS'the'
p1214
aS'opposite'
p1215
aS'effect'
p1216
aaa(lp1217
g377
a(lp1218
S'The'
p1219
aS'Holy'
p1220
aS'Spirit'
p1221
aaa(lp1222
g377
a(lp1223
S'you'
p1224
aS'see'
p1225
aaa(lp1226
g377
a(lp1227
S'is'
p1228
aS'the'
p1229
aS'creator'
p1230
aS'Spirit'
p1231
aaa(lp1232
g377
a(lp1233
S'who'
p1234
aS'brought'
p1235
aS'uh'
p1236
aS'order'
p1237
aS'out'
p1238
aS'POUND'
p1239
aS'of'
p1240
aS'chaos'
p1241
aaa(lp1242
g377
a(lp1243
S'the'
p1244
aS'Holy'
p1245
aS'Spirit'
p1246
aS'is'
p1247
aS'the'
p1248
aS'one'
p1249
aS'who'
p1250
aS'orders'
p1251
aaa(lp1252
g377
a(lp1253
S'the'
p1254
aS'Holy'
p1255
aS'Spirit'
p1256
aS'is'
p1257
aS'the'
p1258
aS'one'
p1259
aS'who'
p1260
aS'frees'
p1261
aaa(lp1262
g377
a(lp1263
S'uh'
p1264
aS'liberates'
p1265
aaa(lp1266
g377
a(lp1267
S'uh'
p1268
aS'the'
p1269
aaa(lp1270
g377
a(lp1271
S'uh'
p1272
aS'the'
p1273
aS'the'
p1274
aS'the'
p1275
aS'Gadarene'
p1276
aS'demoniac'
p1277
aS'thought'
p1278
aS'he'
p1279
aS'was'
p1280
aS'free'
p1281
aaa(lp1282
g377
a(lp1283
S'because'
p1284
aS'nobody'
p1285
aS'could'
p1286
aS'tie'
p1287
aS'him'
p1288
aS'up'
p1289
aaa(lp1290
g377
a(lp1291
S'you'
p1292
aS'see'
p1293
aaa(lp1294
S'AUD'
p1295
a(lp1296
aa(lp1297
S'JEFF'
p1298
a(lp1299
S'he'
p1300
aS'could'
p1301
aS'go'
p1302
aS'anywhere'
p1303
aaa(lp1304
g1298
a(lp1305
S'do'
p1306
aS'anything'
p1307
aaa(lp1308
g1298
a(lp1309
S'uh'
p1310
aS'absolute'
p1311
aS'freedom'
p1312
aaa(lp1313
g1298
a(lp1314
S'Right'
p1315
aaa(lp1316
g1298
a(lp1317
S'and'
p1318
aS'he'
p1319
aS'could'
p1320
aS'treat'
p1321
aS'people'
p1322
aaa(lp1323
g1298
a(lp1324
S'he'
p1325
aS'hi'
p1326
aS'he'
p1327
aS'didnt'
p1328
aS'have'
p1329
aS'to'
p1330
aS'dress'
p1331
aS'any'
p1332
aS'particular'
p1333
aS'way'
p1334
aaa(lp1335
g1298
a(lp1336
S'no'
p1337
aS'dress'
p1338
aS'code'
p1339
aaa(lp1340
g1298
a(lp1341
S'and'
p1342
aS'so'
p1343
aS'he'
p1344
aS'stripped'
p1345
aS'it'
p1346
aS'all'
p1347
aS'off'
p1348
aaa(lp1349
g1298
a(lp1350
S'And'
p1351
aS'the'
p1352
aS'he'
p1353
aS'uh'
p1354
aaa(lp1355
g1298
a(lp1356
S'he'
p1357
aS'could'
p1358
aS'uh'
p1359
ag968
aS'treat'
p1360
aS'people'
p1361
aS'any'
p1362
aS'way'
p1363
aS'he'
p1364
aS'wanted'
p1365
aS'to'
p1366
aaa(lp1367
g1298
a(lp1368
S'so'
p1369
aS'whenever'
p1370
aS'they'
p1371
aS'came'
p1372
aS'by'
p1373
aaa(lp1374
g1298
a(lp1375
S'he'
p1376
aS'beat'
p1377
aS'them'
p1378
aS'up'
p1379
aaa(lp1380
g1298
a(lp1381
S'And'
p1382
aS'uh'
p1383
aaa(lp1384
S'AUD'
p1385
a(lp1386
aa(lp1387
S'JEFF'
p1388
a(lp1389
S'and'
p1390
aS'uh'
p1391
aS'then'
p1392
aaa(lp1393
g1388
a(lp1394
S'if'
p1395
aS'there'
p1396
aS'was'
p1397
aS'nobody'
p1398
aS'handy'
p1399
aS'to'
p1400
aS'beat'
p1401
aS'up'
p1402
aaa(lp1403
g1388
a(lp1404
S'he'
p1405
aS'picked'
p1406
aS'up'
p1407
ag273
aS'stone'
p1408
aaa(lp1409
g1388
a(lp1410
S'and'
p1411
aS'uh'
p1412
aS'tore'
p1413
aS'his'
p1414
aS'own'
p1415
aS'flesh'
p1416
aS'apart'
p1417
aaa(lp1418
g1388
a(lp1419
S'Theres'
p1420
aS'demonic'
p1421
aS'liberty'
p1422
aaa(lp1423
g1388
a(lp1424
S'But'
p1425
aS'uh'
p1426
aaa(lp1427
g1388
a(lp1428
S'Holy'
p1429
aS'Spirit'
p1430
aS'liberty'
p1431
aS'doesnt'
p1432
aS'work'
p1433
aS'that'
p1434
aS'way'
p1435
aaa(lp1436
g1388
a(lp1437
S'See'
p1438
aaa(lp1439
g1388
a(lp1440
S'Uh'
p1441
aaa(lp1442
g1388
a(lp1443
S'uh'
p1444
aS'now'
p1445
aS'm'
p1446
aaa(lp1447
g1388
a(lp1448
S'youll'
p1449
aS'accuse'
p1450
aS'me'
p1451
aS'of'
p1452
aS'thinking'
p1453
aS'uh'
p1454
aS'of'
p1455
aS'Holy'
p1456
aS'Spirit'
p1457
aS'liberty'
p1458
aaa(lp1459
g1388
a(lp1460
S'in'
p1461
aS'too'
p1462
aS'strictly'
p1463
aS'Presbyterian'
p1464
aS'terms'
p1465
aaa(lp1466
g1388
a(lp1467
S'because'
p1468
aS'uh'
p1469
aaa(lp1470
S'AUD'
p1471
a(lp1472
aa(lp1473
S'JEFF'
p1474
a(lp1475
g9
aS'remind'
p1476
aS'you'
p1477
aaa(lp1478
g1474
a(lp1479
S'that'
p1480
aS'that'
p1481
aS'man'
p1482
aaa(lp1483
g1474
a(lp1484
S'once'
p1485
aS'he'
p1486
aS'was'
p1487
aS'delivered'
p1488
aaa(lp1489
g1474
a(lp1490
S'was'
p1491
aS'seated'
p1492
aS'clothed'
p1493
aaa(lp1494
g1474
a(lp1495
S'and'
p1496
aS'in'
p1497
aS'his'
p1498
aS'right'
p1499
aS'mind'
p1500
aaa(lp1501
S'MANY'
p1502
a(lp1503
aa(lp1504
S'JEFF'
p1505
a(lp1506
S'Uh'
p1507
aS'and'
p1508
aaa(lp1509
g1505
a(lp1510
S'And'
p1511
aS'well'
p1512
aS'pass'
p1513
aS'over'
p1514
aS'other'
p1515
aS'uh'
p1516
aS'uh'
p1517
aS'Scriptural'
p1518
aS'accounts'
p1519
aaa(lp1520
S'AUD'
p1521
a(lp1522
aa(lp1523
S'JEFF'
p1524
a(lp1525
S'like'
p1526
aS'the'
p1527
aS'lame'
p1528
aS'man'
p1529
aS'healed'
p1530
aaa(lp1531
g1524
a(lp1532
S'by'
p1533
aS'the'
p1534
aS'Beautiful'
p1535
aS'Gate'
p1536
aS'at'
p1537
aS'the'
p1538
aS'temple'
p1539
aaa(lp1540
g1524
a(lp1541
S'who'
p1542
aS'went'
p1543
aS'in'
p1544
aS'leaping'
p1545
aS'and'
p1546
aS'dancing'
p1547
aS'and'
p1548
aS'praising'
p1549
aS'the'
p1550
aS'Lord'
p1551
aaa(lp1552
S'MANY'
p1553
a(lp1554
aa(lp1555
S'JEFF'
p1556
a(lp1557
S'See'
p1558
aS'that'
p1559
aaa(lp1560
g1556
a(lp1561
S'uh'
p1562
aS'thats'
p1563
ag273
aS'little'
p1564
aS'different'
p1565
aaa(lp1566
g1556
a(lp1567
S'but'
p1568
aaa(lp1569
g1556
a(lp1570
S'But'
p1571
aS'uh'
p1572
aS'you'
p1573
aS'Presbyterians'
p1574
aS'want'
p1575
aS'to'
p1576
aS'do'
p1577
aS'everything'
p1578
aS'decently'
p1579
aS'and'
p1580
aS'in'
p1581
aS'order'
p1582
aaa(lp1583
g1556
a(lp1584
S'Uh'
p1585
aS'but'
p1586
aaa(lp1587
g1556
a(lp1588
S'but'
p1589
aS'the'
p1590
aS'Holy'
p1591
aS'Spirit'
p1592
aaa(lp1593
g1556
a(lp1594
S'remember'
p1595
aaa(lp1596
g1556
a(lp1597
S'is'
p1598
aS'the'
p1599
aS'spirit'
p1600
aS'of'
p1601
aS'both'
p1602
aaa(lp1603
g1556
a(lp1604
S'Right'
p1605
aaa(lp1606
g1556
a(lp1607
S'Hes'
p1608
aS'the'
p1609
aS'spirit'
p1610
aS'of'
p1611
aS'order'
p1612
aaa(lp1613
g1556
a(lp1614
S'hes'
p1615
aS'the'
p1616
aS'spirit'
p1617
aS'of'
p1618
aS'ardor'
p1619
aaa(lp1620
g1556
a(lp1621
S'And'
p1622
aS'and'
p1623
aS'the'
p1624
aS'Holy'
p1625
aS'Spirit'
p1626
aaa(lp1627
g1556
a(lp1628
S'uh'
p1629
aS'uh'
p1630
aS's'
p1631
aS'the'
p1632
aS'one'
p1633
aaa(lp1634
g1556
a(lp1635
S'uh'
p1636
aS'who'
p1637
aS'has'
p1638
aS'uh'
p1639
aaa(lp1640
g1556
a(lp1641
S'ordered'
p1642
aS'our'
p1643
aS'lives'
p1644
aaa(lp1645
g1556
a(lp1646
S'And'
p1647
aS'as'
p1648
aS'he'
p1649
aS'possesses'
p1650
aS'us'
p1651
aaa(lp1652
g1556
a(lp1653
S'He'
p1654
aS'orders'
p1655
aS'us'
p1656
aaa(lp1657
g1556
a(lp1658
S'And'
p1659
aS'he'
p1660
aS'gives'
p1661
aS'us'
p1662
aS'the'
p1663
aS'order'
p1664
aS'of'
p1665
aS'love'
p1666
aaa(lp1667
g1556
a(lp1668
S'If'
p1669
aS'you'
p1670
aS'love'
p1671
aS'me'
p1672
aaa(lp1673
g1556
a(lp1674
S'Jesus'
p1675
aS'said'
p1676
aaa(lp1677
g1556
a(lp1678
S'keep'
p1679
aS'my'
p1680
aS'commandments'
p1681
aaa(lp1682
g1556
a(lp1683
S'Uh'
p1684
ag9
aS'wanna'
p1685
aS'say'
p1686
ag273
aS'little'
p1687
aS'bit'
p1688
aS'more'
p1689
aS'about'
p1690
aS'that'
p1691
aS'in'
p1692
ag273
aS'moment'
p1693
aaa(lp1694
g1556
a(lp1695
S'The'
p1696
aS'obedience'
p1697
aS'of'
p1698
aS'love'
p1699
aaa(lp1700
g1556
a(lp1701
S'But'
p1702
aS'the'
p1703
aS'Holy'
p1704
aS'Spirit'
p1705
aS'is'
p1706
aS'the'
p1707
aS'one'
p1708
aS'who'
p1709
aS'orders'
p1710
aS'our'
p1711
aS'lives'
p1712
aaa(lp1713
g1556
a(lp1714
S'uh'
p1715
aaa(lp1716
g1556
a(lp1717
S'ontrols'
p1718
aS'our'
p1719
aS'lives'
p1720
aaa(lp1721
g1556
a(lp1722
S'is'
p1723
aS'in'
p1724
aS'possession'
p1725
aS'of'
p1726
aS'our'
p1727
aS'lives'
p1728
aaa(lp1729
g1556
a(lp1730
S'but'
p1731
aS'the'
p1732
aS'Holy'
p1733
aS'Spirits'
p1734
aS'also'
p1735
aS'given'
p1736
aS'to'
p1737
aS'us'
p1738
aaa(lp1739
g1556
a(lp1740
S'see'
p1741
aaa(lp1742
g1556
a(lp1743
S'hes'
p1744
aS'not'
p1745
aS'only'
p1746
aS'the'
p1747
aS'possessor'
p1748
aaa(lp1749
g1556
a(lp1750
S'hes'
p1751
aS'also'
p1752
aS'the'
p1753
aS'one'
p1754
aS'who'
p1755
aS'is'
p1756
aS'possessed'
p1757
aaa(lp1758
g1556
a(lp1759
S'We'
p1760
aS'possess'
p1761
aS'him'
p1762
aaa(lp1763
g1556
a(lp1764
S'He'
p1765
aS'dwells'
p1766
aS'in'
p1767
aS'our'
p1768
aS'hearts'
p1769
aaa(lp1770
g1556
a(lp1771
S'Uh'
p1772
aaa(lp1773
g1556
a(lp1774
S'we'
p1775
aS'have'
p1776
aS'not'
p1777
aS'only'
p1778
aS'the'
p1779
aS'gifts'
p1780
aS'of'
p1781
aS'the'
p1782
aS'Spirit'
p1783
aaa(lp1784
g1556
a(lp1785
S'in'
p1786
aS'the'
p1787
aS'plural'
p1788
aaa(lp1789
g1556
a(lp1790
S'but'
p1791
aS'we'
p1792
aS'have'
p1793
aS'the'
p1794
aS'gift'
p1795
aS'of'
p1796
aS'the'
p1797
aS'Spirit'
p1798
aaa(lp1799
g1556
a(lp1800
S'We'
p1801
aS'have'
p1802
aS'the'
p1803
aS'Holy'
p1804
aS'Spirit'
p1805
aS'himself'
p1806
aaa(lp1807
g1556
a(lp1808
S'given'
p1809
aS'to'
p1810
aS'us'
p1811
aaa(lp1812
g1556
a(lp1813
S'The'
p1814
aS'promise'
p1815
aS'of'
p1816
aS'the'
p1817
aS'Father'
p1818
aaa(lp1819
g1556
a(lp1820
S'Uh'
p1821
aS'they'
p1822
aS'the'
p1823
aS'disciples'
p1824
aS'were'
p1825
aS'to'
p1826
aS'wait'
p1827
aaa(lp1828
g1556
a(lp1829
S'until'
p1830
aS'that'
p1831
aS'great'
p1832
aS'promise'
p1833
aS'was'
p1834
aS'given'
p1835
aaa(lp1836
g1556
a(lp1837
S'the'
p1838
aS'gift'
p1839
aS'of'
p1840
aS'the'
p1841
aS'Holy'
p1842
aS'Spirit'
p1843
aaa(lp1844
g1556
a(lp1845
S'And'
p1846
aS'so'
p1847
aS'the'
p1848
aS'Holy'
p1849
aS'Spirit'
p1850
aS'given'
p1851
aS'to'
p1852
aS'us'
p1853
aaa(lp1854
g1556
a(lp1855
S'uh'
p1856
aS'f'
p1857
aaa(lp1858
g1556
a(lp1859
S'works'
p1860
aS'in'
p1861
aS'us'
p1862
aaa(lp1863
g1556
a(lp1864
S'Uh'
p1865
aaa(lp1866
g1556
a(lp1867
S'that'
p1868
aS'sense'
p1869
aS'of'
p1870
aS'the'
p1871
aS'presence'
p1872
aS'of'
p1873
aS'Gods'
p1874
aS'love'
p1875
aaa(lp1876
g1556
a(lp1877
S'And'
p1878
aS'thats'
p1879
aS'why'
p1880
aS'uh'
p1881
aS'Paul'
p1882
aS'says'
p1883
aaa(lp1884
g1556
a(lp1885
S'in'
p1886
aS'Romans'
p1887
aS'five'
p1888
aaa(lp1889
g1556
a(lp1890
S'that'
p1891
aS'God'
p1892
aS'pours'
p1893
aS'out'
p1894
aS'his'
p1895
aS'love'
p1896
aS'in'
p1897
aS'our'
p1898
aS'hearts'
p1899
aaa(lp1900
g1556
a(lp1901
S'By'
p1902
aS'the'
p1903
aS'Holy'
p1904
aS'Spirit'
p1905
aaa(lp1906
g1556
a(lp1907
S'Now'
p1908
aaa(lp1909
g1556
a(lp1910
S'there'
p1911
aaa(lp1912
g1556
a(lp1913
S'the'
p1914
aS'love'
p1915
aS'thats'
p1916
aS'poured'
p1917
aS'out'
p1918
aaa(lp1919
g1556
a(lp1920
S'does'
p1921
aS'not'
p1922
aS'describe'
p1923
aS'the'
p1924
aS'love'
p1925
aS'that'
p1926
aS'we'
p1927
aS'have'
p1928
aS'for'
p1929
aS'God'
p1930
aaa(lp1931
g1556
a(lp1932
S'although'
p1933
aS'that'
p1934
aS'is'
p1935
aS'the'
p1936
aS'fruit'
p1937
aS'of'
p1938
aS'the'
p1939
aS'Spirit'
p1940
aS'you'
p1941
aS'know'
p1942
aaa(lp1943
g1556
a(lp1944
S'love'
p1945
aS'joy'
p1946
aS'peace'
p1947
aS'so'
p1948
aS'on'
p1949
aaa(lp1950
g1556
a(lp1951
S'Uh'
p1952
aaa(lp1953
g1556
a(lp1954
S'but'
p1955
aS'n'
p1956
aS'that'
p1957
aS'passage'
p1958
aaa(lp1959
g1556
a(lp1960
S'in'
p1961
aS'Romans'
p1962
aS'five'
p1963
aaa(lp1964
g1556
a(lp1965
S'Paul'
p1966
aS'isnt'
p1967
aS'talking'
p1968
aS'about'
p1969
aS'uh'
p1970
aaa(lp1971
g1556
a(lp1972
S'the'
p1973
aS'gift'
p1974
aS'of'
p1975
aS'love'
p1976
aS'that'
p1977
aS'we'
p1978
aS'have'
p1979
aS'for'
p1980
aS'God'
p1981
aaa(lp1982
g1556
a(lp1983
S'hes'
p1984
aS'talking'
p1985
aS'about'
p1986
aS'the'
p1987
aS'gift'
p1988
aS'of'
p1989
aS'love'
p1990
aS'that'
p1991
aS'God'
p1992
aS'has'
p1993
aS'for'
p1994
aS'us'
p1995
aaa(lp1996
g1556
a(lp1997
S'Because'
p1998
aS'he'
p1999
aS'goes'
p2000
aS'on'
p2001
aS'to'
p2002
aS'describe'
p2003
aS'that'
p2004
aS'love'
p2005
aS'of'
p2006
aS'God'
p2007
aaa(lp2008
g1556
a(lp2009
S'God'
p2010
aS'commends'
p2011
aS'his'
p2012
aS'love'
p2013
aS'toward'
p2014
aS'us'
p2015
aaa(lp2016
g1556
a(lp2017
S'in'
p2018
aS'that'
p2019
aS'while'
p2020
aS'we'
p2021
aS'were'
p2022
aS'yet'
p2023
aS'sinners'
p2024
aS'Christ'
p2025
aS'died'
p2026
aS'for'
p2027
aS'us'
p2028
aaa(lp2029
g1556
a(lp2030
S'So'
p2031
aS'its'
p2032
aS'Gods'
p2033
aS'love'
p2034
aS'for'
p2035
aS'us'
p2036
aaa(lp2037
g1556
a(lp2038
S'thats'
p2039
aS'poured'
p2040
aS'out'
p2041
aS'in'
p2042
aS'our'
p2043
aS'hearts'
p2044
aaa(lp2045
g1556
a(lp2046
S'by'
p2047
aS'the'
p2048
aS'Holy'
p2049
aS'Spirit'
p2050
aS'given'
p2051
aS'to'
p2052
aS'us'
p2053
aaa(lp2054
g1556
a(lp2055
S'Which'
p2056
aS'is'
p2057
aS'uh'
p2058
aaa(lp2059
g1556
a(lp2060
S'again'
p2061
aaa(lp2062
g1556
a(lp2063
S'uh'
p2064
aaa(lp2065
g1556
a(lp2066
g273
aS'wonderful'
p2067
aS'reality'
p2068
aaa(lp2069
g1556
a(lp2070
S'Because'
p2071
aaa(lp2072
g1556
a(lp2073
S'if'
p2074
aS'God'
p2075
aS'didnt'
p2076
aS'do'
p2077
aS'that'
p2078
aaa(lp2079
g1556
a(lp2080
S'uh'
p2081
aaa(lp2082
g1556
a(lp2083
S'we'
p2084
aS'wouldnt'
p2085
aS'have'
p2086
ag273
aS'love'
p2087
aS'for'
p2088
aS'God'
p2089
aaa(lp2090
g1556
a(lp2091
S'Theres'
p2092
aS'no'
p2093
aS'spring'
p2094
aS'of'
p2095
aS'that'
p2096
aS'divine'
p2097
aS'love'
p2098
aS'within'
p2099
aS'us'
p2100
aaa(lp2101
g1556
a(lp2102
S'It'
p2103
aS'comes'
p2104
aS'from'
p2105
aS'him'
p2106
aaa(lp2107
g1556
a(lp2108
S'And'
p2109
aS'it'
p2110
aS'does'
p2111
aS'come'
p2112
aS'from'
p2113
aS'him'
p2114
aaa(lp2115
g1556
a(lp2116
S'and'
p2117
aS'he'
p2118
aS'does'
p2119
aS'give'
p2120
aS'it'
p2121
aaa(lp2122
g1556
a(lp2123
S'uh'
p2124
aS'adoption'
p2125
aaa(lp2126
g1556
a(lp2127
S'The'
p2128
aS'spirit'
p2129
aS'of'
p2130
aS'sonship'
p2131
aaa(lp2132
g1556
a(lp2133
S'Now'
p2134
aaa(lp2135
g1556
a(lp2136
S'to'
p2137
aS'be'
p2138
aS'the'
p2139
aS'spirit'
p2140
aS'of'
p2141
aS'sonship'
p2142
aaa(lp2143
g1556
a(lp2144
S'he'
p2145
aS'has'
p2146
aS'to'
p2147
aS'be'
p2148
aS'also'
p2149
aS'the'
p2150
aS'spirit'
p2151
aS'of'
p2152
aS'fatherhood'
p2153
aaa(lp2154
g1556
a(lp2155
S'right'
p2156
aaa(lp2157
g1556
a(lp2158
S'Uh'
p2159
aS'to'
p2160
aS'make'
p2161
aS'us'
p2162
aS'POUND'
p2163
aS'aware'
p2164
aS'POUND'
p2165
aaa(lp2166
g1556
a(lp2167
S'that'
p2168
aS'we'
p2169
aS'are'
p2170
aS'children'
p2171
aS'of'
p2172
aS'God'
p2173
aaa(lp2174
g1556
a(lp2175
S'uh'
p2176
aS'we'
p2177
aS'have'
p2178
aS'to'
p2179
aS'know'
p2180
aaa(lp2181
g1556
a(lp2182
S'that'
p2183
aS'he'
p2184
aS'is'
p2185
aS'our'
p2186
aS'father'
p2187
aaa(lp2188
g1556
a(lp2189
S'And'
p2190
aS'so'
p2191
aaa(lp2192
g1556
a(lp2193
S'it'
p2194
aS'is'
p2195
aS'the'
p2196
aS'love'
p2197
aS'of'
p2198
aS'God'
p2199
aaa(lp2200
g1556
a(lp2201
S'made'
p2202
aS'real'
p2203
aS'to'
p2204
aS'our'
p2205
aS'hearts'
p2206
aaa(lp2207
g1556
a(lp2208
S'the'
p2209
aS'knowledge'
p2210
aS'that'
p2211
aS'he'
p2212
aS'does'
p2213
aS'love'
p2214
aS'us'
p2215
aaa(lp2216
g1556
a(lp2217
S'that'
p2218
aS'he'
p2219
aS'is'
p2220
aS'present'
p2221
aS'with'
p2222
aS'us'
p2223
aaa(lp2224
g1556
a(lp2225
S'that'
p2226
aS'uh'
p2227
aS'becomes'
p2228
aS'of'
p2229
aS'course'
p2230
aS'then'
p2231
aS'the'
p2232
aS'source'
p2233
aaa(lp2234
g1556
a(lp2235
S'of'
p2236
aS'our'
p2237
aS'uh'
p2238
aS'love'
p2239
aS'toward'
p2240
aS'him'
p2241
aaa(lp2242
g1556
a(lp2243
S'Um'
p2244
aaa(lp2245
g1556
a(lp2246
S'uh'
p2247
aS'friends'
p2248
aaa(lp2249
S'AUD'
p2250
a(lp2251
aa(lp2252
S'JEFF'
p2253
a(lp2254
S'uh'
p2255
aaa(lp2256
g2253
a(lp2257
S'theres'
p2258
aaa(lp2259
g2253
a(lp2260
S'theres'
p2261
aS'nothing'
p2262
aS'more'
p2263
aS'important'
p2264
aaa(lp2265
g2253
a(lp2266
S'For'
p2267
aS'the'
p2268
aS'whole'
p2269
aS'balance'
p2270
aaa(lp2271
g2253
a(lp2272
S'and'
p2273
aS'stability'
p2274
aaa(lp2275
g2253
a(lp2276
S'and'
p2277
aS'progress'
p2278
aaa(lp2279
g2253
a(lp2280
S'and'
p2281
aS'growth'
p2282
aaa(lp2283
g2253
a(lp2284
S'of'
p2285
aS'our'
p2286
aS'Christian'
p2287
aS'lives'
p2288
aaa(lp2289
g2253
a(lp2290
S'Than'
p2291
aaa(lp2292
g2253
a(lp2293
S'to'
p2294
aS'realize'
p2295
aaa(lp2296
g2253
a(lp2297
S'again'
p2298
aaa(lp2299
g2253
a(lp2300
S'and'
p2301
aS'again'
p2302
aaa(lp2303
g2253
a(lp2304
S'and'
p2305
aS'again'
p2306
aaa(lp2307
g2253
a(lp2308
S'the'
p2309
aS'uh'
p2310
aaa(lp2311
g2253
a(lp2312
S'the'
p2313
aS'wonder'
p2314
aaa(lp2315
g2253
a(lp2316
S'of'
p2317
aS'our'
p2318
aS'union'
p2319
aS'with'
p2320
aS'Jesus'
p2321
aS'Christ'
p2322
aaa(lp2323
g2253
a(lp2324
S'Through'
p2325
aS'the'
p2326
aS'Spirit'
p2327
aaa(lp2328
g2253
a(lp2329
S'Because'
p2330
aS'its'
p2331
aS'in'
p2332
aS'Jesus'
p2333
aS'Christ'
p2334
aS'that'
p2335
aS'we'
p2336
aS'are'
p2337
aS'united'
p2338
aS'to'
p2339
aS'the'
p2340
aS'Father'
p2341
aaa(lp2342
g2253
a(lp2343
S'and'
p2344
aS'it'
p2345
aS'is'
p2346
aS'by'
p2347
aS'the'
p2348
aS'Spirit'
p2349
aS'that'
p2350
aS'Christ'
p2351
aS'is'
p2352
aS'present'
p2353
aS'in'
p2354
aS'our'
p2355
aS'hearts'
p2356
aaa(lp2357
g2253
a(lp2358
S'and'
p2359
aS'its'
p2360
aS'by'
p2361
aS'the'
p2362
aS'Spirit'
p2363
aS'that'
p2364
aS'the'
p2365
aS'Father'
p2366
aS'is'
p2367
aS'present'
p2368
aS'in'
p2369
aS'our'
p2370
aS'hearts'
p2371
aaa(lp2372
g2253
a(lp2373
S'Two'
p2374
aS'aspects'
p2375
aS'of'
p2376
aS'union'
p2377
aS'with'
p2378
aS'Christ'
p2379
aaa(lp2380
g2253
a(lp2381
g590
ag9
aS'think'
p2382
aS'you'
p2383
aS'all'
p2384
aS'know'
p2385
aS'this'
p2386
aS'theology'
p2387
aaa(lp2388
g2253
a(lp2389
S'but'
p2390
aS'it'
p2391
aS'always'
p2392
aS'pays'
p2393
aS'X'
p2394
aS'to'
p2395
ag2394
aS'think'
p2396
aS'about'
p2397
aS'it'
p2398
aS'again'
p2399
aaa(lp2400
g2253
a(lp2401
S'The'
p2402
aS'representative'
p2403
aS'union'
p2404
aaa(lp2405
g2253
a(lp2406
S'the'
p2407
aS'vital'
p2408
aS'union'
p2409
aaa(lp2410
g2253
a(lp2411
S'The'
p2412
aS'representative'
p2413
aS'union'
p2414
aaa(lp2415
g2253
a(lp2416
S'The'
p2417
aS'basis'
p2418
aS'of'
p2419
aS'our'
p2420
aS'salvation'
p2421
aaa(lp2422
g2253
a(lp2423
S'When'
p2424
aS'Christ'
p2425
aS'died'
p2426
aaa(lp2427
g2253
a(lp2428
S'we'
p2429
aS'died'
p2430
aaa(lp2431
g2253
a(lp2432
S'Because'
p2433
aS'he'
p2434
aS'died'
p2435
aS'for'
p2436
aS'us'
p2437
aaa(lp2438
g2253
a(lp2439
S'He'
p2440
aS'died'
p2441
aS'as'
p2442
aS'our'
p2443
aS'representative'
p2444
aaa(lp2445
g2253
a(lp2446
S'he'
p2447
aS'died'
p2448
aS'in'
p2449
aS'our'
p2450
aS'place'
p2451
aaa(lp2452
g2253
a(lp2453
S'uh'
p2454
aS'he'
p2455
aS'died'
p2456
aS'as'
p2457
aS'uh'
p2458
aaa(lp2459
g2253
a(lp2460
S'uh'
p2461
aS'the'
p2462
aS'one'
p2463
aaa(lp2464
g2253
a(lp2465
S'uh'
p2466
aS'who'
p2467
aS'bore'
p2468
aS'our'
p2469
aS'sins'
p2470
aaa(lp2471
g2253
a(lp2472
S'In'
p2473
aS'his'
p2474
aS'own'
p2475
aS'body'
p2476
aaa(lp2477
g2253
a(lp2478
S'on'
p2479
aS'the'
p2480
aS'tree'
p2481
aaa(lp2482
g2253
a(lp2483
S'So'
p2484
aS'he'
p2485
aS'was'
p2486
aS'our'
p2487
aS'representative'
p2488
aaa(lp2489
g2253
a(lp2490
S'Right'
p2491
aaa(lp2492
g2253
a(lp2493
S'And'
p2494
aS'he'
p2495
aS'represented'
p2496
aS'us'
p2497
aaa(lp2498
g2253
a(lp2499
S'not'
p2500
aS'only'
p2501
aS'as'
p2502
aS'Paul'
p2503
aS'teaches'
p2504
aaa(lp2505
g2253
a(lp2506
S'not'
p2507
aS'only'
p2508
aS'when'
p2509
aS'he'
p2510
aS'died'
p2511
aS'for'
p2512
aS'us'
p2513
aaa(lp2514
g2253
a(lp2515
S'but'
p2516
aS'when'
p2517
aS'he'
p2518
aS'rose'
p2519
aS'for'
p2520
aS'us'
p2521
aaa(lp2522
g2253
a(lp2523
S'And'
p2524
aS'then'
p2525
aS'he'
p2526
aS'ascended'
p2527
aaa(lp2528
g2253
a(lp2529
S'into'
p2530
aS'the'
p2531
aS'heavenly'
p2532
aS'places'
p2533
aaa(lp2534
g2253
a(lp2535
S'and'
p2536
aS'where'
p2537
aS'he'
p2538
aS'is'
p2539
aaa(lp2540
g2253
a(lp2541
S'we'
p2542
aS'are'
p2543
aaa(lp2544
g2253
a(lp2545
S'And'
p2546
aS'thats'
p2547
aS'why'
p2548
aS'Paul'
p2549
aS'says'
p2550
aS'in'
p2551
aS'Ephesians'
p2552
aaa(lp2553
g2253
a(lp2554
S'that'
p2555
aS'we'
p2556
aS'are'
p2557
aS'in'
p2558
aS'the'
p2559
aS'heavenly'
p2560
aS'places'
p2561
aaa(lp2562
g2253
a(lp2563
S'in'
p2564
aS'Christ'
p2565
aS'Jesus'
p2566
aaa(lp2567
g2253
a(lp2568
S'Why'
p2569
aaa(lp2570
g2253
a(lp2571
S'Representatively'
p2572
aaa(lp2573
g2253
a(lp2574
S'Where'
p2575
aS'he'
p2576
aS'is'
p2577
aaa(lp2578
g2253
a(lp2579
S'we'
p2580
aS'are'
p2581
aaa(lp2582
g2253
a(lp2583
S'Now'
p2584
aaa(lp2585
g2253
a(lp2586
S'thats'
p2587
ag273
aS'tremendously'
p2588
aaa(lp2589
g2253
a(lp2590
S'important'
p2591
aS'of'
p2592
aS'course'
p2593
aaa(lp2594
g2253
a(lp2595
S'foundational'
p2596
aaa(lp2597
g2253
a(lp2598
S'lifetransforming'
p2599
aS'truth'
p2600
aaa(lp2601
g2253
a(lp2602
S'See'
p2603
aaa(lp2604
g2253
a(lp2605
S'you'
p2606
aS'are'
p2607
ag273
ag273
aS'new'
p2608
aS'creature'
p2609
aS'in'
p2610
aS'Christ'
p2611
aaa(lp2612
g2253
a(lp2613
S'because'
p2614
aS'youre'
p2615
aS'united'
p2616
aS'to'
p2617
aS'him'
p2618
aaa(lp2619
g2253
a(lp2620
S'You'
p2621
aS'have'
p2622
aS'triumphed'
p2623
aS'over'
p2624
aS'sin'
p2625
aS'and'
p2626
aS'death'
p2627
aaa(lp2628
g2253
a(lp2629
S'You'
p2630
aS'have'
p2631
aS'died'
p2632
aS'to'
p2633
aS'sin'
p2634
aaa(lp2635
g2253
a(lp2636
S'And'
p2637
aS'Pauls'
p2638
aS'reasoning'
p2639
aS'about'
p2640
aS'how'
p2641
aS'we'
p2642
aS'ought'
p2643
aS'to'
p2644
aS'live'
p2645
aaa(lp2646
g2253
a(lp2647
S'is'
p2648
aS'always'
p2649
aS'grounded'
p2650
aS'in'
p2651
aS'that'
p2652
aaa(lp2653
S'AUD'
p2654
a(lp2655
aa(lp2656
S'JEFF'
p2657
a(lp2658
S'Uh'
p2659
aS'you'
p2660
aS'know'
p2661
aaa(lp2662
g2657
a(lp2663
S'in'
p2664
aS'Colossians'
p2665
aaa(lp2666
g2657
a(lp2667
S'Uh'
p2668
aaa(lp2669
g2657
a(lp2670
S'its'
p2671
aS'because'
p2672
aaa(lp2673
g2657
a(lp2674
S'Christ'
p2675
aS'rose'
p2676
aaa(lp2677
g2657
a(lp2678
S'that'
p2679
aS'we'
p2680
aS'are'
p2681
aS'to'
p2682
aS'seek'
p2683
aS'the'
p2684
aS'things'
p2685
aS'which'
p2686
aS'are'
p2687
aS'above'
p2688
aaa(lp2689
g2657
a(lp2690
S'You'
p2691
aS'are'
p2692
aS'risen'
p2693
aS'with'
p2694
aS'Christ'
p2695
aaa(lp2696
g2657
a(lp2697
S'Seek'
p2698
aS'the'
p2699
aS'things'
p2700
aS'which'
p2701
aS'are'
p2702
aS'above'
p2703
aaa(lp2704
g2657
a(lp2705
S'Because'
p2706
aS'you'
p2707
aS'died'
p2708
aS'with'
p2709
aS'Christ'
p2710
aaa(lp2711
g2657
a(lp2712
S'therefore'
p2713
aS'mortify'
p2714
aS'sin'
p2715
aS'in'
p2716
aS'your'
p2717
aS'members'
p2718
aaa(lp2719
g2657
a(lp2720
S'Put'
p2721
aS'to'
p2722
aS'death'
p2723
aS'sin'
p2724
aaa(lp2725
g2657
a(lp2726
S'because'
p2727
aS'it'
p2728
aS'has'
p2729
aS'died'
p2730
aaa(lp2731
g2657
a(lp2732
S'In'
p2733
aS'other'
p2734
aS'words'
p2735
aaa(lp2736
g2657
a(lp2737
S'the'
p2738
aS'imperative'
p2739
aS'is'
p2740
aS'always'
p2741
aS'grounded'
p2742
aS'in'
p2743
aS'the'
p2744
aS'indicative'
p2745
aaa(lp2746
g2657
a(lp2747
S'Because'
p2748
aS'of'
p2749
aS'what'
p2750
aS'Christ'
p2751
aS'did'
p2752
aS'for'
p2753
aS'us'
p2754
aaa(lp2755
g2657
a(lp2756
S'therefore'
p2757
aaa(lp2758
g2657
a(lp2759
S'uh'
p2760
aS'we'
p2761
aS'live'
p2762
aS'out'
p2763
aS'of'
p2764
aS'the'
p2765
aS'fact'
p2766
aaa(lp2767
g2657
a(lp2768
S'the'
p2769
aS'reality'
p2770
aaa(lp2771
g2657
a(lp2772
S'the'
p2773
aS'accomplishment'
p2774
aaa(lp2775
g2657
a(lp2776
S'of'
p2777
aS'his'
p2778
aS'perfect'
p2779
aS'work'
p2780
aaa(lp2781
g2657
a(lp2782
S'And'
p2783
aS'dont'
p2784
aS'forget'
p2785
aaa(lp2786
g2657
a(lp2787
S'Jesus'
p2788
aS'not'
p2789
aS'only'
p2790
aS'paid'
p2791
aS'the'
p2792
aS'price'
p2793
aS'of'
p2794
aS'your'
p2795
aS'sins'
p2796
aaa(lp2797
g2657
a(lp2798
S'That'
p2799
aS'the'
p2800
aS'white'
p2801
aS'robe'
p2802
aS'of'
p2803
aS'righteousness'
p2804
aaa(lp2805
g2657
a(lp2806
S'that'
p2807
aS'you'
p2808
aS'wear'
p2809
aS'in'
p2810
aS'that'
p2811
aS'last'
p2812
aS'day'
p2813
aaa(lp2814
g2657
a(lp2815
S'is'
p2816
aS'the'
p2817
aS'robe'
p2818
aS'of'
p2819
aS'Christs'
p2820
aS'righteousness'
p2821
aaa(lp2822
g2657
a(lp2823
S'So'
p2824
aaa(lp2825
g2657
a(lp2826
S'its'
p2827
aS'all'
p2828
aS'that'
p2829
aS'Christ'
p2830
aS'MRC'
p2831
aS'did'
p2832
aS'for'
p2833
aS'you'
p2834
aS'MRC'
p2835
aaa(lp2836
g2657
a(lp2837
S'Uh'
p2838
aS'let'
p2839
aS'it'
p2840
aS'be'
p2841
aS'done'
p2842
aS'to'
p2843
aS'fill'
p2844
aS'all'
p2845
aS'righteousness'
p2846
aaa(lp2847
g2657
a(lp2848
S'The'
p2849
aS'righteousness'
p2850
aS'he'
p2851
aS'had'
p2852
aS'to'
p2853
aS'fill'
p2854
aS'for'
p2855
aS'you'
p2856
aaa(lp2857
g2657
a(lp2858
S'See'
p2859
aS'he'
p2860
aS'he'
p2861
aS'did'
p2862
aS'it'
p2863
aS'all'
p2864
aS'for'
p2865
aS'you'
p2866
aaa(lp2867
g2657
a(lp2868
S'But'
p2869
aS'then'
p2870
aS'of'
p2871
aS'course'
p2872
aS'the'
p2873
aS'other'
p2874
aS'side'
p2875
aS'of'
p2876
aS'it'
p2877
aS'is'
p2878
aaa(lp2879
g2657
a(lp2880
S'its'
p2881
aS'not'
p2882
aS'only'
p2883
aS'representative'
p2884
aaa(lp2885
g2657
a(lp2886
S'its'
p2887
aS'also'
p2888
aS'vital'
p2889
aaa(lp2890
g2657
a(lp2891
S'Jesus'
p2892
aS'Christ'
p2893
aS'is'
p2894
aS'the'
p2895
aS'vine'
p2896
aaa(lp2897
g2657
a(lp2898
S'and'
p2899
aS'we'
p2900
aS'are'
p2901
aS'the'
p2902
aS'branches'
p2903
aaa(lp2904
g2657
a(lp2905
S'Y'
p2906
aS'were'
p2907
aS'united'
p2908
aS'to'
p2909
aS'him'
p2910
aaa(lp2911
g2657
a(lp2912
S'Our'
p2913
aS'life'
p2914
aS'is'
p2915
aS'drawn'
p2916
aS'from'
p2917
aS'Christ'
p2918
aaa(lp2919
g2657
a(lp2920
S'There'
p2921
aS'is'
p2922
aS'the'
p2923
aS'uh'
p2924
aaa(lp2925
g2657
a(lp2926
S'the'
p2927
aS'the'
p2928
aS'legal'
p2929
aS'uh'
p2930
aS'aspect'
p2931
aS'of'
p2932
aS'that'
p2933
aS'which'
p2934
aS'Christ'
p2935
aS'did'
p2936
aS'for'
p2937
aS'us'
p2938
aaa(lp2939
g2657
a(lp2940
S'as'
p2941
aS'our'
p2942
aS'representative'
p2943
aaa(lp2944
g2657
a(lp2945
S'there'
p2946
aS'is'
p2947
aS'the'
p2948
aS'vital'
p2949
aS'aspect'
p2950
aaa(lp2951
g2657
a(lp2952
S'of'
p2953
aS'what'
p2954
aS'Christ'
p2955
aS'does'
p2956
aS'in'
p2957
aS'us'
p2958
aaa(lp2959
g2657
a(lp2960
S'as'
p2961
aS'he'
p2962
aS'lives'
p2963
aS'in'
p2964
aS'us'
p2965
aaa(lp2966
g2657
a(lp2967
S'and'
p2968
aS'dwells'
p2969
aS'in'
p2970
aS'us'
p2971
aaa(lp2972
g2657
a(lp2973
S'and'
p2974
aS'has'
p2975
aS'fellowship'
p2976
aS'with'
p2977
aS'us'
p2978
aaa(lp2979
g2657
a(lp2980
S'and'
p2981
aS'and'
p2982
aS'we'
p2983
aS'walk'
p2984
aS'with'
p2985
aS'him'
p2986
aaa(lp2987
g2657
a(lp2988
S'Uh'
p2989
aaa(lp2990
g2657
a(lp2991
S'uh'
p2992
aS'every'
p2993
aaa(lp2994
g2657
a(lp2995
S'uh'
p2996
aS'y'
p2997
ag2997
aS'you'
p2998
aS'know'
p2999
aaa(lp3000
g2657
a(lp3001
g590
aS'ts'
p3002
aS'uh'
p3003
aaa(lp3004
g2657
a(lp3005
S'its'
p3006
aS'been'
p3007
aS'long'
p3008
aS'fashionable'
p3009
aS'in'
p3010
aS'theological'
p3011
aS'circles'
p3012
aS'to'
p3013
aS'uh'
p3014
aaa(lp3015
g2657
a(lp3016
S'sniff'
p3017
aS'at'
p3018
aS'the'
p3019
aS'hymn'
p3020
aaa(lp3021
g2657
a(lp3022
S'uh'
p3023
ag9
aS'walked'
p3024
aS'in'
p3025
aS'the'
p3026
aS'garden'
p3027
aS'alone'
p3028
aaa(lp3029
g2657
a(lp3030
S'while'
p3031
aS'the'
p3032
aS'dew'
p3033
aS'was'
p3034
aS'still'
p3035
aS'on'
p3036
aS'the'
p3037
aS'roses'
p3038
aaa(lp3039
g2657
a(lp3040
S'you'
p3041
aS'know'
p3042
aaa(lp3043
g2657
a(lp3044
S'uh'
p3045
aS'all'
p3046
aS'this'
p3047
aS'uh'
p3048
aS'romantic'
p3049
aS'business'
p3050
aaa(lp3051
g2657
a(lp3052
S'and'
p3053
aS'uh'
p3054
aaa(lp3055
g2657
a(lp3056
S'and'
p3057
aS'not'
p3058
ag273
aS'shred'
p3059
aS'of'
p3060
aS'theology'
p3061
aS'in'
p3062
aS'the'
p3063
aS'whole'
p3064
aS'hymn'
p3065
aaa(lp3066
g2657
a(lp3067
S'and'
p3068
aS'yet'
p3069
aS'everybody'
p3070
aS'perversely'
p3071
aS'seems'
p3072
aS'to'
p3073
aS'love'
p3074
aS'it'
p3075
aaa(lp3076
g2657
a(lp3077
S'Uh'
p3078
aS'well'
p3079
aS'uh'
p3080
aaa(lp3081
g2657
a(lp3082
S'uh'
p3083
aaa(lp3084
g2657
a(lp3085
g9
ag9
ag9
aS'think'
p3086
aaa(lp3087
g2657
a(lp3088
g9
aS'think'
p3089
aS'the'
p3090
aS'reason'
p3091
aS'its'
p3092
aS'so'
p3093
aS'loved'
p3094
aaa(lp3095
g2657
a(lp3096
S'in'
p3097
aS'spite'
p3098
aS'of'
p3099
aS'its'
p3100
aS'uh'
p3101
aaa(lp3102
g2657
a(lp3103
S'uh'
p3104
aS'uh'
p3105
aS'theological'
p3106
aS'vacuity'
p3107
aaa(lp3108
g2657
a(lp3109
S'uh'
p3110
aS'is'
p3111
aS'that'
p3112
aS'its'
p3113
aS'uh'
p3114
aS'experientially'
p3115
aaa(lp3116
S'MANY'
p3117
a(lp3118
aa(lp3119
S'JEFF'
p3120
a(lp3121
S'uh'
p3122
aS'retty'
p3123
aS'much'
p3124
aS'on'
p3125
aS'target'
p3126
aaa(lp3127
g3120
a(lp3128
S'Weve'
p3129
aS'all'
p3130
aS'known'
p3131
aS'those'
p3132
aS'uh'
p3133
aS'precious'
p3134
aS'times'
p3135
aS'of'
p3136
aS'uh'
p3137
aS'of'
p3138
aS'genuine'
p3139
aS'fellowship'
p3140
aS'with'
p3141
aS'the'
p3142
aS'Lord'
p3143
aaa(lp3144
g3120
a(lp3145
S'that'
p3146
aS'uh'
p3147
aaa(lp3148
g3120
a(lp3149
S'that'
p3150
aaa(lp3151
g3120
a(lp3152
S'we'
p3153
aS'can'
p3154
aS'describe'
p3155
aS'only'
p3156
aS'with'
p3157
aS'great'
p3158
aS'difficulty'
p3159
aaa(lp3160
g3120
a(lp3161
S'And'
p3162
aS'uh'
p3163
aaa(lp3164
g3120
a(lp3165
S'its'
p3166
aS'true'
p3167
aaa(lp3168
g3120
a(lp3169
S'you'
p3170
aS'see'
p3171
aaa(lp3172
g3120
a(lp3173
S'uh'
p3174
aaa(lp3175
g3120
a(lp3176
S'we'
p3177
aS'are'
p3178
aS'vitally'
p3179
aS'united'
p3180
aS'to'
p3181
aS'Jesus'
p3182
aS'Christ'
p3183
aaa(lp3184
g3120
a(lp3185
S'Uh'
p3186
aS'we'
p3187
aS'do'
p3188
aS'know'
p3189
aS'him'
p3190
aaa(lp3191
g3120
a(lp3192
S'and'
p3193
aS'the'
p3194
aS'knowledge'
p3195
aS'that'
p3196
aS'we'
p3197
aS'have'
p3198
aS'of'
p3199
aS'him'
p3200
aaa(lp3201
g3120
a(lp3202
S'is'
p3203
aS'the'
p3204
aS'knowledge'
p3205
aS'of'
p3206
aS'love'
p3207
aaa(lp3208
g3120
a(lp3209
S'We'
p3210
aS'just'
p3211
aS'simply'
p3212
aS'love'
p3213
aS'him'
p3214
aaa(lp3215
g3120
a(lp3216
S'Uh'
p3217
aaa(lp3218
g3120
a(lp3219
S'we'
p3220
aS'uh'
p3221
aaa(lp3222
g3120
a(lp3223
S'ow'
p3224
aS'the'
p3225
aS'mystics'
p3226
aaa(lp3227
g3120
a(lp3228
S'the'
p3229
aS'Christian'
p3230
aS'myth'
p3231
aS'mystics'
p3232
aaa(lp3233
g3120
a(lp3234
S'l'
p3235
aS'love'
p3236
aS'to'
p3237
aS'talk'
p3238
aS'about'
p3239
aaa(lp3240
g3120
a(lp3241
S'weve'
p3242
aS'got'
p3243
aS'some'
p3244
aS'kind'
p3245
aS'of'
p3246
aS'time'
p3247
aS'constraint'
p3248
aS'here'
p3249
aaa(lp3250
g3120
a(lp3251
S'what'
p3252
aS'uh'
p3253
aS'uh'
p3254
aS'what'
p3255
aaa(lp3256
S'MANY'
p3257
a(lp3258
aa(lp3259
S'JEFF'
p3260
a(lp3261
S'w'
p3262
ag3262
ag3262
aS'when'
p3263
aS'do'
p3264
aS'we'
p3265
aaa(lp3266
S'DAN'
p3267
a(lp3268
g9
aS'think'
p3269
aaa(lp3270
S'JEFF'
p3271
a(lp3272
S'When'
p3273
aaa(lp3274
S'DAN'
p3275
a(lp3276
g9
aS'think'
p3277
aS'were'
p3278
aS'done'
p3279
aS'when'
p3280
aS'you'
p3281
aS'are'
p3282
aaa(lp3283
g3275
a(lp3284
S'so'
p3285
aaa(lp3286
S'JEFF'
p3287
a(lp3288
S'well'
p3289
aaa(lp3290
g3287
a(lp3291
g9
ag9
aS'gotta'
p3292
aS'be'
p3293
aaa(lp3294
S'DAN'
p3295
a(lp3296
S'finish'
p3297
aS'what'
p3298
aS'you'
p3299
aS'have'
p3300
ag2394
aS'to'
p3301
aS'say'
p3302
ag2394
aaa(lp3303
S'JEFF'
p3304
a(lp3305
g9
ag9
aS'well'
p3306
aaa(lp3307
g3304
a(lp3308
S'Ill'
p3309
ag9
aS'yeah'
p3310
aaa(lp3311
g3304
a(lp3312
S'Let'
p3313
aS'me'
p3314
aS'try'
p3315
aS'to'
p3316
aS'finish'
p3317
aS'what'
p3318
aS'Im'
p3319
aS'talking'
p3320
aS'about'
p3321
aS'here'
p3322
aS'but'
p3323
aaa(lp3324
g3304
a(lp3325
S'but'
p3326
aS'uh'
p3327
aaa(lp3328
g3304
a(lp3329
S'SM'
p3330
aS'there'
p3331
aS'there'
p3332
aaa(lp3333
g3304
a(lp3334
g9
aS'dont'
p3335
aS'often'
p3336
aS'get'
p3337
aS'chance'
p3338
aaa(lp3339
g3304
a(lp3340
S'to'
p3341
aS'talk'
p3342
aS'to'
p3343
aS'types'
p3344
aS'like'
p3345
aS'you'
p3346
aS'SM'
p3347
aaa(lp3348
g3304
a(lp3349
S'you'
p3350
aS'know'
p3351
aS'its'
p3352
aS'wonderful'
p3353
aaa(lp3354
S'MANY'
p3355
a(lp3356
aa(lp3357
S'JEFF'
p3358
a(lp3359
aa(lp3360
g3358
a(lp3361
S'uh'
p3362
aS'its'
p3363
aS'particularly'
p3364
aS'wonderful'
p3365
aaa(lp3366
g3358
a(lp3367
S'cause'
p3368
ag9
aS'know'
p3369
aS'you'
p3370
aS'know'
p3371
aS'everything'
p3372
aS'Im'
p3373
aS'saying'
p3374
aS'anywaysso'
p3375
aaa(lp3376
g3358
a(lp3377
S'you'
p3378
aS'can'
p3379
aS'smile'
p3380
aS'affirmatively'
p3381
aaa(lp3382
g3358
a(lp3383
S'and'
p3384
aS'that'
p3385
aS'encourages'
p3386
aS'me'
p3387
aaa(lp3388
g3358
a(lp3389
S'thats'
p3390
aS'great'
p3391
aaa(lp3392
g3358
a(lp3393
S'uh'
p3394
aS'but'
p3395
aaa(lp3396
S'MANY'
p3397
a(lp3398
aa(lp3399
S'JEFF'
p3400
a(lp3401
S'But'
p3402
aS'uh'
p3403
aaa(lp3404
g3400
a(lp3405
S'but'
p3406
aaa(lp3407
g3400
a(lp3408
S'really'
p3409
aaa(lp3410
g3400
a(lp3411
S'the'
p3412
aS'the'
p3413
aS'that'
p3414
aS'uh'
p3415
aaa(lp3416
g3400
a(lp3417
S'you'
p3418
aS'know'
p3419
aS'the'
p3420
aS'Christian'
p3421
aS'mystics'
p3422
aS'talked'
p3423
aS'about'
p3424
aS'climbing'
p3425
aS'Jacobs'
p3426
aS'ladder'
p3427
aaa(lp3428
g3400
a(lp3429
S'And'
p3430
aS'uh'
p3431
aaa(lp3432
g3400
a(lp3433
S'uh'
p3434
aS'you'
p3435
aS'you'
p3436
aS'youd'
p3437
aS'come'
p3438
aS'up'
p3439
aS'the'
p3440
aS'ladder'
p3441
aaa(lp3442
g3400
a(lp3443
S'and'
p3444
aS'when'
p3445
aS'you'
p3446
aS'get'
p3447
aS'at'
p3448
aS'the'
p3449
aS'top'
p3450
aaa(lp3451
g3400
a(lp3452
S'you'
p3453
aS'fling'
p3454
aS'yourself'
p3455
aS'down'
p3456
aaa(lp3457
g3400
a(lp3458
S'at'
p3459
aS'the'
p3460
aS'very'
p3461
aS'gate'
p3462
aS'of'
p3463
aS'heaven'
p3464
aaa(lp3465
g3400
a(lp3466
S'And'
p3467
aS'maybe'
p3468
aS'uh'
p3469
aaa(lp3470
g3400
a(lp3471
S'maybe'
p3472
aS'the'
p3473
aS'gate'
p3474
aS'will'
p3475
aS'open'
p3476
aaa(lp3477
g3400
a(lp3478
g2906
aS'you'
p3479
aS'cant'
p3480
aS'control'
p3481
aS'it'
p3482
aaa(lp3483
g3400
a(lp3484
S'you'
p3485
aS'dont'
p3486
aS'know'
p3487
aS'when'
p3488
aS'it'
p3489
aS'will'
p3490
aS'open'
p3491
aaa(lp3492
g3400
a(lp3493
S'but'
p3494
aS'maybe'
p3495
aS'it'
p3496
aS'will'
p3497
aS'open'
p3498
aaa(lp3499
g3400
a(lp3500
S'And'
p3501
aS'when'
p3502
aS'it'
p3503
aS'opens'
p3504
aaa(lp3505
g3400
a(lp3506
S'then'
p3507
aaa(lp3508
g3400
a(lp3509
S'uh'
p3510
aS'its'
p3511
aS'uh'
p3512
aaa(lp3513
g3400
a(lp3514
S'light'
p3515
aS'bursting'
p3516
aS'in'
p3517
aS'your'
p3518
aS'inner'
p3519
aS'heart'
p3520
aaa(lp3521
g3400
a(lp3522
S'And'
p3523
aS'uh'
p3524
aaa(lp3525
g3400
a(lp3526
S'once'
p3527
aS'youve'
p3528
aS'had'
p3529
aS'that'
p3530
aS'experience'
p3531
aaa(lp3532
g3400
a(lp3533
S'youd'
p3534
aS'give'
p3535
aS'anything'
p3536
aS'to'
p3537
aS'have'
p3538
aS'the'
p3539
aS'experience'
p3540
aS'repeated'
p3541
aaa(lp3542
g3400
a(lp3543
S'And'
p3544
aS'so'
p3545
aS'uh'
p3546
aaa(lp3547
g3400
a(lp3548
S'you'
p3549
aS'go'
p3550
aS'through'
p3551
aS'any'
p3552
aS'amount'
p3553
aS'of'
p3554
aS'discipline'
p3555
aaa(lp3556
g3400
a(lp3557
S'and'
p3558
aS'uh'
p3559
aaa(lp3560
g3400
a(lp3561
S'try'
p3562
aS'out'
p3563
aS'different'
p3564
aS'forms'
p3565
aS'of'
p3566
aS'discipline'
p3567
aaa(lp3568
g3400
a(lp3569
S'and'
p3570
aS'uh'
p3571
aaa(lp3572
g3400
a(lp3573
S'you'
p3574
aS'recite'
p3575
aS'the'
p3576
aS'Jesus'
p3577
aS'prayer'
p3578
aS'thousands'
p3579
aS'of'
p3580
aS'times'
p3581
aS'with'
p3582
aS'the'
p3583
aS'monks'
p3584
aS'of'
p3585
aS'Mount'
p3586
aS'Athos'
p3587
aaa(lp3588
g3400
a(lp3589
S'and'
p3590
aS'uh'
p3591
aaa(lp3592
g3400
a(lp3593
S'and'
p3594
aS'uh'
p3595
aaa(lp3596
g3400
a(lp3597
S'sooner'
p3598
aS'or'
p3599
aS'later'
p3600
aaa(lp3601
g3400
a(lp3602
S'uh'
p3603
aS'you'
p3604
aS'think'
p3605
aS'it'
p3606
aS'may'
p3607
aS'happen'
p3608
aaa(lp3609
g3400
a(lp3610
S'Uh'
p3611
aS'the'
p3612
aS'uh'
p3613
aaa(lp3614
g3400
a(lp3615
S'you'
p3616
aS'you'
p3617
aS'may'
p3618
aS'gain'
p3619
aS'that'
p3620
aS'experience'
p3621
aaa(lp3622
g3400
a(lp3623
S'Well'
p3624
aS'now'
p3625
aS'uh'
p3626
aaa(lp3627
g3400
a(lp3628
S'you'
p3629
aS'know'
p3630
aaa(lp3631
g3400
a(lp3632
S'there'
p3633
aS'are'
p3634
aS'experiences'
p3635
aS'of'
p3636
aS'ecstasy'
p3637
aaa(lp3638
g3400
a(lp3639
S'tha'
p3640
aS'uh'
p3641
aaa(lp3642
g3400
a(lp3643
S'that'
p3644
aS'can'
p3645
aS'be'
p3646
aS'induced'
p3647
aS'by'
p3648
ag273
aS'transformation'
p3649
aS'of'
p3650
aS'consciousness'
p3651
aaa(lp3652
g3400
a(lp3653
S'and'
p3654
aS'uh'
p3655
aaa(lp3656
g3400
a(lp3657
g9
aS'think'
p3658
aS'Christians'
p3659
aS'sometimes'
p3660
aS'have'
p3661
aS'uh'
p3662
aaa(lp3663
g3400
a(lp3664
S'uh'
p3665
aS'mingled'
p3666
aS'that'
p3667
aS'uh'
p3668
aS'psychological'
p3669
aS'experience'
p3670
aaa(lp3671
g3400
a(lp3672
S'uh'
p3673
aaa(lp3674
g3400
a(lp3675
S'whether'
p3676
aS'its'
p3677
aS'the'
p3678
aS'left'
p3679
aS'part'
p3680
aS'or'
p3681
aaa(lp3682
g3400
a(lp3683
S'or'
p3684
aS'the'
p3685
aS'right'
p3686
aS'part'
p3687
aS'of'
p3688
aS'the'
p3689
aS'brain'
p3690
aS'taking'
p3691
aS'over'
p3692
aaa(lp3693
g3400
a(lp3694
S'or'
p3695
aS'something'
p3696
aaa(lp3697
g3400
a(lp3698
g9
aS'dont'
p3699
aS'think'
p3700
aS'um'
p3701
aaa(lp3702
g3400
a(lp3703
S'uh'
p3704
aaa(lp3705
g3400
a(lp3706
S'the'
p3707
aS'um'
p3708
aaa(lp3709
g3400
a(lp3710
S'the'
p3711
aS'psychologists'
p3712
aS'are'
p3713
aS'as'
p3714
aS'sure'
p3715
aS'as'
p3716
aS'they'
p3717
aS'once'
p3718
aS'were'
p3719
aaa(lp3720
g3400
a(lp3721
S'or'
p3722
aS'even'
p3723
aS'the'
p3724
aS'neurologists'
p3725
aS'about'
p3726
aS'how'
p3727
aS'some'
p3728
aS'of'
p3729
aS'those'
p3730
aS'things'
p3731
aS'happen'
p3732
aaa(lp3733
g3400
a(lp3734
S'but'
p3735
aS'uh'
p3736
aaa(lp3737
g3400
a(lp3738
S'uh'
p3739
aS'at'
p3740
aS'any'
p3741
aS'rate'
p3742
aaa(lp3743
g3400
a(lp3744
S'uh'
p3745
aaa(lp3746
g3400
a(lp3747
S'you'
p3748
aS'see'
p3749
aaa(lp3750
S'AUD'
p3751
a(lp3752
aa(lp3753
S'JEFF'
p3754
a(lp3755
S'it'
p3756
aS'isnt'
p3757
aS'that'
p3758
aS'we'
p3759
aS'have'
p3760
aS'to'
p3761
aS'climb'
p3762
aS'the'
p3763
aS'ladder'
p3764
aaa(lp3765
g3754
a(lp3766
S'And'
p3767
aS'uh'
p3768
aaa(lp3769
g3754
a(lp3770
S'Im'
p3771
aS'Im'
p3772
aS'sorry'
p3773
aS'that'
p3774
aS'that'
p3775
aS'whole'
p3776
aS'episode'
p3777
aS'with'
p3778
aS'Jacob'
p3779
aS'got'
p3780
aS'misunderstood'
p3781
aaa(lp3782
g3754
a(lp3783
S'All'
p3784
aS'because'
p3785
aS'uh'
p3786
aaa(lp3787
g3754
a(lp3788
S'all'
p3789
aS'because'
p3790
aS'of'
p3791
aS'the'
p3792
aS'Hebrew'
p3793
aS'preposition'
p3794
aS'al'
p3795
aaa(lp3796
g3754
a(lp3797
S'That'
p3798
aS'uh'
p3799
aaa(lp3800
g3754
a(lp3801
S'wasnt'
p3802
aS'taken'
p3803
aS'account'
p3804
aS'of'
p3805
aaa(lp3806
g3754
a(lp3807
S'Uh'
p3808
aS'that'
p3809
aS'see'
p3810
aaa(lp3811
g3754
a(lp3812
S'uh'
p3813
aaa(lp3814
g3754
a(lp3815
S'he'
p3816
aS'he'
p3817
aS'stood'
p3818
aS'uh'
p3819
aS'upon'
p3820
aaa(lp3821
g3754
a(lp3822
S'not'
p3823
aS'it'
p3824
aaa(lp3825
g3754
a(lp3826
S'ee'
p3827
aaa(lp3828
g3754
a(lp3829
S'he'
p3830
aS'Jacob'
p3831
aS'st'
p3832
aS'saw'
p3833
aS'the'
p3834
aS'stairway'
p3835
aaa(lp3836
g3754
a(lp3837
S'not'
p3838
ag273
aS'painters'
p3839
aS'ladder'
p3840
aS'of'
p3841
aS'course'
p3842
aaa(lp3843
g3754
a(lp3844
S'but'
p3845
ag273
aaa(lp3846
g3754
a(lp3847
g273
aS'tower'
p3848
aS'of'
p3849
aS'Babel'
p3850
aS'type'
p3851
aS'of'
p3852
aS'thing'
p3853
aaa(lp3854
g3754
a(lp3855
g273
aS'uh'
p3856
aaa(lp3857
g3754
a(lp3858
g273
aS'zigarot'
p3859
aaa(lp3860
g3754
a(lp3861
S'r'
p3862
aS'right'
p3863
aaa(lp3864
g3754
a(lp3865
S'You'
p3866
aS'got'
p3867
ag273
aS'zigarot'
p3868
aS'and'
p3869
aaa(lp3870
g3754
a(lp3871
S'which'
p3872
aS'was'
p3873
aS'made'
p3874
aS'for'
p3875
aS'the'
p3876
aS'gods'
p3877
aS'to'
p3878
aS'touch'
p3879
aS'down'
p3880
aS'at'
p3881
aS'the'
p3882
aS'top'
p3883
aaa(lp3884
g3754
a(lp3885
S'and'
p3886
aS'then'
p3887
aS'they'
p3888
aS'could'
p3889
aS'come'
p3890
aS'down'
p3891
aS'uh'
p3892
aaa(lp3893
g3754
a(lp3894
S'to'
p3895
aS'the'
p3896
aS'bottom'
p3897
aaa(lp3898
g3754
a(lp3899
S'You'
p3900
aS'know'
p3901
aS'it'
p3902
aS'was'
p3903
aS'like'
p3904
ag273
aS'little'
p3905
aS'heliport'
p3906
aS'for'
p3907
aS'the'
p3908
aS'gods'
p3909
aS'there'
p3910
aaa(lp3911
g3754
a(lp3912
S'That'
p3913
aS'was'
p3914
aS'he'
p3915
aS'idea'
p3916
aaa(lp3917
S'MANY'
p3918
a(lp3919
aa(lp3920
S'JEFF'
p3921
a(lp3922
S'But'
p3923
aS'but'
p3924
aS'uh'
p3925
aaa(lp3926
g3921
a(lp3927
S'th'
p3928
aS'they'
p3929
aS'theyd'
p3930
aS'come'
p3931
aS'down'
p3932
aaa(lp3933
g3921
a(lp3934
S'thered'
p3935
aS'be'
p3936
ag273
aS'temple'
p3937
aS'at'
p3938
aS'the'
p3939
aS'bottom'
p3940
aaa(lp3941
g3921
a(lp3942
S'and'
p3943
aS'then'
p3944
aS'uh'
p3945
aS'the'
p3946
aS'god'
p3947
aS'could'
p3948
aS'be'
p3949
aS'with'
p3950
aS'the'
p3951
aS'people'
p3952
aaa(lp3953
g3921
a(lp3954
S'But'
p3955
aS'uh'
p3956
aaa(lp3957
S'AUD'
p3958
a(lp3959
aa(lp3960
S'JEFF'
p3961
a(lp3962
S'uh'
p3963
aS'but'
p3964
aS'it'
p3965
aS'it'
p3966
aS'wasnt'
p3967
aS'that'
p3968
aS'that'
p3969
aS'God'
p3970
aaa(lp3971
g3961
a(lp3972
S'that'
p3973
aS'that'
p3974
aS'uh'
p3975
aS'Jacob'
p3976
aS'saw'
p3977
aS'God'
p3978
aS'at'
p3979
aS'the'
p3980
aS'top'
p3981
aS'of'
p3982
aS'the'
p3983
aS'ladder'
p3984
aaa(lp3985
g3961
a(lp3986
S'up'
p3987
aS'in'
p3988
aS'Heaven'
p3989
aaa(lp3990
g3961
a(lp3991
S'uh'
p3992
aS'upon'
p3993
aS'him'
p3994
aaa(lp3995
g3961
a(lp3996
S'Uh'
p3997
aS'the'
p3998
aS'the'
p3999
aS'masculine'
p4000
aS'uh'
p4001
aS'there'
p4002
aaa(lp4003
g3961
a(lp4004
S'the'
p4005
aS'uh'
p4006
aaa(lp4007
g3961
a(lp4008
S'v'
p4009
ag4009
ag4009
aS'vowel'
p4010
aS'with'
p4011
aS'the'
p4012
aS'little'
p4013
aS'dot'
p4014
aS'over'
p4015
aS'it'
p4016
aaa(lp4017
g3961
a(lp4018
S'you'
p4019
aS'know'
p4020
aS'the'
p4021
aS'the'
p4022
aS'the'
p4023
aS'holem'
p4024
aaa(lp4025
g3961
a(lp4026
S'Uh'
p4027
aS'he'
p4028
aS'he'
p4029
aS'hes'
p4030
aS'uh'
p4031
aaa(lp4032
g3961
a(lp4033
g874
aS'he'
p4034
aS'stood'
p4035
aS'upon'
p4036
aS'him'
p4037
aaa(lp4038
g3961
a(lp4039
S'uh'
p4040
aaa(lp4041
g3961
a(lp4042
S'which'
p4043
aS'is'
p4044
aS'the'
p4045
aS'common'
p4046
aS'Hebrew'
p4047
aS'expression'
p4048
aaa(lp4049
g3961
a(lp4050
S'and'
p4051
aS'you'
p4052
aS'know'
p4053
aS'thats'
p4054
aS'what'
p4055
aS'it'
p4056
aS'is'
p4057
aaa(lp4058
g3961
a(lp4059
S'because'
p4060
aS'the'
p4061
aS'second'
p4062
aS'time'
p4063
aS'when'
p4064
aS'God'
p4065
aS'appeared'
p4066
aS'to'
p4067
aS'b'
p4068
ag874
aS'uh'
p4069
aS'j'
p4070
aS'Jacob'
p4071
aS'at'
p4072
aS'Bethel'
p4073
aaa(lp4074
g3961
a(lp4075
S'uh'
p4076
aaa(lp4077
g3961
a(lp4078
S'the'
p4079
aS'same'
p4080
aS'expression'
p4081
aS'is'
p4082
aS'used'
p4083
aaa(lp4084
g3961
a(lp4085
S'He'
p4086
aS'went'
p4087
aS'up'
p4088
aS'from'
p4089
aS'upon'
p4090
aS'him'
p4091
aaa(lp4092
g3961
a(lp4093
S'See'
p4094
aaa(lp4095
g3961
a(lp4096
S'Uh'
p4097
aaa(lp4098
g3961
a(lp4099
S'its'
p4100
aS'the'
p4101
aS'same'
p4102
aS'expression'
p4103
aaa(lp4104
g3961
a(lp4105
S'So'
p4106
aaa(lp4107
g3961
a(lp4108
S'God'
p4109
aS'had'
p4110
aS'come'
p4111
aS'down'
p4112
aS'the'
p4113
aS'ladder'
p4114
aaa(lp4115
g3961
a(lp4116
S'Thats'
p4117
aS'what'
p4118
aS'we'
p4119
aS'miss'
p4120
aaa(lp4121
g3961
a(lp4122
S'He'
p4123
aS'wasnt'
p4124
aS'standing'
p4125
aS'up'
p4126
aS'there'
p4127
aS'at'
p4128
aS'the'
p4129
aS'top'
p4130
aaa(lp4131
g3961
a(lp4132
S'uh'
p4133
aS'he'
p4134
aS'came'
p4135
aS'down'
p4136
aS'the'
p4137
aS'ladder'
p4138
aaa(lp4139
g3961
a(lp4140
S'And'
p4141
aS'uh'
p4142
aS'when'
p4143
aS'he'
p4144
aS'came'
p4145
aS'down'
p4146
aS'the'
p4147
aS'ladder'
p4148
aaa(lp4149
g3961
a(lp4150
S'he'
p4151
aS'stood'
p4152
aS'over'
p4153
aS'Jacob'
p4154
aaa(lp4155
g3961
a(lp4156
S'and'
p4157
aS'revealed'
p4158
aS'himself'
p4159
aS'to'
p4160
aS'Jacob'
p4161
aaa(lp4162
g3961
a(lp4163
S'And'
p4164
aS'thats'
p4165
aS'why'
p4166
aS'Jacob'
p4167
aS'said'
p4168
aaa(lp4169
g3961
a(lp4170
S'this'
p4171
aS'is'
p4172
aS'the'
p4173
aS'house'
p4174
aS'of'
p4175
aS'God'
p4176
aaa(lp4177
g3961
a(lp4178
S'this'
p4179
aS'is'
p4180
aS'the'
p4181
aS'gate'
p4182
aS'of'
p4183
aS'Heaven'
p4184
aaa(lp4185
g3961
a(lp4186
S'It'
p4187
aS'was'
p4188
aS'the'
p4189
aS'House'
p4190
aS'of'
p4191
aS'God'
p4192
aaa(lp4193
g3961
a(lp4194
S'he'
p4195
aS'said'
p4196
aaa(lp4197
g3961
a(lp4198
S'because'
p4199
aS'God'
p4200
aS'was'
p4201
aS'in'
p4202
aS'this'
p4203
aS'place'
p4204
aaa(lp4205
g3961
a(lp4206
S'and'
p4207
ag9
aS'didnt'
p4208
aS'know'
p4209
aS'it'
p4210
aaa(lp4211
g3961
a(lp4212
S'See'
p4213
aaa(lp4214
g3961
a(lp4215
S'it'
p4216
aS'its'
p4217
aaa(lp4218
g3961
a(lp4219
S'this'
p4220
aS'is'
p4221
aS'Bethel'
p4222
aS'here'
p4223
aaa(lp4224
g3961
a(lp4225
S'because'
p4226
aS'here'
p4227
aS'God'
p4228
aS'has'
p4229
aS'come'
p4230
aS'to'
p4231
aS'us'
p4232
aaa(lp4233
g3961
a(lp4234
S'So'
p4235
aS'God'
p4236
aS'was'
p4237
aS'revealing'
p4238
aS'himself'
p4239
aS'to'
p4240
aS'Jacob'
p4241
aaa(lp4242
g3961
a(lp4243
S'and'
p4244
aS'God'
p4245
aS'reveals'
p4246
aS'himself'
p4247
aS'to'
p4248
aS'us'
p4249
aaa(lp4250
g3961
a(lp4251
S'He'
p4252
aS'comes'
p4253
aS'to'
p4254
aS'us'
p4255
aaa(lp4256
g3961
a(lp4257
S'And'
p4258
aS'uh'
p4259
aaa(lp4260
g3961
a(lp4261
S'he'
p4262
aS'seeks'
p4263
aS'us'
p4264
aaa(lp4265
g3961
a(lp4266
S'As'
p4267
aS'we'
p4268
aS'seek'
p4269
aS'him'
p4270
aaa(lp4271
g3961
a(lp4272
S'And'
p4273
aS'our'
p4274
aS'love'
p4275
aS'is'
p4276
aS'always'
p4277
aS'in'
p4278
aS'response'
p4279
aS'to'
p4280
aS'his'
p4281
aS'love'
p4282
aaa(lp4283
g3961
a(lp4284
S'And'
p4285
aS'its'
p4286
aS'the'
p4287
aS'assurance'
p4288
aS'that'
p4289
aS'your'
p4290
aS'God'
p4291
aS'loves'
p4292
aS'you'
p4293
aaa(lp4294
g3961
a(lp4295
S'that'
p4296
aS'he'
p4297
aS'seeks'
p4298
aS'you'
p4299
aaa(lp4300
g3961
a(lp4301
S'that'
p4302
aS'hes'
p4303
aS'with'
p4304
aS'you'
p4305
aaa(lp4306
g3961
a(lp4307
S'That'
p4308
aS'he'
p4309
aS'comes'
p4310
aS'to'
p4311
aS'you'
p4312
aaa(lp4313
g3961
a(lp4314
S'Its'
p4315
aS'this'
p4316
aS'assurance'
p4317
aaa(lp4318
g3961
a(lp4319
S'that'
p4320
aS'draws'
p4321
aS'you'
p4322
aS'to'
p4323
aS'repentance'
p4324
aaa(lp4325
g3961
a(lp4326
S'and'
p4327
aS'draws'
p4328
aS'you'
p4329
aS'to'
p4330
aS'faith'
p4331
aaa(lp4332
g3961
a(lp4333
S'and'
p4334
aS'draws'
p4335
aS'you'
p4336
aS'to'
p4337
aS'himself'
p4338
aaa(lp4339
g3961
a(lp4340
S'Um'
p4341
aaa(lp4342
g3961
a(lp4343
S'the'
p4344
aS'uh'
p4345
aaa(lp4346
g3961
a(lp4347
g874
aaa(lp4348
g3961
a(lp4349
S'salvation'
p4350
aS'is'
p4351
aS'of'
p4352
aS'the'
p4353
aS'Lord'
p4354
aaa(lp4355
g3961
a(lp4356
S'And'
p4357
aS'uh'
p4358
aaa(lp4359
g3961
a(lp4360
S'its'
p4361
aS'the'
p4362
aS'Lords'
p4363
aS'love'
p4364
aaa(lp4365
g3961
a(lp4366
S'who'
p4367
aS'quickens'
p4368
aS'your'
p4369
aS'love'
p4370
aaa(lp4371
g3961
a(lp4372
S'Well'
p4373
aaa(lp4374
g3961
a(lp4375
S'Im'
p4376
aS'not'
p4377
aS'going'
p4378
aS'to'
p4379
aS'say'
p4380
aaa(lp4381
g3961
a(lp4382
S'uh'
p4383
aS'th'
p4384
aS'the'
p4385
aS'rest'
p4386
aS'of'
p4387
aS'the'
p4388
aS'things'
p4389
ag9
ag9
aS'had'
p4390
aS'in'
p4391
aS'mind'
p4392
aS'to'
p4393
aS'say'
p4394
aaa(lp4395
g3961
a(lp4396
S'But'
p4397
aaa(lp4398
g3961
a(lp4399
S'uh'
p4400
ag9
aaa(lp4401
g3961
a(lp4402
S'you'
p4403
aS'can'
p4404
aS'fill'
p4405
aS'out'
p4406
aS'the'
p4407
aS'talk'
p4408
aS'for'
p4409
aS'me'
p4410
aaa(lp4411
g3961
a(lp4412
S'would'
p4413
aS'you'
p4414
aS'please'
p4415
aS'sometime'
p4416
aaa(lp4417
g3961
a(lp4418
S'the'
p4419
aS'commitment'
p4420
aS'of'
p4421
aS'love'
p4422
aaa(lp4423
g3961
a(lp4424
S'the'
p4425
aS'obedience'
p4426
aS'of'
p4427
aS'love'
p4428
aaa(lp4429
g3961
a(lp4430
S'If'
p4431
aS'you'
p4432
aS'love'
p4433
aS'me'
p4434
aS'keep'
p4435
aS'my'
p4436
aS'commandments'
p4437
aaa(lp4438
g3961
a(lp4439
S'Um'
p4440
aaa(lp4441
g3961
a(lp4442
S'remember'
p4443
aaa(lp4444
g3961
a(lp4445
S'uh'
p4446
aS'Marys'
p4447
aS'adoration'
p4448
aaa(lp4449
g3961
a(lp4450
S'Uh'
p4451
aS'when'
p4452
aS'she'
p4453
aS'uh'
p4454
aS'brought'
p4455
aS'the'
p4456
aS'spikenard'
p4457
aaa(lp4458
g3961
a(lp4459
S'and'
p4460
aS'uh'
p4461
aaa(lp4462
g3961
a(lp4463
S'opened'
p4464
aS'it'
p4465
aS'and'
p4466
aS'poured'
p4467
aS'it'
p4468
aS'out'
p4469
aS'on'
p4470
aS'the'
p4471
aS'feet'
p4472
aS'of'
p4473
aS'Jesus'
p4474
aaa(lp4475
g3961
a(lp4476
S'just'
p4477
aS'before'
p4478
aS'he'
p4479
aS'went'
p4480
aS'to'
p4481
aS'the'
p4482
aS'cross'
p4483
aaa(lp4484
g3961
a(lp4485
S'And'
p4486
aS'Judas'
p4487
aS'criticized'
p4488
aS'her'
p4489
aS'remember'
p4490
aaa(lp4491
g3961
a(lp4492
S'Uh'
p4493
aS'because'
p4494
aaa(lp4495
g3961
a(lp4496
S'he'
p4497
aS'said'
p4498
aaa(lp4499
g3961
a(lp4500
S'this'
p4501
aS'could'
p4502
aS'have'
p4503
aS'been'
p4504
aS'given'
p4505
aS'to'
p4506
aS'the'
p4507
aS'poor'
p4508
aaa(lp4509
g3961
a(lp4510
S'uh'
p4511
aaa(lp4512
g3961
a(lp4513
S'he'
p4514
aS'he'
p4515
aS'he'
p4516
aS'was'
p4517
aS'the'
p4518
aS'first'
p4519
aS'oldfashioned'
p4520
aS'liberal'
p4521
aaa(lp4522
g3961
a(lp4523
S'Dont'
p4524
aS'worship'
p4525
aS'Jesus'
p4526
aaa(lp4527
g3961
a(lp4528
S'but'
p4529
aS'help'
p4530
aS'the'
p4531
aS'poor'
p4532
aaa(lp4533
g3961
a(lp4534
S'Uh'
p4535
aaa(lp4536
g3961
a(lp4537
S'but'
p4538
aS'uh'
p4539
aaa(lp4540
S'MANY'
p4541
a(lp4542
aa(lp4543
S'JEFF'
p4544
a(lp4545
S'Uh'
p4546
ag2997
aS'you'
p4547
aS'see'
p4548
aaa(lp4549
g4544
a(lp4550
S'uh'
p4551
aaa(lp4552
g4544
a(lp4553
S'uh'
p4554
aaa(lp4555
g4544
a(lp4556
g3262
aS'what'
p4557
aS'what'
p4558
aS'was'
p4559
aS'the'
p4560
aS'answer'
p4561
aaa(lp4562
g4544
a(lp4563
S'What'
p4564
aS'was'
p4565
aS'the'
p4566
aS'answer'
p4567
aS'that'
p4568
aS'Jesus'
p4569
aS'uh'
p4570
aS'gave'
p4571
aaa(lp4572
g4544
a(lp4573
S'Uh'
p4574
aaa(lp4575
g4544
a(lp4576
S'uh'
p4577
aaa(lp4578
g4544
a(lp4579
g1956
aS'let'
p4580
aS'her'
p4581
aS'do'
p4582
aS'this'
p4583
aaa(lp4584
g4544
a(lp4585
S'Let'
p4586
aS'her'
p4587
aS'keep'
p4588
aS'it'
p4589
aaa(lp4590
g4544
a(lp4591
S'Not'
p4592
aS'in'
p4593
aS'the'
p4594
aS'sense'
p4595
aS'of'
p4596
aS'preserving'
p4597
aS'the'
p4598
aS'ointment'
p4599
aaa(lp4600
g4544
a(lp4601
S'she'
p4602
aS'was'
p4603
aS'pouring'
p4604
aS'it'
p4605
aS'out'
p4606
aaa(lp4607
g4544
a(lp4608
S'but'
p4609
aS'in'
p4610
aS'the'
p4611
aS'sense'
p4612
aS'of'
p4613
aS'observing'
p4614
aS'it'
p4615
aaa(lp4616
g4544
a(lp4617
S'Observing'
p4618
ag273
ag273
aS'an'
p4619
aS'observance'
p4620
aS'against'
p4621
aS'his'
p4622
aS'burial'
p4623
aaa(lp4624
g4544
a(lp4625
S'Uh'
p4626
aS'so'
p4627
aaa(lp4628
g4544
a(lp4629
S'she'
p4630
aS'realized'
p4631
aS'what'
p4632
aS'his'
p4633
aS'death'
p4634
aS'meant'
p4635
aaa(lp4636
g4544
a(lp4637
S'and'
p4638
aS'she'
p4639
aS'realized'
p4640
aS'who'
p4641
aS'he'
p4642
aS'was'
p4643
aaa(lp4644
g4544
a(lp4645
S'He'
p4646
aS'said'
p4647
aS'the'
p4648
aS'poor'
p4649
aS'you'
p4650
aS'have'
p4651
aS'with'
p4652
aS'you'
p4653
aS'always'
p4654
aaa(lp4655
g4544
a(lp4656
S'but'
p4657
aS'me'
p4658
aaa(lp4659
g4544
a(lp4660
S'you'
p4661
aS'have'
p4662
aS'not'
p4663
aS'always'
p4664
aaa(lp4665
g4544
a(lp4666
S'A'
p4667
aS'tremendous'
p4668
aS'assurance'
p4669
aS'of'
p4670
aS'his'
p4671
aS'own'
p4672
aS'deity'
p4673
aaa(lp4674
g4544
a(lp4675
S'Who'
p4676
aS'else'
p4677
aS'could'
p4678
aS'say'
p4679
aS'something'
p4680
aS'like'
p4681
aS'that'
p4682
aaa(lp4683
g4544
a(lp4684
S'Hunh'
p4685
aaa(lp4686
g4544
a(lp4687
S'But'
p4688
aS'Jesus'
p4689
aS'said'
p4690
aS'it'
p4691
aaa(lp4692
g4544
a(lp4693
S'and'
p4694
aS'uh'
p4695
aaa(lp4696
g4544
a(lp4697
S'uh'
p4698
aS'you'
p4699
aS'see'
p4700
aS'what'
p4701
aS'that'
p4702
aS'says'
p4703
aS'to'
p4704
aS'us'
p4705
aaa(lp4706
g4544
a(lp4707
S'Uh'
p4708
aaa(lp4709
g4544
a(lp4710
S'if'
p4711
aS'our'
p4712
aS'Lord'
p4713
aS'were'
p4714
aS'here'
p4715
aaa(lp4716
g4544
a(lp4717
S'then'
p4718
aS'we'
p4719
aS'could'
p4720
aS'pour'
p4721
aS'out'
p4722
aS'perfume'
p4723
aS'on'
p4724
aS'his'
p4725
aS'feet'
p4726
aaa(lp4727
g4544
a(lp4728
S'Hes'
p4729
aS'not'
p4730
aS'here'
p4731
aaa(lp4732
g4544
a(lp4733
S'But'
p4734
aS'who'
p4735
aS'is'
p4736
aaa(lp4737
g4544
a(lp4738
S'So'
p4739
aS'whose'
p4740
aS'feet'
p4741
aS'can'
p4742
aS'we'
p4743
aS'anoint'
p4744
aaa(lp4745
g4544
a(lp4746
S'The'
p4747
aS'feet'
p4748
aS'of'
p4749
aS'the'
p4750
aS'poor'
p4751
aaa(lp4752
g4544
a(lp4753
S'in'
p4754
aS'his'
p4755
aS'name'
p4756
aaa(lp4757
g4544
a(lp4758
S'See'
p4759
aaa(lp4760
g4544
a(lp4761
S'Uh'
p4762
aaa(lp4763
g4544
a(lp4764
S'love'
p4765
aS'uh'
p4766
aS'uh'
p4767
aS'doesnt'
p4768
aS'mean'
p4769
aaa(lp4770
g4544
a(lp4771
g874
aS'climbing'
p4772
aS'up'
p4773
aS'Jacobs'
p4774
aS'ladder'
p4775
aS'to'
p4776
aS'the'
p4777
aS'heavenlies'
p4778
aaa(lp4779
g4544
a(lp4780
S'where'
p4781
aS'nobody'
p4782
aS'else'
p4783
aS'can'
p4784
aS'be'
p4785
aS'around'
p4786
aaa(lp4787
g4544
a(lp4788
S'The'
p4789
aS'love'
p4790
aS'of'
p4791
aS'God'
p4792
aS'is'
p4793
aS'experienced'
p4794
aS'in'
p4795
aS'the'
p4796
aS'community'
p4797
aS'of'
p4798
aS'the'
p4799
aS'saints'
p4800
aaa(lp4801
g4544
a(lp4802
S'its'
p4803
aS'experienced'
p4804
aS'as'
p4805
aS'we'
p4806
aS'all'
p4807
aS'reached'
p4808
aS'out'
p4809
aaa(lp4810
g4544
a(lp4811
S'reach'
p4812
aS'out'
p4813
aaa(lp4814
g4544
a(lp4815
S'to'
p4816
aS'the'
p4817
aS'breadth'
p4818
aaa(lp4819
g4544
a(lp4820
S'and'
p4821
aS'the'
p4822
aS'length'
p4823
aaa(lp4824
g4544
a(lp4825
S'and'
p4826
aS'the'
p4827
aS'height'
p4828
aaa(lp4829
g4544
a(lp4830
S'and'
p4831
aS'the'
p4832
aS'depth'
p4833
aaa(lp4834
g4544
a(lp4835
S'and'
p4836
aS'the'
p4837
aS'love'
p4838
aS'of'
p4839
aS'God'
p4840
aS'is'
p4841
aS'experienced'
p4842
aaa(lp4843
g4544
a(lp4844
S'in'
p4845
aS'the'
p4846
aS'course'
p4847
aS'of'
p4848
aS'service'
p4849
aaa(lp4850
g4544
a(lp4851
g4667
ag9
aS'heard'
p4852
aS'you'
p4853
aS'describe'
p4854
aS'some'
p4855
aS'of'
p4856
aS'these'
p4857
aS'service'
p4858
aS'projects'
p4859
aaa(lp4860
g4544
a(lp4861
S'that'
p4862
aS'uh'
p4863
aaa(lp4864
g4544
a(lp4865
S'um'
p4866
aS'Intervarsity'
p4867
aS'is'
p4868
aS'involved'
p4869
aS'in'
p4870
aaa(lp4871
g4544
a(lp4872
S'and'
p4873
aS'friends'
p4874
aaa(lp4875
g4544
a(lp4876
S'um'
p4877
aaa(lp4878
g4544
a(lp4879
S'these'
p4880
aS'projects'
p4881
aaa(lp4882
g4544
a(lp4883
S'even'
p4884
aS'if'
p4885
aS'uh'
p4886
aS'theyre'
p4887
aS'working'
p4888
aS'about'
p4889
aS'rebuilding'
p4890
aS'old'
p4891
aS'houses'
p4892
aaa(lp4893
g4544
a(lp4894
S'or'
p4895
aS'whatever'
p4896
aaa(lp4897
g4544
a(lp4898
S'they'
p4899
aS'are'
p4900
aS'not'
p4901
aS'things'
p4902
aS'that'
p4903
aS'have'
p4904
aS'nothing'
p4905
aS'to'
p4906
aS'do'
p4907
aS'with'
p4908
aS'love'
p4909
aaa(lp4910
g4544
a(lp4911
S'They'
p4912
aS'are'
p4913
aS'works'
p4914
aS'of'
p4915
aS'love'
p4916
aaa(lp4917
g4544
a(lp4918
S'They'
p4919
aS'are'
p4920
aS'the'
p4921
aS'evidence'
p4922
aaa(lp4923
g4544
a(lp4924
S'of'
p4925
aS'that'
p4926
aS'love'
p4927
aS'of'
p4928
aS'God'
p4929
aaa(lp4930
g4544
a(lp4931
S'in'
p4932
aS'our'
p4933
aS'hearts'
p4934
aaa(lp4935
g4544
a(lp4936
S'Uh'
p4937
aS'they'
p4938
aS'are'
p4939
aS'the'
p4940
aS'fruit'
p4941
aaa(lp4942
g4544
a(lp4943
S'that'
p4944
aS'is'
p4945
aS'borne'
p4946
aaa(lp4947
g4544
a(lp4948
S'by'
p4949
aS'the'
p4950
aS'tree'
p4951
aaa(lp4952
g4544
a(lp4953
S'that'
p4954
aS'has'
p4955
aS'the'
p4956
aS'roots'
p4957
aS'down'
p4958
aS'into'
p4959
aS'the'
p4960
aS'water'
p4961
aS'of'
p4962
aS'Gods'
p4963
aS'refreshing'
p4964
aS'grace'
p4965
aS'and'
p4966
aS'love'
p4967
aaa(lp4968
g4544
a(lp4969
S'And'
p4970
aS'uh'
p4971
aaa(lp4972
g4544
a(lp4973
S'the'
p4974
aS'mystical'
p4975
aS'heights'
p4976
aS'of'
p4977
aS'Christian'
p4978
aS'devotion'
p4979
aaa(lp4980
g4544
a(lp4981
S'ought'
p4982
aS'never'
p4983
aS'to'
p4984
aS'be'
p4985
aS'separated'
p4986
aS'from'
p4987
aS'the'
p4988
aS'realities'
p4989
aaa(lp4990
g4544
a(lp4991
S'of'
p4992
aS'uh'
p4993
aS'Christian'
p4994
aS'service'
p4995
aaa(lp4996
g4544
a(lp4997
S'The'
p4998
aS'uh'
p4999
aaa(lp5000
g4544
a(lp5001
S'there'
p5002
aS'was'
p5003
ag273
aS'hymn'
p5004
aS'in'
p5005
aS'the'
p5006
aS'old'
p5007
aS'InterVarsity'
p5008
aS'hymnal'
p5009
aaa(lp5010
g4544
a(lp5011
S'its'
p5012
aS'not'
p5013
aS'in'
p5014
aS'the'
p5015
aS'new'
p5016
aS'one'
p5017
aaa(lp5018
g4544
a(lp5019
S'by'
p5020
aS'XX'
p5021
aS'XX'
p5022
aaa(lp5023
g4544
a(lp5024
g273
aS'hymn'
p5025
aS'that'
p5026
ag9
aS'love'
p5027
ag4009
aS'very'
p5028
aS'much'
p5029
aaa(lp5030
g4544
a(lp5031
S'Talks'
p5032
aS'about'
p5033
aS'how'
p5034
aS'we'
p5035
aS'go'
p5036
aS'with'
p5037
aS'Jesus'
p5038
aS'through'
p5039
aS'the'
p5040
aS'desert'
p5041
aaa(lp5042
g4544
a(lp5043
S'and'
p5044
aS'through'
p5045
aS'uh'
p5046
aaa(lp5047
g4544
a(lp5048
S'the'
p5049
aS'sufferings'
p5050
aaa(lp5051
g4544
a(lp5052
S'and'
p5053
aS'the'
p5054
aS'trials'
p5055
aS'of'
p5056
aS'this'
p5057
aS'life'
p5058
aaa(lp5059
g4544
a(lp5060
S'And'
p5061
aS'uh'
p5062
aaa(lp5063
g4544
a(lp5064
S'its'
p5065
aS'very'
p5066
aS'last'
p5067
aS'verse'
p5068
aS'is'
p5069
aS'uh'
p5070
aaa(lp5071
g4544
a(lp5072
S'READ'
p5073
aS'he'
p5074
aS'who'
p5075
aS'in'
p5076
aS'his'
p5077
aS'hour'
p5078
aS'of'
p5079
aS'sorrow'
p5080
aaa(lp5081
g4544
a(lp5082
S'bore'
p5083
aS'the'
p5084
aS'curse'
p5085
aS'alone'
p5086
aaa(lp5087
g4544
a(lp5088
g9
aS'who'
p5089
aS'through'
p5090
aS'the'
p5091
aS'lonely'
p5092
aS'desert'
p5093
aaa(lp5094
g4544
a(lp5095
S'trod'
p5096
aS'where'
p5097
aS'he'
p5098
aS'had'
p5099
aS'gone'
p5100
aaa(lp5101
g4544
a(lp5102
S'He'
p5103
aS'and'
p5104
ag9
aaa(lp5105
g4544
a(lp5106
S'in'
p5107
aS'that'
p5108
aS'bright'
p5109
aS'glory'
p5110
aaa(lp5111
S'AUD'
p5112
a(lp5113
aa(lp5114
S'JEFF'
p5115
a(lp5116
S'one'
p5117
aS'deep'
p5118
aS'joy'
p5119
aS'shall'
p5120
aS'share'
p5121
aaa(lp5122
g5115
a(lp5123
S'Mine'
p5124
aaa(lp5125
g5115
a(lp5126
S'to'
p5127
aS'be'
p5128
aS'forever'
p5129
aS'with'
p5130
aS'him'
p5131
aaa(lp5132
g5115
a(lp5133
S'His'
p5134
aaa(lp5135
g5115
a(lp5136
S'My'
p5137
aS'friends'
p5138
aaa(lp5139
g5115
a(lp5140
S'in'
p5141
aS'the'
p5142
aS'wonder'
p5143
aS'of'
p5144
aS'Gods'
p5145
aS'love'
p5146
aaa(lp5147
g5115
a(lp5148
S'Hes'
p5149
aS'pleased'
p5150
aS'with'
p5151
aS'you'
p5152
aaa(lp5153
g5115
a(lp5154
S'God'
p5155
aS'who'
p5156
aS'looked'
p5157
aS'at'
p5158
aS'his'
p5159
aS'own'
p5160
aS'Son'
p5161
aaa(lp5162
g5115
a(lp5163
S'and'
p5164
aS'his'
p5165
aS'heart'
p5166
aS'rejoiced'
p5167
aaa(lp5168
g5115
a(lp5169
S'His'
p5170
aS'heart'
p5171
aS'rejoices'
p5172
aS'this'
p5173
aS'morning'
p5174
aaa(lp5175
g5115
a(lp5176
S'In'
p5177
aS'your'
p5178
aS'praise'
p5179
aaa(lp5180
g5115
a(lp5181
S'In'
p5182
aS'your'
p5183
aS'worship'
p5184
aaa(lp5185
g5115
a(lp5186
S'In'
p5187
aS'the'
p5188
aS'service'
p5189
aS'of'
p5190
aS'your'
p5191
aS'hands'
p5192
aaa(lp5193
g5115
a(lp5194
S'In'
p5195
aS'the'
p5196
aS'love'
p5197
aS'of'
p5198
aS'your'
p5199
aS'heart'
p5200
aaa(lp5201
g5115
a(lp5202
S'Shall'
p5203
aS'we'
p5204
aS'pray'
p5205
aaa(lp5206
g5115
a(lp5207
S'Our'
p5208
aS'heavenly'
p5209
aS'Father'
p5210
aaa(lp5211
g5115
a(lp5212
S'we'
p5213
aS'annot'
p5214
aS'find'
p5215
aS'words'
p5216
aS'to'
p5217
aS'express'
p5218
aS'our'
p5219
aS'love'
p5220
aS'for'
p5221
aS'you'
p5222
aaa(lp5223
g5115
a(lp5224
S'because'
p5225
aS'we'
p5226
aS'are'
p5227
aS'overwhelmed'
p5228
aS'by'
p5229
aS'your'
p5230
aS'love'
p5231
aS'for'
p5232
aS'us'
p5233
aaa(lp5234
g5115
a(lp5235
S'Lord'
p5236
aS'Jesus'
p5237
aaa(lp5238
g5115
a(lp5239
S'how'
p5240
aS'may'
p5241
aS'we'
p5242
aS'speak'
p5243
aS'to'
p5244
aS'you'
p5245
aaa(lp5246
g5115
a(lp5247
S'of'
p5248
aS'that'
p5249
aS'which'
p5250
aS'you'
p5251
aS'give'
p5252
aS'to'
p5253
aS'us'
p5254
aaa(lp5255
g5115
a(lp5256
S'Spirit'
p5257
aS'of'
p5258
aS'God'
p5259
aaa(lp5260
g5115
a(lp5261
S'how'
p5262
aS'we'
p5263
aS'praise'
p5264
aS'you'
p5265
aaa(lp5266
g5115
a(lp5267
S'that'
p5268
aS'when'
p5269
aS'we'
p5270
aS'do'
p5271
aS'not'
p5272
aS'know'
p5273
aS'what'
p5274
aS'to'
p5275
aS'pray'
p5276
aS'as'
p5277
aS'we'
p5278
aS'should'
p5279
aaa(lp5280
g5115
a(lp5281
S'you'
p5282
aS'make'
p5283
aS'intercession'
p5284
aS'for'
p5285
aS'us'
p5286
aaa(lp5287
g5115
a(lp5288
S'with'
p5289
aS'groanings'
p5290
aS'that'
p5291
aS'cannot'
p5292
aS'be'
p5293
aS'uttered'
p5294
aaa(lp5295
g5115
a(lp5296
S'And'
p5297
aS'o'
p5298
aS'Lord'
p5299
aaa(lp5300
g5115
a(lp5301
S'receive'
p5302
aS'we'
p5303
aS'pray'
p5304
aS'this'
p5305
aS'morning'
p5306
aaa(lp5307
g5115
a(lp5308
S'the'
p5309
aS'incense'
p5310
aS'of'
p5311
aS'our'
p5312
aS'love'
p5313
aS'for'
p5314
aS'you'
p5315
aaa(lp5316
S'AUD'
p5317
a(lp5318
aa(lp5319
S'JEFF'
p5320
a(lp5321
S'and'
p5322
aS'forbid'
p5323
aS'Lord'
p5324
aaa(lp5325
g5320
a(lp5326
S'that'
p5327
aS'this'
p5328
aS'should'
p5329
aS'be'
p5330
aS'just'
p5331
ag273
aS'passing'
p5332
aS'emotion'
p5333
aS'in'
p5334
aS'our'
p5335
aS'hearts'
p5336
aaa(lp5337
g5320
a(lp5338
S'uh'
p5339
aS'burn'
p5340
aS'it'
p5341
aS'upon'
p5342
aS'the'
p5343
aS'deepest'
p5344
aS'recesses'
p5345
aS'of'
p5346
aS'our'
p5347
aS'being'
p5348
aaa(lp5349
g5320
a(lp5350
S'Make'
p5351
aS'us'
p5352
aS'Lord'
p5353
aS'your'
p5354
aS'servants'
p5355
aaa(lp5356
g5320
a(lp5357
S'Your'
p5358
aS'servants'
p5359
aS'in'
p5360
aS'love'
p5361
aaa(lp5362
g5320
a(lp5363
S'We'
p5364
aS'ask'
p5365
aS'it'
p5366
aS'in'
p5367
aS'Jesuss'
p5368
aS'name'
p5369
aaa(lp5370
g5320
a(lp5371
S'amen'
p5372
aaa(lp5373
S'DAN'
p5374
a(lp5375
S'Doctor'
p5376
aS'Mosely'
p5377
aS'thank'
p5378
aS'you'
p5379
aaa(lp5380
S'JEFF'
p5381
a(lp5382
aa(lp5383
S'DAN'
p5384
a(lp5385
S'for'
p5386
aaa(lp5387
S'AUD'
p5388
a(lp5389
S'Yeah'
p5390
aaa(lp5391
S'DAN'
p5392
a(lp5393
S'coming'
p5394
aS'and'
p5395
aS'speaking'
p5396
aS'to'
p5397
aS'us'
p5398
aaa(lp5399
S'JEFF'
p5400
a(lp5401
S'N_yeah'
p5402
aaa(lp5403
S'MANY'
p5404
a(lp5405
aa.