(lp0
(lp1
S'STEVEN'
p2
a(lp3
S'Heres'
p4
aS'a'
p5
aS'nice'
p6
aS'place'
p7
aS'to'
p8
aS'put'
p9
aS'my'
p10
aS'shoes'
p11
aaa(lp12
S'SHERI'
p13
a(lp14
S'Yeah'
p15
aS'there'
p16
aS'it'
p17
aS'is'
p18
aaa(lp19
S'STEVEN'
p20
a(lp21
S'Mom'
p22
aS'look'
p23
aaa(lp24
S'SHERI'
p25
a(lp26
S'Unhunh'
p27
aS'what'
p28
aaa(lp29
S'STEVEN'
p30
a(lp31
S'Look'
p32
aS'at'
p33
aS'my'
p34
aS'shoes'
p35
aaa(lp36
S'SHERI'
p37
a(lp38
aa(lp39
g37
a(lp40
S'They'
p41
aS'look'
p42
aS'like'
p43
aS'the'
p44
aS'phantom'
p45
aS'stairsteppers'
p46
aaa(lp47
g37
a(lp48
S'Hunh'
p49
aaa(lp50
S'STEVEN'
p51
a(lp52
S'Nono'
p53
aaa(lp54
g51
a(lp55
S'it'
p56
aS'looks'
p57
aS'like'
p58
aS'the'
p59
aS'Invisible'
p60
aS'Man'
p61
aaa(lp62
S'SHERI'
p63
a(lp64
S'It'
p65
aS'does'
p66
aS'look'
p67
aS'like'
p68
aS'the'
p69
aS'Invisible'
p70
aS'Man'
p71
aaa(lp72
g63
a(lp73
S'Ohho'
p74
aS'burp'
p75
aaa(lp76
g63
a(lp77
S'That'
p78
aS'felt'
p79
aS'good'
p80
aaa(lp81
S'STEVEN'
p82
a(lp83
S'Wasnt'
p84
aS'there'
p85
ag5
aS'guy'
p86
aS'called'
p87
aS'the'
p88
aS'Invisible'
p89
aS'Man'
p90
aaa(lp91
S'SHERI'
p92
a(lp93
S'Yes'
p94
aS'there'
p95
aS'was'
p96
aaa(lp97
S'STEVEN'
p98
a(lp99
S'Was'
p100
aS'he'
p101
aS'in'
p102
ag5
aS'movie'
p103
aaa(lp104
S'SHERI'
p105
a(lp106
S'Yes'
p107
aS'he'
p108
aS'was'
p109
aaa(lp110
S'STEVEN'
p111
a(lp112
S'What'
p113
aS'was'
p114
aS'it'
p115
aS'called'
p116
aaa(lp117
S'SHERI'
p118
a(lp119
S'The'
p120
aS'Invisible'
p121
aS'Man'
p122
aaa(lp123
g118
a(lp124
S'It'
p125
aS'was'
p126
aS'kind'
p127
aS'of'
p128
ag5
aS'show'
p129
aS'kinda'
p130
aS'like'
p131
aS'The'
p132
aS'Shadow'
p133
aS'was'
p134
aaa(lp135
g118
a(lp136
S'You'
p137
aS'know'
p138
aS'it'
p139
aS'was'
p140
ag5
aaa(lp141
g118
a(lp142
S'Actually'
p143
aS'though'
p144
aaa(lp145
g118
a(lp146
S'I'
p147
aS'think'
p148
aS'they'
p149
aS'made'
p150
ag5
aS'remake'
p151
aS'of'
p152
aS'it'
p153
aaa(lp154
g118
a(lp155
S'with'
p156
aS'Chevy'
p157
aS'Chase'
p158
aaa(lp159
g118
a(lp160
S'that'
p161
aS'was'
p162
aS'really'
p163
aS'lousy'
p164
aS'though'
p165
aaa(lp166
g118
a(lp167
S'Steven'
p168
aaa(lp169
g118
a(lp170
S'You'
p171
aS'know'
p172
aS'what'
p173
aS'you'
p174
aS'could'
p175
aS'do'
p176
aaa(lp177
g118
a(lp178
S'that'
p179
aS'would'
p180
aS'be'
p181
aS'just'
p182
aS'really'
p183
aS'helpful'
p184
aaa(lp185
S'STEVEN'
p186
a(lp187
S'Say'
p188
aS'it'
p189
aaa(lp190
S'SHERI'
p191
a(lp192
aa(lp193
g191
a(lp194
S'You'
p195
aS'could'
p196
aS'p'
p197
aS'take'
p198
aS'these'
p199
aS'Coke'
p200
aS'cans'
p201
aaa(lp202
g191
a(lp203
S'and'
p204
aS'put'
p205
aS'them'
p206
aS'in'
p207
aS'the'
p208
aS'bag'
p209
aS'full'
p210
aS'of'
p211
aS'Coke'
p212
aS'cans'
p213
aS'that'
p214
aS'are'
p215
aS'in'
p216
aS'your'
p217
aS'bedroom'
p218
aaa(lp219
g191
a(lp220
S'and'
p221
aS'then'
p222
aS'we'
p223
aS'can'
p224
aS'do'
p225
aS'can'
p226
aS'squish'
p227
aaa(lp228
g191
a(lp229
S'And'
p230
aS'squish'
p231
aS'em'
p232
aaa(lp233
g191
a(lp234
S'For'
p235
aS'the'
p236
aS'recycling'
p237
aS'bin'
p238
aaa(lp239
g191
a(lp240
S'Okay'
p241
aaa(lp242
S'STEVEN'
p243
a(lp244
S'Tomorrow'
p245
aS'please'
p246
aaa(lp247
g243
a(lp248
S'my'
p249
aS'feet'
p250
aS'are'
p251
aS'hurting'
p252
aaa(lp253
S'SHERI'
p254
a(lp255
S'Tomorrow'
p256
aaa(lp257
g254
a(lp258
S'Well'
p259
aS'can'
p260
aS'you'
p261
aS'just'
p262
aS'put'
p263
aS'em'
p264
aS'in'
p265
aS'the'
p266
aS'bag'
p267
aaa(lp268
g254
a(lp269
S'in'
p270
aS'there'
p271
aS'for'
p272
aS'now'
p273
aaa(lp274
g254
a(lp275
S'okay'
p276
aaa(lp277
S'STEVEN'
p278
a(lp279
S'Okay'
p280
aaa(lp281
S'SHERI'
p282
a(lp283
S'Cause'
p284
ag147
aS'gotta'
p285
aS'clean'
p286
aS'up'
p287
aS'in'
p288
aS'here'
p289
aaa(lp290
g282
a(lp291
S'this'
p292
aS'place'
p293
aS'is'
p294
aS'just'
p295
aS'totally'
p296
aS'trashed'
p297
aaa(lp298
g282
a(lp299
S'cause'
p300
aS'Ive'
p301
aS'done'
p302
aS'nothing'
p303
aS'this'
p304
aS'week'
p305
aS'but'
p306
aaa(lp307
g282
a(lp308
S'study'
p309
aS'and'
p310
aS'be'
p311
aS'sick'
p312
aaa(lp313
g282
a(lp314
S'Ive'
p315
aS'got'
p316
ag5
aS'really'
p317
aS'bad'
p318
aS'dental'
p319
aS'problem'
p320
aaa(lp321
g282
a(lp322
S'Or'
p323
aS'something'
p324
aS'with'
p325
aS'my'
p326
aS'mouth'
p327
aaa(lp328
S'STEVEN'
p329
a(lp330
S'Poor'
p331
aS'Mom'
p332
aaa(lp333
S'SHERI'
p334
a(lp335
S'Think'
p336
aS'Ive'
p337
aS'got'
p338
ag5
aS'sinus'
p339
aS'infection'
p340
aS'or'
p341
aS'something'
p342
aaa(lp343
g334
a(lp344
S'Dont'
p345
aS'Steven'
p346
aaa(lp347
S'STEVEN'
p348
a(lp349
S'Mmkay'
p350
aaa(lp351
S'SHERI'
p352
a(lp353
S'Please'
p354
aaa(lp355
g352
a(lp356
g147
aS'know'
p357
aS'its'
p358
aS'tempting'
p359
aaa(lp360
g352
a(lp361
S'What'
p362
aS'Id'
p363
aS'like'
p364
aS'you'
p365
aS'to'
p366
aS'do'
p367
aS'is'
p368
aS'put'
p369
aS'those'
p370
aS'cans'
p371
aS'away'
p372
aS'please'
p373
aaa(lp374
S'STEVEN'
p375
a(lp376
S'Where'
p377
aaa(lp378
g375
a(lp379
S'Where'
p380
aaa(lp381
g375
a(lp382
S'Oh'
p383
aS'there'
p384
aS'they'
p385
aS'are'
p386
aaa(lp387
S'SHERI'
p388
a(lp389
S'Yeah'
p390
aaa(lp391
g388
a(lp392
S'there'
p393
aS'they'
p394
aS'are'
p395
aaa(lp396
S'STEVEN'
p397
a(lp398
S'A'
p399
aS'one'
p400
aaa(lp401
g397
a(lp402
g399
aS'two'
p403
aaa(lp404
g397
a(lp405
S'Lets'
p406
aS'make'
p407
aS'the'
p408
aS'L'
p409
aS'statue'
p410
aS'of'
p411
aS'hamburger'
p412
aS'city'
p413
ag409
aaa(lp414
S'SHERI'
p415
a(lp416
S'Mm'
p417
aaa(lp418
S'STEVEN'
p419
a(lp420
S'The'
p421
aS'statue'
p422
aS'of'
p423
aS'Coke'
p424
aaa(lp425
S'SHERI'
p426
a(lp427
S'Yeah'
p428
aaa(lp429
S'STEVEN'
p430
a(lp431
S'The'
p432
aS'swinging'
p433
aS'X'
p434
aS'barn'
p435
ag434
aaa(lp436
S'SHERI'
p437
a(lp438
S'Youre'
p439
aS'just'
p440
ag5
aS'swinging'
p441
aS'kid'
p442
aS'Steve'
p443
aaa(lp444
S'STEVEN'
p445
a(lp446
S'VOX'
p447
aS'Yeah'
p448
aS'VOX'
p449
aaa(lp450
g445
a(lp451
S'You'
p452
aS'dont'
p453
aS'know'
p454
aS'the'
p455
aS'half'
p456
aS'of'
p457
aS'it'
p458
aaa(lp459
S'SHERI'
p460
a(lp461
g147
aS'dont'
p462
aS'know'
p463
aS'the'
p464
aS'half'
p465
aS'of'
p466
aS'it'
p467
aaa(lp468
g460
a(lp469
S'do'
p470
ag147
aaa(lp471
g460
a(lp472
S'Yeah'
p473
aaa(lp474
g460
a(lp475
S'Oh'
p476
aS'man'
p477
aaa(lp478
g460
a(lp479
S'Hey'
p480
aS'Steve'
p481
aaa(lp482
g460
a(lp483
S'why'
p484
aS'dont'
p485
aS'you'
p486
aS'give'
p487
aS'your'
p488
aS'iguana'
p489
ag5
aS'little'
p490
aS'bit'
p491
aS'of'
p492
aS'banana'
p493
aS'too'
p494
aaa(lp495
g460
a(lp496
S'hed'
p497
aS'probably'
p498
aS'really'
p499
aS'like'
p500
aS'some'
p501
aaa(lp502
g460
a(lp503
S'Hed'
p504
aS'probably'
p505
aS'really'
p506
aS'like'
p507
aS'some'
p508
aS'banana'
p509
aaa(lp510
S'STEVEN'
p511
a(lp512
S'Thanks'
p513
aS'for'
p514
aS'XXXXX'
p515
aS'Mom'
p516
aaa(lp517
S'SHERI'
p518
a(lp519
aa(lp520
g518
a(lp521
S'Oh'
p522
aS'and'
p523
ag147
aS'think'
p524
aS'this'
p525
aS'is'
p526
aS'Robbies'
p527
aS'shirt'
p528
aaa(lp529
g518
a(lp530
S'and'
p531
aS'his'
p532
aS'uh'
p533
aaa(lp534
g518
a(lp535
S'HarleyDavidson'
p536
aS'scarf'
p537
aaa(lp538
g518
a(lp539
S'Right'
p540
aaa(lp541
S'STEVEN'
p542
a(lp543
S'Hmm'
p544
aaa(lp545
S'SHERI'
p546
a(lp547
S'Isnt'
p548
aS'that'
p549
aS'Robbies'
p550
aS'shirt'
p551
aaa(lp552
g546
a(lp553
S'and'
p554
aS'uh'
p555
aS'HarleyDavidson'
p556
aS'scarf'
p557
aS'from'
p558
aS'this'
p559
aS'summer'
p560
aaa(lp561
g546
a(lp562
g147
aS'wanted'
p563
aS'to'
p564
aS'give'
p565
aS'that'
p566
aS'back'
p567
aS'to'
p568
aS'them'
p569
aaa(lp570
g546
a(lp571
S'tomorrow'
p572
aaa(lp573
g546
a(lp574
S'when'
p575
aS'we'
p576
aS'go'
p577
aS'over'
p578
aS'for'
p579
aS'his'
p580
aS'birthday'
p581
aaa(lp582
S'STEVEN'
p583
a(lp584
S'VOX'
p585
aS'XX'
p586
ag434
aS'VOXX'
p587
aaa(lp588
g583
a(lp589
g147
aS'need'
p590
aS'to'
p591
aS'get'
p592
aS'Robbie'
p593
ag5
aS'um'
p594
aS'present'
p595
aS'too'
p596
aaa(lp597
S'SHERI'
p598
a(lp599
S'Yeah'
p600
aaa(lp601
g598
a(lp602
S'what'
p603
aS'do'
p604
aS'you'
p605
aS'think'
p606
aS'hed'
p607
aS'like'
p608
aS'to'
p609
aS'have'
p610
aaa(lp611
S'STEVEN'
p612
a(lp613
S'HI'
p614
aS'Im'
p615
aS'not'
p616
aS'sure'
p617
aS'HI'
p618
aaa(lp619
g612
a(lp620
S'but'
p621
aS'we'
p622
aS'could'
p623
aS'go'
p624
aS'over'
p625
aS'to'
p626
aS'Toys'
p627
aS'R'
p628
aS'Us'
p629
aaa(lp630
S'SHERI'
p631
a(lp632
S'it'
p633
aS'seems'
p634
aS'to'
p635
aS'me'
p636
ag147
aS'brought'
p637
aS'the'
p638
aS'Toys'
p639
ag628
aS'Us'
p640
aS'catalog'
p641
aS'back'
p642
aS'with'
p643
aS'me'
p644
aaa(lp645
S'STEVEN'
p646
a(lp647
S'Its'
p648
aS'right'
p649
aS'over'
p650
aS'there'
p651
aaa(lp652
S'SHERI'
p653
a(lp654
S'Okay'
p655
aaa(lp656
S'STEVEN'
p657
a(lp658
S'Its'
p659
aS'over'
p660
aS'there'
p661
aaa(lp662
S'SHERI'
p663
a(lp664
S'why'
p665
aS'dont'
p666
aS'you'
p667
aS'have'
p668
ag5
aS'look'
p669
aS'at'
p670
aS'it'
p671
aaa(lp672
g663
a(lp673
S'and'
p674
aS'see'
p675
aS'if'
p676
aaa(lp677
g663
a(lp678
S'anything'
p679
aS'comes'
p680
aS'to'
p681
aS'mind'
p682
aaa(lp683
g663
a(lp684
S'for'
p685
aS'something'
p686
aS'you'
p687
aS'think'
p688
aS'Robbie'
p689
aS'would'
p690
aS'like'
p691
aS'to'
p692
aS'have'
p693
aaa(lp694
g663
a(lp695
S'for'
p696
aS'his'
p697
aS'birthday'
p698
aaa(lp699
S'STEVEN'
p700
a(lp701
S'Well'
p702
ag147
aS'have'
p703
aS'some'
p704
aS'things'
p705
aS'in'
p706
aS'here'
p707
aS'for'
p708
aS'Christmas'
p709
aaa(lp710
S'SHERI'
p711
a(lp712
S'Yeah'
p713
aaa(lp714
g711
a(lp715
g147
aS'know'
p716
aS'you'
p717
aS'probably'
p718
aS'see'
p719
aS'things'
p720
aS'in'
p721
aS'there'
p722
aS'that'
p723
aS'you'
p724
aS'want'
p725
aS'for'
p726
aS'Christmas'
p727
aaa(lp728
g711
a(lp729
S'but'
p730
aS'right'
p731
aS'now'
p732
aS'were'
p733
aS'thinking'
p734
aS'about'
p735
aS'him'
p736
aS'and'
p737
aS'his'
p738
aS'birthday'
p739
aaa(lp740
S'STEVEN'
p741
a(lp742
S'SIGH'
p743
aS'Okay'
p744
aS'SIGH'
p745
aaa(lp746
S'SHERI'
p747
a(lp748
S'And'
p749
ag147
aS'gotta'
p750
aS's'
p751
aS'get'
p752
aS'started'
p753
aS'on'
p754
aS'this'
p755
aS'chicken'
p756
aS'pizza'
p757
aS'or'
p758
aaa(lp759
g747
a(lp760
S'if'
p761
aS'anybody'
p762
aS'actually'
p763
aS'takes'
p764
aS'me'
p765
aS'up'
p766
aS'on'
p767
aS'this'
p768
aS'and'
p769
aS'comes'
p770
aaa(lp771
S'STEVEN'
p772
a(lp773
S'Theres'
p774
aS'coupons'
p775
aS'in'
p776
aS'here'
p777
aS'too'
p778
aS'Mom'
p779
aaa(lp780
g772
a(lp781
S'so'
p782
aaa(lp783
g772
a(lp784
S'Mom'
p785
aS'theres'
p786
aS'coupons'
p787
aS'in'
p788
aS'here'
p789
aaa(lp790
S'ENV'
p791
a(lp792
aa(lp793
S'STEVEN'
p794
a(lp795
S'so'
p796
aS'we'
p797
aS'can'
p798
aS'get'
p799
aS'some'
p800
aS'things'
p801
aaa(lp802
S'SHERI'
p803
a(lp804
S'Mhm'
p805
aaa(lp806
g803
a(lp807
S'Really'
p808
aaa(lp809
S'STEVEN'
p810
a(lp811
S'Yeah'
p812
aaa(lp813
S'SHERI'
p814
a(lp815
S'Are'
p816
aS'they'
p817
aS'good'
p818
aS'things'
p819
aaa(lp820
S'STEVEN'
p821
a(lp822
S'Yeah'
p823
aaa(lp824
g821
a(lp825
S'And'
p826
aS'theres'
p827
aS'um'
p828
aaa(lp829
g821
a(lp830
S'also'
p831
aaa(lp832
g821
a(lp833
S'theres'
p834
aS'also'
p835
ag5
aS'Nickelodean'
p836
aS'free'
p837
aaa(lp838
S'SHERI'
p839
a(lp840
S'XXX'
p841
aaa(lp842
S'STEVEN'
p843
a(lp844
S'um'
p845
aS'box'
p846
aS'there'
p847
aaa(lp848
S'SHERI'
p849
a(lp850
S'Really'
p851
aaa(lp852
S'STEVEN'
p853
a(lp854
S'And'
p855
aS'its'
p856
ag434
ag5
aS'bowl'
p857
ag434
aS'with'
p858
aS'goodies'
p859
aS'and'
p860
aS'coupons'
p861
aaa(lp862
S'SHERI'
p863
a(lp864
S'Oh'
p865
aS'wow'
p866
aaa(lp867
S'STEVEN'
p868
a(lp869
S'And'
p870
aS'thats'
p871
aS'why'
p872
ag147
aS'wanna'
p873
aS'get'
p874
aS'that'
p875
aaa(lp876
g868
a(lp877
g147
aS'know'
p878
aS'something'
p879
aS'that'
p880
aS'Robbie'
p881
aS'may'
p882
aS'like'
p883
aaa(lp884
g868
a(lp885
S'Let'
p886
aS'me'
p887
aS'try'
p888
aS'to'
p889
aS'find'
p890
aS'it'
p891
aaa(lp892
S'SHERI'
p893
a(lp894
S'Yeah'
p895
aS'unhunh'
p896
aaa(lp897
S'STEVEN'
p898
a(lp899
S'Its'
p900
ag5
aS'Yack'
p901
aS'Pack'
p902
aaa(lp903
S'SHERI'
p904
a(lp905
S'Is'
p906
aS'that'
p907
aS'um'
p908
aaa(lp909
g904
a(lp910
S'full'
p911
aS'of'
p912
aS'yucky'
p913
aS'stuff'
p914
aaa(lp915
g904
a(lp916
S'Or'
p917
aS'what'
p918
aaa(lp919
S'STEVEN'
p920
a(lp921
S'No'
p922
aaa(lp923
S'SHERI'
p924
a(lp925
S'Are'
p926
aS'you'
p927
aS'sure'
p928
aaa(lp929
S'STEVEN'
p930
a(lp931
S'No'
p932
aaa(lp933
g930
a(lp934
S'Its'
p935
aS'kinda'
p936
aS'like'
p937
ag5
aS'tape'
p938
aS'recorder'
p939
aaa(lp940
S'SHERI'
p941
a(lp942
aa(lp943
g941
a(lp944
S'Oh'
p945
aaa(lp946
g941
a(lp947
S'It'
p948
aS'is'
p949
aaa(lp950
S'STEVEN'
p951
a(lp952
S'See'
p953
aS'you'
p954
aS'um'
p955
aaa(lp956
g951
a(lp957
S'Like'
p958
aS'you'
p959
aS'tape'
p960
aS'record'
p961
aS'your'
p962
aS'dad'
p963
aS'saying'
p964
aaa(lp965
g951
a(lp966
S'VOX'
p967
aS'clean'
p968
aS'your'
p969
aS'room'
p970
aS'VOX'
p971
aaa(lp972
S'SHERI'
p973
a(lp974
S'Unhunh'
p975
aaa(lp976
S'STEVEN'
p977
a(lp978
S'And'
p979
aS'then'
p980
aS'theres'
p981
aS'this'
p982
aS'girl'
p983
aS'on'
p984
aS'TV'
p985
aaa(lp986
g977
a(lp987
S'and'
p988
aS'you'
p989
aS'play'
p990
aS'it'
p991
aaa(lp992
g977
a(lp993
S'and'
p994
aS'it'
p995
ag751
aaa(lp996
g977
a(lp997
S'And'
p998
aS'the'
p999
aS'girl'
p1000
aS'says'
p1001
aaa(lp1002
g977
a(lp1003
S'VOX'
p1004
aS'clean'
p1005
aS'your'
p1006
aS'room'
p1007
aS'VOX'
p1008
aaa(lp1009
S'SHERI'
p1010
a(lp1011
S'So'
p1012
aS'is'
p1013
aS'it'
p1014
aS'kinda'
p1015
aS'like'
p1016
aS'one'
p1017
aS'of'
p1018
aS'those'
p1019
aS'Talkboys'
p1020
aaa(lp1021
g1010
a(lp1022
S'like'
p1023
aS'that'
p1024
aS'was'
p1025
aS'in'
p1026
aaa(lp1027
S'STEVEN'
p1028
a(lp1029
S'Yeah'
p1030
aaa(lp1031
S'SHERI'
p1032
a(lp1033
S'What'
p1034
aS'do'
p1035
aS'you'
p1036
aS'call'
p1037
aS'it'
p1038
aaa(lp1039
g1032
a(lp1040
S'what'
p1041
aS'was'
p1042
aS'that'
p1043
aaa(lp1044
g1032
a(lp1045
S'How'
p1046
aS'much'
p1047
aS'would'
p1048
aS'something'
p1049
aS'like'
p1050
aS'that'
p1051
aS'cost'
p1052
aaa(lp1053
S'STEVEN'
p1054
a(lp1055
S'Um'
p1056
aaa(lp1057
g1054
a(lp1058
S'let'
p1059
aS'me'
p1060
aS'look'
p1061
aS'for'
p1062
aS'it'
p1063
aaa(lp1064
g1054
a(lp1065
S'Its'
p1066
aS'in'
p1067
aS'here'
p1068
aaa(lp1069
g1054
a(lp1070
S'Cause'
p1071
ag147
aS'circled'
p1072
aS'it'
p1073
aaa(lp1074
g1054
a(lp1075
S'Okay'
p1076
aS'it'
p1077
aS'costs'
p1078
aaa(lp1079
g1054
a(lp1080
S'nine'
p1081
aS'ninetynine'
p1082
aaa(lp1083
S'SHERI'
p1084
a(lp1085
S'Are'
p1086
aS'you'
p1087
aS'sure'
p1088
aaa(lp1089
S'STEVEN'
p1090
a(lp1091
S'Yeah'
p1092
aaa(lp1093
g1090
a(lp1094
S'thats'
p1095
aS'it'
p1096
aaa(lp1097
S'SHERI'
p1098
a(lp1099
S'Well'
p1100
aS'we'
p1101
aS'could'
p1102
aS'probably'
p1103
aS'afford'
p1104
aS'that'
p1105
aaa(lp1106
g1098
a(lp1107
S'hunh'
p1108
aaa(lp1109
S'STEVEN'
p1110
a(lp1111
S'Oh'
p1112
aS'wait'
p1113
ag5
aS'minute'
p1114
aaa(lp1115
g1110
a(lp1116
g147
aS'think'
p1117
aS'it'
p1118
aS'says'
p1119
aS'twelve'
p1120
aS'ninetynine'
p1121
aaa(lp1122
S'SHERI'
p1123
a(lp1124
S'Twelve'
p1125
aS'ninetynine'
p1126
aaa(lp1127
S'STEVEN'
p1128
a(lp1129
g434
aS'Thirteen'
p1130
ag434
aS'XX'
p1131
aaa(lp1132
g1128
a(lp1133
S'Come'
p1134
aS'over'
p1135
aS'here'
p1136
aS'and'
p1137
aS'look'
p1138
aaa(lp1139
g1128
a(lp1140
S'And'
p1141
aaa(lp1142
S'SHERI'
p1143
a(lp1144
S'Alright'
p1145
aaa(lp1146
g1143
a(lp1147
S'Hang'
p1148
aS'on'
p1149
aS'just'
p1150
ag5
aS'second'
p1151
aS'honey'
p1152
aaa(lp1153
S'STEVEN'
p1154
a(lp1155
g147
aS'think'
p1156
aS'it'
p1157
aS'says'
p1158
aaa(lp1159
g1154
a(lp1160
S'it'
p1161
aS'says'
p1162
aS'th'
p1163
aaa(lp1164
g1154
a(lp1165
S'twelve'
p1166
aS'ninetynine'
p1167
aaa(lp1168
g1154
a(lp1169
S'and'
p1170
aS'then'
p1171
aS'right'
p1172
aS'here'
p1173
aS'it'
p1174
aS'says'
p1175
aS'Yack'
p1176
aS'Pack'
p1177
aaa(lp1178
g1154
a(lp1179
S'nine'
p1180
aS'ninetynine'
p1181
aaa(lp1182
S'SHERI'
p1183
a(lp1184
S'Ah'
p1185
aaa(lp1186
S'STEVEN'
p1187
a(lp1188
S'Maybe'
p1189
aS'it'
p1190
aS'means'
p1191
aS'Yack'
p1192
aS'Pack'
p1193
aS'one'
p1194
aaa(lp1195
g1187
a(lp1196
S'and'
p1197
aS'this'
p1198
aS'is'
p1199
aS'Yack'
p1200
aS'Pack'
p1201
aS'two'
p1202
aaa(lp1203
S'SHERI'
p1204
a(lp1205
S'Yack'
p1206
aaa(lp1207
g1204
a(lp1208
S'Yack'
p1209
aS'Pack'
p1210
aS'two'
p1211
aaa(lp1212
S'STEVEN'
p1213
a(lp1214
S'Two'
p1215
aaa(lp1216
S'SHERI'
p1217
a(lp1218
S'Unhunh'
p1219
aaa(lp1220
S'STEVEN'
p1221
a(lp1222
S'Yeah'
p1223
aaa(lp1224
S'SHERI'
p1225
a(lp1226
S'Hunh'
p1227
aaa(lp1228
S'STEVEN'
p1229
a(lp1230
S'Should'
p1231
aS'we'
p1232
aS'get'
p1233
aS'it'
p1234
aaa(lp1235
S'SHERI'
p1236
a(lp1237
g147
aS'dont'
p1238
aS'know'
p1239
aaa(lp1240
g1236
a(lp1241
S'Why'
p1242
aS'dont'
p1243
aS'we'
p1244
aS'go'
p1245
aS'to'
p1246
aS'Toys'
p1247
ag628
aS'Us'
p1248
aS'tomorrow'
p1249
aaa(lp1250
g1236
a(lp1251
S'and'
p1252
aS'well'
p1253
aaa(lp1254
g1236
a(lp1255
S'uh'
p1256
aaa(lp1257
S'STEVEN'
p1258
a(lp1259
g434
aS'look'
p1260
aS'for'
p1261
aS'it'
p1262
ag434
aaa(lp1263
S'SHERI'
p1264
a(lp1265
S'Research'
p1266
aS'it'
p1267
aaa(lp1268
g1264
a(lp1269
S'Well'
p1270
aS'see'
p1271
aaa(lp1272
S'STEVEN'
p1273
a(lp1274
S'Theres'
p1275
aS'also'
p1276
ag5
aS'um'
p1277
aaa(lp1278
S'SHERI'
p1279
a(lp1280
S'What'
p1281
aS'it'
p1282
aS'says'
p1283
aS'they'
p1284
aS'are'
p1285
aS'there'
p1286
aaa(lp1287
S'STEVEN'
p1288
a(lp1289
S'Yeah'
p1290
aS'it'
p1291
aS'does'
p1292
aaa(lp1293
g1288
a(lp1294
S'And'
p1295
aS'theres'
p1296
aaa(lp1297
S'SHERI'
p1298
a(lp1299
S'Cause'
p1300
ag147
aS'really'
p1301
aS'dont'
p1302
aS'know'
p1303
aaa(lp1304
g1298
a(lp1305
S'its'
p1306
aS'hard'
p1307
aS'to'
p1308
aS'tell'
p1309
aS'you'
p1310
aS'know'
p1311
aaa(lp1312
g1298
a(lp1313
S'if'
p1314
ag147
aS'can'
p1315
aS'afford'
p1316
aS'it'
p1317
aaa(lp1318
g1298
a(lp1319
S'unless'
p1320
ag147
aS'know'
p1321
aS'exactly'
p1322
aS'what'
p1323
aS'the'
p1324
aS'price'
p1325
aS'is'
p1326
aS'on'
p1327
aS'it'
p1328
aaa(lp1329
S'STEVEN'
p1330
a(lp1331
S'Theres'
p1332
aS'also'
p1333
aS'some'
p1334
aS'movies'
p1335
ag147
aS'want'
p1336
aaa(lp1337
S'SHERI'
p1338
a(lp1339
S'Really'
p1340
aaa(lp1341
g1338
a(lp1342
S'And'
p1343
aS'what'
p1344
aS'are'
p1345
aS'those'
p1346
aaa(lp1347
S'STEVEN'
p1348
a(lp1349
S'Like'
p1350
aS'Batman'
p1351
aS'Forever'
p1352
aaa(lp1353
S'SHERI'
p1354
a(lp1355
S'Mhm'
p1356
aaa(lp1357
S'STEVEN'
p1358
a(lp1359
S'and'
p1360
aS'The'
p1361
aS'Santa'
p1362
aS'Clause'
p1363
aaa(lp1364
g1358
a(lp1365
S'With'
p1366
aS'Tim'
p1367
aS'Allen'
p1368
aaa(lp1369
S'SHERI'
p1370
a(lp1371
aa(lp1372
g1370
a(lp1373
S'Who'
p1374
aS'was'
p1375
aS'it'
p1376
aS'who'
p1377
aS'was'
p1378
aS'saying'
p1379
aS'they'
p1380
aS'were'
p1381
aS'gonna'
p1382
aS'buy'
p1383
aS'the'
p1384
aS'movie'
p1385
aS'Casper'
p1386
aS'the'
p1387
aS'Ghost'
p1388
aS'today'
p1389
aaa(lp1390
g1370
a(lp1391
S'Was'
p1392
aS'that'
p1393
aS'Jack'
p1394
aaa(lp1395
S'STEVEN'
p1396
a(lp1397
S'Zach'
p1398
aaa(lp1399
g1396
a(lp1400
S'Yeah'
p1401
aaa(lp1402
S'SHERI'
p1403
a(lp1404
S'Ah'
p1405
aaa(lp1406
S'STEVEN'
p1407
a(lp1408
S'And'
p1409
aaa(lp1410
g1407
a(lp1411
S'And'
p1412
aS'Mom'
p1413
aaa(lp1414
g1407
a(lp1415
S'you'
p1416
aS'know'
p1417
aS'what'
p1418
aS'the'
p1419
aS'fun'
p1420
aaa(lp1421
g1407
a(lp1422
S'the'
p1423
aS'f'
p1424
aaa(lp1425
g1407
a(lp1426
S'Its'
p1427
aS'kind'
p1428
aS'of'
p1429
aS'l'
p1430
ag5
aS'game'
p1431
aaa(lp1432
g1407
a(lp1433
S'except'
p1434
aS'um'
p1435
aS'you'
p1436
aaa(lp1437
S'SHERI'
p1438
a(lp1439
S'Unhunh'
p1440
aaa(lp1441
S'STEVEN'
p1442
a(lp1443
S'you'
p1444
aS'ask'
p1445
aS'your'
p1446
aS'cosmic'
p1447
aS'questions'
p1448
aaa(lp1449
g1442
a(lp1450
S'oja'
p1451
aaa(lp1452
g1442
a(lp1453
S'Oija'
p1454
aaa(lp1455
S'SHERI'
p1456
a(lp1457
S'Ouija'
p1458
aaa(lp1459
S'STEVEN'
p1460
a(lp1461
S'Ouija'
p1462
aaa(lp1463
S'SHERI'
p1464
a(lp1465
S'Yeah'
p1466
aS'like'
p1467
ag5
aS'Ouiji'
p1468
aaa(lp1469
g1464
a(lp1470
S'We'
p1471
aS'used'
p1472
aS'to'
p1473
aS'call'
p1474
aS'em'
p1475
aS'Ouija'
p1476
aS'boards'
p1477
aaa(lp1478
g1464
a(lp1479
S'Oh'
p1480
aS'god'
p1481
aS'my'
p1482
aS'head'
p1483
aS'hurts'
p1484
aaa(lp1485
S'STEVEN'
p1486
a(lp1487
S'Did'
p1488
aS'you'
p1489
aS'like'
p1490
aS'it'
p1491
aaa(lp1492
S'SHERI'
p1493
a(lp1494
S'Oh'
p1495
aaa(lp1496
g1493
a(lp1497
S'Hunh'
p1498
aaa(lp1499
S'STEVEN'
p1500
a(lp1501
S'Did'
p1502
aS'you'
p1503
aS'like'
p1504
aS'it'
p1505
aaa(lp1506
S'SHERI'
p1507
a(lp1508
S'Yeah'
p1509
ag147
aS'used'
p1510
aS'to'
p1511
aS'love'
p1512
aS'Ouija'
p1513
aS'boards'
p1514
aS'when'
p1515
ag147
aS'was'
p1516
ag5
aS'little'
p1517
aS'girl'
p1518
aaa(lp1519
g1507
a(lp1520
g147
aS'thought'
p1521
aS'they'
p1522
aS'were'
p1523
aS'really'
p1524
aS'fun'
p1525
aaa(lp1526
g1507
a(lp1527
S'Course'
p1528
aS'we'
p1529
aS'always'
p1530
aS'asked'
p1531
aS'em'
p1532
aS'questions'
p1533
aS'we'
p1534
aS'already'
p1535
aS'knew'
p1536
aS'the'
p1537
aS'answer'
p1538
aS'to'
p1539
aaa(lp1540
S'STEVEN'
p1541
a(lp1542
S'Like'
p1543
aS'what'
p1544
aaa(lp1545
g1541
a(lp1546
S'your'
p1547
aS'homework'
p1548
aaa(lp1549
S'SHERI'
p1550
a(lp1551
S'Oh'
p1552
aS'man'
p1553
aaa(lp1554
g1550
a(lp1555
g147
aS'feel'
p1556
aS'like'
p1557
aS'my'
p1558
aS'brains'
p1559
aS'are'
p1560
aS'gonna'
p1561
aS'to'
p1562
aS'come'
p1563
aS'out'
p1564
aaa(lp1565
S'STEVEN'
p1566
a(lp1567
S'Like'
p1568
aS'that'
p1569
aaa(lp1570
S'SHERI'
p1571
a(lp1572
S'Hunh'
p1573
aaa(lp1574
S'STEVEN'
p1575
a(lp1576
S'Like'
p1577
aS'man'
p1578
aaa(lp1579
g1575
a(lp1580
S'my'
p1581
aS'brains'
p1582
aS'feel'
p1583
aS'like'
p1584
aS'theyre'
p1585
aS'gonna'
p1586
aS'come'
p1587
aS'out'
p1588
aaa(lp1589
S'SHERI'
p1590
a(lp1591
S'Well'
p1592
aaa(lp1593
g1590
a(lp1594
S'Ive'
p1595
aS'either'
p1596
aS'got'
p1597
ag5
aS'sinus'
p1598
aaa(lp1599
g1590
a(lp1600
S'Really'
p1601
aS'bad'
p1602
aS'sinus'
p1603
aS'infection'
p1604
aaa(lp1605
g1590
a(lp1606
S'or'
p1607
aS'Ive'
p1608
aS'got'
p1609
aS'an'
p1610
aS'impacted'
p1611
aS'tooth'
p1612
aaa(lp1613
g1590
a(lp1614
S'or'
p1615
aS'something'
p1616
aaa(lp1617
g1590
a(lp1618
S'But'
p1619
aS'my'
p1620
aaa(lp1621
g1590
a(lp1622
S'My'
p1623
aS'head'
p1624
aS'hurts'
p1625
aS'all'
p1626
aS'the'
p1627
aS'way'
p1628
aS'up'
p1629
aS'my'
p1630
aS'nose'
p1631
aS'and'
p1632
aaa(lp1633
g1590
a(lp1634
S'my'
p1635
aS'teeth'
p1636
aS'hurt'
p1637
aS'and'
p1638
aaa(lp1639
g1590
a(lp1640
S'basically'
p1641
ag147
aS'just'
p1642
aaa(lp1643
g1590
a(lp1644
S'am'
p1645
ag5
aS'mess'
p1646
aS'babe'
p1647
aaa(lp1648
S'STEVEN'
p1649
a(lp1650
S'You'
p1651
aS'dont'
p1652
aS'know'
p1653
aS'the'
p1654
aS'half'
p1655
aS'of'
p1656
aS'it'
p1657
aaa(lp1658
S'SHERI'
p1659
a(lp1660
S'Mhm'
p1661
aaa(lp1662
g1659
a(lp1663
g434
aS'Yeah'
p1664
ag434
aaa(lp1665
S'STEVEN'
p1666
a(lp1667
S'Robbie'
p1668
aS'does'
p1669
aS'like'
p1670
aS'remote'
p1671
aS'control'
p1672
aS'cars'
p1673
aaa(lp1674
g1666
a(lp1675
g147
aS'see'
p1676
aS'lots'
p1677
aS'of'
p1678
aS'em'
p1679
aS'in'
p1680
aS'here'
p1681
aaa(lp1682
S'SHERI'
p1683
a(lp1684
S'Oh'
p1685
aS'does'
p1686
aS'he'
p1687
aaa(lp1688
g1683
a(lp1689
S'He'
p1690
aS'likes'
p1691
aS'those'
p1692
aaa(lp1693
S'STEVEN'
p1694
a(lp1695
S'Yeah'
p1696
aaa(lp1697
S'SHERI'
p1698
a(lp1699
S'Well'
p1700
aS'his'
p1701
aS'Dads'
p1702
aS'into'
p1703
aS'that'
p1704
aS'too'
p1705
aaa(lp1706
S'STEVEN'
p1707
a(lp1708
S'But'
p1709
aaa(lp1710
S'SHERI'
p1711
a(lp1712
S'cause'
p1713
aS'hes'
p1714
aS'into'
p1715
aS'those'
p1716
aS'HarleyDavidsons'
p1717
aS'and'
p1718
aS'stuff'
p1719
aaa(lp1720
g1711
a(lp1721
S'Isnt'
p1722
aS'he'
p1723
aaa(lp1724
S'STEVEN'
p1725
a(lp1726
S'Yeah'
p1727
aS'but'
p1728
aaa(lp1729
g1725
a(lp1730
S'there'
p1731
aS'is'
p1732
aS'something'
p1733
aS'in'
p1734
aS'here'
p1735
aS'that'
p1736
aaa(lp1737
S'SHERI'
p1738
a(lp1739
S'Unhunh'
p1740
aaa(lp1741
S'STEVEN'
p1742
a(lp1743
S'The'
p1744
aS'Doctor'
p1745
aS'Dreadful'
p1746
ag1424
aS'drink'
p1747
aS'lab'
p1748
aaa(lp1749
S'SHERI'
p1750
a(lp1751
S'The'
p1752
aS'who'
p1753
aS'what'
p1754
aaa(lp1755
S'STEVEN'
p1756
a(lp1757
S'VOX'
p1758
aS'The'
p1759
aS'Doctor'
p1760
aS'Dreadful'
p1761
aS'drink'
p1762
aS'lab'
p1763
aS'VOX'
p1764
aaa(lp1765
S'SHERI'
p1766
a(lp1767
S'The'
p1768
aS'Doctor'
p1769
aS'Dreadful'
p1770
aS'drink'
p1771
aS'lab'
p1772
aaa(lp1773
g1766
a(lp1774
S'Oh'
p1775
aS'boy'
p1776
aaa(lp1777
S'STEVEN'
p1778
a(lp1779
S'Yeah'
p1780
aaa(lp1781
S'ENV'
p1782
a(lp1783
S'WATER_RUNNING_IN_SINK'
p1784
aaa(lp1785
S'STEVEN'
p1786
a(lp1787
S'He'
p1788
aS'makes'
p1789
aS'some'
p1790
aS'really'
p1791
aaa(lp1792
g1786
a(lp1793
S'XX'
p1794
aS'nasty'
p1795
aS'drinks'
p1796
aS'that'
p1797
aS'taste'
p1798
aS'great'
p1799
aaa(lp1800
S'SHERI'
p1801
a(lp1802
S'Really'
p1803
aaa(lp1804
S'STEVEN'
p1805
a(lp1806
S'XX'
p1807
aaa(lp1808
S'SHERI'
p1809
a(lp1810
S'This'
p1811
aS'place'
p1812
aS'is'
p1813
aS'such'
p1814
ag5
aS'mess'
p1815
aaa(lp1816
S'ENV'
p1817
a(lp1818
S'WATER_RUNNING_IN_SINK'
p1819
aaa(lp1820
S'SHERI'
p1821
a(lp1822
S'Hey'
p1823
aS'Steve'
p1824
aaa(lp1825
g1821
a(lp1826
S'remind'
p1827
aS'me'
p1828
aS'tomorrow'
p1829
aS'when'
p1830
aS'we'
p1831
aS'go'
p1832
aS'shopping'
p1833
aaa(lp1834
g1821
a(lp1835
S'That'
p1836
ag147
aS'wanna'
p1837
aS'get'
p1838
aS'some'
p1839
aS'potting'
p1840
aS'soil'
p1841
aaa(lp1842
S'STEVEN'
p1843
a(lp1844
S'Yeah'
p1845
aaa(lp1846
S'SHERI'
p1847
a(lp1848
S'Cause'
p1849
ag147
aS'wanna'
p1850
aS'put'
p1851
aS'these'
p1852
aS'uh'
p1853
aaa(lp1854
g1847
a(lp1855
S'geraniums'
p1856
aaa(lp1857
g1847
a(lp1858
S'in'
p1859
ag5
aS'pot'
p1860
aaa(lp1861
g1847
a(lp1862
S'Because'
p1863
aaa(lp1864
g1847
a(lp1865
S'why'
p1866
aS'they'
p1867
aS'arent'
p1868
aS'dead'
p1869
ag147
aS'dont'
p1870
aS'know'
p1871
aaa(lp1872
g1847
a(lp1873
S'because'
p1874
aS'all'
p1875
ag147
aS'do'
p1876
aS'is'
p1877
aS'take'
p1878
aS'them'
p1879
aS'to'
p1880
aS'the'
p1881
aS'brink'
p1882
aS'of'
p1883
aS'death'
p1884
aS'all'
p1885
aS'the'
p1886
aS'time'
p1887
aS'and'
p1888
aaa(lp1889
g1847
a(lp1890
S'and'
p1891
aS'somehow'
p1892
aS'they'
p1893
aS'manage'
p1894
aS'to'
p1895
aS'keep'
p1896
aS'surviving'
p1897
aS'me'
p1898
aaa(lp1899
g1847
a(lp1900
S'and'
p1901
aS'all'
p1902
aS'my'
p1903
aS'neglect'
p1904
aaa(lp1905
g1847
a(lp1906
S'But'
p1907
ag147
aS'wanna'
p1908
aS'get'
p1909
aS'em'
p1910
aS'in'
p1911
ag5
aS'pot'
p1912
aaa(lp1913
g1847
a(lp1914
S'Because'
p1915
aS'one'
p1916
aS'of'
p1917
aS'ems'
p1918
aS'gonna'
p1919
aS'flower'
p1920
aaa(lp1921
g1847
a(lp1922
S'Its'
p1923
aS'so'
p1924
aS'pretty'
p1925
aaa(lp1926
g1847
a(lp1927
S'And'
p1928
aS'if'
p1929
aS'they'
p1930
aS'were'
p1931
aaa(lp1932
g1847
a(lp1933
S'you'
p1934
aS'know'
p1935
aaa(lp1936
g1847
a(lp1937
S'in'
p1938
ag5
aS'pot'
p1939
aS'with'
p1940
aS'good'
p1941
aS'soil'
p1942
aS'and'
p1943
aS'water'
p1944
aaa(lp1945
g1847
a(lp1946
S'theyd'
p1947
aS'be'
p1948
aS'just'
p1949
aS'beautiful'
p1950
aaa(lp1951
g1847
a(lp1952
S'Theyd'
p1953
aS'be'
p1954
aaa(lp1955
g1847
a(lp1956
S'up'
p1957
aS'and'
p1958
aS'rolling'
p1959
aaa(lp1960
g1847
a(lp1961
S'See'
p1962
aS'if'
p1963
ag147
aS'can'
p1964
aS'find'
p1965
aS'the'
p1966
aS'recipe'
p1967
aS'for'
p1968
aS'my'
p1969
aS'Malaysian'
p1970
aS'chicken'
p1971
aS'pizza'
p1972
aaa(lp1973
g1847
a(lp1974
S'Man'
p1975
aaa(lp1976
g1847
a(lp1977
g147
aS'had'
p1978
aS'the'
p1979
aS'longest'
p1980
aS'day'
p1981
aS'at'
p1982
aS'work'
p1983
aS'today'
p1984
aaa(lp1985
S'ENV'
p1986
a(lp1987
S'WATER_RUNNING_AND_DISH_NOISE'
p1988
aaa(lp1989
S'SHERI'
p1990
a(lp1991
S'Just'
p1992
aS'took'
p1993
aS'forever'
p1994
aaa(lp1995
S'ENV'
p1996
a(lp1997
S'WATER_RUNNING_AND_DISH_NOISE'
p1998
aaa(lp1999
S'SHERI'
p2000
a(lp2001
S'Okay'
p2002
aaa(lp2003
g2000
a(lp2004
S'Mm'
p2005
aS'burp'
p2006
aaa(lp2007
g2000
a(lp2008
S'XP'
p2009
aS'Okay'
p2010
aS'PX'
p2011
aaa(lp2012
g2000
a(lp2013
S'Lets'
p2014
aS'see'
p2015
ag147
aS'gotta'
p2016
aS'find'
p2017
aS'my'
p2018
aS'recipe'
p2019
aaa(lp2020
g2000
a(lp2021
S'Thisll'
p2022
aS'be'
p2023
aS'the'
p2024
aS'tough'
p2025
aS'part'
p2026
aaa(lp2027
g2000
a(lp2028
S'Geez'
p2029
aS'Id'
p2030
aS'lose'
p2031
aS'my'
p2032
aS'head'
p2033
aS'if'
p2034
aS'it'
p2035
aS'wasnt'
p2036
aS'sewn'
p2037
aS'on'
p2038
aaa(lp2039
g2000
a(lp2040
g147
aS'hope'
p2041
aS'nobody'
p2042
aaa(lp2043
g2000
a(lp2044
g147
aS'almost'
p2045
aS'hope'
p2046
aS'nobody'
p2047
aS'does'
p2048
aS'show'
p2049
aS'up'
p2050
aS'for'
p2051
aS'this'
p2052
aS'thing'
p2053
aaa(lp2054
g2000
a(lp2055
S'cause'
p2056
aS'Im'
p2057
aS'not'
p2058
aS'at'
p2059
aS'all'
p2060
aS'ready'
p2061
aaa(lp2062
S'STEVEN'
p2063
a(lp2064
aa(lp2065
g2063
a(lp2066
S'Now'
p2067
aS'look'
p2068
ag147
aS'got'
p2069
aS'the'
p2070
aS'sniffles'
p2071
aaa(lp2072
S'SHERI'
p2073
a(lp2074
S'Do'
p2075
aS'you'
p2076
aS'honey'
p2077
aaa(lp2078
g2073
a(lp2079
S'Got'
p2080
ag5
aS'cold'
p2081
aS'going'
p2082
aaa(lp2083
S'STEVEN'
p2084
a(lp2085
S'Yeah'
p2086
aaa(lp2087
S'SHERI'
p2088
a(lp2089
S'Aw'
p2090
aaa(lp2091
S'STEVEN'
p2092
a(lp2093
S'Look'
p2094
aS'at'
p2095
aS'Sneaker'
p2096
aS'Mom'
p2097
aaa(lp2098
S'SHERI'
p2099
a(lp2100
S'Im'
p2101
aS'sorry'
p2102
aaa(lp2103
S'STEVEN'
p2104
a(lp2105
S'look'
p2106
aS'on'
p2107
aS'his'
p2108
aS'hand'
p2109
aaa(lp2110
g2104
a(lp2111
S'hes'
p2112
aS'shedding'
p2113
aS'on'
p2114
aS'his'
p2115
aS'hand'
p2116
aaa(lp2117
S'SHERI'
p2118
a(lp2119
S'Im'
p2120
aS'know'
p2121
aaa(lp2122
g2118
a(lp2123
S'he'
p2124
aS'is'
p2125
aS'shedding'
p2126
aS'on'
p2127
aS'his'
p2128
aS'hands'
p2129
aaa(lp2130
g2118
a(lp2131
S'Youre'
p2132
aS'right'
p2133
aaa(lp2134
S'STEVEN'
p2135
a(lp2136
S'Hes'
p2137
aS'such'
p2138
ag5
ag434
aS'good'
p2139
aS'little'
p2140
aS'old'
p2141
ag434
aS'boy'
p2142
aaa(lp2143
S'SHERI'
p2144
a(lp2145
S'He'
p2146
aS'is'
p2147
aaa(lp2148
g2144
a(lp2149
g147
aS'wanna'
p2150
aS'put'
p2151
aS'some'
p2152
aS'grow'
p2153
aS'lights'
p2154
aS'in'
p2155
aS'here'
p2156
aS'for'
p2157
aS'him'
p2158
aaa(lp2159
g2144
a(lp2160
g434
aS'so'
p2161
aS'we'
p2162
aS'have'
p2163
ag434
aaa(lp2164
g2144
a(lp2165
g434
aS'what'
p2166
aS'the'
p2167
ag434
aS'heck'
p2168
aaa(lp2169
g2144
a(lp2170
S'There'
p2171
aS'we'
p2172
aS'go'
p2173
aaa(lp2174
g2144
a(lp2175
S'theres'
p2176
aS'my'
p2177
aS'pizza'
p2178
aS'recipe'
p2179
aaa(lp2180
g2144
a(lp2181
S'Um'
p2182
aaa(lp2183
S'STEVEN'
p2184
a(lp2185
g434
aS'At'
p2186
aS'least'
p2187
ag434
aS'hes'
p2188
aS'not'
p2189
aS'sitting'
p2190
aS'on'
p2191
aS'his'
p2192
aS'feet'
p2193
aaa(lp2194
g2184
a(lp2195
g434
aS'when'
p2196
ag147
aS'pet'
p2197
aS'him'
p2198
aS'now'
p2199
ag434
aaa(lp2200
S'SHERI'
p2201
a(lp2202
S'Well'
p2203
ag147
aS'got'
p2204
aS'the'
p2205
aS'heat'
p2206
aS'turned'
p2207
aaa(lp2208
g2201
a(lp2209
S'Oh'
p2210
aS'Steven'
p2211
aaa(lp2212
g2201
a(lp2213
S'that'
p2214
aS'reminds'
p2215
aS'me'
p2216
aaa(lp2217
g2201
a(lp2218
S'Ive'
p2219
aS'got'
p2220
aS'the'
p2221
aS'heat'
p2222
aS'turned'
p2223
aS'on'
p2224
aS'in'
p2225
aS'here'
p2226
aaa(lp2227
g2201
a(lp2228
S'so'
p2229
aS'weve'
p2230
aS'got'
p2231
ag5
aS'gas'
p2232
aS'heater'
p2233
aaa(lp2234
g2201
a(lp2235
S'in'
p2236
aS'here'
p2237
aaa(lp2238
g2201
a(lp2239
S'So'
p2240
aS'every'
p2241
aS'once'
p2242
aS'in'
p2243
ag5
aS'while'
p2244
aS'itll'
p2245
aS'fire'
p2246
aS'on'
p2247
aS'and'
p2248
aS'youll'
p2249
aS'see'
p2250
aS'like'
p2251
aaa(lp2252
g2201
a(lp2253
S'flames'
p2254
aS'go'
p2255
aS'on'
p2256
aS'or'
p2257
aS'something'
p2258
aaa(lp2259
g2201
a(lp2260
S'dont'
p2261
aS'be'
p2262
aS'scared'
p2263
aaa(lp2264
g2201
a(lp2265
S'but'
p2266
aS'dont'
p2267
aS'mess'
p2268
aS'with'
p2269
aS'this'
p2270
aS'here'
p2271
aaa(lp2272
g2201
a(lp2273
S'and'
p2274
aS'this'
p2275
aS'plate'
p2276
aS'in'
p2277
aS'your'
p2278
aS'bedroom'
p2279
aaa(lp2280
g2201
a(lp2281
S'Steven'
p2282
aaa(lp2283
S'STEVEN'
p2284
a(lp2285
S'Mhm'
p2286
aaa(lp2287
S'SHERI'
p2288
a(lp2289
S'The'
p2290
aS'landlords'
p2291
aS'gotta'
p2292
aS'put'
p2293
ag5
aS'vent'
p2294
aS'over'
p2295
aS'it'
p2296
aaa(lp2297
g2288
a(lp2298
S'Come'
p2299
aS'here'
p2300
aaa(lp2301
g2288
a(lp2302
g147
aS'wanna'
p2303
aS'show'
p2304
aS'you'
p2305
aaa(lp2306
g2288
a(lp2307
S'Please'
p2308
aS'come'
p2309
aS'here'
p2310
aaa(lp2311
S'STEVEN'
p2312
a(lp2313
S'Mhm'
p2314
aaa(lp2315
S'SHERI'
p2316
a(lp2317
S'Dont'
p2318
aS'touch'
p2319
aS'this'
p2320
aS'cause'
p2321
aS'you'
p2322
aS'could'
p2323
aS'burn'
p2324
aS'yourself'
p2325
aaa(lp2326
g2316
a(lp2327
S'Okay'
p2328
aaa(lp2329
S'STEVEN'
p2330
a(lp2331
S'With'
p2332
aS'the'
p2333
aS'gas'
p2334
aS'heater'
p2335
aaa(lp2336
S'SHERI'
p2337
a(lp2338
S'Dont'
p2339
aS'touch'
p2340
aS'this'
p2341
aaa(lp2342
g2337
a(lp2343
S'And'
p2344
aS'dont'
p2345
aS'mess'
p2346
aS'with'
p2347
aS'this'
p2348
aS'uh'
p2349
aS'pipe'
p2350
aS'here'
p2351
aS'at'
p2352
aS'all'
p2353
aaa(lp2354
g2337
a(lp2355
S'cause'
p2356
aS'thats'
p2357
aS'where'
p2358
aS'the'
p2359
aS'gas'
p2360
aS'goes'
p2361
aS'through'
p2362
aaa(lp2363
g2337
a(lp2364
S'Okay'
p2365
aaa(lp2366
S'STEVEN'
p2367
a(lp2368
S'Mhm'
p2369
aaa(lp2370
S'SHERI'
p2371
a(lp2372
S'So'
p2373
aS'with'
p2374
aS'that'
p2375
aS'in'
p2376
aS'mind'
p2377
aaa(lp2378
g2371
a(lp2379
S'cause'
p2380
aS'thats'
p2381
aS'not'
p2382
aS'up'
p2383
aS't'
p2384
aaa(lp2385
S'STEVEN'
p2386
a(lp2387
S'XXX'
p2388
aS'XXXX'
p2389
aaa(lp2390
S'SHERI'
p2391
a(lp2392
S'Thats'
p2393
aS'not'
p2394
aS'up'
p2395
aS'to'
p2396
aS'building'
p2397
aS'code'
p2398
aaa(lp2399
g2391
a(lp2400
S'Um'
p2401
aaa(lp2402
g2391
a(lp2403
S'the'
p2404
aS'gas'
p2405
aS'guy'
p2406
aaa(lp2407
g2391
a(lp2408
S'when'
p2409
aS'he'
p2410
aS'came'
p2411
aS'in'
p2412
aS'he'
p2413
aS'told'
p2414
aS'me'
p2415
aaa(lp2416
g2391
a(lp2417
S'thats'
p2418
aS'not'
p2419
aS'code'
p2420
aaa(lp2421
g2391
a(lp2422
S'and'
p2423
aS'he'
p2424
aS'said'
p2425
aS'it'
p2426
aS'wasnt'
p2427
aS'that'
p2428
aS'it'
p2429
aS'was'
p2430
aS'unsafe'
p2431
aS'but'
p2432
aaa(lp2433
g2391
a(lp2434
S'we'
p2435
aS'still'
p2436
aS'need'
p2437
aS'to'
p2438
aS'be'
p2439
aS'very'
p2440
aS'careful'
p2441
aS'about'
p2442
aS'it'
p2443
aaa(lp2444
g2391
a(lp2445
S'Alright'
p2446
aaa(lp2447
S'STEVEN'
p2448
a(lp2449
S'Alright'
p2450
aS'Mom'
p2451
aaa(lp2452
S'SHERI'
p2453
a(lp2454
S'Did'
p2455
aS'you'
p2456
aS'hear'
p2457
aS'me'
p2458
aS'okay'
p2459
aaa(lp2460
S'STEVEN'
p2461
a(lp2462
S'Yeah'
p2463
aaa(lp2464
S'SHERI'
p2465
a(lp2466
S'Okay'
p2467
aaa(lp2468
g2465
a(lp2469
S'So'
p2470
aS'come'
p2471
aS'here'
p2472
aaa(lp2473
g2465
a(lp2474
S'what'
p2475
aS'do'
p2476
aS'you'
p2477
aS'want'
p2478
aS'me'
p2479
aS'to'
p2480
aS'put'
p2481
aS'on'
p2482
aS'your'
p2483
aS'pizza'
p2484
aaa(lp2485
g2465
a(lp2486
S'Steve'
p2487
aaa(lp2488
S'STEVEN'
p2489
a(lp2490
aa(lp2491
S'SHERI'
p2492
a(lp2493
g409
aS'Esteban'
p2494
ag409
aaa(lp2495
S'STEVEN'
p2496
a(lp2497
aa(lp2498
S'SHERI'
p2499
a(lp2500
S'Youre'
p2501
aS'gonna'
p2502
aS'have'
p2503
aS'pepperoni'
p2504
aaa(lp2505
g2499
a(lp2506
S'and'
p2507
aS'stuff'
p2508
aS'on'
p2509
aS'your'
p2510
aS'pizza'
p2511
aaa(lp2512
g2499
a(lp2513
S'or'
p2514
aS'are'
p2515
aS'you'
p2516
aS'not'
p2517
aS'hungry'
p2518
aS'right'
p2519
aS'now'
p2520
aaa(lp2521
S'STEVEN'
p2522
a(lp2523
g147
aS'want'
p2524
aS'some'
p2525
ag409
aS'pepperoni'
p2526
ag409
aaa(lp2527
S'SHERI'
p2528
a(lp2529
S'Mhm'
p2530
aaa(lp2531
S'STEVEN'
p2532
a(lp2533
S'Some'
p2534
aS'hmm'
p2535
aaa(lp2536
S'SHERI'
p2537
a(lp2538
S'Mhm'
p2539
aaa(lp2540
S'STEVEN'
p2541
a(lp2542
S'XX'
p2543
aS'SNAP'
p2544
aS'cheese'
p2545
aS'SNAP'
p2546
aaa(lp2547
S'SHERI'
p2548
a(lp2549
S'Okay'
p2550
aaa(lp2551
g2548
a(lp2552
S'You'
p2553
aS'want'
p2554
aS'mozzarella'
p2555
aaa(lp2556
S'STEVEN'
p2557
a(lp2558
S'Whats'
p2559
aS'that'
p2560
aaa(lp2561
S'SHERI'
p2562
a(lp2563
g409
aS'Mozzarella'
p2564
ag409
aaa(lp2565
g2562
a(lp2566
S'Thats'
p2567
aS'that'
p2568
aS'white'
p2569
aS'cheese'
p2570
aS'that'
p2571
aS'gets'
p2572
aS'all'
p2573
aS'stringy'
p2574
aS'and'
p2575
aS'melted'
p2576
aaa(lp2577
S'STEVEN'
p2578
a(lp2579
S'You'
p2580
aS'mean'
p2581
aS'the'
p2582
aS'one'
p2583
aS'that'
p2584
ag147
aaa(lp2585
g2578
a(lp2586
S'Kinda'
p2587
aS'like'
p2588
aS'um'
p2589
aS'Figaro'
p2590
aaa(lp2591
S'SHERI'
p2592
a(lp2593
S'Hmm'
p2594
aaa(lp2595
g2592
a(lp2596
S'Im'
p2597
aS'making'
p2598
aS'Malaysian'
p2599
aS'chicken'
p2600
aS'pizza'
p2601
aaa(lp2602
g2592
a(lp2603
S'Where'
p2604
aS'are'
p2605
aS'you'
p2606
aaa(lp2607
S'STEVEN'
p2608
a(lp2609
S'No'
p2610
aS'chicken'
p2611
aS'pizza'
p2612
aaa(lp2613
S'SHERI'
p2614
a(lp2615
S'You'
p2616
aS'want'
p2617
aaa(lp2618
g2614
a(lp2619
S'No'
p2620
aaa(lp2621
g2614
a(lp2622
S'its'
p2623
aS'wonderful'
p2624
aaa(lp2625
g2614
a(lp2626
S'Steven'
p2627
aaa(lp2628
g2614
a(lp2629
S'its'
p2630
aS'better'
p2631
aS'than'
p2632
aaa(lp2633
S'STEVEN'
p2634
a(lp2635
S'MRC'
p2636
ag147
aS'do'
p2637
aS'not'
p2638
aS'like'
p2639
aS'chicken'
p2640
aS'in'
p2641
aS'my'
p2642
aS'pizza'
p2643
aS'MRC'
p2644
aaa(lp2645
S'SHERI'
p2646
a(lp2647
S'Well'
p2648
aaa(lp2649
S'STEVEN'
p2650
a(lp2651
aa(lp2652
S'SHERI'
p2653
a(lp2654
g147
aS'know'
p2655
aS'peanut'
p2656
aS'butter'
p2657
aS'seems'
p2658
aS'weird'
p2659
aS'to'
p2660
aS'have'
p2661
aS'on'
p2662
aS'pizza'
p2663
aaa(lp2664
g2653
a(lp2665
S'but'
p2666
aS'its'
p2667
aS'really'
p2668
aS'good'
p2669
aaa(lp2670
S'STEVEN'
p2671
a(lp2672
S'SNAP'
p2673
aS'No'
p2674
aS'SNAP'
p2675
ag147
aS'said'
p2676
aS'ch'
p2677
aaa(lp2678
S'SHERI'
p2679
a(lp2680
S'Come'
p2681
aS'here'
p2682
aS'please'
p2683
aaa(lp2684
S'STEVEN'
p2685
a(lp2686
S'You'
p2687
aS'said'
p2688
aS'chicken'
p2689
aaa(lp2690
g2685
a(lp2691
g434
aS'and'
p2692
ag434
aaa(lp2693
S'SHERI'
p2694
a(lp2695
S'Yeah'
p2696
ag147
aS'know'
p2697
aaa(lp2698
g2694
a(lp2699
S'Oh'
p2700
aS'man'
p2701
aaa(lp2702
g2694
a(lp2703
g147
aS'forgot'
p2704
aS'to'
p2705
aS'get'
p2706
aS'the'
p2707
aS'Pam'
p2708
aS'cooking'
p2709
aS'spray'
p2710
aaa(lp2711
g2694
a(lp2712
S'Doggone'
p2713
aS'it'
p2714
aaa(lp2715
S'Steven'
p2716
a(lp2717
aa(lp2718
S'SHERI'
p2719
a(lp2720
S'Do'
p2721
aS'you'
p2722
aS'need'
p2723
aS'an'
p2724
aS'asthma'
p2725
aS'treatment'
p2726
aaa(lp2727
S'STEVEN'
p2728
a(lp2729
S'No'
p2730
aaa(lp2731
g2728
a(lp2732
S'Just'
p2733
aS'got'
p2734
ag5
aS'cough'
p2735
aaa(lp2736
S'SHERI'
p2737
a(lp2738
S'Are'
p2739
aS'you'
p2740
aS'sure'
p2741
aaa(lp2742
S'STEVEN'
p2743
a(lp2744
S'Yes'
p2745
aaa(lp2746
S'SHERI'
p2747
a(lp2748
S'Did'
p2749
aS'you'
p2750
aS'give'
p2751
aS'Sneaker'
p2752
aS'some'
p2753
aS'fresh'
p2754
aS'lettuce'
p2755
aaa(lp2756
S'STEVEN'
p2757
a(lp2758
S'Yeah'
p2759
aaa(lp2760
S'SHERI'
p2761
a(lp2762
S'Okay'
p2763
aaa(lp2764
g2761
a(lp2765
S'Ive'
p2766
aS'got'
p2767
aS'chicken'
p2768
aS'cacciatore'
p2769
aS'here'
p2770
aS'too'
p2771
aS'honey'
p2772
aaa(lp2773
g2761
a(lp2774
S'that'
p2775
ag147
aS'can'
p2776
aS'heat'
p2777
aS'up'
p2778
aS'for'
p2779
aS'you'
p2780
aS'if'
p2781
aS'youre'
p2782
aS'hungry'
p2783
aaa(lp2784
g2761
a(lp2785
S'If'
p2786
aS'it'
p2787
aS'takes'
p2788
aS'too'
p2789
aS'long'
p2790
aS'for'
p2791
aS'me'
p2792
aS'to'
p2793
aS'make'
p2794
aS'the'
p2795
aS'pizza'
p2796
aaa(lp2797
S'STEVEN'
p2798
a(lp2799
S'Okay'
p2800
aaa(lp2801
S'SHERI'
p2802
a(lp2803
S'Okay'
p2804
aaa(lp2805
S'STEVEN'
p2806
a(lp2807
S'Okay'
p2808
aaa(lp2809
S'SHERI'
p2810
a(lp2811
g147
aS'know'
p2812
aS'youre'
p2813
aS'probably'
p2814
aS'hungry'
p2815
aaa(lp2816
g2810
a(lp2817
S'Tell'
p2818
aS'you'
p2819
aS'what'
p2820
aaa(lp2821
g2810
a(lp2822
S'Ill'
p2823
aS'make'
p2824
aS'your'
p2825
aS'pizza'
p2826
aS'first'
p2827
aaa(lp2828
g2810
a(lp2829
S'cause'
p2830
aS'yours'
p2831
aS'is'
p2832
aS'easy'
p2833
aS'to'
p2834
aS'make'
p2835
aaa(lp2836
g2810
a(lp2837
S'And'
p2838
aS'then'
p2839
aS'Ill'
p2840
aS'make'
p2841
aS'this'
p2842
aS'fancy'
p2843
aS'one'
p2844
aS'second'
p2845
aaa(lp2846
S'STEVEN'
p2847
a(lp2848
S'Okay'
p2849
aaa(lp2850
S'SHERI'
p2851
a(lp2852
S'That'
p2853
aS'way'
p2854
aS'you'
p2855
aS'wont'
p2856
aS'have'
p2857
aS'to'
p2858
aS'wait'
p2859
aS'very'
p2860
aS'long'
p2861
aS'to'
p2862
aS'eat'
p2863
aaa(lp2864
g2851
a(lp2865
S'Cause'
p2866
ag147
aS'dont'
p2867
aS'know'
p2868
aaa(lp2869
g2851
a(lp2870
g147
aS'dont'
p2871
aS'know'
p2872
aS'if'
p2873
aaa(lp2874
g2851
a(lp2875
S'These'
p2876
aS'people'
p2877
aS'may'
p2878
aS'not'
p2879
aS'even'
p2880
aS'show'
p2881
aS'up'
p2882
aaa(lp2883
g2851
a(lp2884
g434
aS'You'
p2885
aS'know'
p2886
ag434
aS'theyre'
p2887
aS'kind'
p2888
aS'of'
p2889
aS'flaky'
p2890
aaa(lp2891
S'STEVEN'
p2892
a(lp2893
S'Think'
p2894
aS'theyll'
p2895
aS'ever'
p2896
aaa(lp2897
g2892
a(lp2898
g147
aS'think'
p2899
aS'theyll'
p2900
aS'just'
p2901
aS'stay'
p2902
aS'home'
p2903
aaa(lp2904
S'SHERI'
p2905
a(lp2906
aa(lp2907
g2905
a(lp2908
S'Well'
p2909
ag147
aS'dont'
p2910
aS'know'
p2911
aaa(lp2912
S'STEVEN'
p2913
a(lp2914
S'There'
p2915
aS'm'
p2916
aaa(lp2917
g2913
a(lp2918
S'Here'
p2919
aS'it'
p2920
aS'is'
p2921
aS'Mom'
p2922
aaa(lp2923
g2913
a(lp2924
S'The'
p2925
aS'free'
p2926
aS'Nickelodean'
p2927
aS'treat'
p2928
aS'box'
p2929
aaa(lp2930
S'SHERI'
p2931
a(lp2932
S'Free'
p2933
aaa(lp2934
S'STEVEN'
p2935
a(lp2936
S'READ'
p2937
aS'Bring'
p2938
aS'this'
p2939
aS'coupon'
p2940
aS'to'
p2941
aS'Toys'
p2942
ag628
aS'Us'
p2943
aaa(lp2944
g2935
a(lp2945
S'and'
p2946
aS'get'
p2947
aS'your'
p2948
aS'free'
p2949
aS'Nickelodean'
p2950
aS'PAR'
p2951
aS'ar'
p2952
aS'PAR'
p2953
aS'treat'
p2954
aS'box'
p2955
aaa(lp2956
S'SHERI'
p2957
a(lp2958
S'Hm'
p2959
aaa(lp2960
S'STEVEN'
p2961
a(lp2962
S'filled'
p2963
aS'with'
p2964
aS'goodies'
p2965
aS'and'
p2966
aS'coupons'
p2967
aS'READ'
p2968
aaa(lp2969
S'SHERI'
p2970
a(lp2971
S'Mmkay'
p2972
aaa(lp2973
S'ENV'
p2974
a(lp2975
aa(lp2976
S'SHERI'
p2977
a(lp2978
S'Mmkay'
p2979
aaa(lp2980
g2977
a(lp2981
S'were'
p2982
aS'going'
p2983
aS'to'
p2984
aS'make'
p2985
aS'yours'
p2986
aaa(lp2987
g2977
a(lp2988
S'quick'
p2989
aS'and'
p2990
aS'dirty'
p2991
aS'kid'
p2992
aaa(lp2993
g2977
a(lp2994
S'Lets'
p2995
aS'see'
p2996
aaa(lp2997
g2977
a(lp2998
S'Wheres'
p2999
aS'that'
p3000
aS'stuff'
p3001
aaa(lp3002
g2977
a(lp3003
S'Aw'
p3004
aS'man'
p3005
aaa(lp3006
g2977
a(lp3007
S'This'
p3008
aS'stuff'
p3009
aS'can'
p3010
aS'go'
p3011
aS'over'
p3012
aS'here'
p3013
aaa(lp3014
g2977
a(lp3015
S'so'
p3016
aS'Steve'
p3017
aaa(lp3018
g2977
a(lp3019
S'you'
p3020
aS'going'
p3021
aS'to'
p3022
ag5
aS'computer'
p3023
aS'lab'
p3024
aS'now'
p3025
aaa(lp3026
g2977
a(lp3027
S'at'
p3028
aS'the'
p3029
aS'Hemingway'
p3030
aS'Learning'
p3031
aS'Institute'
p3032
aaa(lp3033
g2977
a(lp3034
S'Is'
p3035
aS'that'
p3036
aS'fun'
p3037
aaa(lp3038
S'STEVEN'
p3039
a(lp3040
S'Hmm'
p3041
aaa(lp3042
S'SHERI'
p3043
a(lp3044
S'Yeah'
p3045
aaa(lp3046
S'STEVEN'
p3047
a(lp3048
S'Well'
p3049
ag147
aS'never'
p3050
aaa(lp3051
g3047
a(lp3052
S'Well'
p3053
ag147
aS'didnt'
p3054
aS'go'
p3055
aS'last'
p3056
aS'Friday'
p3057
aaa(lp3058
g3047
a(lp3059
S'because'
p3060
ag147
aS'forgot'
p3061
aaa(lp3062
S'SHERI'
p3063
a(lp3064
S'Oh'
p3065
aS'did'
p3066
aS'you'
p3067
aaa(lp3068
S'STEVEN'
p3069
a(lp3070
S'Yeah'
p3071
aaa(lp3072
S'SHERI'
p3073
a(lp3074
S'Cause'
p3075
aS'it'
p3076
aS'just'
p3077
aS'started'
p3078
aS'huh'
p3079
aaa(lp3080
S'STEVEN'
p3081
a(lp3082
S'Yeah'
p3083
aaa(lp3084
S'SHERI'
p3085
a(lp3086
S'Yeah'
p3087
aaa(lp3088
S'STEVEN'
p3089
a(lp3090
S'Im'
p3091
aS'not'
p3092
aS'sure'
p3093
aS'if'
p3094
aS'they'
p3095
aS'counted'
p3096
aS'me'
p3097
aaa(lp3098
S'SHERI'
p3099
a(lp3100
S'Oh'
p3101
ag147
aS'dont'
p3102
aS'know'
p3103
aS'babe'
p3104
aaa(lp3105
g3099
a(lp3106
S'Did'
p3107
aS'your'
p3108
aS'dad'
p3109
aS'go'
p3110
aS'to'
p3111
aS'California'
p3112
aS'this'
p3113
aS'weekend'
p3114
aaa(lp3115
S'STEVEN'
p3116
a(lp3117
S'Hes'
p3118
aaa(lp3119
g3116
a(lp3120
S'He'
p3121
aS'just'
p3122
aS'le'
p3123
aS'left'
p3124
aS'today'
p3125
aS'before'
p3126
ag147
aS'woke'
p3127
aS'up'
p3128
aaa(lp3129
S'SHERI'
p3130
a(lp3131
S'Oh'
p3132
aaa(lp3133
g3130
a(lp3134
S'he'
p3135
aS'left'
p3136
aS'this'
p3137
aS'morning'
p3138
aaa(lp3139
S'STEVEN'
p3140
a(lp3141
g434
aS'Yeah'
p3142
ag434
aaa(lp3143
S'SHERI'
p3144
a(lp3145
S'California'
p3146
aaa(lp3147
S'STEVEN'
p3148
a(lp3149
S'Yeah'
p3150
aaa(lp3151
S'SHERI'
p3152
a(lp3153
S'Kay'
p3154
aaa(lp3155
S'STEVEN'
p3156
a(lp3157
aa(lp3158
S'SHERI'
p3159
a(lp3160
S'Steven'
p3161
aaa(lp3162
g3159
a(lp3163
S'do'
p3164
aS'you'
p3165
aS'know'
p3166
aS'how'
p3167
aS'to'
p3168
aS'grate'
p3169
aS'cheese'
p3170
aaa(lp3171
S'STEVEN'
p3172
a(lp3173
S'Grate'
p3174
aS'cheese'
p3175
aaa(lp3176
S'SHERI'
p3177
a(lp3178
S'Yes'
p3179
aaa(lp3180
S'STEVEN'
p3181
a(lp3182
g434
aS'Yeah'
p3183
aS'why'
p3184
ag434
aaa(lp3185
g3181
a(lp3186
S'You'
p3187
aS'dont'
p3188
aS'know'
p3189
aS'how'
p3190
aS'to'
p3191
aS'Mom'
p3192
aaa(lp3193
S'SHERI'
p3194
a(lp3195
g147
aS'beg'
p3196
aS'your'
p3197
aS'pardon'
p3198
aaa(lp3199
S'STEVEN'
p3200
a(lp3201
S'You'
p3202
aS'dont'
p3203
aS'know'
p3204
aS'how'
p3205
aS'to'
p3206
aaa(lp3207
S'SHERI'
p3208
a(lp3209
S'Im'
p3210
aS'sorry'
p3211
aaa(lp3212
g3208
a(lp3213
g147
aS'cant'
p3214
aS'hear'
p3215
aS'you'
p3216
aaa(lp3217
S'STEVEN'
p3218
a(lp3219
S'Do'
p3220
aS'you'
p3221
aaa(lp3222
g3218
a(lp3223
S'You'
p3224
aS'dont'
p3225
aS'know'
p3226
aS'how'
p3227
aS'to'
p3228
aaa(lp3229
S'SHERI'
p3230
a(lp3231
S'No'
p3232
aaa(lp3233
g3230
a(lp3234
g147
aS'do'
p3235
aS'know'
p3236
aS'how'
p3237
aS'to'
p3238
aaa(lp3239
g3230
a(lp3240
S'Im'
p3241
aS'wondering'
p3242
aS'if'
p3243
aS'you'
p3244
aS'would'
p3245
aS'like'
p3246
aS'to'
p3247
aS'grate'
p3248
aS'some'
p3249
aS'cheese'
p3250
aS'to'
p3251
aS'put'
p3252
aS'on'
p3253
aS'your'
p3254
aS'pizza'
p3255
aaa(lp3256
S'STEVEN'
p3257
a(lp3258
S'Sure'
p3259
aaa(lp3260
S'SHERI'
p3261
a(lp3262
S'Or'
p3263
aS'are'
p3264
aS'you'
p3265
aS'enjoying'
p3266
aS'just'
p3267
aS'looking'
p3268
aS'at'
p3269
aS'your'
p3270
aS'catalog'
p3271
aaa(lp3272
g3261
a(lp3273
S'You'
p3274
aS'dont'
p3275
aS'have'
p3276
aS'to'
p3277
aS'do'
p3278
aS'that'
p3279
aS'if'
p3280
aS'you'
p3281
aS'dont'
p3282
aS'want'
p3283
aS'to'
p3284
aaa(lp3285
S'STEVEN'
p3286
a(lp3287
S'Ill'
p3288
aS'grate'
p3289
aS'em'
p3290
aaa(lp3291
g3286
a(lp3292
S'XXX'
p3293
aS'XX'
p3294
aS'wants'
p3295
aS'to'
p3296
aS'XX'
p3297
aaa(lp3298
S'SHERI'
p3299
a(lp3300
S'Mkay'
p3301
aaa(lp3302
g3299
a(lp3303
S'Were'
p3304
aS'gonna'
p3305
aS'need'
p3306
aS'to'
p3307
aS'put'
p3308
aS'sauce'
p3309
aS'on'
p3310
aS'the'
p3311
aS'uh'
p3312
aaa(lp3313
g3299
a(lp3314
S'Oh'
p3315
aS'boy'
p3316
aS'my'
p3317
aS'face'
p3318
aS'hurts'
p3319
aaa(lp3320
S'STEVEN'
p3321
a(lp3322
g434
aS'thing'
p3323
ag434
aS'first'
p3324
aaa(lp3325
S'SHERI'
p3326
a(lp3327
S'Yeah'
p3328
aaa(lp3329
g3326
a(lp3330
S'Ive'
p3331
aS'gotta'
p3332
aaa(lp3333
S'STEVEN'
p3334
a(lp3335
S'Okay'
p3336
aaa(lp3337
g3334
a(lp3338
S'Ill'
p3339
aS'wait'
p3340
aS'until'
p3341
aS'after'
p3342
aS'that'
p3343
aaa(lp3344
S'SHERI'
p3345
a(lp3346
S'Well'
p3347
aaa(lp3348
g3345
a(lp3349
S'putting'
p3350
aS'sauce'
p3351
aS'on'
p3352
aS'its'
p3353
aS'real'
p3354
aS'simple'
p3355
aaa(lp3356
g3345
a(lp3357
S'All'
p3358
ag147
aS'have'
p3359
aS'to'
p3360
aS'do'
p3361
aS'is'
p3362
aS'open'
p3363
ag5
aS'can'
p3364
aaa(lp3365
g3345
a(lp3366
S'and'
p3367
aS'dump'
p3368
aS'it'
p3369
aS'on'
p3370
aaa(lp3371
g3345
a(lp3372
S'Its'
p3373
aaa(lp3374
g3345
a(lp3375
S'Were'
p3376
aS'doing'
p3377
aS'things'
p3378
aS'very'
p3379
aS'simple'
p3380
aS'tonight'
p3381
aaa(lp3382
S'STEVEN'
p3383
a(lp3384
S'Mom'
p3385
aaa(lp3386
g3383
a(lp3387
S'they'
p3388
aS'have'
p3389
aS'costumes'
p3390
aS'in'
p3391
aS'here'
p3392
aS'too'
p3393
aaa(lp3394
S'SHERI'
p3395
a(lp3396
S'Do'
p3397
aS'they'
p3398
aS'have'
p3399
ag5
aS'Tick'
p3400
aS'costume'
p3401
aaa(lp3402
g3395
a(lp3403
S'that'
p3404
aS'you'
p3405
aS'wanted'
p3406
aaa(lp3407
S'STEVEN'
p3408
a(lp3409
S'No'
p3410
aaa(lp3411
g3408
a(lp3412
S'they'
p3413
aS'dont'
p3414
aaa(lp3415
S'SHERI'
p3416
a(lp3417
S'Hm'
p3418
aaa(lp3419
S'STEVEN'
p3420
a(lp3421
S'They'
p3422
aS'have'
p3423
aS'Spider'
p3424
aS'Man'
p3425
aaa(lp3426
g3420
a(lp3427
S'Jaws'
p3428
aaa(lp3429
g3420
a(lp3430
g5
aS'gargoyle'
p3431
aaa(lp3432
g3420
a(lp3433
g434
aS'some'
p3434
ag434
aaa(lp3435
g3420
a(lp3436
g5
aS'ninja'
p3437
aaa(lp3438
g3420
a(lp3439
S'clown'
p3440
aS'and'
p3441
ag5
aS'witch'
p3442
aaa(lp3443
S'SHERI'
p3444
a(lp3445
S'Unhunh'
p3446
aaa(lp3447
S'STEVEN'
p3448
a(lp3449
g147
aS'think'
p3450
aS'the'
p3451
aS'clown'
p3452
aaa(lp3453
g3448
a(lp3454
S'or'
p3455
aS'the'
p3456
aS'ninja'
p3457
aS'would'
p3458
aS'be'
p3459
aS'good'
p3460
aaa(lp3461
S'SHERI'
p3462
a(lp3463
S'Well'
p3464
aS'would'
p3465
aS'you'
p3466
aS'wanna'
p3467
aS'be'
p3468
ag5
aS'clown'
p3469
aS'or'
p3470
ag5
aS'ninja'
p3471
aaa(lp3472
g3462
a(lp3473
S'instead'
p3474
aS'of'
p3475
aS'the'
p3476
aS'Tick'
p3477
aaa(lp3478
g3462
a(lp3479
S'Or'
p3480
aaa(lp3481
S'STEVEN'
p3482
a(lp3483
g147
aS'wanna'
p3484
aS'be'
p3485
aS'the'
p3486
aS'Tick'
p3487
aaa(lp3488
S'SHERI'
p3489
a(lp3490
S'Okay'
p3491
aaa(lp3492
g3489
a(lp3493
g147
aS'think'
p3494
aS'the'
p3495
aS'Ticks'
p3496
aS'pretty'
p3497
aS'classy'
p3498
aS'myself'
p3499
aaa(lp3500
g3489
a(lp3501
g147
aS'was'
p3502
aS'telling'
p3503
aS'everybody'
p3504
aS'at'
p3505
aS'work'
p3506
aaa(lp3507
g3489
a(lp3508
S'that'
p3509
aS'you'
p3510
aS'wanted'
p3511
aS'to'
p3512
aS'be'
p3513
aS'the'
p3514
aS'Tick'
p3515
aS'for'
p3516
aS'Halloween'
p3517
aaa(lp3518
g3489
a(lp3519
S'and'
p3520
aS'they'
p3521
aS'thought'
p3522
aS'that'
p3523
aS'was'
p3524
aS'cool'
p3525
aaa(lp3526
g3489
a(lp3527
S'cause'
p3528
aS'everybody'
p3529
aS'at'
p3530
aS'work'
p3531
aS'watches'
p3532
aS'the'
p3533
aS'Tick'
p3534
aaa(lp3535
g3489
a(lp3536
S'and'
p3537
aS'they'
p3538
aS'like'
p3539
aS'it'
p3540
aS'too'
p3541
aaa(lp3542
S'STEVEN'
p3543
a(lp3544
aa(lp3545
S'SHERI'
p3546
a(lp3547
g147
aS'thought'
p3548
aS'that'
p3549
aS'was'
p3550
aS'pretty'
p3551
aS'funny'
p3552
aS'myself'
p3553
aaa(lp3554
S'STEVEN'
p3555
a(lp3556
S'Thats'
p3557
aaa(lp3558
g3555
a(lp3559
S'Thats'
p3560
aS'we'
p3561
aaa(lp3562
g3555
a(lp3563
S'Thats'
p3564
aS'really'
p3565
aS'amuses'
p3566
aS'me'
p3567
aS'because'
p3568
aaa(lp3569
g3555
a(lp3570
S'you'
p3571
aS'know'
p3572
aaa(lp3573
g3555
a(lp3574
S'did'
p3575
aS'they'
p3576
aS'think'
p3577
aS'hes'
p3578
aS'really'
p3579
aS'dumb'
p3580
aaa(lp3581
g3555
a(lp3582
S'C'
p3583
aaa(lp3584
S'SHERI'
p3585
a(lp3586
S'No'
p3587
aaa(lp3588
g3585
a(lp3589
S'they'
p3590
aS'think'
p3591
aS'hes'
p3592
aS'very'
p3593
aS'funny'
p3594
aaa(lp3595
S'STEVEN'
p3596
a(lp3597
g147
aS'know'
p3598
aaa(lp3599
g3596
a(lp3600
S'thats'
p3601
aS'why'
p3602
aaa(lp3603
g3596
a(lp3604
g434
aS'cause'
p3605
ag434
aS'hes'
p3606
aS'so'
p3607
aS'dumb'
p3608
aS'that'
p3609
aS'hes'
p3610
aS'funny'
p3611
aaa(lp3612
S'SHERI'
p3613
a(lp3614
S'Yeah'
p3615
aaa(lp3616
g3613
a(lp3617
S'hes'
p3618
aS'kind'
p3619
aS'of'
p3620
ag5
aaa(lp3621
S'STEVEN'
p3622
a(lp3623
S'Showoff'
p3624
aaa(lp3625
S'SHERI'
p3626
a(lp3627
S'Yeah'
p3628
aaa(lp3629
g3626
a(lp3630
S'he'
p3631
aS'is'
p3632
aaa(lp3633
g3626
a(lp3634
g147
aS'guess'
p3635
aaa(lp3636
S'STEVEN'
p3637
a(lp3638
S'Arthurs'
p3639
aS'better'
p3640
aS'than'
p3641
aS'him'
p3642
aaa(lp3643
S'SHERI'
p3644
a(lp3645
S'Hunh'
p3646
aaa(lp3647
S'STEVEN'
p3648
a(lp3649
aa(lp3650
g3648
a(lp3651
S'At'
p3652
aS'least'
p3653
aS'Arthur'
p3654
aS'has'
p3655
aS'brains'
p3656
aaa(lp3657
S'SHERI'
p3658
a(lp3659
S'Aw'
p3660
aaa(lp3661
S'STEVEN'
p3662
a(lp3663
S'What'
p3664
aaa(lp3665
S'SHERI'
p3666
a(lp3667
S'Arthurs'
p3668
aS'the'
p3669
aS'moth'
p3670
aaa(lp3671
g3666
a(lp3672
S'Right'
p3673
aaa(lp3674
g3666
a(lp3675
S'Hes'
p3676
aS'the'
p3677
aaa(lp3678
S'STEVEN'
p3679
a(lp3680
S'Um'
p3681
aaa(lp3682
g3679
a(lp3683
S'they'
p3684
aS'um'
p3685
aS'call'
p3686
aS'him'
p3687
aS'the'
p3688
aS'funny'
p3689
aS'rabbit'
p3690
aaa(lp3691
S'SHERI'
p3692
a(lp3693
g399
aS'bunny'
p3694
aS'rabbit'
p3695
aaa(lp3696
S'STEVEN'
p3697
a(lp3698
S'Yeah'
p3699
aaa(lp3700
g3697
a(lp3701
g434
aaa(lp3702
S'SHERI'
p3703
a(lp3704
S'Does'
p3705
aS'he'
p3706
aS'look'
p3707
aS'like'
p3708
ag5
aS'bunny'
p3709
aS'rabbit'
p3710
aaa(lp3711
S'STEVEN'
p3712
a(lp3713
S'Yeah'
p3714
aaa(lp3715
g3712
a(lp3716
S'and'
p3717
aS'his'
p3718
aS'little'
p3719
aS'long'
p3720
aS'ear'
p3721
aS'things'
p3722
aaa(lp3723
S'SHERI'
p3724
a(lp3725
S'But'
p3726
ag147
aS'mean'
p3727
aaa(lp3728
g3724
a(lp3729
S'hes'
p3730
aS'supposed'
p3731
aS'to'
p3732
aS'be'
p3733
ag5
aS'moth'
p3734
aS'in'
p3735
aS'real'
p3736
aS'life'
p3737
aaa(lp3738
g3724
a(lp3739
S'right'
p3740
aaa(lp3741
S'STEVEN'
p3742
a(lp3743
S'yeah'
p3744
aaa(lp3745
g3742
a(lp3746
S'Yeah'
p3747
aaa(lp3748
S'SHERI'
p3749
a(lp3750
S'Aw'
p3751
aS'man'
p3752
aaa(lp3753
g3749
a(lp3754
S'we'
p3755
aS'gotta'
p3756
aS'get'
p3757
aS'rid'
p3758
aS'of'
p3759
aS'some'
p3760
aS'of'
p3761
aS'this'
p3762
aS'stuff'
p3763
aaa(lp3764
g3749
a(lp3765
S'Ive'
p3766
aS'got'
p3767
aS'more'
p3768
aS'stuff'
p3769
aS'in'
p3770
aS'here'
p3771
aS'than'
p3772
aS'sense'
p3773
aaa(lp3774
g3749
a(lp3775
S'Okay'
p3776
aaa(lp3777
g3749
a(lp3778
S'Okay'
p3779
aaa(lp3780
g3749
a(lp3781
S'Oy'
p3782
aS'WH'
p3783
aS'yeah'
p3784
aS'WH'
p3785
aaa(lp3786
g3749
a(lp3787
S'Now'
p3788
aS'where'
p3789
aS'are'
p3790
aS'we'
p3791
aS'at'
p3792
aaa(lp3793
g3749
a(lp3794
g147
aS'still'
p3795
aS'havent'
p3796
aS'found'
p3797
aS'the'
p3798
aS'sauce'
p3799
aaa(lp3800
g3749
a(lp3801
S'Okay'
p3802
aaa(lp3803
g3749
a(lp3804
S'Oh'
p3805
ag147
aS'gotta'
p3806
aS'take'
p3807
aS'some'
p3808
aS'Tylenol'
p3809
aaa(lp3810
S'STEVEN'
p3811
a(lp3812
S'Yack'
p3813
aS'Pack'
p3814
aS'two'
p3815
aaa(lp3816
g3811
a(lp3817
S'READ'
p3818
aS'with'
p3819
aS'playback'
p3820
aS'and'
p3821
aS'record'
p3822
aaa(lp3823
g3811
a(lp3824
S'speed'
p3825
aS'adjustment'
p3826
aS'point'
p3827
aS'six'
p3828
aS'READ'
p3829
aaa(lp3830
S'SHERI'
p3831
a(lp3832
S'Mhm'
p3833
aaa(lp3834
S'STEVEN'
p3835
a(lp3836
S'READ'
p3837
aS'second'
p3838
aS'memory'
p3839
aaa(lp3840
g3835
a(lp3841
S'Batteries'
p3842
aS'included'
p3843
aaa(lp3844
g3835
a(lp3845
S'ages'
p3846
aS'seven'
p3847
aS'up'
p3848
aS'READ'
p3849
aaa(lp3850
S'SHERI'
p3851
a(lp3852
S'Hm'
p3853
aaa(lp3854
g3851
a(lp3855
S'Really'
p3856
aaa(lp3857
S'STEVEN'
p3858
a(lp3859
S'Its'
p3860
aS'from'
p3861
aS'Yess'
p3862
aS'Entertainment'
p3863
aaa(lp3864
S'SHERI'
p3865
a(lp3866
S'And'
p3867
aS'you'
p3868
aS'think'
p3869
aS'thats'
p3870
aS'what'
p3871
aS'Robbie'
p3872
aS'would'
p3873
aS'like'
p3874
aS'for'
p3875
aS'his'
p3876
aS'birthday'
p3877
aS'more'
p3878
aS'than'
p3879
aS'anything'
p3880
aaa(lp3881
g3865
a(lp3882
S'Hunh'
p3883
aaa(lp3884
S'STEVEN'
p3885
a(lp3886
S'Id'
p3887
aS'say'
p3888
aS'so'
p3889
aaa(lp3890
S'SHERI'
p3891
a(lp3892
S'Okay'
p3893
aaa(lp3894
g3891
a(lp3895
S'Well'
p3896
aS'then'
p3897
aS'thats'
p3898
aS'what'
p3899
aS'well'
p3900
aS'get'
p3901
aS'him'
p3902
aaa(lp3903
g3891
a(lp3904
S'if'
p3905
aS'thats'
p3906
aS'what'
p3907
aS'you'
p3908
aS'think'
p3909
aaa(lp3910
g3891
a(lp3911
g147
aS'think'
p3912
aS'thats'
p3913
aS'nice'
p3914
aS'that'
p3915
aaa(lp3916
g3891
a(lp3917
S'they'
p3918
aS'invited'
p3919
aS'you'
p3920
aS'to'
p3921
aS'his'
p3922
aS'birthday'
p3923
aaa(lp3924
S'STEVEN'
p3925
a(lp3926
g434
aS'He'
p3927
aS'did'
p3928
ag434
ag434
aaa(lp3929
S'SHERI'
p3930
a(lp3931
S'Yeah'
p3932
aS'Im'
p3933
aS'glad'
p3934
aS'you'
p3935
aS'guys'
p3936
aS'got'
p3937
aS'to'
p3938
aS'be'
p3939
aS'friends'
p3940
aaa(lp3941
g3930
a(lp3942
S'Where'
p3943
aS'in'
p3944
aS'the'
p3945
aS'heck'
p3946
aS'did'
p3947
ag147
aS'put'
p3948
aS'that'
p3949
aS'spaghe'
p3950
aaa(lp3951
g3930
a(lp3952
S'that'
p3953
aS'pizza'
p3954
aS'sauce'
p3955
aaa(lp3956
S'STEVEN'
p3957
a(lp3958
S'Pizza'
p3959
aS'sauce'
p3960
aaa(lp3961
g3957
a(lp3962
S'Maybe'
p3963
ag147
aS'put'
p3964
aS'it'
p3965
aS'in'
p3966
aS'the'
p3967
aS'fridge'
p3968
aaa(lp3969
S'SHERI'
p3970
a(lp3971
S'Oh'
p3972
aS'do'
p3973
aS'you'
p3974
aS'think'
p3975
aS'you'
p3976
aS'mightve'
p3977
aaa(lp3978
g3970
a(lp3979
S'Cause'
p3980
ag147
aS'cant'
p3981
aS'find'
p3982
aS'it'
p3983
aS'any'
p3984
aS'place'
p3985
aaa(lp3986
g3970
a(lp3987
S'Its'
p3988
aS'driving'
p3989
aS'me'
p3990
aS'crazy'
p3991
aaa(lp3992
S'STEVEN'
p3993
a(lp3994
S'Okay'
p3995
aaa(lp3996
g3993
a(lp3997
S'over'
p3998
aS'here'
p3999
aaa(lp4000
g3993
a(lp4001
S'Whats'
p4002
aS'here'
p4003
aaa(lp4004
g3993
a(lp4005
S'You'
p4006
aS'mean'
p4007
aS'this'
p4008
aaa(lp4009
g3993
a(lp4010
S'Pizza'
p4011
aS'sauce'
p4012
aaa(lp4013
S'SHERI'
p4014
a(lp4015
S'Yep'
p4016
aaa(lp4017
g4014
a(lp4018
S'thats'
p4019
aS'exactly'
p4020
aS'what'
p4021
ag147
aS'was'
p4022
aS'looking'
p4023
aS'for'
p4024
aaa(lp4025
S'STEVEN'
p4026
a(lp4027
S'It'
p4028
aS'was'
p4029
aS'right'
p4030
aS'here'
p4031
aaa(lp4032
S'SHERI'
p4033
a(lp4034
S'Thank'
p4035
aS'you'
p4036
aS'babe'
p4037
aaa(lp4038
S'STEVEN'
p4039
a(lp4040
S'Maybe'
p4041
aS'youre'
p4042
aS'getting'
p4043
aS'blind'
p4044
aaa(lp4045
g4039
a(lp4046
S'Well'
p4047
aS'at'
p4048
aS'least'
p4049
aS'youre'
p4050
aS'my'
p4051
aS'mom'
p4052
aaa(lp4053
S'SHERI'
p4054
a(lp4055
aa(lp4056
g4054
a(lp4057
S'Hm'
p4058
aS'yeah'
p4059
aaa(lp4060
S'STEVEN'
p4061
a(lp4062
S'Mom'
p4063
aS'why'
p4064
aS'is'
p4065
aS'the'
p4066
aS'green'
p4067
aS'ball'
p4068
aS'out'
p4069
aS'there'
p4070
aaa(lp4071
g4061
a(lp4072
S'Did'
p4073
aS'anyone'
p4074
aS'play'
p4075
aS'croquet'
p4076
aS'or'
p4077
aaa(lp4078
S'SHERI'
p4079
a(lp4080
S'You'
p4081
aS'know'
p4082
aS'that'
p4083
aS'balls'
p4084
aS'been'
p4085
aS'sitting'
p4086
aS'out'
p4087
aS'there'
p4088
aS'forever'
p4089
aaa(lp4090
S'STEVEN'
p4091
a(lp4092
S'Were'
p4093
aS'also'
p4094
aS'missing'
p4095
ag5
aS'black'
p4096
aS'one'
p4097
aaa(lp4098
g4091
a(lp4099
S'But'
p4100
aS'that'
p4101
aS'wasnt'
p4102
aS'Robbies'
p4103
aS'fault'
p4104
aaa(lp4105
S'SHERI'
p4106
a(lp4107
S'Alright'
p4108
aaa(lp4109
g4106
a(lp4110
S'One'
p4111
aS'pepperoni'
p4112
aS'pizza'
p4113
aS'coming'
p4114
aS'up'
p4115
aaa(lp4116
g4106
a(lp4117
S'Kid'
p4118
aaa(lp4119
S'STEVEN'
p4120
a(lp4121
S'Thank'
p4122
aS'you'
p4123
aS'Mom'
p4124
aaa(lp4125
S'SHERI'
p4126
a(lp4127
S'Youre'
p4128
aS'welcome'
p4129
aaa(lp4130
S'STEVEN'
p4131
a(lp4132
S'Hey'
p4133
aS'Mom'
p4134
aaa(lp4135
S'SHERI'
p4136
a(lp4137
S'Hey'
p4138
aS'what'
p4139
aaa(lp4140
S'STEVEN'
p4141
a(lp4142
S'guess'
p4143
aS'what'
p4144
aS'they'
p4145
aS'had'
p4146
aS'on'
p4147
aS'movie'
p4148
aS'back'
p4149
aS'there'
p4150
aaa(lp4151
g4141
a(lp4152
S'um'
p4153
aaa(lp4154
g4141
a(lp4155
S'at'
p4156
aS'um'
p4157
aS'Albertsons'
p4158
aaa(lp4159
S'SHERI'
p4160
a(lp4161
g147
aS'give'
p4162
aS'up'
p4163
aaa(lp4164
g4160
a(lp4165
S'whatd'
p4166
aS'they'
p4167
aS'have'
p4168
aaa(lp4169
S'STEVEN'
p4170
a(lp4171
S'Ill'
p4172
aS'give'
p4173
aS'you'
p4174
ag5
aS'hint'
p4175
aaa(lp4176
g4170
a(lp4177
S'Its'
p4178
aS'the'
p4179
aaa(lp4180
g4170
a(lp4181
S'the'
p4182
aS'guy'
p4183
aS'who'
p4184
aS'wrote'
p4185
aS'it'
p4186
aaa(lp4187
g4170
a(lp4188
S'was'
p4189
aS'the'
p4190
aS'same'
p4191
aS'person'
p4192
aS'who'
p4193
aS'wrote'
p4194
aS'The'
p4195
aS'S'
p4196
aaa(lp4197
g4170
a(lp4198
S'The'
p4199
aS'Secret'
p4200
aS'Garden'
p4201
aaa(lp4202
g4170
a(lp4203
S'Give'
p4204
aS'up'
p4205
aaa(lp4206
S'SHERI'
p4207
a(lp4208
S'Mhm'
p4209
aaa(lp4210
S'STEVEN'
p4211
a(lp4212
g399
aS'Little'
p4213
aS'Princess'
p4214
aaa(lp4215
S'SHERI'
p4216
a(lp4217
S'Oh'
p4218
aaa(lp4219
g4216
a(lp4220
S'thats'
p4221
aS'right'
p4222
aaa(lp4223
S'STEVEN'
p4224
a(lp4225
S'Its'
p4226
aS'also'
p4227
aS'on'
p4228
aS'video'
p4229
aS'on'
p4230
aS'here'
p4231
aaa(lp4232
g4224
a(lp4233
S'in'
p4234
aS'Toys'
p4235
ag628
aS'Us'
p4236
aaa(lp4237
S'SHERI'
p4238
a(lp4239
S'Mhm'
p4240
aaa(lp4241
g4238
a(lp4242
S'Now'
p4243
aS'for'
p4244
aS'some'
p4245
aS'reason'
p4246
aS'that'
p4247
aS'didnt'
p4248
aS'do'
p4249
aS'real'
p4250
aS'we'
p4251
aS'well'
p4252
aS'at'
p4253
aS'the'
p4254
aS'movie'
p4255
aS'theaters'
p4256
aaa(lp4257
g4238
a(lp4258
S'Did'
p4259
aS'it'
p4260
aaa(lp4261
g4238
a(lp4262
S'What'
p4263
aS'in'
p4264
aS'the'
p4265
aS'hell'
p4266
aS'is'
p4267
aS'this'
p4268
aaa(lp4269
S'STEVEN'
p4270
a(lp4271
S'Hunh'
p4272
aaa(lp4273
S'SHERI'
p4274
a(lp4275
S'Oh'
p4276
aaa(lp4277
S'STEVEN'
p4278
a(lp4279
S'No'
p4280
aS'Mom'
p4281
aaa(lp4282
g4278
a(lp4283
S'It'
p4284
aS'did'
p4285
aS'great'
p4286
aaa(lp4287
S'SHERI'
p4288
a(lp4289
S'In'
p4290
aS'the'
p4291
aS'movie'
p4292
aS'theaters'
p4293
aaa(lp4294
g4288
a(lp4295
S'It'
p4296
aS'did'
p4297
aaa(lp4298
S'STEVEN'
p4299
a(lp4300
S'Yeah'
p4301
aaa(lp4302
S'SHERI'
p4303
a(lp4304
S'Hunh'
p4305
aaa(lp4306
g4303
a(lp4307
S'For'
p4308
aS'some'
p4309
aS'reason'
p4310
ag147
aS'was'
p4311
aS'under'
p4312
aS'the'
p4313
aS'impression'
p4314
aS'that'
p4315
aS'it'
p4316
aS'didnt'
p4317
aaa(lp4318
g4303
a(lp4319
S'That'
p4320
aS'it'
p4321
aS'didnt'
p4322
aS'do'
p4323
aS'that'
p4324
aS'well'
p4325
aS'honey'
p4326
aaa(lp4327
g4303
a(lp4328
S'But'
p4329
aaa(lp4330
g4303
a(lp4331
g147
aS'could'
p4332
aS'be'
p4333
aS'wrong'
p4334
aaa(lp4335
g4303
a(lp4336
S'Oh'
p4337
aS'man'
p4338
aaa(lp4339
S'ENV'
p4340
a(lp4341
S'WATER_RUNNING'
p4342
aaa(lp4343
S'SHERI'
p4344
a(lp4345
S'Hey'
p4346
aS'Steven'
p4347
aaa(lp4348
g4344
a(lp4349
S'Come'
p4350
aS'on'
p4351
aS'over'
p4352
aS'here'
p4353
aaa(lp4354
g4344
a(lp4355
g147
aS'want'
p4356
aS'you'
p4357
aS'to'
p4358
aS'grate'
p4359
aS'this'
p4360
aS'cheese'
p4361
aS'for'
p4362
aS'me'
p4363
aaa(lp4364
g4344
a(lp4365
S'Okay'
p4366
aaa(lp4367
S'STEVEN'
p4368
a(lp4369
S'SING'
p4370
aS'Salami'
p4371
aS'too'
p4372
aS'SING'
p4373
aaa(lp4374
S'SHERI'
p4375
a(lp4376
S'You'
p4377
aS'know'
p4378
aS'what'
p4379
aS'to'
p4380
aS'do'
p4381
aaa(lp4382
S'STEVEN'
p4383
a(lp4384
S'SING'
p4385
aS'hot'
p4386
aS'salami'
p4387
aS'SING'
p4388
aaa(lp4389
S'SHERI'
p4390
a(lp4391
S'Do'
p4392
aS'you'
p4393
aS'know'
p4394
aS'how'
p4395
aS'to'
p4396
aaa(lp4397
S'ENV'
p4398
a(lp4399
S'WATER_RUNNING'
p4400
aaa(lp4401
S'SHERI'
p4402
a(lp4403
S'You'
p4404
aS'know'
p4405
aS'how'
p4406
aS'to'
p4407
aS'do'
p4408
aS'this'
p4409
aaa(lp4410
S'STEVEN'
p4411
a(lp4412
S'Yeah'
p4413
aaa(lp4414
g4411
a(lp4415
g147
aS'just'
p4416
aS'scrape'
p4417
aS'it'
p4418
aaa(lp4419
S'SHERI'
p4420
a(lp4421
S'Okay'
p4422
aaa(lp4423
g4420
a(lp4424
S'So'
p4425
aaa(lp4426
g4420
a(lp4427
S'yeah'
p4428
aaa(lp4429
g4420
a(lp4430
S'dont'
p4431
aaa(lp4432
g4420
a(lp4433
S'Dont'
p4434
aS'get'
p4435
aS'your'
p4436
aS'knuckles'
p4437
aS'all'
p4438
aS'bloody'
p4439
aS'though'
p4440
aaa(lp4441
g4420
a(lp4442
S'You'
p4443
aS'know'
p4444
aS'you'
p4445
aS'gotta'
p4446
aS'be'
p4447
aS'careful'
p4448
aaa(lp4449
g4420
a(lp4450
S'Okay'
p4451
aaa(lp4452
S'STEVEN'
p4453
a(lp4454
aa(lp4455
S'SHERI'
p4456
a(lp4457
S'And'
p4458
aS'Im'
p4459
aS'gonna'
p4460
aS'take'
p4461
aS'this'
p4462
aS'pizza'
p4463
aS'crust'
p4464
aS'off'
p4465
aS'the'
p4466
aS'dish'
p4467
aS'rack'
p4468
aS'here'
p4469
aS'so'
p4470
aaa(lp4471
S'STEVEN'
p4472
a(lp4473
aa(lp4474
S'SHERI'
p4475
a(lp4476
S'This'
p4477
aS'kitchen'
p4478
aS'is'
p4479
aS'so'
p4480
aS'small'
p4481
aaa(lp4482
S'STEVEN'
p4483
a(lp4484
S'Mm'
p4485
aaa(lp4486
g4483
a(lp4487
S'Mm'
p4488
aaa(lp4489
g4483
a(lp4490
S'Mm'
p4491
aaa(lp4492
S'SHERI'
p4493
a(lp4494
S'You'
p4495
aS'know'
p4496
ag147
aS'kinda'
p4497
aS'hope'
p4498
aS'nobody'
p4499
aS'shows'
p4500
aS'up'
p4501
aaa(lp4502
g4493
a(lp4503
S'cause'
p4504
aS'this'
p4505
aS'place'
p4506
aS'is'
p4507
aS'such'
p4508
ag5
aS'dirty'
p4509
aS'mess'
p4510
aaa(lp4511
S'STEVEN'
p4512
a(lp4513
g147
aS'hope'
p4514
aS'they'
p4515
ag434
aS'do'
p4516
ag434
aS'too'
p4517
aaa(lp4518
g4512
a(lp4519
g147
aS'look'
p4520
aS'like'
p4521
ag5
aS'mess'
p4522
aS'too'
p4523
aaa(lp4524
S'SHERI'
p4525
a(lp4526
S'Nah'
p4527
aaa(lp4528
g4525
a(lp4529
S'You'
p4530
aS'look'
p4531
aS'great'
p4532
aaa(lp4533
S'STEVEN'
p4534
a(lp4535
S'Slice'
p4536
aaa(lp4537
g4534
a(lp4538
S'Slice'
p4539
aaa(lp4540
S'SHERI'
p4541
a(lp4542
S'Im'
p4543
aS'glad'
p4544
aS'you'
p4545
aS'were'
p4546
aS'good'
p4547
aS'for'
p4548
aS'Jack'
p4549
aS'and'
p4550
aS'Joanne'
p4551
aS'too'
p4552
aaa(lp4553
g4541
a(lp4554
S'when'
p4555
aS'they'
p4556
aS'drove'
p4557
aS'you'
p4558
aS'over'
p4559
aaa(lp4560
g4541
a(lp4561
S'That'
p4562
aS'was'
p4563
aS'nice'
p4564
aS'of'
p4565
aS'them'
p4566
aS'to'
p4567
aS'do'
p4568
aaa(lp4569
S'STEVEN'
p4570
a(lp4571
S'Yeah'
p4572
aaa(lp4573
S'SHERI'
p4574
a(lp4575
S'Was'
p4576
aS'it'
p4577
aS'hard'
p4578
aS'sitting'
p4579
aS'in'
p4580
aS'the'
p4581
aS'back'
p4582
aS'of'
p4583
aS'their'
p4584
aS'truck'
p4585
aaa(lp4586
g4574
a(lp4587
S'They'
p4588
aS'gotta'
p4589
aS'pretty'
p4590
aS'small'
p4591
aS'truck'
p4592
aaa(lp4593
g4574
a(lp4594
S'hunh'
p4595
aaa(lp4596
S'STEVEN'
p4597
a(lp4598
S'Well'
p4599
aaa(lp4600
g4597
a(lp4601
S'Shred'
p4602
aS'said'
p4603
aaa(lp4604
g4597
a(lp4605
S'VOX'
p4606
ag147
aS'wanna'
p4607
aS'sit'
p4608
aS'back'
p4609
aS'there'
p4610
aS'VOX'
p4611
aaa(lp4612
g4597
a(lp4613
S'And'
p4614
aaa(lp4615
g4597
a(lp4616
S'you'
p4617
aS'know'
p4618
aaa(lp4619
g4597
a(lp4620
S'Missus'
p4621
aS'um'
p4622
aS'Taylor'
p4623
aS'said'
p4624
aaa(lp4625
S'SHERI'
p4626
a(lp4627
aa(lp4628
S'STEVEN'
p4629
a(lp4630
S'VOX'
p4631
aS'No'
p4632
aS'Shred'
p4633
aaa(lp4634
g4629
a(lp4635
S'theres'
p4636
aS'no'
p4637
aS'room'
p4638
aS'VOX'
p4639
aaa(lp4640
S'SHERI'
p4641
a(lp4642
aa(lp4643
g4641
a(lp4644
S'Unhunh'
p4645
aaa(lp4646
S'STEVEN'
p4647
a(lp4648
S'There'
p4649
aS'was'
p4650
aS'only'
p4651
aS'room'
p4652
aS'for'
p4653
aS'me'
p4654
aS'and'
p4655
aS'Zach'
p4656
aaa(lp4657
g4647
a(lp4658
S'And'
p4659
aS'we'
p4660
aS'were'
p4661
aS'on'
p4662
aS'opposite'
p4663
aS'sides'
p4664
aS'from'
p4665
aS'each'
p4666
aS'other'
p4667
aaa(lp4668
S'SHERI'
p4669
a(lp4670
S'Ah'
p4671
aaa(lp4672
g4669
a(lp4673
S'So'
p4674
aS'did'
p4675
aS'they'
p4676
aS'put'
p4677
aS'Shred'
p4678
aS'in'
p4679
aS'the'
p4680
aS'front'
p4681
aS'seat'
p4682
aS'between'
p4683
aS'them'
p4684
aaa(lp4685
S'STEVEN'
p4686
a(lp4687
S'Yeah'
p4688
aaa(lp4689
S'SHERI'
p4690
a(lp4691
S'Yeah'
p4692
aaa(lp4693
S'STEVEN'
p4694
a(lp4695
S'Poor'
p4696
aS'Shred'
p4697
aaa(lp4698
g4694
a(lp4699
S'And'
p4700
aS'guess'
p4701
aS'what'
p4702
aaa(lp4703
S'SHERI'
p4704
a(lp4705
S'What'
p4706
aaa(lp4707
S'STEVEN'
p4708
a(lp4709
S'Shred'
p4710
aS'chased'
p4711
ag5
aS'um'
p4712
aS'ground'
p4713
aS'squirrel'
p4714
aaa(lp4715
S'SHERI'
p4716
a(lp4717
S'He'
p4718
aS'did'
p4719
aaa(lp4720
g4716
a(lp4721
S'Did'
p4722
aS'he'
p4723
aS'catch'
p4724
aS'him'
p4725
aaa(lp4726
S'STEVEN'
p4727
a(lp4728
S'No'
p4729
aaa(lp4730
S'SHERI'
p4731
a(lp4732
S'Hm'
p4733
aaa(lp4734
S'STEVEN'
p4735
a(lp4736
S'Zach'
p4737
aS'al'
p4738
aaa(lp4739
g4735
a(lp4740
S'Zach'
p4741
aS'caught'
p4742
aS'one'
p4743
aaa(lp4744
g4735
a(lp4745
S'Except'
p4746
aS'it'
p4747
aS'bit'
p4748
aS'him'
p4749
aaa(lp4750
S'SHERI'
p4751
a(lp4752
S'Uhoh'
p4753
aaa(lp4754
g4751
a(lp4755
S'Hope'
p4756
aS'he'
p4757
aS'has'
p4758
aS'rabies'
p4759
aS'shots'
p4760
aaa(lp4761
g4751
a(lp4762
S'How'
p4763
aS'was'
p4764
aS'their'
p4765
aS'soccer'
p4766
aS'game'
p4767
aaa(lp4768
g4751
a(lp4769
S'Did'
p4770
aS'they'
p4771
aS'win'
p4772
aS'their'
p4773
aS'soccer'
p4774
aS'game'
p4775
aaa(lp4776
g4751
a(lp4777
S'Or'
p4778
aaa(lp4779
S'STEVEN'
p4780
a(lp4781
g147
aS'didnt'
p4782
aS'ask'
p4783
aaa(lp4784
S'SHERI'
p4785
a(lp4786
S'Oh'
p4787
aaa(lp4788
S'STEVEN'
p4789
a(lp4790
S'He'
p4791
aS'ca'
p4792
aaa(lp4793
g4789
a(lp4794
S'Um'
p4795
aS'someone'
p4796
aS'said'
p4797
aaa(lp4798
g4789
a(lp4799
S'VOX'
p4800
aS'hi'
p4801
aS'Steve'
p4802
aS'VOX'
p4803
aaa(lp4804
S'SHERI'
p4805
a(lp4806
S'Mhm'
p4807
aaa(lp4808
S'STEVEN'
p4809
a(lp4810
S'That'
p4811
aS'was'
p4812
aS'probably'
p4813
aS'Shred'
p4814
aS'on'
p4815
aS'the'
p4816
aS'corner'
p4817
aaa(lp4818
g4809
a(lp4819
g147
aS'said'
p4820
aaa(lp4821
g4809
a(lp4822
g147
aS'looked'
p4823
aS'around'
p4824
aS'and'
p4825
aaa(lp4826
g4809
a(lp4827
S'n'
p4828
ag147
aS'shrugged'
p4829
aaa(lp4830
g4809
a(lp4831
S'Probably'
p4832
aS'the'
p4833
aS'wind'
p4834
ag147
aS'thought'
p4835
aaa(lp4836
S'SHERI'
p4837
a(lp4838
S'Ah'
p4839
aaa(lp4840
S'STEVEN'
p4841
a(lp4842
S'It'
p4843
aS'was'
p4844
aS'actually'
p4845
aS'Shred'
p4846
aS'saying'
p4847
aaa(lp4848
g4841
a(lp4849
S'VOX'
p4850
aS'hi'
p4851
aS'Steve'
p4852
aS'VOX'
p4853
aaa(lp4854
S'SHERI'
p4855
a(lp4856
S'Mhm'
p4857
aaa(lp4858
g4855
a(lp4859
S'Is'
p4860
aS'your'
p4861
aS'grandmother'
p4862
aS'feeling'
p4863
aS'better'
p4864
aaa(lp4865
S'STEVEN'
p4866
a(lp4867
S'Yeah'
p4868
aaa(lp4869
g4866
a(lp4870
S'she'
p4871
aS'wanted'
p4872
aS'to'
p4873
aS'go'
p4874
aS'home'
p4875
aS'and'
p4876
aS'sleep'
p4877
aaa(lp4878
g4866
a(lp4879
S'afterward'
p4880
aaa(lp4881
S'SHERI'
p4882
a(lp4883
S'Yeah'
p4884
aaa(lp4885
g4882
a(lp4886
S'Well'
p4887
aS'shes'
p4888
aS'supposed'
p4889
aS'to'
p4890
aS'go'
p4891
aS'to'
p4892
aS'the'
p4893
aS'Dixie'
p4894
aS'Land'
p4895
aS'Jazz'
p4896
aS'Festival'
p4897
aS'this'
p4898
aS'weekend'
p4899
aaa(lp4900
S'STEVEN'
p4901
a(lp4902
S'XX'
p4903
aaa(lp4904
S'SHERI'
p4905
a(lp4906
S'One'
p4907
aS'of'
p4908
aS'the'
p4909
aS'venues'
p4910
aaa(lp4911
g4905
a(lp4912
S'Or'
p4913
aS'something'
p4914
aS'so'
p4915
aaa(lp4916
S'STEVEN'
p4917
a(lp4918
S'She'
p4919
aS'did'
p4920
aaa(lp4921
g4917
a(lp4922
S'um'
p4923
aaa(lp4924
g4917
a(lp4925
S'yesterday'
p4926
aS'and'
p4927
aaa(lp4928
S'SHERI'
p4929
a(lp4930
S'Yeah'
p4931
aaa(lp4932
S'STEVEN'
p4933
a(lp4934
S'me'
p4935
aS'and'
p4936
aS'Grandpa'
p4937
aS'had'
p4938
ag5
aS'hard'
p4939
aS'time'
p4940
aS'trying'
p4941
aS'to'
p4942
aS'track'
p4943
aS'her'
p4944
aS'down'
p4945
aaa(lp4946
S'SHERI'
p4947
a(lp4948
aa(lp4949
S'STEVEN'
p4950
a(lp4951
S'She'
p4952
aS'told'
p4953
aS'Grandpa'
p4954
aS'to'
p4955
aaa(lp4956
g4950
a(lp4957
S'tr'
p4958
aaa(lp4959
g4950
a(lp4960
S'tr'
p4961
aaa(lp4962
g4950
a(lp4963
S'To'
p4964
aS'get'
p4965
aS'me'
p4966
aaa(lp4967
g4950
a(lp4968
S'and'
p4969
aS'bring'
p4970
aS'me'
p4971
aS'over'
p4972
aS'there'
p4973
aaa(lp4974
g4950
a(lp4975
S'And'
p4976
aS'then'
p4977
aS'we'
p4978
aS'could'
p4979
aS'not'
p4980
aS'find'
p4981
aS'her'
p4982
aaa(lp4983
S'SHERI'
p4984
a(lp4985
S'Unhunh'
p4986
aaa(lp4987
g4984
a(lp4988
S'Oh'
p4989
aaa(lp4990
g4984
a(lp4991
S'Well'
p4992
aS'thats'
p4993
aS'usually'
p4994
aS'pretty'
p4995
aS'crowded'
p4996
aS'and'
p4997
aS'busy'
p4998
aS'over'
p4999
aS'there'
p5000
aaa(lp5001
S'STEVEN'
p5002
a(lp5003
S'Yeah'
p5004
aaa(lp5005
g5002
a(lp5006
S'Down'
p5007
aS'to'
p5008
aS'two'
p5009
aS'cheeses'
p5010
aS'Mom'
p5011
aaa(lp5012
S'SHERI'
p5013
a(lp5014
S'Okay'
p5015
aaa(lp5016
S'ENV'
p5017
a(lp5018
S'WATER_RUNNING_AND_DISH_NOISE'
p5019
aaa(lp5020
S'STEVEN'
p5021
a(lp5022
aa(lp5023
S'SHERI'
p5024
a(lp5025
S'So'
p5026
aS'did'
p5027
aS'your'
p5028
aS'dad'
p5029
aS'take'
p5030
aS'Mary'
p5031
aS'Ann'
p5032
aS'with'
p5033
aS'him'
p5034
aS'to'
p5035
aS'San'
p5036
aS'Francisco'
p5037
aaa(lp5038
g5024
a(lp5039
S'or'
p5040
aS'did'
p5041
aS'he'
p5042
aS'just'
p5043
aS'go'
p5044
aS'by'
p5045
aS'himself'
p5046
aaa(lp5047
S'STEVEN'
p5048
a(lp5049
g147
aS'dont'
p5050
aS'know'
p5051
aaa(lp5052
S'SHERI'
p5053
a(lp5054
S'You'
p5055
aS'dont'
p5056
aS'know'
p5057
aaa(lp5058
S'STEVEN'
p5059
a(lp5060
g434
ag147
aS'didnt'
p5061
aS'ask'
p5062
aS'him'
p5063
aS'about'
p5064
aS'that'
p5065
ag434
aaa(lp5066
g5059
a(lp5067
g147
aS'dont'
p5068
aaa(lp5069
g5059
a(lp5070
g147
aS'dont'
p5071
aS'know'
p5072
aS'why'
p5073
aS'he'
p5074
aS'even'
p5075
aaa(lp5076
g5059
a(lp5077
S'he'
p5078
aS'even'
p5079
aS'went'
p5080
aS'there'
p5081
aaa(lp5082
g5059
a(lp5083
S'He'
p5084
aS'did'
p5085
aS'not'
p5086
aS'tell'
p5087
aS'me'
p5088
aaa(lp5089
g5059
a(lp5090
g434
aaa(lp5091
S'SHERI'
p5092
a(lp5093
S'Mhm'
p5094
aaa(lp5095
g5092
a(lp5096
g147
aS'think'
p5097
aS'he'
p5098
aS'just'
p5099
aS'wanted'
p5100
aS'to'
p5101
aS'get'
p5102
aS'out'
p5103
aS'of'
p5104
aS'the'
p5105
aS'Valley'
p5106
aS'for'
p5107
ag5
aS'while'
p5108
aS'and'
p5109
aaa(lp5110
g5092
a(lp5111
S'have'
p5112
ag5
aS'break'
p5113
aaa(lp5114
S'STEVEN'
p5115
a(lp5116
S'Hunh'
p5117
aaa(lp5118
S'SHERI'
p5119
a(lp5120
g147
aS'said'
p5121
ag147
aS'think'
p5122
aS'he'
p5123
aS'just'
p5124
aS'wanted'
p5125
aS'to'
p5126
aaa(lp5127
S'ENV'
p5128
a(lp5129
S'WATER_RUNNING_AND_DISH_NOISE'
p5130
aaa(lp5131
S'SHERI'
p5132
a(lp5133
g147
aS'think'
p5134
aS'he'
p5135
aS'just'
p5136
aS'wanted'
p5137
aS'to'
p5138
aS'get'
p5139
aS'out'
p5140
aS'of'
p5141
aS'the'
p5142
aS'Valley'
p5143
aS'for'
p5144
ag5
aS'while'
p5145
aaa(lp5146
g5132
a(lp5147
g147
aS'think'
p5148
aS'he'
p5149
aS'just'
p5150
aS'needed'
p5151
ag5
aS'break'
p5152
aaa(lp5153
S'ENV'
p5154
a(lp5155
S'WATER_AND_DISH_NOISE'
p5156
aaa(lp5157
S'SHERI'
p5158
a(lp5159
S'He'
p5160
aS'hasnt'
p5161
aS'really'
p5162
aS'had'
p5163
ag5
aS'vacation'
p5164
aaa(lp5165
S'STEVEN'
p5166
a(lp5167
S'He'
p5168
aS'has'
p5169
aaa(lp5170
g5166
a(lp5171
S'with'
p5172
aS'Mary'
p5173
aS'Ann'
p5174
aaa(lp5175
S'SHERI'
p5176
a(lp5177
S'Oh'
p5178
aS'did'
p5179
aS'they'
p5180
aS'go'
p5181
aS'on'
p5182
aS'vacation'
p5183
aaa(lp5184
S'STEVEN'
p5185
a(lp5186
g434
aS'One'
p5187
aS'time'
p5188
aaa(lp5189
g5185
a(lp5190
S'yeah'
p5191
ag434
aaa(lp5192
S'SHERI'
p5193
a(lp5194
S'Yeah'
p5195
aaa(lp5196
S'STEVEN'
p5197
a(lp5198
g434
aS'You'
p5199
aS'see'
p5200
ag434
aS'Mom'
p5201
aaa(lp5202
g5197
a(lp5203
S'does'
p5204
aS'that'
p5205
aS'look'
p5206
aS'good'
p5207
aaa(lp5208
S'SHERI'
p5209
a(lp5210
S'Yeah'
p5211
aaa(lp5212
g5209
a(lp5213
g147
aS'think'
p5214
aS'so'
p5215
aaa(lp5216
S'STEVEN'
p5217
a(lp5218
S'Some'
p5219
aS'of'
p5220
aS'them'
p5221
ag434
ag147
ag434
aS'went'
p5222
aS'through'
p5223
aS'right'
p5224
aS'here'
p5225
aaa(lp5226
S'SHERI'
p5227
a(lp5228
S'Yeah'
p5229
aaa(lp5230
S'ENV'
p5231
a(lp5232
S'WATER_AND_DISH_NOISE'
p5233
aaa(lp5234
S'SHERI'
p5235
a(lp5236
S'Well'
p5237
aS'thats'
p5238
aS'fine'
p5239
aaa(lp5240
g5235
a(lp5241
S'you'
p5242
aS'know'
p5243
aS'what'
p5244
aaa(lp5245
g5235
a(lp5246
S'lets'
p5247
aS'open'
p5248
aS'that'
p5249
aS'box'
p5250
aS'of'
p5251
aaa(lp5252
g5235
a(lp5253
S'or'
p5254
aS'that'
p5255
aS'package'
p5256
aS'of'
p5257
aS'pastrami'
p5258
aaa(lp5259
g5235
a(lp5260
S'PAR'
p5261
aS'not'
p5262
aS'pastrami'
p5263
aS'PAR'
p5264
aaa(lp5265
g5235
a(lp5266
S'pepperoni'
p5267
aaa(lp5268
S'STEVEN'
p5269
a(lp5270
S'Let'
p5271
aS'me'
p5272
aS'put'
p5273
aS'these'
p5274
aS'on'
p5275
aS'there'
p5276
aaa(lp5277
S'SHERI'
p5278
a(lp5279
S'You'
p5280
aS'wanna'
p5281
aS'put'
p5282
aS'the'
p5283
aaa(lp5284
g5278
a(lp5285
S'You'
p5286
aS'want'
p5287
aS'the'
p5288
aS'pepperoni'
p5289
aS'under'
p5290
aS'the'
p5291
aS'cheese'
p5292
aaa(lp5293
g5278
a(lp5294
S'or'
p5295
aS'the'
p5296
aS'pepperoni'
p5297
aS'on'
p5298
aS'top'
p5299
aS'of'
p5300
aS'the'
p5301
aS'cheese'
p5302
aaa(lp5303
S'STEVEN'
p5304
a(lp5305
S'P'
p5306
aS'On'
p5307
aS'top'
p5308
aS'of'
p5309
aS'the'
p5310
aS'cheese'
p5311
ag5306
aaa(lp5312
S'SHERI'
p5313
a(lp5314
S'Okay'
p5315
aaa(lp5316
g5313
a(lp5317
S'so'
p5318
aaa(lp5319
S'STEVEN'
p5320
a(lp5321
S'SING'
p5322
aS'Da_da_da_da'
p5323
aS'da_da_da_da'
p5324
aS'da_da_da_da'
p5325
aS'doo'
p5326
aS'SING'
p5327
aaa(lp5328
S'SHERI'
p5329
a(lp5330
S'Yeah'
p5331
aaa(lp5332
g5329
a(lp5333
S'sprinkle'
p5334
aS'the'
p5335
aS'cheese'
p5336
aS'around'
p5337
aaa(lp5338
g5329
a(lp5339
S'Thats'
p5340
ag5
aS'good'
p5341
aS'idea'
p5342
aaa(lp5343
S'STEVEN'
p5344
a(lp5345
S'SING'
p5346
aS'Hot'
p5347
aS'salami'
p5348
aS'hot'
p5349
aS'salami'
p5350
aS'hey'
p5351
aaa(lp5352
g5344
a(lp5353
S'hot'
p5354
aS'salami'
p5355
aS'for'
p5356
aS'you'
p5357
aaa(lp5358
g5344
a(lp5359
S'NONSENSE'
p5360
aS'aneeba'
p5361
aS'abacubby'
p5362
aS'an'
p5363
aS'vutsalayvoopdeedoo'
p5364
aS'NONSENSE'
p5365
aaa(lp5366
g5344
a(lp5367
S'Salami'
p5368
aS'hot'
p5369
aS'salami'
p5370
aS'hey'
p5371
aS'hot'
p5372
aS'salami'
p5373
aS'for'
p5374
aS'you'
p5375
aS'SING'
p5376
aaa(lp5377
S'SHERI'
p5378
a(lp5379
aa(lp5380
S'STEVEN'
p5381
a(lp5382
S'Mm'
p5383
aaa(lp5384
g5381
a(lp5385
S'SING'
p5386
aS'eat'
p5387
aS'it'
p5388
aS'up'
p5389
aS'while'
p5390
aS'its'
p5391
aS'still'
p5392
ag5
aS'sizzlin'
p5393
aS'SING'
p5394
aaa(lp5395
g5381
a(lp5396
S'Bugs'
p5397
aS'Bunny'
p5398
aS'used'
p5399
aS'to'
p5400
aS'sing'
p5401
aS'that'
p5402
aaa(lp5403
S'SHERI'
p5404
a(lp5405
S'Yeah'
p5406
ag147
aS'remember'
p5407
aS'that'
p5408
aS'from'
p5409
aS'the'
p5410
aS'Bugs'
p5411
aS'Bunny'
p5412
aS'show'
p5413
aaa(lp5414
g5404
a(lp5415
S'Hunh'
p5416
aaa(lp5417
S'STEVEN'
p5418
a(lp5419
S'That'
p5420
aS'one'
p5421
aaa(lp5422
g5418
a(lp5423
S'That'
p5424
ag147
aS'rented'
p5425
aaa(lp5426
g5418
a(lp5427
g147
aS'li'
p5428
aaa(lp5429
g5418
a(lp5430
g147
aS'like'
p5431
aS'those'
p5432
aS'ones'
p5433
aaa(lp5434
S'SHERI'
p5435
a(lp5436
S'Yeah'
p5437
aaa(lp5438
S'STEVEN'
p5439
a(lp5440
S'Then'
p5441
aS'my'
p5442
aS'favoritest'
p5443
aS'one'
p5444
aaa(lp5445
g5439
a(lp5446
S'was'
p5447
aS'when'
p5448
aS'um'
p5449
aaa(lp5450
g5439
a(lp5451
S'it'
p5452
aS'was'
p5453
aS'the'
p5454
aS'Daffy'
p5455
aS'Duck'
p5456
aS'one'
p5457
aaa(lp5458
g5439
a(lp5459
S'Quackbusters'
p5460
aaa(lp5461
S'SHERI'
p5462
a(lp5463
S'Mhm'
p5464
aaa(lp5465
g5462
a(lp5466
S'Mhm'
p5467
aaa(lp5468
S'STEVEN'
p5469
a(lp5470
S'That'
p5471
aS'was'
p5472
aS'my'
p5473
aS'favorite'
p5474
aaa(lp5475
g5469
a(lp5476
S'Or'
p5477
aS'theres'
p5478
aS'one'
p5479
aaa(lp5480
g5469
a(lp5481
S'where'
p5482
aS'Bugs'
p5483
aS'Bunny'
p5484
aS'w'
p5485
aS'was'
p5486
aS'talking'
p5487
aS'to'
p5488
aS'that'
p5489
aS'vampire'
p5490
aaa(lp5491
g5469
a(lp5492
S'you'
p5493
aS'know'
p5494
aaa(lp5495
S'SHERI'
p5496
a(lp5497
S'Oh'
p5498
aaa(lp5499
g5496
a(lp5500
S'where'
p5501
aS'he'
p5502
aS'was'
p5503
aaa(lp5504
S'STEVEN'
p5505
a(lp5506
g147
aS'used'
p5507
aS'to'
p5508
aS'crack'
p5509
aS'up'
p5510
aaa(lp5511
S'SHERI'
p5512
a(lp5513
S'where'
p5514
aS'he'
p5515
aS'would'
p5516
aS'turn'
p5517
aS'into'
p5518
aS'the'
p5519
aS'bat'
p5520
aaa(lp5521
S'STEVEN'
p5522
a(lp5523
S'well'
p5524
aS'he'
p5525
aS'said'
p5526
aaa(lp5527
S'SHERI'
p5528
a(lp5529
S'and'
p5530
aS'then'
p5531
aS'he'
p5532
aS'would'
p5533
aS'turn'
p5534
aS'into'
p5535
aS'the'
p5536
aS'umpire'
p5537
aaa(lp5538
S'STEVEN'
p5539
a(lp5540
S'he'
p5541
aS'said'
p5542
aaa(lp5543
g5539
a(lp5544
S'uh'
p5545
aS'he'
p5546
aS'said'
p5547
aaa(lp5548
S'SHERI'
p5549
a(lp5550
S'and'
p5551
aaa(lp5552
S'STEVEN'
p5553
a(lp5554
S'He'
p5555
aaa(lp5556
g5553
a(lp5557
S'umpire'
p5558
aaa(lp5559
g5553
a(lp5560
S'Y'
p5561
aS'he'
p5562
aS'says'
p5563
aaa(lp5564
S'SHERI'
p5565
a(lp5566
aa(lp5567
S'STEVEN'
p5568
a(lp5569
S'VOX'
p5570
ag147
aS'am'
p5571
ag5
aS'vampire'
p5572
aS'VOX'
p5573
aaa(lp5574
S'SHERI'
p5575
a(lp5576
aa(lp5577
S'STEVEN'
p5578
a(lp5579
S'he'
p5580
aS'says'
p5581
aaa(lp5582
g5578
a(lp5583
S'VOX'
p5584
aS'Well'
p5585
aS'hocuspocus'
p5586
aaa(lp5587
g5578
a(lp5588
S'Im'
p5589
aS'an'
p5590
aS'umpire'
p5591
aS'VOX'
p5592
aaa(lp5593
S'SHERI'
p5594
a(lp5595
aa(lp5596
S'STEVEN'
p5597
a(lp5598
S'He'
p5599
aS'said'
p5600
aaa(lp5601
g5597
a(lp5602
S'VOX'
p5603
aS'Well'
p5604
aS'hocuspocus'
p5605
aaa(lp5606
S'SHERI'
p5607
a(lp5608
aa(lp5609
S'STEVEN'
p5610
a(lp5611
S'Im'
p5612
ag5
aS'bat'
p5613
aS'VOX'
p5614
aaa(lp5615
g5610
a(lp5616
S'VOX'
p5617
aS'Im'
p5618
ag5
aS'bat'
p5619
aS'too'
p5620
aaa(lp5621
g5610
a(lp5622
S'Abracadabra'
p5623
aS'VOX'
p5624
aaa(lp5625
g5610
a(lp5626
S'SINGVOX'
p5627
aS'You'
p5628
aS'wouldnt'
p5629
aS'hit'
p5630
ag5
aS'bat'
p5631
aS'with'
p5632
aS'glasses'
p5633
aS'on'
p5634
aS'SING'
p5635
aaa(lp5636
g5610
a(lp5637
S'would'
p5638
aS'you'
p5639
aS'VOX'
p5640
aaa(lp5641
g5610
a(lp5642
S'Whack'
p5643
aaa(lp5644
S'SHERI'
p5645
a(lp5646
aa(lp5647
g5645
a(lp5648
S'Silly'
p5649
aaa(lp5650
g5645
a(lp5651
S'Do'
p5652
aS'you'
p5653
aS'want'
p5654
aS'more'
p5655
aS'cheese'
p5656
aS'than'
p5657
aS'this'
p5658
aaa(lp5659
g5645
a(lp5660
S'kiddo'
p5661
aaa(lp5662
S'STEVEN'
p5663
a(lp5664
S'Mm'
p5665
aaa(lp5666
S'SHERI'
p5667
a(lp5668
S'Does'
p5669
aS'that'
p5670
aS'look'
p5671
aS'like'
p5672
aS'enough'
p5673
aaa(lp5674
S'STEVEN'
p5675
a(lp5676
S'Lets'
p5677
aS'put'
p5678
aS'little'
p5679
aS'bit'
p5680
aS'more'
p5681
aaa(lp5682
S'SHERI'
p5683
a(lp5684
S'Let'
p5685
aS'me'
p5686
aaa(lp5687
g5683
a(lp5688
S'let'
p5689
aS'me'
p5690
aS'cut'
p5691
aS'some'
p5692
aS'more'
p5693
aS'off'
p5694
aaa(lp5695
g5683
a(lp5696
S'Let'
p5697
aS'me'
p5698
aS'move'
p5699
aS'these'
p5700
aS'dishes'
p5701
aS'into'
p5702
aS'the'
p5703
aS'sink'
p5704
aaa(lp5705
S'STEVEN'
p5706
a(lp5707
S'XX'
p5708
aaa(lp5709
S'SHERI'
p5710
a(lp5711
S'Okay'
p5712
aS'here'
p5713
aaa(lp5714
g5710
a(lp5715
S'slide'
p5716
aS'over'
p5717
aaa(lp5718
g5710
a(lp5719
S'this'
p5720
aS'is'
p5721
aS'really'
p5722
aS'kind'
p5723
aS'of'
p5724
ag5
aS'tough'
p5725
aS'kitchen'
p5726
aS'to'
p5727
aS'work'
p5728
aS'in'
p5729
aaa(lp5730
g5710
a(lp5731
S'cause'
p5732
aS'its'
p5733
aS'so'
p5734
aS'teenytiny'
p5735
aaa(lp5736
g5710
a(lp5737
S'and'
p5738
ag147
aS'have'
p5739
aS'all'
p5740
aS'my'
p5741
aS'books'
p5742
aS'and'
p5743
aS'everything'
p5744
aS'on'
p5745
aS'this'
p5746
aS'counter'
p5747
aS'too'
p5748
aS'and'
p5749
aaa(lp5750
g5710
a(lp5751
S'XXX'
p5752
aaa(lp5753
S'STEVEN'
p5754
a(lp5755
S'Slice'
p5756
aaa(lp5757
S'SHERI'
p5758
a(lp5759
S'stuff'
p5760
aaa(lp5761
g5758
a(lp5762
S'Okay'
p5763
aaa(lp5764
g5758
a(lp5765
S'Yeah'
p5766
aaa(lp5767
S'STEVEN'
p5768
a(lp5769
aa(lp5770
S'SHERI'
p5771
a(lp5772
S'okay'
p5773
aaa(lp5774
g5771
a(lp5775
S'And'
p5776
aS'Ill'
p5777
aS'open'
p5778
aS'up'
p5779
aS'the'
p5780
aS'pastra'
p5781
aaa(lp5782
g5771
a(lp5783
S'PAR'
p5784
aS'Ha'
p5785
aS'pastrami'
p5786
aS'PAR'
p5787
aaa(lp5788
g5771
a(lp5789
S'Pepperoni'
p5790
aaa(lp5791
g5771
a(lp5792
S'Im'
p5793
aS'tired'
p5794
aaa(lp5795
S'STEVEN'
p5796
a(lp5797
g4196
aS'hot'
p5798
aS'salami'
p5799
aaa(lp5800
S'SHERI'
p5801
a(lp5802
S'Boy'
p5803
aaa(lp5804
S'STEVEN'
p5805
a(lp5806
S'You'
p5807
aS'were'
p5808
aS'gonna'
p5809
aS'say'
p5810
aS'hot'
p5811
aS'salami'
p5812
aaa(lp5813
S'SHERI'
p5814
a(lp5815
S'No'
p5816
aaa(lp5817
g5814
a(lp5818
g147
aS'was'
p5819
aS'gonna'
p5820
aS'say'
p5821
aS'pastrami'
p5822
aaa(lp5823
g5814
a(lp5824
S'Instead'
p5825
aS'of'
p5826
aS'pepperoni'
p5827
aaa(lp5828
g5814
a(lp5829
S'Its'
p5830
aS'because'
p5831
aS'Im'
p5832
aS'having'
p5833
ag5
aS'dumb'
p5834
aS'attack'
p5835
aaa(lp5836
S'STEVEN'
p5837
a(lp5838
S'No'
p5839
aS'youre'
p5840
aS'having'
p5841
ag5
aS'mom'
p5842
aS'attack'
p5843
aaa(lp5844
S'SHERI'
p5845
a(lp5846
S'Yeah'
p5847
aaa(lp5848
g5845
a(lp5849
g147
aS'guess'
p5850
aS'so'
p5851
aaa(lp5852
S'STEVEN'
p5853
a(lp5854
S'You'
p5855
aS'are'
p5856
aS'entering'
p5857
aS'the'
p5858
aS'mom'
p5859
aS'zone'
p5860
aaa(lp5861
S'SHERI'
p5862
a(lp5863
S'Mom'
p5864
aS'zone'
p5865
aaa(lp5866
g5862
a(lp5867
S'Hows'
p5868
aS'Robbie'
p5869
aS'doing'
p5870
aaa.