(lp0
(lp1
S'ENV'
p2
a(lp3
aa(lp4
S'JILL'
p5
a(lp6
S'Hello'
p7
aaa(lp8
S'JEFF'
p9
a(lp10
S'Hows'
p11
aS'my'
p12
aS'favorite'
p13
aS'girl'
p14
aS'in'
p15
aS'the'
p16
aS'world'
p17
aaa(lp18
S'JILL'
p19
a(lp20
S'Hey'
p21
aS'baby'
p22
aaa(lp23
S'JEFF'
p24
a(lp25
S'Whos'
p26
aaa(lp27
g24
a(lp28
S'Whos'
p29
aS'the'
p30
aS'girl'
p31
aS'that'
p32
aS'I'
p33
aS'love'
p34
aaa(lp35
S'JILL'
p36
a(lp37
aa(lp38
S'JEFF'
p39
a(lp40
S'Whos'
p41
aS'the'
p42
aS'girl'
p43
aS'that'
p44
aS'Ill'
p45
aS'do'
p46
aS'anything'
p47
aS'for'
p48
aaa(lp49
S'JILL'
p50
a(lp51
aa(lp52
S'JEFF'
p53
a(lp54
S'Ill'
p55
aS'wash'
p56
aS'her'
p57
aS'feet'
p58
aS'with'
p59
aS'my'
p60
aS'mouth'
p61
aaa(lp62
S'JILL'
p63
a(lp64
S'Aw'
p65
aS'honey'
p66
aaa(lp67
g63
a(lp68
S'how'
p69
aS'are'
p70
aS'you'
p71
aaa(lp72
S'JEFF'
p73
a(lp74
aa(lp75
g73
a(lp76
S'after'
p77
aS'a'
p78
aS'ten'
p79
aS'mile'
p80
aS'run'
p81
aaa(lp82
S'JILL'
p83
a(lp84
S'Ew'
p85
aaa(lp86
S'JEFF'
p87
a(lp88
g33
aS'would'
p89
aaa(lp90
S'JILL'
p91
a(lp92
S'Ew'
p93
aaa(lp94
S'JEFF'
p95
a(lp96
g33
aS'would'
p97
aaa(lp98
S'JILL'
p99
a(lp100
S'Ew'
p101
aaa(lp102
S'JEFF'
p103
a(lp104
aa(lp105
S'JILL'
p106
a(lp107
aa(lp108
S'JEFF'
p109
a(lp110
aa(lp111
S'JILL'
p112
a(lp113
aa(lp114
g112
a(lp115
S'How'
p116
aS'are'
p117
aS'you'
p118
aaa(lp119
g112
a(lp120
S'honey'
p121
aaa(lp122
S'JEFF'
p123
a(lp124
aa(lp125
g123
a(lp126
S'Im'
p127
aS'doing'
p128
aS'good'
p129
aaa(lp130
S'JILL'
p131
a(lp132
g33
aS'miss'
p133
aS'you'
p134
aaa(lp135
S'JEFF'
p136
a(lp137
aa(lp138
S'JILL'
p139
a(lp140
aa(lp141
S'JEFF'
p142
a(lp143
g33
aS'miss'
p144
aS'you'
p145
aS'too'
p146
aaa(lp147
S'JILL'
p148
a(lp149
S'Hm'
p150
aaa(lp151
S'JEFF'
p152
a(lp153
S'Hows'
p154
aS'my'
p155
aS'favorite'
p156
aS'girl'
p157
aaa(lp158
S'JILL'
p159
a(lp160
aa(lp161
g159
a(lp162
S'Im'
p163
aS'good'
p164
aaa(lp165
S'JEFF'
p166
a(lp167
S'Is'
p168
aS'she'
p169
aaa(lp170
g166
a(lp171
S'Is'
p172
aS'she'
p173
aS'okay'
p174
aaa(lp175
S'JILL'
p176
a(lp177
S'Unhunh'
p178
aaa(lp179
S'JEFF'
p180
a(lp181
S'Are'
p182
aS'you'
p183
aS'guys'
p184
aS'having'
p185
aS'fun'
p186
aaa(lp187
S'JILL'
p188
a(lp189
S'Yes'
p190
aaa(lp191
S'JEFF'
p192
a(lp193
S'Im'
p194
aS'so'
p195
aS'glad'
p196
aaa(lp197
S'JILL'
p198
a(lp199
S'Aw'
p200
aaa(lp201
S'JEFF'
p202
a(lp203
aa(lp204
S'JILL'
p205
a(lp206
S'm'
p207
aaa(lp208
S'JEFF'
p209
a(lp210
aa(lp211
S'JILL'
p212
a(lp213
aa(lp214
S'JEFF'
p215
a(lp216
S'What'
p217
aS'are'
p218
aS'you'
p219
aS'going'
p220
aS'into'
p221
aS'purr'
p222
aS'mode'
p223
aaa(lp224
S'JILL'
p225
a(lp226
aa(lp227
S'JEFF'
p228
a(lp229
aa(lp230
S'JILL'
p231
a(lp232
S'Oh'
p233
aaa(lp234
g231
a(lp235
S'gosh'
p236
aaa(lp237
g231
a(lp238
S'we'
p239
aS'kept'
p240
aS'missing'
p241
aS'you'
p242
aaa(lp243
g231
a(lp244
S'Hunh'
p245
aaa(lp246
S'JEFF'
p247
a(lp248
g33
aS'know'
p249
aaa(lp250
g247
a(lp251
S'its'
p252
aS'been'
p253
ag78
aS'while'
p254
aaa(lp255
S'JILL'
p256
a(lp257
S'Last'
p258
aS'night'
p259
aaa(lp260
g256
a(lp261
S'and'
p262
aS'today'
p263
aaa(lp264
S'JEFF'
p265
a(lp266
S'Its'
p267
aS'been'
p268
ag78
aS'long'
p269
aS'time'
p270
aaa(lp271
S'JILL'
p272
a(lp273
S'Its'
p274
aS'been'
p275
aS'so'
p276
aS'long'
p277
aaa(lp278
g272
a(lp279
g33
aS'know'
p280
aaa(lp281
g272
a(lp282
S'You'
p283
aS'missed'
p284
aS'like'
p285
aS'all'
p286
aS'the'
p287
aS'drama'
p288
aS'here'
p289
aaa(lp290
S'JEFF'
p291
a(lp292
S'No'
p293
aS'drama'
p294
aaa(lp295
S'JILL'
p296
a(lp297
S'Yeah'
p298
aaa(lp299
g296
a(lp300
S'there'
p301
aS'was'
p302
aS'such'
p303
aS'drama'
p304
aaa(lp305
g296
a(lp306
S'There'
p307
aS'was'
p308
aS'drama'
p309
aaa(lp310
g296
a(lp311
S'and'
p312
aS'there'
p313
aS'was'
p314
aS'suspense'
p315
aaa(lp316
g296
a(lp317
S'And'
p318
aS'then'
p319
aS'there'
p320
aS'was'
p321
aS'relief'
p322
aaa(lp323
g296
a(lp324
S'and'
p325
aS'then'
p326
aS'there'
p327
aS'was'
p328
aS'ecstasy'
p329
aaa(lp330
S'JEFF'
p331
a(lp332
aa(lp333
g331
a(lp334
S'No'
p335
aaa(lp336
S'JILL'
p337
a(lp338
S'Well'
p339
aaa(lp340
g337
a(lp341
S'Ill'
p342
aaa(lp343
S'JEFF'
p344
a(lp345
S'Not'
p346
aS'the'
p347
aS'ecstasy'
p348
aaa(lp349
S'JILL'
p350
a(lp351
aa(lp352
g350
a(lp353
S'Ecstasy'
p354
aS'of'
p355
aS'sorts'
p356
aaa(lp357
S'JEFF'
p358
a(lp359
S'X'
p360
aS'Wait'
p361
ag360
aaa(lp362
g358
a(lp363
S'tell'
p364
aS'me'
p365
aS'what'
p366
aaa(lp367
g358
a(lp368
S'Well'
p369
aS'see'
p370
ag33
aaa(lp371
g358
a(lp372
S'The'
p373
aS'reas'
p374
aaa(lp375
g358
a(lp376
g33
aS'have'
p377
aaa(lp378
g358
a(lp379
g33
aS'kinda'
p380
aaa(lp381
g358
a(lp382
g33
aS'wasnt'
p383
aS'inclined'
p384
aS'to'
p385
aS'call'
p386
aS'you'
p387
aaa(lp388
S'JILL'
p389
a(lp390
S'Unhunh'
p391
aaa(lp392
S'JEFF'
p393
a(lp394
S'Because'
p395
ag33
aS'just'
p396
aS'wanted'
p397
aS'to'
p398
aS'give'
p399
aS'you'
p400
aS'and'
p401
aS'Jill'
p402
aS'your'
p403
aS'time'
p404
aaa(lp405
S'JILL'
p406
a(lp407
S'Yeah'
p408
aaa(lp409
S'JEFF'
p410
a(lp411
S'You'
p412
aS'know'
p413
aaa(lp414
g410
a(lp415
S'Like'
p416
ag33
aS'felt'
p417
aS'like'
p418
aaa(lp419
S'JILL'
p420
a(lp421
S'Totally'
p422
aaa(lp423
S'JEFF'
p424
a(lp425
S'you'
p426
aS'know'
p427
aaa(lp428
g424
a(lp429
S'so'
p430
aS'thats'
p431
aaa(lp432
g424
a(lp433
g33
aS'let'
p434
aaa(lp435
g424
a(lp436
S'There'
p437
aS'were'
p438
ag78
aS'couple'
p439
aS'times'
p440
aS'when'
p441
ag33
aS'wanted'
p442
aS'to'
p443
aS'call'
p444
aS'you'
p445
aaa(lp446
g424
a(lp447
S'and'
p448
ag33
aS'didnt'
p449
aS'for'
p450
aS'that'
p451
aS'reason'
p452
aaa(lp453
S'JILL'
p454
a(lp455
S'Uh'
p456
aaa(lp457
g454
a(lp458
S'Unhunh'
p459
aaa(lp460
g454
a(lp461
S'Aw'
p462
aS'thanks'
p463
aaa(lp464
g454
a(lp465
S'Yeah'
p466
aaa(lp467
g454
a(lp468
S'well'
p469
aS'the'
p470
aS'thing'
p471
aS'was'
p472
aaa(lp473
g454
a(lp474
g33
aS'hadnt'
p475
aS'told'
p476
aS'you'
p477
aaa(lp478
g454
a(lp479
S'But'
p480
aS'my'
p481
aS'period'
p482
aS'is'
p483
aS'really'
p484
aS'late'
p485
aaa(lp486
g454
a(lp487
S'You'
p488
aS'know'
p489
aaa(lp490
g454
a(lp491
S'And'
p492
ag33
aS'guess'
p493
aaa(lp494
g454
a(lp495
S'we'
p496
aS'would'
p497
aS'talk'
p498
aaa(lp499
g454
a(lp500
S'and'
p501
aS'then'
p502
aS'wed'
p503
aS'hang'
p504
aS'up'
p505
aaa(lp506
g454
a(lp507
S'and'
p508
aS'then'
p509
ag33
aS'thought'
p510
aaa(lp511
g454
a(lp512
S'oh'
p513
aaa(lp514
g454
a(lp515
S'gosh'
p516
aaa(lp517
g454
a(lp518
g33
aS'forgot'
p519
aS'to'
p520
aS'tell'
p521
aS'you'
p522
aaa(lp523
g454
a(lp524
S'But'
p525
aaa(lp526
S'JEFF'
p527
a(lp528
S'Ive'
p529
aS'been'
p530
aS'meaning'
p531
aS'to'
p532
aS'ask'
p533
aS'you'
p534
aS'about'
p535
aS'that'
p536
aaa(lp537
S'JILL'
p538
a(lp539
S'Really'
p540
aaa(lp541
g538
a(lp542
S'You'
p543
aS'were'
p544
ag360
aS'getting'
p545
aS'nervous'
p546
ag360
aaa(lp547
S'JEFF'
p548
a(lp549
S'You'
p550
aS'havent'
p551
aS'had'
p552
aS'it'
p553
aS'yet'
p554
aaa(lp555
S'JILL'
p556
a(lp557
S'No'
p558
aaa(lp559
g556
a(lp560
g33
aS'mean'
p561
aaa(lp562
g556
a(lp563
S'and'
p564
aS'its'
p565
aS'been'
p566
aS'so'
p567
aS'long'
p568
aaa(lp569
g556
a(lp570
S'And'
p571
aS'so'
p572
aS'its'
p573
aS'like'
p574
aS'eight'
p575
aS'days'
p576
aS'late'
p577
aaa(lp578
g556
a(lp579
S'And'
p580
ag33
aS'thought'
p581
aaa(lp582
g556
a(lp583
S'Im'
p584
aS'sure'
p585
aS'Im'
p586
aS'pregnant'
p587
aaa(lp588
g556
a(lp589
S'Im'
p590
aS'positive'
p591
aaa(lp592
g556
a(lp593
S'And'
p594
ag33
aS'was'
p595
aS'waiting'
p596
aS'till'
p597
aS'Jill'
p598
aS'got'
p599
aS'here'
p600
aaa(lp601
S'JEFF'
p602
a(lp603
S'WHX'
p604
aS'Thats'
p605
aS'bad'
p606
aS'XWH'
p607
aaa(lp608
S'JILL'
p609
a(lp610
S'to'
p611
aS'even'
p612
aS'try'
p613
aS'to'
p614
aS'check'
p615
aaa(lp616
S'JEFF'
p617
a(lp618
S'Oh'
p619
aaa(lp620
g617
a(lp621
S'Yeah'
p622
aaa(lp623
S'JILL'
p624
a(lp625
S'And'
p626
aS'um'
p627
aaa(lp628
g624
a(lp629
S'so'
p630
aS'we'
p631
aS'went'
p632
aS'to'
p633
aS'go'
p634
aS'get'
p635
aS'an'
p636
aS'EPT'
p637
aaa(lp638
g624
a(lp639
S'at'
p640
aS'pregnancy'
p641
aS'test'
p642
aaa(lp643
S'JEFF'
p644
a(lp645
g360
aS'Yeah'
p646
ag360
aaa(lp647
S'JILL'
p648
a(lp649
S'And'
p650
aS'then'
p651
aS'we'
p652
aS'd'
p653
aaa(lp654
g648
a(lp655
S'Thats'
p656
aS'why'
p657
aS'we'
p658
aS'were'
p659
aS'calling'
p660
aS'you'
p661
aS'last'
p662
aS'night'
p663
aaa(lp664
g648
a(lp665
S'You'
p666
aS'know'
p667
aaa(lp668
S'JEFF'
p669
a(lp670
S'What'
p671
aS'happened'
p672
aaa(lp673
S'JILL'
p674
a(lp675
S'And'
p676
aS'then'
p677
aaa(lp678
g674
a(lp679
S'of'
p680
aS'course'
p681
aS'it'
p682
aS'came'
p683
aS'out'
p684
aS'fine'
p685
aaa(lp686
g674
a(lp687
S'So'
p688
aS'thats'
p689
aS'the'
p690
aaa(lp691
S'JEFF'
p692
a(lp693
S'It'
p694
aS'came'
p695
aS'out'
p696
aS'negative'
p697
aaa(lp698
S'JILL'
p699
a(lp700
S'Yeah'
p701
aaa(lp702
g699
a(lp703
S'so'
p704
aS'thats'
p705
aS'the'
p706
aS'relief'
p707
aS'and'
p708
aS'the'
p709
aS'ecstasy'
p710
aaa(lp711
S'JEFF'
p712
a(lp713
S'So'
p714
aaa(lp715
g712
a(lp716
S'y'
p717
aS'you'
p718
aS'cant'
p719
aS'be'
p720
aS'pregnant'
p721
aaa(lp722
S'JILL'
p723
a(lp724
S'No'
p725
aaa(lp726
g723
a(lp727
g33
aS'dont'
p728
aaa(lp729
g723
a(lp730
S'No'
p731
aaa(lp732
g723
a(lp733
S'Unless'
p734
aS'it'
p735
aS'was'
p736
ag78
aS'false'
p737
aS'negative'
p738
aaa(lp739
S'JEFF'
p740
a(lp741
g360
aaa(lp742
S'JILL'
p743
a(lp744
S'which'
p745
ag33
aS'doubt'
p746
aaa(lp747
g743
a(lp748
S'Because'
p749
aaa(lp750
S'JEFF'
p751
a(lp752
S'Thats'
p753
aS'rare'
p754
aaa(lp755
g751
a(lp756
S'Right'
p757
aaa(lp758
S'JILL'
p759
a(lp760
S'Right'
p761
aaa(lp762
g759
a(lp763
g33
aS'think'
p764
aS'that'
p765
aS'would'
p766
aS'be'
p767
aS'really'
p768
aS'rare'
p769
aaa(lp770
S'JEFF'
p771
a(lp772
S'So'
p773
aaa(lp774
g771
a(lp775
S'th'
p776
aS'you'
p777
aS'know'
p778
aS'what'
p779
ag33
aS'mean'
p780
aaa(lp781
g771
a(lp782
S'like'
p783
aS'can'
p784
aaa(lp785
g771
a(lp786
S'would'
p787
aS'it'
p788
aS'come'
p789
aS'out'
p790
aS'nega'
p791
aaa(lp792
g771
a(lp793
S'Lets'
p794
aS'say'
p795
aS'i'
p796
ag796
aS'f'
p797
aS'you'
p798
aS'were'
p799
aS'pregnant'
p800
aaa(lp801
g771
a(lp802
S'in'
p803
aS'its'
p804
aS'early'
p805
aS'st'
p806
aaa(lp807
g771
a(lp808
S'early'
p809
aS'early'
p810
aS'stages'
p811
aaa(lp812
S'JILL'
p813
a(lp814
S'Mhm'
p815
aaa(lp816
S'JEFF'
p817
a(lp818
S'Like'
p819
aS'wo'
p820
aaa(lp821
g817
a(lp822
S'Like'
p823
aS'would'
p824
ag78
aS'negative'
p825
aaa(lp826
g817
a(lp827
S'You'
p828
aS'know'
p829
aS'what'
p830
aS'Im'
p831
aS'saying'
p832
aaa(lp833
S'JILL'
p834
a(lp835
S'M'
p836
aaa(lp837
S'JEFF'
p838
a(lp839
S'Like'
p840
aS'could'
p841
aS'you'
p842
aS'get'
p843
aaa(lp844
g838
a(lp845
S'Is'
p846
aS'it'
p847
aS'possible'
p848
aS'that'
p849
aS'you'
p850
aS'could'
p851
aS'still'
p852
aS'be'
p853
aS'posi'
p854
aS'positive'
p855
aaa(lp856
S'JILL'
p857
a(lp858
g33
aS'think'
p859
aS'thered'
p860
aS'be'
p861
ag78
aS'slight'
p862
aS'chance'
p863
aaa(lp864
g857
a(lp865
S'of'
p866
aS'it'
p867
aS'being'
p868
ag78
aS'false'
p869
aS'negative'
p870
aaa(lp871
g857
a(lp872
S'But'
p873
aaa(lp874
g857
a(lp875
g33
aS'dont'
p876
aS'think'
p877
aS'so'
p878
aaa(lp879
g857
a(lp880
S'cause'
p881
aS'Im'
p882
aS'pretty'
p883
aS'late'
p884
aaa(lp885
g857
a(lp886
S'And'
p887
ag33
aS'think'
p888
aS'Im'
p889
aS'late'
p890
aS'enough'
p891
aaa(lp892
g857
a(lp893
S'where'
p894
ag33
aS'would'
p895
aS'have'
p896
aaa(lp897
g857
a(lp898
S'like'
p899
aaa(lp900
g857
a(lp901
S'enough'
p902
aS'of'
p903
aS'the'
p904
aS'hormone'
p905
aS'that'
p906
aS'the'
p907
aS'pregnancy'
p908
aS'test'
p909
aS'tests'
p910
aS'for'
p911
aaa(lp912
g857
a(lp913
g33
aS'think'
p914
ag33
aS'would'
p915
aS'have'
p916
aS'enough'
p917
aS'of'
p918
aS'that'
p919
aS'in'
p920
aS'my'
p921
aS'urine'
p922
aaa(lp923
g857
a(lp924
S'that'
p925
aS'of'
p926
aS'course'
p927
aS'it'
p928
aS'would'
p929
aS'show'
p930
aS'up'
p931
aaa(lp932
g857
a(lp933
S'if'
p934
ag33
aS'had'
p935
aS'any'
p936
aS'in'
p937
aS'there'
p938
aaa(lp939
S'JEFF'
p940
a(lp941
S'Yeah'
p942
aaa(lp943
S'JILL'
p944
a(lp945
S'You'
p946
aS'know'
p947
aaa(lp948
g944
a(lp949
S'So'
p950
ag33
aaa(lp951
g944
a(lp952
g33
aS'Im'
p953
aS'pret'
p954
aaa(lp955
g944
a(lp956
g33
aS'took'
p957
aS'that'
p958
aS'as'
p959
ag78
aS'pretty'
p960
aS'good'
p961
aS'sign'
p962
aaa(lp963
S'JEFF'
p964
a(lp965
S'Oh'
p966
aS'my'
p967
aS'god'
p968
aaa(lp969
S'JILL'
p970
a(lp971
S'You'
p972
aS'know'
p973
aaa(lp974
S'JEFF'
p975
a(lp976
S'Honey'
p977
aaa(lp978
g975
a(lp979
S'how'
p980
aS'come'
p981
aS'youve'
p982
aS'been'
p983
aS'keeping'
p984
aS'all'
p985
aS'this'
p986
aS'inside'
p987
aaa(lp988
S'JILL'
p989
a(lp990
g33
aS'know'
p991
aaa(lp992
g989
a(lp993
g33
aS'didnt'
p994
aS'mean'
p995
aS'to'
p996
aS'keep'
p997
aS'it'
p998
aS'inside'
p999
aaa(lp1000
S'JEFF'
p1001
a(lp1002
g360
aaa(lp1003
S'JILL'
p1004
a(lp1005
g33
aS'mean'
p1006
aaa(lp1007
g1004
a(lp1008
g33
aS'didnt'
p1009
aS'mean'
p1010
aaa(lp1011
S'JEFF'
p1012
a(lp1013
S'Dont'
p1014
aS'you'
p1015
aS'love'
p1016
aS'me'
p1017
aaa(lp1018
S'JILL'
p1019
a(lp1020
S'Oh'
p1021
aaa(lp1022
S'JEFF'
p1023
a(lp1024
S'Aw'
p1025
aaa(lp1026
S'JILL'
p1027
a(lp1028
g33
aS'didnt'
p1029
aS'mean'
p1030
aS'to'
p1031
aS'not'
p1032
aS'tell'
p1033
aS'you'
p1034
aS'at'
p1035
aS'all'
p1036
aaa(lp1037
g1027
a(lp1038
S'It'
p1039
aS'was'
p1040
aS'just'
p1041
aaa(lp1042
g1027
a(lp1043
S'we'
p1044
aS'would'
p1045
aS'hang'
p1046
aS'up'
p1047
aS'the'
p1048
aS'phone'
p1049
aaa(lp1050
g1027
a(lp1051
S'then'
p1052
ag33
aS'thought'
p1053
aaa(lp1054
g1027
a(lp1055
S'oh'
p1056
aS'yeah'
p1057
aaa(lp1058
g1027
a(lp1059
g33
aS'forgot'
p1060
aS'to'
p1061
aS'mention'
p1062
aS'that'
p1063
aS'Im'
p1064
aS'kinda'
p1065
aS'late'
p1066
aaa(lp1067
g1027
a(lp1068
S'Cause'
p1069
ag33
aS'didnt'
p1070
aS'think'
p1071
aS'it'
p1072
aS'was'
p1073
ag78
aS'huge'
p1074
aS'deal'
p1075
aaa(lp1076
g1027
a(lp1077
S'but'
p1078
aS'then'
p1079
aaa(lp1080
g1027
a(lp1081
g33
aS'guess'
p1082
ag33
aS'wasnt'
p1083
aS'trying'
p1084
aaa(lp1085
g1027
a(lp1086
g33
aS'think'
p1087
ag33
aS'was'
p1088
aS'in'
p1089
ag78
aS'bit'
p1090
aS'of'
p1091
aS'denial'
p1092
aaa(lp1093
g1027
a(lp1094
S'Like'
p1095
ag33
aS'wasnt'
p1096
aS'really'
p1097
aS'thinking'
p1098
aS'about'
p1099
aS'it'
p1100
aS'much'
p1101
aaa(lp1102
g1027
a(lp1103
S'You'
p1104
aS'know'
p1105
aaa(lp1106
g1027
a(lp1107
S'cause'
p1108
ag33
aS'knew'
p1109
aS'once'
p1110
aS'Jill'
p1111
aS'got'
p1112
aS'here'
p1113
aaa(lp1114
g1027
a(lp1115
S'then'
p1116
ag33
aS'would'
p1117
aS'go'
p1118
aS'get'
p1119
aS'the'
p1120
aS'test'
p1121
aaa(lp1122
S'JEFF'
p1123
a(lp1124
S'So'
p1125
aS'is'
p1126
aS'that'
p1127
aS'all'
p1128
aS'the'
p1129
aS'drama'
p1130
aaa(lp1131
S'JILL'
p1132
a(lp1133
S'That'
p1134
aS'was'
p1135
aS'the'
p1136
aS'drama'
p1137
aaa(lp1138
g1132
a(lp1139
S'And'
p1140
aS'that'
p1141
aS'was'
p1142
aS'the'
p1143
aS'suspense'
p1144
aaa(lp1145
g1132
a(lp1146
S'and'
p1147
aS'that'
p1148
aS'was'
p1149
aS'the'
p1150
aS'relief'
p1151
aaa(lp1152
g1132
a(lp1153
S'and'
p1154
aS'that'
p1155
aS'was'
p1156
aS'the'
p1157
aS'ecstasy'
p1158
aaa(lp1159
S'JEFF'
p1160
a(lp1161
S'Really'
p1162
aaa(lp1163
S'JILL'
p1164
a(lp1165
S'Unhunh'
p1166
aaa(lp1167
S'JEFF'
p1168
a(lp1169
S'Oh'
p1170
aaa(lp1171
g1168
a(lp1172
S'honey'
p1173
aaa(lp1174
S'JILL'
p1175
a(lp1176
S'Oh'
p1177
aaa(lp1178
S'JEFF'
p1179
a(lp1180
S'Little'
p1181
aS'bunny'
p1182
aS'is'
p1183
aS'going'
p1184
aS'through'
p1185
aS'the'
p1186
aS'whole'
p1187
aS'wide'
p1188
aS'spectrum'
p1189
aS'of'
p1190
aS'emotions'
p1191
aaa(lp1192
S'JILL'
p1193
a(lp1194
aa(lp1195
S'JEFF'
p1196
a(lp1197
aa(lp1198
S'JILL'
p1199
a(lp1200
aa(lp1201
S'JEFF'
p1202
a(lp1203
S'Shes'
p1204
aS'doing'
p1205
aS'it'
p1206
aS'without'
p1207
aS'me'
p1208
aaa(lp1209
S'JILL'
p1210
a(lp1211
aa(lp1212
S'JEFF'
p1213
a(lp1214
S'Shes'
p1215
aS'going'
p1216
aS'solo'
p1217
aS'on'
p1218
aS'this'
p1219
aaa(lp1220
S'JILL'
p1221
a(lp1222
S'Im'
p1223
aS'going'
p1224
aS'solo'
p1225
aaa(lp1226
S'JEFF'
p1227
a(lp1228
S'This'
p1229
aS'is'
p1230
aS'Jillpan'
p1231
aS'going'
p1232
aS'solo'
p1233
aaa(lp1234
S'JILL'
p1235
a(lp1236
g33
aS'know'
p1237
aaa(lp1238
S'JEFF'
p1239
a(lp1240
aa(lp1241
S'JILL'
p1242
a(lp1243
g33
aS'thought'
p1244
aS'it'
p1245
aS'was'
p1246
aS'so'
p1247
aS'funny'
p1248
aaa(lp1249
g1242
a(lp1250
S'last'
p1251
aS'night'
p1252
aaa(lp1253
g1242
a(lp1254
S'like'
p1255
aS'what'
p1256
aS'if'
p1257
aS'it'
p1258
aS'came'
p1259
aS'back'
p1260
aS'positive'
p1261
aaa(lp1262
g1242
a(lp1263
S'And'
p1264
aS'then'
p1265
aS'that'
p1266
aS'would'
p1267
aS'mean'
p1268
aaa(lp1269
g1242
a(lp1270
S'the'
p1271
aS'next'
p1272
aS'time'
p1273
ag33
aS'talked'
p1274
aS'to'
p1275
aS'you'
p1276
aaa(lp1277
g1242
a(lp1278
S'Id'
p1279
aS'be'
p1280
aS'telling'
p1281
aS'you'
p1282
aS'that'
p1283
ag33
aS'was'
p1284
aS'pregnant'
p1285
aaa(lp1286
g1242
a(lp1287
S'And'
p1288
aS'then'
p1289
ag33
aS'thought'
p1290
aS'gosh'
p1291
aaa(lp1292
g1242
a(lp1293
S'poor'
p1294
aS'Jeff'
p1295
aaa(lp1296
g1242
a(lp1297
S'like'
p1298
ag33
aS'hadnt'
p1299
aS'given'
p1300
aS'you'
p1301
aS'any'
p1302
aS'like'
p1303
aaa(lp1304
g1242
a(lp1305
S'you'
p1306
aS'know'
p1307
aaa(lp1308
g1242
a(lp1309
S'like'
p1310
ag33
aS'hadnt'
p1311
aS'warned'
p1312
aS'you'
p1313
aaa(lp1314
g1242
a(lp1315
S'or'
p1316
aS'anything'
p1317
aaa(lp1318
g1242
a(lp1319
S'And'
p1320
aS'it'
p1321
aS'would'
p1322
aS'have'
p1323
aS'been'
p1324
aS'such'
p1325
ag78
aS'surprise'
p1326
aaa(lp1327
S'JEFF'
p1328
a(lp1329
S'Totally'
p1330
aaa(lp1331
S'JILL'
p1332
a(lp1333
g33
aS'thought'
p1334
aS'oh'
p1335
aS'my'
p1336
aS'gosh'
p1337
aaa(lp1338
g1332
a(lp1339
g33
aS'was'
p1340
aS'even'
p1341
aS'g'
p1342
aaa(lp1343
S'JEFF'
p1344
a(lp1345
S'That'
p1346
aS'wouldve'
p1347
aS'been'
p1348
aaa(lp1349
S'JILL'
p1350
a(lp1351
S'gonna'
p1352
aS'bring'
p1353
aS'the'
p1354
aS'camera'
p1355
aS'into'
p1356
aS'the'
p1357
aS'bathroom'
p1358
aaa(lp1359
g1350
a(lp1360
S'to'
p1361
aS'take'
p1362
ag78
aS'picture'
p1363
aS'of'
p1364
aS'the'
p1365
aS'EPT'
p1366
aaa(lp1367
g1350
a(lp1368
S'Cause'
p1369
ag33
aS'thought'
p1370
aaa(lp1371
S'JEFF'
p1372
a(lp1373
g360
aaa(lp1374
S'JILL'
p1375
a(lp1376
S'you'
p1377
aS'know'
p1378
aaa(lp1379
g1375
a(lp1380
S'its'
p1381
aS'like'
p1382
aS'such'
p1383
ag78
aS'momentous'
p1384
aS'occasion'
p1385
aaa(lp1386
g1375
a(lp1387
S'like'
p1388
aS'what'
p1389
aS'if'
p1390
aS'it'
p1391
aS'came'
p1392
aS'out'
p1393
aS'positive'
p1394
aaa(lp1395
S'JEFF'
p1396
a(lp1397
aa(lp1398
S'JILL'
p1399
a(lp1400
S'and'
p1401
aS'then'
p1402
ag33
aS'thought'
p1403
aaa(lp1404
g1399
a(lp1405
S'of'
p1406
aS'cour'
p1407
aaa(lp1408
g1399
a(lp1409
S'Like'
p1410
aS'Im'
p1411
aS'know'
p1412
ag33
aS'wouldnt'
p1413
aS'have'
p1414
aS'it'
p1415
aS'or'
p1416
aS'anything'
p1417
aaa(lp1418
g1399
a(lp1419
S'but'
p1420
ag33
aS'thought'
p1421
aS'if'
p1422
aS'the'
p1423
aS'slight'
p1424
aS'chance'
p1425
ag33
aS'would'
p1426
aS'have'
p1427
aS'it'
p1428
aaa(lp1429
g1399
a(lp1430
S'and'
p1431
aS'it'
p1432
aS'really'
p1433
aS'became'
p1434
ag78
aS'person'
p1435
aS'someday'
p1436
aaa(lp1437
g1399
a(lp1438
S'wouldnt'
p1439
aS'they'
p1440
aS'love'
p1441
aS'to'
p1442
aS'see'
p1443
aS'the'
p1444
aS'photograph'
p1445
aS'of'
p1446
aS'the'
p1447
aS'EPT'
p1448
aaa(lp1449
S'JEFF'
p1450
a(lp1451
g360
aaa(lp1452
S'JILL'
p1453
a(lp1454
S'with'
p1455
aS'the'
p1456
aS'positive'
p1457
aS'sign'
p1458
aS'on'
p1459
aS'it'
p1460
aaa(lp1461
g1453
a(lp1462
S'Knowing'
p1463
aS'that'
p1464
aS'that'
p1465
aS'was'
p1466
aS'like'
p1467
aS'its'
p1468
aS'first'
p1469
aS'sign'
p1470
aS'of'
p1471
aS'life'
p1472
aaa(lp1473
S'JEFF'
p1474
a(lp1475
S'Unhunh'
p1476
aaa(lp1477
g1474
a(lp1478
S'Oh'
p1479
aS'my'
p1480
ag1342
aaa(lp1481
S'JILL'
p1482
a(lp1483
g33
aS'know'
p1484
aS'its'
p1485
aS'kind'
p1486
aS'of'
p1487
aaa(lp1488
S'JEFF'
p1489
a(lp1490
S'Kind'
p1491
aS'of'
p1492
aS'spooky'
p1493
aaa(lp1494
S'JILL'
p1495
a(lp1496
aa(lp1497
S'JEFF'
p1498
a(lp1499
S'Its'
p1500
aS'not'
p1501
aS'my'
p1502
aS'idea'
p1503
aS'of'
p1504
ag78
aS'good'
p1505
aS'time'
p1506
aS'right'
p1507
aS'now'
p1508
aS'sweetie'
p1509
aaa(lp1510
S'JILL'
p1511
a(lp1512
S'Oh'
p1513
aaa(lp1514
g1511
a(lp1515
S'sorry'
p1516
aaa(lp1517
S'JEFF'
p1518
a(lp1519
aa(lp1520
S'JILL'
p1521
a(lp1522
aa(lp1523
S'JEFF'
p1524
a(lp1525
S'Maybe'
p1526
aS'somewhere'
p1527
aS'down'
p1528
aS'the'
p1529
aS'road'
p1530
aaa(lp1531
g1524
a(lp1532
S'but'
p1533
aS'right'
p1534
aS'now'
p1535
aS'it'
p1536
aS'kind'
p1537
aS'of'
p1538
aS'makes'
p1539
aS'me'
p1540
aS'sick'
p1541
aaa(lp1542
S'JILL'
p1543
a(lp1544
aa(lp1545
S'JEFF'
p1546
a(lp1547
aa(lp1548
S'JILL'
p1549
a(lp1550
S'Right'
p1551
aaa(lp1552
g1549
a(lp1553
g33
aS'know'
p1554
ag33
aS'know'
p1555
aaa(lp1556
g1549
a(lp1557
S'me'
p1558
aS'too'
p1559
aaa(lp1560
S'JEFF'
p1561
a(lp1562
aa(lp1563
S'JILL'
p1564
a(lp1565
S'Me'
p1566
aS'too'
p1567
aaa(lp1568
S'JEFF'
p1569
a(lp1570
aa(lp1571
S'JILL'
p1572
a(lp1573
g33
aS'was'
p1574
aS'very'
p1575
aaa(lp1576
S'JILL'
p1577
a(lp1578
aa(lp1579
S'JEFF'
p1580
a(lp1581
aa(lp1582
S'JILL'
p1583
a(lp1584
S'But'
p1585
aS'it'
p1586
aS'was'
p1587
aS'just'
p1588
ag78
aS'thought'
p1589
aS'that'
p1590
aS'went'
p1591
aS'through'
p1592
aS'my'
p1593
aS'head'
p1594
aaa(lp1595
S'JEFF'
p1596
a(lp1597
aa(lp1598
g1596
a(lp1599
S'No'
p1600
aS'thats'
p1601
ag78
aS'very'
p1602
aS'cute'
p1603
aS'thought'
p1604
aaa(lp1605
S'JILL'
p1606
a(lp1607
aa(lp1608
S'JEFF'
p1609
a(lp1610
S'Cho'
p1611
aaa(lp1612
g1609
a(lp1613
S'Lets'
p1614
aS'chock'
p1615
aS'that'
p1616
aS'up'
p1617
aS'as'
p1618
ag78
aS'very'
p1619
aS'cute'
p1620
aS'thought'
p1621
aaa(lp1622
S'JILL'
p1623
a(lp1624
aa(lp1625
g1623
a(lp1626
S'You'
p1627
aS'know'
p1628
aS'me'
p1629
aS'and'
p1630
aS'cameras'
p1631
aaa(lp1632
S'JEFF'
p1633
a(lp1634
aa(lp1635
g1633
a(lp1636
S'Aw'
p1637
aS'honey'
p1638
aaa(lp1639
S'JILL'
p1640
a(lp1641
S'Aw'
p1642
aaa(lp1643
g1640
a(lp1644
S'so'
p1645
aS'how'
p1646
aS'are'
p1647
aS'you'
p1648
aaa(lp1649
S'JEFF'
p1650
a(lp1651
S'Know'
p1652
aS'whats'
p1653
aS'even'
p1654
aS'better'
p1655
aaa(lp1656
S'JILL'
p1657
a(lp1658
S'What'
p1659
aaa(lp1660
S'JEFF'
p1661
a(lp1662
S'You'
p1663
aS'could'
p1664
aS'do'
p1665
aS'like'
p1666
ag78
aS'selftimer'
p1667
aaa(lp1668
S'JILL'
p1669
a(lp1670
S'A'
p1671
aS'selftimer'
p1672
aaa(lp1673
S'JEFF'
p1674
a(lp1675
aa(lp1676
g1674
a(lp1677
S'With'
p1678
aS'you'
p1679
aS'right'
p1680
aS'next'
p1681
aS'to'
p1682
aS'it'
p1683
aaa(lp1684
S'JILL'
p1685
a(lp1686
g1671
aS'self'
p1687
aaa(lp1688
S'JEFF'
p1689
a(lp1690
S'You'
p1691
aS'go'
p1692
aaa(lp1693
g1689
a(lp1694
S'Im'
p1695
aS'the'
p1696
aS'mom'
p1697
aaa(lp1698
S'JILL'
p1699
a(lp1700
aa(lp1701
S'JEFF'
p1702
a(lp1703
S'you'
p1704
aS'know'
p1705
aaa(lp1706
S'JILL'
p1707
a(lp1708
S'Oh'
p1709
aS'gosh'
p1710
aaa(lp1711
S'JEFF'
p1712
a(lp1713
S'Next'
p1714
aS'to'
p1715
aS'the'
p1716
aS'result'
p1717
aaa(lp1718
S'JILL'
p1719
a(lp1720
S'Oh'
p1721
aS'gosh'
p1722
aaa(lp1723
S'JEFF'
p1724
a(lp1725
aa(lp1726
S'JILL'
p1727
a(lp1728
S'Right'
p1729
aaa(lp1730
g1727
a(lp1731
S'And'
p1732
ag33
aS'could'
p1733
aS'even'
p1734
aS'send'
p1735
aS'it'
p1736
aS'to'
p1737
aS'EPT'
p1738
aaa(lp1739
S'JEFF'
p1740
a(lp1741
S'Yeah'
p1742
aaa(lp1743
S'JILL'
p1744
a(lp1745
S'Use'
p1746
aS'it'
p1747
aS'for'
p1748
aS'advertising'
p1749
aaa(lp1750
S'JEFF'
p1751
a(lp1752
aa(lp1753
S'JILL'
p1754
a(lp1755
S'In'
p1756
aS'fact'
p1757
ag33
aS'could'
p1758
aS'send'
p1759
aS'it'
p1760
aS'to'
p1761
aS'you'
p1762
aaa(lp1763
g1754
a(lp1764
S'cause'
p1765
ag33
aS'have'
p1766
aS'it'
p1767
aaa(lp1768
g1754
a(lp1769
S'The'
p1770
aS'test'
p1771
aS'right'
p1772
aS'there'
p1773
aaa(lp1774
S'JEFF'
p1775
a(lp1776
S'Aw'
p1777
aaa(lp1778
S'JILL'
p1779
a(lp1780
S'Anyhow'
p1781
aaa(lp1782
S'JEFF'
p1783
a(lp1784
S'So'
p1785
aS'how'
p1786
aS'are'
p1787
aS'you'
p1788
aaa(lp1789
S'JILL'
p1790
a(lp1791
S'Nothing'
p1792
ag360
aaa(lp1793
S'JEFF'
p1794
a(lp1795
S'outside'
p1796
aS'of'
p1797
aS'that'
p1798
aaa(lp1799
S'JILL'
p1800
a(lp1801
S'Good'
p1802
aaa(lp1803
g1800
a(lp1804
S'Good'
p1805
aaa(lp1806
g1800
a(lp1807
S'we'
p1808
aS'had'
p1809
aS'such'
p1810
ag78
aS'nice'
p1811
aS'day'
p1812
aaa(lp1813
g1800
a(lp1814
S'Its'
p1815
aS'really'
p1816
aS'beautiful'
p1817
aS'here'
p1818
aaa(lp1819
g1800
a(lp1820
S'Its'
p1821
aS'like'
p1822
aaa(lp1823
S'JEFF'
p1824
a(lp1825
S'It'
p1826
aS'is'
p1827
aaa(lp1828
S'JILL'
p1829
a(lp1830
S'Unhunh'
p1831
aaa(lp1832
g1829
a(lp1833
S'Like'
p1834
aS'seventy'
p1835
aS'degrees'
p1836
aaa(lp1837
g1829
a(lp1838
S'and'
p1839
aS'sunny'
p1840
aaa(lp1841
g1829
a(lp1842
S'and'
p1843
aaa(lp1844
g1829
a(lp1845
S'we'
p1846
aS'walked'
p1847
aS'around'
p1848
aaa(lp1849
g1829
a(lp1850
S'we'
p1851
aS'went'
p1852
aS'to'
p1853
ag78
aS'park'
p1854
aaa(lp1855
g1829
a(lp1856
S'and'
p1857
aS'we'
p1858
aS'just'
p1859
aS'talked'
p1860
aaa(lp1861
g1829
a(lp1862
S'and'
p1863
aS'talked'
p1864
aaa(lp1865
g1829
a(lp1866
S'and'
p1867
aS'sat'
p1868
aS'in'
p1869
aS'the'
p1870
aS'sun'
p1871
aaa(lp1872
g1829
a(lp1873
S'and'
p1874
aaa(lp1875
g1829
a(lp1876
S'we'
p1877
aS'had'
p1878
aS'such'
p1879
ag78
aS'nice'
p1880
aS'day'
p1881
aaa(lp1882
g1829
a(lp1883
S'We'
p1884
aS'went'
p1885
aS'out'
p1886
aS'for'
p1887
aS'dinner'
p1888
aS'with'
p1889
aS'Joy'
p1890
aaa(lp1891
S'JEFF'
p1892
a(lp1893
S'Aw'
p1894
aaa(lp1895
g1892
a(lp1896
S'what'
p1897
ag78
aS'joy'
p1898
aaa(lp1899
S'JILL'
p1900
a(lp1901
S'We'
p1902
aS'just'
p1903
aS'got'
p1904
aS'back'
p1905
aS'here'
p1906
aaa(lp1907
S'JEFF'
p1908
a(lp1909
g360
aS'great'
p1910
aaa(lp1911
g1908
a(lp1912
S'so'
p1913
aS'youve'
p1914
aS'been'
p1915
aS'relaxing'
p1916
aaa(lp1917
S'JILL'
p1918
a(lp1919
S'Unhunh'
p1920
aaa(lp1921
S'JEFF'
p1922
a(lp1923
S'Do'
p1924
aS'you'
p1925
aS'have'
p1926
aS'school'
p1927
aaa(lp1928
S'JILL'
p1929
a(lp1930
S'Yeah'
p1931
aaa(lp1932
g1929
a(lp1933
S'well'
p1934
ag33
aS'had'
p1935
aS'school'
p1936
aS'on'
p1937
aS'Friday'
p1938
aaa(lp1939
S'JEFF'
p1940
a(lp1941
S'Oh'
p1942
ag33
aS'see'
p1943
aaa(lp1944
S'JILL'
p1945
a(lp1946
S'Yeah'
p1947
aS'and'
p1948
ag33
aS'have'
p1949
aS'it'
p1950
aS'on'
p1951
aS'Monday'
p1952
aS'too'
p1953
aaa(lp1954
S'JEFF'
p1955
a(lp1956
S'Gotcha'
p1957
aaa(lp1958
S'JILL'
p1959
a(lp1960
S'Yeah'
p1961
aaa(lp1962
S'JEFF'
p1963
a(lp1964
S'Wh'
p1965
aS'Jills'
p1966
aS'leaving'
p1967
aS'tomorrow'
p1968
aaa(lp1969
S'JILL'
p1970
a(lp1971
S'Unhunh'
p1972
aaa(lp1973
g1970
a(lp1974
S'shes'
p1975
aS'leaving'
p1976
aS'tomorrow'
p1977
aS'night'
p1978
aaa(lp1979
S'JEFF'
p1980
a(lp1981
S'Aw'
p1982
aaa(lp1983
S'JILL'
p1984
a(lp1985
aa(lp1986
S'JEFF'
p1987
a(lp1988
S'So'
p1989
aS'you'
p1990
aS'guys'
p1991
aS'have'
p1992
aS'been'
p1993
aS'having'
p1994
ag78
aS'good'
p1995
aS'time'
p1996
aaa(lp1997
S'JILL'
p1998
a(lp1999
S'Unhunh'
p2000
aaa(lp2001
g1998
a(lp2002
S'such'
p2003
ag78
aS'good'
p2004
aS'time'
p2005
aaa(lp2006
g1998
a(lp2007
S'Its'
p2008
aS'so'
p2009
aS'good'
p2010
aS'to'
p2011
aS'see'
p2012
aS'her'
p2013
aaa(lp2014
S'JEFF'
p2015
a(lp2016
S'Staying'
p2017
aS'up'
p2018
aS'late'
p2019
aaa(lp2020
S'JILL'
p2021
a(lp2022
S'Unhunh'
p2023
aaa(lp2024
S'JEFF'
p2025
a(lp2026
g360
aaa(lp2027
S'JILL'
p2028
a(lp2029
S'We'
p2030
aS'stayed'
p2031
aS'up'
p2032
aS'till'
p2033
aS'like'
p2034
aS'three'
p2035
aS'thirty'
p2036
aS'last'
p2037
aS'night'
p2038
aaa(lp2039
S'JEFF'
p2040
a(lp2041
S'What'
p2042
aS'are'
p2043
aS'you'
p2044
aS'guys'
p2045
aS'doing'
p2046
aaa(lp2047
g2040
a(lp2048
S'Talking'
p2049
aS'or'
p2050
aS'something'
p2051
aaa(lp2052
S'JILL'
p2053
a(lp2054
S'Just'
p2055
aS'talking'
p2056
aaa(lp2057
S'JEFF'
p2058
a(lp2059
S'Just'
p2060
aS'talking'
p2061
aaa(lp2062
S'JILL'
p2063
a(lp2064
aa(lp2065
S'JEFF'
p2066
a(lp2067
S'Just'
p2068
aS'talking'
p2069
aaa(lp2070
S'JILL'
p2071
a(lp2072
aa(lp2073
S'JEFF'
p2074
a(lp2075
aa(lp2076
S'JILL'
p2077
a(lp2078
S'We'
p2079
aS'have'
p2080
ag78
aS'lot'
p2081
aS'to'
p2082
aS'catch'
p2083
aS'up'
p2084
aS'on'
p2085
aaa(lp2086
S'JEFF'
p2087
a(lp2088
g33
aS'know'
p2089
aaa(lp2090
g2087
a(lp2091
g33
aS'know'
p2092
aaa(lp2093
g2087
a(lp2094
S'Im'
p2095
aS'just'
p2096
aS'kidding'
p2097
aaa(lp2098
S'JILL'
p2099
a(lp2100
S'What'
p2101
aS'have'
p2102
aS'you'
p2103
aS'been'
p2104
aS'up'
p2105
aS'to'
p2106
aaa(lp2107
S'JEFF'
p2108
a(lp2109
S'Nothing'
p2110
aaa(lp2111
S'JILL'
p2112
a(lp2113
S'Nothing'
p2114
aaa(lp2115
S'JEFF'
p2116
a(lp2117
S'Just'
p2118
aS'homework'
p2119
aaa(lp2120
S'JILL'
p2121
a(lp2122
S'Yeah'
p2123
aaa(lp2124
S'JEFF'
p2125
a(lp2126
g33
aS'just'
p2127
aS'played'
p2128
aS'basketball'
p2129
aS'at'
p2130
aS'Main'
p2131
aS'Beach'
p2132
aaa(lp2133
S'JILL'
p2134
a(lp2135
S'Oh'
p2136
aaa(lp2137
S'JEFF'
p2138
a(lp2139
g33
aS'and'
p2140
ag33
aS'just'
p2141
aS'talked'
p2142
aS'to'
p2143
aS'this'
p2144
aS'Asian'
p2145
aS'guy'
p2146
aaa(lp2147
g2138
a(lp2148
S'um'
p2149
aaa(lp2150
g2138
a(lp2151
S'six'
p2152
aS'years'
p2153
aS'old'
p2154
aaa(lp2155
g2138
a(lp2156
S'and'
p2157
aaa(lp2158
g2138
a(lp2159
S'hes'
p2160
ag78
aS'very'
p2161
aS'sweet'
p2162
aS'guy'
p2163
aaa(lp2164
g2138
a(lp2165
S'he'
p2166
aS'just'
p2167
aS'moved'
p2168
aS'to'
p2169
aS'Laguna'
p2170
aaa(lp2171
S'JILL'
p2172
a(lp2173
S'Unhunh'
p2174
aaa(lp2175
S'JEFF'
p2176
a(lp2177
S'And'
p2178
aaa(lp2179
g2176
a(lp2180
S'we'
p2181
aS'just'
p2182
aaa(lp2183
g2176
a(lp2184
S'we'
p2185
aS'just'
p2186
aS'got'
p2187
aS'in'
p2188
aS'one'
p2189
aS'of'
p2190
aS'those'
p2191
aS'conversations'
p2192
aS'where'
p2193
aaa(lp2194
g2176
a(lp2195
S'you'
p2196
aS'just'
p2197
aS'talk'
p2198
aS'about'
p2199
aS'everything'
p2200
aaa(lp2201
S'JILL'
p2202
a(lp2203
S'Unhunh'
p2204
aaa(lp2205
S'JEFF'
p2206
a(lp2207
S'Like'
p2208
aaa(lp2209
g2206
a(lp2210
S'like'
p2211
aS'real'
p2212
aS'political'
p2213
aaa(lp2214
g2206
a(lp2215
S'and'
p2216
aaa(lp2217
g2206
a(lp2218
S'and'
p2219
aaa(lp2220
g2206
a(lp2221
S'everything'
p2222
aS'from'
p2223
aS'Norm'
p2224
aaa(lp2225
g2206
a(lp2226
S'um'
p2227
aaa(lp2228
g2206
a(lp2229
S'PAR'
p2230
aS'Norm'
p2231
aS'Nixon'
p2232
aaa(lp2233
g2206
a(lp2234
S'thats'
p2235
ag78
aS'basketball'
p2236
aS'player'
p2237
aS'PAR'
p2238
aaa(lp2239
S'JILL'
p2240
a(lp2241
aa(lp2242
S'JEFF'
p2243
a(lp2244
g33
aS'said'
p2245
aS'Norm'
p2246
aaa(lp2247
g2243
a(lp2248
S'instead'
p2249
aS'of'
p2250
aS'like'
p2251
aS'President'
p2252
aS'Nixon'
p2253
aaa(lp2254
S'JILL'
p2255
a(lp2256
S'Oh'
p2257
aS'right'
p2258
aaa(lp2259
S'JEFF'
p2260
a(lp2261
S'Yeah'
p2262
aaa(lp2263
S'JILL'
p2264
a(lp2265
aa(lp2266
S'JEFF'
p2267
a(lp2268
S'from'
p2269
aS'Nixon'
p2270
aaa(lp2271
g2267
a(lp2272
S'to'
p2273
aS'like'
p2274
aS'Rush'
p2275
aS'Limbaugh'
p2276
aaa(lp2277
g2267
a(lp2278
S'to'
p2279
aS'abortion'
p2280
aaa(lp2281
g2267
a(lp2282
S'to'
p2283
aS'capital'
p2284
aS'punishment'
p2285
aaa(lp2286
S'JILL'
p2287
a(lp2288
S'Whoa'
p2289
aaa(lp2290
S'JEFF'
p2291
a(lp2292
S'Like'
p2293
aaa(lp2294
g2291
a(lp2295
S'yeah'
p2296
aaa(lp2297
g2291
a(lp2298
S'you'
p2299
aS'know'
p2300
aS'what'
p2301
aaa(lp2302
g2291
a(lp2303
S'and'
p2304
ag360
aS'its'
p2305
ag360
aS'so'
p2306
aS'funny'
p2307
aaa(lp2308
g2291
a(lp2309
S'cause'
p2310
aS'hes'
p2311
aaa(lp2312
g2291
a(lp2313
S'hes'
p2314
ag78
aS'Catholic'
p2315
aaa(lp2316
g2291
a(lp2317
S'and'
p2318
aaa(lp2319
g2291
a(lp2320
S'you'
p2321
aS'know'
p2322
aaa(lp2323
g2291
a(lp2324
S'like'
p2325
ag33
aS'nailed'
p2326
aS'him'
p2327
aS'on'
p2328
aS'the'
p2329
aS'contradiction'
p2330
ag360
aS'you'
p2331
aS'know'
p2332
ag360
aaa(lp2333
g2291
a(lp2334
S'hes'
p2335
aS'like'
p2336
aS'procapital'
p2337
aS'punishment'
p2338
aaa(lp2339
g2291
a(lp2340
S'but'
p2341
aaa(lp2342
g2291
a(lp2343
S'and'
p2344
aS'prolife'
p2345
aaa(lp2346
S'JILL'
p2347
a(lp2348
S'Unhunh'
p2349
aaa(lp2350
S'JEFF'
p2351
a(lp2352
g33
aS'said'
p2353
aS'try'
p2354
aS'to'
p2355
aS'explain'
p2356
aS'that'
p2357
aS'to'
p2358
aS'me'
p2359
aaa(lp2360
g2351
a(lp2361
g33
aS'dont'
p2362
aS'understand'
p2363
aaa(lp2364
S'JILL'
p2365
a(lp2366
S'Wait'
p2367
aaa(lp2368
g2365
a(lp2369
S'he'
p2370
aS'said'
p2371
aS'hes'
p2372
aS'procapital'
p2373
aS'punishment'
p2374
aaa(lp2375
S'JEFF'
p2376
a(lp2377
S'and'
p2378
aS'prolife'
p2379
aaa(lp2380
S'JILL'
p2381
a(lp2382
S'and'
p2383
aS'prolife'
p2384
aaa(lp2385
g2381
a(lp2386
S'Right'
p2387
aaa(lp2388
S'JEFF'
p2389
a(lp2390
S'Thats'
p2391
aS'like'
p2392
aaa(lp2393
g2389
a(lp2394
S'to'
p2395
aS'me'
p2396
aS'thats'
p2397
aS'like'
p2398
ag78
aS'huge'
p2399
aS'contradiction'
p2400
aaa(lp2401
g2389
a(lp2402
S'And'
p2403
aaa(lp2404
g2389
a(lp2405
S'he'
p2406
aS'said'
p2407
aaa(lp2408
S'JILL'
p2409
a(lp2410
g836
aaa(lp2411
S'JEFF'
p2412
a(lp2413
S'he'
p2414
ag653
aS'he'
p2415
aS'justified'
p2416
aS'it'
p2417
aS'as'
p2418
aaa(lp2419
g2412
a(lp2420
S'well'
p2421
aS'see'
p2422
aS'the'
p2423
aaa(lp2424
g2412
a(lp2425
S'th'
p2426
aS'those'
p2427
aS'little'
p2428
aS'en'
p2429
aaa(lp2430
g2412
a(lp2431
S'the'
p2432
aS'little'
p2433
aaa(lp2434
g2412
a(lp2435
S'um'
p2436
aaa(lp2437
g2412
a(lp2438
S'embryos'
p2439
aaa(lp2440
g2412
a(lp2441
S'They'
p2442
aS'dont'
p2443
aS'have'
p2444
ag78
aS'decis'
p2445
aaa(lp2446
g2412
a(lp2447
S'They'
p2448
aS'cant'
p2449
aS'make'
p2450
ag78
aS'decision'
p2451
aaa(lp2452
g2412
a(lp2453
S'You'
p2454
aS'know'
p2455
aaa(lp2456
g2412
a(lp2457
S'and'
p2458
aS'theyre'
p2459
aS'gonna'
p2460
aS'die'
p2461
aaa(lp2462
S'JILL'
p2463
a(lp2464
S'This'
p2465
aS'is'
p2466
aS'what'
p2467
aS'he'
p2468
aS'was'
p2469
aS'saying'
p2470
aaa(lp2471
S'JEFF'
p2472
a(lp2473
S'Yeah'
p2474
aaa(lp2475
g2472
a(lp2476
S'and'
p2477
aS'he'
p2478
aS'said'
p2479
aS'that'
p2480
aaa(lp2481
g2472
a(lp2482
S'you'
p2483
aS'know'
p2484
aaa(lp2485
g2472
a(lp2486
S'people'
p2487
aS'who'
p2488
aS'commit'
p2489
aS'crimes'
p2490
aaa(lp2491
g2472
a(lp2492
S'you'
p2493
aS'know'
p2494
aaa(lp2495
g2472
a(lp2496
S'that'
p2497
aS'calls'
p2498
aS'for'
p2499
aS'the'
p2500
aS'death'
p2501
aS'penalty'
p2502
aaa(lp2503
g2472
a(lp2504
S'they'
p2505
aS'brought'
p2506
aS'it'
p2507
aS'upon'
p2508
aS'themselves'
p2509
aaa(lp2510
S'JILL'
p2511
a(lp2512
S'Oh'
p2513
aS'wait'
p2514
aaa(lp2515
g2511
a(lp2516
S'Jeff'
p2517
aaa(lp2518
g2511
a(lp2519
S'can'
p2520
aS'you'
p2521
aS'hang'
p2522
aS'on'
p2523
aS'just'
p2524
ag78
aS'sec'
p2525
aaa(lp2526
S'JEFF'
p2527
a(lp2528
S'Yes'
p2529
aaa(lp2530
S'JILL'
p2531
a(lp2532
S'What'
p2533
aS'did'
p2534
aS'you'
p2535
aS'say'
p2536
aaa(lp2537
S'JILL_S'
p2538
a(lp2539
g360
aS'Im'
p2540
aS'gonna'
p2541
aS'go'
p2542
aS'over'
p2543
aS'there'
p2544
ag360
aaa(lp2545
S'JILL'
p2546
a(lp2547
S'Oh'
p2548
aS'you'
p2549
aS'are'
p2550
aaa(lp2551
g2546
a(lp2552
S'Okay'
p2553
aaa(lp2554
S'JILL_S'
p2555
a(lp2556
S'Yeah'
p2557
aaa(lp2558
S'JILL'
p2559
a(lp2560
S'Okay'
p2561
aaa(lp2562
g2559
a(lp2563
S'Ill'
p2564
aS'come'
p2565
aS'over'
p2566
aaa(lp2567
g2559
a(lp2568
S'Um'
p2569
aaa(lp2570
S'JEFF'
p2571
a(lp2572
S'Wheres'
p2573
aS'Jill'
p2574
aS'going'
p2575
aaa(lp2576
S'JILL'
p2577
a(lp2578
S'Shes'
p2579
aS'going'
p2580
aS'next'
p2581
aS'door'
p2582
aaa(lp2583
S'JEFF'
p2584
a(lp2585
S'Who'
p2586
aaa(lp2587
S'JILL'
p2588
a(lp2589
S'To'
p2590
aS'Robbys'
p2591
aaa(lp2592
S'JEFF'
p2593
a(lp2594
S'Oh'
p2595
aaa(lp2596
S'JILL'
p2597
a(lp2598
S'Uh'
p2599
aaa(lp2600
S'JEFF'
p2601
a(lp2602
S'Has'
p2603
aS'she'
p2604
aS'been'
p2605
aS'clicking'
p2606
aS'with'
p2607
aS'your'
p2608
aS'friends'
p2609
aaa(lp2610
S'JILL'
p2611
a(lp2612
S'Its'
p2613
aS'right'
p2614
aS'there'
p2615
aaa(lp2616
g2611
a(lp2617
S'Yeah'
p2618
aS'were'
p2619
aS'gonna'
p2620
aS'go'
p2621
aS'hang'
p2622
aS'out'
p2623
aS'there'
p2624
aaa(lp2625
S'JEFF'
p2626
a(lp2627
S'With'
p2628
aS'who'
p2629
aS'wh'
p2630
aS'who'
p2631
aaa(lp2632
S'JILL'
p2633
a(lp2634
S'Were'
p2635
aS'gonna'
p2636
aS'go'
p2637
aS'hang'
p2638
aS'out'
p2639
aS'next'
p2640
aS'door'
p2641
aaa(lp2642
g2633
a(lp2643
S'at'
p2644
aS'Robbys'
p2645
aaa(lp2646
g2633
a(lp2647
S'Hes'
p2648
aS'having'
p2649
aS'some'
p2650
aS'people'
p2651
aS'over'
p2652
aaa(lp2653
S'JEFF'
p2654
a(lp2655
S'Oh'
p2656
aS'Robby'
p2657
aaa(lp2658
g2654
a(lp2659
S'with'
p2660
aS'the'
p2661
aS'kitty'
p2662
aaa(lp2663
S'JILL'
p2664
a(lp2665
S'Right'
p2666
aaa(lp2667
g2664
a(lp2668
S'Robby'
p2669
aS'with'
p2670
aS'the'
p2671
aS'kitty'
p2672
aaa(lp2673
S'JEFF'
p2674
a(lp2675
S'Has'
p2676
aS'Jill'
p2677
aS'been'
p2678
aaa(lp2679
S'JILL'
p2680
a(lp2681
aa(lp2682
g2680
a(lp2683
S'My'
p2684
aS'sweatshirt'
p2685
aaa(lp2686
g2680
a(lp2687
S'My'
p2688
aS'sweatshirt'
p2689
aaa(lp2690
g2680
a(lp2691
g33
aS'put'
p2692
aS'it'
p2693
aS'back'
p2694
aS'in'
p2695
aS'the'
p2696
aS'closet'
p2697
aaa(lp2698
g2680
a(lp2699
g836
aaa(lp2700
S'JEFF'
p2701
a(lp2702
S'Has'
p2703
aS'Jill'
p2704
aS'been'
p2705
aS'digging'
p2706
aS'your'
p2707
aS'friends'
p2708
aaa(lp2709
S'JILL'
p2710
a(lp2711
S'Unhunh'
p2712
aaa(lp2713
g2710
a(lp2714
S'Yeah'
p2715
aaa(lp2716
g2710
a(lp2717
S'We'
p2718
aS'spent'
p2719
aS'some'
p2720
aS'ti'
p2721
aaa(lp2722
g2710
a(lp2723
S'Its'
p2724
aS'up'
p2725
aS'on'
p2726
aS'the'
p2727
aaa(lp2728
g2710
a(lp2729
S'up'
p2730
aS'folded'
p2731
aaa(lp2732
g2710
a(lp2733
S'up'
p2734
aS'there'
p2735
aS'high'
p2736
aaa(lp2737
g2710
a(lp2738
S'Yup'
p2739
aaa(lp2740
g2710
a(lp2741
S'Um'
p2742
aaa(lp2743
g2710
a(lp2744
S'Okay'
p2745
aS'so'
p2746
aS'uh'
p2747
aaa(lp2748
S'JEFF'
p2749
a(lp2750
g360
aS'You'
p2751
aS'cant'
p2752
aS'talk'
p2753
aS'to'
p2754
aS'both'
p2755
aS'of'
p2756
aS'us'
p2757
aS'at'
p2758
aS'the'
p2759
aS'same'
p2760
aS'time'
p2761
aaa(lp2762
S'JILL'
p2763
a(lp2764
S'Okay'
p2765
aaa(lp2766
g2763
a(lp2767
S'Ill'
p2768
aS'come'
p2769
aS'next'
p2770
aS'door'
p2771
aaa(lp2772
g2763
a(lp2773
S'Jillys'
p2774
aS'going'
p2775
aS'next'
p2776
aS'door'
p2777
aaa(lp2778
S'JEFF'
p2779
a(lp2780
S'Bye'
p2781
aS'Jill'
p2782
aaa(lp2783
S'JILL_S'
p2784
a(lp2785
S'Bye'
p2786
aS'Jeff'
p2787
aaa(lp2788
S'JILL'
p2789
a(lp2790
S'She'
p2791
aS'says'
p2792
aS'bye'
p2793
aaa(lp2794
g2789
a(lp2795
S'Um'
p2796
aaa(lp2797
g2789
a(lp2798
S'yeah'
p2799
aaa(lp2800
g2789
a(lp2801
S'She'
p2802
aS'um'
p2803
aaa(lp2804
g2789
a(lp2805
S'we'
p2806
aS'hung'
p2807
aS'out'
p2808
aS'with'
p2809
aS'Donna'
p2810
aaa(lp2811
g2789
a(lp2812
S'and'
p2813
aS'they'
p2814
aS'hit'
p2815
aS'it'
p2816
aS'off'
p2817
aaa(lp2818
g2789
a(lp2819
S'And'
p2820
aaa(lp2821
g2789
a(lp2822
S'we'
p2823
aS'went'
p2824
aS'out'
p2825
aS'to'
p2826
aS'dinner'
p2827
aS'with'
p2828
aS'Joy'
p2829
aS'tonight'
p2830
aaa(lp2831
g2789
a(lp2832
S'and'
p2833
aS'shes'
p2834
aS'met'
p2835
aS'everybody'
p2836
aaa(lp2837
S'JEFF'
p2838
a(lp2839
S'Great'
p2840
aaa(lp2841
S'JILL'
p2842
a(lp2843
S'Yeah'
p2844
aaa(lp2845
S'JEFF'
p2846
a(lp2847
S'How'
p2848
aS'does'
p2849
aS'um'
p2850
aaa(lp2851
g2846
a(lp2852
S'Hows'
p2853
aS'Jill'
p2854
aaa(lp2855
g2846
a(lp2856
S'Hows'
p2857
aS'her'
p2858
aS'state'
p2859
aS'of'
p2860
aS'mind'
p2861
aaa(lp2862
g2846
a(lp2863
S'Does'
p2864
aS'she'
p2865
aS'seem'
p2866
aS'at'
p2867
aS'peace'
p2868
aS'with'
p2869
aS'herself'
p2870
aaa(lp2871
S'JILL'
p2872
a(lp2873
aa(lp2874
S'JEFF'
p2875
a(lp2876
S'She'
p2877
aS'happy'
p2878
aaa(lp2879
S'JILL'
p2880
a(lp2881
S'Unhunh'
p2882
aaa(lp2883
g2880
a(lp2884
S'Oh'
p2885
aS'yeah'
p2886
aaa(lp2887
S'JEFF'
p2888
a(lp2889
S'Yeah'
p2890
aaa(lp2891
S'JILL'
p2892
a(lp2893
S'She'
p2894
aS'seems'
p2895
aS'really'
p2896
aS'good'
p2897
aaa(lp2898
S'JEFF'
p2899
a(lp2900
S'Yeah'
p2901
aaa(lp2902
S'JILL'
p2903
a(lp2904
S'Unhunh'
p2905
aaa(lp2906
S'JEFF'
p2907
a(lp2908
S'Okay'
p2909
aS'now'
p2910
aaa(lp2911
g2907
a(lp2912
S'tell'
p2913
aS'me'
p2914
aS'the'
p2915
aS'stuff'
p2916
aS'that'
p2917
aS'she'
p2918
aS'doesnt'
p2919
aS'want'
p2920
aS'you'
p2921
aS'to'
p2922
aS'tell'
p2923
aS'me'
p2924
aaa(lp2925
S'JILL'
p2926
a(lp2927
aa(lp2928
S'JEFF'
p2929
a(lp2930
S'Now'
p2931
aS'that'
p2932
aS'shes'
p2933
aS'gone'
p2934
aaa(lp2935
S'JILL'
p2936
a(lp2937
S'Nows'
p2938
aS'the'
p2939
aS'chance'
p2940
aaa(lp2941
S'JEFF'
p2942
a(lp2943
S'Yeah'
p2944
aS'because'
p2945
aaa(lp2946
g2942
a(lp2947
g717
aS'remember'
p2948
aaa(lp2949
g2942
a(lp2950
S'youre'
p2951
aS'my'
p2952
aS'girlfriend'
p2953
aaa(lp2954
g2942
a(lp2955
S'before'
p2956
aS'youre'
p2957
aS'her'
p2958
aS'friend'
p2959
aaa(lp2960
S'JILL'
p2961
a(lp2962
S'Jeff'
p2963
aaa(lp2964
S'JEFF'
p2965
a(lp2966
aa(lp2967
S'JILL'
p2968
a(lp2969
aa(lp2970
S'JEFF'
p2971
a(lp2972
aa(lp2973
S'JILL'
p2974
a(lp2975
S'Oh'
p2976
aaa(lp2977
S'JEFF'
p2978
a(lp2979
aa(lp2980
S'JILL'
p2981
a(lp2982
S'Oh'
p2983
aS'sweetie'
p2984
aaa(lp2985
S'JEFF'
p2986
a(lp2987
S'Remember'
p2988
aaa(lp2989
S'JILL'
p2990
a(lp2991
aa(lp2992
S'JEFF'
p2993
a(lp2994
S'youre'
p2995
aS'gonna'
p2996
aS'spend'
p2997
aS'the'
p2998
aS'rest'
p2999
aS'of'
p3000
aS'your'
p3001
aS'life'
p3002
aS'with'
p3003
aS'me'
p3004
aaa(lp3005
S'JILL'
p3006
a(lp3007
aa(lp3008
S'JEFF'
p3009
a(lp3010
S'Im'
p3011
aS'your'
p3012
aS'partner'
p3013
ag360
aS'honey'
p3014
ag360
aaa(lp3015
S'JILL'
p3016
a(lp3017
aa(lp3018
g3016
a(lp3019
S'Oh'
p3020
aS'Jeff'
p3021
aaa(lp3022
S'JEFF'
p3023
a(lp3024
g33
aS'know'
p3025
aS'theres'
p3026
aS'stuff'
p3027
aS'that'
p3028
aS'she'
p3029
aaa(lp3030
g3023
a(lp3031
S'that'
p3032
aS'you'
p3033
aS'wont'
p3034
aS'tell'
p3035
aS'me'
p3036
aaa(lp3037
S'JILL'
p3038
a(lp3039
aa(lp3040
S'JEFF'
p3041
a(lp3042
S'And'
p3043
aaa(lp3044
S'JILL'
p3045
a(lp3046
S'Oh'
p3047
aS'Jeff'
p3048
aaa(lp3049
S'JEFF'
p3050
a(lp3051
S'go'
p3052
aS'ahead'
p3053
aaa(lp3054
S'JILL'
p3055
a(lp3056
S'No'
p3057
aaa(lp3058
S'JEFF'
p3059
a(lp3060
S'XXX'
p3061
aaa(lp3062
S'JILL'
p3063
a(lp3064
S'nothing'
p3065
aaa(lp3066
g3063
a(lp3067
S'Theres'
p3068
aaa(lp3069
S'JEFF'
p3070
a(lp3071
S'Then'
p3072
aS'let'
p3073
aS'it'
p3074
aS'out'
p3075
aS'honey'
p3076
aaa(lp3077
S'JILL'
p3078
a(lp3079
aa(lp3080
S'JEFF'
p3081
a(lp3082
S'VOX'
p3083
aS'Come'
p3084
aS'on'
p3085
aS'sweetie'
p3086
aaa(lp3087
S'JILL'
p3088
a(lp3089
aa(lp3090
S'JEFF'
p3091
a(lp3092
S'Come'
p3093
aS'on'
p3094
aS'honey'
p3095
aaa(lp3096
S'JILL'
p3097
a(lp3098
aa(lp3099
S'JEFF'
p3100
a(lp3101
S'Let'
p3102
aS'it'
p3103
aS'out'
p3104
aS'like'
p3105
ag78
aS'good'
p3106
aS'girl'
p3107
aaa(lp3108
S'JILL'
p3109
a(lp3110
aa(lp3111
S'JEFF'
p3112
a(lp3113
S'Like'
p3114
ag78
aS'good'
p3115
aS'girl'
p3116
aS'VOX'
p3117
aaa(lp3118
S'JILL'
p3119
a(lp3120
aa(lp3121
S'JEFF'
p3122
a(lp3123
aa(lp3124
S'JILL'
p3125
a(lp3126
S'Jeff'
p3127
aaa(lp3128
S'JEFF'
p3129
a(lp3130
aa(lp3131
S'JILL'
p3132
a(lp3133
S'oh'
p3134
aaa(lp3135
g3132
a(lp3136
S'no'
p3137
ag33
aS'wont'
p3138
aaa(lp3139
S'JEFF'
p3140
a(lp3141
S'Youre'
p3142
aS'such'
p3143
ag78
aS'little'
p3144
aS'giggly'
p3145
aS'monster'
p3146
aaa(lp3147
S'JILL'
p3148
a(lp3149
aa(lp3150
S'JEFF'
p3151
a(lp3152
aa(lp3153
g3151
a(lp3154
S'Y'
p3155
aaa(lp3156
S'JILL'
p3157
a(lp3158
S'Just'
p3159
aS'when'
p3160
ag33
aS'talk'
p3161
aS'to'
p3162
aS'you'
p3163
aaa(lp3164
S'JEFF'
p3165
a(lp3166
aa(lp3167
S'JILL'
p3168
a(lp3169
aa(lp3170
S'JEFF'
p3171
a(lp3172
S'You'
p3173
aS'just'
p3174
aaa(lp3175
g3171
a(lp3176
S'ne_you'
p3177
aS'need'
p3178
aS'to'
p3179
aS'be'
p3180
aS'cuddled'
p3181
aaa(lp3182
S'JILL'
p3183
a(lp3184
S'Aw'
p3185
aaa(lp3186
S'JEFF'
p3187
a(lp3188
S'You'
p3189
aS'need'
p3190
aS'to'
p3191
aS'be'
p3192
aS'squeezed'
p3193
aaa(lp3194
g3187
a(lp3195
S'and'
p3196
aS'caressed'
p3197
aaa(lp3198
g3187
a(lp3199
S'and'
p3200
aS'loved'
p3201
aaa(lp3202
S'JILL'
p3203
a(lp3204
aa(lp3205
g3203
a(lp3206
S'Aw'
p3207
aaa(lp3208
g3203
a(lp3209
g33
aS'miss'
p3210
aS'you'
p3211
aaa(lp3212
S'JEFF'
p3213
a(lp3214
S'You'
p3215
aS'do'
p3216
aaa(lp3217
S'JILL'
p3218
a(lp3219
S'Yes'
p3220
aaa(lp3221
S'JEFF'
p3222
a(lp3223
S'Aw'
p3224
aaa(lp3225
g3222
a(lp3226
g33
aS'miss'
p3227
aS'you'
p3228
aS'too'
p3229
aaa(lp3230
S'JILL'
p3231
a(lp3232
g836
aaa(lp3233
S'JEFF'
p3234
a(lp3235
S'Know'
p3236
aS'what'
p3237
aS'Robs'
p3238
aS'doing'
p3239
aaa(lp3240
S'JILL'
p3241
a(lp3242
S'What'
p3243
aaa(lp3244
S'JEFF'
p3245
a(lp3246
S'decided'
p3247
aS'that'
p3248
aS'he'
p3249
aS'just'
p3250
aS'needed'
p3251
ag78
aS'vacation'
p3252
aS'or'
p3253
aS'something'
p3254
aaa(lp3255
S'JILL'
p3256
a(lp3257
S'Unhunh'
p3258
aaa(lp3259
S'JEFF'
p3260
a(lp3261
S'So'
p3262
aaa(lp3263
g3260
a(lp3264
S'he'
p3265
aS'took'
p3266
aS'off'
p3267
aS'for'
p3268
aS'Big'
p3269
aS'Bear'
p3270
aaa(lp3271
S'JILL'
p3272
a(lp3273
S'Youre'
p3274
aS'kidding'
p3275
aaa(lp3276
S'JEFF'
p3277
a(lp3278
S'Had'
p3279
aS'no'
p3280
aS'idea'
p3281
aS'where'
p3282
aS'he'
p3283
aS'was'
p3284
aS'going'
p3285
aaa(lp3286
g3277
a(lp3287
S'he'
p3288
aS'just'
p3289
aS'took'
p3290
aaa(lp3291
S'JILL'
p3292
a(lp3293
S'All'
p3294
aS'by'
p3295
aS'himself'
p3296
aaa(lp3297
S'JEFF'
p3298
a(lp3299
S'All'
p3300
aS'by'
p3301
aS'himself'
p3302
aaa(lp3303
g3298
a(lp3304
S'and'
p3305
aaa(lp3306
g3298
a(lp3307
S'he'
p3308
aS'found'
p3309
ag78
aS'cabin'
p3310
aaa(lp3311
g3298
a(lp3312
S'he'
p3313
aS'called'
p3314
aS'me'
p3315
aaa(lp3316
S'JILL'
p3317
a(lp3318
S'Mhm'
p3319
aaa(lp3320
S'JEFF'
p3321
a(lp3322
S'He'
p3323
aS'found'
p3324
ag78
aS'cabin'
p3325
aaa(lp3326
g3321
a(lp3327
S'like'
p3328
aS'overlooking'
p3329
aaa(lp3330
g3321
a(lp3331
S'um'
p3332
aaa(lp3333
g3321
a(lp3334
S'Big'
p3335
aS'Bear'
p3336
aS'Lake'
p3337
aaa(lp3338
S'JILL'
p3339
a(lp3340
S'Youre'
p3341
aS'kidding'
p3342
aaa(lp3343
S'JEFF'
p3344
a(lp3345
S'And'
p3346
aaa(lp3347
g3344
a(lp3348
S'its'
p3349
aS'like'
p3350
aaa(lp3351
g3344
a(lp3352
S'just'
p3353
aS'the'
p3354
aS'cabin'
p3355
aS'with'
p3356
aS'like'
p3357
aaa(lp3358
g3344
a(lp3359
S'four'
p3360
aS'beds'
p3361
aS'in'
p3362
aS'it'
p3363
aaa(lp3364
g3344
a(lp3365
S'But'
p3366
aaa(lp3367
g3344
a(lp3368
S'you'
p3369
aS'know'
p3370
aaa(lp3371
g3344
a(lp3372
S'cause'
p3373
aS'nobodys'
p3374
aS'up'
p3375
aS'there'
p3376
aS'now'
p3377
aaa(lp3378
S'JILL'
p3379
a(lp3380
S'Unhunh'
p3381
aaa(lp3382
S'JEFF'
p3383
a(lp3384
S'So'
p3385
aS'he'
p3386
aS'got'
p3387
aS'it'
p3388
aS'for'
p3389
aS'fiftyfive'
p3390
aS'bucks'
p3391
ag78
aS'night'
p3392
aaa(lp3393
g3383
a(lp3394
S'and'
p3395
aS'hes'
p3396
aS'staying'
p3397
aS'there'
p3398
aS'for'
p3399
ag78
aS'few'
p3400
aS'nights'
p3401
aaa(lp3402
g3383
a(lp3403
g360
aS'So'
p3404
ag360
aaa(lp3405
S'JILL'
p3406
a(lp3407
S'All'
p3408
aS'by'
p3409
aS'himself'
p3410
aaa(lp3411
S'JEFF'
p3412
a(lp3413
S'All'
p3414
aS'by'
p3415
aS'himself'
p3416
aaa(lp3417
g3412
a(lp3418
S'he'
p3419
aS'just'
p3420
aS'wants'
p3421
aS'to'
p3422
aS'be'
p3423
aS'up'
p3424
aS'in'
p3425
aS'the'
p3426
aS'mountains'
p3427
aaa(lp3428
g3412
a(lp3429
S'he'
p3430
aS'wants'
p3431
aS'to'
p3432
aS'write'
p3433
aaa(lp3434
g3412
a(lp3435
S'and'
p3436
aS'just'
p3437
aaa(lp3438
g3412
a(lp3439
S'you'
p3440
aS'know'
p3441
aaa(lp3442
g3412
a(lp3443
S'just'
p3444
aaa(lp3445
g3412
a(lp3446
S'you'
p3447
aS'know'
p3448
aaa(lp3449
g3412
a(lp3450
S'get'
p3451
aS'in'
p3452
aS'tune'
p3453
aS'with'
p3454
aS'him'
p3455
aS'with'
p3456
aS'himself'
p3457
aaa(lp3458
S'JILL'
p3459
a(lp3460
S'Wow'
p3461
aaa(lp3462
g3459
a(lp3463
S'did'
p3464
aS'he'
p3465
aS'want'
p3466
aS'you'
p3467
aS'to'
p3468
aS'go'
p3469
aS'with'
p3470
aS'him'
p3471
aaa(lp3472
S'JEFF'
p3473
a(lp3474
S'XX'
p3475
aaa(lp3476
g3473
a(lp3477
S'Oh'
p3478
aS'no'
p3479
aaa(lp3480
g3473
a(lp3481
g33
aS'couldnt'
p3482
aS'go'
p3483
aaa(lp3484
S'JILL'
p3485
a(lp3486
S'Oh'
p3487
aaa(lp3488
S'JEFF'
p3489
a(lp3490
S'Yeah'
p3491
ag33
aS'think'
p3492
aS'he'
p3493
aS'was'
p3494
aS'trying'
p3495
aS'to'
p3496
aS'get'
p3497
ag78
aS'girl'
p3498
aS'to'
p3499
aS'go'
p3500
aS'with'
p3501
aS'him'
p3502
aS'but'
p3503
aaa(lp3504
S'JILL'
p3505
a(lp3506
S'Oh'
p3507
aaa(lp3508
g3505
a(lp3509
S'but'
p3510
aS'that'
p3511
aS'fell'
p3512
aS'through'
p3513
aaa(lp3514
S'JEFF'
p3515
a(lp3516
aa(lp3517
g3515
a(lp3518
S'So'
p3519
aS'he'
p3520
aS'went'
p3521
aS'from'
p3522
aS'like'
p3523
aS'the'
p3524
aS'romantic'
p3525
aS'sexual'
p3526
aS'getaway'
p3527
aaa(lp3528
g3515
a(lp3529
S'to'
p3530
aaa(lp3531
S'JILL'
p3532
a(lp3533
aa(lp3534
S'JEFF'
p3535
a(lp3536
S'you'
p3537
aS'know'
p3538
aaa(lp3539
g3535
a(lp3540
g78
aS'soul'
p3541
aS'searching'
p3542
aS'deal'
p3543
aaa(lp3544
S'JILL'
p3545
a(lp3546
S'Right'
p3547
aaa(lp3548
S'JEFF'
p3549
a(lp3550
aa(lp3551
S'JILL'
p3552
a(lp3553
S'aw'
p3554
aaa(lp3555
g3552
a(lp3556
g33
aS'hope'
p3557
aS'hes'
p3558
aS'not'
p3559
aS'disappointed'
p3560
aaa(lp3561
S'JEFF'
p3562
a(lp3563
g33
aS'know'
p3564
aaa(lp3565
S'JILL'
p3566
a(lp3567
S'Oh'
p3568
aaa(lp3569
g3566
a(lp3570
S'no'
p3571
aaa(lp3572
S'JEFF'
p3573
a(lp3574
aa(lp3575
S'JILL'
p3576
a(lp3577
S'that'
p3578
aS'sounds'
p3579
aS'great'
p3580
aaa(lp3581
g3576
a(lp3582
g33
aS'mean'
p3583
aS'that'
p3584
aS'sounds'
p3585
aaa(lp3586
g3576
a(lp3587
S'You'
p3588
aS'know'
p3589
aaa(lp3590
S'JEFF'
p3591
a(lp3592
S'it'
p3593
aS'r'
p3594
aS'reminds'
p3595
aS'me'
p3596
aS'of'
p3597
aS'us'
p3598
aaa(lp3599
S'JILL'
p3600
a(lp3601
S'good'
p3602
aS'opportunity'
p3603
aaa(lp3604
g3600
a(lp3605
S'Mhm'
p3606
aaa(lp3607
g3600
a(lp3608
S'getting'
p3609
aS'away'
p3610
aS'like'
p3611
aS'that'
p3612
aaa(lp3613
S'JEFF'
p3614
a(lp3615
S'VOX'
p3616
aS'Lets'
p3617
aS'get'
p3618
aS'away'
p3619
aS'VOX'
p3620
aaa(lp3621
S'JILL'
p3622
a(lp3623
S'Id'
p3624
aS'love'
p3625
aS'to'
p3626
aaa(lp3627
g3622
a(lp3628
S'You'
p3629
aS'know'
p3630
ag33
aS'was'
p3631
aS'talking'
p3632
aS'to'
p3633
aS'HI'
p3634
aS'Keri'
p3635
aS'HI'
p3636
aS'tonight'
p3637
aaa(lp3638
g3622
a(lp3639
g33
aS'gave'
p3640
aS'Keri'
p3641
ag78
aS'call'
p3642
aaa(lp3643
g3622
a(lp3644
S'and'
p3645
aS'um'
p3646
aaa(lp3647
S'JEFF'
p3648
a(lp3649
S'Wow'
p3650
aaa(lp3651
g3648
a(lp3652
S'At'
p3653
aS'Michaels'
p3654
aaa(lp3655
S'JILL'
p3656
a(lp3657
S'Unhunh'
p3658
aaa(lp3659
g3656
a(lp3660
S'And'
p3661
aS'she'
p3662
aS'was'
p3663
aS'so'
p3664
aS'miserable'
p3665
aaa(lp3666
S'JEFF'
p3667
a(lp3668
S'Wow'
p3669
aaa(lp3670
S'JILL'
p3671
a(lp3672
S'cause'
p3673
aS'shes'
p3674
aS'studying'
p3675
aaa(lp3676
g3671
a(lp3677
S'But'
p3678
aS'she'
p3679
aS'only'
p3680
aS'has'
p3681
aS'two'
p3682
aS'weeks'
p3683
aS'left'
p3684
aaa(lp3685
S'JEFF'
p3686
a(lp3687
S'Wow'
p3688
aaa(lp3689
S'JILL'
p3690
a(lp3691
S'Only'
p3692
aS'two'
p3693
aS'weeks'
p3694
aS'left'
p3695
aaa(lp3696
g3690
a(lp3697
S'and'
p3698
aaa(lp3699
g3690
a(lp3700
g33
aS'was'
p3701
aS'just'
p3702
aS'thinking'
p3703
aaa(lp3704
g3690
a(lp3705
S'gosh'
p3706
aaa(lp3707
g3690
a(lp3708
S'and'
p3709
aS'then'
p3710
aS'she'
p3711
aS'has'
p3712
aS'off'
p3713
aaa(lp3714
g3690
a(lp3715
S'and'
p3716
aaa(lp3717
g3690
a(lp3718
S'she'
p3719
aS'has'
p3720
aS'vacation'
p3721
aaa(lp3722
g3690
a(lp3723
S'and'
p3724
aaa(lp3725
g3690
a(lp3726
S'h'
p3727
aaa(lp3728
g3690
a(lp3729
S'it'
p3730
aS'just'
p3731
aS'sounded'
p3732
aS'so'
p3733
aS'good'
p3734
aaa(lp3735
S'JEFF'
p3736
a(lp3737
S'Whats'
p3738
aS'she'
p3739
aaa(lp3740
g3736
a(lp3741
S'Oh'
p3742
aaa(lp3743
g3736
a(lp3744
S'She'
p3745
aS'must'
p3746
aS'be'
p3747
aS'so'
p3748
aS'excited'
p3749
aS'though'
p3750
aaa(lp3751
S'JILL'
p3752
a(lp3753
S'Well'
p3754
aS'she'
p3755
aS'sounded'
p3756
aS'really'
p3757
aS'bummed'
p3758
aaa(lp3759
g3752
a(lp3760
S'Actually'
p3761
aaa(lp3762
g3752
a(lp3763
S'just'
p3764
aS'cause'
p3765
aS'school'
p3766
aS'is'
p3767
aS'so'
p3768
aS'tough'
p3769
aS'right'
p3770
aS'now'
p3771
aaa(lp3772
S'JEFF'
p3773
a(lp3774
S'Unhunh'
p3775
aaa(lp3776
S'JILL'
p3777
a(lp3778
S'But'
p3779
aS'yeah'
p3780
aaa(lp3781
g3777
a(lp3782
S'only'
p3783
aS'two'
p3784
aS'more'
p3785
aS'weeks'
p3786
aaa(lp3787
S'JEFF'
p3788
a(lp3789
S'Thats'
p3790
ag78
aS'fast'
p3791
aS'medical'
p3792
aS'school'
p3793
aS'year'
p3794
aaa(lp3795
S'JILL'
p3796
a(lp3797
S'YWN'
p3798
aS'Unhunh'
p3799
aaa(lp3800
S'JEFF'
p3801
a(lp3802
S'Wow'
p3803
aaa(lp3804
g3801
a(lp3805
S'when'
p3806
aS'did'
p3807
aS'they'
p3808
aS'start'
p3809
aaa(lp3810
S'JILL'
p3811
a(lp3812
S'It'
p3813
aS'was'
p3814
aS'really'
p3815
aS'quick'
p3816
aS'YWN'
p3817
aaa(lp3818
g3811
a(lp3819
g33
aS'think'
p3820
aaa(lp3821
g3811
a(lp3822
S'um'
p3823
aaa(lp3824
g3811
a(lp3825
S'like'
p3826
aS'midAugust'
p3827
aaa(lp3828
S'JEFF'
p3829
a(lp3830
S'MidAugust'
p3831
aaa(lp3832
S'JILL'
p3833
a(lp3834
S'Yeah'
p3835
aaa(lp3836
g3833
a(lp3837
S'Or'
p3838
aS'maybe'
p3839
aS'mi'
p3840
aaa(lp3841
g3833
a(lp3842
S'maybe'
p3843
aS'the'
p3844
aS'beginning'
p3845
aS'of'
p3846
aS'August'
p3847
aaa(lp3848
g3833
a(lp3849
S'Maybe'
p3850
aS'the'
p3851
aS'beginning'
p3852
aaa(lp3853
S'JEFF'
p3854
a(lp3855
S'Wow'
p3856
aaa(lp3857
S'JILL'
p3858
a(lp3859
aa(lp3860
S'JEFF'
p3861
a(lp3862
S'Did'
p3863
aS'she'
p3864
aS'ask'
p3865
aS'you'
p3866
aS'about'
p3867
aS'what'
p3868
aS'you'
p3869
aS'thought'
p3870
aS'of'
p3871
aS'Michael'
p3872
aS'and'
p3873
aS'stuff'
p3874
aaa(lp3875
S'JILL'
p3876
a(lp3877
S'No'
p3878
aS'she'
p3879
aS'didnt'
p3880
aaa(lp3881
g3876
a(lp3882
S'we'
p3883
aS'didnt'
p3884
aS'talk'
p3885
aS'long'
p3886
aS'at'
p3887
aS'all'
p3888
aaa(lp3889
g3876
a(lp3890
S'she'
p3891
aS'had'
p3892
aS'to'
p3893
aS'go'
p3894
aaa(lp3895
g3876
a(lp3896
S'Like'
p3897
aS'she'
p3898
aS'was'
p3899
aS'in'
p3900
aS'the'
p3901
aS'middle'
p3902
aS'of'
p3903
aS'studying'
p3904
aaa(lp3905
S'JEFF'
p3906
a(lp3907
S'Oh'
p3908
aS'yeah'
p3909
aaa(lp3910
S'JILL'
p3911
a(lp3912
S'Like'
p3913
aS'she'
p3914
aS'was'
p3915
aS'serious'
p3916
aaa(lp3917
S'JEFF'
p3918
a(lp3919
S'Shes'
p3920
aS'serious'
p3921
aaa(lp3922
S'JILL'
p3923
a(lp3924
S'Yeah'
p3925
aaa(lp3926
g3923
a(lp3927
S'she'
p3928
aS'was'
p3929
aS'totally'
p3930
aS'serious'
p3931
aaa(lp3932
S'JEFF'
p3933
a(lp3934
S'Good'
p3935
aS'girl'
p3936
aaa(lp3937
S'JILL'
p3938
a(lp3939
S'Yeah'
p3940
aaa(lp3941
S'JEFF'
p3942
a(lp3943
S'Oh'
p3944
aS'honey'
p3945
aaa(lp3946
g3942
a(lp3947
g33
aS'miss'
p3948
aS'you'
p3949
aaa(lp3950
S'JILL'
p3951
a(lp3952
g33
aS'miss'
p3953
aS'you'
p3954
aS'too'
p3955
aaa(lp3956
S'JEFF'
p3957
a(lp3958
g33
aS'miss'
p3959
aS'looking'
p3960
aS'into'
p3961
aS'those'
p3962
aS'eyes'
p3963
aaa(lp3964
S'JILL'
p3965
a(lp3966
S'Aw'
p3967
aaa(lp3968
S'JEFF'
p3969
a(lp3970
S'and'
p3971
aS'smelling'
p3972
aS'those'
p3973
aS'thighs'
p3974
aaa(lp3975
S'JILL'
p3976
a(lp3977
aa(lp3978
S'JEFF'
p3979
a(lp3980
aa(lp3981
S'JILL'
p3982
a(lp3983
S'oh'
p3984
aaa(lp3985
S'JEFF'
p3986
a(lp3987
aa(lp3988
S'JILL'
p3989
a(lp3990
S'yeah'
p3991
ag33
aS'miss'
p3992
aS'you'
p3993
ag78
aS'lot'
p3994
aaa(lp3995
g3989
a(lp3996
S'Its'
p3997
aS'hard'
p3998
aaa(lp3999
g3989
a(lp4000
S'when'
p4001
aS'Jills'
p4002
aS'here'
p4003
aaa(lp4004
g3989
a(lp4005
S'we'
p4006
aS'talk'
p4007
aS'about'
p4008
aS'you'
p4009
aS'so'
p4010
aS'much'
p4011
aaa(lp4012
S'JEFF'
p4013
a(lp4014
S'No'
p4015
aS'you'
p4016
aS'dont'
p4017
aaa(lp4018
S'JILL'
p4019
a(lp4020
S'Yes'
p4021
aS'we'
p4022
aS'do'
p4023
aaa(lp4024
S'JEFF'
p4025
a(lp4026
S'Youre'
p4027
aS'just'
p4028
aS'saying'
p4029
aS'that'
p4030
aaa(lp4031
S'JILL'
p4032
a(lp4033
S'No'
p4034
aaa(lp4035
g4032
a(lp4036
g360
aS'We'
p4037
ag360
aaa(lp4038
S'JEFF'
p4039
a(lp4040
S'Are'
p4041
aS'you'
p4042
aS'serious'
p4043
aaa(lp4044
S'JILL'
p4045
a(lp4046
S'Unhunh'
p4047
aaa(lp4048
S'JEFF'
p4049
a(lp4050
S'Wait'
p4051
aaa(lp4052
g4049
a(lp4053
S'You'
p4054
aS'really'
p4055
aS'do'
p4056
aaa(lp4057
S'JILL'
p4058
a(lp4059
aa(lp4060
S'JEFF'
p4061
a(lp4062
S'No'
p4063
aaa(lp4064
g4061
a(lp4065
S'Real'
p4066
aaa(lp4067
S'JILL'
p4068
a(lp4069
S'Really'
p4070
aaa(lp4071
g4068
a(lp4072
S'We'
p4073
aS'do'
p4074
aaa(lp4075
g4068
a(lp4076
S'But'
p4077
aS'it'
p4078
aS'makes'
p4079
aS'me'
p4080
aS'miss'
p4081
aS'you'
p4082
aS'more'
p4083
aaa(lp4084
g4068
a(lp4085
S'You'
p4086
aS'know'
p4087
aaa(lp4088
S'JEFF'
p4089
a(lp4090
aa(lp4091
S'JILL'
p4092
a(lp4093
S'Just'
p4094
aaa(lp4095
S'JEFF'
p4096
a(lp4097
S'Do'
p4098
aS'you'
p4099
aS'guys'
p4100
aaa(lp4101
g4096
a(lp4102
S'Do'
p4103
aS'you'
p4104
aS'say'
p4105
aS'any'
p4106
aS'bad'
p4107
aS'things'
p4108
aS'about'
p4109
aS'me'
p4110
aaa(lp4111
S'JILL'
p4112
a(lp4113
S'No'
p4114
aaa(lp4115
g4112
a(lp4116
S'Us'
p4117
aaa(lp4118
S'JEFF'
p4119
a(lp4120
aa(lp4121
S'JILL'
p4122
a(lp4123
S'Who'
p4124
aaa(lp4125
g4122
a(lp4126
S'Us'
p4127
aaa(lp4128
S'JEFF'
p4129
a(lp4130
S'No'
p4131
aaa(lp4132
S'JILL'
p4133
a(lp4134
aa(lp4135
S'JEFF'
p4136
a(lp4137
S'thats'
p4138
ag78
aS'wrong'
p4139
aS'clow'
p4140
aS'crowd'
p4141
aaa(lp4142
g4136
a(lp4143
S'Hunh'
p4144
aaa(lp4145
S'JILL'
p4146
a(lp4147
aa(lp4148
S'JEFF'
p4149
a(lp4150
aa(lp4151
S'JILL'
p4152
a(lp4153
aa(lp4154
g4152
a(lp4155
S'Aw'
p4156
aaa(lp4157
S'JEFF'
p4158
a(lp4159
S'Well'
p4160
aaa(lp4161
g4158
a(lp4162
S'give'
p4163
aS'me'
p4164
aS'the'
p4165
aS'highlights'
p4166
aaa(lp4167
S'JILL'
p4168
a(lp4169
S'The'
p4170
aS'highlights'
p4171
aaa(lp4172
S'JEFF'
p4173
a(lp4174
S'Yeah'
p4175
aaa(lp4176
S'JILL'
p4177
a(lp4178
S'Of'
p4179
aS'what'
p4180
aS'we'
p4181
aS'talk'
p4182
aS'about'
p4183
aS'you'
p4184
aaa(lp4185
S'JEFF'
p4186
a(lp4187
S'Yeah'
p4188
aaa(lp4189
S'JILL'
p4190
a(lp4191
S'Um'
p4192
aaa(lp4193
g4190
a(lp4194
S'let'
p4195
aS'me'
p4196
aS'think'
p4197
aaa(lp4198
g4190
a(lp4199
S'let'
p4200
aS'me'
p4201
aS'think'
p4202
aS'of'
p4203
aS'some'
p4204
aS'good'
p4205
aS'ones'
p4206
aaa(lp4207
S'JEFF'
p4208
a(lp4209
S'Condense'
p4210
aS'it'
p4211
aS'down'
p4212
aS'to'
p4213
ag78
aS'minute'
p4214
aaa(lp4215
S'JILL'
p4216
a(lp4217
S'Okay'
p4218
aaa(lp4219
g4216
a(lp4220
S'we'
p4221
aS'said'
p4222
aS'something'
p4223
aS'so'
p4224
aS'funny'
p4225
aS'today'
p4226
aaa(lp4227
g4216
a(lp4228
S'And'
p4229
ag33
aS'thought'
p4230
aS'when'
p4231
aS'Jill'
p4232
aS'said'
p4233
aS'it'
p4234
aaa(lp4235
g4216
a(lp4236
S'it'
p4237
aS'captured'
p4238
aS'you'
p4239
aS'so'
p4240
aS'well'
p4241
aaa(lp4242
g4216
a(lp4243
S'and'
p4244
aS'we'
p4245
aS'both'
p4246
aS'laughed'
p4247
aaa(lp4248
g4216
a(lp4249
S'cause'
p4250
ag33
aS'think'
p4251
aaa(lp4252
g4216
a(lp4253
S'it'
p4254
aS'was'
p4255
aS'just'
p4256
aS'so'
p4257
aS'funny'
p4258
aS'how'
p4259
aS'well'
p4260
aS'we'
p4261
aS'both'
p4262
aS'know'
p4263
aS'you'
p4264
aaa(lp4265
g4216
a(lp4266
S'Um'
p4267
aaa(lp4268
g4216
a(lp4269
g33
aS'guess'
p4270
aS'we'
p4271
aS'were'
p4272
aS'talking'
p4273
aS'about'
p4274
aaa(lp4275
g4216
a(lp4276
g33
aS'dont'
p4277
aS'know'
p4278
aS'what'
p4279
aS'came'
p4280
aS'up'
p4281
aaa(lp4282
g4216
a(lp4283
S'we'
p4284
aS'were'
p4285
aS'talking'
p4286
aS'about'
p4287
aS'TV'
p4288
aaa(lp4289
g4216
a(lp4290
S'or'
p4291
aS'television'
p4292
aS'shows'
p4293
aaa(lp4294
g4216
a(lp4295
S'and'
p4296
ag33
aS'mentioned'
p4297
aaa(lp4298
g4216
a(lp4299
S'yeah'
p4300
aaa(lp4301
g4216
a(lp4302
S'you'
p4303
aS'really'
p4304
aaa(lp4305
g4216
a(lp4306
S'you'
p4307
aS'like'
p4308
aS'to'
p4309
aS'watch'
p4310
aS'MASH'
p4311
aaa(lp4312
S'JEFF'
p4313
a(lp4314
S'Mhm'
p4315
aaa(lp4316
S'JILL'
p4317
a(lp4318
S'And'
p4319
aaa(lp4320
g4317
a(lp4321
S'she'
p4322
aS'laughed'
p4323
aS'and'
p4324
aS'said'
p4325
aaa(lp4326
g4317
a(lp4327
S'yeah'
p4328
aaa(lp4329
g4317
a(lp4330
S'cant'
p4331
aS'you'
p4332
aS'just'
p4333
aS'picture'
p4334
aS'Jeff'
p4335
aaa(lp4336
g4317
a(lp4337
S'sitting'
p4338
aS'on'
p4339
aS'his'
p4340
aS'couch'
p4341
aaa(lp4342
g4317
a(lp4343
S'and'
p4344
aS'watching'
p4345
aS'MASH'
p4346
aaa(lp4347
g4317
a(lp4348
S'with'
p4349
aS'some'
p4350
aS'orange'
p4351
aS'juice'
p4352
aaa(lp4353
g4317
a(lp4354
S'with'
p4355
aS'ice'
p4356
aS'cubes'
p4357
aaa(lp4358
S'JEFF'
p4359
a(lp4360
aa(lp4361
S'JILL'
p4362
a(lp4363
S'And'
p4364
aS'we'
p4365
aS'started'
p4366
aS'laughing'
p4367
aaa(lp4368
g4362
a(lp4369
S'and'
p4370
aS'Jill'
p4371
aS'went'
p4372
aaa(lp4373
g4362
a(lp4374
S'thats'
p4375
aS'Jeffs'
p4376
aS'slice'
p4377
aS'of'
p4378
aS'heaven'
p4379
aaa(lp4380
g4362
a(lp4381
S'Like'
p4382
aS'little'
p4383
aS'piece'
p4384
aS'of'
p4385
aS'heaven'
p4386
aaa(lp4387
g4362
a(lp4388
S'And'
p4389
aS'we'
p4390
aS'just'
p4391
aS'thought'
p4392
aS'it'
p4393
aS'was'
p4394
aS'so'
p4395
aS'funny'
p4396
aaa(lp4397
S'JEFF'
p4398
a(lp4399
aa(lp4400
S'JILL'
p4401
a(lp4402
S'because'
p4403
aaa(lp4404
g4401
a(lp4405
S'like'
p4406
aaa(lp4407
g4401
a(lp4408
S'it'
p4409
aS'really'
p4410
aS'captured'
p4411
aS'you'
p4412
aaa(lp4413
S'JEFF'
p4414
a(lp4415
aa(lp4416
S'JILL'
p4417
a(lp4418
S'Like'
p4419
aaa(lp4420
g4417
a(lp4421
S'we'
p4422
aS'both'
p4423
aS'know'
p4424
aS'youd'
p4425
aS'be'
p4426
aS'sitting'
p4427
aS'there'
p4428
aS'with'
p4429
aS'orange'
p4430
aS'juice'
p4431
aS'with'
p4432
aS'ice'
p4433
aS'cubes'
p4434
aaa(lp4435
S'JEFF'
p4436
a(lp4437
S'Only'
p4438
aaa(lp4439
g4436
a(lp4440
g33
aS'havent'
p4441
aS'had'
p4442
aS'ice'
p4443
aS'cubes'
p4444
aS'here'
p4445
aS'since'
p4446
aS'September'
p4447
aaa(lp4448
S'JILL'
p4449
a(lp4450
S'Are'
p4451
aS'you'
p4452
aS'serious'
p4453
aaa(lp4454
S'JEFF'
p4455
a(lp4456
S'Yeah'
p4457
aS'because'
p4458
aaa(lp4459
g4455
a(lp4460
S'you'
p4461
aS'know'
p4462
aS'how'
p4463
aS'big'
p4464
aS't'
p4465
aS'thick'
p4466
aS'the'
p4467
aS'freezer'
p4468
aS'gets'
p4469
aaa(lp4470
S'JILL'
p4471
a(lp4472
S'Unhunh'
p4473
aaa(lp4474
S'JEFF'
p4475
a(lp4476
g33
aS'just'
p4477
aS'dont'
p4478
aS'even'
p4479
aS'bother'
p4480
aaa(lp4481
g4475
a(lp4482
g33
aS'just'
p4483
aS'keep'
p4484
aS'it'
p4485
aS'at'
p4486
ag78
aS'high'
p4487
aS'temperature'
p4488
aaa(lp4489
S'JILL'
p4490
a(lp4491
S'Unhunh'
p4492
aaa(lp4493
S'JEFF'
p4494
a(lp4495
g360
aS'or'
p4496
aS'Or'
p4497
ag360
aaa(lp4498
g4494
a(lp4499
g33
aS'keep'
p4500
aS'it'
p4501
aS'really'
p4502
aS'cool'
p4503
aaa(lp4504
g4494
a(lp4505
S'So'
p4506
aaa(lp4507
g4494
a(lp4508
S'its'
p4509
aS'cold'
p4510
aS'enough'
p4511
aS'for'
p4512
aS'me'
p4513
aaa(lp4514
S'JILL'
p4515
a(lp4516
S'Oh'
p4517
aaa(lp4518
S'JEFF'
p4519
a(lp4520
S'So'
p4521
aS'youre'
p4522
aS'absolutely'
p4523
aS'right'
p4524
aaa(lp4525
g4519
a(lp4526
g33
aS'drink'
p4527
aS'orange'
p4528
aS'juice'
p4529
aaa(lp4530
g4519
a(lp4531
S'but'
p4532
aaa(lp4533
g4519
a(lp4534
S'of'
p4535
aS'orange'
p4536
aS'juice'
p4537
aaa(lp4538
g4519
a(lp4539
S'every'
p4540
aS'two'
p4541
aS'days'
p4542
aaa(lp4543
S'JILL'
p4544
a(lp4545
S'Honey'
p4546
aaa(lp4547
S'JEFF'
p4548
a(lp4549
S'Impressive'
p4550
aaa(lp4551
g4548
a(lp4552
S'hunh'
p4553
aaa(lp4554
S'JILL'
p4555
a(lp4556
aa(lp4557
S'JEFF'
p4558
a(lp4559
aa(lp4560
g4558
a(lp4561
S'Aw'
p4562
aaa(lp4563
g4558
a(lp4564
S'the'
p4565
aS'old'
p4566
aS'lady'
p4567
aaa(lp4568
S'JILL'
p4569
a(lp4570
S'Oh'
p4571
aaa(lp4572
S'JEFF'
p4573
a(lp4574
S'She'
p4575
aS'just'
p4576
aS'looked'
p4577
aS'at'
p4578
aS'me'
p4579
aaa(lp4580
g4573
a(lp4581
S'and'
p4582
aS'then'
p4583
aaa(lp4584
g4573
a(lp4585
S'you'
p4586
aS'know'
p4587
aS'what'
p4588
ag33
aS'just'
p4589
aS'realized'
p4590
aaa(lp4591
S'JILL'
p4592
a(lp4593
S'WH'
p4594
aS'What'
p4595
aS'WH'
p4596
aaa(lp4597
S'JEFF'
p4598
a(lp4599
S'She'
p4600
aS'looked'
p4601
aS'at'
p4602
aS'me'
p4603
aaa(lp4604
g4598
a(lp4605
S'she'
p4606
aS'was'
p4607
aS'walking'
p4608
aS'down'
p4609
aS'the'
p4610
aS'stairs'
p4611
aaa(lp4612
S'JILL'
p4613
a(lp4614
S'Unhunh'
p4615
aaa(lp4616
S'JEFF'
p4617
a(lp4618
S'She'
p4619
aS'looked'
p4620
aS'at'
p4621
aS'me'
p4622
aaa(lp4623
g4617
a(lp4624
S'and'
p4625
aS'she'
p4626
ag653
aaa(lp4627
g4617
a(lp4628
S'she'
p4629
aS'didnt'
p4630
aS'see'
p4631
aS'me'
p4632
aaa(lp4633
S'JILL'
p4634
a(lp4635
S'Really'
p4636
aaa(lp4637
S'JEFF'
p4638
a(lp4639
S'Yeah'
p4640
aaa(lp4641
g4638
a(lp4642
g33
aS'waved'
p4643
aS'at'
p4644
aS'her'
p4645
aS'and'
p4646
aaa(lp4647
g4638
a(lp4648
S'she'
p4649
aS'just'
p4650
aS'kept'
p4651
aS'going'
p4652
aaa(lp4653
S'JILL'
p4654
a(lp4655
S'Maybe'
p4656
aS'um'
p4657
aaa(lp4658
g4654
a(lp4659
S'if'
p4660
aS'theres'
p4661
ag78
aS'reflection'
p4662
aS'or'
p4663
aS'something'
p4664
aaa(lp4665
S'JEFF'
p4666
a(lp4667
S'What'
p4668
ag78
aS'body'
p4669
aS'she'
p4670
aS'has'
p4671
aaa(lp4672
S'JILL'
p4673
a(lp4674
S'Isnt'
p4675
aS'that'
p4676
aS'incredible'
p4677
aaa(lp4678
g4673
a(lp4679
S'Are'
p4680
aS'our'
p4681
aS'bodies'
p4682
aS'gonna'
p4683
aS'do'
p4684
aS'that'
p4685
aaa(lp4686
S'JEFF'
p4687
a(lp4688
S'Its'
p4689
aS'like'
p4690
aaa(lp4691
g4687
a(lp4692
S'its'
p4693
aS'like'
p4694
aaa(lp4695
g4687
a(lp4696
S'shes'
p4697
aS'evolving'
p4698
aaa(lp4699
S'JILL'
p4700
a(lp4701
aa(lp4702
S'JEFF'
p4703
a(lp4704
S'You'
p4705
aS'know'
p4706
aS'like'
p4707
aaa(lp4708
g4703
a(lp4709
S'its'
p4710
aS'funny'
p4711
aaa(lp4712
S'JILL'
p4713
a(lp4714
S'Or'
p4715
aaa(lp4716
g4713
a(lp4717
S'degenerating'
p4718
aaa(lp4719
g4713
a(lp4720
S'No'
p4721
aaa(lp4722
S'JEFF'
p4723
a(lp4724
S'Degener'
p4725
aaa(lp4726
g4723
a(lp4727
S'Yeah'
p4728
aaa(lp4729
g4723
a(lp4730
S'Its'
p4731
aS'kinda'
p4732
aS'weird'
p4733
aaa(lp4734
S'JILL'
p4735
a(lp4736
aa(lp4737
S'JEFF'
p4738
a(lp4739
S'Hunh'
p4740
aaa(lp4741
S'JILL'
p4742
a(lp4743
S'Yeah'
p4744
aaa(lp4745
S'JEFF'
p4746
a(lp4747
S'The'
p4748
aS'whole'
p4749
aS'cycle'
p4750
aS'of'
p4751
aS'life'
p4752
aaa(lp4753
g4746
a(lp4754
S'What'
p4755
ag78
aS'fucking'
p4756
aS'trip'
p4757
aaa(lp4758
S'JILL'
p4759
a(lp4760
aa(lp4761
g4759
a(lp4762
g33
aS'know'
p4763
aaa(lp4764
S'JEFF'
p4765
a(lp4766
S'Oh'
p4767
aS'but'
p4768
aS'di'
p4769
aaa(lp4770
g4765
a(lp4771
g33
ag653
aaa(lp4772
g4765
a(lp4773
g33
aS'know'
p4774
aS'you'
p4775
aS'would'
p4776
aS'you'
p4777
aS'get'
p4778
aS'excited'
p4779
aS'about'
p4780
aS'things'
p4781
aS'like'
p4782
aS'this'
p4783
aS'too'
p4784
aaa(lp4785
g4765
a(lp4786
S'but'
p4787
aS'did'
p4788
aS'you'
p4789
aS'read'
p4790
aS'in'
p4791
aS'the'
p4792
aS'paper'
p4793
aaa(lp4794
g4765
a(lp4795
S'about'
p4796
aS'the'
p4797
aS'um'
p4798
aS'planets'
p4799
aaa(lp4800
g4765
a(lp4801
S'cir'
p4802
aS'circulating'
p4803
aS'around'
p4804
aS'other'
p4805
aS'stars'
p4806
aaa(lp4807
S'JILL'
p4808
a(lp4809
S'No'
p4810
aaa(lp4811
g4808
a(lp4812
S'what'
p4813
aS'about'
p4814
aS'them'
p4815
aaa(lp4816
S'JEFF'
p4817
a(lp4818
S'Theres'
p4819
aS'irr'
p4820
aaa(lp4821
g4817
a(lp4822
S'irreb'
p4823
aaa(lp4824
g4817
a(lp4825
S'irred'
p4826
aaa(lp4827
g4817
a(lp4828
S'Theres'
p4829
aS'proof'
p4830
aaa(lp4831
g4817
a(lp4832
S'Whats'
p4833
aS'the'
p4834
aaa(lp4835
g4817
a(lp4836
S'whats'
p4837
aS'the'
p4838
aS'word'
p4839
aS'that'
p4840
aS'goes'
p4841
aS'before'
p4842
aS'proof'
p4843
aaa(lp4844
S'JILL'
p4845
a(lp4846
S'Irrefutable'
p4847
aaa(lp4848
S'JEFF'
p4849
a(lp4850
S'Irrefutable'
p4851
aS'proof'
p4852
aaa(lp4853
S'JILL'
p4854
a(lp4855
S'Whats'
p4856
aS'the'
p4857
aS'word'
p4858
aS'that'
p4859
aS'goes'
p4860
aS'before'
p4861
aS'proof'
p4862
aaa(lp4863
S'JEFF'
p4864
a(lp4865
S'There'
p4866
aaa(lp4867
g4864
a(lp4868
S'thank'
p4869
aS'you'
p4870
aS'honey'
p4871
aaa(lp4872
g4864
a(lp4873
S'That'
p4874
aS'was'
p4875
aS'so'
p4876
aS'good'
p4877
aaa(lp4878
S'JILL'
p4879
a(lp4880
aa(lp4881
S'JEFF'
p4882
a(lp4883
S'What'
p4884
ag78
aS'good'
p4885
aS'team'
p4886
aS'we'
p4887
aS'are'
p4888
aaa(lp4889
S'JILL'
p4890
a(lp4891
aa(lp4892
S'JEFF'
p4893
a(lp4894
aa(lp4895
g4893
a(lp4896
g33
aS'could'
p4897
aS'just'
p4898
aS'see'
p4899
aS'myself'
p4900
aS'like'
p4901
aS'lecturing'
p4902
aS'to'
p4903
ag78
aS'bunch'
p4904
aS'of'
p4905
aS'people'
p4906
aS'and'
p4907
aaa(lp4908
g4893
a(lp4909
S'like'
p4910
aaa(lp4911
g4893
a(lp4912
S'oh'
p4913
aS'honey'
p4914
aaa(lp4915
g4893
a(lp4916
S'by'
p4917
aS'the'
p4918
aS'way'
p4919
aaa(lp4920
g4893
a(lp4921
S'Whats'
p4922
aS'that'
p4923
aS'word'
p4924
aS'that'
p4925
aaa(lp4926
S'JILL'
p4927
a(lp4928
aa(lp4929
g4927
a(lp4930
S'that'
p4931
aS'goes'
p4932
aS'before'
p4933
aS'honor'
p4934
aaa(lp4935
S'JEFF'
p4936
a(lp4937
S'MRC'
p4938
aS'irrefutable'
p4939
aS'MRC'
p4940
aS'Jeff'
p4941
aaa(lp4942
g4936
a(lp4943
S'Im'
p4944
aS'like'
p4945
aaa(lp4946
S'JILL'
p4947
a(lp4948
aa(lp4949
S'JEFF'
p4950
a(lp4951
S'Q'
p4952
aS'oh'
p4953
aS'yes'
p4954
aS'yes'
p4955
aS'yes'
p4956
aaa(lp4957
g4950
a(lp4958
S'thank'
p4959
aS'you'
p4960
aS'very'
p4961
aS'much'
p4962
aaa(lp4963
g4950
a(lp4964
S'What'
p4965
aS'would'
p4966
ag33
aS'be'
p4967
aS'without'
p4968
aS'her'
p4969
ag4952
aaa(lp4970
S'JILL'
p4971
a(lp4972
aa(lp4973
S'JEFF'
p4974
a(lp4975
aa(lp4976
S'JILL'
p4977
a(lp4978
aa(lp4979
S'JEFF'
p4980
a(lp4981
S'Um'
p4982
aaa(lp4983
g4980
a(lp4984
S'wouldnt'
p4985
aS'that'
p4986
aS'be'
p4987
aS'funny'
p4988
aaa(lp4989
S'JILL'
p4990
a(lp4991
aa(lp4992
g4990
a(lp4993
S'Yeah'
p4994
aaa(lp4995
S'JEFF'
p4996
a(lp4997
S'Aw'
p4998
aS'honey'
p4999
aaa(lp5000
g4996
a(lp5001
S'Wouldnt'
p5002
aS'that'
p5003
aS'be'
p5004
aS'funny'
p5005
aaa(lp5006
S'JILL'
p5007
a(lp5008
S'SM'
p5009
aS'That'
p5010
aS'would'
p5011
aS'be'
p5012
aS'SM'
p5013
aaa(lp5014
S'JEFF'
p5015
a(lp5016
S'Like'
p5017
aS'if'
p5018
aS'someone'
p5019
aS'was'
p5020
aS'lecturing'
p5021
aaa(lp5022
g5015
a(lp5023
S'And'
p5024
aS'they'
p5025
aS'said'
p5026
aaa(lp5027
g5015
a(lp5028
g360
aS'they'
p5029
aS'looked'
p5030
aS'at'
p5031
aS'you'
p5032
ag360
aaa(lp5033
S'JILL'
p5034
a(lp5035
aa(lp5036
S'JEFF'
p5037
a(lp5038
S'they'
p5039
aS'said'
p5040
aaa(lp5041
g5037
a(lp5042
g4952
aS'is'
p5043
aS'my'
p5044
aS'wife'
p5045
aS'here'
p5046
ag4952
aaa(lp5047
g5037
a(lp5048
S'm_well'
p5049
aaa(lp5050
S'JILL'
p5051
a(lp5052
aa(lp5053
S'JEFF'
p5054
a(lp5055
S'and'
p5056
aaa(lp5057
g5054
a(lp5058
S'then'
p5059
aS'she'
p5060
aS'raises'
p5061
aS'her'
p5062
aS'hand'
p5063
aaa(lp5064
S'JILL'
p5065
a(lp5066
aa(lp5067
S'JEFF'
p5068
a(lp5069
g4952
aS'Oh'
p5070
aS'honey'
p5071
aaa(lp5072
g5068
a(lp5073
S'what'
p5074
aS'wor'
p5075
aS'were'
p5076
aS'we'
p5077
aS'talking'
p5078
aS'about'
p5079
aS'the'
p5080
aS'other'
p5081
aS'night'
p5082
aaa(lp5083
S'JILL'
p5084
a(lp5085
g4952
aS'Whats'
p5086
aS'that'
p5087
aS'word'
p5088
aS'Im'
p5089
aS'looking'
p5090
aS'for'
p5091
aS'honey'
p5092
aaa(lp5093
S'JEFF'
p5094
a(lp5095
S'you'
p5096
aS'know'
p5097
aaa(lp5098
g5094
a(lp5099
S'when'
p5100
ag4952
aaa(lp5101
S'JILL'
p5102
a(lp5103
aa(lp5104
g5102
a(lp5105
S'You'
p5106
aS'know'
p5107
aS'what'
p5108
aS'Im'
p5109
aS'talking'
p5110
aS'about'
p5111
ag4952
aaa(lp5112
S'JEFF'
p5113
a(lp5114
aa(lp5115
g5113
a(lp5116
g33
aaa(lp5117
g5113
a(lp5118
S'Wouldnt'
p5119
aS'the'
p5120
aS'whole'
p5121
aS'place'
p5122
aS'just'
p5123
aS'laugh'
p5124
aaa(lp5125
S'JILL'
p5126
a(lp5127
S'Yeah'
p5128
aaa(lp5129
g5126
a(lp5130
g33
aS'think'
p5131
ag360
aS'its'
p5132
ag360
aS'so'
p5133
aS'funny'
p5134
aaa(lp5135
S'JEFF'
p5136
a(lp5137
S'Okay'
p5138
aaa(lp5139
g5136
a(lp5140
S'anyway'
p5141
aaa(lp5142
g5136
a(lp5143
S'Can'
p5144
ag33
aS'run'
p5145
aS'this'
p5146
aS'by'
p5147
aS'you'
p5148
aS'really'
p5149
aS'quick'
p5150
aaa(lp5151
S'JILL'
p5152
a(lp5153
S'Unhunh'
p5154
aaa(lp5155
S'JEFF'
p5156
a(lp5157
S'Theres'
p5158
aS'this'
p5159
aS'scientist'
p5160
aaa(lp5161
g5156
a(lp5162
S'that'
p5163
aS'came'
p5164
aS'up'
p5165
aS'with'
p5166
aS'irrefutable'
p5167
aS'proof'
p5168
aaa(lp5169
g5156
a(lp5170
S'that'
p5171
aaa(lp5172
g5156
a(lp5173
S'there'
p5174
aS'are'
p5175
aaa(lp5176
g5156
a(lp5177
S'there'
p5178
aS'they'
p5179
aS'found'
p5180
aS'two'
p5181
aS'planets'
p5182
aS'circulating'
p5183
aS'around'
p5184
ag78
aS'sun'
p5185
aaa(lp5186
g5156
a(lp5187
S'Or'
p5188
aaa(lp5189
g5156
a(lp5190
g78
aS'star'
p5191
aaa(lp5192
g5156
a(lp5193
S'in'
p5194
aS'the'
p5195
aS'universe'
p5196
aaa(lp5197
g5156
a(lp5198
S'outside'
p5199
aS'of'
p5200
aS'our'
p5201
aS'solar'
p5202
aS'system'
p5203
aaa(lp5204
S'JILL'
p5205
a(lp5206
S'BRWI'
p5207
aS'Really'
p5208
aS'WIBR'
p5209
aaa(lp5210
S'JEFF'
p5211
a(lp5212
S'And'
p5213
aS'so'
p5214
aaa(lp5215
g5211
a(lp5216
S'which'
p5217
aS'like'
p5218
aS'made'
p5219
aS'me'
p5220
aS'think'
p5221
aaa(lp5222
g5211
a(lp5223
S'you'
p5224
aS'know'
p5225
aS'like'
p5226
aaa(lp5227
g5211
a(lp5228
S'you'
p5229
aS'know'
p5230
aS'like'
p5231
aS'how'
p5232
aS'we'
p5233
aS'have'
p5234
aS'always'
p5235
aS'talked'
p5236
aS'about'
p5237
aS'life'
p5238
aS'being'
p5239
aS'out'
p5240
aS'there'
p5241
aaa(lp5242
g5211
a(lp5243
S'you'
p5244
aS'know'
p5245
aaa(lp5246
S'JILL'
p5247
a(lp5248
S'Unhunh'
p5249
aaa(lp5250
S'JEFF'
p5251
a(lp5252
S'like'
p5253
aS'there'
p5254
aS'has'
p5255
aS'to'
p5256
aS'be'
p5257
aaa(lp5258
g5251
a(lp5259
S'Cause'
p5260
aS'theres'
p5261
aS'planets'
p5262
aS'evolving'
p5263
aS'around'
p5264
aaa(lp5265
g5251
a(lp5266
S'um'
p5267
aaa(lp5268
S'JILL'
p5269
a(lp5270
S'Unhunh'
p5271
aaa(lp5272
S'JEFF'
p5273
a(lp5274
S'you'
p5275
aS'know'
p5276
aS'various'
p5277
aS'stars'
p5278
aS'and'
p5279
aS'stuff'
p5280
aaa(lp5281
g5273
a(lp5282
S'Just'
p5283
aS'like'
p5284
aS'ours'
p5285
aaa(lp5286
S'JILL'
p5287
a(lp5288
S'Unhunh'
p5289
aaa(lp5290
S'JEFF'
p5291
a(lp5292
S'And'
p5293
aaa(lp5294
g5291
a(lp5295
S'but'
p5296
aS'see'
p5297
ag33
aS'never'
p5298
aS'knew'
p5299
aS'that'
p5300
aS'that'
p5301
aS'was'
p5302
aS'just'
p5303
ag78
aS'theory'
p5304
aaa(lp5305
g5291
a(lp5306
S'You'
p5307
aS'know'
p5308
aaa(lp5309
g5291
a(lp5310
S'an'
p5311
ag78
aS'theory'
p5312
aS'that'
p5313
aS'there'
p5314
aS'were'
p5315
aS'planets'
p5316
aS'going'
p5317
aS'around'
p5318
aS'other'
p5319
aS'stars'
p5320
aaa(lp5321
S'JILL'
p5322
a(lp5323
S'You'
p5324
aS'mean'
p5325
aS'you'
p5326
aS'actually'
p5327
aS'thought'
p5328
aS'that'
p5329
aS'we'
p5330
aS'had'
p5331
aS'seen'
p5332
aS'this'
p5333
aS'before'
p5334
aaa(lp5335
S'JEFF'
p5336
a(lp5337
S'No'
p5338
aaa(lp5339
g5336
a(lp5340
g360
aS'No'
p5341
ag360
aaa(lp5342
g5336
a(lp5343
S'Actually'
p5344
aS'tha'
p5345
ag33
ag33
aaa(lp5346
g5336
a(lp5347
S'No'
p5348
ag33
aS'didnt'
p5349
aaa(lp5350
g5336
a(lp5351
g33
aS'just'
p5352
aaa(lp5353
g5336
a(lp5354
g33
aS'just'
p5355
aS'thought'
p5356
aS'that'
p5357
aS'it'
p5358
aS'was'
p5359
aS'like'
p5360
aS'pretty'
p5361
aS'much'
p5362
aS'factual'
p5363
aaa(lp5364
S'JILL'
p5365
a(lp5366
S'Oh'
p5367
aaa(lp5368
g5365
a(lp5369
S'yeah'
p5370
aaa(lp5371
S'JEFF'
p5372
a(lp5373
g360
aaa(lp5374
S'JILL'
p5375
a(lp5376
S'not'
p5377
aS'at'
p5378
aS'all'
p5379
aaa(lp5380
S'JEFF'
p5381
a(lp5382
aa(lp5383
g5381
a(lp5384
S'you'
p5385
aS'know'
p5386
aaa(lp5387
g5381
a(lp5388
S'So'
p5389
aaa(lp5390
g5381
a(lp5391
S'its'
p5392
aS'kind'
p5393
aS'of'
p5394
aS'like'
p5395
ag78
aS'leap'
p5396
aS'of'
p5397
aS'faith'
p5398
aaa(lp5399
g5381
a(lp5400
S'you'
p5401
aS'know'
p5402
aS'that'
p5403
aS'we'
p5404
aS'have'
p5405
aS'always'
p5406
aS'thought'
p5407
aS'that'
p5408
aaa(lp5409
S'JILL'
p5410
a(lp5411
g836
aaa(lp5412
S'JEFF'
p5413
a(lp5414
S'You'
p5415
aS'know'
p5416
aaa(lp5417
g5413
a(lp5418
g33
aS'mean'
p5419
aS'like'
p5420
aaa(lp5421
g5413
a(lp5422
S'like'
p5423
aS'the'
p5424
aS'scientist'
p5425
aS'who'
p5426
aS'who'
p5427
aS'does'
p5428
ag360
aS'it'
p5429
ag360
aaa(lp5430
g5413
a(lp5431
S'cant'
p5432
aS'really'
p5433
aS'prove'
p5434
aS'it'
p5435
aaa(lp5436
g5413
a(lp5437
S'Like'
p5438
aS'they'
p5439
aaa(lp5440
g5413
a(lp5441
S'they'
p5442
aS'make'
p5443
aS'this'
p5444
aS'leap'
p5445
aaa(lp5446
g5413
a(lp5447
S'of'
p5448
aS'faith'
p5449
aaa(lp5450
g5413
a(lp5451
S'you'
p5452
aS'know'
p5453
aaa(lp5454
g5413
a(lp5455
S'they'
p5456
aS'just'
p5457
aS'assume'
p5458
aaa(lp5459
g5413
a(lp5460
S'Right'
p5461
aaa(lp5462
g5413
a(lp5463
S'that'
p5464
aS'there'
p5465
aS'w'
p5466
aS'there'
p5467
aS'were'
p5468
aS'planets'
p5469
aaa(lp5470
S'JILL'
p5471
a(lp5472
S'Mhm'
p5473
aaa(lp5474
S'JEFF'
p5475
a(lp5476
S'around'
p5477
aS'other'
p5478
aS'suns'
p5479
aaa(lp5480
g5475
a(lp5481
S'Right'
p5482
aaa(lp5483
S'JILL'
p5484
a(lp5485
S'Right'
p5486
aaa(lp5487
g5484
a(lp5488
S'Just'
p5489
aS'by'
p5490
aS'the'
p5491
aS'sheer'
p5492
aS'numbers'
p5493
aaa(lp5494
g5484
a(lp5495
S'They'
p5496
aS'thought'
p5497
aaa(lp5498
g5484
a(lp5499
S'well'
p5500
aS'what'
p5501
aS'are'
p5502
aS'the'
p5503
aS'chances'
p5504
aaa(lp5505
g5484
a(lp5506
S'You'
p5507
aS'know'
p5508
aaa(lp5509
g5484
a(lp5510
g797
aS'we'
p5511
aS'have'
p5512
aS'billions'
p5513
aS'and'
p5514
aS'millions'
p5515
aS'of'
p5516
aS'stars'
p5517
aaa(lp5518
g5484
a(lp5519
S'then'
p5520
aS'chances'
p5521
aS'are'
p5522
aaa(lp5523
g5484
a(lp5524
S'You'
p5525
aS'know'
p5526
aaa(lp5527
g5484
a(lp5528
S'even'
p5529
aS'if'
p5530
aS'it'
p5531
aS'takes'
p5532
aS'like'
p5533
aS'one'
p5534
aS'in'
p5535
ag78
aS'million'
p5536
aS'chance'
p5537
aaa(lp5538
g5484
a(lp5539
S'for'
p5540
aS'there'
p5541
aS'to'
p5542
aS'be'
p5543
aS'another'
p5544
aS'planetary'
p5545
aS'system'
p5546
aaa(lp5547
g5484
a(lp5548
S'Well'
p5549
aaa(lp5550
g5484
a(lp5551
S'like'
p5552
ag360
aS'we'
p5553
aS'have'
p5554
aS'millions'
p5555
aS'and'
p5556
aS'millions'
p5557
aS'and'
p5558
aS'billions'
p5559
aS'of'
p5560
aS'opportunities'
p5561
aaa(lp5562
g5484
a(lp5563
S'to'
p5564
aS'have'
p5565
aS'that'
p5566
aS'happen'
p5567
aaa(lp5568
S'JEFF'
p5569
a(lp5570
S'Unhunh'
p5571
aaa(lp5572
S'JILL'
p5573
a(lp5574
S'So'
p5575
aaa(lp5576
g5573
a(lp5577
g33
aS'think'
p5578
aS'thats'
p5579
aS'the'
p5580
aS'whole'
p5581
aS'thing'
p5582
aaa(lp5583
g5573
a(lp5584
S'like'
p5585
aS'Carl'
p5586
aS'Sagan'
p5587
aaa(lp5588
g5573
a(lp5589
S'would'
p5590
aS'always'
p5591
aS'go'
p5592
aS'yeah'
p5593
aaa(lp5594
g5573
a(lp5595
g4952
aS'billions'
p5596
aS'and'
p5597
aS'billions'
p5598
ag4952
aaa(lp5599
g5573
a(lp5600
S'like'
p5601
aaa(lp5602
g5573
a(lp5603
S'he'
p5604
aS'would'
p5605
aS'say'
p5606
aS'that'
p5607
aaa(lp5608
S'JEFF'
p5609
a(lp5610
S'Unhunh'
p5611
aaa(lp5612
S'JILL'
p5613
a(lp5614
g33
aS'think'
p5615
aS'he'
p5616
aS'would'
p5617
aS'say'
p5618
aS'that'
p5619
aaa(lp5620
g5613
a(lp5621
S'But'
p5622
aaa(lp5623
g5613
a(lp5624
S'yeah'
p5625
aaa(lp5626
g5613
a(lp5627
S'So'
p5628
aS'anyhow'
p5629
aaa(lp5630
g5613
a(lp5631
S'like'
p5632
ag5466
aS'in'
p5633
aS'what'
p5634
aS'galaxy'
p5635
aaa(lp5636
g5613
a(lp5637
S'Like'
p5638
aS'what'
p5639
aS'solar'
p5640
aaa(lp5641
g5613
a(lp5642
S'Like'
p5643
aS'what'
p5644
aaa(lp5645
g5613
a(lp5646
S'what'
p5647
aS'galaxy'
p5648
aS'was'
p5649
aS'this'
p5650
aS'star'
p5651
aS'in'
p5652
aaa(lp5653
S'JEFF'
p5654
a(lp5655
S'Santa'
p5656
aS'Barbara'
p5657
aaa(lp5658
S'JILL'
p5659
a(lp5660
aa(lp5661
S'JEFF'
p5662
a(lp5663
S'No'
p5664
aaa(lp5665
g5662
a(lp5666
S'Im'
p5667
aS'not'
p5668
aS'sure'
p5669
aaa(lp5670
S'JILL'
p5671
a(lp5672
aa(lp5673
S'JEFF'
p5674
a(lp5675
g33
aS'dont'
p5676
aS'know'
p5677
aS'the'
p5678
aS'the'
p5679
aS'details'
p5680
aaa(lp5681
g5674
a(lp5682
S'But'
p5683
aaa(lp5684
S'JILL'
p5685
a(lp5686
aa(lp5687
S'JEFF'
p5688
a(lp5689
S'anyway'
p5690
aaa(lp5691
g5688
a(lp5692
S'what'
p5693
aS'it'
p5694
aS'made'
p5695
aS'me'
p5696
aS'think'
p5697
aS'about'
p5698
aS'was'
p5699
aaa(lp5700
S'JILL'
p5701
a(lp5702
aa(lp5703
S'JEFF'
p5704
a(lp5705
S'the'
p5706
aS'fact'
p5707
aS'that'
p5708
aaa(lp5709
g5704
a(lp5710
S'you'
p5711
aS'know'
p5712
aS'how'
p5713
aS'you'
p5714
aS'always'
p5715
aaa(lp5716
g5704
a(lp5717
S'this'
p5718
aS'might'
p5719
aS'sound'
p5720
ag78
aS'little'
p5721
aS'silly'
p5722
aaa(lp5723
S'JILL'
p5724
a(lp5725
g836
aaa(lp5726
S'JEFF'
p5727
a(lp5728
aa(lp5729
g5727
a(lp5730
S'But'
p5731
aS'you'
p5732
aS'know'
p5733
aS'how'
p5734
aS'like'
p5735
aS'you'
p5736
aaa(lp5737
g5727
a(lp5738
S'like'
p5739
ag33
aaa(lp5740
g5727
a(lp5741
g33
aaa(lp5742
g5727
a(lp5743
S'Im'
p5744
aS'very'
p5745
aS'passionate'
p5746
aS'about'
p5747
aS'certain'
p5748
aS'ideas'
p5749
aaa(lp5750
S'JILL'
p5751
a(lp5752
aa(lp5753
S'JEFF'
p5754
a(lp5755
S'you'
p5756
aS'know'
p5757
aaa(lp5758
S'JILL'
p5759
a(lp5760
S'Really'
p5761
aaa(lp5762
S'JEFF'
p5763
a(lp5764
S'Like'
p5765
aaa(lp5766
S'JILL'
p5767
a(lp5768
aa(lp5769
S'JEFF'
p5770
a(lp5771
S'you'
p5772
aS'know'
p5773
aS'what'
p5774
ag33
aS'mean'
p5775
aaa(lp5776
S'JILL'
p5777
a(lp5778
S'Yes'
p5779
aaa(lp5780
S'JEFF'
p5781
a(lp5782
S'How'
p5783
aaa(lp5784
g5781
a(lp5785
S'And'
p5786
aS'then'
p5787
aS'youre'
p5788
aS'like'
p5789
aS'more'
p5790
aS'scientific'
p5791
aaa(lp5792
g5781
a(lp5793
S'or'
p5794
aS'youre'
p5795
aS'more'
p5796
aaa(lp5797
g5781
a(lp5798
S'you'
p5799
aS'know'
p5800
aaa(lp5801
g5781
a(lp5802
S'open'
p5803
aS'to'
p5804
aS'other'
p5805
aS'possibilities'
p5806
aaa(lp5807
S'JILL'
p5808
a(lp5809
S'Unhunh'
p5810
aaa(lp5811
S'JEFF'
p5812
a(lp5813
S'You'
p5814
aS'know'
p5815
aS'like'
p5816
aS'in'
p5817
aaa(lp5818
g5812
a(lp5819
S'like'
p5820
aaa(lp5821
g5812
a(lp5822
S'you'
p5823
aS'know'
p5824
aS'like'
p5825
aS'youre'
p5826
aS'ch'
p5827
aaa(lp5828
g5812
a(lp5829
S'um'
p5830
aaa(lp5831
g5812
a(lp5832
S'just'
p5833
aaa(lp5834
g5812
a(lp5835
S'even'
p5836
aS'with'
p5837
aS'people'
p5838
aaa(lp5839
g5812
a(lp5840
S'But'
p5841
aaa(lp5842
g5812
a(lp5843
S'with'
p5844
aS'the'
p5845
aS'ide'
p5846
aaa(lp5847
g5812
a(lp5848
S'Like'
p5849
aS'you'
p5850
aS'would'
p5851
aaa(lp5852
g5812
a(lp5853
S'Like'
p5854
aS'you'
p5855
aS'would'
p5856
aS'ask'
p5857
aaa(lp5858
g5812
a(lp5859
S'like'
p5860
aS'how'
p5861
aS'do'
p5862
aS'you'
p5863
aS'know'
p5864
aS'for'
p5865
aS'sure'
p5866
aaa(lp5867
g5812
a(lp5868
S'You'
p5869
aS'know'
p5870
aaa(lp5871
S'JILL'
p5872
a(lp5873
g836
aaa(lp5874
S'JEFF'
p5875
a(lp5876
S'And'
p5877
aaa(lp5878
g5875
a(lp5879
S'its'
p5880
aS'like'
p5881
aaa(lp5882
g5875
a(lp5883
S'you'
p5884
aS'know'
p5885
aS'like'
p5886
aS'the'
p5887
aaa(lp5888
g5875
a(lp5889
S'Oh'
p5890
ag33
aS'dont'
p5891
aS'know'
p5892
aaa(lp5893
g5875
a(lp5894
S'P'
p5895
aS'Where'
p5896
aS'was'
p5897
ag33
aS'going'
p5898
aS'with'
p5899
aS'this'
p5900
ag5895
aaa(lp5901
S'JILL'
p5902
a(lp5903
S'That'
p5904
aaa(lp5905
g5902
a(lp5906
S'and'
p5907
aS'now'
p5908
aaa(lp5909
g5902
a(lp5910
S'here'
p5911
aS'it'
p5912
aS'is'
p5913
aaa(lp5914
g5902
a(lp5915
S'Here'
p5916
aS'is'
p5917
aS'the'
p5918
aS'factual'
p5919
aS'proof'
p5920
aaa(lp5921
g5902
a(lp5922
S'and'
p5923
aS'so'
p5924
ag33
aS'can'
p5925
aS'be'
p5926
aS'satisfied'
p5927
aaa(lp5928
S'JEFF'
p5929
a(lp5930
S'That'
p5931
aaa(lp5932
g5929
a(lp5933
S'Yeah'
p5934
aaa(lp5935
g5929
a(lp5936
S'Well'
p5937
aaa(lp5938
g5929
a(lp5939
S'just'
p5940
aS'to'
p5941
aS'show'
p5942
aS'you'
p5943
aS'that'
p5944
aaa(lp5945
g5929
a(lp5946
S'you'
p5947
aS'know'
p5948
aS'like'
p5949
aaa(lp5950
g5929
a(lp5951
S'you'
p5952
aS'can'
p5953
aS'make'
p5954
aS'an'
p5955
aS'assumption'
p5956
aaa(lp5957
g5929
a(lp5958
S'And'
p5959
aaa(lp5960
g5929
a(lp5961
S'you'
p5962
aS'can'
p5963
aS'assume'
p5964
aS'something'
p5965
aS'that'
p5966
aS'feels'
p5967
aaa(lp5968
g5929
a(lp5969
S'you'
p5970
aS'know'
p5971
aaa(lp5972
g5929
a(lp5973
S'really'
p5974
aS'orrect'
p5975
aaa(lp5976
g5929
a(lp5977
S'and'
p5978
aS'and'
p5979
aS'it'
p5980
aS'turns'
p5981
aS'out'
p5982
aS'to'
p5983
aS'be'
p5984
aS'that'
p5985
aS'way'
p5986
aaa(lp5987
S'JILL'
p5988
a(lp5989
S'Sure'
p5990
aaa(lp5991
g5988
a(lp5992
S'some'
p5993
aS'of'
p5994
aS'the'
p5995
aS'time'
p5996
aaa(lp5997
S'JEFF'
p5998
a(lp5999
S'Uh'
p6000
aS'yeah'
p6001
aaa(lp6002
S'JILL'
p6003
a(lp6004
g33
aS'feel'
p6005
aS'like'
p6006
aaa(lp6007
g6003
a(lp6008
S'well'
p6009
aS'if'
p6010
aS'you'
p6011
aS'also'
p6012
aS'felt'
p6013
aS'that'
p6014
aaa(lp6015
g6003
a(lp6016
g33
aS'dont'
p6017
aS'know'
p6018
aaa(lp6019
g6003
a(lp6020
S'you'
p6021
aS'could'
p6022
aS'feel'
p6023
aS'something'
p6024
aS'that'
p6025
aS'wouldnt'
p6026
aS'be'
p6027
aS'proved'
p6028
aS'right'
p6029
aaa(lp6030
S'JEFF'
p6031
a(lp6032
S'Yeah'
p6033
aaa(lp6034
S'JILL'
p6035
a(lp6036
S'But'
p6037
aaa(lp6038
g6035
a(lp6039
S'no'
p6040
aaa(lp6041
g6035
a(lp6042
S'but'
p6043
ag33
aS'think'
p6044
aS'thats'
p6045
aS'so'
p6046
aS'exciting'
p6047
aS'honey'
p6048
aaa(lp6049
S'JEFF'
p6050
a(lp6051
S'No'
p6052
aS'its'
p6053
aS'okay'
p6054
aS'honey'
p6055
aaa(lp6056
S'JILL'
p6057
a(lp6058
g33
aS'didnt'
p6059
aS'see'
p6060
aS'that'
p6061
aS'in'
p6062
aS'the'
p6063
aS'newspaper'
p6064
aaa(lp6065
S'JEFF'
p6066
a(lp6067
S'VOX'
p6068
aS'Its'
p6069
aS'okay'
p6070
aS'sweetie'
p6071
aS'VOX'
p6072
aaa(lp6073
S'JILL'
p6074
a(lp6075
S'Oh'
p6076
aaa(lp6077
S'JEFF'
p6078
a(lp6079
g360
ag33
aS'did'
p6080
ag360
aaa(lp6081
g6078
a(lp6082
S'It'
p6083
aS'was'
p6084
aS'more'
p6085
aS'exciting'
p6086
aS'when'
p6087
ag33
aS'was'
p6088
aS'thinking'
p6089
aS'about'
p6090
aS'it'
p6091
aS'the'
p6092
aS'other'
p6093
aS'night'
p6094
aaa(lp6095
S'JILL'
p6096
a(lp6097
S'No'
p6098
aaa(lp6099
g6096
a(lp6100
S'its'
p6101
aS'so'
p6102
aS'exciting'
p6103
aaa(lp6104
g6096
a(lp6105
g33
aS'mean'
p6106
aaa(lp6107
g6096
a(lp6108
g33
aaa(lp6109
g6096
a(lp6110
S'Im'
p6111
aS's'
p6112
aaa(lp6113
S'JEFF'
p6114
a(lp6115
S'No'
p6116
aaa(lp6117
g6114
a(lp6118
S'my'
p6119
aS'whole'
p6120
aS'idea'
p6121
aS'about'
p6122
aaa(lp6123
S'JILL'
p6124
a(lp6125
g33
aS'mean'
p6126
aS'its'
p6127
aS'so'
p6128
aS'exciting'
p6129
aaa(lp6130
g6124
a(lp6131
S'that'
p6132
ag33
ag653
aS'like'
p6133
aS'dont'
p6134
aS'even'
p6135
aS'believe'
p6136
aS'you'
p6137
aaa(lp6138
g6124
a(lp6139
S'Like'
p6140
aaa(lp6141
g6124
a(lp6142
g33
aS'think'
p6143
aS'its'
p6144
aS'that'
p6145
aS'exciting'
p6146
aaa(lp6147
S'JEFF'
p6148
a(lp6149
S'Oh'
p6150
aS'my'
p6151
aS'God'
p6152
aaa(lp6153
S'JILL'
p6154
a(lp6155
g33
aS'mean'
p6156
aS'like'
p6157
ag33
aS'feel'
p6158
aS'like'
p6159
aS'its'
p6160
aaa(lp6161
S'JEFF'
p6162
a(lp6163
S'You'
p6164
aS'dont'
p6165
aS'believe'
p6166
aS'me'
p6167
aaa(lp6168
S'JILL'
p6169
a(lp6170
S'No'
p6171
aS'its'
p6172
aS'so'
p6173
aS'exciting'
p6174
aS'that'
p6175
ag33
aS'feel'
p6176
aS'like'
p6177
aaa(lp6178
S'JEFF'
p6179
a(lp6180
g360
aS'Thats'
p6181
ag360
aaa(lp6182
S'JILL'
p6183
a(lp6184
g33
aS'want'
p6185
aS'to'
p6186
aS'go'
p6187
aS'read'
p6188
aS'it'
p6189
aS'in'
p6190
aS'the'
p6191
aS'newspaper'
p6192
aS'for'
p6193
aS'myself'
p6194
aaa(lp6195
g6183
a(lp6196
S'Like'
p6197
ag33
aS'cant'
p6198
aS'believe'
p6199
aS'it'
p6200
aaa(lp6201
g6183
a(lp6202
S'Like'
p6203
aS'how'
p6204
aS'come'
p6205
aS'its'
p6206
aS'not'
p6207
aS'on'
p6208
aS'the'
p6209
aS'news'
p6210
aaa(lp6211
S'JEFF'
p6212
a(lp6213
aa(lp6214
S'JILL'
p6215
a(lp6216
S'and'
p6217
aaa(lp6218
S'JEFF'
p6219
a(lp6220
g33
aS'know'
p6221
aaa(lp6222
S'JILL'
p6223
a(lp6224
S'there'
p6225
aS'arent'
p6226
aS'like'
p6227
aS'parties'
p6228
aS'now'
p6229
aaa(lp6230
S'JEFF'
p6231
a(lp6232
aa(lp6233
S'JILL'
p6234
a(lp6235
aa(lp6236
S'JEFF'
p6237
a(lp6238
S'And'
p6239
aS'they'
p6240
aS'even'
p6241
aaa(lp6242
g6237
a(lp6243
S'u'
p6244
aS'theyve'
p6245
aS'been'
p6246
aS'studying'
p6247
aS'the'
p6248
aS'two'
p6249
aS'planets'
p6250
aaa(lp6251
S'JILL'
p6252
a(lp6253
S'Mhm'
p6254
aaa(lp6255
S'JEFF'
p6256
a(lp6257
S'And'
p6258
aS'their'
p6259
aS'patterns'
p6260
aaa(lp6261
g6256
a(lp6262
S'And'
p6263
aS'how'
p6264
aS'they'
p6265
aS'like'
p6266
ag6112
aaa(lp6267
S'JILL'
p6268
a(lp6269
aa(lp6270
S'JEFF'
p6271
a(lp6272
S'Um'
p6273
aaa(lp6274
g6271
a(lp6275
S'they'
p6276
aaa(lp6277
g6271
a(lp6278
S'they'
p6279
aS'circle'
p6280
aS'the'
p6281
aS'the'
p6282
aS'their'
p6283
aS'star'
p6284
aaa(lp6285
S'JILL'
p6286
a(lp6287
S'Unhunh'
p6288
aaa(lp6289
S'JEFF'
p6290
a(lp6291
S'And'
p6292
aaa(lp6293
g6290
a(lp6294
S'they'
p6295
aS'think'
p6296
aS'that'
p6297
aS'theres'
p6298
aS'not'
p6299
aaa(lp6300
g6290
a(lp6301
S'it'
p6302
aS'cant'
p6303
aaa(lp6304
g6290
a(lp6305
S'those'
p6306
aS'planets'
p6307
aS'cant'
p6308
aS'sustain'
p6309
aS'life'
p6310
aaa(lp6311
S'JILL'
p6312
a(lp6313
S'Oh'
p6314
aaa(lp6315
g6312
a(lp6316
S'just'
p6317
aS'from'
p6318
aS'the'
p6319
aS'distance'
p6320
aS'from'
p6321
aS'it'
p6322
aaa(lp6323
S'JEFF'
p6324
a(lp6325
S'No'
p6326
aaa(lp6327
g6324
a(lp6328
S'From'
p6329
aS'um'
p6330
aaa(lp6331
g6324
a(lp6332
S'like'
p6333
aaa(lp6334
g6324
a(lp6335
S'from'
p6336
aS'their'
p6337
aS'surface'
p6338
aaa(lp6339
g6324
a(lp6340
S'The'
p6341
aS'the'
p6342
aS'planets'
p6343
aS'surface'
p6344
aaa(lp6345
S'JILL'
p6346
a(lp6347
S'Oh'
p6348
aaa(lp6349
g6346
a(lp6350
S'They'
p6351
aS'can'
p6352
aS'HI'
p6353
aS'see'
p6354
aS'that'
p6355
aS'HI'
p6356
aaa(lp6357
S'JEFF'
p6358
a(lp6359
S'Well'
p6360
aaa(lp6361
g6358
a(lp6362
S'th'
p6363
aS'ts'
p6364
aS'weird'
p6365
aaa(lp6366
g6358
a(lp6367
S'They'
p6368
aS'get'
p6369
aS'it'
p6370
aS'from'
p6371
aaa(lp6372
g6358
a(lp6373
S'like'
p6374
aS'they'
p6375
aS'pick'
p6376
aS'up'
p6377
aS'heat'
p6378
aS'waves'
p6379
aaa(lp6380
S'JILL'
p6381
a(lp6382
S'Oh'
p6383
aaa(lp6384
S'JEFF'
p6385
a(lp6386
S'You'
p6387
aS'know'
p6388
aaa(lp6389
g6385
a(lp6390
S'and'
p6391
aS'its'
p6392
aaa(lp6393
g6385
a(lp6394
S'its'
p6395
aS'just'
p6396
aaa(lp6397
g6385
a(lp6398
S'obviously'
p6399
aS'they'
p6400
aS'cant'
p6401
aS'se'
p6402
aS'really'
p6403
aS'see'
p6404
aS'anything'
p6405
aaa(lp6406
S'JILL'
p6407
a(lp6408
aa(lp6409
S'JEFF'
p6410
a(lp6411
S'They'
p6412
aaa(lp6413
g6410
a(lp6414
S'The'
p6415
aS'only'
p6416
aS'way'
p6417
aS'they'
p6418
ag360
aS'could'
p6419
ag360
aS'tell'
p6420
aS'that'
p6421
aS'the'
p6422
aS'planets'
p6423
aS'are'
p6424
aS'out'
p6425
aS'there'
p6426
aaa(lp6427
g6410
a(lp6428
S'like'
p6429
aS'they'
p6430
aS'can'
p6431
aS'tell'
p6432
aS'like'
p6433
aS'the'
p6434
aS'stars'
p6435
aS'are'
p6436
aaa(lp6437
g6410
a(lp6438
S'are'
p6439
aS'out'
p6440
aS'there'
p6441
ag360
aS'are'
p6442
ag360
aaa(lp6443
g6410
a(lp6444
S'just'
p6445
aS'by'
p6446
aS'radio'
p6447
aS'waves'
p6448
aaa(lp6449
g6410
a(lp6450
S'And'
p6451
aaa(lp6452
g6410
a(lp6453
S'and'
p6454
aS'how'
p6455
aaa(lp6456
g6410
a(lp6457
S'You'
p6458
aS'know'
p6459
aS'what'
p6460
aaa(lp6461
S'JILL'
p6462
a(lp6463
S'God'
p6464
aaa(lp6465
g6462
a(lp6466
S'thats'
p6467
aS'so'
p6468
aS'incredible'
p6469
aaa(lp6470
S'JEFF'
p6471
a(lp6472
S'and'
p6473
aS'heat'
p6474
aS'waves'
p6475
aaa(lp6476
g6471
a(lp6477
g33
ag4465
ag796
aS'its'
p6478
aS'unbelievable'
p6479
aaa(lp6480
g6471
a(lp6481
S'how'
p6482
aS'man'
p6483
aS'has'
p6484
aaa(lp6485
g6471
a(lp6486
S'you'
p6487
aS'know'
p6488
aS'like'
p6489
aaa(lp6490
S'JILL'
p6491
a(lp6492
S'From'
p6493
aS'this'
p6494
aS'little'
p6495
aS'point'
p6496
aaa(lp6497
S'JEFF'
p6498
a(lp6499
aa(lp6500
S'JILL'
p6501
a(lp6502
S'in'
p6503
aS'the'
p6504
aS'whole'
p6505
aS'universe'
p6506
aaa(lp6507
g6501
a(lp6508
S'like'
p6509
aaa(lp6510
g6501
a(lp6511
S'weve'
p6512
aS'been'
p6513
aS'able'
p6514
aS'to'
p6515
aS'tell'
p6516
aS'so'
p6517
aS'much'
p6518
aaa(lp6519
g6501
a(lp6520
S'just'
p6521
aS'with'
p6522
aS'science'
p6523
aaa(lp6524
S'JEFF'
p6525
a(lp6526
g33
aS'know'
p6527
aaa(lp6528
g6525
a(lp6529
S'isnt'
p6530
aS'it'
p6531
aS'wild'
p6532
aaa(lp6533
S'JILL'
p6534
a(lp6535
S'XX'
p6536
aaa(lp6537
g6534
a(lp6538
S'Just'
p6539
aS'with'
p6540
aaa(lp6541
g6534
a(lp6542
S'aw'
p6543
aaa(lp6544
g6534
a(lp6545
S'thats'
p6546
aS'so'
p6547
aS'incredible'
p6548
aaa(lp6549
S'JEFF'
p6550
a(lp6551
S'That'
p6552
aS'sends'
p6553
aS'me'
p6554
aS'out'
p6555
aS'there'
p6556
aaa(lp6557
S'JILL'
p6558
a(lp6559
S'Wow'
p6560
aaa(lp6561
S'JEFF'
p6562
a(lp6563
aa(lp6564
S'JILL'
p6565
a(lp6566
S'Totally'
p6567
aaa(lp6568
g6565
a(lp6569
S'Oh'
p6570
aaa(lp6571
g6565
a(lp6572
S'Wow'
p6573
aaa(lp6574
g6565
a(lp6575
S'Thats'
p6576
aS'so'
p6577
aS'exciting'
p6578
aaa(lp6579
S'JEFF'
p6580
a(lp6581
S'Oh'
p6582
aaa(lp6583
g6580
a(lp6584
S'honey'
p6585
aaa(lp6586
g6580
a(lp6587
S'youre'
p6588
aS'not'
p6589
aS'pregnant'
p6590
aaa(lp6591
S'JILL'
p6592
a(lp6593
S'No'
p6594
aaa(lp6595
g6592
a(lp6596
S'Im'
p6597
ag6112
aaa(lp6598
S'JEFF'
p6599
a(lp6600
g3155
aS'you'
p6601
aS'were'
p6602
aS'convinced'
p6603
aS'you'
p6604
aS'were'
p6605
aS'pregnant'
p6606
aaa(lp6607
S'JILL'
p6608
a(lp6609
S'Well'
p6610
aaa(lp6611
g6608
a(lp6612
g33
aS'only'
p6613
aS'got'
p6614
aS'convinced'
p6615
aS'the'
p6616
aS'moment'
p6617
aS'before'
p6618
ag33
aS'was'
p6619
aS'waiting'
p6620
aS'for'
p6621
aS'the'
p6622
aS'results'
p6623
aaa(lp6624
g6608
a(lp6625
S'Like'
p6626
aS'all'
p6627
aS'before'
p6628
aS'that'
p6629
aaa(lp6630
g6608
a(lp6631
S'well'
p6632
aS'Im'
p6633
aS'late'
p6634
aaa(lp6635
g6608
a(lp6636
S'But'
p6637
ag33
aS'dont'
p6638
aS'feel'
p6639
aS'any'
p6640
aS'of'
p6641
aS'the'
p6642
aS'symptoms'
p6643
aaa(lp6644
g6608
a(lp6645
S'But'
p6646
ag33
aS'got'
p6647
aS'so'
p6648
aS'nervous'
p6649
aaa(lp6650
g6608
a(lp6651
S'right'
p6652
aS'when'
p6653
ag33
aS'was'
p6654
aS'taking'
p6655
aS'the'
p6656
aS'test'
p6657
aaa(lp6658
g6608
a(lp6659
g33
aS'was'
p6660
aS'kind'
p6661
aS'of'
p6662
aS'not'
p6663
aS'treating'
p6664
aS'it'
p6665
aaa(lp6666
g6608
a(lp6667
S'taking'
p6668
aS'it'
p6669
aS'that'
p6670
aS'seriously'
p6671
aaa(lp6672
g6608
a(lp6673
S'Cause'
p6674
aS'its'
p6675
aS'just'
p6676
aaa(lp6677
g6608
a(lp6678
S'its'
p6679
aS'such'
p6680
aS'an'
p6681
aS'un'
p6682
aS'believable'
p6683
aS'concept'
p6684
aaa(lp6685
g6608
a(lp6686
S'to'
p6687
aS'think'
p6688
aS'that'
p6689
aS'maybe'
p6690
ag33
aS'would'
p6691
aS'be'
p6692
aS'pregnant'
p6693
aaa(lp6694
g6608
a(lp6695
S'So'
p6696
ag33
aS'wasnt'
p6697
aS'really'
p6698
aS'believing'
p6699
aS'it'
p6700
aaa(lp6701
S'JEFF'
p6702
a(lp6703
g360
aaa(lp6704
S'JILL'
p6705
a(lp6706
S'And'
p6707
aS'then'
p6708
aaa(lp6709
g6705
a(lp6710
S'but'
p6711
aS'the'
p6712
aS'moment'
p6713
aS'that'
p6714
ag33
aS'did'
p6715
aS'the'
p6716
aS'test'
p6717
aaa(lp6718
g6705
a(lp6719
g33
aS'got'
p6720
aS'so'
p6721
aS'scared'
p6722
aaa(lp6723
g6705
a(lp6724
S'and'
p6725
ag33
aS'thought'
p6726
aaa(lp6727
g6705
a(lp6728
S'oh'
p6729
aS'my'
p6730
aS'God'
p6731
aaa(lp6732
g6705
a(lp6733
S'like'
p6734
aaa(lp6735
g6705
a(lp6736
S'this'
p6737
aS'isnt'
p6738
aS'kidding'
p6739
aS'around'
p6740
aaa(lp6741
g6705
a(lp6742
S'like'
p6743
aS'what'
p6744
aS'if'
p6745
ag33
aS'am'
p6746
aaa(lp6747
g6705
a(lp6748
S'and'
p6749
aS'ts'
p6750
ag78
aS'distinct'
p6751
aS'possibility'
p6752
aaa(lp6753
g6705
a(lp6754
S'and'
p6755
ag33
aS'got'
p6756
aS'so'
p6757
aS'scared'
p6758
aaa(lp6759
g6705
a(lp6760
S'like'
p6761
aS'you'
p6762
aaa(lp6763
S'JEFF'
p6764
a(lp6765
S'Did'
p6766
aS'you'
p6767
aS'cry'
p6768
aaa(lp6769
S'JILL'
p6770
a(lp6771
S'No'
p6772
aaa(lp6773
g6770
a(lp6774
g33
aS'didnt'
p6775
aS'cry'
p6776
aaa(lp6777
g6770
a(lp6778
S'But'
p6779
aS'Jill'
p6780
aS'was'
p6781
aS'here'
p6782
aaa(lp6783
g6770
a(lp6784
S'like'
p6785
aS'she'
p6786
aS'wa'
p6787
aaa(lp6788
g6770
a(lp6789
S'It'
p6790
aS'was'
p6791
aS'so'
p6792
aS'scary'
p6793
aaa(lp6794
g6770
a(lp6795
S'and'
p6796
aaa(lp6797
g6770
a(lp6798
S'but'
p6799
aaa(lp6800
g6770
a(lp6801
S'you'
p6802
aS'know'
p6803
aaa(lp6804
g6770
a(lp6805
S'we'
p6806
aS'were'
p6807
aS'watching'
p6808
aS'it'
p6809
aaa(lp6810
g6770
a(lp6811
S'and'
p6812
aS'it'
p6813
aS'didnt'
p6814
aS'turn'
p6815
aS'blue'
p6816
aaa(lp6817
g6770
a(lp6818
S'or'
p6819
aaa(lp6820
S'JEFF'
p6821
a(lp6822
S'Aw'
p6823
aaa(lp6824
S'JILL'
p6825
a(lp6826
S'you'
p6827
aS'know'
p6828
aaa(lp6829
g6825
a(lp6830
S'so'
p6831
aaa(lp6832
g6825
a(lp6833
S'it'
p6834
aS'was'
p6835
aaa(lp6836
g6825
a(lp6837
S'you'
p6838
aS'know'
p6839
aaa(lp6840
g6825
a(lp6841
S'it'
p6842
aS'was'
p6843
aaa(lp6844
S'JEFF'
p6845
a(lp6846
S'Are'
p6847
aS'you'
p6848
aS'sure'
p6849
aS'it'
p6850
aS'would'
p6851
aS'have'
p6852
aS'been'
p6853
aS'mine'
p6854
aaa(lp6855
S'JILL'
p6856
a(lp6857
aa(lp6858
S'JEFF'
p6859
a(lp6860
aa(lp6861
S'JILL'
p6862
a(lp6863
aa(lp6864
S'JEFF'
p6865
a(lp6866
S'You'
p6867
aS'know'
p6868
ag33
aS'wouldve'
p6869
aS'denied'
p6870
aS'it'
p6871
aaa(lp6872
g6865
a(lp6873
g797
aS'you'
p6874
aaa(lp6875
g6865
a(lp6876
S'if'
p6877
aS'you'
p6878
aS'said'
p6879
aS'it'
p6880
aS'was'
p6881
aS'mine'
p6882
aaa(lp6883
S'JILL'
p6884
a(lp6885
aa(lp6886
S'JILL'
p6887
a(lp6888
g33
aS'was'
p6889
aS'uh'
p6890
aaa(lp6891
g6887
a(lp6892
S'messing'
p6893
aS'around'
p6894
aS'with'
p6895
aS'the'
p6896
aS'repair'
p6897
aS'man'
p6898
aaa(lp6899
S'JEFF'
p6900
a(lp6901
S'Honey'
p6902
aaa(lp6903
S'JILL'
p6904
a(lp6905
S'Aw'
p6906
aaa(lp6907
S'JEFF'
p6908
a(lp6909
S'Honey'
p6910
aaa(lp6911
g6908
a(lp6912
S'Im'
p6913
aS'just'
p6914
aS'kidding'
p6915
aS'my'
p6916
aS'love'
p6917
aaa(lp6918
S'JILL'
p6919
a(lp6920
aa(lp6921
S'JEFF'
p6922
a(lp6923
S'Youd'
p6924
aS'sure'
p6925
aS'learn'
p6926
ag78
aS'lot'
p6927
aS'about'
p6928
aS'me'
p6929
aS'if'
p6930
aS'that'
p6931
aS'happened'
p6932
aaa(lp6933
S'JILL'
p6934
a(lp6935
S'Gosh'
p6936
aaa(lp6937
S'JEFF'
p6938
a(lp6939
aa(lp6940
S'JILL'
p6941
a(lp6942
aa(lp6943
S'JEFF'
p6944
a(lp6945
S'Aw'
p6946
aS'honey'
p6947
aaa(lp6948
g6944
a(lp6949
S'that'
p6950
aS'would'
p6951
aS'just'
p6952
aS'like'
p6953
aS'ruin'
p6954
aS'your'
p6955
aS'whole'
p6956
aS'idea'
p6957
aS'of'
p6958
aS'who'
p6959
ag33
aS'am'
p6960
aaa(lp6961
g6944
a(lp6962
S'Hunh'
p6963
aaa(lp6964
S'JILL'
p6965
a(lp6966
S'Aw'
p6967
aaa(lp6968
S'JEFF'
p6969
a(lp6970
S'It'
p6971
aS'would'
p6972
aS'just'
p6973
aS'like'
p6974
aaa(lp6975
g6969
a(lp6976
S'Id'
p6977
aS'just'
p6978
aS'blow'
p6979
aS'up'
p6980
aS'everything'
p6981
aS'that'
p6982
aS'we'
p6983
aS'had'
p6984
aaa(lp6985
g6969
a(lp6986
S'if'
p6987
ag33
aaa(lp6988
g6969
a(lp6989
S'if'
p6990
ag33
aS'was'
p6991
aS'that'
p6992
aS'cruel'
p6993
aaa(lp6994
S'JILL'
p6995
a(lp6996
S'If'
p6997
aS'you'
p6998
aS'just'
p6999
aS'refuted'
p7000
aS'it'
p7001
aaa(lp7002
S'JEFF'
p7003
a(lp7004
S'If'
p7005
ag33
aS'said'
p7006
ag4952
aS'no'
p7007
aS'way'
p7008
ag4952
aaa(lp7009
S'JILL'
p7010
a(lp7011
g4952
aS'T'
p7012
aS'nunhunh'
p7013
aaa(lp7014
g7010
a(lp7015
S'Im'
p7016
aS'not'
p7017
aS'taking'
p7018
aS'any'
p7019
aS'responsibility'
p7020
ag4952
aaa(lp7021
S'JEFF'
p7022
a(lp7023
S'If'
p7024
aS'its'
p7025
aS'mine'
p7026
aaa(lp7027
g7022
a(lp7028
S'then'
p7029
aS'its'
p7030
aS'your'
p7031
aS'fault'
p7032
aS'for'
p7033
aS'getting'
p7034
aS'pregnant'
p7035
aaa(lp7036
S'JILL'
p7037
a(lp7038
S'Oh'
p7039
aS'God'
p7040
aaa(lp7041
S'JEFF'
p7042
a(lp7043
S'Would'
p7044
aaa(lp7045
g7042
a(lp7046
S'Oh'
p7047
aS'no'
p7048
aaa(lp7049
S'JILL'
p7050
a(lp7051
aa(lp7052
S'JEFF'
p7053
a(lp7054
S'You'
p7055
aS'think'
p7056
aS'wed'
p7057
aS'be'
p7058
aS'able'
p7059
aS'to'
p7060
aaa(lp7061
S'JILL'
p7062
a(lp7063
aa(lp7064
S'JEFF'
p7065
a(lp7066
S'to'
p7067
aS'make'
p7068
aS'it'
p7069
aS'through'
p7070
aS'that'
p7071
aaa(lp7072
g7065
a(lp7073
S'If'
p7074
ag33
aaa(lp7075
S'JILL'
p7076
a(lp7077
aa(lp7078
g7076
a(lp7079
g33
aS'dont'
p7080
aS'think'
p7081
ag6112
aaa(lp7082
S'JEFF'
p7083
a(lp7084
aa(lp7085
g7083
a(lp7086
S'Would'
p7087
aS'you'
p7088
aaa(lp7089
g7083
a(lp7090
S'Would'
p7091
aS'you'
p7092
aS'be'
p7093
aS'able'
p7094
aS'to'
p7095
aS'look'
p7096
aS'above'
p7097
aS'that'
p7098
aaa(lp7099
S'JILL'
p7100
a(lp7101
aa(lp7102
g7100
a(lp7103
S'Would'
p7104
aS'you'
p7105
aS'forgive'
p7106
aS'that'
p7107
aaa(lp7108
S'JEFF'
p7109
a(lp7110
aa(lp7111
g7109
a(lp7112
S'Just'
p7113
aS'let'
p7114
aS'that'
p7115
aS'one'
p7116
aS'thing'
p7117
aS'pass'
p7118
aaa(lp7119
S'JILL'
p7120
a(lp7121
aa(lp7122
S'JEFF'
p7123
a(lp7124
S'No'
p7125
aS'way'
p7126
aaa(lp7127
S'JILL'
p7128
a(lp7129
aa(lp7130
S'JEFF'
p7131
a(lp7132
g33
aS'wouldnt'
p7133
aS'let'
p7134
aS'you'
p7135
aaa(lp7136
S'JILL'
p7137
a(lp7138
S'Oh'
p7139
aaa(lp7140
S'JEFF'
p7141
a(lp7142
S'Well'
p7143
aaa(lp7144
S'JILL'
p7145
a(lp7146
aa(lp7147
S'JEFF'
p7148
a(lp7149
g33
aS'just'
p7150
aS'want'
p7151
aS'you'
p7152
aS'to'
p7153
aS'get'
p7154
aS'pregnant'
p7155
aaa(lp7156
g7148
a(lp7157
S'So'
p7158
aS'you'
p7159
aS'could'
p7160
aS'see'
p7161
aS'how'
p7162
aaa(lp7163
g7148
a(lp7164
S'Im'
p7165
aS'gonna'
p7166
aS'take'
p7167
aS'it'
p7168
aaa(lp7169
S'JILL'
p7170
a(lp7171
S'S'
p7172
aS'oh'
p7173
aaa(lp7174
S'JEFF'
p7175
a(lp7176
S'Ill'
p7177
aS'love'
p7178
aS'you'
p7179
aS'and'
p7180
aS'support'
p7181
aS'you'
p7182
aaa(lp7183
S'JILL'
p7184
a(lp7185
g836
aaa(lp7186
S'JEFF'
p7187
a(lp7188
S'send'
p7189
aS'you'
p7190
aS'some'
p7191
aS'money'
p7192
aaa(lp7193
S'JILL'
p7194
a(lp7195
aa(lp7196
S'JEFF'
p7197
a(lp7198
aa(lp7199
S'JILL'
p7200
a(lp7201
S'Great'
p7202
aaa(lp7203
S'BOTH'
p7204
a(lp7205
aa(lp7206
S'JEFF'
p7207
a(lp7208
S'Oh'
p7209
aaa(lp7210
S'JILL'
p7211
a(lp7212
aa(lp7213
S'JEFF'
p7214
a(lp7215
S'sweetness'
p7216
aaa(lp7217
S'JILL'
p7218
a(lp7219
S'Oh'
p7220
aaa(lp7221
S'JEFF'
p7222
a(lp7223
S'What'
p7224
ag78
aS'pain'
p7225
aS'in'
p7226
aS'the'
p7227
aS'ass'
p7228
aS'that'
p7229
aS'would'
p7230
aS'be'
p7231
aaa(lp7232
S'JILL'
p7233
a(lp7234
aa(lp7235
g7233
a(lp7236
g33
aS'know'
p7237
aaa(lp7238
g7233
a(lp7239
S'you'
p7240
aS'know'
p7241
aS'what'
p7242
aaa(lp7243
g7233
a(lp7244
g33
aS'think'
p7245
ag207
aaa(lp7246
g7233
a(lp7247
g207
aaa(lp7248
g7233
a(lp7249
S'out'
p7250
aS'of'
p7251
aS'anything'
p7252
aaa(lp7253
g7233
a(lp7254
S'it'
p7255
aS'would'
p7256
aS'just'
p7257
aS'be'
p7258
aS'that'
p7259
aaa(lp7260
g7233
a(lp7261
S'that'
p7262
aS'would'
p7263
aS'bother'
p7264
aS'me'
p7265
aaa(lp7266
g7233
a(lp7267
S'Just'
p7268
aS'like'
p7269
aaa(lp7270
g7233
a(lp7271
g33
aS'dont'
p7272
aS'have'
p7273
aS'the'
p7274
aS'time'
p7275
aS'to'
p7276
aS'deal'
p7277
aS'with'
p7278
aS'it'
p7279
aaa(lp7280
g7233
a(lp7281
S'Like'
p7282
ag5466
aaa(lp7283
g7233
a(lp7284
S'you'
p7285
aS'know'
p7286
aaa(lp7287
g7233
a(lp7288
S'Like'
p7289
aaa(lp7290
g7233
a(lp7291
S'what'
p7292
ag78
aS'pain'
p7293
aS'in'
p7294
aS'the'
p7295
aS'neck'
p7296
aaa(lp7297
S'JEFF'
p7298
a(lp7299
S'XX'
p7300
aaa(lp7301
g7298
a(lp7302
S'We'
p7303
aS'have'
p7304
aS'to'
p7305
aS'be'
p7306
aS'really'
p7307
aS'safe'
p7308
aS'this'
p7309
aS'summer'
p7310
aaa(lp7311
S'JILL'
p7312
a(lp7313
S'Totally'
p7314
aaa(lp7315
g7312
a(lp7316
S'Well'
p7317
aS'Im'
p7318
aS'gonna'
p7319
aS'go'
p7320
aS'on'
p7321
aS'the'
p7322
aS'pill'
p7323
aaa(lp7324
S'JEFF'
p7325
a(lp7326
S'Oh'
p7327
aS'honey'
p7328
aaa(lp7329
g7325
a(lp7330
S'are'
p7331
aS'you'
p7332
aS'sure'
p7333
aaa(lp7334
S'JILL'
p7335
a(lp7336
S'Yeah'
p7337
aaa(lp7338
g7335
a(lp7339
S'Yeah'
p7340
aS'totally'
p7341
aaa(lp7342
g7335
a(lp7343
S'it'
p7344
aS'its'
p7345
aaa(lp7346
S'JEFF'
p7347
a(lp7348
S'Yeah'
p7349
aS'what'
p7350
aS'are'
p7351
aS'we'
p7352
aS'gonna'
p7353
aS'use'
p7354
aaa(lp7355
g7347
a(lp7356
S'condoms'
p7357
aaa(lp7358
S'JILL'
p7359
a(lp7360
S'Right'
p7361
aaa(lp7362
S'JEFF'
p7363
a(lp7364
S'Well'
p7365
aS'theyre'
p7366
aS'coming'
p7367
aS'out'
p7368
aS'with'
p7369
aS'condoms'
p7370
aS'for'
p7371
aS'women'
p7372
aaa(lp7373
S'JILL'
p7374
a(lp7375
S'Right'
p7376
aaa(lp7377
g7374
a(lp7378
S'well'
p7379
aaa(lp7380
S'JEFF'
p7381
a(lp7382
g33
aS'would'
p7383
aS'never'
p7384
aS'in'
p7385
ag78
aS'million'
p7386
aS'years'
p7387
aS'expect'
p7388
aS'you'
p7389
aS'to'
p7390
aS'wear'
p7391
aS'something'
p7392
aS'like'
p7393
aS'that'
p7394
aaa(lp7395
g7381
a(lp7396
S'honey'
p7397
aaa(lp7398
S'JILL'
p7399
a(lp7400
aa(lp7401
S'JEFF'
p7402
a(lp7403
g33
aS'swear'
p7404
aS'to'
p7405
aS'God'
p7406
aaa(lp7407
g7402
a(lp7408
g33
aS'think'
p7409
aS'those'
p7410
aS'are'
p7411
aS'the'
p7412
aS'grossest'
p7413
aS'contraptions'
p7414
aS'ever'
p7415
aaa(lp7416
S'JILL'
p7417
a(lp7418
g33
aS'saw'
p7419
aS'one'
p7420
aS'act'
p7421
aaa(lp7422
g7417
a(lp7423
S'Really'
p7424
aaa(lp7425
S'JEFF'
p7426
a(lp7427
S'Yeah'
p7428
aaa(lp7429
S'JILL'
p7430
a(lp7431
g33
aS'just'
p7432
aS'saw'
p7433
aS'one'
p7434
aS'the'
p7435
aS'other'
p7436
aS'day'
p7437
aS'actually'
p7438
aaa(lp7439
S'JEFF'
p7440
a(lp7441
aa(lp7442
S'JILL'
p7443
a(lp7444
S'Theyre'
p7445
aS'strange'
p7446
aS'looking'
p7447
aaa(lp7448
S'JEFF'
p7449
a(lp7450
S'Wow'
p7451
aaa(lp7452
g7449
a(lp7453
g360
aS'XX'
p7454
aaa(lp7455
S'JILL'
p7456
a(lp7457
aa(lp7458
g7456
a(lp7459
S'We'
p7460
aS'had'
p7461
ag78
aS'woman'
p7462
aaa(lp7463
g7456
a(lp7464
S'um'
p7465
aaa(lp7466
g7456
a(lp7467
g78
aS'physician'
p7468
aS'come'
p7469
aS'and'
p7470
aS'talk'
p7471
aS'to'
p7472
aS'us'
p7473
aaa(lp7474
g7456
a(lp7475
S'about'
p7476
aS'all'
p7477
aS'the'
p7478
aS'different'
p7479
aS'kinds'
p7480
aS'of'
p7481
aS'contraception'
p7482
aaa(lp7483
g7456
a(lp7484
S'and'
p7485
aaa(lp7486
g7456
a(lp7487
S'um'
p7488
aaa(lp7489
g7456
a(lp7490
S'to'
p7491
aS'tell'
p7492
aS'us'
p7493
aS'about'
p7494
aS'R'
p7495
aS'U'
p7496
aS'four'
p7497
aS'eightysix'
p7498
aaa(lp7499
g7456
a(lp7500
S'Is'
p7501
aS'that'
p7502
aS'the'
p7503
aS'drug'
p7504
aaa(lp7505
S'JEFF'
p7506
a(lp7507
S'Unhunh'
p7508
aaa(lp7509
g7506
a(lp7510
S'Unhunh'
p7511
aaa(lp7512
S'JILL'
p7513
a(lp7514
S'To'
p7515
aS'tell'
p7516
aS'us'
p7517
aS'about'
p7518
aS'that'
p7519
aaa(lp7520
g7513
a(lp7521
S'and'
p7522
aS'norplant'
p7523
aaa(lp7524
g7513
a(lp7525
S'and'
p7526
aS'the'
p7527
aS'side'
p7528
aS'effects'
p7529
aS'of'
p7530
aS'everything'
p7531
aaa(lp7532
g7513
a(lp7533
S'and'
p7534
aaa(lp7535
g7513
a(lp7536
S'it'
p7537
aS'was'
p7538
aS'so'
p7539
aS'interesting'
p7540
aaa(lp7541
S'JEFF'
p7542
a(lp7543
S'Wow'
p7544
aaa(lp7545
S'JILL'
p7546
a(lp7547
S'Yeah'
p7548
aaa(lp7549
S'JEFF'
p7550
a(lp7551
S'Well'
p7552
aS'is'
p7553
ag7495
ag7496
aS'um'
p7554
aS'forty'
p7555
aS'six'
p7556
aaa(lp7557
S'JILL'
p7558
a(lp7559
S'it'
p7560
aS'was'
p7561
aS'really'
p7562
ag360
aS'neat'
p7563
ag360
aaa(lp7564
S'JEFF'
p7565
a(lp7566
S'is'
p7567
aS'that'
p7568
aS'gonna'
p7569
aS'be'
p7570
aS'implemented'
p7571
aaa(lp7572
S'JILL'
p7573
a(lp7574
S'Well'
p7575
aaa(lp7576
g7573
a(lp7577
S'its'
p7578
aS'not'
p7579
aaa(lp7580
g7573
a(lp7581
S'its'
p7582
aS'not'
p7583
aS'available'
p7584
aS'here'
p7585
aS'in'
p7586
aS'the'
p7587
aS'United'
p7588
aS'States'
p7589
aaa(lp7590
g7573
a(lp7591
S'its'
p7592
aS'only'
p7593
aS'in'
p7594
aS'France'
p7595
aaa(lp7596
S'JEFF'
p7597
a(lp7598
S'England'
p7599
aaa(lp7600
S'JILL'
p7601
a(lp7602
S'and'
p7603
aaa(lp7604
g7601
a(lp7605
S'yeah'
p7606
aaa(lp7607
g7601
a(lp7608
S'and'
p7609
aS'Sweden'
p7610
aaa(lp7611
g7601
a(lp7612
g360
aS'Right'
p7613
ag360
aaa(lp7614
S'JEFF'
p7615
a(lp7616
S'But'
p7617
ag33
aS'mean'
p7618
aS'is'
p7619
aS'that'
p7620
aaa(lp7621
g7615
a(lp7622
S'are'
p7623
aS'they'
p7624
aaa(lp7625
g7615
a(lp7626
S'are'
p7627
aS'there'
p7628
aS'people'
p7629
aS'trying'
p7630
aS'to'
p7631
aS'make'
p7632
aS'it'
p7633
aS'law'
p7634
aS'here'
p7635
aaa(lp7636
S'JILL'
p7637
a(lp7638
g33
aS'think'
p7639
aS'so'
p7640
aaa(lp7641
g7637
a(lp7642
S'but'
p7643
aaa(lp7644
g7637
a(lp7645
g33
aS'just'
p7646
aS'think'
p7647
aaa(lp7648
g7637
a(lp7649
S'you'
p7650
aS'know'
p7651
aaa(lp7652
g7637
a(lp7653
S'politically'
p7654
ag33
aaa(lp7655
g7637
a(lp7656
g33
aS'doubt'
p7657
aS'it'
p7658
aS'will'
p7659
aS'be'
p7660
aaa(lp7661
S'JEFF'
p7662
a(lp7663
S'Yeah'
p7664
aaa(lp7665
S'JILL'
p7666
a(lp7667
S'for'
p7668
ag78
aS'while'
p7669
aaa(lp7670
g7666
a(lp7671
S'Such'
p7672
ag78
aS'bummer'
p7673
aaa(lp7674
S'JEFF'
p7675
a(lp7676
S'Yeah'
p7677
aaa(lp7678
g7675
a(lp7679
S'Its'
p7680
aS'such'
p7681
ag78
aS'great'
p7682
aaa(lp7683
g7675
a(lp7684
S'you'
p7685
aS'know'
p7686
aaa(lp7687
g7675
a(lp7688
S'That'
p7689
aS'would'
p7690
aS'be'
p7691
aS'so'
p7692
aS'great'
p7693
aS'if'
p7694
aS'people'
p7695
aS'could'
p7696
aS'get'
p7697
aS'that'
p7698
aaa(lp7699
S'JILL'
p7700
a(lp7701
S'Oh'
p7702
aS'yeah'
p7703
aaa(lp7704
S'JEFF'
p7705
a(lp7706
S'Stay'
p7707
aS'away'
p7708
aS'from'
p7709
aS'those'
p7710
aS'prolifers'
p7711
aaa(lp7712
S'JILL'
p7713
a(lp7714
aa(lp7715
S'JEFF'
p7716
a(lp7717
S'Throwing'
p7718
aS'things'
p7719
aS'at'
p7720
aS'em'
p7721
aaa(lp7722
S'JILL'
p7723
a(lp7724
S'Oh'
p7725
aaa(lp7726
g7723
a(lp7727
g33
aS'know'
p7728
ag33
aS'know'
p7729
aaa(lp7730
g7723
a(lp7731
S'Gosh'
p7732
aaa(lp7733
g7723
a(lp7734
S'you'
p7735
aS'know'
p7736
aS'what'
p7737
aS'sweetie'
p7738
aaa(lp7739
g7723
a(lp7740
g33
aS'think'
p7741
aS'Im'
p7742
aS'gonna'
p7743
aS'go'
p7744
aaa(lp7745
g7723
a(lp7746
S'like'
p7747
aS'rescue'
p7748
aS'Jill'
p7749
aaa(lp7750
g7723
a(lp7751
S'Because'
p7752
aS'shes'
p7753
aS'been'
p7754
aS'there'
p7755
aaa(lp7756
g7723
a(lp7757
S'and'
p7758
aaa(lp7759
g7723
a(lp7760
S'shes'
p7761
aS'probably'
p7762
aS'doesnt'
p7763
aS'know'
p7764
aS'anybody'
p7765
aaa(lp7766
g7723
a(lp7767
S'and'
p7768
aaa(lp7769
g7723
a(lp7770
S'you'
p7771
aS'know'
p7772
aaa(lp7773
S'JEFF'
p7774
a(lp7775
S'Okay'
p7776
aaa(lp7777
g7774
a(lp7778
S'honey'
p7779
aaa(lp7780
S'JILL'
p7781
a(lp7782
aa(lp7783
S'JEFF'
p7784
a(lp7785
S'You'
p7786
aS'youre'
p7787
aS'choosing'
p7788
aaa(lp7789
g7784
a(lp7790
S'you'
p7791
aS'can'
p7792
aS'choose'
p7793
aaa(lp7794
S'JILL'
p7795
a(lp7796
S'Oh'
p7797
aS'honey'
p7798
aaa(lp7799
S'JEFF'
p7800
a(lp7801
S'Im'
p7802
aS'just'
p7803
aS'kidding'
p7804
aaa(lp7805
S'JILL'
p7806
a(lp7807
aa(lp7808
S'JEFF'
p7809
a(lp7810
S'Oh'
p7811
aaa(lp7812
g7809
a(lp7813
S'Im'
p7814
aS'so'
p7815
aS'glad'
p7816
aS'you'
p7817
aS'guys'
p7818
aS'are'
p7819
aS'having'
p7820
ag78
aS'good'
p7821
aS'time'
p7822
aaa(lp7823
S'JILL'
p7824
a(lp7825
S'N_yeah'
p7826
aaa(lp7827
g7824
a(lp7828
S'oh'
p7829
aS'its'
p7830
aS'so'
p7831
aS'great'
p7832
aaa(lp7833
g7824
a(lp7834
S'Its'
p7835
aS'so'
p7836
aS'great'
p7837
aaa(lp7838
S'JEFF'
p7839
a(lp7840
S'Aw'
p7841
aaa(lp7842
g7839
a(lp7843
S'well'
p7844
aS'give'
p7845
aaa(lp7846
S'JILL'
p7847
a(lp7848
S'Its'
p7849
aS'so'
p7850
aS'nice'
p7851
aaa(lp7852
g7847
a(lp7853
S'It'
p7854
aaa(lp7855
S'JEFF'
p7856
a(lp7857
S'Give'
p7858
aS'her'
p7859
ag78
aS'hug'
p7860
aS'for'
p7861
aS'me'
p7862
aaa(lp7863
S'JILL'
p7864
a(lp7865
S'Okay'
p7866
aaa(lp7867
g7864
a(lp7868
S'Its'
p7869
aS'almost'
p7870
aS'surreal'
p7871
aaa(lp7872
g7864
a(lp7873
S'having'
p7874
aS'her'
p7875
aS'here'
p7876
aaa.