(lp0
(lp1
S'X'
p2
a(lp3
aa(lp4
S'JUDGE'
p5
a(lp6
S'Okay'
p7
aaa(lp8
g5
a(lp9
S'the'
p10
aS'next'
p11
aS'case'
p12
aS'will'
p13
aS'be'
p14
aS'uh'
p15
aaa(lp16
g5
a(lp17
S'Walter'
p18
aS'Komak'
p19
aS'versus'
p20
aS'Rose'
p21
aS'Black'
p22
aaa(lp23
S'BAILIFF'
p24
a(lp25
S'Is'
p26
aS'this'
p27
aS'contested'
p28
aaa(lp29
S'X'
p30
a(lp31
S'No'
p32
aaa(lp33
g30
a(lp34
S'Just'
p35
aS'witnesses'
p36
aS'and'
p37
aS'case'
p38
aaa(lp39
S'ROSE'
p40
a(lp41
S'No'
p42
aaa(lp43
S'BAILIFF'
p44
a(lp45
S'Oh'
p46
aS'okay'
p47
aaa(lp48
S'X'
p49
a(lp50
aa(lp51
S'BAILIFF'
p52
a(lp53
S'Are'
p54
aS'you'
p55
aS'X'
p56
aaa(lp57
g52
a(lp58
S'Are'
p59
aS'you'
p60
aS'the'
p61
aS'uh'
p62
aS'plaintiff'
p63
aaa(lp64
S'ROSE'
p65
a(lp66
S'Yes'
p67
aaa(lp68
g65
a(lp69
S'No'
p70
aaa(lp71
g65
a(lp72
S'Im'
p73
aS'the'
p74
aS'defendant'
p75
aaa(lp76
S'BAILIFF'
p77
a(lp78
S'Oh'
p79
aaa(lp80
S'ROSE'
p81
a(lp82
S'But'
p83
aS'Im'
p84
aS'the'
p85
aS'plaintiff'
p86
aaa(lp87
g81
a(lp88
S'on'
p89
aS'the'
p90
aS'countersuit'
p91
aaa(lp92
S'X'
p93
a(lp94
aa(lp95
S'BAILIFF'
p96
a(lp97
S'Oh'
p98
aaa(lp99
S'X'
p100
a(lp101
S'P'
p102
aS'Let'
p103
aS'me'
p104
aS'have'
p105
aS'this'
p106
aS'pen'
p107
ag56
aS'for'
p108
aS'a'
p109
aS'minute'
p110
ag56
aaa(lp111
S'X_'
p112
a(lp113
S'Oh'
p114
aaa(lp115
S'X_'
p116
a(lp117
aa(lp118
S'X'
p119
a(lp120
S'XX'
p121
aS'thats'
p122
aS'never'
p123
aS'worked'
p124
ag102
aaa(lp125
S'X_'
p126
a(lp127
S'Yeah'
p128
aaa(lp129
S'ROSE'
p130
a(lp131
S'Sign'
p132
aS'here'
p133
aaa(lp134
S'X'
p135
a(lp136
g56
aS'Yes'
p137
ag56
aaa(lp138
S'JUDGE'
p139
a(lp140
S'Okay'
p141
aS'now'
p142
aaa(lp143
g139
a(lp144
S'this'
p145
aS'is'
p146
ag109
aS'case'
p147
aS'that'
p148
ag109
aS'v'
p149
aaa(lp150
g139
a(lp151
S'originally'
p152
aS'was'
p153
aS'filed'
p154
aS'by'
p155
aS'Walter'
p156
aS'Komak'
p157
aaa(lp158
g139
a(lp159
S'who'
p160
aS'is'
p161
aS'now'
p162
aS'present'
p163
aaa(lp164
g139
a(lp165
S'not'
p166
aS'present'
p167
aaa(lp168
g139
a(lp169
S'against'
p170
aS'Rose'
p171
aS'Black'
p172
aaa(lp173
g139
a(lp174
S'um'
p175
aaa(lp176
g139
a(lp177
S'asking'
p178
aS'for'
p179
ag109
aS'security'
p180
aS'deposit'
p181
aaa(lp182
g139
a(lp183
S'and'
p184
aS'since'
p185
aS'hes'
p186
aS'not'
p187
aS'here'
p188
aaa(lp189
g139
a(lp190
S'uh'
p191
aaa(lp192
g139
a(lp193
S'we'
p194
aS'will'
p195
aS'not'
p196
aS'rule'
p197
aS'in'
p198
aS'favor'
p199
aS'of'
p200
aS'him'
p201
aaa(lp202
g139
a(lp203
S'and'
p204
aS'then'
p205
aS'there'
p206
aS'was'
p207
ag109
aS'cross'
p208
aS'complaint'
p209
aaa(lp210
g139
a(lp211
S'defendants'
p212
aS'claim'
p213
aaa(lp214
g139
a(lp215
S'uh'
p216
aaa(lp217
g139
a(lp218
S'by'
p219
aS'uh'
p220
aS'Rose'
p221
aS'Black'
p222
aaa(lp223
g139
a(lp224
S'for'
p225
aS'fivehundred'
p226
aS'and'
p227
aS'thirtythree'
p228
aS'dollars'
p229
aaa(lp230
g139
a(lp231
S'balance'
p232
aS'of'
p233
aS'rent'
p234
aS'due'
p235
aaa(lp236
g139
a(lp237
S'at'
p238
aS'the'
p239
aS'end'
p240
aS'of'
p241
aS'the'
p242
aS'lease'
p243
aaa(lp244
g139
a(lp245
S'And'
p246
aS'Miss'
p247
aS'Black'
p248
aaa(lp249
g139
a(lp250
S'I'
p251
aS'presume'
p252
aS'youre'
p253
aS'the'
p254
aS'landlord'
p255
aaa(lp256
g139
a(lp257
S'Is'
p258
aS'that'
p259
aS'correct'
p260
aaa(lp261
S'ROSE'
p262
a(lp263
S'Yes'
p264
aaa(lp265
g262
a(lp266
S'Mhm'
p267
aaa(lp268
S'JUDGE'
p269
a(lp270
S'And'
p271
aS'was'
p272
aS'there'
p273
ag109
aS'uh'
p274
aS'written'
p275
aS'agreement'
p276
aaa(lp277
g269
a(lp278
S'or'
p279
ag109
aS'uh'
p280
aS'lease'
p281
aaa(lp282
S'ROSE'
p283
a(lp284
S'Yes'
p285
aaa(lp286
S'JUDGE'
p287
a(lp288
S'Was'
p289
aS'it'
p290
ag109
aS'l'
p291
aaa(lp292
g287
a(lp293
S'uh'
p294
aS'month'
p295
aS'to'
p296
aS'month'
p297
aaa(lp298
g287
a(lp299
S'or'
p300
ag109
aS'uh'
p301
aaa(lp302
S'ROSE'
p303
a(lp304
S'A'
p305
aS'year'
p306
aaa(lp307
S'JUDGE'
p308
a(lp309
g305
aS'oneyear'
p310
aS'lease'
p311
aaa(lp312
S'ROSE'
p313
a(lp314
S'One'
p315
aS'year'
p316
aS'lease'
p317
aaa(lp318
S'JUDGE'
p319
a(lp320
S'Let'
p321
aS'me'
p322
aS'see'
p323
aS'that'
p324
aS'please'
p325
aaa(lp326
g319
a(lp327
S'Okay'
p328
aaa(lp329
g319
a(lp330
S'So'
p331
aS'now'
p332
aaa(lp333
g319
a(lp334
S'uh'
p335
aaa(lp336
g319
a(lp337
S'how'
p338
aS'do'
p339
aS'you'
p340
aS'arrive'
p341
aS'at'
p342
aS'the'
p343
aS'five'
p344
aS'thirtythree'
p345
aaa(lp346
g319
a(lp347
S'you'
p348
aS'say'
p349
aS'that'
p350
aS'they'
p351
aaa(lp352
g319
a(lp353
S'that'
p354
aS'Mister'
p355
aS'Komak'
p356
aS'owes'
p357
aS'you'
p358
aaa(lp359
S'ROSE'
p360
a(lp361
S'Uh'
p362
aS'this'
p363
aS'was'
p364
aS'the'
p365
aaa(lp366
g360
a(lp367
S'um'
p368
aaa(lp369
g360
a(lp370
S'breakdown'
p371
aS'of'
p372
aS'the'
p373
aS'security'
p374
aS'deposit'
p375
aaa(lp376
S'JUDGE'
p377
a(lp378
S'Let'
p379
aS'me'
p380
aS'see'
p381
aS'that'
p382
aS'please'
p383
aaa(lp384
g377
a(lp385
S'So'
p386
aS'there'
p387
aS'was'
p388
aS'original'
p389
aS'security'
p390
aS'deposit'
p391
aS'of'
p392
aS'eighteenhundred'
p393
aS'and'
p394
aS'seventyfive'
p395
aS'dollars'
p396
aaa(lp397
S'ROSE'
p398
a(lp399
S'Thats'
p400
aS'correct'
p401
aaa(lp402
S'JUDGE'
p403
a(lp404
S'And'
p405
aS'then'
p406
aS'you'
p407
aS'did'
p408
aS'some'
p409
aS'repairs'
p410
aS'on'
p411
aS'uh'
p412
aaa(lp413
g403
a(lp414
S'reinstalling'
p415
aS'screens'
p416
aaa(lp417
S'ROSE'
p418
a(lp419
S'Right'
p420
aaa(lp421
S'JUDGE'
p422
a(lp423
S'Okay'
p424
aaa(lp425
g422
a(lp426
S'How'
p427
aS'come'
p428
aS'they'
p429
aS'were'
p430
aaa(lp431
g422
a(lp432
S'it'
p433
aS'was'
p434
aS'necessary'
p435
aS'to'
p436
aS'do'
p437
aS'that'
p438
aaa(lp439
S'ROSE'
p440
a(lp441
S'They'
p442
aS'had'
p443
aS'removed'
p444
aS'the'
p445
aS'screens'
p446
aaa(lp447
S'JUDGE'
p448
a(lp449
S'Okay'
p450
aaa(lp451
g448
a(lp452
S'Alright'
p453
aaa(lp454
g448
a(lp455
S'And'
p456
aS'then'
p457
aS'um'
p458
aaa(lp459
g448
a(lp460
S'they'
p461
aS'owed'
p462
aS'some'
p463
aS'rent'
p464
aaa(lp465
g448
a(lp466
S'They'
p467
aS'were'
p468
aS'behind'
p469
aS'in'
p470
aS'their'
p471
aS'rent'
p472
aaa(lp473
S'ROSE'
p474
a(lp475
S'Uh'
p476
aaa(lp477
g474
a(lp478
S'they'
p479
aS'were'
p480
aS'not'
p481
aS'behind'
p482
aS'in'
p483
aS'the'
p484
aS'rent'
p485
aaa(lp486
g474
a(lp487
S'the'
p488
aaa(lp489
g474
a(lp490
S'The'
p491
aS'lease'
p492
aS'was'
p493
aS'terminated'
p494
aaa(lp495
g474
a(lp496
S'because'
p497
aS'of'
p498
aS'their'
p499
aS'behavior'
p500
aaa(lp501
g474
a(lp502
S'They'
p503
aS'broke'
p504
aS'uh'
p505
aS's'
p506
aS'one'
p507
aS'of'
p508
aS'the'
p509
aS'conditions'
p510
aS'of'
p511
aS'the'
p512
aS'lease'
p513
aaa(lp514
g474
a(lp515
S'which'
p516
aS'was'
p517
aS'not'
p518
aS'to'
p519
aS'disturb'
p520
aS'the'
p521
aS'other'
p522
aS'tenants'
p523
aS'there'
p524
aaa(lp525
S'JUDGE'
p526
a(lp527
S'Okay'
p528
aaa(lp529
S'ROSE'
p530
a(lp531
S'So'
p532
ag251
aS'had'
p533
aS'to'
p534
aS'give'
p535
aS'them'
p536
ag109
aS'threeday'
p537
aS'notice'
p538
aS'to'
p539
aS'leave'
p540
aaa(lp541
S'JUDGE'
p542
a(lp543
S'T'
p544
aS'uh'
p545
aaa(lp546
g542
a(lp547
S'threeday'
p548
aS'notice'
p549
aS'to'
p550
aaa(lp551
S'ROSE'
p552
a(lp553
S'Quit'
p554
aaa(lp555
S'JUDGE'
p556
a(lp557
S'Well'
p558
ag251
aS'know'
p559
aaa(lp560
g556
a(lp561
S'but'
p562
aaa(lp563
g556
a(lp564
S'normally'
p565
aS'you'
p566
aS'would'
p567
aS'give'
p568
aS'em'
p569
aS'threeday'
p570
aS'notice'
p571
aS'to'
p572
aS'perform'
p573
aS'uh'
p574
aaa(lp575
S'ROSE'
p576
a(lp577
g56
aaa(lp578
g576
a(lp579
g56
aS'Okay'
p580
ag56
aaa(lp581
S'JUDGE'
p582
a(lp583
S'One'
p584
aS'of'
p585
aS'the'
p586
aS'covenants'
p587
aaa(lp588
g582
a(lp589
S'such'
p590
aS'as'
p591
aS'uh'
p592
aaa(lp593
S'X'
p594
a(lp595
aa(lp596
S'JUDGE'
p597
a(lp598
S'keep'
p599
aS'quiet'
p600
aaa(lp601
S'ROSE'
p602
a(lp603
aa(lp604
g602
a(lp605
S'They'
p606
aS'were'
p607
aS'not'
p608
aS'able'
p609
aS'to'
p610
aS'be'
p611
aS'quiet'
p612
aaa(lp613
g602
a(lp614
S'Um'
p615
aS'what'
p616
aS'ha'
p617
aaa(lp618
S'JUDGE'
p619
a(lp620
S'Okay'
p621
aaa(lp622
g619
a(lp623
S'so'
p624
aS'then'
p625
aS'they'
p626
aaa(lp627
g619
a(lp628
S'So'
p629
aS'then'
p630
aS'they'
p631
aS'left'
p632
aS'within'
p633
aS'that'
p634
aS'three'
p635
aS'days'
p636
aaa(lp637
S'ROSE'
p638
a(lp639
S'No'
p640
aaa(lp641
g638
a(lp642
S'They'
p643
aS'left'
p644
ag109
aS'month'
p645
aS'later'
p646
aaa(lp647
g638
a(lp648
S'At'
p649
aS'the'
p650
aS'end'
p651
aS'of'
p652
aS'June'
p653
aaa(lp654
g638
a(lp655
S'They'
p656
aS'paid'
p657
aS'the'
p658
aS'rent'
p659
aS'for'
p660
aS'June'
p661
aaa(lp662
S'JUDGE'
p663
a(lp664
S'Okay'
p665
aaa(lp666
S'ROSE'
p667
a(lp668
S'and'
p669
aS'they'
p670
aS'left'
p671
aaa(lp672
g667
a(lp673
S'uh'
p674
aS'July'
p675
aS'first'
p676
aaa(lp677
g667
a(lp678
S'And'
p679
aS'there'
p680
aS'were'
p681
aS'two'
p682
aS'months'
p683
aS'left'
p684
aS'of'
p685
aS'the'
p686
aS'lease'
p687
aaa(lp688
S'JUDGE'
p689
a(lp690
S'D'
p691
aaa(lp692
S'ROSE'
p693
a(lp694
S'XX'
p695
aaa(lp696
S'JUDGE'
p697
a(lp698
S'And'
p699
aS'rents'
p700
aS'uh'
p701
aaa(lp702
g697
a(lp703
S'thousand'
p704
aS'uh'
p705
aaa(lp706
g697
a(lp707
S'twohundred'
p708
aaa(lp709
S'ROSE'
p710
a(lp711
S'Twelve'
p712
aS'seventyfive'
p713
aaa(lp714
S'JUDGE'
p715
a(lp716
S'five'
p717
aaa(lp718
g715
a(lp719
S'Okay'
p720
aaa(lp721
S'ROSE'
p722
a(lp723
S'Mhm'
p724
aaa(lp725
S'JUDGE'
p726
a(lp727
S'Now'
p728
aaa(lp729
g726
a(lp730
S'um'
p731
aaa(lp732
g726
a(lp733
S'did'
p734
aS'you'
p735
aS'rerent'
p736
aS'the'
p737
aaa(lp738
g726
a(lp739
S'rerent'
p740
aS'the'
p741
aS'premises'
p742
aaa(lp743
S'ROSE'
p744
a(lp745
S'Yes'
p746
ag251
aS'did'
p747
aaa(lp748
g744
a(lp749
S'As'
p750
aS'of'
p751
aS'August'
p752
aS'twentyeighth'
p753
aaa(lp754
g744
a(lp755
S'So'
p756
aS'it'
p757
aS'reduced'
p758
aaa(lp759
g744
a(lp760
S'uh'
p761
aaa(lp762
g744
a(lp763
S'that'
p764
aS'sevenhundred'
p765
aS'three'
p766
aaa(lp767
g744
a(lp768
S'to'
p769
aS'five'
p770
aS'thirtythree'
p771
aaa(lp772
S'JUDGE'
p773
a(lp774
S'Uh'
p775
aaa(lp776
g773
a(lp777
S'seven'
p778
aS'thirtythr'
p779
aaa(lp780
g773
a(lp781
S'Im'
p782
aS'not'
p783
aS'sure'
p784
aS'wh'
p785
aS'where'
p786
aS'the'
p787
aS'seven'
p788
aS'thirtythree'
p789
aS'comes'
p790
aS'in'
p791
aaa(lp792
S'ROSE'
p793
a(lp794
S'Seven'
p795
aS'o'
p796
aS'three'
p797
aS'was'
p798
aS'the'
p799
aS'balance'
p800
aS'that'
p801
aS'they'
p802
aS'owed'
p803
aS'me'
p804
aaa(lp805
S'JUDGE'
p806
a(lp807
S'Seven'
p808
ag796
aS'three'
p809
aaa(lp810
S'ROSE'
p811
a(lp812
S'after'
p813
aS'they'
p814
aS'moved'
p815
aS'out'
p816
aaa(lp817
S'JUDGE'
p818
a(lp819
S'Right'
p820
aaa(lp821
g818
a(lp822
S'But'
p823
aS'theres'
p824
ag109
aS'credit'
p825
aaa(lp826
g818
a(lp827
S'because'
p828
aS'they'
p829
aS'm'
p830
aaa(lp831
g818
a(lp832
S'you'
p833
aS'got'
p834
aaa(lp835
S'ROSE'
p836
a(lp837
S'Thats'
p838
aS'correct'
p839
aaa(lp840
S'JUDGE'
p841
a(lp842
S'Okay'
p843
aaa(lp844
g841
a(lp845
S'So'
p846
aS'youre'
p847
aS'giving'
p848
ag109
aS'threedays'
p849
aS'uh'
p850
aS'credit'
p851
aaa(lp852
g841
a(lp853
S'and'
p854
aS'how'
p855
aS'much'
p856
aS'is'
p857
aS'the'
p858
aS'daily'
p859
aS'rent'
p860
aaa(lp861
S'ROSE'
p862
a(lp863
S'Mm'
p864
aaa(lp865
g862
a(lp866
S'It'
p867
aS'was'
p868
aS'fortytwo'
p869
aS'fifty'
p870
aaa(lp871
S'JUDGE'
p872
a(lp873
S'Okay'
p874
aaa(lp875
g872
a(lp876
S'So'
p877
aaa(lp878
g872
a(lp879
S'how'
p880
aS'much'
p881
aS'do'
p882
aS'you'
p883
aS'say'
p884
aS'they'
p885
aS'now'
p886
aS'owe'
p887
aS'you'
p888
aaa(lp889
S'ROSE'
p890
a(lp891
S'Fivehundred'
p892
aS'and'
p893
aS'thirtythree'
p894
aS'dollar'
p895
aaa(lp896
S'JUDGE'
p897
a(lp898
g56
aS'And'
p899
ag251
aS'dont'
p900
ag56
aaa(lp901
g897
a(lp902
S'and'
p903
aS'thats'
p904
aS'what'
p905
aS'you'
p906
aS'put'
p907
aS'down'
p908
aS'on'
p909
aS'your'
p910
aS'cross'
p911
aS'complaint'
p912
aaa(lp913
S'ROSE'
p914
a(lp915
S'Thats'
p916
aS'correct'
p917
aaa(lp918
S'JUDGE'
p919
a(lp920
g251
aS'see'
p921
aaa(lp922
S'ROSE'
p923
a(lp924
S'Mhm'
p925
aaa(lp926
S'JUDGE'
p927
a(lp928
S'Okay'
p929
aaa(lp930
g927
a(lp931
S'Well'
p932
aS'that'
p933
aS'seems'
p934
aS'uh'
p935
aaa(lp936
g927
a(lp937
S'fundamentally'
p938
aS'fair'
p939
aaa(lp940
g927
a(lp941
S'and'
p942
aS'theyre'
p943
aS'not'
p944
aS'disputing'
p945
aS'it'
p946
aaa(lp947
g927
a(lp948
S'so'
p949
ag251
aS'will'
p950
aS'grant'
p951
aS'you'
p952
aS'your'
p953
aS'request'
p954
aaa(lp955
g927
a(lp956
S'And'
p957
ag251
aS'will'
p958
aS'hand'
p959
aS'back'
p960
aS'your'
p961
aS'documents'
p962
aaa(lp963
S'ROSE'
p964
a(lp965
S'Thank'
p966
aS'you'
p967
aS'very'
p968
aS'much'
p969
aaa(lp970
g964
a(lp971
g102
aS'And'
p972
aS'how'
p973
aS'do'
p974
ag251
aS'get'
p975
aS'them'
p976
aS'to'
p977
aS'pay'
p978
aaa(lp979
g964
a(lp980
g102
aaa(lp981
S'BAILIFF'
p982
a(lp983
g102
aS'Go'
p984
aS'to'
p985
aS'the'
p986
aS'small'
p987
aS'claims'
p988
aS'court'
p989
aS'office'
p990
aaa(lp991
g982
a(lp992
S'they'
p993
aS'have'
p994
aS'some'
p995
aS'paper'
p996
aS'work'
p997
ag102
aaa(lp998
S'ROSE'
p999
a(lp1000
g102
aS'Thank'
p1001
aS'you'
p1002
ag102
aaa(lp1003
S'X'
p1004
a(lp1005
S'XXX'
p1006
aaa(lp1007
S'BAILIFF'
p1008
a(lp1009
g102
aS'Theres'
p1010
ag109
aS'smallclaims'
p1011
aS'advisor'
p1012
aS'that'
p1013
aS'you'
p1014
aS'can'
p1015
aS'ask'
p1016
ag102
aaa(lp1017
S'ROSE'
p1018
a(lp1019
g102
aS'Thank'
p1020
aS'you'
p1021
ag102
aaa(lp1022
S'JUDGE'
p1023
a(lp1024
S'Okay'
p1025
aaa(lp1026
g1023
a(lp1027
S'the'
p1028
aS'next'
p1029
aS'case'
p1030
aS'will'
p1031
aS'be'
p1032
aS'uh'
p1033
aaa(lp1034
g1023
a(lp1035
S'Mitchell'
p1036
aS'Roberts'
p1037
aaa(lp1038
g1023
a(lp1039
S'versus'
p1040
aS'uh'
p1041
aS'Matthew'
p1042
aS'Collins'
p1043
aaa(lp1044
g1023
a(lp1045
S'ABC'
p1046
aS'Builders'
p1047
aS'Interiors'
p1048
aaa(lp1049
S'BAILIFF'
p1050
a(lp1051
S'This'
p1052
aaa(lp1053
g1050
a(lp1054
S'both'
p1055
aS'sides'
p1056
aS'are'
p1057
aS'here'
p1058
aaa(lp1059
g1050
a(lp1060
S'Is'
p1061
aS'this'
p1062
aS'contested'
p1063
aaa(lp1064
S'MITCHELL'
p1065
a(lp1066
g56
aaa(lp1067
S'BAILIFF'
p1068
a(lp1069
S'Whos'
p1070
aS'Mitchell'
p1071
aS'Roberts'
p1072
aaa(lp1073
S'MITCHELL'
p1074
a(lp1075
S'Right'
p1076
aS'here'
p1077
aaa(lp1078
S'BAILIFF'
p1079
a(lp1080
S'Okay'
p1081
aaa(lp1082
g1079
a(lp1083
S'Sit'
p1084
aS'on'
p1085
aS'this'
p1086
aS'side'
p1087
aS'here'
p1088
aaa(lp1089
g1079
a(lp1090
S'XXX'
p1091
aaa(lp1092
S'X'
p1093
a(lp1094
g102
aS'Sure'
p1095
ag102
aaa(lp1096
S'BAILIFF'
p1097
a(lp1098
S'Whos'
p1099
aS'the'
p1100
aS'party'
p1101
aS'being'
p1102
ag506
aS'served'
p1103
aaa(lp1104
g1097
a(lp1105
S'You'
p1106
aS'are'
p1107
aaa(lp1108
S'X'
p1109
a(lp1110
S'Thank'
p1111
aS'you'
p1112
aaa(lp1113
S'BAILIFF'
p1114
a(lp1115
S'Nice'
p1116
aS'pen'
p1117
aaa(lp1118
g1114
a(lp1119
g56
aS'Alright'
p1120
ag56
aaa(lp1121
S'JUDGE'
p1122
a(lp1123
S'Okay'
p1124
aaa(lp1125
g1122
a(lp1126
S'lets'
p1127
aS'see'
p1128
aaa(lp1129
g1122
a(lp1130
S'whos'
p1131
aS'here'
p1132
aS'now'
p1133
aaa(lp1134
g1122
a(lp1135
S'Mister'
p1136
aS'Roberts'
p1137
aaa(lp1138
S'MITCHELL'
p1139
a(lp1140
S'Right'
p1141
aS'here'
p1142
aaa(lp1143
S'JUDGE'
p1144
a(lp1145
S'And'
p1146
aS'you'
p1147
aS'brought'
p1148
aS'an'
p1149
aS'action'
p1150
aaa(lp1151
g1144
a(lp1152
S'against'
p1153
aS'uh'
p1154
aS'Matthew'
p1155
aS'Collins'
p1156
aaa(lp1157
g1144
a(lp1158
S'for'
p1159
aS'um'
p1160
aaa(lp1161
g1144
a(lp1162
S'roughly'
p1163
aS'sevenhundred'
p1164
aS'dollars'
p1165
aaa(lp1166
g1144
a(lp1167
S'for'
p1168
aS'labor'
p1169
aS'installing'
p1170
ag109
aS'carpet'
p1171
aaa(lp1172
g1144
a(lp1173
g544
aS'uh'
p1174
aaa(lp1175
g1144
a(lp1176
S'during'
p1177
aS'last'
p1178
aS'uh'
p1179
aS'August'
p1180
aS'to'
p1181
aS'September'
p1182
aaa(lp1183
g1144
a(lp1184
S'okay'
p1185
aaa(lp1186
g1144
a(lp1187
S'and'
p1188
aS'uh'
p1189
aaa(lp1190
g1144
a(lp1191
S'just'
p1192
aS'tell'
p1193
aS'me'
p1194
aS'about'
p1195
aS'how'
p1196
aS'you'
p1197
aS'arrived'
p1198
aS'at'
p1199
aS'uh'
p1200
aS'this'
p1201
aS'claim'
p1202
aaa(lp1203
S'MITCHELL'
p1204
a(lp1205
S'Uh'
p1206
ag251
aS'was'
p1207
aS'called'
p1208
aS'by'
p1209
aS'Matthew'
p1210
aS'here'
p1211
aaa(lp1212
g1204
a(lp1213
S'to'
p1214
aS'do'
p1215
aS'the'
p1216
aS'job'
p1217
aS'for'
p1218
aS'him'
p1219
aaa(lp1220
g1204
a(lp1221
S'So'
p1222
ag251
aS'went'
p1223
aS'out'
p1224
aS'and'
p1225
aS'looked'
p1226
aS'at'
p1227
aS'the'
p1228
aS'job'
p1229
aaa(lp1230
S'JUDGE'
p1231
a(lp1232
S'Okay'
p1233
aaa(lp1234
g1231
a(lp1235
S'you'
p1236
aS'run'
p1237
ag109
aaa(lp1238
g1231
a(lp1239
S'you'
p1240
aS'run'
p1241
ag109
ag109
aS'carpet'
p1242
aS'business'
p1243
ag251
aS'presume'
p1244
aaa(lp1245
S'MITCHELL'
p1246
a(lp1247
S'Yes'
p1248
aaa(lp1249
g1246
a(lp1250
S'Im'
p1251
ag109
aS'licensed'
p1252
aS'contractor'
p1253
aaa(lp1254
S'JUDGE'
p1255
a(lp1256
S'Okay'
p1257
aaa(lp1258
S'MITCHELL'
p1259
a(lp1260
S'Um'
p1261
aaa(lp1262
g1259
a(lp1263
S'the'
p1264
aS'job'
p1265
aS'was'
p1266
aS'out'
p1267
aS'at'
p1268
aS'UCSB'
p1269
aaa(lp1270
g1259
a(lp1271
g251
aS'went'
p1272
aS'and'
p1273
aS'estimated'
p1274
aS'the'
p1275
aS'job'
p1276
aS'for'
p1277
aS'myself'
p1278
aaa(lp1279
g1259
a(lp1280
S'to'
p1281
aS'see'
p1282
aS'if'
p1283
ag251
aS'could'
p1284
aS'take'
p1285
aS'the'
p1286
aS'job'
p1287
aaa(lp1288
g1259
a(lp1289
S'for'
p1290
aS'what'
p1291
aS'he'
p1292
aS'wanted'
p1293
aS'to'
p1294
aS'pay'
p1295
aS'for'
p1296
aS'it'
p1297
aaa(lp1298
g1259
a(lp1299
S'and'
p1300
ag251
aS'let'
p1301
aS'him'
p1302
aS'know'
p1303
aS'that'
p1304
ag251
aS'could'
p1305
aS'not'
p1306
aaa(lp1307
g1259
a(lp1308
S'Do'
p1309
aS'the'
p1310
aS'job'
p1311
aaa(lp1312
g1259
a(lp1313
g251
aS'wouldnt'
p1314
aS'make'
p1315
aS'any'
p1316
aS'money'
p1317
aaa(lp1318
g1259
a(lp1319
S'So'
p1320
aS'uh'
p1321
aaa(lp1322
g1259
a(lp1323
S'upon'
p1324
aS'me'
p1325
aS'telling'
p1326
aS'him'
p1327
aS'that'
p1328
aaa(lp1329
g1259
a(lp1330
S'he'
p1331
aS'offered'
p1332
aaa(lp1333
g1259
a(lp1334
S'to'
p1335
aS'pay'
p1336
aS'my'
p1337
aS'employees'
p1338
aaa(lp1339
g1259
a(lp1340
S'fill'
p1341
aS'out'
p1342
aaa(lp1343
g1259
a(lp1344
S'he'
p1345
aS'had'
p1346
aS'em'
p1347
aS'fill'
p1348
aS'out'
p1349
aS'doubleu'
p1350
aS'two'
p1351
aS'forms'
p1352
aS'all'
p1353
aS'of'
p1354
aS'em'
p1355
aaa(lp1356
g1259
a(lp1357
S'and'
p1358
ag56
aS'he'
p1359
ag56
aS'paid'
p1360
aS'him'
p1361
aaa(lp1362
g1259
a(lp1363
S'to'
p1364
aS'lessen'
p1365
aS'the'
p1366
aS'burden'
p1367
aS'of'
p1368
aS'payment'
p1369
aS'on'
p1370
aS'me'
p1371
aaa(lp1372
g1259
a(lp1373
S'so'
p1374
aS'that'
p1375
ag251
aS'in'
p1376
aS'turn'
p1377
aS'would'
p1378
aS'make'
p1379
aS'more'
p1380
aS'money'
p1381
aS'off'
p1382
aS'the'
p1383
aS'job'
p1384
aaa(lp1385
g1259
a(lp1386
g251
aS'agreed'
p1387
aS'to'
p1388
aS'that'
p1389
aaa(lp1390
g1259
a(lp1391
S'after'
p1392
aS'about'
p1393
aaa(lp1394
S'JUDGE'
p1395
a(lp1396
S'Ca'
p1397
aS'is'
p1398
aS'that'
p1399
ag109
aS'normal'
p1400
aS'procedure'
p1401
aS'XX'
p1402
aaa(lp1403
S'MITCHELL'
p1404
a(lp1405
S'Not'
p1406
aS'at'
p1407
aS'all'
p1408
aaa(lp1409
g1404
a(lp1410
S'He'
p1411
aS'wanted'
p1412
aS'me'
p1413
aS'to'
p1414
aS'do'
p1415
aS'the'
p1416
aS'job'
p1417
aaa(lp1418
g1404
a(lp1419
S'so'
p1420
aS'he'
p1421
aS'offered'
p1422
aS'to'
p1423
aS'take'
p1424
aS'some'
p1425
aS'of'
p1426
aS'the'
p1427
aS'monitory'
p1428
aS'burden'
p1429
aS'off'
p1430
aS'my'
p1431
aS'back'
p1432
aaa(lp1433
g1404
a(lp1434
S'so'
p1435
aS'that'
p1436
ag251
aS'could'
p1437
aS'do'
p1438
aS'it'
p1439
aS'for'
p1440
aS'the'
p1441
aS'agreed'
p1442
aS'amounts'
p1443
aS'that'
p1444
aS'we'
p1445
aS'were'
p1446
aS'gonna'
p1447
aS'do'
p1448
aS'it'
p1449
aS'on'
p1450
aaa(lp1451
S'JUDGE'
p1452
a(lp1453
S'So'
p1454
aS'in'
p1455
aS'other'
p1456
aS'words'
p1457
aaa(lp1458
g1452
a(lp1459
S'your'
p1460
aaa(lp1461
g1452
a(lp1462
S'your'
p1463
aS'helpers'
p1464
aS'would'
p1465
aS'really'
p1466
aS'be'
p1467
aS'his'
p1468
aS'employees'
p1469
aS'for'
p1470
aS'the'
p1471
aS'purpose'
p1472
aS'of'
p1473
aS'this'
p1474
aS'job'
p1475
aaa(lp1476
S'MITCHELL'
p1477
a(lp1478
S'Thats'
p1479
aS'correct'
p1480
aaa(lp1481
g1477
a(lp1482
S'He'
p1483
aS'had'
p1484
aS'em'
p1485
aS'all'
p1486
aS'fill'
p1487
aS'out'
p1488
aS'the'
p1489
aS'plo'
p1490
aS'proper'
p1491
aS'forms'
p1492
aaa(lp1493
S'JUDGE'
p1494
a(lp1495
S'So'
p1496
aS'then'
p1497
aS'your'
p1498
aS'costs'
p1499
aS'would'
p1500
aS'be'
p1501
aS'reduced'
p1502
aS'there'
p1503
aS'as'
p1504
aS'far'
p1505
aS'as'
p1506
aaa(lp1507
S'MITCHELL'
p1508
a(lp1509
S'Thats'
p1510
aS'correct'
p1511
aaa(lp1512
S'JUDGE'
p1513
a(lp1514
S'Alright'
p1515
aaa(lp1516
S'MITCHELL'
p1517
a(lp1518
S'Uh'
p1519
aaa(lp1520
g1517
a(lp1521
g251
aS'went'
p1522
aS'to'
p1523
aS'receive'
p1524
aS'my'
p1525
aS'check'
p1526
aaa(lp1527
g1517
a(lp1528
S'of'
p1529
aS'which'
p1530
aaa(lp1531
g1517
a(lp1532
S'we'
p1533
aS'had'
p1534
aS'agreed'
p1535
aaa(lp1536
g1517
a(lp1537
S'that'
p1538
aS'he'
p1539
aS'would'
p1540
aS'deduct'
p1541
aaa(lp1542
g1517
a(lp1543
S'the'
p1544
aS'amount'
p1545
aS'of'
p1546
aS'the'
p1547
aS'hourly'
p1548
aS'wage'
p1549
aaa(lp1550
g1517
a(lp1551
S'that'
p1552
aS'he'
p1553
aS'was'
p1554
aaa(lp1555
S'JUDGE'
p1556
a(lp1557
S'Was'
p1558
aS'this'
p1559
aS'agreement'
p1560
aS'in'
p1561
aS'writing'
p1562
aaa(lp1563
g1556
a(lp1564
S'or'
p1565
aS'verbal'
p1566
aaa(lp1567
S'MITCHELL'
p1568
a(lp1569
S'Completely'
p1570
aS'verbal'
p1571
aaa(lp1572
g1568
a(lp1573
S'Ive'
p1574
aS'been'
p1575
aS'working'
p1576
aS'with'
p1577
aS'him'
p1578
aS'for'
p1579
aS'like'
p1580
aS'six'
p1581
aS'years'
p1582
aaa(lp1583
g1568
a(lp1584
S'Uh'
p1585
aaa(lp1586
g1568
a(lp1587
S'upon'
p1588
ag109
aS'reve'
p1589
aS'uh'
p1590
aaa(lp1591
g1568
a(lp1592
S'uh'
p1593
aS'receiving'
p1594
aS'my'
p1595
aS'check'
p1596
aaa(lp1597
g1568
a(lp1598
S'uh'
p1599
aaa(lp1600
g1568
a(lp1601
S'for'
p1602
aS'about'
p1603
aS'two'
p1604
aS'and'
p1605
ag109
aS'half'
p1606
aS'weeks'
p1607
aS'of'
p1608
aS'work'
p1609
aaa(lp1610
g1568
a(lp1611
S'approximately'
p1612
aS'between'
p1613
aS'fifty'
p1614
aS'and'
p1615
aS'seventy'
p1616
aS'hours'
p1617
aaa(lp1618
g1568
a(lp1619
g251
aS'was'
p1620
aS'paid'
p1621
aS'threehundred'
p1622
aS'and'
p1623
aS'sixteen'
p1624
aS'dollars'
p1625
aS'and'
p1626
aS'fiftyone'
p1627
aS'cents'
p1628
aaa(lp1629
g1568
a(lp1630
S'So'
p1631
ag251
aS'approached'
p1632
aS'him'
p1633
aS'with'
p1634
aS'it'
p1635
aaa(lp1636
g1568
a(lp1637
S'and'
p1638
aS'he'
p1639
aS'handed'
p1640
aS'me'
p1641
aS'this'
p1642
aS'yellow'
p1643
aS'piece'
p1644
aS'of'
p1645
aS'paper'
p1646
aS'here'
p1647
aaa(lp1648
g1568
a(lp1649
S'and'
p1650
aS'noted'
p1651
aS'that'
p1652
aaa(lp1653
g1568
a(lp1654
S'what'
p1655
aS'the'
p1656
aS'employees'
p1657
aS'made'
p1658
aaa(lp1659
g1568
a(lp1660
S'and'
p1661
aS'uh'
p1662
aaa(lp1663
g1568
a(lp1664
S'at'
p1665
aS'twentysix'
p1666
aS'percent'
p1667
aS'less'
p1668
aS'deduction'
p1669
aS'on'
p1670
aS'these'
p1671
aS'two'
p1672
aS'employees'
p1673
aaa(lp1674
g1568
a(lp1675
S'Which'
p1676
aS'was'
p1677
aS'the'
p1678
aS'employer'
p1679
aS'contribution'
p1680
aaa(lp1681
g1568
a(lp1682
S'So'
p1683
ag251
aS'noted'
p1684
aS'to'
p1685
aS'him'
p1686
aS'that'
p1687
aS'he'
p1688
aS'was'
p1689
aS'supposed'
p1690
aS'to'
p1691
aS'pay'
p1692
aS'that'
p1693
aaa(lp1694
g1568
a(lp1695
S'he'
p1696
aS'said'
p1697
aaa(lp1698
g1568
a(lp1699
S'uh'
p1700
aS'n'
p1701
aaa(lp1702
g1568
a(lp1703
S'no'
p1704
aaa(lp1705
g1568
a(lp1706
S'youre'
p1707
aS'gonna'
p1708
aS'pay'
p1709
aS'it'
p1710
aaa(lp1711
g1568
a(lp1712
S'So'
p1713
ag251
aS'said'
p1714
aS'thats'
p1715
aS'not'
p1716
aS'as'
p1717
aS'per'
p1718
aS'our'
p1719
aS'agreement'
p1720
aaa(lp1721
g1568
a(lp1722
S'he'
p1723
aS'said'
p1724
aS'yes'
p1725
aS'it'
p1726
aS'is'
p1727
aaa(lp1728
g1568
a(lp1729
S'he'
p1730
aS'handed'
p1731
aS'me'
p1732
aS'my'
p1733
aS'check'
p1734
aaa(lp1735
g1568
a(lp1736
S'rolled'
p1737
aS'up'
p1738
aS'his'
p1739
aS'window'
p1740
aaa(lp1741
g1568
a(lp1742
S'and'
p1743
aS'drove'
p1744
aS'off'
p1745
aaa(lp1746
g1568
a(lp1747
S'And'
p1748
aS'hes'
p1749
aS'there'
p1750
aS'to'
p1751
aS'state'
p1752
aaa(lp1753
g1568
a(lp1754
S'hes'
p1755
aaa(lp1756
g1568
a(lp1757
S'he'
p1758
aS'saw'
p1759
aS'that'
p1760
aaa(lp1761
g1568
a(lp1762
S'and'
p1763
aS'was'
p1764
aS'witness'
p1765
aS'to'
p1766
aS'that'
p1767
aaa(lp1768
g1568
a(lp1769
g251
aS'have'
p1770
ag109
aS'letter'
p1771
aaa(lp1772
S'JUDGE'
p1773
a(lp1774
g251
aS'don'
p1775
ag251
aS'dont'
p1776
aS'think'
p1777
aS'its'
p1778
aS'relevant'
p1779
aS'that'
p1780
aS'he'
p1781
aS'rolled'
p1782
aS'up'
p1783
aS'his'
p1784
aS'window'
p1785
aS'and'
p1786
aS'drove'
p1787
aS'off'
p1788
ag56
aaa(lp1789
S'MITCHELL'
p1790
a(lp1791
S'Well'
p1792
aaa(lp1793
g1790
a(lp1794
g251
aS'know'
p1795
aaa(lp1796
g1790
a(lp1797
S'But'
p1798
aaa(lp1799
g1790
a(lp1800
S'that'
p1801
aaa(lp1802
g1790
a(lp1803
S'that'
p1804
aS'was'
p1805
aS'the'
p1806
aS'end'
p1807
aS'of'
p1808
aS'our'
p1809
aS'thing'
p1810
aaa(lp1811
g1790
a(lp1812
g251
aS'tried'
p1813
aS'to'
p1814
aS'contact'
p1815
aS'him'
p1816
aS'everything'
p1817
aaa(lp1818
g1790
a(lp1819
S'finally'
p1820
ag251
aS'uh'
p1821
aS'contacted'
p1822
aS'my'
p1823
aS'attorney'
p1824
aaa(lp1825
g1790
a(lp1826
S'Id'
p1827
aS'like'
p1828
aS'to'
p1829
aS'present'
p1830
aS'this'
p1831
aS'letter'
p1832
aS'to'
p1833
aS'you'
p1834
aS'here'
p1835
aaa(lp1836
S'JUDGE'
p1837
a(lp1838
S'Okay'
p1839
aaa(lp1840
g1837
a(lp1841
S'If'
p1842
ag251
aS'may'
p1843
aS'look'
p1844
aS'at'
p1845
aS'that'
p1846
aaa(lp1847
g1837
a(lp1848
S'And'
p1849
aaa(lp1850
g1837
a(lp1851
S'have'
p1852
aS'you'
p1853
aS'shown'
p1854
aS'that'
p1855
aS'to'
p1856
aS'uh'
p1857
aS'Mister'
p1858
aS'Collins'
p1859
aaa(lp1860
S'MITCHELL'
p1861
a(lp1862
S'Yes'
p1863
aS'please'
p1864
aaa(lp1865
g1861
a(lp1866
S'Yes'
p1867
aaa(lp1868
g1861
a(lp1869
S'He'
p1870
aS'has'
p1871
aaa(lp1872
g1861
a(lp1873
S'he'
p1874
aS'has'
p1875
aS'received'
p1876
ag109
aS'copy'
p1877
aS'of'
p1878
aS'that'
p1879
aS'letter'
p1880
aaa(lp1881
S'X'
p1882
a(lp1883
aa(lp1884
S'JUDGE'
p1885
a(lp1886
S'Now'
p1887
aS'Stu'
p1888
aS'Roberts'
p1889
aS'is'
p1890
aS'an'
p1891
aS'attorney'
p1892
aaa(lp1893
g1885
a(lp1894
S'Is'
p1895
aS'that'
p1896
aS'correct'
p1897
aaa(lp1898
S'MITCHELL'
p1899
a(lp1900
S'Yes'
p1901
aS'sir'
p1902
aaa(lp1903
S'JUDGE'
p1904
a(lp1905
S'Youre'
p1906
aS'uh'
p1907
aaa(lp1908
S'MITCHELL'
p1909
a(lp1910
S'Im'
p1911
aS'his'
p1912
aS'nephew'
p1913
aaa(lp1914
S'JUDGE'
p1915
a(lp1916
g102
aS'Youre'
p1917
aS'his'
p1918
aS'nephew'
p1919
ag102
aaa(lp1920
g1915
a(lp1921
S'And'
p1922
aS'youre'
p1923
aS'Nick'
p1924
aS'Ro'
p1925
aS'Roberts'
p1926
aS'nephew'
p1927
aS'too'
p1928
aS'then'
p1929
aaa(lp1930
S'MITCHELL'
p1931
a(lp1932
S'Thats'
p1933
aS'correct'
p1934
aaa(lp1935
S'JUDGE'
p1936
a(lp1937
S'Okay'
p1938
aaa(lp1939
g1936
a(lp1940
S'So'
p1941
aS'uh'
p1942
aS'your'
p1943
aS'uncle'
p1944
aS'then'
p1945
aS'wrote'
p1946
aS'uh'
p1947
aS'Builders'
p1948
aS'uh'
p1949
ag109
aS'letter'
p1950
aaa(lp1951
g1936
a(lp1952
S'thats'
p1953
aS'what'
p1954
aS'Im'
p1955
aS'reading'
p1956
aS'now'
p1957
aaa(lp1958
S'MITCHELL'
p1959
a(lp1960
S'Yes'
p1961
aS'sir'
p1962
aaa(lp1963
S'JUDGE'
p1964
a(lp1965
S'Uh'
p1966
ag251
aS'do'
p1967
aS'emphasize'
p1968
aS'that'
p1969
aS'Im'
p1970
aS'reading'
p1971
aS'it'
p1972
aaa(lp1973
g1964
a(lp1974
S'this'
p1975
aS'is'
p1976
aS'not'
p1977
aS'evidence'
p1978
aaa(lp1979
g1964
a(lp1980
S'this'
p1981
aS'is'
p1982
aS'only'
p1983
aS'y'
p1984
aS'your'
p1985
aS'story'
p1986
aaa(lp1987
g1964
a(lp1988
S'that'
p1989
aS'youve'
p1990
aS'told'
p1991
aS'Mister'
p1992
aS'Roberts'
p1993
aaa(lp1994
S'MITCHELL'
p1995
a(lp1996
S'Thats'
p1997
aS'correct'
p1998
aaa(lp1999
g1995
a(lp2000
S'Thats'
p2001
aS'correct'
p2002
aaa(lp2003
S'JUDGE'
p2004
a(lp2005
g102
aS'Okay'
p2006
ag102
aaa(lp2007
g2004
a(lp2008
S'So'
p2009
aS'really'
p2010
aS'the'
p2011
aS'dispute'
p2012
aS'then'
p2013
aS'boils'
p2014
aS'down'
p2015
aS'to'
p2016
aS'this'
p2017
aS'twentysix'
p2018
aS'percent'
p2019
aaa(lp2020
S'MITCHELL'
p2021
a(lp2022
S'Thats'
p2023
aS'it'
p2024
aS'sir'
p2025
aaa(lp2026
S'JUDGE'
p2027
a(lp2028
S'Okay'
p2029
aaa(lp2030
S'MITCHELL'
p2031
a(lp2032
S'Thats'
p2033
aS'the'
p2034
aS'reason'
p2035
aS'why'
p2036
ag251
aS'had'
p2037
aS'him'
p2038
aS'fill'
p2039
aS'out'
p2040
aS'that'
p2041
aS'portion'
p2042
aS'of'
p2043
aaa(lp2044
g2031
a(lp2045
S'or'
p2046
aS'he'
p2047
aS'wanted'
p2048
aS'to'
p2049
aS'write'
p2050
aS'those'
p2051
aS'checks'
p2052
aaa(lp2053
g2031
a(lp2054
S'Was'
p2055
aS'so'
p2056
ag251
aS'would'
p2057
aS'save'
p2058
aS'that'
p2059
aS'money'
p2060
aaa(lp2061
g2031
a(lp2062
S'so'
p2063
ag251
aS'would'
p2064
aS'do'
p2065
aS'that'
p2066
aS'job'
p2067
aaa(lp2068
S'JUDGE'
p2069
a(lp2070
S'Okay'
p2071
aaa(lp2072
S'MITCHELL'
p2073
a(lp2074
S'At'
p2075
aS'the'
p2076
aS'end'
p2077
aS'of'
p2078
aS'the'
p2079
aS'job'
p2080
aaa(lp2081
S'JUDGE'
p2082
a(lp2083
S'Mister'
p2084
aS'Collins'
p2085
ag251
aS'know'
p2086
aS'youre'
p2087
aaa(lp2088
g2082
a(lp2089
S'biting'
p2090
aS'at'
p2091
aS'the'
p2092
aS'bit'
p2093
aS'there'
p2094
aaa(lp2095
g2082
a(lp2096
S'you'
p2097
aS'wanna'
p2098
aS'say'
p2099
aS'something'
p2100
aaa(lp2101
g2082
a(lp2102
S'so'
p2103
aS'why'
p2104
aS'dont'
p2105
aS'you'
p2106
aS'go'
p2107
aS'ahead'
p2108
aaa(lp2109
S'MATTHEW'
p2110
a(lp2111
S'Okay'
p2112
aS'thank'
p2113
aS'you'
p2114
aS'your'
p2115
aS'honor'
p2116
aaa(lp2117
g2110
a(lp2118
S'Um'
p2119
aaa(lp2120
g2110
a(lp2121
S'uh'
p2122
aS'pretty'
p2123
aS'much'
p2124
aaa(lp2125
g2110
a(lp2126
S'um'
p2127
aaa(lp2128
g2110
a(lp2129
S'what'
p2130
aS'Mitchell'
p2131
aS'has'
p2132
aS'stated'
p2133
aS'is'
p2134
aS'untrue'
p2135
aaa(lp2136
g2110
a(lp2137
S'Mitchell'
p2138
aaa(lp2139
g2110
a(lp2140
S'uh'
p2141
aS'did'
p2142
aS'do'
p2143
aS'some'
p2144
aS'work'
p2145
aS'for'
p2146
aS'me'
p2147
aS'out'
p2148
aS'at'
p2149
aS'the'
p2150
aS'college'
p2151
aaa(lp2152
g2110
a(lp2153
S'we'
p2154
aS'did'
p2155
aS'the'
p2156
aS'Anacapa'
p2157
aS'Residential'
p2158
aS'Hall'
p2159
aaa(lp2160
g2110
a(lp2161
S'And'
p2162
aS'this'
p2163
aS'is'
p2164
ag109
aaa(lp2165
g2110
a(lp2166
S'eightthousandyard'
p2167
aS'job'
p2168
aaa(lp2169
g2110
a(lp2170
S'that'
p2171
aS'we'
p2172
aS'did'
p2173
aS'this'
p2174
aS'summer'
p2175
aaa(lp2176
g2110
a(lp2177
S'It'
p2178
aS'required'
p2179
aS'us'
p2180
aS'to'
p2181
aaa(lp2182
g2110
a(lp2183
S'employ'
p2184
aaa(lp2185
g2110
a(lp2186
S'oh'
p2187
aS'five'
p2188
aS'or'
p2189
aS'six'
p2190
aS'crews'
p2191
aaa(lp2192
g2110
a(lp2193
S'uh'
p2194
aS'Mitchell'
p2195
aS'Roberts'
p2196
aS'was'
p2197
aS'one'
p2198
aS'of'
p2199
aS'them'
p2200
aS'that'
p2201
aS'we'
p2202
aS'used'
p2203
aaa(lp2204
g2110
a(lp2205
S'on'
p2206
aS'the'
p2207
aS'job'
p2208
aaa(lp2209
g2110
a(lp2210
S'Uh'
p2211
aS'Mitchell'
p2212
aS'expressed'
p2213
ag109
aS'desire'
p2214
aS'to'
p2215
aS'do'
p2216
aS'the'
p2217
aS'work'
p2218
aS'out'
p2219
aS'there'
p2220
aaa(lp2221
g2110
a(lp2222
S'he'
p2223
aS'expressed'
p2224
aaa(lp2225
g2110
a(lp2226
S'he'
p2227
aS'did'
p2228
aS'not'
p2229
aS'know'
p2230
aS'how'
p2231
aS'to'
p2232
aS'handle'
p2233
aS'the'
p2234
aS'payroll'
p2235
aaa(lp2236
g2110
a(lp2237
S'Most'
p2238
aS'of'
p2239
aS'the'
p2240
aS'uh'
p2241
aS'contractors'
p2242
aS'here'
p2243
aS'in'
p2244
aS'town'
p2245
aaa(lp2246
g2110
a(lp2247
S'that'
p2248
aS'are'
p2249
aS'independents'
p2250
aS'like'
p2251
aS'Mitchell'
p2252
aaa(lp2253
g2110
a(lp2254
S'dont'
p2255
aS'know'
p2256
aS'how'
p2257
aS'to'
p2258
aS'do'
p2259
aS'prevailing'
p2260
aS'wage'
p2261
aS'statements'
p2262
aaa(lp2263
S'X'
p2264
a(lp2265
aa(lp2266
S'MATTHEW'
p2267
a(lp2268
S'The'
p2269
aS'college'
p2270
aS'is'
p2271
ag109
aS'statefunded'
p2272
aS'uh'
p2273
aS'uh'
p2274
aS'remodel'
p2275
aaa(lp2276
g2267
a(lp2277
S'and'
p2278
aS'on'
p2279
aS'statefunded'
p2280
aS'remodels'
p2281
aaa(lp2282
g2267
a(lp2283
S'were'
p2284
aS'required'
p2285
aaa(lp2286
g2267
a(lp2287
S'to'
p2288
aS'pay'
p2289
aS'prevailing'
p2290
aS'wages'
p2291
aaa(lp2292
g2267
a(lp2293
S'Uh'
p2294
aS'prevailing'
p2295
aS'wages'
p2296
aaa(lp2297
g2267
a(lp2298
S'that'
p2299
aaa(lp2300
g2267
a(lp2301
S'um'
p2302
aaa(lp2303
g2267
a(lp2304
S'that'
p2305
aS'indicate'
p2306
aS'different'
p2307
aS'levels'
p2308
aS'of'
p2309
aS'agility'
p2310
aaa(lp2311
g2267
a(lp2312
S'of'
p2313
aS'the'
p2314
aS'different'
p2315
aS'men'
p2316
aS'working'
p2317
aaa(lp2318
g2267
a(lp2319
S'And'
p2320
aS'so'
p2321
aaa(lp2322
g2267
a(lp2323
S'uh'
p2324
ag109
aS'lot'
p2325
aS'of'
p2326
aS'the'
p2327
aS'crews'
p2328
aaa(lp2329
g2267
a(lp2330
S'uh'
p2331
aaa(lp2332
g2267
a(lp2333
S'like'
p2334
aS'Mitchell'
p2335
aaa(lp2336
g2267
a(lp2337
S'who'
p2338
aS'have'
p2339
aS'people'
p2340
aS'that'
p2341
aS'work'
p2342
aS'under'
p2343
aS'him'
p2344
aaa(lp2345
g2267
a(lp2346
S'around'
p2347
aS'town'
p2348
aaa(lp2349
g2267
a(lp2350
S'in'
p2351
aS'regular'
p2352
aS'situations'
p2353
aaa(lp2354
g2267
a(lp2355
S'come'
p2356
aS'to'
p2357
aS'the'
p2358
aS'people'
p2359
aS'like'
p2360
aS'me'
p2361
aaa(lp2362
g2267
a(lp2363
S'and'
p2364
aS'ask'
p2365
aS'us'
p2366
aS'to'
p2367
aS'do'
p2368
aS'payroll'
p2369
aS'for'
p2370
aS'them'
p2371
aaa(lp2372
g2267
a(lp2373
S'When'
p2374
aS'we'
p2375
aS'do'
p2376
aS'the'
p2377
aS'payroll'
p2378
aS'for'
p2379
aS'them'
p2380
aaa(lp2381
g2267
a(lp2382
S'we'
p2383
aS'state'
p2384
aS'to'
p2385
aS'them'
p2386
aS'up'
p2387
aS'front'
p2388
aaa(lp2389
g2267
a(lp2390
S'that'
p2391
aS'uh'
p2392
aaa(lp2393
g2267
a(lp2394
S'we'
p2395
aS'will'
p2396
aS'pay'
p2397
aS'the'
p2398
aS'payroll'
p2399
aaa(lp2400
g2267
a(lp2401
S'we'
p2402
aS'will'
p2403
aS'make'
p2404
aS'the'
p2405
aS'deductions'
p2406
aaa(lp2407
g2267
a(lp2408
S'and'
p2409
aS'then'
p2410
aS'the'
p2411
aS'employer'
p2412
aS'contribution'
p2413
aaa(lp2414
g2267
a(lp2415
S'which'
p2416
aS'is'
p2417
aS'approximately'
p2418
aS'twentysix'
p2419
aS'percent'
p2420
aaa(lp2421
g2267
a(lp2422
S'over'
p2423
aS'and'
p2424
aS'above'
p2425
aS'the'
p2426
aS'hourly'
p2427
aS'wage'
p2428
aaa(lp2429
g2267
a(lp2430
S'is'
p2431
aS'also'
p2432
aS'deducted'
p2433
aaa(lp2434
g2267
a(lp2435
S'from'
p2436
aS'the'
p2437
aS'um'
p2438
aS'subcontractors'
p2439
aS'check'
p2440
aaa(lp2441
S'JUDGE'
p2442
a(lp2443
S'Now'
p2444
aS'this'
p2445
aS'uh'
p2446
aS'th'
p2447
aS'twentysix'
p2448
aS'percent'
p2449
aaa(lp2450
g2442
a(lp2451
S'thatd'
p2452
aS'be'
p2453
aS'be'
p2454
aS'social'
p2455
aS'security'
p2456
aaa(lp2457
g2442
a(lp2458
S'and'
p2459
aS'what'
p2460
aS'else'
p2461
aS'would'
p2462
aS'it'
p2463
aS'include'
p2464
aaa(lp2465
S'MATTHEW'
p2466
a(lp2467
S'Um'
p2468
aaa(lp2469
S'JUDGE'
p2470
a(lp2471
S'Sorta'
p2472
aS'like'
p2473
aS'um'
p2474
aaa(lp2475
S'MITCHELL'
p2476
a(lp2477
g56
aS'Thats'
p2478
aS'anything'
p2479
ag56
aS'above'
p2480
aS'that'
p2481
aaa(lp2482
S'MATTHEW'
p2483
a(lp2484
S'Well'
p2485
aS'you'
p2486
aS'have'
p2487
aaa(lp2488
g2483
a(lp2489
S'You'
p2490
aS'have'
p2491
aaa(lp2492
S'X'
p2493
a(lp2494
S'XXX'
p2495
aaa(lp2496
S'MATTHEW'
p2497
a(lp2498
S'you'
p2499
aS'have'
p2500
aS'that'
p2501
aaa(lp2502
g2497
a(lp2503
g251
aS'have'
p2504
ag109
aS'breakdown'
p2505
aS'here'
p2506
aaa(lp2507
g2497
a(lp2508
S'of'
p2509
aS'what'
p2510
aS'we'
p2511
aS'paid'
p2512
aS'Mitchells'
p2513
aS'men'
p2514
aaa(lp2515
S'JUDGE'
p2516
a(lp2517
S'XXXXX'
p2518
aaa(lp2519
S'MATTHEW'
p2520
a(lp2521
S'if'
p2522
aS'youd'
p2523
aS'like'
p2524
aS'to'
p2525
aS'see'
p2526
aS'that'
p2527
aaa(lp2528
S'JUDGE'
p2529
a(lp2530
S'Okay'
p2531
aaa(lp2532
g2529
a(lp2533
g251
aS'mean'
p2534
aaa(lp2535
g2529
a(lp2536
S'do'
p2537
aaa(lp2538
g2529
a(lp2539
S'yeah'
p2540
aaa(lp2541
g2529
a(lp2542
g1984
aS'you'
p2543
aS'got'
p2544
ag109
aS'total'
p2545
aS'of'
p2546
aS'uh'
p2547
aaa(lp2548
g2529
a(lp2549
S'seven'
p2550
aS'point'
p2551
aS'six'
p2552
aS'five'
p2553
aS'percent'
p2554
aS'employer'
p2555
aS'contributions'
p2556
aS'on'
p2557
aS'the'
p2558
aaa(lp2559
S'MATTHEW'
p2560
a(lp2561
S'Um'
p2562
aaa(lp2563
g2560
a(lp2564
S'that'
p2565
aS'explains'
p2566
aS'it'
p2567
aS'pretty'
p2568
aS'well'
p2569
aaa(lp2570
g2560
a(lp2571
S'theres'
p2572
aS'quite'
p2573
ag109
aS'few'
p2574
aS'deductions'
p2575
aaa(lp2576
g2560
a(lp2577
S'of'
p2578
aS'course'
p2579
aaa(lp2580
g2560
a(lp2581
g56
aaa(lp2582
S'JUDGE'
p2583
a(lp2584
S'Oh'
p2585
aS'and'
p2586
aS'and'
p2587
aS'the'
p2588
aS'oh'
p2589
aS'the'
p2590
aaa(lp2591
g2583
a(lp2592
S'the'
p2593
aS'f'
p2594
aaa(lp2595
g2583
a(lp2596
S'the'
p2597
aS'annual'
p2598
aS'unemployment'
p2599
aS'insurance'
p2600
aaa(lp2601
g2583
a(lp2602
S'and'
p2603
aS'uh'
p2604
aaa(lp2605
S'MATTHEW'
p2606
a(lp2607
S'Right'
p2608
aaa(lp2609
S'JUDGE'
p2610
a(lp2611
S'Okay'
p2612
aaa(lp2613
S'MATTHEW'
p2614
a(lp2615
S'workers'
p2616
aS'compensation'
p2617
aaa(lp2618
S'JUDGE'
p2619
a(lp2620
S'Right'
p2621
aaa(lp2622
S'MATTHEW'
p2623
a(lp2624
S'FUDA'
p2625
aS'FICA'
p2626
aaa(lp2627
g2623
a(lp2628
S'et'
p2629
aS'cetera'
p2630
aaa(lp2631
g2623
a(lp2632
S'Now'
p2633
aS'thats'
p2634
aaa(lp2635
g2623
a(lp2636
S'um'
p2637
aaa(lp2638
g2623
a(lp2639
S'in'
p2640
aS'any'
p2641
aS'payroll'
p2642
aS'deduction'
p2643
aS'situation'
p2644
aaa(lp2645
g2623
a(lp2646
S'you'
p2647
aS'have'
p2648
aaa(lp2649
g2623
a(lp2650
S'the'
p2651
aS'employee'
p2652
aS'contribution'
p2653
aaa(lp2654
g2623
a(lp2655
S'which'
p2656
aS'is'
p2657
aS'deducted'
p2658
aS'from'
p2659
aS'the'
p2660
aS'employees'
p2661
aS'wages'
p2662
aaa(lp2663
g2623
a(lp2664
S'gross'
p2665
aS'wages'
p2666
aaa(lp2667
g2623
a(lp2668
S'and'
p2669
aS'then'
p2670
aS'you'
p2671
aS'have'
p2672
aS'the'
p2673
aS'employers'
p2674
aS'contribution'
p2675
aaa(lp2676
g2623
a(lp2677
S'which'
p2678
aS'is'
p2679
aS'over'
p2680
aS'and'
p2681
aS'above'
p2682
aS'that'
p2683
aaa(lp2684
S'X'
p2685
a(lp2686
aa(lp2687
S'MATTHEW'
p2688
a(lp2689
S'Which'
p2690
aS'the'
p2691
aS'employer'
p2692
aS'has'
p2693
aS'to'
p2694
aS'pay'
p2695
aaa(lp2696
g2688
a(lp2697
S'Now'
p2698
aS'the'
p2699
aS'agreement'
p2700
aS'that'
p2701
aS'we'
p2702
aS'had'
p2703
aS'made'
p2704
aaa(lp2705
g2688
a(lp2706
S'with'
p2707
aS'all'
p2708
aS'of'
p2709
aS'the'
p2710
aS'um'
p2711
aaa(lp2712
g2688
a(lp2713
S'subcontractors'
p2714
aaa(lp2715
g2688
a(lp2716
S'uh'
p2717
aaa(lp2718
g2688
a(lp2719
S'Mark'
p2720
aS'Prestons'
p2721
aS'sitting'
p2722
aS'here'
p2723
aaa(lp2724
g2688
a(lp2725
S'which'
p2726
aS'is'
p2727
aS'testifying'
p2728
aS'for'
p2729
aS'Mitch'
p2730
aS'Roberts'
p2731
aaa(lp2732
g2688
a(lp2733
S'also'
p2734
aS'did'
p2735
aS'work'
p2736
aS'for'
p2737
aS'me'
p2738
aaa(lp2739
g2688
a(lp2740
S'and'
p2741
aS'he'
p2742
aS'was'
p2743
aS'treated'
p2744
aS'the'
p2745
aS'same'
p2746
aS'way'
p2747
aaa(lp2748
g2688
a(lp2749
S'We'
p2750
aS'paid'
p2751
aS'him'
p2752
aaa(lp2753
g2688
a(lp2754
S'we'
p2755
aS'took'
p2756
aS'his'
p2757
aS'deductions'
p2758
aS'out'
p2759
aaa(lp2760
g2688
a(lp2761
S'as'
p2762
aS'well'
p2763
aS'as'
p2764
aS'that'
p2765
aaa(lp2766
g2688
a(lp2767
S'and'
p2768
aaa(lp2769
g2688
a(lp2770
S'so'
p2771
aS'we'
p2772
aaa(lp2773
g2688
a(lp2774
S'uh'
p2775
aS'did'
p2776
aS'that'
p2777
aaa(lp2778
g2688
a(lp2779
S'with'
p2780
aS'everybody'
p2781
aaa(lp2782
S'JUDGE'
p2783
a(lp2784
S'Okay'
p2785
aS'wai'
p2786
aaa(lp2787
g2783
a(lp2788
g251
aS'wanna'
p2789
aS'make'
p2790
aS'sure'
p2791
aS'now'
p2792
aaa(lp2793
g2783
a(lp2794
S'That'
p2795
aS'would'
p2796
aS'be'
p2797
aS'fine'
p2798
aS'if'
p2799
aS'that'
p2800
aS'was'
p2801
aS'the'
p2802
aS'agreement'
p2803
aaa(lp2804
g2783
a(lp2805
S'Now'
p2806
aS'you'
p2807
aS'say'
p2808
aS'that'
p2809
aS'the'
p2810
aS'w'
p2811
aaa(lp2812
g2783
a(lp2813
S'you'
p2814
aS'under'
p2815
aaa(lp2816
g2783
a(lp2817
S'you'
p2818
aS'explained'
p2819
aS'that'
p2820
aS'to'
p2821
aS'Mister'
p2822
aS'Roberts'
p2823
aaa(lp2824
S'MATTHEW'
p2825
a(lp2826
S'Uh'
p2827
aS'yes'
p2828
aS'sir'
p2829
aaa(lp2830
g2825
a(lp2831
S'Before'
p2832
aS'he'
p2833
aS'went'
p2834
aS'to'
p2835
aS'work'
p2836
aaa(lp2837
S'JUDGE'
p2838
a(lp2839
S'Okay'
p2840
aaa(lp2841
g2838
a(lp2842
S'Mister'
p2843
aS'Roberts'
p2844
aaa(lp2845
g2838
a(lp2846
S'did'
p2847
aS'you'
p2848
aS'have'
p2849
aS'any'
p2850
aS'conversations'
p2851
aaa(lp2852
S'MITCHELL'
p2853
a(lp2854
S'Absolutely'
p2855
aS'not'
p2856
aaa(lp2857
S'JUDGE'
p2858
a(lp2859
S'with'
p2860
aS'Matthew'
p2861
aS'Collins'
p2862
aS'about'
p2863
aS'that'
p2864
aaa(lp2865
S'MITCHELL'
p2866
a(lp2867
S'The'
p2868
aS'reason'
p2869
aaa(lp2870
g2866
a(lp2871
S'and'
p2872
ag251
aS'stress'
p2873
aS'this'
p2874
aaa(lp2875
g2866
a(lp2876
S'And'
p2877
ag251
aS'dont'
p2878
aS'like'
p2879
aS'to'
p2880
aS'waste'
p2881
aS'the'
p2882
aS'courts'
p2883
aS'time'
p2884
aaa(lp2885
g2866
a(lp2886
S'But'
p2887
aaa(lp2888
g2866
a(lp2889
S'my'
p2890
aS'total'
p2891
aaa(lp2892
g2866
a(lp2893
g251
aS'agree'
p2894
aaa(lp2895
g2866
a(lp2896
g56
aS'If'
p2897
ag56
aS'whatever'
p2898
aS'he'
p2899
aS'just'
p2900
aS'said'
p2901
aS'right'
p2902
aS'there'
p2903
aS'was'
p2904
aS'true'
p2905
aaa(lp2906
g2866
a(lp2907
S'with'
p2908
aS'withholding'
p2909
aS'and'
p2910
aS'everything'
p2911
aaa(lp2912
S'JUDGE'
p2913
a(lp2914
S'Right'
p2915
aS'Im'
p2916
aaa(lp2917
S'MITCHELL'
p2918
a(lp2919
S'That'
p2920
aS'was'
p2921
aS'fine'
p2922
aaa(lp2923
S'JUDGE'
p2924
a(lp2925
S'It'
p2926
aS'really'
p2927
aS'boils'
p2928
aS'down'
p2929
aaa(lp2930
S'MITCHELL'
p2931
a(lp2932
S'But'
p2933
aaa(lp2934
S'JUDGE'
p2935
a(lp2936
S'what'
p2937
aS'what'
p2938
aS'was'
p2939
aS'the'
p2940
aS'discussion'
p2941
aS'the'
p2942
aS'agreement'
p2943
aS'regarding'
p2944
aS'this'
p2945
aaa(lp2946
S'MITCHELL'
p2947
a(lp2948
S'The'
p2949
aS'discussion'
p2950
aaa(lp2951
S'JUDGE'
p2952
a(lp2953
g56
aaa(lp2954
S'MITCHELL'
p2955
a(lp2956
S'The'
p2957
aS'agreement'
p2958
aS'would'
p2959
aS'be'
p2960
aaa(lp2961
g2955
a(lp2962
S'that'
p2963
aS'he'
p2964
aS'would'
p2965
aS'pay'
p2966
aS'everything'
p2967
aaa(lp2968
g2955
a(lp2969
S'So'
p2970
aS'that'
p2971
ag251
aS'wouldnt'
p2972
aaa(lp2973
S'JUDGE'
p2974
a(lp2975
S'Did'
p2976
aS'he'
p2977
aS'say'
p2978
aS'everything'
p2979
aaa(lp2980
S'MITCHELL'
p2981
a(lp2982
S'Y'
p2983
aS'everything'
p2984
aaa(lp2985
g2981
a(lp2986
S'So'
p2987
aS'that'
p2988
ag251
aS'wouldnt'
p2989
aS'end'
p2990
aS'up'
p2991
aS'making'
p2992
aaa(lp2993
g2981
a(lp2994
S'after'
p2995
aS'fifty'
p2996
aS'hou'
p2997
aS'fifty'
p2998
aS'hours'
p2999
aS'work'
p3000
aaa(lp3001
g2981
a(lp3002
S'which'
p3003
ag251
aS'knew'
p3004
ag251
aS'was'
p3005
aS'gonna'
p3006
aS'make'
p3007
aaa(lp3008
g2981
a(lp3009
S'when'
p3010
ag251
aS'had'
p3011
aS'to'
p3012
ag56
aS'play'
p3013
ag56
aS'my'
p3014
aS'em'
p3015
aS'part'
p3016
aS'of'
p3017
aS'an'
p3018
aS'employer'
p3019
aS'contribution'
p3020
aaa(lp3021
g2981
a(lp3022
g251
aS'have'
p3023
aS'my'
p3024
aS'own'
p3025
aS'payroll'
p3026
aS'service'
p3027
aaa(lp3028
g2981
a(lp3029
S'They'
p3030
aS'do'
p3031
aS'all'
p3032
aS'that'
p3033
aS'for'
p3034
aS'me'
p3035
aaa(lp3036
g2981
a(lp3037
S'and'
p3038
aS'theyre'
p3039
aS'very'
p3040
aS'familiar'
p3041
aS'with'
p3042
aS'all'
p3043
aS'types'
p3044
aS'of'
p3045
aS'pay'
p3046
aaa(lp3047
g2981
a(lp3048
S'This'
p3049
aS'is'
p3050
aS'why'
p3051
ag251
aS'didnt'
p3052
aS'wanna'
p3053
aS'take'
p3054
aS'the'
p3055
aS'job'
p3056
aS'to'
p3057
aS'begin'
p3058
aS'with'
p3059
aaa(lp3060
S'JUDGE'
p3061
a(lp3062
S'Uh'
p3063
ag251
aS'can'
p3064
aS'u'
p3065
aaa(lp3066
S'MITCHELL'
p3067
a(lp3068
S'He'
p3069
aS'in'
p3070
aS'turn'
p3071
aaa(lp3072
S'JUDGE'
p3073
a(lp3074
g251
aS'can'
p3075
aS'appreciate'
p3076
aS'that'
p3077
aaa(lp3078
g3073
a(lp3079
S'now'
p3080
aaa(lp3081
S'MITCHELL'
p3082
a(lp3083
S'Okay'
p3084
aaa(lp3085
S'JUDGE'
p3086
a(lp3087
S'Mister'
p3088
aS'Collins'
p3089
aS'says'
p3090
aaa(lp3091
g3086
a(lp3092
S'he'
p3093
aS'denies'
p3094
aS'that'
p3095
aS'you'
p3096
aS'said'
p3097
aaa(lp3098
g3086
a(lp3099
S'everything'
p3100
aaa(lp3101
g3086
a(lp3102
S'Right'
p3103
aaa(lp3104
g3086
a(lp3105
g56
aS'He'
p3106
aS'just'
p3107
ag56
aaa(lp3108
S'MITCHELL'
p3109
a(lp3110
g251
aS'wouldntve'
p3111
aaa(lp3112
g3109
a(lp3113
g251
aS'wouldntve'
p3114
aS'done'
p3115
aS'it'
p3116
aaa(lp3117
S'MATTHEW'
p3118
a(lp3119
S'Well'
p3120
aaa(lp3121
S'JUDGE'
p3122
a(lp3123
S'You'
p3124
aS'have'
p3125
ag109
aS'different'
p3126
aS'story'
p3127
aaa(lp3128
g3122
a(lp3129
S'on'
p3130
aS'what'
p3131
aS'the'
p3132
aS'agreement'
p3133
aS'was'
p3134
aaa(lp3135
S'MATTHEW'
p3136
a(lp3137
S'Right'
p3138
aaa(lp3139
g3136
a(lp3140
S'Um'
p3141
aaa(lp3142
g3136
a(lp3143
S'uh'
p3144
aS'Karen'
p3145
aS'here'
p3146
aaa(lp3147
g3136
a(lp3148
S'uh'
p3149
aaa(lp3150
g3136
a(lp3151
S'does'
p3152
aS'all'
p3153
aS'the'
p3154
aS'payroll'
p3155
aaa(lp3156
g3136
a(lp3157
S'and'
p3158
aS'uh'
p3159
aaa(lp3160
g3136
a(lp3161
S'shes'
p3162
aS'here'
p3163
aS'to'
p3164
aS'testify'
p3165
aS'about'
p3166
ag109
aS'conversation'
p3167
aaa(lp3168
g3136
a(lp3169
S'that'
p3170
aS'her'
p3171
aS'and'
p3172
aS'Mitchell'
p3173
aS'had'
p3174
aaa(lp3175
g3136
a(lp3176
S'in'
p3177
aS'our'
p3178
aS'office'
p3179
aaa(lp3180
g3136
a(lp3181
S'about'
p3182
aS'this'
p3183
aS'very'
p3184
aS'thing'
p3185
aaa(lp3186
g3136
a(lp3187
S'and'
p3188
aS'Id'
p3189
aS'like'
p3190
aS'to'
p3191
aaa(lp3192
S'JUDGE'
p3193
a(lp3194
S'Before'
p3195
aS'or'
p3196
aS'after'
p3197
aS'the'
p3198
aS'agreement'
p3199
aS'was'
p3200
aS'entered'
p3201
aS'into'
p3202
aaa(lp3203
S'MATTHEW'
p3204
a(lp3205
S'After'
p3206
aS'the'
p3207
aS'agreement'
p3208
aS'was'
p3209
aS'entered'
p3210
aS'into'
p3211
aaa(lp3212
g3204
a(lp3213
S'he'
p3214
aS'had'
p3215
aS'been'
p3216
aS'on'
p3217
aS'the'
p3218
aS'job'
p3219
aS'for'
p3220
aS'about'
p3221
ag109
aS'week'
p3222
aS'or'
p3223
aS'so'
p3224
aaa(lp3225
g3204
a(lp3226
S'and'
p3227
aaa(lp3228
g3204
a(lp3229
S'it'
p3230
aS'was'
p3231
aS'time'
p3232
aaa(lp3233
g3204
a(lp3234
g251
aS'believe'
p3235
aS'for'
p3236
aS'the'
p3237
aaa(lp3238
g3204
a(lp3239
S'first'
p3240
aS'or'
p3241
aS'second'
p3242
aS'pay'
p3243
aS'period'
p3244
aS'for'
p3245
aS'his'
p3246
aS'men'
p3247
aaa(lp3248
g3204
a(lp3249
S'Uh'
p3250
aS'he'
p3251
aS'came'
p3252
aS'into'
p3253
aS'the'
p3254
aS'office'
p3255
aaa(lp3256
g3204
a(lp3257
S'and'
p3258
aS'had'
p3259
ag109
aS'conversation'
p3260
aS'with'
p3261
aS'Karen'
p3262
aaa(lp3263
g3204
a(lp3264
S'about'
p3265
aaa(lp3266
g3204
a(lp3267
g305
aS'the'
p3268
aS'payroll'
p3269
aaa(lp3270
g3204
a(lp3271
S'and'
p3272
aS'B'
p3273
aS'this'
p3274
aS'twentysix'
p3275
aS'percent'
p3276
aS'that'
p3277
aS'were'
p3278
aS'talking'
p3279
aS'about'
p3280
aaa(lp3281
g3204
a(lp3282
S'And'
p3283
aS'shed'
p3284
aS'be'
p3285
aS'happy'
p3286
aS'to'
p3287
aS'tell'
p3288
aS'you'
p3289
aaa(lp3290
S'JUDGE'
p3291
a(lp3292
S'Okay'
p3293
aS'maam'
p3294
aaa(lp3295
g3291
a(lp3296
S'why'
p3297
aS'dont'
p3298
aS'you'
p3299
aS'please'
p3300
aaa(lp3301
g3291
a(lp3302
S'explain'
p3303
aS'the'
p3304
aS'conversation'
p3305
aS'you'
p3306
aS'had'
p3307
aS'with'
p3308
aS'Mister'
p3309
aS'Roberts'
p3310
aaa(lp3311
S'KAREN'
p3312
a(lp3313
S'Okay'
p3314
aaa(lp3315
g3312
a(lp3316
S'Um'
p3317
aaa(lp3318
g3312
a(lp3319
S'he'
p3320
aS'was'
p3321
aaa(lp3322
g3312
a(lp3323
S'we'
p3324
aS'were'
p3325
aS'going'
p3326
aS'over'
p3327
aS'the'
p3328
aS'wages'
p3329
aS'for'
p3330
aS'Phil'
p3331
aS'Nigel'
p3332
aaa(lp3333
g3312
a(lp3334
S'who'
p3335
aS'was'
p3336
aS'one'
p3337
aS'of'
p3338
aS'the'
p3339
aS'gentlemen'
p3340
aS'on'
p3341
aS'there'
p3342
aaa(lp3343
g3312
a(lp3344
S'as'
p3345
aS'to'
p3346
aS'how'
p3347
aS'much'
p3348
aS'Phil'
p3349
aS'was'
p3350
aS'to'
p3351
aS'get'
p3352
aaa(lp3353
g3312
a(lp3354
S'for'
p3355
aS'the'
p3356
aS'job'
p3357
aaa(lp3358
g3312
a(lp3359
S'On'
p3360
aS'an'
p3361
aS'hourly'
p3362
aS'basis'
p3363
aaa(lp3364
g3312
a(lp3365
S'And'
p3366
aaa(lp3367
g3312
a(lp3368
S'he'
p3369
aS'had'
p3370
aS'mentioned'
p3371
aS'to'
p3372
aS'me'
p3373
aaa(lp3374
g3312
a(lp3375
S'that'
p3376
aS'he'
p3377
aS'was'
p3378
aS'wanting'
p3379
aS'him'
p3380
aS'to'
p3381
aS'get'
p3382
aS'ex'
p3383
aS'amount'
p3384
aaa(lp3385
g3312
a(lp3386
S'and'
p3387
ag251
aS'said'
p3388
aS'okay'
p3389
aaa(lp3390
g3312
a(lp3391
S'if'
p3392
aS'its'
p3393
aS'ex'
p3394
aS'amount'
p3395
aS'to'
p3396
aS'Phil'
p3397
aaa(lp3398
g3312
a(lp3399
S'then'
p3400
aaa(lp3401
g3312
a(lp3402
S'plus'
p3403
aS'twentysix'
p3404
aS'percent'
p3405
aS'means'
p3406
aaa(lp3407
g3312
a(lp3408
g251
aS'take'
p3409
aS'out'
p3410
aS'this'
p3411
aS'amount'
p3412
aaa(lp3413
g3312
a(lp3414
S'from'
p3415
aS'your'
p3416
aS'check'
p3417
aaa(lp3418
g3312
a(lp3419
S'And'
p3420
aS'he'
p3421
aS'goes'
p3422
aS'oh'
p3423
aaa(lp3424
g3312
a(lp3425
S'Well'
p3426
aS'then'
p3427
aS'no'
p3428
aaa(lp3429
g3312
a(lp3430
g251
aS'dont'
p3431
aS'wanna'
p3432
aS'have'
p3433
aS'the'
p3434
aaa(lp3435
g3312
a(lp3436
S'you'
p3437
aS'know'
p3438
aaa(lp3439
g3312
a(lp3440
S'take'
p3441
aS'out'
p3442
aS'that'
p3443
aS'much'
p3444
aaa(lp3445
g3312
a(lp3446
S'So'
p3447
aS'we'
p3448
aS'were'
p3449
aS'going'
p3450
aS'back'
p3451
aS'and'
p3452
aS'forth'
p3453
aS'with'
p3454
aS'the'
p3455
aS'figures'
p3456
aaa(lp3457
g3312
a(lp3458
S'and'
p3459
aS'so'
p3460
aS'finally'
p3461
aaa(lp3462
g3312
a(lp3463
S'this'
p3464
aS'is'
p3465
aS'the'
p3466
aaa(lp3467
g3312
a(lp3468
S'uh'
p3469
aaa(lp3470
g3312
a(lp3471
S'wage'
p3472
aS'that'
p3473
aS'we'
p3474
aS'came'
p3475
aS'up'
p3476
aS'with'
p3477
aaa(lp3478
g3312
a(lp3479
S'which'
p3480
aS'was'
p3481
aS'thirteen'
p3482
aS'fifty'
p3483
aS'to'
p3484
aS'Phil'
p3485
aaa(lp3486
S'X'
p3487
a(lp3488
aa(lp3489
S'KAREN'
p3490
a(lp3491
S'And'
p3492
aS'then'
p3493
aS'have'
p3494
aS'seventeen'
p3495
aS'dollars'
p3496
aS'an'
p3497
aS'hour'
p3498
aaa(lp3499
g3490
a(lp3500
S'taken'
p3501
aS'out'
p3502
aS'of'
p3503
aS'Mitch'
p3504
ag506
aS'check'
p3505
aaa(lp3506
g3490
a(lp3507
S'Mitch'
p3508
aS'Roberts'
p3509
aS'check'
p3510
aaa(lp3511
g3490
a(lp3512
S'And'
p3513
aS'this'
p3514
aS'is'
p3515
aS'the'
p3516
aS'note'
p3517
aS'that'
p3518
aS'Id'
p3519
aS'written'
p3520
aS'down'
p3521
aS'on'
p3522
aS'that'
p3523
aaa(lp3524
g3490
a(lp3525
S'And'
p3526
aS'then'
p3527
aaa(lp3528
g3490
a(lp3529
S'you'
p3530
aS'can'
p3531
aS'see'
p3532
aS'that'
p3533
aS'thirteen'
p3534
aS'fifty'
p3535
aS'plus'
p3536
aS'twentysix'
p3537
aS'percent'
p3538
aaa(lp3539
g3490
a(lp3540
S'which'
p3541
aS'is'
p3542
aS'three'
p3543
aS'fiftyone'
p3544
aaa(lp3545
g3490
a(lp3546
S'would'
p3547
aS'actually'
p3548
aS'equal'
p3549
aS'to'
p3550
aS'seventeen'
p3551
ag796
aS'one'
p3552
aaa(lp3553
g3490
a(lp3554
S'and'
p3555
ag251
aS'said'
p3556
aaa(lp3557
S'MATTHEW'
p3558
a(lp3559
S'Why'
p3560
aS'dont'
p3561
aS'you'
p3562
aS'show'
p3563
aS'him'
p3564
aS'the'
p3565
aS'note'
p3566
aaa(lp3567
S'KAREN'
p3568
a(lp3569
S'You'
p3570
aS'know'
p3571
aaa(lp3572
g3568
a(lp3573
S'just'
p3574
aS'the'
p3575
aS'seventeen'
p3576
aS'was'
p3577
aS'fine'
p3578
aaa(lp3579
S'JUDGE'
p3580
a(lp3581
g56
aS'Oh'
p3582
aS'this'
p3583
ag56
aaa(lp3584
g3580
a(lp3585
S'So'
p3586
aaa(lp3587
g3580
a(lp3588
S'd'
p3589
aS'did'
p3590
aS'you'
p3591
aS'have'
p3592
aS'that'
p3593
aS'conversation'
p3594
aaa(lp3595
S'MITCHELL'
p3596
a(lp3597
g251
aS'dont'
p3598
aaa(lp3599
g3596
a(lp3600
g251
aS'had'
p3601
aS'that'
p3602
aS'perfect'
p3603
aS'conversation'
p3604
aS'with'
p3605
aS'her'
p3606
aaa(lp3607
g3596
a(lp3608
S'And'
p3609
aS'thats'
p3610
aS'very'
p3611
aS'true'
p3612
aaa(lp3613
g3596
a(lp3614
S'exactly'
p3615
aS'what'
p3616
aS'you'
p3617
aS'said'
p3618
aaa(lp3619
g3596
a(lp3620
S'But'
p3621
aS'she'
p3622
aS'never'
p3623
aS'told'
p3624
aS'me'
p3625
aS'anything'
p3626
aS'about'
p3627
aaa(lp3628
g3596
a(lp3629
S'this'
p3630
aS'twentysix'
p3631
aS'percent'
p3632
aaa(lp3633
g3596
a(lp3634
S'that'
p3635
aS'was'
p3636
aS'coming'
p3637
ag109
aS'come'
p3638
aS'out'
p3639
aS'of'
p3640
aS'my'
p3641
aS'check'
p3642
aaa(lp3643
g3596
a(lp3644
S'Why'
p3645
aaa(lp3646
g3596
a(lp3647
S'Its'
p3648
aaa(lp3649
S'X'
p3650
a(lp3651
S'go'
p3652
aS'ahead'
p3653
aaa(lp3654
S'MARK'
p3655
a(lp3656
g251
aS'was'
p3657
aS'offered'
p3658
aaa(lp3659
g3655
a(lp3660
S'Matthew'
p3661
aS'offered'
p3662
aS'me'
p3663
aaa(lp3664
g3655
a(lp3665
S'Im'
p3666
aS'Mark'
p3667
aS'Preston'
p3668
aaa(lp3669
g3655
a(lp3670
S'Im'
p3671
ag109
aS'licensed'
p3672
aS'contractor'
p3673
aS'also'
p3674
aaa(lp3675
g3655
a(lp3676
S'and'
p3677
aS'Matthew'
p3678
aS'offered'
p3679
aS'me'
p3680
aS'the'
p3681
aS'same'
p3682
aS'situation'
p3683
aaa(lp3684
g3655
a(lp3685
S'And'
p3686
aS'it'
p3687
aS'was'
p3688
aS'my'
p3689
aS'understanding'
p3690
aaa(lp3691
g3655
a(lp3692
S'that'
p3693
aS'he'
p3694
aS'was'
p3695
aS'to'
p3696
aS'pay'
p3697
aS'everything'
p3698
aaa(lp3699
g3655
a(lp3700
S'Supply'
p3701
aS'the'
p3702
aS'glue'
p3703
aaa(lp3704
g3655
a(lp3705
S'supply'
p3706
aaa(lp3707
g3655
a(lp3708
S'and'
p3709
aS'take'
p3710
aS'care'
p3711
aS'of'
p3712
aS'my'
p3713
aS'guys'
p3714
aaa(lp3715
g3655
a(lp3716
S'and'
p3717
aS'make'
p3718
aS'the'
p3719
aS'payroll'
p3720
aaa(lp3721
g3655
a(lp3722
S'and'
p3723
aS'pay'
p3724
aS'all'
p3725
aS'of'
p3726
aS'the'
p3727
aS'employers'
p3728
aS'stuff'
p3729
aaa(lp3730
g3655
a(lp3731
S'If'
p3732
aS'youre'
p3733
aS'an'
p3734
aS'employer'
p3735
aaa(lp3736
g3655
a(lp3737
S'you'
p3738
aS'gotta'
p3739
aS'pay'
p3740
aS'the'
p3741
aS'stuff'
p3742
aaa(lp3743
g3655
a(lp3744
S'You'
p3745
aS'gotta'
p3746
aS'pay'
p3747
aS'all'
p3748
aS'the'
p3749
aS'extra'
p3750
aS'things'
p3751
aaa(lp3752
S'JUDGE'
p3753
a(lp3754
S'But'
p3755
aaa(lp3756
g3753
a(lp3757
S'you'
p3758
aS'dont'
p3759
aS'have'
p3760
aS'any'
p3761
aaa(lp3762
g3753
a(lp3763
g1984
aS'you'
p3764
aS'cant'
p3765
aS'testify'
p3766
aaa(lp3767
S'X'
p3768
a(lp3769
aa(lp3770
S'JUDGE'
p3771
a(lp3772
S'unless'
p3773
aS'Im'
p3774
aS'wrong'
p3775
aaa(lp3776
g3771
a(lp3777
S'about'
p3778
aS'the'
p3779
aS'conversation'
p3780
aS'those'
p3781
aS'two'
p3782
aS'had'
p3783
aaa(lp3784
g3771
a(lp3785
S'You'
p3786
aS'werent'
p3787
aS'there'
p3788
aaa(lp3789
g3771
a(lp3790
S'Is'
p3791
aS'that'
p3792
aS'correct'
p3793
aaa(lp3794
S'MARK'
p3795
a(lp3796
g251
aS'know'
p3797
aS'for'
p3798
ag109
aS'fact'
p3799
aS'that'
p3800
aaa(lp3801
g3795
a(lp3802
S'Mitch'
p3803
aS'was'
p3804
aS'mak'
p3805
aaa(lp3806
S'MATTHEW'
p3807
a(lp3808
S'He'
p3809
aS'was'
p3810
aS'not'
p3811
aS'there'
p3812
aaa(lp3813
S'MARK'
p3814
a(lp3815
S'M'
p3816
aS'and'
p3817
aaa(lp3818
g3814
a(lp3819
S'he'
p3820
aS'just'
p3821
aS'mentioned'
p3822
aS'that'
p3823
aS'he'
p3824
aaa(lp3825
g3814
a(lp3826
S'Matthew'
p3827
aS'just'
p3828
aS'mentioned'
p3829
aS'that'
p3830
aS'he'
p3831
aS'deducted'
p3832
aS'the'
p3833
aS'same'
p3834
aS'out'
p3835
aS'of'
p3836
aS'my'
p3837
aS'check'
p3838
aaa(lp3839
g3814
a(lp3840
S'MRC'
p3841
aS'He'
p3842
aS'did'
p3843
aS'not'
p3844
aS'MRC'
p3845
aaa(lp3846
g3814
a(lp3847
g251
aS'worked'
p3848
aS'strictly'
p3849
aS'by'
p3850
aS'the'
p3851
aS'yard'
p3852
aaa(lp3853
g3814
a(lp3854
S'and'
p3855
ag251
aS'paid'
p3856
aS'my'
p3857
aS'people'
p3858
aaa(lp3859
g3814
a(lp3860
S'Prevailing'
p3861
aS'wages'
p3862
aaa(lp3863
S'JUDGE'
p3864
a(lp3865
S'Well'
p3866
aS'any'
p3867
aS'agreement'
p3868
aS'he'
p3869
aS'had'
p3870
aS'with'
p3871
aS'you'
p3872
aS'is'
p3873
aS'not'
p3874
aS'relevant'
p3875
aS'to'
p3876
aS'the'
p3877
aS'agreement'
p3878
aS'he'
p3879
aS'had'
p3880
aS'with'
p3881
aS'Mister'
p3882
aS'Roberts'
p3883
aaa(lp3884
S'MARK'
p3885
a(lp3886
S'Well'
p3887
aaa(lp3888
g3885
a(lp3889
g251
aS'saw'
p3890
aS'the'
p3891
aS'peoples'
p3892
aS'checks'
p3893
aaa(lp3894
g3885
a(lp3895
S'and'
p3896
aaa(lp3897
g3885
a(lp3898
S'Im'
p3899
aS'just'
p3900
aS'drawing'
p3901
ag109
aS'pi'
p3902
aaa(lp3903
g3885
a(lp3904
S'verify'
p3905
aS'what'
p3906
aS'Mitch'
p3907
aS'said'
p3908
aaa(lp3909
g3885
a(lp3910
S'H'
p3911
aS'Ma'
p3912
aS'Mister'
p3913
aS'Collins'
p3914
aS'was'
p3915
aS'supposed'
p3916
aS'to'
p3917
aS'pay'
p3918
aS'everything'
p3919
aaa(lp3920
S'MITCHELL'
p3921
a(lp3922
S'He'
p3923
aS'approached'
p3924
aS'him'
p3925
aS'with'
p3926
aS'the'
p3927
aS'same'
p3928
aaa(lp3929
S'MARK'
p3930
a(lp3931
S'Fir'
p3932
ag2594
ag2594
aaa(lp3933
g3930
a(lp3934
S'with'
p3935
aS'the'
p3936
aS'exact'
p3937
aS'same'
p3938
aS'thing'
p3939
aaa(lp3940
g3930
a(lp3941
S'And'
p3942
aS'he'
p3943
ag3589
aaa(lp3944
g3930
a(lp3945
S'Jerry'
p3946
aS'Stillman'
p3947
aS'he'
p3948
aS'did'
p3949
aS'the'
p3950
aS'same'
p3951
aS'thing'
p3952
aaa(lp3953
g3930
a(lp3954
S'he'
p3955
aS'did'
p3956
aS'the'
p3957
aS'same'
p3958
aS'thing'
p3959
aS'with'
p3960
aS'Marco'
p3961
aS'Villaremo'
p3962
aaa(lp3963
g3930
a(lp3964
S'Whore'
p3965
aS'all'
p3966
aS'licensed'
p3967
aS'contractors'
p3968
aaa(lp3969
S'JUDGE'
p3970
a(lp3971
S'But'
p3972
ag251
aS'still'
p3973
aaa(lp3974
g3970
a(lp3975
g251
aS'still'
p3976
aS'dont'
p3977
aS'know'
p3978
aaa(lp3979
S'MARK'
p3980
a(lp3981
aa(lp3982
S'JUDGE'
p3983
a(lp3984
S'that'
p3985
aS'may'
p3986
aS'have'
p3987
aS'been'
p3988
aS'on'
p3989
aS'other'
p3990
aS'cases'
p3991
aaa(lp3992
g3983
a(lp3993
S'the'
p3994
aS'question'
p3995
aS'is'
p3996
aaa(lp3997
g3983
a(lp3998
S'did'
p3999
aS'he'
p4000
aS'do'
p4001
aS'it'
p4002
aS'in'
p4003
aS'this'
p4004
aS'case'
p4005
aaa(lp4006
S'MITCHELL'
p4007
a(lp4008
S'He'
p4009
aaa(lp4010
g4007
a(lp4011
S'it'
p4012
aS'would'
p4013
aS'be'
p4014
aaa(lp4015
g4007
a(lp4016
S'if'
p4017
ag56
aS'it'
p4018
aS'may'
p4019
aS'please'
p4020
aS'you'
p4021
ag56
aaa(lp4022
g4007
a(lp4023
S'uh'
p4024
aaa(lp4025
g4007
a(lp4026
S'the'
p4027
aS'whole'
p4028
aS'reason'
p4029
aS'why'
p4030
aS'Im'
p4031
aS'here'
p4032
aaa(lp4033
g4007
a(lp4034
S'Is'
p4035
aS'because'
p4036
aS'he'
p4037
aS'took'
p4038
aS'that'
p4039
aS'twentysix'
p4040
aS'percent'
p4041
aS'out'
p4042
aaa(lp4043
g4007
a(lp4044
S'that'
p4045
aS'he'
p4046
aS'told'
p4047
aS'me'
p4048
aS'he'
p4049
aS'wasnt'
p4050
aS'gonna'
p4051
aS'take'
p4052
aaa(lp4053
g4007
a(lp4054
S'he'
p4055
aS'used'
p4056
aS'it'
p4057
aS'as'
p4058
aaa(lp4059
g4007
a(lp4060
S'more'
p4061
aS'or'
p4062
aS'less'
p4063
aS'bait'
p4064
aS'me'
p4065
aS'to'
p4066
aS'do'
p4067
aS'the'
p4068
aS'job'
p4069
aaa(lp4070
g4007
a(lp4071
S'and'
p4072
aS'went'
p4073
aS'ahead'
p4074
aS'and'
p4075
aS'withheld'
p4076
aS'it'
p4077
aS'from'
p4078
aS'me'
p4079
aaa(lp4080
g4007
a(lp4081
S'Without'
p4082
aS'saying'
p4083
ag109
aS'word'
p4084
aS'to'
p4085
aS'it'
p4086
aaa(lp4087
g4007
a(lp4088
g251
aS'had'
p4089
aS'nothing'
p4090
aaa(lp4091
g4007
a(lp4092
g251
aS'was'
p4093
aS'expecting'
p4094
aS'to'
p4095
aS'make'
p4096
aS'about'
p4097
ag109
aS'thousand'
p4098
aS'dollars'
p4099
aS'on'
p4100
aS'the'
p4101
aS'job'
p4102
aaa(lp4103
S'JUDGE'
p4104
a(lp4105
g251
aS'understand'
p4106
aS'that'
p4107
aaa(lp4108
S'MITCHELL'
p4109
a(lp4110
S'And'
p4111
aaa(lp4112
g4109
a(lp4113
S'when'
p4114
aS'he'
p4115
aS'wrote'
p4116
aS'my'
p4117
aS'check'
p4118
aaa(lp4119
g4109
a(lp4120
S'He'
p4121
aS'wrote'
p4122
aS'my'
p4123
aS'check'
p4124
aS'to'
p4125
aS'me'
p4126
aaa(lp4127
g4109
a(lp4128
S'handed'
p4129
aS'it'
p4130
aS'to'
p4131
aS'me'
p4132
aS'through'
p4133
ag109
aS'window'
p4134
aaa(lp4135
g4109
a(lp4136
S'says'
p4137
aS'thats'
p4138
aS'the'
p4139
aS'way'
p4140
aS'it'
p4141
aS'is'
p4142
aaa(lp4143
g4109
a(lp4144
S'and'
p4145
aS'th'
p4146
aaa(lp4147
g4109
a(lp4148
S'and'
p4149
aS'and'
p4150
aS'you'
p4151
aS'know'
p4152
aaa(lp4153
g4109
a(lp4154
S'it'
p4155
aS'wasnt'
p4156
aaa(lp4157
g4109
a(lp4158
S'and'
p4159
aS'he'
p4160
aS'totally'
p4161
aS'evaded'
p4162
aS'me'
p4163
aaa(lp4164
g4109
a(lp4165
S'he'
p4166
aS'has'
p4167
aS'to'
p4168
aS'this'
p4169
aS'day'
p4170
aS'evaded'
p4171
aS'me'
p4172
aaa(lp4173
S'JUDGE'
p4174
a(lp4175
S'Mister'
p4176
aS'Roberts'
p4177
aaa(lp4178
g4174
a(lp4179
S'Thats'
p4180
aS'beside'
p4181
aS'the'
p4182
aS'point'
p4183
aaa(lp4184
g4174
a(lp4185
S'What'
p4186
aS'Im'
p4187
aS'trying'
p4188
aS'to'
p4189
aaa(lp4190
g4174
a(lp4191
S'We'
p4192
aS'have'
p4193
aS'to'
p4194
aS'really'
p4195
aS'hone'
p4196
aS'in'
p4197
aS'on'
p4198
aaa(lp4199
g4174
a(lp4200
S'what'
p4201
aS'was'
p4202
aS'the'
p4203
aS'agreement'
p4204
aaa(lp4205
g4174
a(lp4206
S'Not'
p4207
aS'how'
p4208
aS'he'
p4209
aS'paid'
p4210
aS'you'
p4211
aaa(lp4212
S'MITCHELL'
p4213
a(lp4214
S'The'
p4215
aS'agreement'
p4216
aS'was'
p4217
aaa(lp4218
S'JUDGE'
p4219
a(lp4220
S'If'
p4221
aS'he'
p4222
aaa(lp4223
S'MITCHELL'
p4224
a(lp4225
S'That'
p4226
aaa(lp4227
S'JUDGE'
p4228
a(lp4229
S'You'
p4230
aS'know'
p4231
aaa(lp4232
g4228
a(lp4233
g251
aS'dont'
p4234
aS'care'
p4235
aS'if'
p4236
aS'he'
p4237
aS'folded'
p4238
aS'an'
p4239
aS'airplane'
p4240
aS'and'
p4241
aS'ma'
p4242
aaa(lp4243
g4228
a(lp4244
S'and'
p4245
aS'sailed'
p4246
aS'it'
p4247
aS'through'
p4248
aS'the'
p4249
aS'air'
p4250
aaa(lp4251
S'MITCHELL'
p4252
a(lp4253
S'He'
p4254
aS'would'
p4255
aS'pay'
p4256
aS'all'
p4257
aS'my'
p4258
aS'employees'
p4259
aaa(lp4260
g4252
a(lp4261
S'That'
p4262
aS'was'
p4263
aS'the'
p4264
aS'agreement'
p4265
aaa(lp4266
g4252
a(lp4267
S'Everything'
p4268
aaa(lp4269
S'JUDGE'
p4270
a(lp4271
S'But'
p4272
aS'he'
p4273
aS'di'
p4274
aaa(lp4275
g4270
a(lp4276
S'he'
p4277
aS'disputes'
p4278
aS'that'
p4279
aaa(lp4280
S'MITCHELL'
p4281
a(lp4282
S'Well'
p4283
aaa(lp4284
g4281
a(lp4285
g251
aS'understand'
p4286
aS'that'
p4287
aaa(lp4288
g4281
a(lp4289
S'Thats'
p4290
aS'why'
p4291
aS'were'
p4292
aS'here'
p4293
aS'your'
p4294
aS'honor'
p4295
aaa(lp4296
S'JUDGE'
p4297
a(lp4298
S'WH'
p4299
aS'Okay'
p4300
aS'WH'
p4301
aaa(lp4302
g4297
a(lp4303
S'But'
p4304
aaa(lp4305
g4297
a(lp4306
S'youre'
p4307
aS'the'
p4308
aS'plaintiff'
p4309
aaa(lp4310
g4297
a(lp4311
S'You'
p4312
aS'have'
p4313
aS'the'
p4314
aS'burden'
p4315
aS'of'
p4316
aS'proving'
p4317
aS'your'
p4318
aS'case'
p4319
aaa(lp4320
g4297
a(lp4321
S'Thats'
p4322
aS'the'
p4323
aS'problem'
p4324
ag251
aS'have'
p4325
aS'is'
p4326
aaa(lp4327
g4297
a(lp4328
S'youve'
p4329
aS'gotta'
p4330
aS'convince'
p4331
aS'me'
p4332
aS'by'
p4333
ag109
aS'preponderance'
p4334
aS'of'
p4335
aS'evidence'
p4336
aaa(lp4337
g4297
a(lp4338
S'that'
p4339
aS'what'
p4340
aS'youre'
p4341
aS'saying'
p4342
aS'is'
p4343
aS'true'
p4344
aaa(lp4345
S'MITCHELL'
p4346
a(lp4347
S'Well'
p4348
aS'then'
p4349
aS'if'
p4350
aaa(lp4351
S'JUDGE'
p4352
a(lp4353
S'More'
p4354
aaa(lp4355
g4352
a(lp4356
S'more'
p4357
aS'likely'
p4358
aS'than'
p4359
aS'not'
p4360
aaa(lp4361
g4352
a(lp4362
S'Now'
p4363
aS'you'
p4364
aS'say'
p4365
aS'one'
p4366
aS'thing'
p4367
aaa(lp4368
g4352
a(lp4369
S'and'
p4370
aS'he'
p4371
aS'says'
p4372
aS'another'
p4373
aaa(lp4374
S'MITCHELL'
p4375
a(lp4376
S'Then'
p4377
aaa(lp4378
g4375
a(lp4379
S'when'
p4380
aS'when'
p4381
ag109
aS'person'
p4382
aS'fills'
p4383
aS'out'
p4384
aaa(lp4385
g4375
a(lp4386
S'or'
p4387
aS'has'
p4388
aS'other'
p4389
aS'employees'
p4390
aS'fill'
p4391
aS'out'
p4392
aS'the'
p4393
aS'doubleu'
p4394
aS'two'
p4395
aS'forms'
p4396
aS'and'
p4397
aS'everything'
p4398
aaa(lp4399
g4375
a(lp4400
S'why'
p4401
aS'would'
p4402
ag251
aS'become'
p4403
aS'liable'
p4404
aaa(lp4405
g4375
a(lp4406
S'for'
p4407
aS'that'
p4408
aS'contribution'
p4409
aaa(lp4410
g4375
a(lp4411
S'When'
p4412
aS'h'
p4413
aS'when'
p4414
aS'he'
p4415
aS'in'
p4416
aS'fact'
p4417
aS'by'
p4418
aS'law'
p4419
aaa(lp4420
g4375
a(lp4421
S'is'
p4422
aS'now'
p4423
aS'employing'
p4424
aS'those'
p4425
aS'employees'
p4426
aaa(lp4427
g4375
a(lp4428
S'Hes'
p4429
aS'the'
p4430
aS'employer'
p4431
aaa(lp4432
g4375
a(lp4433
g251
aS'am'
p4434
aS'doing'
p4435
aS'nothing'
p4436
aaa(lp4437
g4375
a(lp4438
S'Isnt'
p4439
aS'there'
p4440
ag109
aS'law'
p4441
aS'that'
p4442
aS'states'
p4443
aS'that'
p4444
aS'fact'
p4445
aaa(lp4446
g4375
a(lp4447
S'When'
p4448
aS'you'
p4449
aS'have'
p4450
aaa(lp4451
g4375
a(lp4452
S'uh'
p4453
aS'people'
p4454
aaa(lp4455
g4375
a(lp4456
S'work'
p4457
aS'for'
p4458
aS'you'
p4459
aaa(lp4460
g4375
a(lp4461
S'and'
p4462
aS'fill'
p4463
aS'out'
p4464
aS'specific'
p4465
aS'forms'
p4466
aS'to'
p4467
aS'the'
p4468
aS'state'
p4469
aaa(lp4470
g4375
a(lp4471
S'stating'
p4472
aS'that'
p4473
aaa(lp4474
S'JUDGE'
p4475
a(lp4476
S'Tell'
p4477
aS'me'
p4478
aS'again'
p4479
aaa(lp4480
g4475
a(lp4481
S'Wh'
p4482
aaa(lp4483
g4475
a(lp4484
S'what'
p4485
aS'were'
p4486
aS'the'
p4487
aaa(lp4488
g4475
a(lp4489
S'what'
p4490
aS'was'
p4491
aS'the'
p4492
aS'agreement'
p4493
aS'again'
p4494
aaa(lp4495
g4475
a(lp4496
S'Go'
p4497
aS'go'
p4498
aS'through'
p4499
aS'the'
p4500
aaa(lp4501
g4475
a(lp4502
g1984
aS'conversation'
p4503
aS'as'
p4504
aS'you'
p4505
aS'saw'
p4506
aS'it'
p4507
aaa(lp4508
S'MITCHELL'
p4509
a(lp4510
S'Conversation'
p4511
aS'was'
p4512
aaa(lp4513
g4509
a(lp4514
S'Mitch'
p4515
aaa(lp4516
g4509
a(lp4517
S'if'
p4518
aS'you'
p4519
aS'do'
p4520
aS'this'
p4521
aS'job'
p4522
aaa(lp4523
g4509
a(lp4524
S'Ill'
p4525
aS'go'
p4526
aS'ahead'
p4527
aS'and'
p4528
aS'pay'
p4529
aS'all'
p4530
aS'your'
p4531
aS'employees'
p4532
aaa(lp4533
g4509
a(lp4534
S'and'
p4535
aS'you'
p4536
aS'in'
p4537
aS'turn'
p4538
aS'will'
p4539
aS'be'
p4540
aS'able'
p4541
aS'to'
p4542
aS'pa'
p4543
aS'make'
p4544
aS'more'
p4545
aS'money'
p4546
aaa(lp4547
S'JUDGE'
p4548
a(lp4549
S'That'
p4550
aS'was'
p4551
aS'pretty'
p4552
aS'much'
p4553
aS'it'
p4554
aaa(lp4555
S'MITCHELL'
p4556
a(lp4557
S'Thats'
p4558
aS'it'
p4559
aaa(lp4560
g4556
a(lp4561
S'Thats'
p4562
aS'to'
p4563
aS'the'
p4564
aS'point'
p4565
aaa(lp4566
S'JUDGE'
p4567
a(lp4568
S'Oh'
p4569
aS'so'
p4570
aS'he'
p4571
aS'in'
p4572
aS'effect'
p4573
aS'said'
p4574
aaa(lp4575
S'MITCHELL'
p4576
a(lp4577
S'And'
p4578
aS'thats'
p4579
aS'it'
p4580
aaa(lp4581
S'JUDGE'
p4582
a(lp4583
g251
aS'will'
p4584
aS'pay'
p4585
aS'your'
p4586
aS'employees'
p4587
aaa(lp4588
S'MITCHELL'
p4589
a(lp4590
S'Thats'
p4591
aS'correct'
p4592
aaa(lp4593
g4589
a(lp4594
S'And'
p4595
aS'he'
p4596
aS'did'
p4597
aS'sir'
p4598
aaa(lp4599
g4589
a(lp4600
S'And'
p4601
aS'then'
p4602
aS'when'
p4603
aS'it'
p4604
aS'came'
p4605
aS'to'
p4606
aS'the'
p4607
aS'employer'
p4608
aS'contribution'
p4609
aaa(lp4610
g4589
a(lp4611
S'without'
p4612
aS'my'
p4613
aS'knowledge'
p4614
aS'or'
p4615
aS'anything'
p4616
aaa(lp4617
g4589
a(lp4618
S'until'
p4619
ag251
aS'received'
p4620
aS'this'
p4621
aS'check'
p4622
aaa(lp4623
g4589
a(lp4624
S'he'
p4625
aS'just'
p4626
aS'yanked'
p4627
aS'that'
p4628
aS'right'
p4629
aS'out'
p4630
aS'of'
p4631
aS'my'
p4632
aS'check'
p4633
aaa(lp4634
S'JUDGE'
p4635
a(lp4636
S'And'
p4637
aS'Mister'
p4638
aS'Collins'
p4639
aaa(lp4640
g4635
a(lp4641
S'that'
p4642
aS'conv'
p4643
aaa(lp4644
g4635
a(lp4645
S'tell'
p4646
aS'me'
p4647
aS'about'
p4648
aS'the'
p4649
aS'conversation'
p4650
aS'you'
p4651
aS'believe'
p4652
aS'happened'
p4653
aaa(lp4654
S'MATTHEW'
p4655
a(lp4656
S'Well'
p4657
aaa(lp4658
g4655
a(lp4659
S'um'
p4660
aaa(lp4661
g4655
a(lp4662
S'Mitch'
p4663
aS'and'
p4664
ag251
aaa(lp4665
g4655
a(lp4666
S'um'
p4667
aaa(lp4668
g4655
a(lp4669
S'Mitch'
p4670
aS'had'
p4671
aS'come'
p4672
aS'to'
p4673
aS'me'
p4674
aS'and'
p4675
aS'said'
p4676
aS'he'
p4677
aS'would'
p4678
aS'do'
p4679
aS'the'
p4680
aS'work'
p4681
aS'out'
p4682
aS'there'
p4683
aaa(lp4684
g4655
a(lp4685
S'but'
p4686
aS'he'
p4687
aS'wanted'
p4688
aS'to'
p4689
aS'do'
p4690
aS'the'
p4691
aS'work'
p4692
aS'under'
p4693
aS'the'
p4694
aS'basis'
p4695
aS'that'
p4696
ag251
aS'paid'
p4697
aS'his'
p4698
aS'men'
p4699
aaa(lp4700
g4655
a(lp4701
S'and'
p4702
ag251
aS'told'
p4703
aS'him'
p4704
aS'about'
p4705
aaa(lp4706
g4655
a(lp4707
S'what'
p4708
ag251
aS'said'
p4709
aS'earlier'
p4710
aS'here'
p4711
aaa(lp4712
S'JUDGE'
p4713
a(lp4714
S'About'
p4715
aS'the'
p4716
aS'twentysix'
p4717
aS'percent'
p4718
aaa(lp4719
S'MATTHEW'
p4720
a(lp4721
S'Yes'
p4722
aaa(lp4723
S'JUDGE'
p4724
a(lp4725
S'That'
p4726
aS'was'
p4727
aS'mentioned'
p4728
aS'to'
p4729
aS'him'
p4730
aaa(lp4731
S'KAREN'
p4732
a(lp4733
S'Always'
p4734
aaa(lp4735
S'MATTHEW'
p4736
a(lp4737
S'Oh'
p4738
aS'yes'
p4739
aaa(lp4740
g4736
a(lp4741
S'Uh'
p4742
aaa(lp4743
g4736
a(lp4744
S'always'
p4745
aaa(lp4746
g4736
a(lp4747
S'it'
p4748
aS'was'
p4749
aS'mentioned'
p4750
aS'with'
p4751
aS'Karen'
p4752
aS'here'
p4753
aaa(lp4754
g4736
a(lp4755
S'on'
p4756
aS'her'
p4757
aS'note'
p4758
aS'of'
p4759
aS'nine'
p4760
aS'two'
p4761
aS'ninetythree'
p4762
aaa(lp4763
g4736
a(lp4764
S'that'
p4765
aS'she'
p4766
aS'wrote'
p4767
aS'down'
p4768
aS'her'
p4769
aS'note'
p4770
aS'that'
p4771
aS'she'
p4772
aS'talked'
p4773
aS'with'
p4774
aS'him'
p4775
aaa(lp4776
S'RADIO'
p4777
a(lp4778
g56
aS'Twelve'
p4779
aS'fourteen'
p4780
ag56
aaa(lp4781
S'MATTHEW'
p4782
a(lp4783
S'and'
p4784
aS'at'
p4785
aS'uh'
p4786
aaa(lp4787
g4782
a(lp4788
S'at'
p4789
aS'every'
p4790
aS'juncture'
p4791
aaa(lp4792
g4782
a(lp4793
S'He'
p4794
aS'was'
p4795
aaa(lp4796
g4782
a(lp4797
S'uh'
p4798
aS'made'
p4799
aS'aware'
p4800
aS'of'
p4801
aaa(lp4802
g4782
a(lp4803
S'the'
p4804
aS'uh'
p4805
aaa(lp4806
g4782
a(lp4807
S'the'
p4808
aS'contributions'
p4809
aaa(lp4810
g4782
a(lp4811
S'were'
p4812
aS'made'
p4813
aS'by'
p4814
aS'the'
p4815
aS'employer'
p4816
aaa(lp4817
g4782
a(lp4818
S'These'
p4819
aS'were'
p4820
aS'his'
p4821
aS'men'
p4822
aaa(lp4823
g4782
a(lp4824
S'and'
p4825
aS'we'
p4826
aS'were'
p4827
aS'doing'
p4828
ag109
aS'service'
p4829
aS'for'
p4830
aS'him'
p4831
aaa(lp4832
g4782
a(lp4833
S'under'
p4834
aS'this'
p4835
aS'agreement'
p4836
aS'that'
p4837
aS'we'
p4838
aS'had'
p4839
aS'between'
p4840
aS'us'
p4841
aaa(lp4842
S'JUDGE'
p4843
a(lp4844
S'Now'
p4845
aS'just'
p4846
aaa(lp4847
g4843
a(lp4848
S'just'
p4849
aS'seems'
p4850
aS'from'
p4851
ag109
aS'logical'
p4852
aS'standpoint'
p4853
aaa(lp4854
g4843
a(lp4855
g251
aS'wasnt'
p4856
aS'there'
p4857
aS'obviously'
p4858
aaa(lp4859
g4843
a(lp4860
S'it'
p4861
aS'seems'
p4862
aS'like'
p4863
aS'if'
p4864
aS'you'
p4865
aS'had'
p4866
aS'said'
p4867
aS'that'
p4868
aS'to'
p4869
aS'him'
p4870
aaa(lp4871
g4843
a(lp4872
S'he'
p4873
aS'wouldve'
p4874
aS'said'
p4875
aS'wait'
p4876
ag109
aS'minute'
p4877
aaa(lp4878
g4843
a(lp4879
S'its'
p4880
aS'not'
p4881
aS'worth'
p4882
aS'it'
p4883
aS'to'
p4884
aS'me'
p4885
aaa(lp4886
S'MITCHELL'
p4887
a(lp4888
S'Thats'
p4889
aS'correct'
p4890
aaa(lp4891
S'JUDGE'
p4892
a(lp4893
S'Would'
p4894
aS'you'
p4895
aaa(lp4896
g4892
a(lp4897
S'Would'
p4898
aS'you'
p4899
aS'think'
p4900
aS'he'
p4901
aS'would'
p4902
aS'say'
p4903
aS'that'
p4904
aaa(lp4905
S'MATTHEW'
p4906
a(lp4907
S'Yes'
p4908
aaa(lp4909
g4906
a(lp4910
g251
aS'would'
p4911
aS'think'
p4912
aS'he'
p4913
aS'would'
p4914
aaa(lp4915
g4906
a(lp4916
S'Why'
p4917
aS'would'
p4918
aS'he'
p4919
aS'do'
p4920
aS'the'
p4921
aS'work'
p4922
aaa(lp4923
S'JUDGE'
p4924
a(lp4925
S'Okay'
p4926
aaa(lp4927
S'MITCHELL'
p4928
a(lp4929
S'So'
p4930
aS'you'
p4931
aS'would'
p4932
aS'trick'
p4933
aS'me'
p4934
aS'into'
p4935
aS'doing'
p4936
aS'it'
p4937
aaa(lp4938
g4928
a(lp4939
S'Tho'
p4940
aaa(lp4941
S'JUDGE'
p4942
a(lp4943
S'Well'
p4944
aS'not'
p4945
aS'if'
p4946
aS'he'
p4947
aaa(lp4948
g4942
a(lp4949
S'not'
p4950
aS'if'
p4951
aS'he'
p4952
aS'said'
p4953
aS'to'
p4954
aS'you'
p4955
aaa(lp4956
S'MITCHELL'
p4957
a(lp4958
S'No'
p4959
aaa(lp4960
g4957
a(lp4961
S'but'
p4962
aS'then'
p4963
aaa(lp4964
S'MATTHEW'
p4965
a(lp4966
aa(lp4967
S'MITCHELL'
p4968
a(lp4969
S'Then'
p4970
aaa(lp4971
g4968
a(lp4972
S'with'
p4973
aS'all'
p4974
aS'my'
p4975
aaa(lp4976
g4968
a(lp4977
S'with'
p4978
aS'my'
p4979
aS'fourteen'
p4980
aS'years'
p4981
aS'experience'
p4982
aaa(lp4983
g4968
a(lp4984
S'Why'
p4985
aS'would'
p4986
ag251
aS'do'
p4987
aS'that'
p4988
aS'amount'
p4989
aS'amount'
p4990
aS'of'
p4991
aS'work'
p4992
aaa(lp4993
g4968
a(lp4994
S'and'
p4995
aS'knowingly'
p4996
aS'for'
p4997
aS'over'
p4998
aS'fifty'
p4999
aS'hours'
p5000
aS'of'
p5001
aS'work'
p5002
aaa(lp5003
S'JUDGE'
p5004
a(lp5005
S'Well'
p5006
ag251
aS'XX'
p5007
aaa(lp5008
S'MITCHELL'
p5009
a(lp5010
S'know'
p5011
ag251
aS'was'
p5012
aS'gonna'
p5013
aS'take'
p5014
aS'him'
p5015
aS'three'
p5016
aS'hundred'
p5017
aS'and'
p5018
aS'sixteen'
p5019
aS'dollars'
p5020
aS'to'
p5021
aS'do'
p5022
aS'it'
p5023
aaa(lp5024
S'JUDGE'
p5025
a(lp5026
S'That'
p5027
aS'may'
p5028
aS'be'
p5029
ag109
aS'like'
p5030
ag109
aS'buyers'
p5031
aS'remorse'
p5032
aaa(lp5033
g5025
a(lp5034
S'so'
p5035
ag251
aaa(lp5036
g5025
a(lp5037
g56
aS'uh'
p5038
ag251
aS'dont'
p5039
ag56
aaa(lp5040
S'MITCHELL'
p5041
a(lp5042
S'Well'
p5043
aS'thats'
p5044
aS'not'
p5045
aaa(lp5046
g5041
a(lp5047
g251
aS'have'
p5048
aS'fourteen'
p5049
aS'years'
p5050
aS'experience'
p5051
aS'in'
p5052
aS'the'
p5053
aS'trade'
p5054
aaa(lp5055
g5041
a(lp5056
S'Thats'
p5057
aS'why'
p5058
ag251
aS'turned'
p5059
aS'the'
p5060
ag3589
aS'the'
p5061
aS'job'
p5062
aS'down'
p5063
aS'to'
p5064
aS'begin'
p5065
aS'with'
p5066
aaa(lp5067
g5041
a(lp5068
g56
aS'Without'
p5069
ag56
aS'doing'
p5070
aS'any'
p5071
aS'work'
p5072
aS'at'
p5073
aS'all'
p5074
aaa(lp5075
S'JUDGE'
p5076
a(lp5077
S'Well'
p5078
aaa(lp5079
g5076
a(lp5080
S'Ill'
p5081
aS'tell'
p5082
aS'you'
p5083
aaa(lp5084
g5076
a(lp5085
S'if'
p5086
aS'Mister'
p5087
aS'Roberts'
p5088
aS'testimony'
p5089
aS'is'
p5090
aS'correct'
p5091
aS'he'
p5092
aS'should'
p5093
aS'win'
p5094
aaa(lp5095
g5076
a(lp5096
S'and'
p5097
aS'Mister'
p5098
aS'Collins'
p5099
aS'testimony'
p5100
aS'is'
p5101
aS'correct'
p5102
aS'then'
p5103
aS'he'
p5104
aS'should'
p5105
aS'prevail'
p5106
aaa(lp5107
S'MITCHELL'
p5108
a(lp5109
S'And'
p5110
ag251
aS'agree'
p5111
aS'with'
p5112
aS'you'
p5113
aaa(lp5114
S'JUDGE'
p5115
a(lp5116
S'Now'
p5117
aaa(lp5118
S'MITCHELL'
p5119
a(lp5120
S'But'
p5121
aS'the'
p5122
aS'fact'
p5123
aS'remains'
p5124
aaa(lp5125
g5119
a(lp5126
S'that'
p5127
ag251
aS'would'
p5128
aS'not'
p5129
aS'have'
p5130
aS'done'
p5131
aS'the'
p5132
aS'work'
p5133
aaa(lp5134
g5119
a(lp5135
S'for'
p5136
aS'this'
p5137
aS'amount'
p5138
aS'of'
p5139
aS'money'
p5140
aaa(lp5141
g5119
a(lp5142
S'Thats'
p5143
aS'why'
p5144
ag251
aS'turned'
p5145
aS'the'
p5146
aS'job'
p5147
aS'down'
p5148
aS'to'
p5149
aS'begin'
p5150
aS'with'
p5151
aaa(lp5152
g5119
a(lp5153
S'Thats'
p5154
aS'why'
p5155
aS'Im'
p5156
aS'here'
p5157
aS'in'
p5158
aS'the'
p5159
aS'court'
p5160
aS'today'
p5161
aaa(lp5162
g5119
a(lp5163
S'to'
p5164
aS'make'
p5165
aS'the'
p5166
aS'court'
p5167
aS'decide'
p5168
aaa(lp5169
g5119
a(lp5170
S'It'
p5171
aS'shouldnt'
p5172
aaa(lp5173
g5119
a(lp5174
S'It'
p5175
aS'shouldnt'
p5176
aS'be'
p5177
aS'legal'
p5178
aS'for'
p5179
aS'guys'
p5180
aS'to'
p5181
aS'do'
p5182
aS'this'
p5183
aaa(lp5184
S'JUDGE'
p5185
a(lp5186
S'Well'
p5187
aS'Im'
p5188
aS'gonna'
p5189
aS'make'
p5190
aaa(lp5191
g5185
a(lp5192
S'Im'
p5193
aS'gonna'
p5194
aS'make'
p5195
aaa(lp5196
g5185
a(lp5197
S'uh'
p5198
aaa(lp5199
g5185
a(lp5200
S'in'
p5201
aS'my'
p5202
aS'mind'
p5203
aaa(lp5204
g5185
a(lp5205
g109
aS'bad'
p5206
aS'decision'
p5207
aS'today'
p5208
aaa(lp5209
g5185
a(lp5210
S'Now'
p5211
aaa(lp5212
g5185
a(lp5213
S'you'
p5214
aS'both'
p5215
aS'seem'
p5216
aS'very'
p5217
aS'truthful'
p5218
aS'and'
p5219
aS'honest'
p5220
aaa(lp5221
g5185
a(lp5222
g251
aS'wasnt'
p5223
aS'there'
p5224
aaa(lp5225
S'MITCHELL'
p5226
a(lp5227
S'But'
p5228
aaa(lp5229
g5226
a(lp5230
S'Im'
p5231
aS'the'
p5232
aS'one'
p5233
aS'thats'
p5234
aS'bearing'
p5235
aS'the'
p5236
aS'burden'
p5237
aS'of'
p5238
aS'this'
p5239
aS'monetary'
p5240
aS'amount'
p5241
aaa(lp5242
S'JUDGE'
p5243
a(lp5244
S'you'
p5245
aS'have'
p5246
ag56
aS'to'
p5247
aS'bear'
p5248
aS'the'
p5249
aS'burden'
p5250
ag56
aS'proving'
p5251
aS'it'
p5252
aaa(lp5253
g5243
a(lp5254
S'but'
p5255
aaa(lp5256
S'MITCHELL'
p5257
a(lp5258
g251
aS'understand'
p5259
aS'that'
p5260
aaa(lp5261
S'JUDGE'
p5262
a(lp5263
S'Im'
p5264
aS'gonna'
p5265
aS'award'
p5266
aaa(lp5267
g5262
a(lp5268
S'um'
p5269
aaa(lp5270
g5262
a(lp5271
S'Mister'
p5272
aS'Roberts'
p5273
aaa(lp5274
g5262
a(lp5275
S'threehundred'
p5276
aS'fifty'
p5277
aS'dollars'
p5278
aaa(lp5279
g5262
a(lp5280
S'Approximately'
p5281
aS'half'
p5282
aaa(lp5283
g5262
a(lp5284
S'Now'
p5285
aS'Mister'
p5286
aS'Collins'
p5287
aS'may'
p5288
aS'not'
p5289
aS'like'
p5290
aS'that'
p5291
aaa(lp5292
g5262
a(lp5293
g56
aS'now'
p5294
ag1984
ag56
aaa(lp5295
g5262
a(lp5296
S'if'
p5297
aS'he'
p5298
aS'doesnt'
p5299
aS'like'
p5300
aS'it'
p5301
aaa(lp5302
g5262
a(lp5303
S'then'
p5304
aS'he'
p5305
aS'can'
p5306
aS'go'
p5307
aS'ahead'
p5308
aS'appeal'
p5309
aS'it'
p5310
aS'across'
p5311
aS'the'
p5312
aS'street'
p5313
aS'superior'
p5314
aS'court'
p5315
aaa(lp5316
g5262
a(lp5317
S'Running'
p5318
aS'the'
p5319
aS'risk'
p5320
aS'that'
p5321
aS'he'
p5322
aS'might'
p5323
aS'face'
p5324
aaa(lp5325
g5262
a(lp5326
S'the'
p5327
aS'full'
p5328
aS'amount'
p5329
aS'of'
p5330
aS'sevenhundred'
p5331
aS'and'
p5332
aS'four'
p5333
aS'dollars'
p5334
aaa(lp5335
S'MATTHEW'
p5336
a(lp5337
g251
aS'will'
p5338
aS'appeal'
p5339
aaa(lp5340
S'JUDGE'
p5341
a(lp5342
S'Okay'
p5343
aaa(lp5344
g5341
a(lp5345
S'But'
p5346
aS'Im'
p5347
aS'going'
p5348
aS'to'
p5349
aS'get'
p5350
aS'it'
p5351
aaa(lp5352
g5341
a(lp5353
S'and'
p5354
aS'award'
p5355
aS'mister'
p5356
aS'Roberts'
p5357
aaa(lp5358
g5341
a(lp5359
S'threehundred'
p5360
aS'and'
p5361
aS'fifty'
p5362
aS'dollars'
p5363
aaa(lp5364
g5341
a(lp5365
S'and'
p5366
aS'if'
p5367
aS'neither'
p5368
aS'party'
p5369
aS'is'
p5370
aS'happy'
p5371
aaa(lp5372
g5341
a(lp5373
S'maybe'
p5374
aS'theres'
p5375
aS'an'
p5376
aS'old'
p5377
aS'saying'
p5378
aS'in'
p5379
aS'court'
p5380
aS'that'
p5381
aaa(lp5382
g5341
a(lp5383
S'both'
p5384
aS'parties'
p5385
aS'are'
p5386
aS'unhappy'
p5387
aaa(lp5388
g5341
a(lp5389
S'the'
p5390
aS'judge'
p5391
aS'made'
p5392
ag109
aS'good'
p5393
aS'decision'
p5394
aaa(lp5395
g5341
a(lp5396
S'So'
p5397
aaa(lp5398
S'MATTHEW'
p5399
a(lp5400
S'Thank'
p5401
aS'you'
p5402
aS'your'
p5403
aS'honor'
p5404
aaa(lp5405
S'JUDGE'
p5406
a(lp5407
g56
aS'Make'
p5408
aS'it'
p5409
ag56
aS'for'
p5410
aS'the'
p5411
aS'uh'
p5412
aaa(lp5413
g5406
a(lp5414
S'plaintiff'
p5415
aS'of'
p5416
aS'threefifty'
p5417
aaa(lp5418
S'X'
p5419
a(lp5420
S'Theres'
p5421
aS'some'
p5422
aaa(lp5423
S'JUDGE'
p5424
a(lp5425
S'And'
p5426
ag251
aS'will'
p5427
aS'allow'
p5428
aS'the'
p5429
aS'court'
p5430
aS'costs'
p5431
aS'of'
p5432
aS'twenty'
p5433
aS'dollars'
p5434
aS'and'
p5435
aS'thirty'
p5436
aS'cents'
p5437
aaa(lp5438
S'X'
p5439
a(lp5440
g251
aS'think'
p5441
aS'theres'
p5442
aS'some'
p5443
aS'papers'
p5444
aS'up'
p5445
aS'there'
p5446
aaa(lp5447
S'MITCHELL'
p5448
a(lp5449
S'Thank'
p5450
aS'you'
p5451
aS'your'
p5452
aS'honor'
p5453
aaa(lp5454
S'X'
p5455
a(lp5456
S'XXX'
p5457
aaa.