(lp0
(lp1
S'PATTY'
p2
a(lp3
S'I'
p4
aS'Just'
p5
aS'wanted'
p6
aS'to'
p7
aS'go'
p8
aS'over'
p9
aS'the'
p10
aS'changes'
p11
aS'in'
p12
aS'the'
p13
aS'schedule'
p14
aaa(lp15
g2
a(lp16
S'Um'
p17
aS'originally'
p18
aaa(lp19
g2
a(lp20
S'we'
p21
aS'were'
p22
aS'going'
p23
aS'to'
p24
aS'require'
p25
aS'the'
p26
aS'um'
p27
aaa(lp28
g2
a(lp29
S'request'
p30
aS'for'
p31
aS'statement'
p32
aS'of'
p33
aS'interest'
p34
aS'and'
p35
aS'qualifications'
p36
aS'to'
p37
aS'come'
p38
aS'back'
p39
aS'to'
p40
aaa(lp41
g2
a(lp42
S'uh'
p43
aaa(lp44
g2
a(lp45
S'twenty'
p46
aS'North'
p47
aS'Clark'
p48
aS'Street'
p49
aaa(lp50
g2
a(lp51
S'on'
p52
aS'April'
p53
aS'seventh'
p54
aaa(lp55
g2
a(lp56
S'Um'
p57
aaa(lp58
g2
a(lp59
S'but'
p60
aS'the'
p61
aaa(lp62
g2
a(lp63
S'um'
p64
aaa(lp65
g2
a(lp66
S'coordinating'
p67
aS'council'
p68
aS'felt'
p69
aS'that'
p70
aS'it'
p71
aS'was'
p72
aS'wise'
p73
aS'to'
p74
aS'give'
p75
aS'the'
p76
aS'community'
p77
aaa(lp78
g2
a(lp79
S'more'
p80
aS'time'
p81
aaa(lp82
g2
a(lp83
S'a'
p84
aS'weekend'
p85
aaa(lp86
g2
a(lp87
S'two'
p88
aS'days'
p89
aaa(lp90
g2
a(lp91
S'to'
p92
aS'uh'
p93
aS'augment'
p94
aS'whatever'
p95
aS'application'
p96
aS'people'
p97
aS'were'
p98
aS'gonna'
p99
aS'submit'
p100
aaa(lp101
S'AUD'
p102
a(lp103
aa(lp104
S'PATTYso'
p105
a(lp106
S'the'
p107
aS'due'
p108
aS'date'
p109
aS'is'
p110
aS'changed'
p111
aS'from'
p112
aS'April'
p113
aS'seventh'
p114
aaa(lp115
g105
a(lp116
S'to'
p117
aS'April'
p118
aS'eleventh'
p119
aaa(lp120
g105
a(lp121
S'at'
p122
aS'noon'
p123
aaa(lp124
g105
a(lp125
S'And'
p126
aS'you'
p127
aS'can'
p128
aS'drop'
p129
aS'off'
p130
aS'those'
p131
aS'proposals'
p132
aS'at'
p133
aS'twenty'
p134
aS'North'
p135
aS'Clark'
p136
aS'Street'
p137
aaa(lp138
g105
a(lp139
S'Um'
p140
aaa(lp141
g105
a(lp142
S'the'
p143
aS'same'
p144
aS'process'
p145
aS'will'
p146
aS'continue'
p147
aaa(lp148
g105
a(lp149
S'but'
p150
aS'for'
p151
aS'the'
p152
aS'changes'
p153
aS'in'
p154
aS'the'
p155
aS'time'
p156
aaa(lp157
g105
a(lp158
S'at'
p159
aS'the'
p160
aS'time'
p161
aS'that'
p162
aS'you'
p163
aS'drop'
p164
aS'off'
p165
aS'your'
p166
aS'proposal'
p167
aaa(lp168
g105
a(lp169
S'you'
p170
aS'will'
p171
aS'be'
p172
aS'scheduled'
p173
aS'for'
p174
ag84
aS'uh'
p175
aS'public'
p176
aS'meeting'
p177
aaa(lp178
g105
a(lp179
S'where'
p180
aS'you'
p181
aS'will'
p182
aS'be'
p183
aS'given'
p184
ag84
aS'chance'
p185
aS'and'
p186
aS'an'
p187
aS'opportunity'
p188
aS'to'
p189
aS'present'
p190
aS'your'
p191
aS'uh'
p192
aS'proposal'
p193
aaa(lp194
g105
a(lp195
S'Um'
p196
aS'right'
p197
aS'now'
p198
aS'were'
p199
aS'looking'
p200
aS'at'
p201
aS'April'
p202
aS'fifteenth'
p203
aaa(lp204
g105
a(lp205
S'which'
p206
aS'is'
p207
ag84
aS'Friday'
p208
aaa(lp209
g105
a(lp210
S'and'
p211
aS's'
p212
aaa(lp213
g105
a(lp214
S'and'
p215
aS'April'
p216
aS'sixteenth'
p217
aaa(lp218
g105
a(lp219
S'as'
p220
aS'the'
p221
aS'uh'
p222
aS'date'
p223
aS'for'
p224
aS'that'
p225
aS'public'
p226
aS'presentation'
p227
aaa(lp228
g105
a(lp229
S'and'
p230
aS'we'
p231
aS'dont'
p232
aS'know'
p233
aaa(lp234
g105
a(lp235
S'where'
p236
aS'that'
p237
aS'will'
p238
aS'be'
p239
aS'held'
p240
aaa(lp241
g105
a(lp242
S'or'
p243
aS'what'
p244
aS'time'
p245
aS'that'
p246
aS'will'
p247
aS'be'
p248
aS'held'
p249
aaa(lp250
g105
a(lp251
S'but'
p252
aS'well'
p253
aS'make'
p254
aS'sure'
p255
aS'that'
p256
aS'everyone'
p257
aS'gets'
p258
aS'noticed'
p259
aS'about'
p260
aS'that'
p261
aaa(lp262
g105
a(lp263
S'During'
p264
aS'April'
p265
aS'seventeen'
p266
aS'to'
p267
aS'the'
p268
aS'twentythird'
p269
aaa(lp270
g105
a(lp271
S'the'
p272
aS'coordinating'
p273
aS'council'
p274
aS'will'
p275
aS'identify'
p276
aS'the'
p277
aS'empowerments'
p278
aS'on'
p279
aS'location'
p280
aaa(lp281
g105
a(lp282
S'and'
p283
aS'uh'
p284
aaa(lp285
g105
a(lp286
S'during'
p287
aS'the'
p288
aS'week'
p289
aS'of'
p290
aS'uh'
p291
aS'April'
p292
aS'twentyfifth'
p293
aaa(lp294
S'AUD'
p295
a(lp296
aa(lp297
S'PATTYthere'
p298
a(lp299
S'will'
p300
aS'be'
p301
ag84
aS'citywide'
p302
aS'meeting'
p303
aS'to'
p304
aS'present'
p305
aS'the'
p306
aS'selected'
p307
aS'empowerment'
p308
aS'zone'
p309
aaa(lp310
g298
a(lp311
S'uh'
p312
aS'to'
p313
aS'go'
p314
aS'over'
p315
aS'how'
p316
aS'that'
p317
aS'zone'
p318
aS'was'
p319
aS'selected'
p320
aaa(lp321
g298
a(lp322
S'and'
p323
aS'uh'
p324
aaa(lp325
g298
a(lp326
S'the'
p327
aS'place'
p328
aS'date'
p329
aS'and'
p330
aS'time'
p331
aS'for'
p332
aS'that'
p333
aS'meeting'
p334
aS'will'
p335
aS'also'
p336
aS'be'
p337
aS'announced'
p338
aaa(lp339
g298
a(lp340
S'Um'
p341
aaa(lp342
g298
a(lp343
S'from'
p344
aS'May'
p345
aS'second'
p346
aS'to'
p347
aS'June'
p348
aS'third'
p349
aaa(lp350
g298
a(lp351
S'the'
p352
aS'strategic'
p353
aS'plan'
p354
aaa(lp355
g298
a(lp356
S'for'
p357
aS'the'
p358
aS'empowerment'
p359
aS'zone'
p360
aaa(lp361
S'AUD'
p362
a(lp363
aa(lp364
S'PATTY'
p365
a(lp366
S'will'
p367
aS'be'
p368
aS'developed'
p369
aaa(lp370
g365
a(lp371
S'with'
p372
aS'the'
p373
aS'community'
p374
aaa(lp375
g365
a(lp376
S'and'
p377
aS'during'
p378
aS'the'
p379
aS'week'
p380
aS'of'
p381
aS'June'
p382
aS'sixth'
p383
aaa(lp384
g365
a(lp385
S'um'
p386
aaa(lp387
g365
a(lp388
g84
aS'public'
p389
aS'presentation'
p390
aS'of'
p391
aaa(lp392
g365
a(lp393
S'on'
p394
aS'the'
p395
aS'uh'
p396
aS'empowerment'
p397
aS'zone'
p398
aS'application'
p399
aaa(lp400
g365
a(lp401
S'and'
p402
aS'the'
p403
aS'strategic'
p404
aS'plan'
p405
aS'will'
p406
aS'presented'
p407
aS'be'
p408
aS'presented'
p409
aS'again'
p410
aaa(lp411
g365
a(lp412
S'the'
p413
aS'place'
p414
aS'date'
p415
aS'and'
p416
aS'time'
p417
aS'will'
p418
aS'be'
p419
aS'announced'
p420
aaa(lp421
g365
a(lp422
S'um'
p423
aaa(lp424
g365
a(lp425
S'and'
p426
aS'on'
p427
aS'June'
p428
aS'thirtieth'
p429
aaa(lp430
g365
a(lp431
S'thats'
p432
aS'the'
p433
aS'drop'
p434
aS'dead'
p435
aS'date'
p436
aaa(lp437
g365
a(lp438
S'um'
p439
aaa(lp440
g365
a(lp441
S'when'
p442
aS'we'
p443
aS'will'
p444
aS'send'
p445
aS'the'
p446
aS'application'
p447
aaa(lp448
g365
a(lp449
S'for'
p450
aS'selection'
p451
aS'by'
p452
aS'HUD'
p453
aS'as'
p454
aS'an'
p455
aS'empowerment'
p456
aS'zone'
p457
aS'for'
p458
aS'Chicago'
p459
aaa(lp460
g365
a(lp461
S'Um'
p462
aaa(lp463
g365
a(lp464
S'is'
p465
aS'if'
p466
aS'there'
p467
aS'are'
p468
aS'no'
p469
aS'other'
p470
aS'questions'
p471
aaa(lp472
g365
a(lp473
S'um'
p474
aaa(lp475
g365
a(lp476
S'we'
p477
aS'can'
p478
aaa(lp479
g365
a(lp480
S'yes'
p481
aS'sir'
p482
aaa(lp483
S'GRANT'
p484
a(lp485
S'X'
p486
ag4
aS'have'
p487
ag486
ag84
aS'question'
p488
aaa(lp489
S'PATTY'
p490
a(lp491
S'Yeah'
p492
aaa(lp493
S'GRANT'
p494
a(lp495
S'Worst'
p496
aS'case'
p497
aS'scenario'
p498
aaa(lp499
g494
a(lp500
S'After'
p501
aS'we'
p502
aS'submit'
p503
aS'em'
p504
aaa(lp505
g494
a(lp506
S'the'
p507
aS'uh'
p508
aS'the'
p509
aS'proposal'
p510
aS'application'
p511
aaa(lp512
g494
a(lp513
S'uh'
p514
aaa(lp515
g494
a(lp516
S'human'
p517
aS'beings'
p518
aS'being'
p519
aS'what'
p520
aS'they'
p521
aS'are'
p522
aaa(lp523
g494
a(lp524
S'organizations'
p525
aS'being'
p526
aS'what'
p527
aS'they'
p528
aS'are'
p529
aaa(lp530
g494
a(lp531
S'what'
p532
aS'will'
p533
aS'the'
p534
aS'coordinating'
p535
aS'council'
p536
aaa(lp537
g494
a(lp538
S'what'
p539
aS'does'
p540
aS'the'
p541
aS'city'
p542
aS'propose'
p543
aS'to'
p544
aS'do'
p545
aaa(lp546
g494
a(lp547
S'when'
p548
aS'theres'
p549
ag84
aS'hue'
p550
aS'and'
p551
aS'cry'
p552
aaa(lp553
g494
a(lp554
S'from'
p555
aS'those'
p556
aS'who'
p557
aS'attempting'
p558
aS'to'
p559
aS'empower'
p560
aS'themselves'
p561
aaa(lp562
g494
a(lp563
S'and'
p564
aS'combined'
p565
aS'with'
p566
aS'coupled'
p567
aS'with'
p568
aS'those'
p569
aS'who'
p570
aS'are'
p571
aS'seeking'
p572
aS'more'
p573
aS'power'
p574
aaa(lp575
g494
a(lp576
S'Who'
p577
aS'say'
p578
aS'unfair'
p579
aaa(lp580
g494
a(lp581
S'this'
p582
aS'wasnt'
p583
aS'done'
p584
aS'right'
p585
aaa(lp586
g494
a(lp587
S'according'
p588
aS'to'
p589
aS'our'
p590
aS'perspective'
p591
aaa(lp592
g494
a(lp593
S'or'
p594
aS'this'
p595
aS'that'
p596
aS'and'
p597
aS'the'
p598
aS'other'
p599
aaa(lp600
S'PATTY'
p601
a(lp602
S'that'
p603
aS'would'
p604
aS'be'
p605
aS'the'
p606
aS'worst'
p607
aS'case'
p608
aS'scenario'
p609
aaa(lp610
S'GRANT'
p611
a(lp612
g486
aaa(lp613
g611
a(lp614
S'worst'
p615
aS'case'
p616
aS'scenario'
p617
aaa(lp618
S'AUD'
p619
a(lp620
aa(lp621
S'GRANTWhat'
p622
a(lp623
S'can'
p624
aS'the'
p625
aS'city'
p626
aaa(lp627
g622
a(lp628
S'what'
p629
aaa(lp630
g622
a(lp631
S'what'
p632
aS'can'
p633
aS'the'
p634
aS'coordinating'
p635
aS'council'
p636
aaa(lp637
g622
a(lp638
S'or'
p639
aS'whats'
p640
aS'gonna'
p641
aS'be'
p642
aS'p'
p643
aaa(lp644
g622
a(lp645
S'be'
p646
aS'in'
p647
aS'place'
p648
aaa(lp649
g622
a(lp650
S'to'
p651
aS'listen'
p652
aS'to'
p653
aS'all'
p654
aS'the'
p655
aS'criticisms'
p656
aaa(lp657
S'AUD'
p658
a(lp659
aa(lp660
S'GRANT'
p661
a(lp662
S'all'
p663
aS'of'
p664
aS'the'
p665
aS'disappointments'
p666
aS'at'
p667
aaa(lp668
g661
a(lp669
S'not'
p670
aS'being'
p671
aS'selected'
p672
aaa(lp673
g661
a(lp674
S'so'
p675
aS'that'
p676
aaa(lp677
g661
a(lp678
S'lets'
p679
aS'say'
p680
aS'optimistically'
p681
aaa(lp682
g661
a(lp683
S'there'
p684
aS'are'
p685
aS'some'
p686
aS'good'
p687
aS'ideas'
p688
aaa(lp689
g661
a(lp690
S'some'
p691
aS'oversight'
p692
aaa(lp693
g661
a(lp694
S'or'
p695
aS'something'
p696
aS'that'
p697
aS'can'
p698
aS'be'
p699
aS'corrected'
p700
aaa(lp701
g661
a(lp702
S'hopefully'
p703
aS'thats'
p704
aS'of'
p705
aS'minor'
p706
aS'proportion'
p707
aaa(lp708
g661
a(lp709
S'So'
p710
aS'that'
p711
aaa(lp712
g661
a(lp713
S'we'
p714
aS'can'
p715
aS'still'
p716
aS'keep'
p717
aS'the'
p718
aS'city'
p719
aaa(lp720
g661
a(lp721
S'running'
p722
aS'smoothly'
p723
aaa(lp724
g661
a(lp725
S'and'
p726
aS'becoming'
p727
aS'more'
p728
aS'and'
p729
aS'more'
p730
aS'beautiful'
p731
aaa(lp732
S'PATTY'
p733
a(lp734
g4
aS'dont'
p735
aS'know'
p736
aS'if'
p737
aS'that'
p738
aS'issue'
p739
aS'has'
p740
aS'been'
p741
aS'discussed'
p742
aS'by'
p743
aS'the'
p744
aS'um'
p745
aS'coordinating'
p746
aS'council'
p747
aaa(lp748
g733
a(lp749
g4
aS'think'
p750
aS'its'
p751
ag84
aS'legitimate'
p752
aS'issue'
p753
aaa(lp754
g733
a(lp755
S'um'
p756
aaa(lp757
g733
a(lp758
g4
aS'w'
p759
aS'y'
p760
aS'would'
p761
aS'be'
p762
aS'willing'
p763
aS'to'
p764
aS'take'
p765
aS'that'
p766
aS'back'
p767
aaa(lp768
g733
a(lp769
S'to'
p770
aS'have'
p771
aS'them'
p772
aS'discuss'
p773
aS'that'
p774
aaa(lp775
g733
a(lp776
S'but'
p777
aaa(lp778
g733
a(lp779
g4
aS'mean'
p780
aS'the'
p781
aS'worst'
p782
aS'thing'
p783
aS'would'
p784
aS'be'
p785
aS'for'
p786
aaa(lp787
g733
a(lp788
S'HUD'
p789
aS'not'
p790
aS'to'
p791
aS'recognize'
p792
aS'that'
p793
aS'this'
p794
aS'is'
p795
ag84
aS'c'
p796
aS'collaborative'
p797
aS'effort'
p798
aaa(lp799
g733
a(lp800
g84
aS'partnership'
p801
aaa(lp802
g733
a(lp803
S'between'
p804
aS'the'
p805
aS'community'
p806
aaa(lp807
g733
a(lp808
S'the'
p809
aS'city'
p810
aaa(lp811
g733
a(lp812
S'the'
p813
aS'business'
p814
aS'community'
p815
aS'and'
p816
aS'the'
p817
aS'neighborhoods'
p818
aaa(lp819
g733
a(lp820
S'and'
p821
aaa(lp822
g733
a(lp823
g4
aS'mean'
p824
aS'it'
p825
aS'wouldnt'
p826
aS'bode'
p827
aS'well'
p828
aaa(lp829
g733
a(lp830
S'for'
p831
aS'Chicago'
p832
aS'to'
p833
aS'get'
p834
aS'an'
p835
aS'empowerment'
p836
aS'zone'
p837
aS'if'
p838
aaa(lp839
g733
a(lp840
S'if'
p841
aS'everyone'
p842
aS'were'
p843
aS'not'
p844
aS'supportive'
p845
aS'and'
p846
aS'on'
p847
aS'board'
p848
aaa(lp849
g733
a(lp850
S'So'
p851
aaa(lp852
g733
a(lp853
g4
aS'mean'
p854
aS'that'
p855
aS'answers'
p856
aS'your'
p857
aS'question'
p858
aaa(lp859
g733
a(lp860
g4
aS'dont'
p861
aS'know'
p862
aS'what'
p863
aS'the'
p864
aS'coordinating'
p865
aS'councils'
p866
aS'role'
p867
aaa(lp868
g733
a(lp869
S'in'
p870
aS'that'
p871
aS'case'
p872
aS'would'
p873
aS'be'
p874
aaa(lp875
g733
a(lp876
S'But'
p877
aS'well'
p878
aS'definitely'
p879
aS'take'
p880
aS'that'
p881
aS'message'
p882
aS'back'
p883
aaa(lp884
g733
a(lp885
g486
aS'on'
p886
aS'that'
p887
aS'question'
p888
ag4
ag486
aaa(lp889
S'GRANT'
p890
a(lp891
S'May'
p892
ag4
aS'propose'
p893
aS'that'
p894
aS'the'
p895
aS'coordinating'
p896
aS'council'
p897
aS'consider'
p898
aaa(lp899
g890
a(lp900
S'my'
p901
aS'individual'
p902
aS'worst'
p903
aS'case'
p904
aS'scenario'
p905
aaa(lp906
g890
a(lp907
S'and'
p908
aS'any'
p909
aS'other'
p910
aS'worst'
p911
aS'case'
p912
aS'scenarios'
p913
aaa(lp914
g890
a(lp915
S'that'
p916
aS'they'
p917
aS'collectively'
p918
ag486
aS'might'
p919
aS'come'
p920
aS'up'
p921
aS'with'
p922
ag486
aaa(lp923
g890
a(lp924
S'Notwithstanding'
p925
aS'Paul'
p926
aS'XXs'
p927
aS'suggestion'
p928
aaa(lp929
g890
a(lp930
S'that'
p931
aS'the'
p932
aS'empowerment'
p933
aS'zone'
p934
aS'moneys'
p935
aaa(lp936
g890
a(lp937
g84
aS'hundred'
p938
aS'million'
p939
aaa(lp940
g890
a(lp941
S'CTA'
p942
aS'green'
p943
aS'line'
p944
aaa(lp945
g890
a(lp946
S'threehundred'
p947
aS'million'
p948
aaa(lp949
g890
a(lp950
S'be'
p951
aS'utilized'
p952
aaa(lp953
g890
a(lp954
S'effectively'
p955
aS'and'
p956
aS'efficiently'
p957
aaa(lp958
g890
a(lp959
S'to'
p960
aS'get'
p961
ag84
aS'bigger'
p962
aS'bang'
p963
aS'for'
p964
aS'the'
p965
aS'buck'
p966
aaa(lp967
S'PATTY'
p968
a(lp969
S'kay'
p970
aS'XX'
p971
aaa(lp972
S'ROSE'
p973
a(lp974
g4
aS'just'
p975
aS'wanted'
p976
aS'to'
p977
aS'say'
p978
aS'that'
p979
aaa(lp980
g973
a(lp981
S'theres'
p982
aS'also'
p983
aS'some'
p984
aS'other'
p985
aS'opportunities'
p986
aS'for'
p987
aaa(lp988
g973
a(lp989
S'um'
p990
aaa(lp991
g973
a(lp992
S'organizations'
p993
aS'that'
p994
aS'are'
p995
aS'new'
p996
aaa(lp997
g973
a(lp998
S'in'
p999
aS'the'
p1000
aS'networking'
p1001
aS'process'
p1002
aaa(lp1003
g973
a(lp1004
S'and'
p1005
ag4
aS'think'
p1006
aS'that'
p1007
aS'the'
p1008
aS'more'
p1009
aS'meetings'
p1010
aS'you'
p1011
aS'can'
p1012
aS'attend'
p1013
aaa(lp1014
g973
a(lp1015
S'and'
p1016
aS'the'
p1017
aS'more'
p1018
aS'organizations'
p1019
aaa(lp1020
g973
a(lp1021
S'that'
p1022
aS'hear'
p1023
aS'your'
p1024
aS'voice'
p1025
aaa(lp1026
S'AUD'
p1027
a(lp1028
aa(lp1029
S'ROSEthe'
p1030
a(lp1031
S'better'
p1032
aaa(lp1033
g1030
a(lp1034
S'Theres'
p1035
aS'uh'
p1036
aaa(lp1037
g1030
a(lp1038
g84
aS'networking'
p1039
aS'meeting'
p1040
aS'going'
p1041
aS'on'
p1042
aaa(lp1043
g1030
a(lp1044
S'on'
p1045
aS'Friday'
p1046
aaa(lp1047
g1030
a(lp1048
S'at'
p1049
aS'nine'
p1050
aS'thirty'
p1051
aS'in'
p1052
aS'the'
p1053
aS'morning'
p1054
aaa(lp1055
g1030
a(lp1056
S'at'
p1057
aS'the'
p1058
ag486
aS'Mega'
p1059
ag486
aS'Center'
p1060
aaa(lp1061
g1030
a(lp1062
S'And'
p1063
aS'its'
p1064
aS'free'
p1065
aaa(lp1066
g1030
a(lp1067
S'Its'
p1068
aS'its'
p1069
ag84
aaa(lp1070
g1030
a(lp1071
S'its'
p1072
ag84
aS'group'
p1073
aS'of'
p1074
aS'assist'
p1075
aS'and'
p1076
aS'nonassist'
p1077
aS'agencies'
p1078
aaa(lp1079
g1030
a(lp1080
S'um'
p1081
aaa(lp1082
g1030
a(lp1083
S'organizations'
p1084
aS'like'
p1085
aS'CRCC'
p1086
aaa(lp1087
g1030
a(lp1088
S'the'
p1089
ag486
aS'Mega'
p1090
ag486
aS'Center'
p1091
aaa(lp1092
g1030
a(lp1093
S'the'
p1094
aS'COBCU'
p1095
aaa(lp1096
g1030
a(lp1097
S'Womens'
p1098
aS'Business'
p1099
aS'Development'
p1100
aS'Center'
p1101
aaa(lp1102
g1030
a(lp1103
S'Small'
p1104
aS'Business'
p1105
aS'Development'
p1106
aS'Center'
p1107
aaa(lp1108
g1030
a(lp1109
g4
aS'couldnt'
p1110
aS'even'
p1111
aS'begin'
p1112
aS'to'
p1113
aS'mention'
p1114
aS'the'
p1115
aS'list'
p1116
aaa(lp1117
g1030
a(lp1118
S'because'
p1119
aS'theres'
p1120
aS'about'
p1121
aS'twentyfive'
p1122
aS'different'
p1123
aS'assist'
p1124
aS'and'
p1125
aS'nonassist'
p1126
aS'agencies'
p1127
aS'on'
p1128
aS'there'
p1129
aaa(lp1130
g1030
a(lp1131
S'But'
p1132
ag4
aS'think'
p1133
aS'that'
p1134
aaa(lp1135
g1030
a(lp1136
S'anybody'
p1137
aS'who'
p1138
aS'belongs'
p1139
aS'to'
p1140
aS'an'
p1141
aS'organization'
p1142
aaa(lp1143
g1030
a(lp1144
S'um'
p1145
aaa(lp1146
g1030
a(lp1147
S'that'
p1148
aS'has'
p1149
aS'any'
p1150
aS'type'
p1151
aS'of'
p1152
aS'connection'
p1153
aS'with'
p1154
aS'the'
p1155
aS'city'
p1156
aaa(lp1157
g1030
a(lp1158
S'it'
p1159
aS'would'
p1160
aS'be'
p1161
aS'good'
p1162
aS'to'
p1163
aaa(lp1164
S'GRANTTwentysixth'
p1165
a(lp1166
S'where'
p1167
aaa(lp1168
S'ROSE'
p1169
a(lp1170
S'This'
p1171
aS'one'
p1172
aS'is'
p1173
aS'Friday'
p1174
aaa(lp1175
g1169
a(lp1176
S'at'
p1177
aS'nine'
p1178
aS'thirty'
p1179
aS'at'
p1180
aS'the'
p1181
ag486
aS'Mega'
p1182
ag486
aS'Center'
p1183
aaa(lp1184
S'GRANT'
p1185
a(lp1186
S'The'
p1187
ag486
aS'bank'
p1188
ag486
aaa(lp1189
g1185
a(lp1190
S'right'
p1191
aaa(lp1192
g1185
a(lp1193
S'Thats'
p1194
aS'the'
p1195
ag486
aS'bank'
p1196
ag486
aaa(lp1197
g1185
a(lp1198
g486
ag486
aaa(lp1199
S'ROSE'
p1200
a(lp1201
S'Its'
p1202
aS'one'
p1203
aS'o'
p1204
aS'five'
p1205
aS'West'
p1206
aS'Adams'
p1207
aaa(lp1208
g1200
a(lp1209
S'on'
p1210
aS'the'
p1211
aS'seventh'
p1212
aS'floor'
p1213
aaa(lp1214
S'GRANT'
p1215
a(lp1216
S'At'
p1217
aS'what'
p1218
aS'time'
p1219
aaa(lp1220
S'ROSE'
p1221
a(lp1222
S'Nine'
p1223
aaa(lp1224
g1221
a(lp1225
S'Im'
p1226
aS'sorry'
p1227
aaa(lp1228
g1221
a(lp1229
S'its'
p1230
aS'nine'
p1231
aS'to'
p1232
aS'tenthirty'
p1233
aaa(lp1234
S'GRANT'
p1235
a(lp1236
S'Okay'
p1237
aaa(lp1238
g1235
a(lp1239
g4
ag4
ag4
ag486
ag4
aS'have'
p1240
ag84
aS'clue'
p1241
aS'that'
p1242
aS'she'
p1243
aS'gave'
p1244
aS'me'
p1245
aaa(lp1246
g1235
a(lp1247
S'but'
p1248
aS'Ill'
p1249
aS'make'
p1250
aS'arrangements'
p1251
aS'on'
p1252
aS'it'
p1253
ag486
aaa(lp1254
S'ROSEMhm'
p1255
a(lp1256
aa(lp1257
S'PATTY'
p1258
a(lp1259
S'The'
p1260
aS'lady'
p1261
aS'in'
p1262
aS'the'
p1263
aS'yellow'
p1264
aS'sweater'
p1265
aaa(lp1266
S'KARENActually'
p1267
a(lp1268
g4
aS'was'
p1269
aaa(lp1270
g1267
a(lp1271
g486
aS'again'
p1272
ag486
ag4
aS'was'
p1273
aS'trying'
p1274
aS'to'
p1275
aS'reframe'
p1276
aS'his'
p1277
aS'concerns'
p1278
aS'in'
p1279
aS'the'
p1280
aS'best'
p1281
aS'case'
p1282
aS'scenario'
p1283
aaa(lp1284
g1267
a(lp1285
S'The'
p1286
aS'Alderman'
p1287
aS'spoke'
p1288
aS'to'
p1289
aaa(lp1290
g1267
a(lp1291
S'you'
p1292
aS'feel'
p1293
aS'that'
p1294
aaa(lp1295
g1267
a(lp1296
S'somehow'
p1297
aS'the'
p1298
aS'process'
p1299
aS'that'
p1300
aS'has'
p1301
aS'been'
p1302
aS'established'
p1303
aaa(lp1304
g1267
a(lp1305
S'Um'
p1306
aaa(lp1307
g1267
a(lp1308
S'could'
p1309
aS'divide'
p1310
aS'the'
p1311
aS'city'
p1312
aaa(lp1313
g1267
a(lp1314
S'Best'
p1315
aS'case'
p1316
aS'scenario'
p1317
aS'would'
p1318
aS'be'
p1319
aS'the'
p1320
aaa(lp1321
g1267
a(lp1322
S'provisions'
p1323
aS'were'
p1324
aS'made'
p1325
aaa(lp1326
g1267
a(lp1327
S'such'
p1328
aS'that'
p1329
aS'the'
p1330
aS'ideas'
p1331
aS'that'
p1332
aS'come'
p1333
aS'out'
p1334
aaa(lp1335
g1267
a(lp1336
S'and'
p1337
aS'the'
p1338
aS'collaborations'
p1339
aS'that'
p1340
aS'come'
p1341
aS'out'
p1342
aS'of'
p1343
aS'this'
p1344
aS'process'
p1345
aaa(lp1346
g1267
a(lp1347
S'and'
p1348
aS'let'
p1349
aS'them'
p1350
aS'continue'
p1351
aaa(lp1352
g1267
a(lp1353
S'Whether'
p1354
aS'or'
p1355
aS'not'
p1356
aS'the'
p1357
aS'city'
p1358
aS'of'
p1359
aS'Chicago'
p1360
aS'is'
p1361
aS'designated'
p1362
aS'for'
p1363
aS'anything'
p1364
aaa(lp1365
g1267
a(lp1366
S'That'
p1367
aS'that'
p1368
aS'some'
p1369
aS'reassurance'
p1370
aS'of'
p1371
aS'what'
p1372
aS'comes'
p1373
aS'out'
p1374
aS'of'
p1375
aS'it'
p1376
aaa(lp1377
S'AUD'
p1378
a(lp1379
aa(lp1380
S'KARENcould'
p1381
a(lp1382
S'be'
p1383
aaa(lp1384
g1381
a(lp1385
S'um'
p1386
aaa(lp1387
g1381
a(lp1388
S'somehow'
p1389
aS'taken'
p1390
aS'into'
p1391
aS'consideration'
p1392
aaa(lp1393
g1381
a(lp1394
S'and'
p1395
aS'continue'
p1396
aS'to'
p1397
aS'be'
p1398
aS'fostered'
p1399
aaa(lp1400
g1381
a(lp1401
S'from'
p1402
aS'the'
p1403
aS'city'
p1404
aS'of'
p1405
aS'Chicago'
p1406
aaa(lp1407
S'PATTY'
p1408
a(lp1409
g4
aS'think'
p1410
aS'the'
p1411
aS'city'
p1412
aS'is'
p1413
aaa(lp1414
g1408
a(lp1415
g4
aS'mean'
p1416
ag4
aS'know'
p1417
aS'the'
p1418
aS'city'
p1419
aS'is'
p1420
aS'committed'
p1421
aS'to'
p1422
aS'that'
p1423
aaa(lp1424
g1408
a(lp1425
S'and'
p1426
ag4
aS'know'
p1427
aS'that'
p1428
aS'that'
p1429
aS'has'
p1430
aS'come'
p1431
aS'up'
p1432
aS'at'
p1433
aS'the'
p1434
aS'i'
p1435
aS'um'
p1436
aaa(lp1437
g1408
a(lp1438
S'the'
p1439
aS'coordinating'
p1440
aS'council'
p1441
aS'meeting'
p1442
aaa(lp1443
g1408
a(lp1444
S'A'
p1445
aS'desire'
p1446
aS'to'
p1447
aS'work'
p1448
aaa(lp1449
g1408
a(lp1450
S'continue'
p1451
aS'to'
p1452
aS'work'
p1453
aaa(lp1454
S'AUD'
p1455
a(lp1456
aa(lp1457
S'PATTY'
p1458
a(lp1459
S'with'
p1460
aS'people'
p1461
aaa(lp1462
g1458
a(lp1463
S'no'
p1464
aS'matter'
p1465
aS'what'
p1466
aS'happens'
p1467
aaa(lp1468
g1458
a(lp1469
S'on'
p1470
aS'this'
p1471
aS'issue'
p1472
aaa(lp1473
g1458
a(lp1474
S'and'
p1475
aS'theres'
p1476
aS'been'
p1477
aS'some'
p1478
aS'discussion'
p1479
aS'about'
p1480
aaa(lp1481
g1458
a(lp1482
S'um'
p1483
aaa(lp1484
g1458
a(lp1485
S'other'
p1486
aS'kinds'
p1487
aS'of'
p1488
aS'funds'
p1489
aaa(lp1490
g1458
a(lp1491
S'that'
p1492
aS'could'
p1493
aS'be'
p1494
aS'put'
p1495
aS'towards'
p1496
aS'implementing'
p1497
aaa(lp1498
g1458
a(lp1499
S'uh'
p1500
aaa(lp1501
g1458
a(lp1502
S'uh'
p1503
aaa(lp1504
g1458
a(lp1505
S'areas'
p1506
aaa(lp1507
g1458
a(lp1508
S'plans'
p1509
aS'in'
p1510
aS'areas'
p1511
aS'that'
p1512
aS'are'
p1513
aS'not'
p1514
aS'selected'
p1515
aaa(lp1516
S'AUD'
p1517
a(lp1518
aa(lp1519
S'PATTYum'
p1520
a(lp1521
aa(lp1522
g1520
a(lp1523
S'so'
p1524
ag4
aS'think'
p1525
aS'there'
p1526
aS'is'
p1527
ag84
aS'commitment'
p1528
aS'to'
p1529
aS'do'
p1530
aS'that'
p1531
aaa(lp1532
g1520
a(lp1533
S'and'
p1534
aS'that'
p1535
aaa(lp1536
g1520
a(lp1537
S'that'
p1538
aS'certainly'
p1539
aS'has'
p1540
aS'been'
p1541
aS'the'
p1542
aS'spirit'
p1543
aaa(lp1544
g1520
a(lp1545
S'of'
p1546
aS'the'
p1547
aS'um'
p1548
aS'coordinating'
p1549
aS'council'
p1550
aaa(lp1551
g1520
a(lp1552
g486
aS'You'
p1553
aaa(lp1554
g1520
a(lp1555
S'and'
p1556
aS'then'
p1557
aS'Paul'
p1558
ag486
aaa(lp1559
S'DANUm'
p1560
a(lp1561
aa(lp1562
g1560
a(lp1563
S'Ive'
p1564
aS'got'
p1565
aS'uh'
p1566
aS'three'
p1567
aS'questions'
p1568
aS'for'
p1569
aS'you'
p1570
aaa(lp1571
g1560
a(lp1572
S'Uh'
p1573
aaa(lp1574
g1560
a(lp1575
S'and'
p1576
ag4
aS'suppose'
p1577
aS'your'
p1578
aS'response'
p1579
aS'is'
p1580
aS'gonna'
p1581
aS'just'
p1582
aS'kinda'
p1583
aS'XX'
p1584
aS'on'
p1585
aS'there'
p1586
aaa(lp1587
g1560
a(lp1588
S'but'
p1589
aS'first'
p1590
aaa(lp1591
g1560
a(lp1592
S'um'
p1593
aaa(lp1594
g1560
a(lp1595
S'does'
p1596
aS'the'
p1597
aS'city'
p1598
aS'have'
p1599
aS'any'
p1600
aS'idea'
p1601
aS'how'
p1602
aS'many'
p1603
aS'uh'
p1604
aaa(lp1605
g1560
a(lp1606
S'requests'
p1607
aS'theyre'
p1608
aS'gonna'
p1609
aaa(lp1610
g1560
a(lp1611
S'how'
p1612
aS'many'
p1613
aS'proposals'
p1614
aS'that'
p1615
aS'theyre'
p1616
aS'gonna'
p1617
aS'be'
p1618
aS'getting'
p1619
aaa(lp1620
g1560
a(lp1621
S'Do'
p1622
aS'you'
p1623
aS'have'
p1624
aS'an'
p1625
aS'estimation'
p1626
aaa(lp1627
S'PATTY'
p1628
a(lp1629
S'No'
p1630
aaa(lp1631
S'DAN'
p1632
a(lp1633
S'So'
p1634
aaa(lp1635
S'AUDX'
p1636
a(lp1637
S'At'
p1638
aS'least'
p1639
aS'one'
p1640
ag486
aaa(lp1641
S'DAN'
p1642
a(lp1643
aa(lp1644
S'MANY'
p1645
a(lp1646
aa(lp1647
S'DANIm'
p1648
a(lp1649
S'sure'
p1650
aaa(lp1651
g1648
a(lp1652
S'Um'
p1653
aaa(lp1654
g1648
a(lp1655
g212
aaa(lp1656
S'AUD'
p1657
a(lp1658
aa(lp1659
S'DAN'
p1660
a(lp1661
S'Uh'
p1662
aS'well'
p1663
aS'that'
p1664
aS'kind'
p1665
aS'of'
p1666
aS'leads'
p1667
aS'into'
p1668
aS'my'
p1669
aaa(lp1670
g1660
a(lp1671
S'my'
p1672
aS'next'
p1673
aS'question'
p1674
ag4
aS'think'
p1675
aS'touches'
p1676
aS'on'
p1677
aS'these'
p1678
aS'peoples'
p1679
aS'questions'
p1680
aaa(lp1681
g1660
a(lp1682
S'as'
p1683
aS'far'
p1684
aS'as'
p1685
aaa(lp1686
g1660
a(lp1687
S'it'
p1688
aS'seemed'
p1689
aS'like'
p1690
aS'it'
p1691
aS'would'
p1692
aS'behoove'
p1693
aS'us'
p1694
aS'all'
p1695
aaa(lp1696
g1660
a(lp1697
S'if'
p1698
aS'there'
p1699
aS'were'
p1700
aS'some'
p1701
aS'kind'
p1702
aS'of'
p1703
aS'consensus'
p1704
aS'building'
p1705
aS'process'
p1706
aS'before'
p1707
aaa(lp1708
g1660
a(lp1709
S'uh'
p1710
aaa(lp1711
g1660
a(lp1712
g486
aS'this'
p1713
aS'went'
p1714
aS'on'
p1715
aS'and'
p1716
ag486
aaa(lp1717
g1660
a(lp1718
S'So'
p1719
aS'what'
p1720
aS'people'
p1721
aS'are'
p1722
aS'saying'
p1723
aaa(lp1724
g1660
a(lp1725
S'theyre'
p1726
aS'having'
p1727
aS'community'
p1728
aS'meetings'
p1729
aaa(lp1730
g1660
a(lp1731
S'community'
p1732
aS'organiza'
p1733
aaa(lp1734
g1660
a(lp1735
S'community'
p1736
aaa(lp1737
g1660
a(lp1738
S'uh'
p1739
aaa(lp1740
g1660
a(lp1741
S'group'
p1742
aS'meetings'
p1743
aaa(lp1744
g1660
a(lp1745
S'But'
p1746
aaa(lp1747
g1660
a(lp1748
S'uh'
p1749
aaa(lp1750
g1660
a(lp1751
S'its'
p1752
aaa(lp1753
g1660
a(lp1754
S'from'
p1755
aS'what'
p1756
ag4
aS'understand'
p1757
aS'of'
p1758
aS'this'
p1759
aS'empowerment'
p1760
aS'zone'
p1761
aS'process'
p1762
aaa(lp1763
g1660
a(lp1764
S'the'
p1765
aS'idea'
p1766
aS'is'
p1767
aS'to'
p1768
aS'really'
p1769
aS'involve'
p1770
aS'things'
p1771
aS'on'
p1772
ag84
aS'g'
p1773
aS'grassroots'
p1774
aS'level'
p1775
aaa(lp1776
S'AUD'
p1777
a(lp1778
aa(lp1779
S'DAN'
p1780
a(lp1781
S'And'
p1782
aaa(lp1783
g1780
a(lp1784
S'my'
p1785
aS'two'
p1786
aS'concerns'
p1787
aS'on'
p1788
aS'par'
p1789
aaa(lp1790
g1780
a(lp1791
S'as'
p1792
aS'far'
p1793
aS'as'
p1794
aS'participation'
p1795
aS'goes'
p1796
aaa(lp1797
g1780
a(lp1798
S'are'
p1799
aS'one'
p1800
aaa(lp1801
g1780
a(lp1802
S'that'
p1803
aaa(lp1804
g1780
a(lp1805
g84
aS'and'
p1806
ag4
aS'voiced'
p1807
aS'this'
p1808
aS'concern'
p1809
aS'with'
p1810
ag486
aS'elder'
p1811
aS'Jarret'
p1812
ag486
aS'when'
p1813
aaa(lp1814
g1780
a(lp1815
S'uh'
p1816
aS'last'
p1817
aS'month'
p1818
aS'at'
p1819
aS'the'
p1820
aaa(lp1821
g1780
a(lp1822
S'uh'
p1823
aaa(lp1824
g1780
a(lp1825
S'Washington'
p1826
aaa(lp1827
g1780
a(lp1828
S'or'
p1829
aS'uh'
p1830
aS'Washington'
p1831
aS'Library'
p1832
aS'Center'
p1833
aS'when'
p1834
aS'they'
p1835
aaa(lp1836
g1780
a(lp1837
S'uh'
p1838
aaa(lp1839
g1780
a(lp1840
S'XX'
p1841
ag486
aS'the'
p1842
aS'person'
p1843
aS'introduced'
p1844
ag486
aS'that'
p1845
aaa(lp1846
g1780
a(lp1847
S'And'
p1848
aaa(lp1849
g1780
a(lp1850
S'that'
p1851
aS'is'
p1852
aaa(lp1853
g1780
a(lp1854
S'simply'
p1855
aS'throwing'
p1856
aS'this'
p1857
aS'out'
p1858
aS'into'
p1859
aS'the'
p1860
aS'community'
p1861
aS'and'
p1862
aS'saying'
p1863
aS'that'
p1864
aaa(lp1865
g1780
a(lp1866
S'you'
p1867
aS'expect'
p1868
aS'the'
p1869
aS'community'
p1870
aS'to'
p1871
aS'be'
p1872
aS'able'
p1873
aS'to'
p1874
aS'respond'
p1875
aaa(lp1876
g1780
a(lp1877
S'Community'
p1878
aS'groups'
p1879
aS'to'
p1880
aS'be'
p1881
aS'able'
p1882
aS'to'
p1883
aS'respond'
p1884
aS'to'
p1885
aS'you'
p1886
aaa(lp1887
g1780
a(lp1888
S'Is'
p1889
aaa(lp1890
g1780
a(lp1891
g4
aS'think'
p1892
aS'it'
p1893
aS'at'
p1894
aS'l'
p1895
aS'at'
p1896
aS'least'
p1897
aaa(lp1898
g1780
a(lp1899
S'not'
p1900
aS'an'
p1901
aS'effective'
p1902
aaa(lp1903
g1780
a(lp1904
S'uh'
p1905
aS'instrument'
p1906
aS'for'
p1907
aaa(lp1908
g1780
a(lp1909
S'for'
p1910
aS'getting'
p1911
aS'this'
p1912
aS'done'
p1913
aaa(lp1914
g1780
a(lp1915
S'Uh'
p1916
aaa(lp1917
S'AUD'
p1918
a(lp1919
aa(lp1920
S'PATTYI'
p1921
a(lp1922
S'think'
p1923
aS'that'
p1924
aS'thats'
p1925
aS'the'
p1926
aS'expectation'
p1927
aS'of'
p1928
aS'the'
p1929
aaa(lp1930
S'DAN'
p1931
a(lp1932
S'It'
p1933
aS'doesnt'
p1934
aaa(lp1935
g1931
a(lp1936
S'it'
p1937
aS'doesnt'
p1938
aS'address'
p1939
aaa(lp1940
S'PATTYof'
p1941
a(lp1942
S'the'
p1943
aS'XXXX'
p1944
aaa(lp1945
S'DAN'
p1946
a(lp1947
S'It'
p1948
aS'doesnt'
p1949
aS'address'
p1950
aS'the'
p1951
aS'fact'
p1952
aS'that'
p1953
aaa(lp1954
g1946
a(lp1955
S'one'
p1956
aaa(lp1957
g1946
a(lp1958
S'community'
p1959
aS'organizations'
p1960
aaa(lp1961
g1946
a(lp1962
S'um'
p1963
aaa(lp1964
g1946
a(lp1965
S'and'
p1966
aS'many'
p1967
aS'are'
p1968
aS'of'
p1969
aS'them'
p1970
aS'being'
p1971
aS'service'
p1972
aS'providers'
p1973
aaa(lp1974
g1946
a(lp1975
S'do'
p1976
aS'not'
p1977
aS'necessarily'
p1978
aS'have'
p1979
aaa(lp1980
g1946
a(lp1981
S'the'
p1982
aS'same'
p1983
aS'goals'
p1984
aaa(lp1985
g1946
a(lp1986
S'in'
p1987
aS'mind'
p1988
aaa(lp1989
g1946
a(lp1990
S'as'
p1991
aS'community'
p1992
aS'residents'
p1993
aS'do'
p1994
aaa(lp1995
g1946
a(lp1996
S'Theyve'
p1997
aS'got'
p1998
aS'different'
p1999
aS'agendas'
p2000
aaa(lp2001
g1946
a(lp2002
S'theyve'
p2003
aS'got'
p2004
aS'different'
p2005
aS'priorities'
p2006
aaa(lp2007
g1946
a(lp2008
S'theyve'
p2009
aS'got'
p2010
aS'different'
p2011
aS'purposes'
p2012
aaa(lp2013
g1946
a(lp2014
S'than'
p2015
aaa(lp2016
g1946
a(lp2017
S'members'
p2018
aS'of'
p2019
aS'the'
p2020
aS'r'
p2021
aS'the'
p2022
aS'community'
p2023
aS'themselves'
p2024
aaa(lp2025
g1946
a(lp2026
S'Um'
p2027
aaa(lp2028
g1946
a(lp2029
S'the'
p2030
aS'second'
p2031
aS'thing'
p2032
aS'is'
p2033
aS'that'
p2034
aaa(lp2035
g1946
a(lp2036
S'people'
p2037
aS'who'
p2038
aS'do'
p2039
aS'not'
p2040
aS'live'
p2041
aaa(lp2042
g1946
a(lp2043
S'directly'
p2044
aS'inside'
p2045
aaa(lp2046
g1946
a(lp2047
S'the'
p2048
aS'areas'
p2049
aS'that'
p2050
aS'are'
p2051
aS'gonna'
p2052
aS'be'
p2053
aS'part'
p2054
aS'of'
p2055
aS'the'
p2056
aS'empowerment'
p2057
aS'zones'
p2058
aaa(lp2059
g1946
a(lp2060
S'theyve'
p2061
aS'got'
p2062
aS'an'
p2063
aS'overriding'
p2064
aS'concern'
p2065
aS'in'
p2066
aS'this'
p2067
aS'because'
p2068
aaa(lp2069
g1946
a(lp2070
S'as'
p2071
aS'Mr'
p2072
aS'Pollack'
p2073
aS'said'
p2074
aaa(lp2075
g1946
a(lp2076
g1445
aS'hundred'
p2077
aS'million'
p2078
aS'dollars'
p2079
aS'is'
p2080
aS'just'
p2081
aS'gonna'
p2082
aS'be'
p2083
ag84
aS'drop'
p2084
aS'in'
p2085
aS'the'
p2086
aS'bucket'
p2087
aaa(lp2088
g1946
a(lp2089
S'To'
p2090
aS'be'
p2091
aS'able'
p2092
aS'to'
p2093
aS'make'
p2094
aS'these'
p2095
aS'things'
p2096
aS'work'
p2097
aaa(lp2098
g1946
a(lp2099
S'and'
p2100
aS'especially'
p2101
aS'to'
p2102
aS'make'
p2103
aS'them'
p2104
aS'work'
p2105
aS'over'
p2106
ag84
aS'ten'
p2107
aS'year'
p2108
aS'process'
p2109
aaa(lp2110
g1946
a(lp2111
S'that'
p2112
aS'this'
p2113
aS'is'
p2114
aS'calling'
p2115
aS'for'
p2116
aaa(lp2117
g1946
a(lp2118
S'therere'
p2119
aS'gonna'
p2120
aS'be'
p2121
ag84
aS'lot'
p2122
aS'of'
p2123
aS'community'
p2124
aS'resources'
p2125
aaa(lp2126
g1946
a(lp2127
g212
aaa(lp2128
g1946
a(lp2129
S'uh'
p2130
aaa(lp2131
g1946
a(lp2132
S'from'
p2133
aS'the'
p2134
aS'federal'
p2135
aS'government'
p2136
aaa(lp2137
g1946
a(lp2138
S'from'
p2139
aS'the'
p2140
aS'state'
p2141
aaa(lp2142
g1946
a(lp2143
S'county'
p2144
aaa(lp2145
g1946
a(lp2146
S'and'
p2147
aS'city'
p2148
aaa(lp2149
g1946
a(lp2150
S'that'
p2151
aS'are'
p2152
aS'gonna'
p2153
aS'need'
p2154
aS'to'
p2155
aS'be'
p2156
aS'marshalled'
p2157
aaa(lp2158
g1946
a(lp2159
S'theyre'
p2160
aS'gonna'
p2161
aS'need'
p2162
aS'to'
p2163
aS'be'
p2164
aaa(lp2165
g1946
a(lp2166
S'reallocated'
p2167
aS'to'
p2168
aS'this'
p2169
aS'area'
p2170
aaa(lp2171
g1946
a(lp2172
S'And'
p2173
aS'to'
p2174
aS'be'
p2175
aS'able'
p2176
aS'to'
p2177
aS'have'
p2178
ag84
aS'consensus'
p2179
aaa(lp2180
g1946
a(lp2181
S'not'
p2182
aS'just'
p2183
aS'within'
p2184
aS'the'
p2185
aS'empowerment'
p2186
aS'zone'
p2187
aaa(lp2188
g1946
a(lp2189
S'but'
p2190
aS'within'
p2191
aS'the'
p2192
aS'city'
p2193
aS'itself'
p2194
aaa(lp2195
g1946
a(lp2196
S'if'
p2197
aS'these'
p2198
aS'services'
p2199
aaa(lp2200
g1946
a(lp2201
S'Are'
p2202
aS'gonna'
p2203
aS'be'
p2204
aS'provided'
p2205
aS'and'
p2206
aS'maintained'
p2207
aaa(lp2208
g1946
a(lp2209
S'over'
p2210
aS'the'
p2211
aS'ten'
p2212
aS'years'
p2213
aaa(lp2214
g1946
a(lp2215
S'through'
p2216
aS'different'
p2217
aS'administrations'
p2218
aaa(lp2219
g1946
a(lp2220
S'through'
p2221
aS'different'
p2222
aS'aldermen'
p2223
aaa(lp2224
g1946
a(lp2225
S'political'
p2226
aS'processes'
p2227
aaa(lp2228
g1946
a(lp2229
S'involved'
p2230
aaa(lp2231
g1946
a(lp2232
S'these'
p2233
aS'people'
p2234
aS'are'
p2235
aS'not'
p2236
aS'being'
p2237
aS'brought'
p2238
aS'into'
p2239
aS'the'
p2240
aS'decisionmaking'
p2241
aS'process'
p2242
aS'beforehand'
p2243
aaa(lp2244
g1946
a(lp2245
S'And'
p2246
ag4
aS'think'
p2247
aS'this'
p2248
aS'speaks'
p2249
aS'to'
p2250
aS'these'
p2251
aS'peoples'
p2252
aS'concern'
p2253
aaa(lp2254
g1946
a(lp2255
S'that'
p2256
aaa(lp2257
S'PATTY'
p2258
a(lp2259
S'These'
p2260
aS'people'
p2261
aS'meaning'
p2262
aS'who'
p2263
aaa(lp2264
g2258
a(lp2265
S'The'
p2266
aaa(lp2267
S'DANI'
p2268
a(lp2269
g4
aS'heard'
p2270
aS'several'
p2271
aS'people'
p2272
aaa(lp2273
g2268
a(lp2274
S'this'
p2275
aS'this'
p2276
ag2021
aaa(lp2277
g2268
a(lp2278
g4
aS'dont'
p2279
aS'know'
p2280
aS'their'
p2281
aS'names'
p2282
aaa(lp2283
g2268
a(lp2284
S'So'
p2285
aS'Ill'
p2286
aS'just'
p2287
aS'have'
p2288
aS'to'
p2289
aaa(lp2290
g2268
a(lp2291
S'woman'
p2292
aS'in'
p2293
aS'yellow'
p2294
aaa(lp2295
g2268
a(lp2296
S'gentleman'
p2297
aS'here'
p2298
aS'in'
p2299
aS'the'
p2300
aS'glasses'
p2301
aaa(lp2302
g2268
a(lp2303
S'that'
p2304
aaa(lp2305
g2268
a(lp2306
S'theres'
p2307
aS'gonna'
p2308
aS'be'
p2309
aS'h'
p2310
aaa(lp2311
g2268
a(lp2312
S'uh'
p2313
aS'earlier'
p2314
aS'that'
p2315
aS'very'
p2316
aS'first'
p2317
aS'speaker'
p2318
aaa(lp2319
g2268
a(lp2320
S'gentleman'
p2321
aS'uh'
p2322
aaa(lp2323
g2268
a(lp2324
S'Ed'
p2325
aS'Smith'
p2326
aaa(lp2327
g2268
a(lp2328
S'Uh'
p2329
aaa(lp2330
g2268
a(lp2331
S'that'
p2332
aS'youre'
p2333
aS'gonna'
p2334
aS'be'
p2335
aS'receiving'
p2336
ag84
aS'number'
p2337
aS'of'
p2338
aS'proposals'
p2339
aaa(lp2340
g2268
a(lp2341
S'and'
p2342
aaa(lp2343
g2268
a(lp2344
S'you'
p2345
aS'say'
p2346
aS'you'
p2347
aS'dont'
p2348
aS'know'
p2349
aS'how'
p2350
aS'many'
p2351
aaa(lp2352
g2268
a(lp2353
g4
aS'dont'
p2354
aS'know'
p2355
aS'how'
p2356
aS'youre'
p2357
aS'gonna'
p2358
aS'have'
p2359
aaa(lp2360
g2268
a(lp2361
S'twentyeight'
p2362
aS'thirtytwo'
p2363
aS'people'
p2364
aS'that'
p2365
aS'you'
p2366
aS'said'
p2367
aaa(lp2368
g2268
a(lp2369
S'on'
p2370
ag84
aS'coordinating'
p2371
aS'council'
p2372
aS'read'
p2373
aaa(lp2374
g2268
a(lp2375
S'maybe'
p2376
ag84
aS'hundred'
p2377
aS'proposals'
p2378
aaa(lp2379
g2268
a(lp2380
S'within'
p2381
ag84
aS'weeks'
p2382
aS'time'
p2383
aaa(lp2384
g2268
a(lp2385
S'and'
p2386
aS'be'
p2387
aS'able'
p2388
aS'to'
p2389
aS'arrive'
p2390
aS'at'
p2391
aS'one'
p2392
aS'selected'
p2393
aS'empowerment'
p2394
aS'zone'
p2395
aaa(lp2396
g2268
a(lp2397
S'it'
p2398
aS'seems'
p2399
aS'to'
p2400
aS'me'
p2401
aS'that'
p2402
aS'it'
p2403
aS'be'
p2404
aS'much'
p2405
aS'more'
p2406
aS'beneficial'
p2407
aaa(lp2408
g2268
a(lp2409
S'if'
p2410
aS'the'
p2411
aS'entire'
p2412
aS'community'
p2413
aS'as'
p2414
ag84
aS'whole'
p2415
aaa(lp2416
g2268
a(lp2417
S'was'
p2418
aS'brought'
p2419
aS'into'
p2420
aS'this'
p2421
aS'process'
p2422
aaa(lp2423
g2268
a(lp2424
S'and'
p2425
aaa(lp2426
g2268
a(lp2427
S'this'
p2428
aS'is'
p2429
aS'what'
p2430
aS'Im'
p2431
aS'bringing'
p2432
aS'up'
p2433
aS'is'
p2434
aaa(lp2435
g2268
a(lp2436
S'the'
p2437
aS'idea'
p2438
aS'of'
p2439
aS'participation'
p2440
aaa(lp2441
g2268
a(lp2442
S'True'
p2443
aS'communitybased'
p2444
aS'citizen'
p2445
aS'participation'
p2446
aaa(lp2447
g2268
a(lp2448
S'would'
p2449
aS'involve'
p2450
aS'ongoing'
p2451
aS'series'
p2452
aS'of'
p2453
aS'meeting'
p2454
aaa(lp2455
g2268
a(lp2456
S'that'
p2457
ag4
aS'would'
p2458
aS'think'
p2459
aS'that'
p2460
aS'the'
p2461
aS'coordinating'
p2462
aS'council'
p2463
aS'would'
p2464
aS'be'
p2465
aS'promoting'
p2466
aaa(lp2467
g2268
a(lp2468
S'would'
p2469
aS'be'
p2470
aS'organizing'
p2471
aS'and'
p2472
aS'directing'
p2473
aS'on'
p2474
aS'an'
p2475
aS'ngoing'
p2476
aS'even'
p2477
aS'nightly'
p2478
aS'basis'
p2479
aaa(lp2480
S'AUD'
p2481
a(lp2482
aa(lp2483
S'PATTY'
p2484
a(lp2485
S'Thats'
p2486
aS'not'
p2487
aS'exactly'
p2488
aS'grassroot'
p2489
aS'planning'
p2490
aaa(lp2491
S'DAN'
p2492
a(lp2493
S'to'
p2494
aS'be'
p2495
aaa(lp2496
S'PATTYeither'
p2497
a(lp2498
aa(lp2499
S'DANRight'
p2500
a(lp2501
aa(lp2502
S'PATTY'
p2503
a(lp2504
S'um'
p2505
aaa(lp2506
g2503
a(lp2507
S'grassroot'
p2508
aS'planning'
p2509
aaa(lp2510
g2503
a(lp2511
S'is'
p2512
aS'when'
p2513
aS'people'
p2514
aS'get'
p2515
aS'out'
p2516
aS'in'
p2517
aS'the'
p2518
aS'community'
p2519
aaa(lp2520
g2503
a(lp2521
S'and'
p2522
aS'organize'
p2523
aaa(lp2524
S'DAN'
p2525
a(lp2526
S'But'
p2527
aS'they'
p2528
aS'need'
p2529
ag84
aS'forum'
p2530
aaa(lp2531
S'PATTY'
p2532
a(lp2533
S'and'
p2534
aS'do'
p2535
aS'the'
p2536
aS'work'
p2537
aaa(lp2538
S'DANthey'
p2539
a(lp2540
S'need'
p2541
aaa(lp2542
g2539
a(lp2543
S'if'
p2544
aS'this'
p2545
aS'woman'
p2546
aS'here'
p2547
aS'today'
p2548
aS'did'
p2549
aS'not'
p2550
aS'speak'
p2551
aS'up'
p2552
aaa(lp2553
S'PATTY'
p2554
a(lp2555
S'and'
p2556
aaa(lp2557
S'PATTYLet'
p2558
a(lp2559
S'me'
p2560
aS'answer'
p2561
aS'your'
p2562
aS'question'
p2563
aaa(lp2564
S'DANAll'
p2565
a(lp2566
S'these'
p2567
aS'people'
p2568
aS'here'
p2569
aS'would'
p2570
aS'not'
p2571
aS'even'
p2572
aS'know'
p2573
ag84
aS'meeting'
p2574
aS'was'
p2575
aS'going'
p2576
aS'on'
p2577
aaa(lp2578
S'PATTYLet'
p2579
a(lp2580
S'me'
p2581
aS'try'
p2582
aS'to'
p2583
aS'respond'
p2584
aS'to'
p2585
aS'your'
p2586
aS'question'
p2587
aS'sir'
p2588
aaa(lp2589
g2579
a(lp2590
S'So'
p2591
aaa(lp2592
g2579
a(lp2593
S'what'
p2594
aS'youre'
p2595
aS'suggesting'
p2596
aS'is'
p2597
aS'not'
p2598
ag84
aS'grassroot'
p2599
aaa(lp2600
g2579
a(lp2601
S'in'
p2602
aS'my'
p2603
aS'opinion'
p2604
aaa(lp2605
g2579
a(lp2606
g84
aS'grassroot'
p2607
aS'process'
p2608
aaa(lp2609
g2579
a(lp2610
S'Secondly'
p2611
aaa(lp2612
g2579
a(lp2613
S'the'
p2614
aS'the'
p2615
aS'the'
p2616
aS'reality'
p2617
aS'is'
p2618
aaa(lp2619
g2579
a(lp2620
S'we'
p2621
aS'only'
p2622
aS'have'
p2623
aaa(lp2624
g2579
a(lp2625
S'till'
p2626
aS'June'
p2627
aS'thirtieth'
p2628
aS'to'
p2629
aS'submit'
p2630
aS'an'
p2631
aS'application'
p2632
aaa(lp2633
g2579
a(lp2634
g1445
aS'really'
p2635
aaa(lp2636
g2579
a(lp2637
g84
aS'true'
p2638
aS'strategic'
p2639
aS'planning'
p2640
aS'process'
p2641
aaa(lp2642
g2579
a(lp2643
S'grassroot'
p2644
aaa(lp2645
g2579
a(lp2646
S'takes'
p2647
aS'many'
p2648
aS'more'
p2649
aS'months'
p2650
aS'than'
p2651
aS'that'
p2652
aaa(lp2653
g2579
a(lp2654
S'Many'
p2655
aS'more'
p2656
aS'years'
p2657
aS'than'
p2658
aS'we'
p2659
aS'have'
p2660
aaa(lp2661
S'DAN'
p2662
a(lp2663
S'XX'
p2664
aaa(lp2665
S'PATTY'
p2666
a(lp2667
S'Okay'
p2668
aaa(lp2669
g2666
a(lp2670
S'So'
p2671
aaa(lp2672
g2666
a(lp2673
S'we'
p2674
aS'have'
p2675
aS'to'
p2676
aS'do'
p2677
aS'the'
p2678
aS'best'
p2679
aS'that'
p2680
aS'we'
p2681
aS'can'
p2682
aS'do'
p2683
aaa(lp2684
g2666
a(lp2685
S'given'
p2686
aS'the'
p2687
aS'time'
p2688
aS'that'
p2689
aS'we'
p2690
aS'have'
p2691
aaa(lp2692
S'DAN'
p2693
a(lp2694
S'And'
p2695
aS'all'
p2696
aS'Im'
p2697
aS'saying'
p2698
aS'is'
p2699
aaa(lp2700
g2693
a(lp2701
S'Im'
p2702
aS'saying'
p2703
aS'that'
p2704
aaa(lp2705
g2693
a(lp2706
g4
aS'dont'
p2707
aS'believe'
p2708
ag84
aS'forum'
p2709
aaa(lp2710
g2693
a(lp2711
S'is'
p2712
aS'being'
p2713
aS'presented'
p2714
aS'for'
p2715
aS'community'
p2716
aS'groups'
p2717
aS'to'
p2718
aaa(lp2719
g2693
a(lp2720
g4
aS'mean'
p2721
aaa(lp2722
g2693
a(lp2723
S'some'
p2724
aS'people'
p2725
aS'are'
p2726
aS'finding'
p2727
aS'out'
p2728
aS'about'
p2729
aS'this'
p2730
aS'for'
p2731
aS'the'
p2732
aS'first'
p2733
aS'time'
p2734
aS'tonight'
p2735
aaa(lp2736
g2693
a(lp2737
S'some'
p2738
aS'people'
p2739
aS'are'
p2740
aS'finding'
p2741
aS'out'
p2742
aS'about'
p2743
aS'meetings'
p2744
aaa(lp2745
g2693
a(lp2746
S'that'
p2747
aS'are'
p2748
aS'going'
p2749
aS'on'
p2750
aS'with'
p2751
aS'other'
p2752
aS'groups'
p2753
aaa(lp2754
g2693
a(lp2755
S'for'
p2756
aS'the'
p2757
aS'first'
p2758
aS'time'
p2759
aS'tonight'
p2760
aaa(lp2761
g2693
a(lp2762
S'this'
p2763
aS'is'
p2764
aS'not'
p2765
aS'being'
p2766
aS'promoted'
p2767
aS'by'
p2768
aS'the'
p2769
aS'city'
p2770
aaa(lp2771
g2693
a(lp2772
S'this'
p2773
aS'is'
p2774
aS'not'
p2775
aS'being'
p2776
aS'publicized'
p2777
aS'as'
p2778
ag84
aS'forum'
p2779
aS'as'
p2780
ag84
aaa(lp2781
S'PATTY'
p2782
a(lp2783
S'It'
p2784
aS'has'
p2785
aS'been'
p2786
aS'promoted'
p2787
aaa(lp2788
g2782
a(lp2789
S'it'
p2790
aS'has'
p2791
aS'been'
p2792
aS'publicized'
p2793
aaa(lp2794
g2782
a(lp2795
g4
aS'dont'
p2796
aS'know'
p2797
aaa(lp2798
S'DANIll'
p2799
a(lp2800
S'tell'
p2801
aS'you'
p2802
aS'right'
p2803
aS'now'
p2804
aaa(lp2805
g2799
a(lp2806
S'that'
p2807
aS'the'
p2808
aS'leading'
p2809
aaa(lp2810
g2799
a(lp2811
S'onprofit'
p2812
aaa(lp2813
g2799
a(lp2814
S'affordable'
p2815
aS'housing'
p2816
aS'provider'
p2817
aS'on'
p2818
aS'the'
p2819
aS'West'
p2820
aS'Side'
p2821
aaa(lp2822
g2799
a(lp2823
S'isnt'
p2824
aS'even'
p2825
aS'involved'
p2826
aS'with'
p2827
aS'this'
p2828
aaa(lp2829
g2799
a(lp2830
S'He'
p2831
aS'said'
p2832
aS'he'
p2833
aS'hasnt'
p2834
aS'even'
p2835
aS'XXX'
p2836
aaa(lp2837
g2799
a(lp2838
S'PRIDE'
p2839
aaa(lp2840
g2799
a(lp2841
S'has'
p2842
aS'not'
p2843
aS'even'
p2844
aS'been'
p2845
aS'contacted'
p2846
aaa(lp2847
g2799
a(lp2848
S'by'
p2849
aS'those'
p2850
aS'groups'
p2851
aS'on'
p2852
aS'the'
p2853
aS'West'
p2854
aS'Side'
p2855
aaa(lp2856
S'PATTYWell'
p2857
a(lp2858
aa(lp2859
g2857
a(lp2860
S'let'
p2861
aS'me'
p2862
aS'tell'
p2863
aS'you'
p2864
aaa(lp2865
g2857
a(lp2866
S'Ive'
p2867
aS'worked'
p2868
aS'with'
p2869
aS'PRIDE'
p2870
aaa(lp2871
g2857
a(lp2872
S'and'
p2873
ag4
aS'had'
p2874
ag84
aS'meeting'
p2875
aS'with'
p2876
aS'PRIDE'
p2877
aS'last'
p2878
aS'week'
p2879
aaa(lp2880
g2857
a(lp2881
S'they'
p2882
aS'know'
p2883
aS'about'
p2884
aS'it'
p2885
aaa(lp2886
S'DANI'
p2887
a(lp2888
S'didnt'
p2889
aS'say'
p2890
aS'they'
p2891
aS'didnt'
p2892
aS'know'
p2893
aS'about'
p2894
aS'it'
p2895
aaa(lp2896
g2887
a(lp2897
g4
aS'said'
p2898
aS'theyre'
p2899
aS'not'
p2900
aS'being'
p2901
aaa(lp2902
g2887
a(lp2903
S'theyre'
p2904
aS'not'
p2905
aS'being'
p2906
aS'contacted'
p2907
aS'by'
p2908
ag760
aaa(lp2909
g2887
a(lp2910
S'as'
p2911
aS'far'
p2912
aS'as'
p2913
aS'being'
p2914
aS'brought'
p2915
aS'into'
p2916
ag84
aS'network'
p2917
aaa(lp2918
g2887
a(lp2919
S'for'
p2920
aS'this'
p2921
aaa(lp2922
g2887
a(lp2923
S'Im'
p2924
aS'Im'
p2925
aS'sorry'
p2926
aaa(lp2927
g2887
a(lp2928
S'Im'
p2929
aS'not'
p2930
aS'trying'
p2931
aS'to'
p2932
aS'be'
p2933
aS'confrontational'
p2934
aaa(lp2935
g2887
a(lp2936
S'Okay'
p2937
aaa(lp2938
g2887
a(lp2939
S'Im'
p2940
aS'trying'
p2941
aS'to'
p2942
aS'raise'
p2943
aS'issues'
p2944
aS'and'
p2945
aS'concerns'
p2946
aaa(lp2947
g2887
a(lp2948
S'Alright'
p2949
aaa(lp2950
S'PATTYAlthough'
p2951
a(lp2952
g4
aS'do'
p2953
aS'think'
p2954
aaa(lp2955
S'DAN'
p2956
a(lp2957
S'The'
p2958
aS'second'
p2959
aaa(lp2960
g2956
a(lp2961
S'my'
p2962
aS'second'
p2963
aS'qu'
p2964
aaa(lp2965
S'PATTYthat'
p2966
a(lp2967
S'the'
p2968
aS'organization'
p2969
aaa(lp2970
g2966
a(lp2971
S'has'
p2972
ag84
aS'responsibility'
p2973
aaa(lp2974
g2966
a(lp2975
S'If'
p2976
aS'theyre'
p2977
aS'interested'
p2978
aS'in'
p2979
aS'this'
p2980
aaa(lp2981
S'DAN'
p2982
a(lp2983
S'Undoubtedly'
p2984
aaa(lp2985
g2982
a(lp2986
S'Undoubtedly'
p2987
aaa(lp2988
S'PATTYAnd'
p2989
a(lp2990
S'they'
p2991
aS'care'
p2992
aS'about'
p2993
aS'empowerment'
p2994
aS'of'
p2995
aS'th'
p2996
aS'of'
p2997
aS'their'
p2998
aS'constituency'
p2999
aaa(lp3000
S'DANUndoubtedly'
p3001
a(lp3002
aa(lp3003
S'PATTYto'
p3004
a(lp3005
S'get'
p3006
aS'involved'
p3007
aS'in'
p3008
aS'the'
p3009
aS'process'
p3010
aaa(lp3011
g3004
a(lp3012
S'and'
p3013
aS'find'
p3014
ag84
aS'way'
p3015
aS'to'
p3016
aS'make'
p3017
aS'that'
p3018
aS'happen'
p3019
aS'XX'
p3020
aaa(lp3021
S'DANM'
p3022
a(lp3023
S'my'
p3024
aS'second'
p3025
aS'question'
p3026
aS'would'
p3027
aS'be'
p3028
aS'on'
p3029
aS'the'
p3030
aS'process'
p3031
aaa(lp3032
g3022
a(lp3033
S'the'
p3034
aS'city'
p3035
aS'obviouslys'
p3036
aS'got'
p3037
aS'its'
p3038
aS'own'
p3039
aS'priorities'
p3040
aaa(lp3041
g3022
a(lp3042
S'its'
p3043
aS'got'
p3044
aaa(lp3045
g3022
a(lp3046
S'um'
p3047
aaa(lp3048
g3022
a(lp3049
S'funds'
p3050
aS'already'
p3051
aS'allocated'
p3052
aS'in'
p3053
aS'budget'
p3054
aaa(lp3055
g3022
a(lp3056
S'its'
p3057
aS'got'
p3058
aS'areas'
p3059
aS'designated'
p3060
aS'that'
p3061
aS'they'
p3062
aS'would'
p3063
aS'like'
p3064
aS'to'
p3065
aS'see'
p3066
aS'worked'
p3067
aS'on'
p3068
aaa(lp3069
g3022
a(lp3070
S'and'
p3071
aaa(lp3072
g3022
a(lp3073
S'my'
p3074
aS'question'
p3075
aS'as'
p3076
aS'far'
p3077
aS'as'
p3078
aS'the'
p3079
aS'process'
p3080
aS'is'
p3081
ag796
aaa(lp3082
g3022
a(lp3083
S'way'
p3084
aS'the'
p3085
aS'selection'
p3086
aS'goes'
p3087
aaa(lp3088
g3022
a(lp3089
S'are'
p3090
aS'um'
p3091
aaa(lp3092
g3022
a(lp3093
S'what'
p3094
aaa(lp3095
g3022
a(lp3096
g759
aS'which'
p3097
aS'is'
p3098
aS'gonna'
p3099
aS'drive'
p3100
aS'which'
p3101
aaa(lp3102
g3022
a(lp3103
S'How'
p3104
aS'much'
p3105
aS'weight'
p3106
aS'are'
p3107
aS'gonna'
p3108
aS'be'
p3109
aS'given'
p3110
aS'to'
p3111
aaa(lp3112
g3022
a(lp3113
S'um'
p3114
aaa(lp3115
g3022
a(lp3116
S'proposals'
p3117
aaa(lp3118
g3022
a(lp3119
S'which'
p3120
aS'dovetail'
p3121
aS'into'
p3122
aS'existing'
p3123
aS'programs'
p3124
aaa(lp3125
g3022
a(lp3126
S'that'
p3127
aS'the'
p3128
aS'city'
p3129
aS'has'
p3130
aaa(lp3131
g3022
a(lp3132
S'or'
p3133
aaa(lp3134
g3022
a(lp3135
S'that'
p3136
aS'the'
p3137
aS'city'
p3138
aS'is'
p3139
aS'intending'
p3140
aS'on'
p3141
aS'implementing'
p3142
aS'in'
p3143
aS'certain'
p3144
aS'areas'
p3145
aaa(lp3146
g3022
a(lp3147
S'and'
p3148
aS'how'
p3149
aS'much'
p3150
aS'is'
p3151
aS'the'
p3152
aS'city'
p3153
aS'willing'
p3154
aS'to'
p3155
aS'bend'
p3156
aS'and'
p3157
aS'say'
p3158
aaa(lp3159
g3022
a(lp3160
g4
aS'will'
p3161
ag1773
aaa(lp3162
g3022
a(lp3163
S'we'
p3164
aS'are'
p3165
aS'gonna'
p3166
aS'forego'
p3167
aS'these'
p3168
aS'uh'
p3169
aS'scheduled'
p3170
aS'or'
p3171
aS'proposed'
p3172
aS'projects'
p3173
aaa(lp3174
g3022
a(lp3175
S'to'
p3176
aS'be'
p3177
aS'able'
p3178
aS'to'
p3179
aS'dovetail'
p3180
aS'into'
p3181
aS'empowerment'
p3182
aS'zones'
p3183
aaa(lp3184
S'GRANT'
p3185
a(lp3186
S'Whats'
p3187
aS'being'
p3188
aS'said'
p3189
aaa(lp3190
g3185
a(lp3191
S'Patty'
p3192
aS'is'
p3193
aaa(lp3194
g3185
a(lp3195
S'when'
p3196
aS'is'
p3197
aS'the'
p3198
aS'city'
p3199
aS'going'
p3200
aS'to'
p3201
aS'present'
p3202
aaa(lp3203
g3185
a(lp3204
S'say'
p3205
aS'for'
p3206
aS'instance'
p3207
aaa(lp3208
g3185
a(lp3209
S'its'
p3210
aS'overall'
p3211
aS'plan'
p3212
aaa(lp3213
g3185
a(lp3214
S'for'
p3215
aS'conducting'
p3216
aS'the'
p3217
aS'city'
p3218
aaa(lp3219
g3185
a(lp3220
S'So'
p3221
aS'everyone'
p3222
aS'can'
p3223
aS'see'
p3224
aaa(lp3225
g3185
a(lp3226
S'their'
p3227
aS'seat'
p3228
aaa(lp3229
g3185
a(lp3230
S'in'
p3231
aS'the'
p3232
aS'auditorium'
p3233
aaa(lp3234
g3185
a(lp3235
S'or'
p3236
aS'their'
p3237
aS'place'
p3238
aS'around'
p3239
aS'the'
p3240
aS'table'
p3241
aaa(lp3242
g3185
a(lp3243
S'and'
p3244
aS'how'
p3245
aS'long'
p3246
aS'will'
p3247
aS'they'
p3248
aS'have'
p3249
aS'to'
p3250
aS'wait'
p3251
aS'for'
p3252
aS'their'
p3253
aS'turn'
p3254
aS'for'
p3255
aS'development'
p3256
aaa(lp3257
g3185
a(lp3258
S'when'
p3259
aS'will'
p3260
aS'their'
p3261
aS'interests'
p3262
aS'be'
p3263
aS'served'
p3264
aaa(lp3265
g3185
a(lp3266
S'so'
p3267
aaa(lp3268
g3185
a(lp3269
S'this'
p3270
aS'empowerment'
p3271
aS'zone'
p3272
aaa(lp3273
g3185
a(lp3274
S'it'
p3275
aS'simply'
p3276
aS'seems'
p3277
aS'to'
p3278
aS'me'
p3279
aaa(lp3280
g3185
a(lp3281
S'is'
p3282
aS'opening'
p3283
ag84
aS'Pandoras'
p3284
aS'Box'
p3285
aaa(lp3286
S'PATTY'
p3287
a(lp3288
S'Go'
p3289
aS'ahead'
p3290
aaa(lp3291
g3287
a(lp3292
S'Well'
p3293
aS'to'
p3294
aaa(lp3295
g3287
a(lp3296
S'let'
p3297
aS'me'
p3298
aS'answer'
p3299
aS'your'
p3300
aS'question'
p3301
aS'in'
p3302
aS'terms'
p3303
aS'of'
p3304
aS'the'
p3305
aS'um'
p3306
aaa(lp3307
g3287
a(lp3308
S'uh'
p3309
aaa(lp3310
g3287
a(lp3311
S'proposed'
p3312
aS'plans'
p3313
aaa(lp3314
g3287
a(lp3315
g4
aS'mean'
p3316
aS'right'
p3317
aS'now'
p3318
aaa(lp3319
g3287
a(lp3320
S'the'
p3321
aS'um'
p3322
aS'coordinating'
p3323
aS'council'
p3324
aaa(lp3325
g3287
a(lp3326
S'is'
p3327
aS'making'
p3328
aS'the'
p3329
aS'selection'
p3330
aaa(lp3331
g3287
a(lp3332
S'based'
p3333
aS'on'
p3334
aS'the'
p3335
aS'information'
p3336
aaa(lp3337
g3287
a(lp3338
S'that'
p3339
aS'is'
p3340
aS'received'
p3341
aS'from'
p3342
aS'the'
p3343
aS'community'
p3344
aaa(lp3345
g3287
a(lp3346
S'And'
p3347
aS'obviously'
p3348
aS'there'
p3349
aS'there'
p3350
aS'are'
p3351
aS'other'
p3352
aS'issues'
p3353
aS'to'
p3354
aS'look'
p3355
aS'at'
p3356
aaa(lp3357
g3287
a(lp3358
S'for'
p3359
aS'example'
p3360
aaa(lp3361
g3287
a(lp3362
S'um'
p3363
aaa(lp3364
g3287
a(lp3365
S'organizations'
p3366
aS'that'
p3367
aS'may'
p3368
aS'be'
p3369
aS'involved'
p3370
aS'in'
p3371
aS'um'
p3372
aS'current'
p3373
aS'work'
p3374
aaa(lp3375
g3287
a(lp3376
S'their'
p3377
aS'ability'
p3378
aaa(lp3379
g3287
a(lp3380
S'new'
p3381
aS'organizations'
p3382
aaa(lp3383
g3287
a(lp3384
S'new'
p3385
aS'ideas'
p3386
aaa(lp3387
g3287
a(lp3388
g4
aS'mean'
p3389
aS'all'
p3390
aS'that'
p3391
aS'is'
p3392
aS'getting'
p3393
aaa(lp3394
g3287
a(lp3395
S'is'
p3396
aS'thrown'
p3397
aS'in'
p3398
aS'the'
p3399
aS'pot'
p3400
aaa(lp3401
g3287
a(lp3402
S'and'
p3403
ag4
aS'dont'
p3404
aS'think'
p3405
aS'that'
p3406
aS'any'
p3407
aS'community'
p3408
aS'that'
p3409
aS'has'
p3410
aS'an'
p3411
aS'existing'
p3412
aS'plan'
p3413
aaa(lp3414
g3287
a(lp3415
S'has'
p3416
ag84
aS'leg'
p3417
aS'up'
p3418
aaa(lp3419
g3287
a(lp3420
S'on'
p3421
aS'any'
p3422
aS'one'
p3423
aS'else'
p3424
aS'who'
p3425
aS'has'
p3426
ag84
aS'new'
p3427
aS'idea'
p3428
aS'that'
p3429
aS'may'
p3430
aS'not'
p3431
aS'be'
p3432
aS'part'
p3433
aS'of'
p3434
ag84
aS'plan'
p3435
aaa(lp3436
S'DAN'
p3437
a(lp3438
S'Uh'
p3439
aaa(lp3440
g3437
a(lp3441
S'are'
p3442
aS'they'
p3443
aS'explaining'
p3444
aS'the'
p3445
aS'uh'
p3446
aaa(lp3447
g3437
a(lp3448
S'for'
p3449
aS'example'
p3450
ag4
aaa(lp3451
g3437
a(lp3452
S'dont'
p3453
aS'know'
p3454
aS'if'
p3455
aS'Londa'
p3456
aS'White'
p3457
aS'is'
p3458
aS'here'
p3459
aaa(lp3460
g3437
a(lp3461
g212
aS'uh'
p3462
aS'theoretical'
p3463
aaa(lp3464
g3437
a(lp3465
S'at'
p3466
ag84
aS'uh'
p3467
aaa(lp3468
g3437
a(lp3469
g84
aS'uh'
p3470
aS'community'
p3471
aS'meeting'
p3472
aS'last'
p3473
aS'month'
p3474
aaa(lp3475
g3437
a(lp3476
S'in'
p3477
aS'which'
p3478
aS'uh'
p3479
ag84
aS'lot'
p3480
aS'of'
p3481
aS'uh'
p3482
aS'selection'
p3483
aS'criteria'
p3484
aS'were'
p3485
aaa(lp3486
g3437
a(lp3487
S'uh'
p3488
aaa(lp3489
g3437
a(lp3490
S'drawn'
p3491
aS'up'
p3492
aaa(lp3493
g3437
a(lp3494
g4
aS'was'
p3495
aS'wondering'
p3496
aaa(lp3497
g3437
a(lp3498
S'if'
p3499
aS'is'
p3500
aS'the'
p3501
aS'council'
p3502
aS'gonna'
p3503
aS'absorb'
p3504
aS'that'
p3505
aS'into'
p3506
aS'the'
p3507
aS'selection'
p3508
aS'process'
p3509
aS'also'
p3510
aaa(lp3511
S'PATTYThe'
p3512
a(lp3513
S'council'
p3514
aaa(lp3515
g3512
a(lp3516
S'has'
p3517
aS'uh'
p3518
aaa(lp3519
g3512
a(lp3520
S'received'
p3521
ag84
aS'copy'
p3522
aS'of'
p3523
aS'that'
p3524
aaa(lp3525
g3512
a(lp3526
S'and'
p3527
aS'the'
p3528
aS'council'
p3529
aS'has'
p3530
aS'seen'
p3531
aS'portions'
p3532
aS'of'
p3533
aS'uh'
p3534
aaa(lp3535
g3512
a(lp3536
S'of'
p3537
aS'the'
p3538
aS'Seaway'
p3539
aS'principles'
p3540
aaa(lp3541
g3512
a(lp3542
S'some'
p3543
aS'of'
p3544
aS'those'
p3545
aS'principles'
p3546
aS'have'
p3547
aS'been'
p3548
aaa(lp3549
g3512
a(lp3550
S'are'
p3551
aS'included'
p3552
aS'in'
p3553
aS'what'
p3554
aS'we'
p3555
aS'have'
p3556
aS'tonight'
p3557
aaa(lp3558
S'AUD'
p3559
a(lp3560
aa(lp3561
S'PATTY'
p3562
a(lp3563
S'Others'
p3564
aS'are'
p3565
aS'really'
p3566
aS'principles'
p3567
aaa(lp3568
g3562
a(lp3569
S'for'
p3570
aS'the'
p3571
aS'zone'
p3572
aS'itself'
p3573
aaa(lp3574
g3562
a(lp3575
S'and'
p3576
aS'how'
p3577
aS'the'
p3578
aS'makeup'
p3579
aS'of'
p3580
aS'the'
p3581
aS'zone'
p3582
aS'will'
p3583
aS'be'
p3584
aaa(lp3585
g3562
a(lp3586
S'And'
p3587
aS'that'
p3588
aS'is'
p3589
aS'going'
p3590
aS'to'
p3591
aS'be'
p3592
aS'handed'
p3593
aS'out'
p3594
aS'to'
p3595
aS'the'
p3596
aS'uh'
p3597
aS'Coordinating'
p3598
aS'Council'
p3599
aaa(lp3600
g3562
a(lp3601
S'this'
p3602
aS'Thursday'
p3603
aaa(lp3604
S'DAN'
p3605
a(lp3606
S'Uh'
p3607
aaa(lp3608
g3605
a(lp3609
S'm'
p3610
ag3610
aS'my'
p3611
aS'third'
p3612
aS'question'
p3613
aS'is'
p3614
aS'on'
p3615
aS'the'
p3616
aS'final'
p3617
aS'program'
p3618
aaa(lp3619
g3605
a(lp3620
g4
aS'think'
p3621
aS'this'
p3622
aS'gentleman'
p3623
aS'again'
p3624
aS'spoke'
p3625
aS'very'
p3626
aaa(lp3627
g3605
a(lp3628
S'very'
p3629
aS'adequately'
p3630
aS'to'
p3631
aS'it'
p3632
aaa(lp3633
g3605
a(lp3634
S'um'
p3635
aaa(lp3636
g3605
a(lp3637
S'it'
p3638
aS'seems'
p3639
aS'to'
p3640
aS'me'
p3641
aaa(lp3642
g3605
a(lp3643
S'again'
p3644
aaa(lp3645
g3605
a(lp3646
S'this'
p3647
aS'idea'
p3648
aS'of'
p3649
aS'building'
p3650
aS'consensus'
p3651
aaa(lp3652
g3605
a(lp3653
S'That'
p3654
aaa(lp3655
g3605
a(lp3656
S'if'
p3657
aS'were'
p3658
aS'able'
p3659
aS'to'
p3660
aS'make'
p3661
aS'this'
p3662
aaa(lp3663
g3605
a(lp3664
g84
aS'program'
p3665
aS'like'
p3666
aS'this'
p3667
aS'work'
p3668
aaa(lp3669
g3605
a(lp3670
S'over'
p3671
aS'such'
p3672
ag84
aS'long'
p3673
aS'time'
p3674
aaa(lp3675
g3605
a(lp3676
S'That'
p3677
aS'the'
p3678
aS'city'
p3679
aaa(lp3680
g3605
a(lp3681
S'and'
p3682
aS'in'
p3683
aS'fact'
p3684
aS'its'
p3685
aS'stated'
p3686
aS'in'
p3687
aS'the'
p3688
aS'uh'
p3689
aaa(lp3690
g3605
a(lp3691
S'uh'
p3692
aaa(lp3693
g3605
a(lp3694
S'proposal'
p3695
aaa(lp3696
g3605
a(lp3697
S'the'
p3698
aS'uh'
p3699
aS'HUD'
p3700
aS'application'
p3701
aS'proposal'
p3702
aS'that'
p3703
aaa(lp3704
g3605
a(lp3705
S'the'
p3706
aS'uh'
p3707
aaa(lp3708
g3605
a(lp3709
S'governing'
p3710
aS'body'
p3711
aaa(lp3712
g3605
a(lp3713
S'making'
p3714
aS'the'
p3715
aS'application'
p3716
aaa(lp3717
g3605
a(lp3718
S'must'
p3719
aS'provide'
p3720
ag84
aS'ssurance'
p3721
aS'and'
p3722
aS'evidence'
p3723
aaa(lp3724
g3605
a(lp3725
S'that'
p3726
aS'this'
p3727
aS'uh'
p3728
aaa(lp3729
g3605
a(lp3730
S'uh'
p3731
aS'empowerment'
p3732
aS'zone'
p3733
aS'plan'
p3734
aaa(lp3735
g3605
a(lp3736
S'is'
p3737
aS'gonna'
p3738
aS'be'
p3739
aS'adhered'
p3740
aS'to'
p3741
aS'and'
p3742
aS'implemented'
p3743
aaa(lp3744
g3605
a(lp3745
S'and'
p3746
aS'it'
p3747
aS'seems'
p3748
aS'to'
p3749
aS'me'
p3750
aS'that'
p3751
aaa(lp3752
g3605
a(lp3753
S'one'
p3754
aS'of'
p3755
aS'the'
p3756
aS'most'
p3757
aS'fundawen'
p3758
aS'fundamental'
p3759
aS'and'
p3760
aS'best'
p3761
aS'ways'
p3762
aS'to'
p3763
aS'have'
p3764
aS'this'
p3765
aS'done'
p3766
aaa(lp3767
g3605
a(lp3768
S'would'
p3769
aS'be'
p3770
aS'for'
p3771
aS'the'
p3772
aS'city'
p3773
aS'to'
p3774
aS'come'
p3775
aS'up'
p3776
aS'with'
p3777
ag84
aS'comprehensive'
p3778
aS'plan'
p3779
aaa(lp3780
S'AUD'
p3781
a(lp3782
aa(lp3783
S'DAN'
p3784
a(lp3785
S'that'
p3786
aS'follows'
p3787
aS'guidelines'
p3788
aaa(lp3789
g3784
a(lp3790
S'that'
p3791
aS'would'
p3792
aS'ensure'
p3793
aaa(lp3794
g3784
a(lp3795
S'that'
p3796
aS'whats'
p3797
aS'happening'
p3798
aS'in'
p3799
aS'the'
p3800
aS'empowerment'
p3801
aS'zone'
p3802
aaa(lp3803
g3784
a(lp3804
S'is'
p3805
aS'indeed'
p3806
aS'the'
p3807
aS'seed'
p3808
aS'program'
p3809
aS'thats'
p3810
aS'gonna'
p3811
aS'be'
p3812
aS'followed'
p3813
aaa(lp3814
g3784
a(lp3815
S'and'
p3816
aS'be'
p3817
aS'able'
p3818
aS'to'
p3819
aS'be'
p3820
aS'dis'
p3821
aS'distributed'
p3822
aS'to'
p3823
aS'other'
p3824
aS'areas'
p3825
aS'of'
p3826
aS'the'
p3827
aS'city'
p3828
aS'and'
p3829
aaa(lp3830
g3784
a(lp3831
S'and'
p3832
aS'built'
p3833
aS'on'
p3834
aS'in'
p3835
aS'other'
p3836
aS'areas'
p3837
aS'of'
p3838
aS'the'
p3839
aS'city'
p3840
aaa(lp3841
g3784
a(lp3842
S'does'
p3843
aS'the'
p3844
aS'city'
p3845
aS'have'
p3846
aS'any'
p3847
aaa(lp3848
g3784
a(lp3849
S'uh'
p3850
aaa(lp3851
g3784
a(lp3852
S'plans'
p3853
aaa(lp3854
g3784
a(lp3855
S'uh'
p3856
aS'any'
p3857
aS'any'
p3858
aS'hope'
p3859
aS'of'
p3860
aaa(lp3861
g3784
a(lp3862
S'coming'
p3863
aS'up'
p3864
aS'with'
p3865
ag84
aS'comprehensive'
p3866
aS'plan'
p3867
aaa(lp3868
g3784
a(lp3869
S'for'
p3870
aS'developing'
p3871
aS'the'
p3872
aS'city'
p3873
aaa(lp3874
S'PATTY'
p3875
a(lp3876
S'We'
p3877
aS'do'
p3878
aS'not'
p3879
aS'have'
p3880
ag84
aS'comprehensive'
p3881
aS'plan'
p3882
aS'for'
p3883
aS'the'
p3884
aS'city'
p3885
aS'of'
p3886
aS'Chicago'
p3887
aaa(lp3888
S'DAN'
p3889
a(lp3890
S'Does'
p3891
aS'the'
p3892
aS'city'
p3893
aS'have'
p3894
aaa(lp3895
S'PATTY'
p3896
a(lp3897
S'We'
p3898
aS'have'
p3899
aaa(lp3900
S'DAN'
p3901
a(lp3902
S'any'
p3903
aS'hopes'
p3904
aS'of'
p3905
aaa(lp3906
S'PATTY'
p3907
a(lp3908
S'policies'
p3909
aS'for'
p3910
aS'development'
p3911
aaa(lp3912
g3907
a(lp3913
S'and'
p3914
aS'we'
p3915
aS'have'
p3916
aS'been'
p3917
aS'identifying'
p3918
aS'places'
p3919
aaa(lp3920
g3907
a(lp3921
S'that'
p3922
aS'have'
p3923
aS'plans'
p3924
aaa(lp3925
g3907
a(lp3926
S'and'
p3927
aS'trying'
p3928
aS'to'
p3929
aS'get'
p3930
aS'things'
p3931
aS'done'
p3932
aaa(lp3933
g3907
a(lp3934
g1445
aS'comprehensive'
p3935
aS'plan'
p3936
aaa(lp3937
g3907
a(lp3938
S'requires'
p3939
aaa(lp3940
g3907
a(lp3941
S'uh'
p3942
aaa(lp3943
g3907
a(lp3944
S'the'
p3945
aS'infusion'
p3946
aS'of'
p3947
aS'many'
p3948
aS'many'
p3949
aS'dollars'
p3950
aaa(lp3951
g3907
a(lp3952
S'much'
p3953
aS'more'
p3954
aS'than'
p3955
aS'is'
p3956
aS'available'
p3957
aaa(lp3958
g3907
a(lp3959
S'you'
p3960
aS'know'
p3961
aaa(lp3962
g3907
a(lp3963
S'within'
p3964
aS'the'
p3965
aS'city'
p3966
aS'budget'
p3967
aaa(lp3968
g3907
a(lp3969
S'to'
p3970
aS'implement'
p3971
ag84
aS'plan'
p3972
aaa(lp3973
g3907
a(lp3974
S'and'
p3975
aaa(lp3976
g3907
a(lp3977
S'at'
p3978
aS'this'
p3979
aS'point'
p3980
aaa(lp3981
g3907
a(lp3982
S'we'
p3983
aS'are'
p3984
aS'looking'
p3985
aS'at'
p3986
aaa(lp3987
g3907
a(lp3988
S'ways'
p3989
aS'to'
p3990
aS'be'
p3991
aS'strategic'
p3992
aaa(lp3993
g3907
a(lp3994
S'in'
p3995
aS'how'
p3996
aS'we'
p3997
aS'invest'
p3998
aS'our'
p3999
aS'money'
p4000
aaa(lp4001
g3907
a(lp4002
S'and'
p4003
aS'the'
p4004
aS'empowerment'
p4005
aS'zone'
p4006
aS'is'
p4007
aS'an'
p4008
aS'e'
p4009
aS'is'
p4010
aS'an'
p4011
aS'example'
p4012
aaa(lp4013
g3907
a(lp4014
S'of'
p4015
aS'an'
p4016
aS'of'
p4017
aS'an'
p4018
aS'area'
p4019
aS'where'
p4020
aS'we'
p4021
aS'are'
p4022
aS'going'
p4023
aS'to'
p4024
aS'do'
p4025
aS'some'
p4026
aS'strategic'
p4027
aS'planning'
p4028
aS'along'
p4029
aS'with'
p4030
aS'the'
p4031
aS'community'
p4032
aaa(lp4033
g3907
a(lp4034
S'which'
p4035
aS'will'
p4036
aS'lead'
p4037
aS'to'
p4038
aS'implementation'
p4039
aaa(lp4040
g3907
a(lp4041
S'and'
p4042
aS'investing'
p4043
aS'in'
p4044
aS'our'
p4045
aS'plan'
p4046
aaa(lp4047
S'DAN'
p4048
a(lp4049
S'Correct'
p4050
aaa(lp4051
g4048
a(lp4052
S'Would'
p4053
aS'you'
p4054
aS'say'
p4055
aS'its'
p4056
aS'only'
p4057
aaa(lp4058
g4048
a(lp4059
S'we'
p4060
aS'only'
p4061
aS'have'
p4062
aS'policy'
p4063
aS'guidelines'
p4064
aaa(lp4065
g4048
a(lp4066
S'and'
p4067
aS'when'
p4068
aaa(lp4069
g4048
a(lp4070
S'when'
p4071
aS'administrations'
p4072
aS'change'
p4073
aaa(lp4074
g4048
a(lp4075
S'policies'
p4076
aS'change'
p4077
aaa(lp4078
g4048
a(lp4079
S'What'
p4080
aS'Im'
p4081
aS'talking'
p4082
aS'about'
p4083
aS'is'
p4084
aS'that'
p4085
aaa(lp4086
g4048
a(lp4087
S'cities'
p4088
aS'that'
p4089
aS'we'
p4090
aS'are'
p4091
aS'competing'
p4092
aS'against'
p4093
aaa(lp4094
g4048
a(lp4095
S'Seattle'
p4096
aaa(lp4097
g4048
a(lp4098
S'San'
p4099
aS'Antonio'
p4100
aaa(lp4101
g4048
a(lp4102
S'Minneapolis'
p4103
aaa(lp4104
g4048
a(lp4105
S'theyve'
p4106
aS'got'
p4107
aaa(lp4108
g4048
a(lp4109
S'comprehensive'
p4110
aS'plans'
p4111
aaa(lp4112
g4048
a(lp4113
S'for'
p4114
aS'the'
p4115
aS'development'
p4116
aS'of'
p4117
aS'their'
p4118
aS'cities'
p4119
aaa(lp4120
g4048
a(lp4121
S'And'
p4122
aaa(lp4123
g4048
a(lp4124
S'that'
p4125
aaa(lp4126
S'PATTYsome'
p4127
a(lp4128
S'of'
p4129
aS'them'
p4130
aS'do'
p4131
aS'and'
p4132
aS'some'
p4133
aS'of'
p4134
aS'them'
p4135
aS'do'
p4136
aS'not'
p4137
aaa(lp4138
S'DANThe'
p4139
a(lp4140
S'ones'
p4141
aS'that'
p4142
ag4
aS'just'
p4143
aS'mentioned'
p4144
aS'do'
p4145
aaa(lp4146
S'PATTY'
p4147
a(lp4148
aa(lp4149
S'DAN'
p4150
a(lp4151
S'Alright'
p4152
aaa(lp4153
S'PATTY'
p4154
a(lp4155
aa(lp4156
S'DANAnd'
p4157
a(lp4158
aa(lp4159
g4157
a(lp4160
S'my'
p4161
aS'point'
p4162
aS'is'
p4163
aaa(lp4164
S'PATTY'
p4165
a(lp4166
S'Some'
p4167
aS'of'
p4168
aS'them'
p4169
aS'do'
p4170
aaa(lp4171
S'DANthat'
p4172
a(lp4173
aa(lp4174
S'PATTYand'
p4175
a(lp4176
S'some'
p4177
aS'of'
p4178
aS'them'
p4179
aS'do'
p4180
aS'not'
p4181
aaa(lp4182
S'DAN'
p4183
a(lp4184
S'The'
p4185
aS'ones'
p4186
aS'that'
p4187
ag4
aS'just'
p4188
aS'mentioned'
p4189
aS'do'
p4190
aaa(lp4191
g4183
a(lp4192
S'And'
p4193
aaa(lp4194
g4183
a(lp4195
S'my'
p4196
aaa(lp4197
g4183
a(lp4198
S'my'
p4199
aS'point'
p4200
aS'is'
p4201
aaa(lp4202
g4183
a(lp4203
S'that'
p4204
aaa(lp4205
g4183
a(lp4206
S'it'
p4207
aS'seems'
p4208
aS'to'
p4209
aS'us'
p4210
aS'that'
p4211
aaa(lp4212
g4183
a(lp4213
S'it'
p4214
aS'it'
p4215
aS'it'
p4216
aS'seems'
p4217
aS'to'
p4218
aS'me'
p4219
aS'that'
p4220
aaa(lp4221
g4183
a(lp4222
S'it'
p4223
aS'would'
p4224
aS'give'
p4225
aS'us'
p4226
aS'as'
p4227
aS'Chicago'
p4228
aaa(lp4229
g4183
a(lp4230
g84
aS'much'
p4231
aS'better'
p4232
aS'footing'
p4233
aS'with'
p4234
aS'government'
p4235
aaa(lp4236
g4183
a(lp4237
S'if'
p4238
aS'we'
p4239
aS'said'
p4240
aaa(lp4241
g4183
a(lp4242
S'that'
p4243
aS'we'
p4244
aS'had'
p4245
ag84
aS'comprehensive'
p4246
aS'plan'
p4247
aaa(lp4248
g4183
a(lp4249
S'that'
p4250
aS'was'
p4251
aS'gonna'
p4252
aS'ensure'
p4253
aaa(lp4254
g4183
a(lp4255
S'that'
p4256
aS'these'
p4257
aS'things'
p4258
aS'are'
p4259
aS'going'
p4260
aS'to'
p4261
aS'be'
p4262
aaa(lp4263
S'PATTY'
p4264
a(lp4265
S'Well'
p4266
aS'sir'
p4267
aaa(lp4268
S'DANXX'
p4269
a(lp4270
S'XX'
p4271
ag486
aaa(lp4272
S'PATTYconsidering'
p4273
a(lp4274
S'that'
p4275
aS'our'
p4276
aS'plan'
p4277
aS'is'
p4278
aS'due'
p4279
aS'June'
p4280
aS'thirtieth'
p4281
aaa(lp4282
g4273
a(lp4283
S'and'
p4284
aS'considering'
p4285
aS'that'
p4286
aS'between'
p4287
aS'now'
p4288
aS'and'
p4289
aS'then'
p4290
aaa(lp4291
g4273
a(lp4292
S'we'
p4293
aS'will'
p4294
aS'not'
p4295
aS'have'
p4296
ag84
aS'comprehensive'
p4297
aS'plan'
p4298
aaa(lp4299
g4273
a(lp4300
S'for'
p4301
aS'the'
p4302
aS'city'
p4303
aS'of'
p4304
aS'Chicago'
p4305
aaa(lp4306
g4273
a(lp4307
S'um'
p4308
aaa(lp4309
g4273
a(lp4310
S'Im'
p4311
aS'not'
p4312
aS'quite'
p4313
aS'sure'
p4314
aS'where'
p4315
aS'to'
p4316
aS'go'
p4317
aS'with'
p4318
aS'your'
p4319
aS'question'
p4320
aaa(lp4321
S'AUD'
p4322
a(lp4323
aa(lp4324
S'PATTY'
p4325
a(lp4326
S'Oh'
p4327
aS'Im'
p4328
ag212
aaa(lp4329
g4325
a(lp4330
S'Im'
p4331
aS'sorry'
p4332
aaa(lp4333
S'DEREK'
p4334
a(lp4335
S'Oh'
p4336
aaa(lp4337
S'BERNIE'
p4338
a(lp4339
S'go'
p4340
aS'ahead'
p4341
aaa(lp4342
g4338
a(lp4343
S'go'
p4344
aS'ahead'
p4345
aaa(lp4346
S'PATTY'
p4347
a(lp4348
g486
aS'Bernie'
p4349
ag486
aaa(lp4350
S'BERNIEI'
p4351
a(lp4352
S'ha'
p4353
aaa(lp4354
g4351
a(lp4355
g486
ag4
aS'just'
p4356
aS'wanted'
p4357
aS'to'
p4358
aS'make'
p4359
ag84
aS'friendly'
p4360
aS'remind'
p4361
ag486
aaa(lp4362
S'PATTY'
p4363
a(lp4364
g486
aaa(lp4365
g4363
a(lp4366
S'Im'
p4367
aS'sorry'
p4368
aS'Derek'
p4369
aaa(lp4370
S'DEREKUm'
p4371
a(lp4372
aa(lp4373
g4371
a(lp4374
S'My'
p4375
aS'names'
p4376
aS'Derek'
p4377
aS'Williams'
p4378
aaa(lp4379
g4371
a(lp4380
S'Im'
p4381
aaa(lp4382
g4371
a(lp4383
S'Im'
p4384
aS'with'
p4385
aS'the'
p4386
aS'HORN'
p4387
aS'association'
p4388
aS'of'
p4389
aS'men'
p4390
aaa(lp4391
g4371
a(lp4392
S'and'
p4393
aS'uh'
p4394
aaa(lp4395
g4371
a(lp4396
g4
ag4
aS'think'
p4397
aS'we'
p4398
aS'need'
p4399
aS'to'
p4400
aS'recognize'
p4401
aS'that'
p4402
aS'uh'
p4403
aaa(lp4404
g4371
a(lp4405
S'uh'
p4406
aS'this'
p4407
aS'is'
p4408
aS'an'
p4409
aS'opportunity'
p4410
aaa(lp4411
g4371
a(lp4412
S'and'
p4413
aS'its'
p4414
aS'not'
p4415
ag84
aS'threat'
p4416
aaa(lp4417
g4371
a(lp4418
S'Uh'
p4419
aaa(lp4420
g4371
a(lp4421
S'consensus'
p4422
aS'do'
p4423
aS'not'
p4424
aS'build'
p4425
aS'themselves'
p4426
aaa(lp4427
g4371
a(lp4428
S'And'
p4429
aaa(lp4430
g4371
a(lp4431
S'and'
p4432
aS'if'
p4433
aS'we'
p4434
aS'just'
p4435
aS'be'
p4436
aS'perfectly'
p4437
aS'honest'
p4438
aS'with'
p4439
aS'each'
p4440
aS'other'
p4441
aaa(lp4442
g4371
a(lp4443
S'the'
p4444
aS'only'
p4445
aS'reason'
p4446
aS'that'
p4447
aS'were'
p4448
aS'all'
p4449
aS'in'
p4450
aS'this'
p4451
aS'room'
p4452
aS'is'
p4453
aS'because'
p4454
aS'we'
p4455
aS'heard'
p4456
aaa(lp4457
g4371
a(lp4458
S'about'
p4459
ag84
aS'hundred'
p4460
aS'million'
p4461
aS'dollars'
p4462
aaa(lp4463
S'MANY'
p4464
a(lp4465
aa(lp4466
S'DEREKAnd'
p4467
a(lp4468
S'thats'
p4469
aS'what'
p4470
aS'everybodys'
p4471
aS'worried'
p4472
aS'about'
p4473
aaa(lp4474
g4467
a(lp4475
S'Uh'
p4476
aaa(lp4477
g4467
a(lp4478
S'its'
p4479
aS'impossible'
p4480
aS'for'
p4481
aS'any'
p4482
aS'city'
p4483
aS'to'
p4484
aS'have'
p4485
ag84
aS'comprehensive'
p4486
aS'plan'
p4487
aaa(lp4488
g4467
a(lp4489
S'because'
p4490
aS'we'
p4491
aS'dont'
p4492
aS'have'
p4493
aS'comprehensive'
p4494
aS'people'
p4495
aaa(lp4496
g4467
a(lp4497
S'First'
p4498
aS'of'
p4499
aS'all'
p4500
aaa(lp4501
g4467
a(lp4502
S'And'
p4503
ag4
aS'think'
p4504
aS'we'
p4505
aS'just'
p4506
aS'need'
p4507
aS'to'
p4508
aaa(lp4509
g4467
a(lp4510
S'given'
p4511
aS'the'
p4512
aS'information'
p4513
aS'thats'
p4514
aS'out'
p4515
aS'there'
p4516
aaa(lp4517
g4467
a(lp4518
S'we'
p4519
aS'need'
p4520
aS'to'
p4521
aS'try'
p4522
aS'to'
p4523
aS'make'
p4524
aS'it'
p4525
aS'as'
p4526
aS'meaningful'
p4527
aS'as'
p4528
aS'we'
p4529
aS'can'
p4530
aS'to'
p4531
aS'our'
p4532
aS'constituents'
p4533
aaa(lp4534
g4467
a(lp4535
S'Uh'
p4536
aaa(lp4537
g4467
a(lp4538
S'be'
p4539
aS'honestly'
p4540
aS'speaking'
p4541
aS'with'
p4542
aS'you'
p4543
aaa(lp4544
g4467
a(lp4545
S'uh'
p4546
ag4
aS'come'
p4547
aS'from'
p4548
aS'an'
p4549
aS'organization'
p4550
aS'with'
p4551
aS'five'
p4552
aS'hundred'
p4553
aS'members'
p4554
aaa(lp4555
g4467
a(lp4556
S'and'
p4557
aS'empowerment'
p4558
aS'zone'
p4559
aS'has'
p4560
aS'absolutely'
p4561
aS'no'
p4562
aS'meaning'
p4563
aaa(lp4564
g4467
a(lp4565
S'to'
p4566
aS'just'
p4567
aS'about'
p4568
aS'eighty'
p4569
aS'percent'
p4570
aS'of'
p4571
aS'our'
p4572
aS'population'
p4573
aaa(lp4574
g4467
a(lp4575
S'For'
p4576
aS'the'
p4577
aS'simple'
p4578
aS'reason'
p4579
aaa(lp4580
g4467
a(lp4581
S'we'
p4582
aS'get'
p4583
aS'caught'
p4584
aS'up'
p4585
aS'in'
p4586
aaa(lp4587
g4467
a(lp4588
S'in'
p4589
aS'in'
p4590
aS'all'
p4591
aS'of'
p4592
aS'the'
p4593
aS'rhetoric'
p4594
aaa(lp4595
g4467
a(lp4596
S'um'
p4597
aaa(lp4598
g4467
a(lp4599
S'we'
p4600
aS'we'
p4601
aS'constantly'
p4602
aS'challenge'
p4603
aS'each'
p4604
aS'other'
p4605
aaa(lp4606
g4467
a(lp4607
S'and'
p4608
ag4
aaa(lp4609
g4467
a(lp4610
g4
aS'dont'
p4611
aS'think'
p4612
aS'this'
p4613
aS'is'
p4614
aS'the'
p4615
aS'time'
p4616
aS'for'
p4617
aS'that'
p4618
aaa(lp4619
g4467
a(lp4620
g4
ag4
aS'think'
p4621
aS'we'
p4622
aS'should'
p4623
aS'be'
p4624
aS'trying'
p4625
aS'to'
p4626
aS'focus'
p4627
aS'on'
p4628
aaa(lp4629
g4467
a(lp4630
S'the'
p4631
aS'information'
p4632
aS'thats'
p4633
aS'available'
p4634
aaa(lp4635
g4467
a(lp4636
S'and'
p4637
aS'and'
p4638
aS'and'
p4639
aS'meet'
p4640
aS'the'
p4641
aS'challenge'
p4642
aaa(lp4643
g4467
a(lp4644
S'And'
p4645
ag4
aS'and'
p4646
ag4
aS'think'
p4647
aS'we'
p4648
aS'can'
p4649
aS'do'
p4650
aS'that'
p4651
aaa(lp4652
g4467
a(lp4653
S'And'
p4654
aS'in'
p4655
aaa(lp4656
g4467
a(lp4657
S'and'
p4658
aS'again'
p4659
aaa(lp4660
g4467
a(lp4661
S'this'
p4662
aS'is'
p4663
aS'an'
p4664
aS'opportunity'
p4665
aaa(lp4666
g4467
a(lp4667
S'to'
p4668
aS'meet'
p4669
aS'the'
p4670
aS'challenge'
p4671
aaa(lp4672
S'MANY'
p4673
a(lp4674
aa(lp4675
S'PATTY'
p4676
a(lp4677
S'Thanks'
p4678
aS'Derek'
p4679
aaa(lp4680
g4676
a(lp4681
S'thats'
p4682
aS'why'
p4683
ag4
aS'guess'
p4684
aS'youre'
p4685
aS'sitting'
p4686
aS'in'
p4687
aS'the'
p4688
aS'front'
p4689
aS'row'
p4690
aaa(lp4691
g4676
a(lp4692
S'Um'
p4693
aS'Paul'
p4694
aaa(lp4695
S'PAUL'
p4696
a(lp4697
S'Derek'
p4698
ag4
aaa(lp4699
g4696
a(lp4700
g4
aS'appreciate'
p4701
aS'following'
p4702
aS'you'
p4703
aaa(lp4704
S'DEREK'
p4705
a(lp4706
S'Thanks'
p4707
aaa(lp4708
S'PAUL'
p4709
a(lp4710
S'Well'
p4711
aS'see'
p4712
aS'Idve'
p4713
aS'been'
p4714
aS'kinda'
p4715
aS'frustrated'
p4716
aaa(lp4717
g4709
a(lp4718
S'trying'
p4719
aS'to'
p4720
aS'say'
p4721
aS'what'
p4722
aS'you'
p4723
aS'said'
p4724
aaa(lp4725
g4709
a(lp4726
S'some'
p4727
aS'of'
p4728
aS'it'
p4729
aaa(lp4730
g4709
a(lp4731
S'Id'
p4732
aS'like'
p4733
aS'to'
p4734
aaa(lp4735
g4709
a(lp4736
S'just'
p4737
aS'for'
p4738
ag84
aS'couple'
p4739
aS'minutes'
p4740
aaa(lp4741
g4709
a(lp4742
S'set'
p4743
aS'the'
p4744
aS'record'
p4745
aS'straight'
p4746
aaa(lp4747
g4709
a(lp4748
S'on'
p4749
aS'what'
p4750
aS'empowerment'
p4751
aS'zones'
p4752
aS'are'
p4753
aaa(lp4754
g4709
a(lp4755
S'and'
p4756
aS'what'
p4757
aS'they'
p4758
aS'are'
p4759
aS'not'
p4760
aaa(lp4761
g4709
a(lp4762
S'according'
p4763
aS'to'
p4764
aS'my'
p4765
aS'own'
p4766
aS'understanding'
p4767
aaa(lp4768
g4709
a(lp4769
S'The'
p4770
aS'empowerment'
p4771
aS'zones'
p4772
aaa(lp4773
g4709
a(lp4774
S'were'
p4775
aS'implemented'
p4776
aaa(lp4777
g4709
a(lp4778
S'under'
p4779
aS'the'
p4780
aS'Clinton'
p4781
aS'administration'
p4782
aaa(lp4783
g4709
a(lp4784
S'They'
p4785
aS'did'
p4786
aS'not'
p4787
aS'start'
p4788
aS'under'
p4789
aS'the'
p4790
aS'Clinton'
p4791
aS'administration'
p4792
aaa(lp4793
g4709
a(lp4794
S'They'
p4795
aS'started'
p4796
aS'in'
p4797
aS'the'
p4798
aS'state'
p4799
aS'of'
p4800
aS'Illinois'
p4801
aaa(lp4802
g4709
a(lp4803
S'as'
p4804
aS'enterprise'
p4805
aS'zones'
p4806
aaa(lp4807
g4709
a(lp4808
S'back'
p4809
aS'in'
p4810
aS'the'
p4811
aS'eighties'
p4812
aaa(lp4813
g4709
a(lp4814
S'The'
p4815
aS'difference'
p4816
aS'between'
p4817
aS'empowerment'
p4818
aS'zones'
p4819
aaa(lp4820
g4709
a(lp4821
S'and'
p4822
aS'enterprise'
p4823
aS'zones'
p4824
aaa(lp4825
g4709
a(lp4826
S'is'
p4827
aS'that'
p4828
aS'the'
p4829
aS'federal'
p4830
aS'government'
p4831
aaa(lp4832
g4709
a(lp4833
S'for'
p4834
aS'twelve'
p4835
aS'years'
p4836
aaa(lp4837
g4709
a(lp4838
S'Congress'
p4839
aS'never'
p4840
aS'did'
p4841
aS'approve'
p4842
aaa(lp4843
g4709
a(lp4844
S'enterprise'
p4845
aS'zones'
p4846
aaa(lp4847
g4709
a(lp4848
S'at'
p4849
aS'the'
p4850
aS'federal'
p4851
aS'level'
p4852
aaa(lp4853
g4709
a(lp4854
S'By'
p4855
aS'the'
p4856
aS'time'
p4857
aS'they'
p4858
aS'were'
p4859
aS'approved'
p4860
aaa(lp4861
g4709
a(lp4862
S'Congress'
p4863
aaa(lp4864
g4709
a(lp4865
S'in'
p4866
aS'its'
p4867
aS'wisdom'
p4868
aaa(lp4869
g4709
a(lp4870
S'attached'
p4871
aS'funding'
p4872
aaa(lp4873
g4709
a(lp4874
S'criteria'
p4875
aaa(lp4876
g4709
a(lp4877
S'and'
p4878
aS'shifted'
p4879
aS'the'
p4880
aS'name'
p4881
aS'from'
p4882
aS'enterprise'
p4883
aS'zones'
p4884
aaa(lp4885
g4709
a(lp4886
S'to'
p4887
aS'empowerment'
p4888
aS'zones'
p4889
aaa(lp4890
g4709
a(lp4891
S'For'
p4892
aS'the'
p4893
aS'record'
p4894
aaa(lp4895
g4709
a(lp4896
g4
aS'do'
p4897
aS'not'
p4898
aS'live'
p4899
aS'in'
p4900
aS'CHA'
p4901
aaa(lp4902
g4709
a(lp4903
g4
aS'am'
p4904
aS'not'
p4905
aS'homeless'
p4906
aaa(lp4907
g4709
a(lp4908
g4
aS'do'
p4909
aS'not'
p4910
aS'transport'
p4911
aS'myself'
p4912
aaa(lp4913
g4709
a(lp4914
S'on'
p4915
aS'CTA'
p4916
aS'properties'
p4917
aaa(lp4918
g4709
a(lp4919
S'Im'
p4920
ag84
aS'veteran'
p4921
aaa(lp4922
g4709
a(lp4923
S'so'
p4924
ag4
aS'do'
p4925
aS'not'
p4926
aS'go'
p4927
aS'to'
p4928
aS'county'
p4929
aS'hospitals'
p4930
aaa(lp4931
g4709
a(lp4932
g4
aS'abide'
p4933
aS'by'
p4934
aS'the'
p4935
aS'law'
p4936
aaa(lp4937
g4709
a(lp4938
S'so'
p4939
aS'Im'
p4940
aS'not'
p4941
aS'in'
p4942
aS'county'
p4943
aS'jail'
p4944
aaa(lp4945
g4709
a(lp4946
g4
aS'have'
p4947
aS'attended'
p4948
aS'several'
p4949
aS'colleges'
p4950
aaa(lp4951
g4709
a(lp4952
g4
aS'think'
p4953
aS'successfully'
p4954
aaa(lp4955
g4709
a(lp4956
S'they'
p4957
aS'think'
p4958
aS'unsuccessfully'
p4959
aaa(lp4960
g4709
a(lp4961
S'so'
p4962
ag4
aS'do'
p4963
aS'not'
p4964
aS'need'
p4965
aS'the'
p4966
aS'public'
p4967
aS'education'
p4968
aS'system'
p4969
aaa(lp4970
g4709
a(lp4971
S'in'
p4972
aS'Chicago'
p4973
aaa(lp4974
g4709
a(lp4975
S'But'
p4976
aaa(lp4977
g4709
a(lp4978
g4
aS'do'
p4979
aS'know'
p4980
aaa(lp4981
g4709
a(lp4982
S'who'
p4983
aS'does_'
p4984
aS'need'
p4985
aS'em'
p4986
aaa(lp4987
g4709
a(lp4988
S'The'
p4989
aS'homeless'
p4990
aaa(lp4991
g4709
a(lp4992
S'and'
p4993
aS'people'
p4994
aS'not'
p4995
aS'in'
p4996
aS'public'
p4997
aS'housing'
p4998
aaa(lp4999
g4709
a(lp5000
S'Public'
p5001
aS'housing'
p5002
aaa(lp5003
g4709
a(lp5004
S'because'
p5005
aS'one'
p5006
aaa(lp5007
g4709
a(lp5008
S'were'
p5009
aS'getting'
p5010
aS'ready'
p5011
aaa(lp5012
g4709
a(lp5013
S'to'
p5014
aS'tear'
p5015
aS'them'
p5016
aS'all'
p5017
aS'down'
p5018
aaa(lp5019
g4709
a(lp5020
S'What'
p5021
aS'are'
p5022
aS'we'
p5023
aS'gonna'
p5024
aS'do'
p5025
aS'with'
p5026
aS'it'
p5027
aaa(lp5028
g4709
a(lp5029
S'The'
p5030
aS'city'
p5031
aS'has'
p5032
aS'no'
p5033
aS'right'
p5034
aaa(lp5035
g4709
a(lp5036
g486
aS'would'
p5037
aS'be'
p5038
aS'in'
p5039
ag84
aS'fight'
p5040
ag486
aaa(lp5041
g4709
a(lp5042
g486
aS'we'
p5043
aS'need'
p5044
ag486
aaa(lp5045
g4709
a(lp5046
S'to'
p5047
aS'try'
p5048
aS'and'
p5049
aS'tell'
p5050
aS'me'
p5051
aaa(lp5052
g4709
a(lp5053
S'what'
p5054
aS'my'
p5055
aS'block'
p5056
aS'needs'
p5057
aaa(lp5058
g4709
a(lp5059
S'When'
p5060
aS'my'
p5061
aS'block'
p5062
aS'decides'
p5063
aaa(lp5064
g4709
a(lp5065
S'what'
p5066
aS'it'
p5067
aS'needs'
p5068
aaa(lp5069
g4709
a(lp5070
S'and'
p5071
aS'presents'
p5072
aS'its'
p5073
aS'plan'
p5074
aaa(lp5075
g4709
a(lp5076
S'to'
p5077
aS'the'
p5078
aS'city'
p5079
aaa(lp5080
g4709
a(lp5081
S'then'
p5082
aS'the'
p5083
aS'city'
p5084
aaa(lp5085
g4709
a(lp5086
S'can'
p5087
aS'take'
p5088
aS'its'
p5089
aS'logical'
p5090
aaa(lp5091
g4709
a(lp5092
S'legal'
p5093
aaa(lp5094
g4709
a(lp5095
S'jurisprudence'
p5096
aaa(lp5097
g4709
a(lp5098
S'course'
p5099
aaa(lp5100
g4709
a(lp5101
S'of'
p5102
aS'identifying'
p5103
aaa(lp5104
g4709
a(lp5105
S'what'
p5106
aS'resources'
p5107
aS'it'
p5108
aS'has'
p5109
aaa(lp5110
g4709
a(lp5111
S'and'
p5112
aS'make'
p5113
aS'em'
p5114
aS'available'
p5115
aaa(lp5116
g4709
a(lp5117
S'The'
p5118
aS'empowerment'
p5119
aS'zones'
p5120
aaa(lp5121
g4709
a(lp5122
S'what'
p5123
aS'are'
p5124
aaa(lp5125
g4709
a(lp5126
S'by'
p5127
aS'legislation'
p5128
aaa(lp5129
g4709
a(lp5130
S'to'
p5131
aS'be'
p5132
aS'planned'
p5133
aaa(lp5134
g4709
a(lp5135
S'by'
p5136
aaa(lp5137
g4709
a(lp5138
S'with'
p5139
aaa(lp5140
g4709
a(lp5141
S'and'
p5142
aS'for'
p5143
aaa(lp5144
g4709
a(lp5145
S'those'
p5146
aS'most'
p5147
aS'in'
p5148
aS'need'
p5149
aS'of'
p5150
aS'empowering'
p5151
aaa(lp5152
g4709
a(lp5153
S'It'
p5154
aS'dont'
p5155
aS'mention'
p5156
aaa(lp5157
g4709
a(lp5158
S'those'
p5159
aS'agencies'
p5160
aaa(lp5161
g4709
a(lp5162
S'most'
p5163
aS'in'
p5164
aS'need'
p5165
aaa(lp5166
g4709
a(lp5167
S'This'
p5168
aS'is'
p5169
aS'not'
p5170
aS'the'
p5171
aS'entitlement'
p5172
aS'programs'
p5173
aaa(lp5174
g4709
a(lp5175
S'See'
p5176
aS'the'
p5177
aS'entitlement'
p5178
aS'programs'
p5179
aS'is'
p5180
aS'what'
p5181
aS'has'
p5182
aS'turned'
p5183
aS'the'
p5184
aS'West'
p5185
aS'Side'
p5186
aaa(lp5187
g4709
a(lp5188
S'into'
p5189
ag84
aS'damn'
p5190
aS'desert'
p5191
aS'of'
p5192
aS'oasis'
p5193
aS'and'
p5194
aS'poverty'
p5195
aaa(lp5196
g4709
a(lp5197
S'Because'
p5198
aS'the'
p5199
aS'West'
p5200
aS'Side'
p5201
aS'was'
p5202
aS'planned'
p5203
aS'for'
p5204
aaa(lp5205
g4709
a(lp5206
S'CHA'
p5207
aS'was'
p5208
aS'planned'
p5209
aS'for'
p5210
aaa(lp5211
g4709
a(lp5212
S'The'
p5213
aS'city'
p5214
aS'has'
p5215
aS'put'
p5216
aS'together'
p5217
aS'in'
p5218
ag84
aS'aggregate'
p5219
aS'sum'
p5220
aaa(lp5221
g4709
a(lp5222
S'the'
p5223
aS'map'
p5224
aS'that'
p5225
aS'is'
p5226
aS'about'
p5227
aS'two'
p5228
aS'pages'
p5229
aaa(lp5230
g4709
a(lp5231
S'that'
p5232
aS'shows'
p5233
aS'you'
p5234
aS'where'
p5235
aS'the'
p5236
aS'poorest'
p5237
aS'folks'
p5238
aS'live'
p5239
aaa(lp5240
g4709
a(lp5241
S'If'
p5242
aS'you'
p5243
aS'are'
p5244
aS'an'
p5245
aS'agency'
p5246
aaa(lp5247
g4709
a(lp5248
S'that'
p5249
aS'is'
p5250
aS'involved'
p5251
aS'in'
p5252
aS'those'
p5253
aS'areas'
p5254
aaa(lp5255
g4709
a(lp5256
S'take'
p5257
aS'the'
p5258
aS'opportunity'
p5259
aS'to'
p5260
aS'find'
p5261
aS'out'
p5262
aS'what'
p5263
aS'those'
p5264
aS'people'
p5265
aS'need'
p5266
aaa(lp5267
g4709
a(lp5268
S'and'
p5269
aS'deliver'
p5270
aS'the'
p5271
aS'proposal'
p5272
aaa(lp5273
g4709
a(lp5274
S'If'
p5275
aS'you'
p5276
aS'are'
p5277
aS'an'
p5278
aS'agency'
p5279
aS'that'
p5280
aS'is'
p5281
aS'outside'
p5282
aS'of'
p5283
aS'those'
p5284
aS'areas'
p5285
aaa(lp5286
g4709
a(lp5287
S'of'
p5288
aS'the'
p5289
aS'census'
p5290
aS'track'
p5291
aaa(lp5292
g4709
a(lp5293
S'that'
p5294
aS'each'
p5295
aS'of'
p5296
aS'you'
p5297
aS'have'
p5298
aaa(lp5299
g4709
a(lp5300
S'then'
p5301
aaa(lp5302
g4709
a(lp5303
S'change'
p5304
aS'your'
p5305
aS'location'
p5306
aaa(lp5307
g4709
a(lp5308
S'do'
p5309
aS'like'
p5310
aS'Reagan'
p5311
aS'said'
p5312
aaa(lp5313
g4709
a(lp5314
S'and'
p5315
aS'move'
p5316
aS'with'
p5317
aS'your'
p5318
aS'feet'
p5319
aS'into'
p5320
aS'the'
p5321
aS'area'
p5322
aaa(lp5323
g4709
a(lp5324
S'This'
p5325
aS'is'
p5326
aS'no'
p5327
aaa(lp5328
g4709
a(lp5329
S'you'
p5330
aS'know'
p5331
aaa(lp5332
g4709
a(lp5333
S'three'
p5334
aS'card'
p5335
ag486
aS'Molly'
p5336
ag486
aS'here'
p5337
aaa(lp5338
g4709
a(lp5339
S'We'
p5340
aS'already'
p5341
aS'know'
p5342
aaa(lp5343
g4709
a(lp5344
S'where'
p5345
aS'the'
p5346
aS'most'
p5347
aS'MRC'
p5348
aS'empower'
p5349
aS'less'
p5350
aS'people'
p5351
aS'are'
p5352
aS'MRC'
p5353
aaa(lp5354
g4709
a(lp5355
S'Get'
p5356
aS'busy'
p5357
aaa(lp5358
g4709
a(lp5359
S'Patty'
p5360
aS'asked'
p5361
ag84
aS'question'
p5362
aS'earlier'
p5363
aaa(lp5364
g4709
a(lp5365
g4
aS'have'
p5366
aS'chose'
p5367
aS'not'
p5368
aS'to'
p5369
aS'do'
p5370
aS'it'
p5371
aaa(lp5372
g4709
a(lp5373
S'but'
p5374
aS'out'
p5375
aS'of'
p5376
aS'necessity'
p5377
aaa(lp5378
g4709
a(lp5379
S'Im'
p5380
aS'gonna'
p5381
aS'ask'
p5382
aS'you'
p5383
aS'to'
p5384
aS'walk'
p5385
aS'through'
p5386
aS'this'
p5387
aaa(lp5388
g4709
a(lp5389
S'this'
p5390
aS'is'
p5391
aS'where'
p5392
aS'the'
p5393
aS'poor'
p5394
aS'folks'
p5395
aS'live'
p5396
aaa(lp5397
g4709
a(lp5398
S'This'
p5399
aS'is'
p5400
aS'where'
p5401
aS'your'
p5402
aS'tax'
p5403
aS'dollars'
p5404
aS'are'
p5405
aS'going'
p5406
aaa(lp5407
g4709
a(lp5408
S'And'
p5409
aS'this'
p5410
aS'is'
p5411
aS'why'
p5412
aS'you'
p5413
aS'get'
p5414
aS'upset'
p5415
aaa(lp5416
g4709
a(lp5417
S'every'
p5418
aS'time'
p5419
aS'the'
p5420
aS'city'
p5421
aS'launches'
p5422
ag84
aS'project'
p5423
aaa(lp5424
g4709
a(lp5425
S'because'
p5426
aS'you'
p5427
aS'say'
p5428
aaa(lp5429
g4709
a(lp5430
S'it'
p5431
aS'comes'
p5432
aS'in'
p5433
aS'over'
p5434
aS'budget'
p5435
aaa(lp5436
g4709
a(lp5437
S'This'
p5438
aS'is'
p5439
aS'where'
p5440
aS'the'
p5441
aS'state'
p5442
aS'has'
p5443
aS'roads'
p5444
aS'going'
p5445
aS'on'
p5446
aaa(lp5447
g4709
a(lp5448
S'This'
p5449
aS'is'
p5450
aS'where'
p5451
aS'county'
p5452
aS'hospital'
p5453
aS'has'
p5454
aS'roads'
p5455
aS'going'
p5456
aS'on'
p5457
aaa(lp5458
g4709
a(lp5459
S'So'
p5460
aS'as'
p5461
aS'far'
p5462
aS'as'
p5463
aS'Im'
p5464
aS'concerned'
p5465
aaa(lp5466
g4709
a(lp5467
S'if'
p5468
aS'the'
p5469
aS'city'
p5470
aS'did'
p5471
aS'anything'
p5472
aS'more'
p5473
aS'than'
p5474
aS'what'
p5475
aS'it'
p5476
aS'was'
p5477
aS'doing'
p5478
aaa(lp5479
g4709
a(lp5480
g4
aS'would'
p5481
aS'file'
p5482
ag84
aS'grievance'
p5483
aS'with'
p5484
aS'the'
p5485
aS'Department'
p5486
aS'of'
p5487
aS'Justice'
p5488
aaa(lp5489
g4709
a(lp5490
S'to'
p5491
aS'say'
p5492
aS'that'
p5493
aS'they'
p5494
aS'were'
p5495
aS'in'
p5496
aS'violation'
p5497
aS'of'
p5498
aS'the'
p5499
aS'legislation'
p5500
aaa(lp5501
g4709
a(lp5502
S'The'
p5503
aS'legislation'
p5504
aS'says'
p5505
aS'that'
p5506
aaa(lp5507
g4709
a(lp5508
S'those'
p5509
aS'who'
p5510
aS'have'
p5511
aS'nothing'
p5512
aaa(lp5513
g4709
a(lp5514
S'are'
p5515
aS'either'
p5516
aS'to'
p5517
aS'be'
p5518
aS'courted'
p5519
aS'by'
p5520
aS'those'
p5521
aS'who'
p5522
aS'have'
p5523
aS'something'
p5524
aaa(lp5525
g4709
a(lp5526
S'or'
p5527
aS'left'
p5528
aS'alone'
p5529
aaa(lp5530
g4709
a(lp5531
S'so'
p5532
aS'that'
p5533
aS'they'
p5534
aS'can'
p5535
aS'develop'
p5536
aaa(lp5537
g4709
a(lp5538
S'their'
p5539
aS'own'
p5540
aS'plan'
p5541
aaa(lp5542
g4709
a(lp5543
S'and'
p5544
aS'be'
p5545
aS'responsible'
p5546
aS'for'
p5547
aS'their'
p5548
aS'success'
p5549
aaa(lp5550
g4709
a(lp5551
S'or'
p5552
aS'their'
p5553
aS'failure'
p5554
aaa(lp5555
g4709
a(lp5556
S'That'
p5557
aS'to'
p5558
aS'me'
p5559
aS'is'
p5560
aS'the'
p5561
aS'empowerment'
p5562
aS'zone'
p5563
aaa(lp5564
g4709
a(lp5565
S'Anything'
p5566
aS'else'
p5567
aaa(lp5568
g4709
a(lp5569
S'is'
p5570
ag84
aS'contradiction'
p5571
aaa(lp5572
g4709
a(lp5573
S'Malcolm'
p5574
ag486
aaa(lp5575
g4709
a(lp5576
S'we'
p5577
aS'sitting'
p5578
aS'in'
p5579
aS'the'
p5580
aS'college'
p5581
aS'named'
p5582
aS'after'
p5583
aS'him'
p5584
aaa(lp5585
g4709
a(lp5586
S'he'
p5587
aS'said'
p5588
aS'by'
p5589
aS'whatever'
p5590
aS'means'
p5591
aS'necessary'
p5592
aaa(lp5593
g4709
a(lp5594
S'So'
p5595
aS'by'
p5596
aS'whatever'
p5597
aS'means'
p5598
aS'necessary'
p5599
aS'it'
p5600
aS'takes'
p5601
aS'for'
p5602
aS'you'
p5603
aS'to'
p5604
aS'get'
p5605
ag486
aS'gautonomous'
p5606
ag486
aaa(lp5607
g4709
a(lp5608
S'touched'
p5609
aaa(lp5610
g4709
a(lp5611
S'contagious'
p5612
aaa(lp5613
g4709
a(lp5614
S'in'
p5615
aS'in'
p5616
aS'love'
p5617
aS'with'
p5618
aS'poor'
p5619
aS'folks'
p5620
aaa(lp5621
g4709
a(lp5622
S'is'
p5623
aS'what'
p5624
aS'is'
p5625
aS'gonna'
p5626
aS'take'
p5627
aaa(lp5628
g4709
a(lp5629
S'to'
p5630
aS'keep'
p5631
aS'your'
p5632
aS'agencies'
p5633
aaa(lp5634
g4709
a(lp5635
S'empowered'
p5636
aaa(lp5637
S'MANY'
p5638
a(lp5639
aa(lp5640
S'PATTY'
p5641
a(lp5642
S'Thank'
p5643
aS'you'
p5644
aS'Paul'
p5645
aaa(lp5646
g5641
a(lp5647
S'Um'
p5648
aaa(lp5649
g5641
a(lp5650
S'before'
p5651
aS'we'
p5652
aS'close'
p5653
aaa(lp5654
g5641
a(lp5655
S'we'
p5656
aS'have'
p5657
aS'uh'
p5658
aS'several'
p5659
aS'members'
p5660
aS'of'
p5661
aS'the'
p5662
aS'Coordinating'
p5663
aS'Council'
p5664
aS'here'
p5665
aaa(lp5666
g5641
a(lp5667
S'who'
p5668
aS'Id'
p5669
aS'like'
p5670
aS'to'
p5671
aS'recognize'
p5672
aaa(lp5673
g5641
a(lp5674
S'and'
p5675
aS'see'
p5676
aS'if'
p5677
aS'they'
p5678
aS'want'
p5679
aS'to'
p5680
aS'add'
p5681
aS'anything'
p5682
aaa(lp5683
g5641
a(lp5684
S'before'
p5685
aS'we'
p5686
aS'leave'
p5687
aS'uh'
p5688
aS'here'
p5689
aS'tonight'
p5690
aaa(lp5691
g5641
a(lp5692
S'Um'
p5693
aaa(lp5694
g5641
a(lp5695
S'we'
p5696
aS'have'
p5697
aS'Sproule'
p5698
aS'White'
p5699
aaa(lp5700
g5641
a(lp5701
S'who'
p5702
aS'is'
p5703
aS'the'
p5704
aS'executive'
p5705
aS'director'
p5706
aS'of'
p5707
aS'the'
p5708
aS'Chicago'
p5709
aS'Jobs'
p5710
aS'Council'
p5711
aaa(lp5712
g5641
a(lp5713
S'um'
p5714
aaa(lp5715
g5641
a(lp5716
S'Wanda'
p5717
aS'White'
p5718
aaa(lp5719
g5641
a(lp5720
S'who'
p5721
aS'is'
p5722
aS'the'
p5723
aS'executive'
p5724
aS'director'
p5725
aS'of'
p5726
aS'the'
p5727
aS'Community'
p5728
aS'Workshop'
p5729
aS'on'
p5730
aS'Economic'
p5731
aS'Development'
p5732
aaa(lp5733
S'AUD'
p5734
a(lp5735
aa(lp5736
S'PATTY'
p5737
a(lp5738
S'and'
p5739
aS'Ted'
p5740
aS'Wysaki'
p5741
aaa(lp5742
g5737
a(lp5743
S'who'
p5744
aS'is'
p5745
aS'the'
p5746
aS'executive'
p5747
aS'director'
p5748
aS'of'
p5749
aaa(lp5750
g5737
a(lp5751
S'uh'
p5752
aaa(lp5753
g5737
a(lp5754
S'CANDO'
p5755
aaa(lp5756
g5737
a(lp5757
S'the'
p5758
aS'Chicago'
p5759
aS'Association'
p5760
aS'of'
p5761
aS'Neighborhood'
p5762
aS'Development'
p5763
aS'Organizations'
p5764
aaa(lp5765
g5737
a(lp5766
S'and'
p5767
aS'also'
p5768
aaa(lp5769
g5737
a(lp5770
S'Frank'
p5771
aS'Grossman'
p5772
aS'was'
p5773
aS'here'
p5774
aaa(lp5775
g5737
a(lp5776
S'from'
p5777
aS'Continental'
p5778
aS'Bank'
p5779
aaa(lp5780
g5737
a(lp5781
S'And'
p5782
aS'also'
p5783
aS'the'
p5784
aS'chair'
p5785
aS'of'
p5786
aS'the'
p5787
aS'capital'
p5788
aS'improvement'
p5789
aS'advisory'
p5790
aS'committee'
p5791
aaa(lp5792
g5737
a(lp5793
S'Do'
p5794
aS'you'
p5795
aS'wanna'
p5796
aS'say'
p5797
aS'anything'
p5798
aaa(lp5799
S'X'
p5800
a(lp5801
S'Okay'
p5802
aaa(lp5803
S'CHERYL'
p5804
a(lp5805
S'Ill'
p5806
aS'just'
p5807
aS'make'
p5808
aS'one'
p5809
aS'point'
p5810
aaa(lp5811
g5804
a(lp5812
S'and'
p5813
aS'Ill'
p5814
aS'make'
p5815
aS'it'
p5816
aS'brief'
p5817
aaa(lp5818
g5804
a(lp5819
S'and'
p5820
aS'that'
p5821
aS'is'
p5822
aaa.