(lp0
(lp1
S'FRED'
p2
a(lp3
S'Yeah'
p4
aaa(lp5
g2
a(lp6
S'I'
p7
aS'tell'
p8
aS'you'
p9
aS'man'
p10
aaa(lp11
g2
a(lp12
S'that'
p13
aS'factorys'
p14
aS'the'
p15
aS'pits'
p16
aS'man'
p17
aaa(lp18
S'RICHARDWhats'
p19
a(lp20
S'new'
p21
aaa(lp22
S'FREDlast'
p23
a(lp24
S'night'
p25
ag7
aS'got'
p26
aS'into'
p27
aS'a'
p28
aS'hassle'
p29
aS'with'
p30
aS'James'
p31
aS'Boyd'
p32
aaa(lp33
g23
a(lp34
S'Im'
p35
aS'in'
p36
aS'the'
p37
aS'cafeteria'
p38
aaa(lp39
S'RICHARDYeah'
p40
a(lp41
aa(lp42
S'FREDand'
p43
a(lp44
g7
aS'took'
p45
ag28
aS'break'
p46
aaa(lp47
g43
a(lp48
S'that'
p49
aS'was'
p50
aS'VOX'
p51
aS'just'
p52
ag28
aS'little'
p53
aS'bit'
p54
aS'VOX'
p55
aS'too'
p56
aS'long'
p57
aS'man'
p58
aaa(lp59
g43
a(lp60
S'You'
p61
aS'know'
p62
aaa(lp63
S'RICHARDYeah'
p64
a(lp65
aa(lp66
S'FRED'
p67
a(lp68
aa(lp69
S'RICHARDI'
p70
a(lp71
S'can'
p72
aS'imagine'
p73
aaa(lp74
S'FRED'
p75
a(lp76
S'half'
p77
aS'hour'
p78
aS'break'
p79
aaa(lp80
S'RICHARD'
p81
a(lp82
S'You'
p83
aS'stretched'
p84
ag28
aS'fifteen'
p85
aS'minute'
p86
aS'break'
p87
aS'into'
p88
ag28
aS'half'
p89
aS'hour'
p90
aS'break'
p91
aaa(lp92
S'FRED'
p93
a(lp94
aa(lp95
g93
a(lp96
S'to'
p97
ag28
aS'half'
p98
aS'hour'
p99
aaa(lp100
g93
a(lp101
S'And'
p102
aS'then'
p103
aS'he'
p104
aS'comes'
p105
aS'into'
p106
aS'the'
p107
aS'cafeteria'
p108
aaa(lp109
g93
a(lp110
S'And'
p111
ag7
aS'thought'
p112
aS'he'
p113
aS'was'
p114
aS'coming'
p115
aS'in'
p116
aS'to'
p117
aS'chase'
p118
aS'everybody'
p119
aS'away'
p120
aaa(lp121
S'RICHARDHe'
p122
a(lp123
S'was'
p124
aS'after'
p125
aS'you'
p126
aaa(lp127
S'FRED'
p128
a(lp129
S'But'
p130
aS'hes'
p131
aS'coming'
p132
aS'after'
p133
aS'me'
p134
aaa(lp135
g128
a(lp136
S'And'
p137
aS'he'
p138
aS'calls'
p139
aS'me'
p140
aaa(lp141
g128
a(lp142
S'And'
p143
aS'Im'
p144
aS'walking'
p145
aS'out'
p146
aS'the'
p147
aS'door'
p148
aaa(lp149
g128
a(lp150
S'Right'
p151
aS'as'
p152
aS'hes'
p153
aS'walking'
p154
aS'in'
p155
aS'the'
p156
aS'other'
p157
aS'one'
p158
aaa(lp159
S'RICHARDUnhunh'
p160
a(lp161
aa(lp162
S'FRED'
p163
a(lp164
aa(lp165
g163
a(lp166
S'And'
p167
aS'he'
p168
aS'goes'
p169
aaa(lp170
g163
a(lp171
S'VOX'
p172
aS'Fred'
p173
aaa(lp174
g163
a(lp175
g7
aS'wanna'
p176
aS'talk'
p177
aS'to'
p178
aS'you'
p179
aaa(lp180
g163
a(lp181
S'come'
p182
aS'here'
p183
aS'VOX'
p184
aaa(lp185
g163
a(lp186
S'And'
p187
ag7
aS'go'
p188
aaa(lp189
g163
a(lp190
S'oh'
p191
aS'man'
p192
aaa(lp193
g163
a(lp194
S'what'
p195
aS'is'
p196
aS'this'
p197
aS'about'
p198
aaa(lp199
g163
a(lp200
S'And'
p201
aS'on'
p202
aS'my'
p203
aS'production'
p204
aS'card'
p205
aaa(lp206
g163
a(lp207
S'Lets'
p208
aS'see'
p209
aaa(lp210
g163
a(lp211
S'The'
p212
aS'day'
p213
aS'before'
p214
aS'yesterday'
p215
aaa(lp216
g163
a(lp217
g7
aS'did'
p218
aS'ice'
p219
aS'cream'
p220
aaa(lp221
g163
a(lp222
S'Right'
p223
aaa(lp224
g163
a(lp225
S'Balian'
p226
aaa(lp227
S'RICHARDUnhunh'
p228
a(lp229
aa(lp230
S'FRED'
p231
a(lp232
S'And'
p233
aS'you'
p234
aS'gotta'
p235
aS'pack'
p236
aS'those'
p237
aS'in'
p238
aS'cases'
p239
aaa(lp240
g231
a(lp241
S'And'
p242
aaa(lp243
S'RICHARDRight'
p244
a(lp245
aa(lp246
S'FREDso'
p247
a(lp248
S'like'
p249
aaa(lp250
g247
a(lp251
g7
aS'didnt'
p252
aS'put'
p253
aS'that'
p254
aS'down'
p255
aS'on'
p256
aS'my'
p257
aS'production'
p258
aS'card'
p259
aaa(lp260
S'RICHARDHow'
p261
a(lp262
S'many'
p263
aS'cases'
p264
aS'you'
p265
aS'packed'
p266
aaa(lp267
S'FRED'
p268
a(lp269
g7
aS'dont'
p270
aS'know'
p271
aS'man'
p272
aaa(lp273
g268
a(lp274
g7
aS'packed'
p275
aS'two'
p276
aS'pallets'
p277
aaa(lp278
g268
a(lp279
S'You'
p280
aS'know'
p281
aaa(lp282
g268
a(lp283
g7
aS'dont'
p284
aS'know'
p285
aS'how'
p286
aS'many'
p287
aS'cases'
p288
aS'that'
p289
aS'is'
p290
aaa(lp291
S'RICHARDUnhunh'
p292
a(lp293
aa(lp294
S'FREDbut'
p295
a(lp296
aa(lp297
g295
a(lp298
S'you'
p299
aS'know'
p300
aaa(lp301
g295
a(lp302
S'that'
p303
aaa(lp304
g295
a(lp305
S'that'
p306
aS'shit'
p307
aS'was'
p308
aS'heavy'
p309
aS'man'
p310
aaa(lp311
g295
a(lp312
S'And'
p313
aS'like'
p314
aaa(lp315
g295
a(lp316
S'and'
p317
aS'like'
p318
aaa(lp319
g295
a(lp320
g7
aS'put'
p321
aS'down'
p322
aS'on'
p323
aS'the'
p324
aS'card'
p325
aaa(lp326
g295
a(lp327
S'you'
p328
aS'know'
p329
aaa(lp330
g295
a(lp331
S'no'
p332
aS'cases'
p333
aaa(lp334
g295
a(lp335
S'Because'
p336
aS'it'
p337
aS'was'
p338
aS'lost'
p339
aS'time'
p340
aaa(lp341
g295
a(lp342
S'You'
p343
aS'know'
p344
aaa(lp345
g295
a(lp346
S'you'
p347
aS'know'
p348
aS'we'
p349
aaa(lp350
S'RICHARDRight'
p351
a(lp352
aa(lp353
S'FREDwe'
p354
a(lp355
S'stripped'
p356
aS'the'
p357
aS'sides'
p358
aS'and'
p359
aS'everything'
p360
aaa(lp361
S'RICHARDRight'
p362
a(lp363
aa(lp364
g362
a(lp365
S'Yeah'
p366
aaa(lp367
S'FREDand'
p368
a(lp369
S'like'
p370
aaa(lp371
S'RICHARDY'
p372
a(lp373
S'y'
p374
aS'you'
p375
aS'were'
p376
aS'teaming'
p377
aS'up'
p378
aS'with'
p379
aS'somebody'
p380
aaa(lp381
S'FREDthere'
p382
a(lp383
S'were'
p384
aS'no'
p385
aS'cases'
p386
aaa(lp387
S'RICHARDor'
p388
a(lp389
S'working'
p390
aS'alone'
p391
aaa(lp392
S'FRED'
p393
a(lp394
aa(lp395
g393
a(lp396
g7
aS'w'
p397
aaa(lp398
g393
a(lp399
S'uh'
p400
aaa(lp401
g393
a(lp402
S'Gutierrez'
p403
aS'was'
p404
aS'doing'
p405
aS'the'
p406
aS'same'
p407
aS'job'
p408
aaa(lp409
g393
a(lp410
S'But'
p411
aS'we'
p412
aS'werent'
p413
aS'working'
p414
aS'together'
p415
aaa(lp416
S'RICHARDOh'
p417
a(lp418
S'youre'
p419
aS'working'
p420
aS'alone'
p421
aaa(lp422
S'FRED'
p423
a(lp424
S'Nyeah'
p425
aaa(lp426
g423
a(lp427
S'and'
p428
aS'so'
p429
aaa(lp430
g423
a(lp431
S'he'
p432
aS'comes'
p433
aS'and'
p434
aS'says'
p435
aaa(lp436
g423
a(lp437
S'well'
p438
aaa(lp439
g423
a(lp440
S'he'
p441
aS'goes'
p442
aaa(lp443
g423
a(lp444
g7
aS'dont'
p445
aS'know'
p446
aS'if'
p447
aS'youve'
p448
aaa(lp449
g423
a(lp450
S'if'
p451
aS'youve'
p452
aaa(lp453
g423
a(lp454
S'packed'
p455
aS'this'
p456
aS'or'
p457
aS'not'
p458
aaa(lp459
g423
a(lp460
S'You'
p461
aS'know'
p462
aaa(lp463
g423
a(lp464
S'On'
p465
aS'your'
p466
aS'production'
p467
aS'card'
p468
aaa(lp469
g423
a(lp470
S'all'
p471
aS'it'
p472
aS'says'
p473
aaa(lp474
g423
a(lp475
S'you'
p476
aS'know'
p477
aaa(lp478
g423
a(lp479
S'is'
p480
aS'that'
p481
aS'you'
p482
aS'did'
p483
aS'three'
p484
aS'thousand'
p485
aS'sheets'
p486
aaa(lp487
g423
a(lp488
S'but'
p489
aS'you'
p490
aS'did'
p491
aaa(lp492
S'RICHARDTwo'
p493
a(lp494
S'loads'
p495
aaa(lp496
S'FREDYeah'
p497
a(lp498
aa(lp499
g497
a(lp500
S'But'
p501
aS'you'
p502
aS'didnt'
p503
aS'pack'
p504
aS'it'
p505
aaa(lp506
g497
a(lp507
S'So'
p508
ag7
aS'go'
p509
aaa(lp510
g497
a(lp511
S'yeah'
p512
aaa(lp513
g497
a(lp514
g7
aS'go'
p515
aS'look'
p516
aS'man'
p517
aaa(lp518
g497
a(lp519
S'there'
p520
aS'they'
p521
aS'are'
p522
aaa(lp523
g497
a(lp524
S'You'
p525
aS'could'
p526
aS'see'
p527
aaa(lp528
g497
a(lp529
S'theres'
p530
aS'my'
p531
aS'name'
p532
aaa(lp533
g497
a(lp534
S'stamped'
p535
aS'right'
p536
aS'on'
p537
aS'there'
p538
aaa(lp539
g497
a(lp540
g7
aS'just'
p541
aS'didnt'
p542
aS'put'
p543
aS'it'
p544
aS'down'
p545
aaa(lp546
g497
a(lp547
S'VOX'
p548
aS'Oh'
p549
aaa(lp550
g497
a(lp551
S'well'
p552
ag7
aS'gotta'
p553
aS'figure'
p554
aS'it'
p555
aS'out'
p556
aS'VOX'
p557
aaa(lp558
g497
a(lp559
S'And'
p560
aS'he'
p561
aS'goes'
p562
aaa(lp563
g497
a(lp564
S'VOX'
p565
aS'and'
p566
aS'what'
p567
aS'are'
p568
aS'you'
p569
aS'doing'
p570
aS'in'
p571
aS'the'
p572
aS'cafeteria'
p573
aS'so'
p574
aS'late'
p575
aS'VOX'
p576
aaa(lp577
g497
a(lp578
S'Im'
p579
aS'just'
p580
aS'going'
p581
aaa(lp582
g497
a(lp583
S'aw'
p584
aS'man'
p585
aaa(lp586
g497
a(lp587
S'this'
p588
aS'is'
p589
aS'the'
p590
aS'pits'
p591
aS'man'
p592
aaa(lp593
g497
a(lp594
S'This'
p595
aS'is'
p596
aS'at'
p597
aS'the'
p598
aS'bottom'
p599
aS'of'
p600
aS'the'
p601
aaa(lp602
S'RICHARDThats'
p603
a(lp604
S'the'
p605
aS'last'
p606
aS'thing'
p607
aS'you'
p608
aS'wanted'
p609
aS'to'
p610
aS'hear'
p611
aaa(lp612
S'FREDYeah'
p613
a(lp614
S'really'
p615
aaa(lp616
g613
a(lp617
S'This'
p618
aS'fucking'
p619
aS'mayate'
p620
aaa(lp621
g613
a(lp622
S'You'
p623
aS'know'
p624
aaa(lp625
g613
a(lp626
S'getting'
p627
aS'on'
p628
aS'my'
p629
aS'case'
p630
aaa(lp631
S'RICHARDYeah'
p632
a(lp633
aa(lp634
S'FRED'
p635
a(lp636
aa(lp637
S'RICHARDWell'
p638
a(lp639
S'thats'
p640
aS'nothing'
p641
aS'new'
p642
aaa(lp643
S'FRED'
p644
a(lp645
S'Its'
p646
aS'nothing'
p647
aS'new'
p648
aaa(lp649
S'RICHARDIts'
p650
a(lp651
S'always'
p652
aS'been'
p653
aS'like'
p654
aS'that'
p655
aaa(lp656
S'FREDits'
p657
a(lp658
aa(lp659
g657
a(lp660
S'Its'
p661
aS'par'
p662
aS'for'
p663
aS'the'
p664
aS'course'
p665
aS'man'
p666
aaa(lp667
g657
a(lp668
S'Right'
p669
aaa(lp670
S'RICHARDYeah'
p671
a(lp672
aa(lp673
g671
a(lp674
S'definitely'
p675
aaa(lp676
g671
a(lp677
S'Ts'
p678
aS'why'
p679
ag7
aS'cant'
p680
aS'take'
p681
aS'that'
p682
aaa(lp683
g671
a(lp684
S'that'
p685
aS'type'
p686
aS'of'
p687
aS'living'
p688
aS'anymore'
p689
aaa(lp690
g671
a(lp691
S'even'
p692
aS'is'
p693
aS'this'
p694
aaa(lp695
g671
a(lp696
S'uh'
p697
aaa(lp698
g671
a(lp699
S'career'
p700
aS'doesnt'
p701
aS'work'
p702
aS'out'
p703
aS'for'
p704
aS'me'
p705
aaa(lp706
g671
a(lp707
S'Ill'
p708
aS'find'
p709
aS'something'
p710
aS'that'
p711
aS'will'
p712
aaa(lp713
S'FREDSomething'
p714
a(lp715
S'else'
p716
aaa(lp717
g714
a(lp718
S'Well'
p719
aS'youre'
p720
aS'gonna'
p721
aS'do'
p722
aS'real'
p723
aS'estate'
p724
aS'maybe'
p725
aaa(lp726
g714
a(lp727
S'right'
p728
aaa(lp729
S'RICHARDDefinitely'
p730
a(lp731
aa(lp732
g730
a(lp733
S'Im'
p734
aaa(lp735
g730
a(lp736
g7
aS'got'
p737
aS'my'
p738
aS'books'
p739
aS'and'
p740
aS'everything'
p741
aaa(lp742
g730
a(lp743
S'Ill'
p744
aS'be'
p745
aS'studying'
p746
aS'and'
p747
aS'uh'
p748
aaa(lp749
g730
a(lp750
S'but'
p751
aS'in'
p752
ag28
aS'sense'
p753
aaa(lp754
g730
a(lp755
g7
aS'need'
p756
aS'uh'
p757
aaa(lp758
g730
a(lp759
S'some'
p760
aS'type'
p761
aS'of'
p762
aS'steady'
p763
aS'income'
p764
aaa(lp765
S'FRED'
p766
a(lp767
S'But'
p768
aaa(lp769
g766
a(lp770
S'but'
p771
aS'uh'
p772
aaa(lp773
g766
a(lp774
S'you'
p775
aS's'
p776
aaa(lp777
g766
a(lp778
S'Th'
p779
aS'the'
p780
aS'competition'
p781
aS'man'
p782
aaa(lp783
g766
a(lp784
g7
aS'mean'
p785
aaa(lp786
g766
a(lp787
S'is'
p788
aS'it'
p789
aS'real'
p790
aS'tough'
p791
aaa(lp792
g766
a(lp793
S'Like'
p794
aaa(lp795
g766
a(lp796
S'on'
p797
aS'the'
p798
aS'lot'
p799
aaa(lp800
S'RICHARD'
p801
a(lp802
S'Yeah'
p803
aaa(lp804
g801
a(lp805
S'it'
p806
aS'is'
p807
aaa(lp808
g801
a(lp809
S'Theres'
p810
aS'def'
p811
aaa(lp812
g801
a(lp813
S'And'
p814
aS'theres'
p815
aS'guys'
p816
aS'thatve'
p817
aS'been'
p818
aS'doing'
p819
aS'that'
p820
aS'four'
p821
aS'or'
p822
aS'five'
p823
aS'years'
p824
aaa(lp825
g801
a(lp826
S'and'
p827
aaa(lp828
S'FREDAnd'
p829
a(lp830
S'theyre'
p831
aS'real'
p832
aS'good'
p833
aS'at'
p834
aS'it'
p835
aaa(lp836
S'RICHARDthat'
p837
a(lp838
S'are'
p839
aS'real'
p840
aS'good'
p841
aS'at'
p842
aS'it'
p843
aaa(lp844
g837
a(lp845
S'and'
p846
aS'they'
p847
aS'know'
p848
aS'how'
p849
aS'to'
p850
aS'talk'
p851
aS'to'
p852
aS'the'
p853
aS'people'
p854
aaa(lp855
g837
a(lp856
S'and'
p857
aS'they'
p858
aS'know'
p859
aS'that'
p860
aaa(lp861
g837
a(lp862
S'when'
p863
aS'somebodys'
p864
aS'coming'
p865
aS'in'
p866
aaa(lp867
g837
a(lp868
S'if'
p869
aS'theyre'
p870
aS'buying'
p871
aS'or'
p872
aS'not'
p873
aaa(lp874
S'FRED'
p875
a(lp876
S'Oh'
p877
aaa(lp878
g875
a(lp879
S'they'
p880
aS'could'
p881
aS'tell'
p882
aS'right'
p883
aS'away'
p884
aaa(lp885
S'RICHARDYeah'
p886
a(lp887
S'but'
p888
aS'that'
p889
aS'all'
p890
aS'comes'
p891
aS'with'
p892
aS'time'
p893
aaa(lp894
g886
a(lp895
S'You'
p896
aS'know'
p897
aaa(lp898
g886
a(lp899
S'and'
p900
aaa(lp901
S'FREDYeah'
p902
a(lp903
aa(lp904
S'RICHARD'
p905
a(lp906
S'and'
p907
aS'theyre'
p908
aS'pretty'
p909
aS'helpful'
p910
aS'with'
p911
aS'me'
p912
aaa(lp913
g905
a(lp914
S'and'
p915
aS'uh'
p916
aaa(lp917
g905
a(lp918
S'you'
p919
aS'know'
p920
aS'itll'
p921
aS'all'
p922
aS'come'
p923
aS'in'
p924
aS'time'
p925
aaa(lp926
g905
a(lp927
S'Right'
p928
aaa(lp929
g905
a(lp930
g7
ag7
aS'figure'
p931
aaa(lp932
g905
a(lp933
S'the'
p934
aS'more'
p935
aS'cards'
p936
ag7
aS'get'
p937
aS'out'
p938
aaa(lp939
g905
a(lp940
S'the'
p941
aS'more'
p942
aS'people'
p943
ag7
aS'talk'
p944
aS'to'
p945
aaa(lp946
g905
a(lp947
S'n'
p948
aS'the'
p949
aS'more'
p950
aS'cars'
p951
aS'Im'
p952
aS'gonna'
p953
aS'sell'
p954
aaa(lp955
g905
a(lp956
S'Just'
p957
aS'all'
p958
aS'comes'
p959
aS'with'
p960
aS'time'
p961
aaa(lp962
g905
a(lp963
S'Once'
p964
ag7
aS'get'
p965
aS'my'
p966
aS'experience'
p967
aaa(lp968
g905
a(lp969
S'Ill'
p970
aS'be'
p971
aS'up'
p972
aS'there'
p973
aS'too'
p974
aS'in'
p975
aS'the'
p976
aS'top'
p977
aS'four'
p978
aS'salesman'
p979
aaa(lp980
S'FREDYour'
p981
a(lp982
S'parents'
p983
aS'dont'
p984
aS'know'
p985
aS'yet'
p986
aaa(lp987
g981
a(lp988
S'Hunh'
p989
aaa(lp990
S'RICHARDNo'
p991
a(lp992
aa(lp993
g991
a(lp994
S'Theyll'
p995
aS'know'
p996
aS'when'
p997
aS'they'
p998
aS'come'
p999
aS'back'
p1000
aaa(lp1001
S'FRED'
p1002
a(lp1003
g7
aaa(lp1004
g1002
a(lp1005
S'and'
p1006
ag7
aS'think'
p1007
aS'my'
p1008
aS'dad'
p1009
aS'told'
p1010
aS'me'
p1011
aS'yesterday'
p1012
aaa(lp1013
g1002
a(lp1014
S'theyre'
p1015
aS'coming'
p1016
aS'back'
p1017
aS'the'
p1018
aS'fifteenth'
p1019
aaa(lp1020
g1002
a(lp1021
S'or'
p1022
aS'sixteenth'
p1023
aaa(lp1024
S'RICHARDYeah'
p1025
a(lp1026
aa(lp1027
g1025
a(lp1028
S'definite'
p1029
aaa(lp1030
g1025
a(lp1031
g7
aS'think'
p1032
ag776
aaa(lp1033
g1025
a(lp1034
S'Its'
p1035
aS'gonna'
p1036
aS'be'
p1037
aS'the'
p1038
aS'fifteenth'
p1039
aaa(lp1040
g1025
a(lp1041
S'which'
p1042
aS'would'
p1043
aS'be'
p1044
aS'on'
p1045
ag28
aS'Saturday'
p1046
ag7
aS'think'
p1047
aaa(lp1048
g1025
a(lp1049
S'And'
p1050
aS'Ill'
p1051
aS'be'
p1052
aS'working'
p1053
aS'till'
p1054
aS'nine'
p1055
aS'oclock'
p1056
aaa(lp1057
g1025
a(lp1058
S'So'
p1059
aS'theyll'
p1060
aaa(lp1061
g1025
a(lp1062
S'theyll'
p1063
aS'be'
p1064
aS'pretty'
p1065
aS'happy'
p1066
aS'for'
p1067
aS'me'
p1068
aaa(lp1069
g1025
a(lp1070
S'more'
p1071
aS'or'
p1072
aS'less'
p1073
aaa(lp1074
g1025
a(lp1075
S'because'
p1076
aS'uh'
p1077
aaa(lp1078
g1025
a(lp1079
S'they'
p1080
aS'didnt'
p1081
aS'want'
p1082
aS'me'
p1083
aS'to'
p1084
aS'work'
p1085
aS'in'
p1086
aS'the'
p1087
aS'factory'
p1088
aS'much'
p1089
aS'longer'
p1090
aaa(lp1091
S'FRED'
p1092
a(lp1093
S'Yeah'
p1094
aaa(lp1095
g1092
a(lp1096
g7
aS'know'
p1097
aaa(lp1098
g1092
a(lp1099
S'My'
p1100
aS'mom'
p1101
aS'doesnt'
p1102
aS'know'
p1103
aS'what'
p1104
aS'to'
p1105
aS'do'
p1106
aS'to'
p1107
aS'get'
p1108
aS'me'
p1109
aS'out'
p1110
aaa(lp1111
g1092
a(lp1112
S'But'
p1113
aaa(lp1114
g1092
a(lp1115
S'they'
p1116
aS'didnt'
p1117
aS'take'
p1118
ag28
aS'trip'
p1119
aS'through'
p1120
aaa(lp1121
g1092
a(lp1122
S'Brazil'
p1123
aaa(lp1124
g1092
a(lp1125
S'and'
p1126
aS'Argentina'
p1127
aaa(lp1128
S'RICHARDI'
p1129
a(lp1130
S'dont'
p1131
aS'know'
p1132
aaa(lp1133
g1129
a(lp1134
g7
aS'dont'
p1135
aS'know'
p1136
aS'they'
p1137
aS'they'
p1138
aaa(lp1139
g1129
a(lp1140
S'they'
p1141
aS'X'
p1142
aS'didnt'
p1143
ag1142
aaa(lp1144
S'FREDThey'
p1145
a(lp1146
S'spent'
p1147
aS'the'
p1148
aS'whole'
p1149
aS'time'
p1150
aS'in'
p1151
aS'Guayaquil'
p1152
aaa(lp1153
S'RICHARD'
p1154
a(lp1155
S'Yeah'
p1156
ag7
aS'think'
p1157
aS'so'
p1158
aaa(lp1159
g1154
a(lp1160
S'They'
p1161
aS'tol'
p1162
aaa(lp1163
g1154
a(lp1164
S'My'
p1165
aS'dad'
p1166
aS'told'
p1167
aS'me'
p1168
aS'he'
p1169
aS'was'
p1170
aS'gonna'
p1171
aS'go'
p1172
aS'to'
p1173
aS'uh'
p1174
aaa(lp1175
g1154
a(lp1176
S'Argentina'
p1177
aaa(lp1178
g1154
a(lp1179
S'and'
p1180
aS'Peru'
p1181
aaa(lp1182
g1154
a(lp1183
S'and'
p1184
aS'Colombia'
p1185
aaa(lp1186
g1154
a(lp1187
S'but'
p1188
aaa(lp1189
g1154
a(lp1190
S'he'
p1191
aS'only'
p1192
aS'wrote'
p1193
aS'one'
p1194
aS'letter'
p1195
aaa(lp1196
g1154
a(lp1197
S'and'
p1198
aS'and'
p1199
aS'they'
p1200
aS'were'
p1201
aS'in'
p1202
aS'uh'
p1203
aaa(lp1204
S'FRED'
p1205
a(lp1206
S'No'
p1207
aS'ones'
p1208
aS'called'
p1209
aS'em'
p1210
aaa(lp1211
g1205
a(lp1212
g374
ag7
aS'mean'
p1213
aS'no'
p1214
aS'ones'
p1215
aS'talked'
p1216
aS'to'
p1217
aS'them'
p1218
aaa(lp1219
S'RICHARDNo'
p1220
a(lp1221
aa(lp1222
S'FREDX'
p1223
a(lp1224
aa(lp1225
S'RICHARDHe'
p1226
a(lp1227
S'sent'
p1228
aS'postcards'
p1229
aS'to'
p1230
aS'everybody'
p1231
aaa(lp1232
g1226
a(lp1233
S'and'
p1234
ag28
aS'YWN'
p1235
aS'letter'
p1236
aS'but'
p1237
aaa(lp1238
S'FREDYeah'
p1239
a(lp1240
aa(lp1241
S'RICHARD'
p1242
a(lp1243
S'Other'
p1244
aS'than'
p1245
aS'that'
p1246
aS'YWN'
p1247
aaa(lp1248
g1242
a(lp1249
S'he'
p1250
aS'hasnt'
p1251
aS'called'
p1252
aS'or'
p1253
aS'told'
p1254
aS'us'
p1255
aS'whats'
p1256
aS'up'
p1257
aaa(lp1258
g1242
a(lp1259
g1142
aS'and'
p1260
aS'hell'
p1261
aS'be'
p1262
aS'in'
p1263
aS'here'
p1264
aS'no'
p1265
aS'time'
p1266
ag1142
aaa(lp1267
S'FRED'
p1268
a(lp1269
S'Is'
p1270
aS'he'
p1271
aS'staying'
p1272
aS'over'
p1273
aS'at'
p1274
aS'Miguel'
p1275
aS'Juarezs'
p1276
aaa(lp1277
S'RICHARD'
p1278
a(lp1279
S'Yeah'
p1280
aaa(lp1281
S'FRED'
p1282
a(lp1283
S'Yeah'
p1284
aaa(lp1285
S'RICHARD'
p1286
a(lp1287
S'And'
p1288
aS'uh'
p1289
aaa(lp1290
g1286
a(lp1291
S'the'
p1292
aS'other'
p1293
aS'architect'
p1294
aaa(lp1295
g1286
a(lp1296
S'Is'
p1297
aS'his'
p1298
aS'nephew'
p1299
aS'or'
p1300
aS'something'
p1301
aaa(lp1302
g1286
a(lp1303
S'Pe'
p1304
aaa(lp1305
g1286
a(lp1306
S'Pedro'
p1307
aS'Cruz'
p1308
aaa(lp1309
S'FRED'
p1310
a(lp1311
S'Pedro'
p1312
aS'Cruz'
p1313
aaa(lp1314
S'RICHARDYeah'
p1315
a(lp1316
aa(lp1317
g1315
a(lp1318
S'hes'
p1319
ag28
aS'architect'
p1320
aS'or'
p1321
aaa(lp1322
S'FREDI'
p1323
a(lp1324
S'never'
p1325
aS'met'
p1326
aS'him'
p1327
aaa(lp1328
g1323
a(lp1329
g7
aS'know'
p1330
aS'Miguel'
p1331
aaa(lp1332
S'RICHARDThats'
p1333
a(lp1334
S'his'
p1335
aaa(lp1336
S'FREDIve'
p1337
a(lp1338
S'been'
p1339
aS'to'
p1340
aS'his'
p1341
aS'house'
p1342
ag28
aS'number'
p1343
aS'of'
p1344
aS'time'
p1345
aaa(lp1346
S'RICHARDhis'
p1347
a(lp1348
S'nephew'
p1349
aaa(lp1350
g1347
a(lp1351
S'Th'
p1352
aS'one'
p1353
aS'of'
p1354
aS'his'
p1355
aS'brothers'
p1356
aS'sons'
p1357
aS'or'
p1358
aS'something'
p1359
aaa(lp1360
S'FRED'
p1361
a(lp1362
S'Unhunh'
p1363
aaa(lp1364
S'RICHARD'
p1365
a(lp1366
S'But'
p1367
aS'uh'
p1368
aaa(lp1369
g1365
a(lp1370
S'theyll'
p1371
aS'come'
p1372
aS'back'
p1373
aaa(lp1374
g1365
a(lp1375
S'theyll'
p1376
aS'be'
p1377
aS'happy'
p1378
aS'to'
p1379
aS'see'
p1380
aS'me'
p1381
aS'here'
p1382
aaa(lp1383
g1365
a(lp1384
S'that'
p1385
ag7
aS'got'
p1386
ag28
aS'new'
p1387
aS'career'
p1388
aS'going'
p1389
aaa(lp1390
g1365
a(lp1391
S'and'
p1392
aS'uh'
p1393
aaa(lp1394
S'FRED'
p1395
a(lp1396
S'They'
p1397
aS'werent'
p1398
aS'all'
p1399
aS'heartbroken'
p1400
aS'about'
p1401
aaa(lp1402
g1395
a(lp1403
S'you'
p1404
aS'know'
p1405
aaa(lp1406
g1395
a(lp1407
S'Jeanie'
p1408
aS'and'
p1409
aS'that'
p1410
aaa(lp1411
S'RICHARD'
p1412
a(lp1413
S'Well'
p1414
aS'they'
p1415
aS'have'
p1416
aS'no'
p1417
aS'idea'
p1418
aS'whats'
p1419
aS'happening'
p1420
aS'right'
p1421
aS'now'
p1422
aaa(lp1423
S'FREDThey'
p1424
a(lp1425
S'must'
p1426
aS'have'
p1427
aS'been'
p1428
aaa(lp1429
g1424
a(lp1430
S'They'
p1431
aS'have'
p1432
aS'no'
p1433
aS'idea'
p1434
aS'XX'
p1435
aaa(lp1436
S'RICHARDWhen'
p1437
a(lp1438
S'they'
p1439
aS'left'
p1440
aaa(lp1441
g1437
a(lp1442
S'we'
p1443
aS'were'
p1444
aS'on'
p1445
aS'shaky'
p1446
aS'grounds'
p1447
aaa(lp1448
g1437
a(lp1449
S'but'
p1450
aaa(lp1451
g1437
a(lp1452
S'you'
p1453
aS'know'
p1454
aaa(lp1455
g1437
a(lp1456
S'they'
p1457
aS'thought'
p1458
aS'it'
p1459
aS'might'
p1460
aS'be'
p1461
aS'able'
p1462
aS'to'
p1463
aS'work'
p1464
aS'out'
p1465
aaa(lp1466
g1437
a(lp1467
S'So'
p1468
aS'when'
p1469
aS'they'
p1470
aS'come'
p1471
aS'in'
p1472
aaa(lp1473
g1437
a(lp1474
S'theyll'
p1475
aS'be'
p1476
aS'pretty'
p1477
aS'shocked'
p1478
aaa(lp1479
S'FRED'
p1480
a(lp1481
S'Yeah'
p1482
aaa(lp1483
S'RICHARDAnd'
p1484
a(lp1485
aa(lp1486
g1484
a(lp1487
S'and'
p1488
aS'hurt'
p1489
aaa(lp1490
g1484
a(lp1491
S'But'
p1492
aS'uh'
p1493
aaa(lp1494
g1484
a(lp1495
S'like'
p1496
ag7
aS'say'
p1497
aaa(lp1498
g1484
a(lp1499
S'things'
p1500
aS'will'
p1501
aS'work'
p1502
aS'out'
p1503
aS'f'
p1504
aS'for'
p1505
aS'the'
p1506
aS'best'
p1507
aaa(lp1508
S'FREDWhat'
p1509
a(lp1510
S'about'
p1511
aS'her'
p1512
aS'folks'
p1513
aaa(lp1514
g1509
a(lp1515
S'Theyre'
p1516
aS'not'
p1517
aS'sorry'
p1518
aS'at'
p1519
aS'all'
p1520
aaa(lp1521
g1509
a(lp1522
S'huh'
p1523
aaa(lp1524
S'RICHARDNo'
p1525
a(lp1526
S'uh'
p1527
aaa(lp1528
g1525
a(lp1529
S'in'
p1530
aS'fact'
p1531
aS'Ive'
p1532
aS'seen'
p1533
aS'em'
p1534
aaa(lp1535
g1525
a(lp1536
g7
aaa(lp1537
g1525
a(lp1538
g7
ag397
ag7
aS'went'
p1539
aS'to'
p1540
aS'church'
p1541
aS'with'
p1542
aS'em'
p1543
aaa(lp1544
g1525
a(lp1545
S'for'
p1546
aS'the'
p1547
aS'last'
p1548
aS'three'
p1549
aS'Sundays'
p1550
aaa(lp1551
S'FREDReally'
p1552
a(lp1553
aa(lp1554
S'RICHARD'
p1555
a(lp1556
S'With'
p1557
aS'Jeanie'
p1558
aaa(lp1559
S'FREDWow'
p1560
a(lp1561
aa(lp1562
S'RICHARD'
p1563
a(lp1564
S'She'
p1565
aS'thought'
p1566
aS'it'
p1567
aS'might'
p1568
aaa(lp1569
g1563
a(lp1570
S'you'
p1571
aS'know'
p1572
aaa(lp1573
g1563
a(lp1574
S'help'
p1575
aS'our'
p1576
aS'relationship'
p1577
aS'as'
p1578
aS'friends'
p1579
aaa(lp1580
g1563
a(lp1581
S'and'
p1582
aS'uh'
p1583
aaa(lp1584
S'FRED'
p1585
a(lp1586
S'She'
p1587
aS'still'
p1588
aS'considers'
p1589
aS'you'
p1590
aS'man'
p1591
aaa(lp1592
g1585
a(lp1593
S'Hunh'
p1594
aaa(lp1595
S'RICHARDExactly'
p1596
a(lp1597
aa(lp1598
g1596
a(lp1599
S'She'
p1600
aS'does'
p1601
aaa(lp1602
g1596
a(lp1603
S'because'
p1604
ag7
aS'mean'
p1605
aaa(lp1606
g1596
a(lp1607
S'we'
p1608
aS'went'
p1609
aS'to'
p1610
aS'church'
p1611
aS'together'
p1612
aaa(lp1613
g1596
a(lp1614
S'for'
p1615
aS'the'
p1616
aS'last'
p1617
aS'three'
p1618
aS'Sundays'
p1619
aaa(lp1620
S'FRED'
p1621
a(lp1622
S'Yeah'
p1623
aaa(lp1624
S'RICHARD'
p1625
a(lp1626
S'and'
p1627
aS'then'
p1628
aaa(lp1629
g1625
a(lp1630
S'then'
p1631
aS'we'
p1632
aS'went'
p1633
aS'to'
p1634
aS'the'
p1635
aS'movies'
p1636
aS'after'
p1637
aaa(lp1638
g1625
a(lp1639
S'and'
p1640
aS'her'
p1641
aS'her'
p1642
aS'folks'
p1643
aS'were'
p1644
aS'at'
p1645
aS'church'
p1646
aaa(lp1647
g1625
a(lp1648
S'and'
p1649
aaa(lp1650
g1625
a(lp1651
S'you'
p1652
aS'know'
p1653
aaa(lp1654
g1625
a(lp1655
g948
aS'afterwards'
p1656
aaa(lp1657
g1625
a(lp1658
S'her'
p1659
aS'mom'
p1660
aaa(lp1661
g1625
a(lp1662
g397
aS'had'
p1663
ag28
aS'injury'
p1664
aS'on'
p1665
aS'her'
p1666
aS'leg'
p1667
aS'or'
p1668
aS'something'
p1669
aaa(lp1670
g1625
a(lp1671
S'she'
p1672
aS'wasnt'
p1673
aS'at'
p1674
aS'church'
p1675
aS'last'
p1676
aS'Sunday'
p1677
aaa(lp1678
g1625
a(lp1679
S'we'
p1680
aS'went'
p1681
aS'to'
p1682
aS'the'
p1683
aaa(lp1684
g1625
a(lp1685
S'to'
p1686
aS'their'
p1687
aS'house'
p1688
aaa(lp1689
g1625
a(lp1690
S'And'
p1691
aS'uh'
p1692
aaa(lp1693
g1625
a(lp1694
g7
aS'went'
p1695
aS'over'
p1696
aS'there'
p1697
aaa(lp1698
g1625
a(lp1699
S'and'
p1700
aS'her'
p1701
aS'brother'
p1702
aS'was'
p1703
aS'there'
p1704
aaa(lp1705
g1625
a(lp1706
S'her'
p1707
aS'nephews'
p1708
aS'and'
p1709
aS'nieces'
p1710
aaa(lp1711
g1625
a(lp1712
S'her'
p1713
aS'sister'
p1714
aaa(lp1715
g1625
a(lp1716
S'our'
p1717
aS'godson'
p1718
aaa(lp1719
g1625
a(lp1720
S'And'
p1721
aS'uh'
p1722
aaa(lp1723
g1625
a(lp1724
S'you'
p1725
aS'know'
p1726
aaa(lp1727
g1625
a(lp1728
S'it'
p1729
aS'was'
p1730
aS'just'
p1731
aS'like'
p1732
aaa(lp1733
g1625
a(lp1734
S'everybody'
p1735
aS'was'
p1736
aS'real'
p1737
aS'friendly'
p1738
aS'and'
p1739
aS'everything'
p1740
aaa(lp1741
S'FREDYeah'
p1742
a(lp1743
aa(lp1744
S'RICHARD'
p1745
a(lp1746
g7
aS'dont'
p1747
aS'know'
p1748
aS'if'
p1749
aS'the'
p1750
aS'parents'
p1751
aS'are'
p1752
aS'aware'
p1753
aaa(lp1754
g1745
a(lp1755
S'that'
p1756
aS'we'
p1757
aS'did'
p1758
aaa(lp1759
g1745
a(lp1760
S'you'
p1761
aS'know'
p1762
aaa(lp1763
S'FREDBreak'
p1764
a(lp1765
S'up'
p1766
aaa(lp1767
S'RICHARDseparate'
p1768
a(lp1769
aa(lp1770
g1768
a(lp1771
S'but'
p1772
aS'it'
p1773
aaa(lp1774
g1768
a(lp1775
S'possibly'
p1776
aS'was'
p1777
aS'for'
p1778
aS'the'
p1779
aS'better'
p1780
aaa(lp1781
g1768
a(lp1782
S'cause'
p1783
aS'they'
p1784
aaa(lp1785
g1768
a(lp1786
S'they'
p1787
aS'didnt'
p1788
aS'feel'
p1789
aS'comfortable'
p1790
aS'with'
p1791
aS'us'
p1792
aS'living'
p1793
aS'together'
p1794
aS'anyhow'
p1795
aaa(lp1796
S'FREDYeah'
p1797
a(lp1798
aa(lp1799
g1797
a(lp1800
S'right'
p1801
aaa(lp1802
g1797
a(lp1803
S'thats'
p1804
aS'not'
p1805
aS'looked'
p1806
aS'on'
p1807
aS'too'
p1808
aS'good'
p1809
aS'hunh'
p1810
aaa(lp1811
S'RICHARDNo'
p1812
a(lp1813
aa(lp1814
g1812
a(lp1815
S'So'
p1816
aaa(lp1817
g1812
a(lp1818
g397
aS'what'
p1819
aS'they'
p1820
aaa(lp1821
g1812
a(lp1822
S'what'
p1823
aS'they'
p1824
aS'probably'
p1825
aS'think'
p1826
aS'is'
p1827
aaa(lp1828
g1812
a(lp1829
S'you'
p1830
aS'know'
p1831
aaa(lp1832
g1812
a(lp1833
S'that'
p1834
aS'we'
p1835
aS'still'
p1836
aS'have'
p1837
ag28
aS'lot'
p1838
aS'of'
p1839
aS'love'
p1840
aS'for'
p1841
aS'each'
p1842
aS'other'
p1843
aaa(lp1844
g1812
a(lp1845
S'That'
p1846
aaa(lp1847
g1812
a(lp1848
S'moving'
p1849
aS'out'
p1850
aS'was'
p1851
aS'the'
p1852
aS'best'
p1853
aS'thing'
p1854
aaa(lp1855
S'FREDBut'
p1856
a(lp1857
S'sh'
p1858
aaa(lp1859
S'RICHARDuntil'
p1860
a(lp1861
S'we'
p1862
aS'both'
p1863
aS'are'
p1864
aS'ready'
p1865
aS'for'
p1866
aS'marriage'
p1867
aaa(lp1868
g1860
a(lp1869
S'and'
p1870
aS'if'
p1871
aS'she'
p1872
aS'still'
p1873
aS'loves'
p1874
aS'me'
p1875
aaa(lp1876
g1860
a(lp1877
S'and'
p1878
ag7
aS'still'
p1879
aS'love'
p1880
aS'her'
p1881
aaa(lp1882
g1860
a(lp1883
S'and'
p1884
aaa(lp1885
g1860
a(lp1886
S'we'
p1887
aS'wanna'
p1888
aS'get'
p1889
aS'married'
p1890
aaa(lp1891
g1860
a(lp1892
S'theres'
p1893
aS'still'
p1894
aS'the'
p1895
aS'chance'
p1896
aS'of'
p1897
aS'us'
p1898
aS'getting'
p1899
aS'back'
p1900
aS'together'
p1901
aaa(lp1902
g1860
a(lp1903
S'and'
p1904
aS'getting'
p1905
aS'married'
p1906
aS'this'
p1907
aS'time'
p1908
aaa(lp1909
S'FRED'
p1910
a(lp1911
S'Yeah'
p1912
aaa(lp1913
S'RICHARD'
p1914
a(lp1915
S'So'
p1916
ag7
aS'mean'
p1917
aS'it'
p1918
aaa(lp1919
g1914
a(lp1920
g7
aS'think'
p1921
aS'things'
p1922
aS'are'
p1923
aS'working'
p1924
aS'out'
p1925
aS'pretty'
p1926
aS'good'
p1927
aaa(lp1928
g1914
a(lp1929
S'She'
p1930
aS'called'
p1931
aS'me'
p1932
aS'the'
p1933
aS'other'
p1934
aS'day'
p1935
aS'and'
p1936
aS'uh'
p1937
aaa(lp1938
g1914
a(lp1939
S'you'
p1940
aS'know'
p1941
aaa(lp1942
g1914
a(lp1943
S'she'
p1944
aS'calls'
p1945
aS'me'
p1946
aS'and'
p1947
aS'talks'
p1948
aS'to'
p1949
aS'me'
p1950
aaa(lp1951
g1914
a(lp1952
S'and'
p1953
ag7
aS'call'
p1954
aS'her'
p1955
aS'and'
p1956
aS'ask'
p1957
aS'her'
p1958
aS'how'
p1959
aS'her'
p1960
aS'day'
p1961
aS'was'
p1962
aS'and'
p1963
aS'everything'
p1964
aaa(lp1965
S'FRED'
p1966
a(lp1967
S'Yeah'
p1968
aaa(lp1969
g1966
a(lp1970
S'What'
p1971
aaa(lp1972
g1966
a(lp1973
S'what'
p1974
aS'does'
p1975
aS'uh'
p1976
aaa(lp1977
g1966
a(lp1978
S'your'
p1979
aS'sisters'
p1980
aS'say'
p1981
aaa(lp1982
S'RICHARD'
p1983
a(lp1984
S'N'
p1985
aS'they'
p1986
aS'tell'
p1987
aS'me'
p1988
aS'to'
p1989
aS'stay'
p1990
aS'away'
p1991
aS'from'
p1992
aS'her'
p1993
aaa(lp1994
g1983
a(lp1995
S'dont'
p1996
aS'even'
p1997
aS'call'
p1998
aS'or'
p1999
aS'anything'
p2000
aaa(lp2001
S'FRED'
p2002
a(lp2003
S'Yeah'
p2004
aaa(lp2005
S'RICHARDWait'
p2006
a(lp2007
S'till'
p2008
aS'she'
p2009
aS'calls'
p2010
aS'you'
p2011
aS'and'
p2012
aS'everything'
p2013
aaa(lp2014
g2006
a(lp2015
S'But'
p2016
aaa(lp2017
g2006
a(lp2018
S'you'
p2019
aS'know'
p2020
aaa(lp2021
g2006
a(lp2022
S'thats'
p2023
aS'not'
p2024
aS'right'
p2025
aaa(lp2026
S'FRED'
p2027
a(lp2028
S'Yeah'
p2029
aaa(lp2030
g2027
a(lp2031
S'Thats'
p2032
aS'hard'
p2033
aS'man'
p2034
aaa(lp2035
S'RICHARDI'
p2036
a(lp2037
S'mean'
p2038
aaa(lp2039
g2036
a(lp2040
S'if'
p2041
aS'she'
p2042
aS'accepts'
p2043
aS'me'
p2044
aS'calling'
p2045
aS'her'
p2046
aaa(lp2047
g2036
a(lp2048
S'and'
p2049
aS'she'
p2050
aS'doesnt'
p2051
aS'tell'
p2052
aS'me'
p2053
aaa(lp2054
g2036
a(lp2055
S'VOX'
p2056
aS'dont'
p2057
aS'call'
p2058
aS'me'
p2059
aS'VOX'
p2060
aS'or'
p2061
aaa(lp2062
S'FRED'
p2063
a(lp2064
S'Theyre'
p2065
aS'telling'
p2066
aS'you'
p2067
aS'that'
p2068
aaa(lp2069
g2063
a(lp2070
S'why'
p2071
aaa(lp2072
g2063
a(lp2073
S'To'
p2074
aaa(lp2075
g2063
a(lp2076
S'like'
p2077
aS'uh'
p2078
aaa(lp2079
S'RICHARDCause'
p2080
a(lp2081
S'they'
p2082
aS'feel'
p2083
aS'that'
p2084
aaa(lp2085
g2080
a(lp2086
S'shes'
p2087
aS'gonna'
p2088
aS'get'
p2089
aS'too'
p2090
aS'strong'
p2091
aaa(lp2092
g2080
a(lp2093
S'by'
p2094
aS'me'
p2095
aaa(lp2096
g2080
a(lp2097
S'you'
p2098
aS'know'
p2099
aS'uh'
p2100
aaa(lp2101
g2080
a(lp2102
S'kissing'
p2103
aS'her'
p2104
aS'ass'
p2105
aaa(lp2106
S'FREDOh'
p2107
a(lp2108
aa(lp2109
S'RICHARDor'
p2110
a(lp2111
S'something'
p2112
aS'or'
p2113
aS'or'
p2114
aS'or'
p2115
aaa(lp2116
S'FREDExactly'
p2117
a(lp2118
aa(lp2119
S'RICHARDcrawling'
p2120
a(lp2121
S'back'
p2122
aaa(lp2123
S'FREDI'
p2124
a(lp2125
S'see'
p2126
aaa(lp2127
S'RICHARDand'
p2128
a(lp2129
S'begging'
p2130
aS'her'
p2131
aaa(lp2132
g2128
a(lp2133
S'you'
p2134
aS'know'
p2135
aaa(lp2136
S'FRED'
p2137
a(lp2138
aa(lp2139
S'RICHARDfor'
p2140
a(lp2141
S'me'
p2142
aS'to'
p2143
aS'come'
p2144
aS'back'
p2145
aS'or'
p2146
aaa(lp2147
S'FREDShe'
p2148
a(lp2149
S'gonna'
p2150
aS'get'
p2151
aS'the'
p2152
aS'upper'
p2153
aS'hand'
p2154
aaa(lp2155
S'RICHARD'
p2156
a(lp2157
S'Exactly'
p2158
aaa(lp2159
g2156
a(lp2160
S'Which'
p2161
aaa(lp2162
g2156
a(lp2163
S'which'
p2164
aaa(lp2165
g2156
a(lp2166
S'you'
p2167
aS'know'
p2168
aaa(lp2169
g2156
a(lp2170
S'she'
p2171
aS'probably'
p2172
aS'already'
p2173
aS'does'
p2174
aaa(lp2175
g2156
a(lp2176
S'But'
p2177
aaa(lp2178
g2156
a(lp2179
S'um'
p2180
aaa(lp2181
S'FREDYeah'
p2182
a(lp2183
aa(lp2184
S'RICHARD'
p2185
a(lp2186
S'Im'
p2187
aS'not'
p2188
aS'gonna'
p2189
aS'just'
p2190
aS'wait'
p2191
aS'for'
p2192
aS'her'
p2193
aS'to'
p2194
aS'call'
p2195
aS'me'
p2196
aaa(lp2197
g2185
a(lp2198
S'because'
p2199
aS'its'
p2200
aS'not'
p2201
aS'right'
p2202
aaa(lp2203
g2185
a(lp2204
g7
aS'have'
p2205
aS'feelings'
p2206
aS'for'
p2207
aS'her'
p2208
aaa(lp2209
g2185
a(lp2210
g7
aS'wanna'
p2211
aS'know'
p2212
aaa(lp2213
g2185
a(lp2214
S'you'
p2215
aS'know'
p2216
aaa(lp2217
g2185
a(lp2218
S'how'
p2219
aS'shes'
p2220
aS'doing'
p2221
aaa(lp2222
S'FREDdoing'
p2223
a(lp2224
aa(lp2225
S'RICHARDIm'
p2226
a(lp2227
S'gonna'
p2228
aS'communicate'
p2229
aS'with'
p2230
aS'her'
p2231
aaa(lp2232
g2226
a(lp2233
S'Thats'
p2234
aS'all'
p2235
aS'there'
p2236
aS'is'
p2237
aS'to'
p2238
aS'it'
p2239
aaa(lp2240
g2226
a(lp2241
S'Its'
p2242
aS'not'
p2243
aS'like'
p2244
ag7
ag397
aaa(lp2245
g2226
a(lp2246
S'Im'
p2247
aS'asking'
p2248
aS'her'
p2249
aaa(lp2250
g2226
a(lp2251
S'you'
p2252
aS'know'
p2253
aaa(lp2254
g2226
a(lp2255
S'let'
p2256
aS'me'
p2257
aS'move'
p2258
aS'back'
p2259
aS'in'
p2260
aS'or'
p2261
aaa(lp2262
g2226
a(lp2263
S'you'
p2264
aS'know'
p2265
aaa(lp2266
g2226
a(lp2267
S'Im'
p2268
aS'sorry'
p2269
ag7
aaa(lp2270
S'FREDYou'
p2271
a(lp2272
S'just'
p2273
aaa(lp2274
g2271
a(lp2275
S'Yeah'
p2276
aaa(lp2277
S'RICHARDI'
p2278
a(lp2279
S'just'
p2280
aS'wanna'
p2281
aS'remain'
p2282
aS'friends'
p2283
aS'with'
p2284
aS'her'
p2285
aaa(lp2286
g2278
a(lp2287
S'and'
p2288
aS'find'
p2289
aS'out'
p2290
aS'how'
p2291
aS'shes'
p2292
aS'doing'
p2293
aaa(lp2294
S'FRED'
p2295
a(lp2296
S'Yeah'
p2297
aaa(lp2298
S'RICHARD'
p2299
a(lp2300
S'So'
p2301
aS'they'
p2302
aaa(lp2303
g2299
a(lp2304
S'they'
p2305
aS'tell'
p2306
aaa(lp2307
g2299
a(lp2308
g7
aS'dont'
p2309
aS'tell'
p2310
aS'em'
p2311
ag7
aS'call'
p2312
aS'or'
p2313
aS'nothing'
p2314
aaa(lp2315
g2299
a(lp2316
S'You'
p2317
aS'know'
p2318
aaa(lp2319
g2299
a(lp2320
S'and'
p2321
aS'uh'
p2322
aaa(lp2323
g2299
a(lp2324
S'And'
p2325
ag7
aS'sent'
p2326
aS'her'
p2327
aS'flowers'
p2328
aS'last'
p2329
aS'week'
p2330
aaa(lp2331
g2299
a(lp2332
g7
aS'sent'
p2333
aS'her'
p2334
aS'flowers'
p2335
aS'to'
p2336
aS'work'
p2337
aaa(lp2338
S'FRED'
p2339
a(lp2340
S'Yeah'
p2341
aaa(lp2342
S'RICHARDThe'
p2343
a(lp2344
S'day'
p2345
aS'before'
p2346
ag7
aS'moved'
p2347
aS'out'
p2348
aaa(lp2349
S'FRED'
p2350
a(lp2351
aa(lp2352
S'RICHARDJust'
p2353
a(lp2354
S'to'
p2355
aS'tell'
p2356
aS'her'
p2357
ag7
aS'was'
p2358
aS'sorry'
p2359
aS'about'
p2360
aS'everything'
p2361
aS'that'
p2362
aS'had'
p2363
aS'happened'
p2364
aaa(lp2365
g2353
a(lp2366
S'and'
p2367
aS'that'
p2368
aS'uh'
p2369
aaa(lp2370
g2353
a(lp2371
S'you'
p2372
aS'know'
p2373
ag7
aS'hope'
p2374
aS'we'
p2375
aS'could'
p2376
aS'remain'
p2377
aS'friends'
p2378
aaa(lp2379
g2353
a(lp2380
S'and'
p2381
aS'that'
p2382
aS'God'
p2383
aS'brings'
p2384
aS'us'
p2385
aS'back'
p2386
aS'together'
p2387
aaa(lp2388
g2353
a(lp2389
S'if'
p2390
aS'it'
p2391
aS'was'
p2392
aS'meant'
p2393
aS'to'
p2394
aS'be'
p2395
aaa(lp2396
S'FRED'
p2397
a(lp2398
S'Yeah'
p2399
aaa(lp2400
S'RICHARD'
p2401
a(lp2402
S'And'
p2403
aS'she'
p2404
aS'was'
p2405
aS'real'
p2406
aS'happy'
p2407
aS'about'
p2408
aS'this'
p2409
aaa(lp2410
g2401
a(lp2411
S'She'
p2412
aS'said'
p2413
aS'that'
p2414
aS'really'
p2415
aS'meant'
p2416
ag28
aS'lot'
p2417
aS'to'
p2418
aS'me'
p2419
aaa(lp2420
g2401
a(lp2421
S'You'
p2422
aS'know'
p2423
aaa(lp2424
g2401
a(lp2425
S'That'
p2426
aS'you'
p2427
aS'did'
p2428
aS'send'
p2429
aS'me'
p2430
aS'flowers'
p2431
aaa(lp2432
g2401
a(lp2433
S'and'
p2434
aS'uh'
p2435
aaa(lp2436
S'FRED'
p2437
a(lp2438
S'And'
p2439
aS'then'
p2440
aaa(lp2441
g2437
a(lp2442
S'Then'
p2443
aS'the'
p2444
aaa(lp2445
g2437
a(lp2446
S'and'
p2447
aS'what'
p2448
aS'you'
p2449
aS'wrote'
p2450
aaa(lp2451
S'RICHARD'
p2452
a(lp2453
S'Yeah'
p2454
aaa(lp2455
g2452
a(lp2456
S'exactly'
p2457
aaa(lp2458
g2452
a(lp2459
S'Cause'
p2460
aS'she'
p2461
aS'knew'
p2462
aS'it'
p2463
aS'came'
p2464
aS'from'
p2465
aS'my'
p2466
aS'heart'
p2467
aaa(lp2468
g2452
a(lp2469
S'no'
p2470
aS'matter'
p2471
aS'what'
p2472
aaa(lp2473
g2452
a(lp2474
S'Id'
p2475
aS'put'
p2476
aS'her'
p2477
aS'through'
p2478
aS'and'
p2479
aS'everything'
p2480
aaa(lp2481
g2452
a(lp2482
S'she'
p2483
aS'knows'
p2484
aS'deep'
p2485
aS'down'
p2486
aS'inside'
p2487
aaa(lp2488
g2452
a(lp2489
g7
aS'really'
p2490
aS'did'
p2491
aS'love'
p2492
aS'her'
p2493
aaa(lp2494
g2452
a(lp2495
S'but'
p2496
ag7
aS'had'
p2497
ag28
aS'problem'
p2498
aS'or'
p2499
aS'something'
p2500
aaa(lp2501
S'FRED'
p2502
a(lp2503
S'Yeah'
p2504
aaa(lp2505
g2502
a(lp2506
S'You'
p2507
aS'had'
p2508
aS'to'
p2509
aS'get'
p2510
aS'something'
p2511
aS'out'
p2512
aS'of'
p2513
aS'your'
p2514
aS'system'
p2515
aaa(lp2516
S'RICHARDX'
p2517
a(lp2518
S'And'
p2519
ag1142
aaa(lp2520
g2517
a(lp2521
S'Yeah'
p2522
aaa(lp2523
g2517
a(lp2524
S'But'
p2525
ag7
aS'dont'
p2526
aS'even'
p2527
aS'know'
p2528
aS'what'
p2529
aS'it'
p2530
aS'is'
p2531
aS'in'
p2532
aS'fact'
p2533
aaa(lp2534
g2517
a(lp2535
g7
aS'might'
p2536
aS'have'
p2537
aS'to'
p2538
aS'go'
p2539
aS'to'
p2540
aS'therapy'
p2541
aS'or'
p2542
aS'something'
p2543
aaa(lp2544
g2517
a(lp2545
S'to'
p2546
aS'find'
p2547
aS'out'
p2548
aaa(lp2549
S'FRED'
p2550
a(lp2551
aa(lp2552
S'RICHARDBecause'
p2553
a(lp2554
S'theres'
p2555
aS'no'
p2556
aaa(lp2557
g2553
a(lp2558
S'Theres'
p2559
aS'no'
p2560
aS'way'
p2561
ag7
aaa(lp2562
g2553
a(lp2563
g7
aS'should'
p2564
aaa(lp2565
S'FRED'
p2566
a(lp2567
aa(lp2568
S'RICHARD'
p2569
a(lp2570
S'you'
p2571
aS'know'
p2572
aaa(lp2573
S'FRED'
p2574
a(lp2575
S'You'
p2576
aS'should'
p2577
aS'be'
p2578
aS'like'
p2579
aS'this'
p2580
aaa(lp2581
S'RICHARDExactly'
p2582
a(lp2583
aa(lp2584
S'FRED'
p2585
a(lp2586
aa(lp2587
S'RICHARDI'
p2588
a(lp2589
S'mean'
p2590
aS'an'
p2591
aaa(lp2592
g2588
a(lp2593
S'People'
p2594
aS'say'
p2595
aS'you'
p2596
aaa(lp2597
S'FREDX'
p2598
a(lp2599
aa(lp2600
S'RICHARDyou'
p2601
a(lp2602
S'act'
p2603
aS'out'
p2604
aS'of'
p2605
aS'uh'
p2606
aaa(lp2607
g2601
a(lp2608
S'its'
p2609
aS'okay'
p2610
aaa(lp2611
g2601
a(lp2612
S'most'
p2613
aS'men'
p2614
aS'do'
p2615
aS'look'
p2616
aS'at'
p2617
aS'other'
p2618
aS'women'
p2619
aaa(lp2620
g2601
a(lp2621
S'and'
p2622
aS'uh'
p2623
aaa(lp2624
g2601
a(lp2625
S'you'
p2626
aS'know'
p2627
aaa(lp2628
g2601
a(lp2629
S'things'
p2630
aS'go'
p2631
aS'through'
p2632
aS'their'
p2633
aS'mind'
p2634
aS'and'
p2635
aS'everything'
p2636
aaa(lp2637
g2601
a(lp2638
S'but'
p2639
aS'that'
p2640
aS'Im'
p2641
aS'impulsive'
p2642
aaa(lp2643
g2601
a(lp2644
S'Id'
p2645
aS'act'
p2646
aS'on'
p2647
aS'my'
p2648
aS'impulse'
p2649
aaa(lp2650
S'FRED'
p2651
a(lp2652
S'Yeah'
p2653
aaa(lp2654
S'RICHARDLike'
p2655
a(lp2656
S'Id'
p2657
aS'see'
p2658
aS'something'
p2659
aaa(lp2660
g2655
a(lp2661
S'Id'
p2662
aS'want'
p2663
aS'it'
p2664
aaa(lp2665
g2655
a(lp2666
S'and'
p2667
aS'Id'
p2668
aS'go'
p2669
aS'after'
p2670
aS'her'
p2671
aaa(lp2672
g2655
a(lp2673
S'where'
p2674
ag7
aaa(lp2675
g2655
a(lp2676
g397
ag7
aS'had'
p2677
ag28
aS'beautiful'
p2678
aS'woman'
p2679
aaa(lp2680
g2655
a(lp2681
g7
aS'shouldnt'
p2682
aS'have'
p2683
aS'thought'
p2684
aS'like'
p2685
aS'that'
p2686
aS'at'
p2687
aS'all'
p2688
aaa(lp2689
S'FRED'
p2690
a(lp2691
S'Yeah'
p2692
aaa(lp2693
S'RICHARD'
p2694
a(lp2695
S'This'
p2696
aS'what'
p2697
ag28
aS'lady'
p2698
aS'told'
p2699
aS'me'
p2700
aS'that'
p2701
aaa(lp2702
g2694
a(lp2703
S'that'
p2704
aS'was'
p2705
ag28
aS'therapist'
p2706
aaa(lp2707
g2694
a(lp2708
S'She'
p2709
aS'said'
p2710
aS'she'
p2711
aS'was'
p2712
aS'gonna'
p2713
aS'get'
p2714
aS'me'
p2715
aS'somebody'
p2716
aS'to'
p2717
aS'go'
p2718
aS'talk'
p2719
aS'to'
p2720
aS'and'
p2721
aS'everything'
p2722
aaa(lp2723
g2694
a(lp2724
S'She'
p2725
aS'said'
p2726
aS'it'
p2727
aS'po'
p2728
aaa(lp2729
g2694
a(lp2730
S'Ma'
p2731
aaa(lp2732
g2694
a(lp2733
S'possibily'
p2734
aS'was'
p2735
ag7
aS'was'
p2736
aS'uh'
p2737
aaa(lp2738
g2694
a(lp2739
S'not'
p2740
aS'satisfied'
p2741
aS'with'
p2742
aS'myself'
p2743
aaa(lp2744
g2694
a(lp2745
g7
aS'wasnt'
p2746
aS'happy'
p2747
aS'with'
p2748
aS'myself'
p2749
aS'for'
p2750
aS'some'
p2751
aS'reason'
p2752
aaa(lp2753
g2694
a(lp2754
S'and'
p2755
aS'that'
p2756
ag7
aS'just'
p2757
aS'acted'
p2758
aS'out'
p2759
aS'of'
p2760
aS'impulse'
p2761
aaa(lp2762
S'FRED'
p2763
a(lp2764
S'Yeah'
p2765
aaa(lp2766
S'RICHARD'
p2767
a(lp2768
aa(lp2769
S'FRED'
p2770
a(lp2771
S'Wow'
p2772
aaa(lp2773
S'RICHARD'
p2774
a(lp2775
S'So'
p2776
aaa(lp2777
g2774
a(lp2778
g7
aS'dont'
p2779
aS'know'
p2780
aaa(lp2781
g2774
a(lp2782
S'i'
p2783
aS'it'
p2784
aS'is'
p2785
ag28
aS'problem'
p2786
aaa(lp2787
g2774
a(lp2788
S'because'
p2789
ag7
aaa(lp2790
g2774
a(lp2791
g7
ag7
aS'did'
p2792
aS'have'
p2793
ag28
aS'nice'
p2794
aS'old'
p2795
aS'lady'
p2796
aS'and'
p2797
aS'um'
p2798
aaa(lp2799
g2774
a(lp2800
S'Kind'
p2801
aS'of'
p2802
aS'miss'
p2803
aS'her'
p2804
aS'and'
p2805
aS'everything'
p2806
aaa(lp2807
S'FREDX'
p2808
a(lp2809
aa(lp2810
S'RICHARDIts'
p2811
a(lp2812
S'lonely'
p2813
aS'coming'
p2814
aS'home'
p2815
aS'after'
p2816
aS'putting'
p2817
aS'in'
p2818
aS't'
p2819
aS'twelve'
p2820
aS'hours'
p2821
aS'on'
p2822
aS'the'
p2823
aS'lot'
p2824
aaa(lp2825
g2811
a(lp2826
S'And'
p2827
aS'working'
p2828
aS'all'
p2829
aS'day'
p2830
aS'and'
p2831
aaa(lp2832
g2811
a(lp2833
S'you'
p2834
aS'know'
p2835
aaa(lp2836
g2811
a(lp2837
S'working'
p2838
aS'all'
p2839
aS'evening'
p2840
aaa(lp2841
g2811
a(lp2842
S'and'
p2843
aS'then'
p2844
aS'you'
p2845
aS'dont'
p2846
aS'have'
p2847
aS'any'
p2848
aS'body'
p2849
aS'to'
p2850
aS'come'
p2851
aS'home'
p2852
aS'and'
p2853
aS'share'
p2854
aS'it'
p2855
aS'with'
p2856
aaa(lp2857
S'FRED'
p2858
a(lp2859
S'Yeah'
p2860
aaa(lp2861
g2858
a(lp2862
S'Y'
p2863
aS'are'
p2864
ag374
aaa(lp2865
g2858
a(lp2866
S'Are'
p2867
aS'you'
p2868
aS'working'
p2869
aS'twelve'
p2870
aS'hours'
p2871
aaa(lp2872
g2858
a(lp2873
S'Youre'
p2874
aS'gonna'
p2875
aS'be'
p2876
aaa(lp2877
S'RICHARDYeah'
p2878
a(lp2879
aa(lp2880
S'FREDYoure'
p2881
a(lp2882
S'gonna'
p2883
aS'be'
p2884
aS'doing'
p2885
aS'that'
p2886
aaa(lp2887
S'RICHARDYeah'
p2888
a(lp2889
aa(lp2890
S'FRED'
p2891
a(lp2892
S'Nine'
p2893
aS'to'
p2894
aS'nine'
p2895
aaa(lp2896
S'RICHARDDefinitely'
p2897
a(lp2898
aa(lp2899
g2897
a(lp2900
S'Nine'
p2901
aS'to'
p2902
aS'nine'
p2903
aaa(lp2904
g2897
a(lp2905
g1142
aS'Well'
p2906
ag7
aS'mean'
p2907
ag1142
aaa(lp2908
g2897
a(lp2909
S'If'
p2910
ag7
aS'want'
p2911
aaa(lp2912
g2897
a(lp2913
S'Thats'
p2914
ag28
aaa(lp2915
g2897
a(lp2916
S'Thats'
p2917
aS'up'
p2918
aS'to'
p2919
aS'me'
p2920
aaa(lp2921
S'FREDYeah'
p2922
a(lp2923
aa(lp2924
S'RICHARDBasically'
p2925
a(lp2926
aa(lp2927
g2925
a(lp2928
S'you'
p2929
aS'know'
p2930
aaa(lp2931
g2925
a(lp2932
S'theyre'
p2933
aS'gonna'
p2934
aS'give'
p2935
aS'us'
p2936
ag28
aS'shift'
p2937
aaa(lp2938
g2925
a(lp2939
S'Either'
p2940
aaa(lp2941
g2925
a(lp2942
S'nine'
p2943
aS'in'
p2944
aS'the'
p2945
aS'morning'
p2946
aaa(lp2947
g2925
a(lp2948
S'to'
p2949
aS'three'
p2950
aS'in'
p2951
aS'the'
p2952
aS'afternoon'
p2953
aaa(lp2954
g2925
a(lp2955
S'or'
p2956
aaa(lp2957
g2925
a(lp2958
S'or'
p2959
aS'th'
p2960
aaa(lp2961
g2925
a(lp2962
S'two'
p2963
aS'in'
p2964
aS'the'
p2965
aS'afternoon'
p2966
aaa(lp2967
g2925
a(lp2968
S'to'
p2969
aS'nine'
p2970
aS'in'
p2971
aS'the'
p2972
aS'evening'
p2973
aaa(lp2974
g2925
a(lp2975
S'See'
p2976
aaa(lp2977
S'FREDUnhunh'
p2978
a(lp2979
aa(lp2980
S'RICHARD'
p2981
a(lp2982
S'So'
p2983
aS'if'
p2984
ag7
aS'wanted'
p2985
aS'to'
p2986
aS'come'
p2987
aS'in'
p2988
aS'before'
p2989
aS'two'
p2990
aaa(lp2991
g2981
a(lp2992
S'if'
p2993
ag7
aS'was'
p2994
aS'on'
p2995
aS'the'
p2996
aaa(lp2997
g2981
a(lp2998
S'the'
p2999
aS'evening'
p3000
aS'shift'
p3001
aaa(lp3002
g2981
a(lp3003
g7
aS'would'
p3004
aS'come'
p3005
aS'in'
p3006
aS'at'
p3007
aS'nine'
p3008
aaa(lp3009
g2981
a(lp3010
S'and'
p3011
aS'work'
p3012
aS'nine'
p3013
aS'to'
p3014
aS'nine'
p3015
aaa(lp3016
g2981
a(lp3017
S'If'
p3018
ag7
aS'was'
p3019
aS'on'
p3020
aS'the'
p3021
aS'evening'
p3022
aS'shift'
p3023
aaa(lp3024
g2981
a(lp3025
S'from'
p3026
aS'two'
p3027
aS'to'
p3028
aS'nine'
p3029
aaa(lp3030
g2981
a(lp3031
g7
aS'could'
p3032
aS'come'
p3033
aS'in'
p3034
aS'and'
p3035
aS'work'
p3036
aS'from'
p3037
aS'nine'
p3038
aS'to'
p3039
aS'nine'
p3040
aaa(lp3041
S'FRED'
p3042
a(lp3043
S'So'
p3044
aaa(lp3045
g3042
a(lp3046
S'um'
p3047
aaa(lp3048
g3042
a(lp3049
S'when'
p3050
aS'you'
p3051
aS'went'
p3052
aS'last'
p3053
aS'week'
p3054
aaa(lp3055
g3042
a(lp3056
S'and'
p3057
aS'you'
p3058
aS'applied'
p3059
aS'right'
p3060
aaa(lp3061
S'RICHARD'
p3062
a(lp3063
S'Mhm'
p3064
aaa(lp3065
S'FREDthey'
p3066
a(lp3067
aa(lp3068
g3066
a(lp3069
S'they'
p3070
aS'hired'
p3071
aS'you'
p3072
aaa(lp3073
S'RICHARD'
p3074
a(lp3075
S'Right'
p3076
aS'on'
p3077
aS'the'
p3078
aS'spot'
p3079
aaa(lp3080
S'FRED'
p3081
a(lp3082
S'Right'
p3083
aS'on'
p3084
aS'the'
p3085
aS'spot'
p3086
aaa(lp3087
S'RICHARDHe'
p3088
a(lp3089
S'gave'
p3090
aS'me'
p3091
aS'interview'
p3092
aaa(lp3093
g3088
a(lp3094
S'he'
p3095
aS'talked'
p3096
aS'to'
p3097
aS'me'
p3098
aaa(lp3099
g3088
a(lp3100
S'told'
p3101
aS'me'
p3102
aS'why'
p3103
ag7
aS'wanted'
p3104
aS'to'
p3105
aS'get'
p3106
aS'into'
p3107
aS'sales'
p3108
aaa(lp3109
g3088
a(lp3110
S'and'
p3111
aS'if'
p3112
aaa(lp3113
g3088
a(lp3114
S'if'
p3115
ag7
aS'felt'
p3116
ag7
aS'could'
p3117
aS'sell'
p3118
aaa(lp3119
g3088
a(lp3120
S'if'
p3121
ag7
aS'had'
p3122
aS'any'
p3123
aS'experience'
p3124
aaa(lp3125
g3088
a(lp3126
S'and'
p3127
aS'everything'
p3128
aS'and'
p3129
aaa(lp3130
S'FRED'
p3131
a(lp3132
S'You'
p3133
aS'told'
p3134
aS'him'
p3135
aS'about'
p3136
aS'all'
p3137
aS'the'
p3138
aS'cars'
p3139
aaa(lp3140
g3131
a(lp3141
S'that'
p3142
aS'you'
p3143
aS'had'
p3144
aS'owned'
p3145
aS'and'
p3146
aS'sold'
p3147
aaa(lp3148
S'RICHARDYeah'
p3149
a(lp3150
aa(lp3151
g3149
a(lp3152
g7
aS'told'
p3153
aS'him'
p3154
aS'that'
p3155
ag7
aS'had'
p3156
aS'done'
p3157
aaa(lp3158
S'FRED'
p3159
a(lp3160
S'C'
p3161
ag374
aS'sh'
p3162
aS'you'
p3163
aS'sh'
p3164
aaa(lp3165
S'RICHARDso'
p3166
a(lp3167
S'sold'
p3168
aS'cars'
p3169
aS'all'
p3170
aS'through'
p3171
aS'my'
p3172
aS'early'
p3173
aS'years'
p3174
aaa(lp3175
g3166
a(lp3176
S'but'
p3177
aS'it'
p3178
aS'was'
p3179
aS'private'
p3180
aS'party'
p3181
aaa(lp3182
S'FREDf'
p3183
a(lp3184
S'uh'
p3185
aS'youve'
p3186
aS'had'
p3187
aS'you'
p3188
aaa(lp3189
g3183
a(lp3190
S'Youve'
p3191
aS'had'
p3192
aS'about'
p3193
aaa(lp3194
g3183
a(lp3195
S'like'
p3196
aS'thirty'
p3197
aS'cars'
p3198
aaa(lp3199
S'RICHARD'
p3200
a(lp3201
S'At'
p3202
aS'least'
p3203
aaa(lp3204
S'FREDhunh'
p3205
a(lp3206
aa(lp3207
S'RICHARDyeah'
p3208
a(lp3209
aa(lp3210
g3208
a(lp3211
S'At'
p3212
aS'least'
p3213
aaa(lp3214
S'FREDAt'
p3215
a(lp3216
S'least'
p3217
aS'thirty'
p3218
aS'cars'
p3219
aaa(lp3220
S'RICHARD'
p3221
a(lp3222
S'So'
p3223
ag7
aS'have'
p3224
aS'some'
p3225
aS'type'
p3226
aS'of'
p3227
aS'experience'
p3228
aS'selling'
p3229
aaa(lp3230
g3221
a(lp3231
S'dealing'
p3232
aS'with'
p3233
aS'people'
p3234
aaa(lp3235
S'FREDYou'
p3236
a(lp3237
S'know'
p3238
aS'about'
p3239
aS'cars'
p3240
aaa(lp3241
S'RICHARDhandling'
p3242
a(lp3243
S'the'
p3244
aS'money'
p3245
aaa(lp3246
g3242
a(lp3247
S'and'
p3248
aS'uh'
p3249
aaa(lp3250
g3242
a(lp3251
S'the'
p3252
aS'only'
p3253
aS'thing'
p3254
aS'it'
p3255
aS'is'
p3256
aaa(lp3257
g3242
a(lp3258
S'th'
p3259
ag7
aS'have'
p3260
aS'to'
p3261
aS'work'
p3262
aS'on'
p3263
aaa(lp3264
g3242
a(lp3265
S'is'
p3266
aS'doing'
p3267
aS'the'
p3268
aS'paperwork'
p3269
aaa(lp3270
g3242
a(lp3271
S'Is'
p3272
aS'uh'
p3273
aaa(lp3274
g3242
a(lp3275
S'filling'
p3276
aS'out'
p3277
ag28
aS'contract'
p3278
aaa(lp3279
g3242
a(lp3280
S'and'
p3281
aS'uh'
p3282
aaa(lp3283
g3242
a(lp3284
S'basically'
p3285
aS'paperwork'
p3286
aaa(lp3287
g3242
a(lp3288
S'which'
p3289
aS'is'
p3290
ag1504
aS'very'
p3291
aS'simple'
p3292
aaa(lp3293
g3242
a(lp3294
S'That'
p3295
aaa(lp3296
g3242
a(lp3297
S'you'
p3298
aS'know'
p3299
aaa(lp3300
g3242
a(lp3301
S'once'
p3302
aS'it'
p3303
aS'comes'
p3304
aS'along'
p3305
aS'with'
p3306
aS'experience'
p3307
aaa(lp3308
g3242
a(lp3309
S'and'
p3310
aS'the'
p3311
aS'more'
p3312
aS'people'
p3313
ag7
aS'work'
p3314
aS'with'
p3315
aaa(lp3316
g3242
a(lp3317
S'the'
p3318
aS'easier'
p3319
aS'it'
p3320
aS'will'
p3321
aaa(lp3322
g3242
a(lp3323
S'itll'
p3324
aS'be'
p3325
aaa(lp3326
g3242
a(lp3327
S'thats'
p3328
aS'the'
p3329
aS'most'
p3330
aS'important'
p3331
aS'thing'
p3332
aS'and'
p3333
aaa(lp3334
g3242
a(lp3335
S'and'
p3336
aS'selling'
p3337
aS'them'
p3338
aS'the'
p3339
aS'car'
p3340
aaa(lp3341
g3242
a(lp3342
S'talking'
p3343
aS'to'
p3344
aS'somebody'
p3345
aS'in'
p3346
aaa(lp3347
g3242
a(lp3348
S'to'
p3349
aS'buying'
p3350
ag28
aS'car'
p3351
aaa(lp3352
g3242
a(lp3353
S'that'
p3354
aS'doesnt'
p3355
aS'wanna'
p3356
aS'buy'
p3357
aaa(lp3358
g3242
a(lp3359
S'Tha'
p3360
aS'thats'
p3361
aS'there'
p3362
aS'to'
p3363
aS'look'
p3364
aaa(lp3365
S'FRED'
p3366
a(lp3367
S'Yeah'
p3368
aaa(lp3369
S'RICHARD'
p3370
a(lp3371
S'But'
p3372
aS'yet'
p3373
aaa(lp3374
g3370
a(lp3375
S'wouldnt'
p3376
aS'mind'
p3377
aS'owning'
p3378
ag28
aS'new'
p3379
aS'car'
p3380
aaa(lp3381
S'FRED'
p3382
a(lp3383
S'Thats'
p3384
aS'right'
p3385
aaa(lp3386
S'RICHARD'
p3387
a(lp3388
S'And'
p3389
aS'youve'
p3390
aS'gotta'
p3391
aS'talk'
p3392
aS'em'
p3393
aS'into'
p3394
aS'it'
p3395
aaa(lp3396
g3387
a(lp3397
S'you'
p3398
aS'gotta'
p3399
aS'sell'
p3400
aS'it'
p3401
aS'to'
p3402
aS'em'
p3403
aaa(lp3404
g3387
a(lp3405
S'You'
p3406
aS'know'
p3407
aaa(lp3408
g3387
a(lp3409
S'You'
p3410
aS'gotta'
p3411
aS'em'
p3412
aS'in'
p3413
aS'your'
p3414
aS'office'
p3415
aaa(lp3416
g3387
a(lp3417
S'and'
p3418
aS'you'
p3419
aS'gotta'
p3420
aS'sell'
p3421
aS'that'
p3422
aS'car'
p3423
aS'to'
p3424
aS'em'
p3425
aaa(lp3426
g3387
a(lp3427
S'You'
p3428
aS'cant'
p3429
aS'let'
p3430
aS'em'
p3431
aS'leave'
p3432
aS'without'
p3433
aS'that'
p3434
aS'sale'
p3435
aaa(lp3436
g3387
a(lp3437
S'Otherwise'
p3438
aaa(lp3439
g3387
a(lp3440
S'theyre'
p3441
aS'gonna'
p3442
aS'go'
p3443
aS'elsewhere'
p3444
aaa(lp3445
S'FRED'
p3446
a(lp3447
S'Right'
p3448
aaa(lp3449
S'RICHARD'
p3450
a(lp3451
S'If'
p3452
aS'they'
p3453
aS'believe'
p3454
aS'you'
p3455
aaa(lp3456
g3450
a(lp3457
S'and'
p3458
aS'you'
p3459
aS'can'
p3460
aS'sell'
p3461
aS'em'
p3462
aaa(lp3463
S'FRED'
p3464
a(lp3465
S'You'
p3466
aS'need'
p3467
aS'this'
p3468
aS'car'
p3469
aaa(lp3470
S'RICHARDyou'
p3471
a(lp3472
S'gonna'
p3473
aS'make'
p3474
ag28
aS'lot'
p3475
aS'of'
p3476
aS'money'
p3477
aaa(lp3478
S'FREDyou'
p3479
a(lp3480
S'want'
p3481
aS'this'
p3482
aS'car'
p3483
aaa(lp3484
S'RICHARD'
p3485
a(lp3486
S'Definetely'
p3487
aaa(lp3488
S'FREDtake'
p3489
a(lp3490
S'it'
p3491
aS'with'
p3492
aS'you'
p3493
aaa(lp3494
S'RICHARDWhat'
p3495
a(lp3496
S'can'
p3497
ag7
aS'do'
p3498
aS'for'
p3499
aS'you'
p3500
aaa(lp3501
S'FRED'
p3502
a(lp3503
aa(lp3504
S'RICHARDin'
p3505
a(lp3506
S'order'
p3507
aS'for'
p3508
aS'you'
p3509
aS'to'
p3510
aS'buy'
p3511
aS'this'
p3512
aS'car'
p3513
aaa(lp3514
g3505
a(lp3515
g7
aS'mean'
p3516
aS'if'
p3517
aaa(lp3518
g3505
a(lp3519
S'is'
p3520
aS'the'
p3521
aS'price'
p3522
aS'too'
p3523
aS'much'
p3524
aaa(lp3525
g3505
a(lp3526
g7
aS'could'
p3527
aS'work'
p3528
aS'on'
p3529
aS'the'
p3530
aS'price'
p3531
aaa(lp3532
g3505
a(lp3533
S'Let'
p3534
aS'me'
p3535
aS'go'
p3536
aS'talk'
p3537
aS'to'
p3538
aS'my'
p3539
aS'manager'
p3540
aaa(lp3541
g3505
a(lp3542
S'Maybe'
p3543
ag7
aS'could'
p3544
aS'drop'
p3545
aS'it'
p3546
aS'five'
p3547
aS'sixhundred'
p3548
aS'dollars'
p3549
aaa(lp3550
g3505
a(lp3551
S'Maybe'
p3552
aS'we'
p3553
aS'have'
p3554
ag28
aS'threehundred'
p3555
aS'rebate'
p3556
aS'that'
p3557
aS'you'
p3558
aS'could'
p3559
aS'use'
p3560
aS'towards'
p3561
aS'the'
p3562
aS'down'
p3563
aS'payment'
p3564
aaa(lp3565
g3505
a(lp3566
S'W'
p3567
aS'maybe'
p3568
aS'its'
p3569
aS'its'
p3570
aS'three'
p3571
aS'point'
p3572
aS'nine'
p3573
aS'financing'
p3574
aaa(lp3575
g3505
a(lp3576
S'thatll'
p3577
aS'save'
p3578
aS'you'
p3579
aS'money'
p3580
aS'in'
p3581
aS'the'
p3582
aS'long'
p3583
aS'run'
p3584
aS'uh'
p3585
aaa(lp3586
g3505
a(lp3587
S'if'
p3588
aS'you'
p3589
aS'finance'
p3590
aS'fifteen'
p3591
aS'or'
p3592
aS'sixteen'
p3593
aS'thousand'
p3594
aS'dollars'
p3595
aaa(lp3596
g3505
a(lp3597
S'So'
p3598
aaa(lp3599
S'FRED'
p3600
a(lp3601
aa(lp3602
S'RICHARDyou'
p3603
a(lp3604
S'know'
p3605
aaa(lp3606
g3603
a(lp3607
S'its'
p3608
aS'just'
p3609
aaa(lp3610
g3603
a(lp3611
S'its'
p3612
aS'uh'
p3613
aaa(lp3614
g3603
a(lp3615
S'its'
p3616
aS'like'
p3617
ag28
aS'game'
p3618
aaa(lp3619
g3603
a(lp3620
S'You'
p3621
aS'know'
p3622
aaa(lp3623
S'FRED'
p3624
a(lp3625
S'Yeah'
p3626
aaa(lp3627
g3624
a(lp3628
S'So'
p3629
aS'homes'
p3630
aaa(lp3631
g3624
a(lp3632
S'Uh'
p3633
aaa(lp3634
g3624
a(lp3635
S'they'
p3636
aaa(lp3637
g3624
a(lp3638
S'they'
p3639
aS'put'
p3640
aS'you'
p3641
aS'through'
p3642
aS'training'
p3643
aS'all'
p3644
aS'these'
p3645
aS'days'
p3646
aaa(lp3647
g3624
a(lp3648
S'Is'
p3649
aS'that'
p3650
aS'it'
p3651
aaa(lp3652
S'RICHARDYeah'
p3653
a(lp3654
aa(lp3655
g3653
a(lp3656
S'five'
p3657
aS'days'
p3658
ag7
aS'watched'
p3659
aS'uh'
p3660
aaa(lp3661
g3653
a(lp3662
S'videotapes'
p3663
aS'dealing'
p3664
aS'with'
p3665
aS'this'
p3666
aS'guy'
p3667
aS'that'
p3668
aaa(lp3669
g3653
a(lp3670
S'that'
p3671
aaa(lp3672
g3653
a(lp3673
S'that'
p3674
aS'sold'
p3675
aS'cars'
p3676
aaa(lp3677
g3653
a(lp3678
S'and'
p3679
aS'made'
p3680
ag28
aS'hundred'
p3681
aS'thous'
p3682
aaa(lp3683
g3653
a(lp3684
S'His'
p3685
aS'goal'
p3686
aS'was'
p3687
aS'to'
p3688
aS'make'
p3689
ag28
aS'hundred'
p3690
aS'thousand'
p3691
aS'dollars'
p3692
aS'every'
p3693
aS'year'
p3694
aS'selling'
p3695
aS'cars'
p3696
aaa(lp3697
g3653
a(lp3698
S'And'
p3699
aS'he'
p3700
aS'accomplished'
p3701
aS'his'
p3702
aS'goal'
p3703
aaa(lp3704
g3653
a(lp3705
S'Every'
p3706
aS'year'
p3707
aS'he'
p3708
aS'sold'
p3709
ag28
aS'hundred'
p3710
aS'thousand'
p3711
aS'dollars'
p3712
aaa(lp3713
g3653
a(lp3714
S'and'
p3715
aS'he'
p3716
aS'retired'
p3717
aaa(lp3718
S'FREDOh'
p3719
a(lp3720
S'my'
p3721
aS'god'
p3722
aaa(lp3723
S'RICHARDat'
p3724
a(lp3725
S'thirtyfive'
p3726
aS'after'
p3727
aaa(lp3728
g3724
a(lp3729
S'certain'
p3730
aS'amount'
p3731
aS'of'
p3732
aS'years'
p3733
aS'selling'
p3734
aS'and'
p3735
aS'uh'
p3736
aaa(lp3737
g3724
a(lp3738
S'he'
p3739
aS'just'
p3740
aS'got'
p3741
aS'into'
p3742
aaa(lp3743
g3724
a(lp3744
S'making'
p3745
aS'uh'
p3746
aaa(lp3747
g3724
a(lp3748
S'audio'
p3749
aS'cassettes'
p3750
aaa(lp3751
g3724
a(lp3752
S'In'
p3753
aS'sales'
p3754
aaa(lp3755
g3724
a(lp3756
S'To'
p3757
aS'motivati'
p3758
aaa(lp3759
g3724
a(lp3760
S'Motivation'
p3761
ag776
aS'uh'
p3762
aS'tapes'
p3763
aaa(lp3764
S'FREDOh'
p3765
a(lp3766
g7
aS'see'
p3767
aaa(lp3768
S'RICHARDand'
p3769
a(lp3770
S'uh'
p3771
aaa(lp3772
S'FREDA'
p3773
a(lp3774
S'system'
p3775
aaa(lp3776
g3773
a(lp3777
S'To'
p3778
aS'sell'
p3779
aaa(lp3780
S'RICHARDExactly'
p3781
a(lp3782
aa(lp3783
g3781
a(lp3784
S'Books'
p3785
aaa(lp3786
g3781
a(lp3787
S'seminars'
p3788
aaa(lp3789
g3781
a(lp3790
S'um'
p3791
aaa(lp3792
S'FREDYeah'
p3793
a(lp3794
aa(lp3795
S'RICHARD'
p3796
a(lp3797
S'video'
p3798
aS'tapes'
p3799
aaa(lp3800
S'FREDHundred'
p3801
a(lp3802
S'thousand'
p3803
ag28
aS'year'
p3804
aaa(lp3805
g3801
a(lp3806
S'That'
p3807
aS'guy'
p3808
aS'mustve'
p3809
aS'hustled'
p3810
aaa(lp3811
S'RICHARDYeah'
p3812
a(lp3813
aa(lp3814
g3812
a(lp3815
S'well'
p3816
aaa(lp3817
g3812
a(lp3818
S'its'
p3819
aS'possible'
p3820
aaa(lp3821
g3812
a(lp3822
S'You'
p3823
aS'figure'
p3824
aaa(lp3825
g3812
a(lp3826
S'you'
p3827
aS'could'
p3828
aS'sell'
p3829
aaa(lp3830
g3812
a(lp3831
S'at'
p3832
aS'least'
p3833
aS'twenty'
p3834
aS'cars'
p3835
ag28
aS'month'
p3836
aaa(lp3837
g3812
a(lp3838
S'every'
p3839
aS'month'
p3840
aS'for'
p3841
aS'twelve'
p3842
aS'months'
p3843
aaa(lp3844
g3812
a(lp3845
S'you'
p3846
aS'know'
p3847
aS'youre'
p3848
aS'gonna'
p3849
aS'be'
p3850
aS'up'
p3851
aS'there'
p3852
aS'in'
p3853
aaa(lp3854
g3812
a(lp3855
g1504
aS'seventy'
p3856
aS'eighty'
p3857
aS'thousand'
p3858
aS'dollar'
p3859
aS'bracket'
p3860
aaa(lp3861
S'FRED'
p3862
a(lp3863
S'Twenty'
p3864
aS'cars'
p3865
aS'in'
p3866
ag28
aS'month'
p3867
aaa(lp3868
g3862
a(lp3869
S'Thats'
p3870
aS'almost'
p3871
ag28
aS'car'
p3872
ag28
aS'day'
p3873
aaa(lp3874
S'RICHARD'
p3875
a(lp3876
S'Exactly'
p3877
aaa(lp3878
g3875
a(lp3879
S'Which'
p3880
aS'isnt'
p3881
aS'difficult'
p3882
aaa(lp3883
S'FREDX'
p3884
a(lp3885
aa(lp3886
S'RICHARDIf'
p3887
a(lp3888
S'youre'
p3889
aS'on'
p3890
aS'the'
p3891
aS'lot'
p3892
aaa(lp3893
g3887
a(lp3894
S'for'
p3895
ag28
aS'damn'
p3896
aS'twelve'
p3897
aS'hours'
p3898
aS'uh'
p3899
aaa(lp3900
g3887
a(lp3901
S'one'
p3902
aS'car'
p3903
aaa(lp3904
g3887
a(lp3905
S'isnt'
p3906
aS'all'
p3907
aS'that'
p3908
aS'much'
p3909
aaa(lp3910
g3887
a(lp3911
S'if'
p3912
aS'you'
p3913
aS'have'
p3914
aS'the'
p3915
aS'clients'
p3916
aS'coming'
p3917
aS'in'
p3918
aaa(lp3919
g3887
a(lp3920
S'Thats'
p3921
aS'the'
p3922
aS'only'
p3923
aS'thing'
p3924
aaa(lp3925
g3887
a(lp3926
S'If'
p3927
aS'you'
p3928
aS'have'
p3929
aS'the'
p3930
aS'traffic'
p3931
aaa(lp3932
S'FREDYeah'
p3933
a(lp3934
aa(lp3935
S'RICHARDwere'
p3936
a(lp3937
S'on'
p3938
ag28
aS'busy'
p3939
aS'street'
p3940
aaa(lp3941
g3936
a(lp3942
S'Firestone'
p3943
aS'Boulevard'
p3944
aaa(lp3945
S'FRED'
p3946
a(lp3947
S'Right'
p3948
aaa(lp3949
g3946
a(lp3950
S'Firestone'
p3951
aS'where'
p3952
aaa(lp3953
g3946
a(lp3954
S'by'
p3955
aS'the'
p3956
aS'six'
p3957
aS'o'
p3958
aS'five'
p3959
aaa(lp3960
S'RICHARD'
p3961
a(lp3962
S'R'
p3963
aS'exactly'
p3964
aaa(lp3965
g3961
a(lp3966
S'Right'
p3967
aS'before'
p3968
aS'the'
p3969
aS'six'
p3970
ag3958
aS'five'
p3971
aaa(lp3972
g3961
a(lp3973
S'Right'
p3974
aS'by'
p3975
aaa(lp3976
S'FREDYeah'
p3977
a(lp3978
aa(lp3979
S'RICHARDRight'
p3980
a(lp3981
S'past'
p3982
aS'Downy'
p3983
aaa(lp3984
g3980
a(lp3985
S'where'
p3986
aS'we'
p3987
aS'used'
p3988
aS'to'
p3989
aS'play'
p3990
aS'basketball'
p3991
aS'at'
p3992
aS'uh'
p3993
aaa(lp3994
g3980
a(lp3995
S'the'
p3996
aS'YMCA'
p3997
aaa(lp3998
S'FRED'
p3999
a(lp4000
S'Yeah'
p4001
aaa(lp4002
g3999
a(lp4003
g28
ag28
aS'little'
p4004
aS'pa'
p4005
aS'past'
p4006
aS'that'
p4007
aS'going'
p4008
aaa(lp4009
S'RICHARDId'
p4010
a(lp4011
S'say'
p4012
ag28
aS'mile'
p4013
aaa(lp4014
S'FREDeast'
p4015
a(lp4016
aa(lp4017
S'RICHARD'
p4018
a(lp4019
S'Yeah'
p4020
aaa(lp4021
S'FREDA'
p4022
a(lp4023
S'mile'
p4024
aaa(lp4025
S'RICHARDA'
p4026
a(lp4027
S'mile'
p4028
aS'going'
p4029
aaa(lp4030
g4026
a(lp4031
S'uh'
p4032
aS'east'
p4033
aaa(lp4034
S'FRED'
p4035
a(lp4036
S'You'
p4037
aS'know'
p4038
aaa(lp4039
g4035
a(lp4040
g7
aS'have'
p4041
aS'been'
p4042
aS'wanting'
p4043
aS'to'
p4044
aS'go'
p4045
aS'visit'
p4046
aS'you'
p4047
aaa(lp4048
g4035
a(lp4049
S'But'
p4050
aaa(lp4051
g4035
a(lp4052
S'Im'
p4053
aS'afraid'
p4054
aS'youre'
p4055
aS'gonna'
p4056
aS'sell'
p4057
aS'me'
p4058
ag28
aS'car'
p4059
aS'bro'
p4060
aaa(lp4061
S'RICHARDYeah'
p4062
a(lp4063
S'well'
p4064
aaa(lp4065
g4062
a(lp4066
S'thats'
p4067
aS'the'
p4068
aS'last'
p4069
aS'thing'
p4070
aS'you'
p4071
aS'need'
p4072
aS'to'
p4073
aS'do'
p4074
aaa(lp4075
g4062
a(lp4076
S'is'
p4077
aS'get'
p4078
aS'in'
p4079
aS'any'
p4080
aS'more'
p4081
aS'debt'
p4082
aaa(lp4083
g4062
a(lp4084
S'than'
p4085
aS'you'
p4086
aS'already'
p4087
aS'are'
p4088
aaa(lp4089
S'FRED'
p4090
a(lp4091
aa(lp4092
S'RICHARDUh'
p4093
a(lp4094
aa(lp4095
S'FREDIm'
p4096
a(lp4097
S'hip'
p4098
aS'man'
p4099
aaa(lp4100
g4096
a(lp4101
g7
aS'gotta'
p4102
aS'get'
p4103
aS'outa'
p4104
aS'my'
p4105
aS'debts'
p4106
aaa(lp4107
g4096
a(lp4108
S'Man'
p4109
aaa(lp4110
S'RICHARD'
p4111
a(lp4112
S'Yeah'
p4113
aS'Im'
p4114
aaa(lp4115
S'FRED'
p4116
a(lp4117
S'And'
p4118
aS'then'
p4119
aS'Ill'
p4120
aS'be'
p4121
ag28
aS'free'
p4122
aS'agent'
p4123
aaa(lp4124
g4116
a(lp4125
S'Man'
p4126
aaa(lp4127
S'RICHARDIn'
p4128
a(lp4129
S'fact'
p4130
aaa(lp4131
g4128
a(lp4132
g7
aS'was'
p4133
aS'planning'
p4134
aaa(lp4135
g4128
a(lp4136
S'if'
p4137
aS'they'
p4138
aS'were'
p4139
aS'gonna'
p4140
aS'play'
p4141
aS'basketball'
p4142
aaa(lp4143
g4128
a(lp4144
S'if'
p4145
ag7
aS'did'
p4146
aS'go'
p4147
aS'in'
p4148
aS'Thursday'
p4149
aS'at'
p4150
aS'nine'
p4151
aS'oclock'
p4152
aaa(lp4153
S'FRED'
p4154
a(lp4155
S'You'
p4156
aS'could'
p4157
aS'go'
p4158
aS'for'
p4159
aS'couple'
p4160
aS'hours'
p4161
aaa(lp4162
S'RICHARDIts'
p4163
a(lp4164
S'right'
p4165
aS'down'
p4166
aS'the'
p4167
aS'street'
p4168
aaa(lp4169
S'FREDat'
p4170
a(lp4171
S'least'
p4172
aaa(lp4173
S'RICHARDI'
p4174
a(lp4175
S'could'
p4176
aS'bring'
p4177
aS'my'
p4178
aS'work'
p4179
aS'clothes'
p4180
aaa(lp4181
g4174
a(lp4182
S'and'
p4183
aS'uh'
p4184
aaa(lp4185
S'FREDsure'
p4186
a(lp4187
aa(lp4188
g4186
a(lp4189
S'Hey'
p4190
aS'you'
p4191
aS'know'
p4192
aaa(lp4193
S'RICHARDtake'
p4194
a(lp4195
g28
aS'shower'
p4196
aaa(lp4197
S'FREDTake'
p4198
a(lp4199
g28
aS'shower'
p4200
aaa(lp4201
g4198
a(lp4202
S'Why'
p4203
aS'not'
p4204
aaa(lp4205
g4198
a(lp4206
S'Because'
p4207
aaa(lp4208
g4198
a(lp4209
S'like'
p4210
aaa(lp4211
S'RICHARDGet'
p4212
a(lp4213
S'there'
p4214
aS'at'
p4215
aS'seven'
p4216
aS'and'
p4217
aaa(lp4218
g4212
a(lp4219
S'play'
p4220
aS'from'
p4221
aS'seven'
p4222
aS'to'
p4223
aS'quarter'
p4224
aS'to'
p4225
aS'nine'
p4226
aaa(lp4227
g4212
a(lp4228
S'and'
p4229
aaa(lp4230
g4212
a(lp4231
S'take'
p4232
aS'probably'
p4233
aS'five'
p4234
aS'minutes'
p4235
aaa(lp4236
g4212
a(lp4237
S'to'
p4238
aS'get'
p4239
aS'from'
p4240
aS'YMCA'
p4241
aS'to'
p4242
aS'the'
p4243
aaa(lp4244
g4212
a(lp4245
S'Firestone'
p4246
aS'Chrysler'
p4247
aaa(lp4248
S'FRED'
p4249
a(lp4250
S'You'
p4251
aS'wanna'
p4252
aS'go'
p4253
aS'tomorrow'
p4254
aaa(lp4255
g4249
a(lp4256
g7
aaa(lp4257
g4249
a(lp4258
g7
aS'dont'
p4259
aS'know'
p4260
aS'if'
p4261
aS'theyre'
p4262
aS'playing'
p4263
aaa(lp4264
S'RICHARDI'
p4265
a(lp4266
S'dont'
p4267
aS'know'
p4268
aaa(lp4269
S'FREDbecause'
p4270
a(lp4271
S'last'
p4272
aS'week'
p4273
aaa(lp4274
g4270
a(lp4275
S'the'
p4276
aS'gym'
p4277
aS'was'
p4278
aS'closed'
p4279
aaa(lp4280
g4270
a(lp4281
S'theyre'
p4282
aS'working'
p4283
aS'on'
p4284
aS'the'
p4285
aS'ceiling'
p4286
aaa(lp4287
S'RICHARDSo'
p4288
a(lp4289
S'the'
p4290
aS'last'
p4291
aS'two'
p4292
aS'weeks'
p4293
aS'the'
p4294
aS'gym'
p4295
aS'was'
p4296
aS'clo'
p4297
aaa(lp4298
S'FREDYeah'
p4299
a(lp4300
S'the'
p4301
aaa(lp4302
g4299
a(lp4303
S'The'
p4304
aS'last'
p4305
aS'two'
p4306
aS'weeks'
p4307
aS'the'
p4308
aS'gym'
p4309
aS'was'
p4310
aS'closed'
p4311
aaa(lp4312
S'RICHARDAnd'
p4313
a(lp4314
S'you'
p4315
aS'havent'
p4316
aS'talked'
p4317
aS'to'
p4318
aS'Gary'
p4319
aS'Holt'
p4320
aS'at'
p4321
aS'all'
p4322
aaa(lp4323
S'FRED'
p4324
a(lp4325
g7
aS'havent'
p4326
aS'seen'
p4327
aS'him'
p4328
aS'this'
p4329
aS'week'
p4330
aaa(lp4331
g4324
a(lp4332
S'Uh'
p4333
aaa(lp4334
g4324
a(lp4335
g7
aS'saw'
p4336
aS'him'
p4337
aS'last'
p4338
aS'week'
p4339
aaa(lp4340
g4324
a(lp4341
S'and'
p4342
aS'he'
p4343
aS'told'
p4344
aS'me'
p4345
aS'they'
p4346
aS'were'
p4347
aS'still'
p4348
aS'working'
p4349
aS'on'
p4350
aS'the'
p4351
aS'gym'
p4352
aaa(lp4353
g4324
a(lp4354
S'But'
p4355
ag7
aS'havent'
p4356
aS'seen'
p4357
aS'him'
p4358
aS'this'
p4359
aS'week'
p4360
aaa(lp4361
S'RICHARD'
p4362
a(lp4363
S'Yeah'
p4364
aaa(lp4365
g4362
a(lp4366
g7
aS'got'
p4367
ag28
aS'check'
p4368
aS'coming'
p4369
aS'tomorrow'
p4370
aaa(lp4371
g4362
a(lp4372
g7
aS'have'
p4373
aS'to'
p4374
aS'go'
p4375
aS'pick'
p4376
aS'up'
p4377
aaa(lp4378
g4362
a(lp4379
S'So'
p4380
aS'Ill'
p4381
aS'probably'
p4382
aS'be'
p4383
aS'in'
p4384
aS'there'
p4385
aS'in'
p4386
aS'the'
p4387
aS'evening'
p4388
aS'after'
p4389
aS'work'
p4390
aaa(lp4391
S'FREDWhere'
p4392
a(lp4393
aa(lp4394
g4392
a(lp4395
S'at'
p4396
aS'federal'
p4397
aaa(lp4398
S'RICHARD'
p4399
a(lp4400
S'Yeah'
p4401
aaa(lp4402
g4399
a(lp4403
S'Either'
p4404
aS'at'
p4405
aS'five'
p4406
aS'oclock'
p4407
aaa(lp4408
g4399
a(lp4409
S'or'
p4410
aS'three'
p4411
aS'oclock'
p4412
aaa(lp4413
g4399
a(lp4414
S'or'
p4415
aaa(lp4416
g4399
a(lp4417
S'were'
p4418
aS'getting'
p4419
aS'paid'
p4420
aS'tomorrow'
p4421
aS'right'
p4422
aaa(lp4423
S'FREDYeah'
p4424
a(lp4425
aa(lp4426
S'RICHARDI'
p4427
a(lp4428
S'got'
p4429
aS'my'
p4430
aS'last'
p4431
aaa(lp4432
S'FREDYou'
p4433
a(lp4434
S'last'
p4435
aS'what'
p4436
aaa(lp4437
S'RICHARDOne'
p4438
a(lp4439
S'week'
p4440
aS'check'
p4441
aaa(lp4442
g4438
a(lp4443
S'and'
p4444
aS'one'
p4445
aS'week'
p4446
aS'vacation'
p4447
aS'check'
p4448
aaa(lp4449
S'FRED'
p4450
a(lp4451
S'Oh'
p4452
aaa(lp4453
g4450
a(lp4454
S'not'
p4455
aS'too'
p4456
aS'bad'
p4457
aaa(lp4458
S'RICHARD'
p4459
a(lp4460
S'So'
p4461
aS'itll'
p4462
aS'help'
p4463
aS'me'
p4464
aaa(lp4465
g4459
a(lp4466
S'cause'
p4467
ag7
aS'dont'
p4468
aS'have'
p4469
aS'uh'
p4470
aaa(lp4471
g4459
a(lp4472
S'any'
p4473
aS'steady'
p4474
aS'income'
p4475
aS'now'
p4476
aaa(lp4477
g4459
a(lp4478
S'If'
p4479
ag7
aS'dont'
p4480
aS'sell'
p4481
aaa(lp4482
g4459
a(lp4483
g7
aS'dont'
p4484
aS'make'
p4485
aS'money'
p4486
aaa(lp4487
g4459
a(lp4488
g7
aS'got'
p4489
aS'uh'
p4490
aaa(lp4491
S'FRED'
p4492
a(lp4493
S'You'
p4494
aS'mean'
p4495
aS'you'
p4496
aS'dont'
p4497
aS'g'
p4498
aaa(lp4499
g4492
a(lp4500
S'even'
p4501
aS'get'
p4502
aS'minimum'
p4503
aaa(lp4504
S'RICHARDWell'
p4505
a(lp4506
aa(lp4507
g4505
a(lp4508
S'we'
p4509
aS'get'
p4510
aS'sixhundred'
p4511
aS'dollars'
p4512
ag28
aS'month'
p4513
aaa(lp4514
g4505
a(lp4515
S'Threehundred'
p4516
aS'every'
p4517
aS'two'
p4518
aS'weeks'
p4519
aaa(lp4520
g4505
a(lp4521
S'Which'
p4522
aS'isnt'
p4523
aS'bad'
p4524
aaa(lp4525
g4505
a(lp4526
g7
aS'mean'
p4527
ag7
aS'could'
p4528
aaa(lp4529
S'FREDNo'
p4530
a(lp4531
aa(lp4532
S'RICHARDI'
p4533
a(lp4534
S'could'
p4535
aaa(lp4536
S'FRED'
p4537
a(lp4538
aa(lp4539
S'RICHARDNow'
p4540
a(lp4541
S'that'
p4542
ag7
aS'dont'
p4543
aS'have'
p4544
aS'to'
p4545
aS'pay'
p4546
aS'rent'
p4547
aaa(lp4548
S'FRED'
p4549
a(lp4550
S'Yeah'
p4551
aaa(lp4552
S'RICHARDI'
p4553
a(lp4554
S'might'
p4555
aS'be'
p4556
aS'able'
p4557
aS'to'
p4558
aaa(lp4559
g4553
a(lp4560
S'pay'
p4561
aS'my'
p4562
aS'credit'
p4563
aS'cards'
p4564
aaa(lp4565
g4553
a(lp4566
S'and'
p4567
aS'my'
p4568
aS'car'
p4569
aS'payment'
p4570
aaa(lp4571
g4553
a(lp4572
S'and'
p4573
aS'my'
p4574
aS'insurance'
p4575
aaa(lp4576
g4553
a(lp4577
S'with'
p4578
aS'that'
p4579
aS'sixhundred'
p4580
aaa(lp4581
g4553
a(lp4582
S'My'
p4583
aS'car'
p4584
aS'payments'
p4585
aS'two'
p4586
aS'fiftyeight'
p4587
aaa(lp4588
g4553
a(lp4589
S'the'
p4590
aS'insurance'
p4591
aS'is'
p4592
ag28
aS'hundred'
p4593
ag28
aS'month'
p4594
aaa(lp4595
g4553
a(lp4596
S'thats'
p4597
aS'three'
p4598
aS'fiftyeight'
p4599
aaa(lp4600
g4553
a(lp4601
S'and'
p4602
aS'maybe'
p4603
aS'about'
p4604
aS'threehundred'
p4605
aS'in'
p4606
aS'uh'
p4607
aaa(lp4608
g4553
a(lp4609
S'credit'
p4610
aS'cards'
p4611
ag28
aS'month'
p4612
aaa(lp4613
S'FREDSo'
p4614
a(lp4615
S'what'
p4616
aS'does'
p4617
aS'the'
p4618
aS'Porsche'
p4619
aS'have'
p4620
aS'man'
p4621
aaa(lp4622
g4614
a(lp4623
S'Did'
p4624
aS'they'
p4625
aS'tell'
p4626
aS'you'
p4627
aS'at'
p4628
aS'the'
p4629
aS'shop'
p4630
aaa(lp4631
S'RICHARD'
p4632
a(lp4633
S'In'
p4634
aS'fact'
p4635
ag7
aS'have'
p4636
aS'to'
p4637
aS'call'
p4638
aS'right'
p4639
aS'now'
p4640
aaa(lp4641
S'FREDWhat'
p4642
a(lp4643
S'what'
p4644
aS'you'
p4645
aS'gotta'
p4646
aS'do'
p4647
aS'to'
p4648
aaa(lp4649
S'RICHARDShould'
p4650
a(lp4651
g7
aS'call'
p4652
aS'right'
p4653
aS'now'
p4654
aaa(lp4655
S'FRED'
p4656
a(lp4657
S'Sure'
p4658
aaa(lp4659
g4656
a(lp4660
S'why'
p4661
aS'not'
p4662
aaa(lp4663
S'RICHARDCould'
p4664
a(lp4665
g7
aS'call'
p4666
aS'right'
p4667
aS'here'
p4668
aS'while'
p4669
aaa(lp4670
S'FRED'
p4671
a(lp4672
S'Uh'
p4673
aaa(lp4674
S'RICHARD'
p4675
a(lp4676
S'And'
p4677
aS'you'
p4678
aS'could'
p4679
aS'hear'
p4680
aS'me'
p4681
aaa(lp4682
g4675
a(lp4683
S'uh'
p4684
aaa(lp4685
g4675
a(lp4686
S'have'
p4687
aS'the'
p4688
aS'conversation'
p4689
aS'on'
p4690
aS'the'
p4691
aS'phone'
p4692
aaa(lp4693
S'FREDX'
p4694
a(lp4695
S'Yeah'
p4696
ag1142
aaa(lp4697
S'RICHARD'
p4698
a(lp4699
S'Talking'
p4700
aS'about'
p4701
aS'my'
p4702
aS'car'
p4703
aaa(lp4704
g4698
a(lp4705
S'because'
p4706
ag7
aS'have'
p4707
aS'to'
p4708
aS'get'
p4709
aS'the'
p4710
aS'car'
p4711
aaa(lp4712
g4698
a(lp4713
g7
aS'dont'
p4714
aS'what'
p4715
aS'its'
p4716
aS'gonna'
p4717
aS'cost'
p4718
aaa(lp4719
g4698
a(lp4720
S'but'
p4721
aS'it'
p4722
aS'had'
p4723
aS'problems'
p4724
aS'uh'
p4725
aaa(lp4726
g4698
a(lp4727
S'with'
p4728
aS'the'
p4729
aS'fuel'
p4730
aS'injection'
p4731
aS'system'
p4732
aaa(lp4733
S'FRED'
p4734
a(lp4735
S'Unhunh'
p4736
aaa(lp4737
S'RICHARD'
p4738
a(lp4739
S'So'
p4740
ag7
aS'have'
p4741
aS'to'
p4742
aS'have'
p4743
aS'that'
p4744
aS'fixed'
p4745
aaa(lp4746
g4738
a(lp4747
S'in'
p4748
aS'order'
p4749
aS'for'
p4750
aS'me'
p4751
aS'to'
p4752
aS'get'
p4753
aaa(lp4754
g4738
a(lp4755
S'uh'
p4756
aaa(lp4757
g4738
a(lp4758
S'right'
p4759
aS'now'
p4760
aaa(lp4761
g4738
a(lp4762
S'Jeanies'
p4763
aS'lending'
p4764
aS'me'
p4765
aS'the'
p4766
aS'Samurai'
p4767
aaa(lp4768
S'FRED'
p4769
a(lp4770
S'Oh'
p4771
aS'shes'
p4772
aaa(lp4773
S'RICHARDYeah'
p4774
a(lp4775
aa(lp4776
g4774
a(lp4777
S'Shes'
p4778
aS'being'
p4779
aS'real'
p4780
aS'cool'
p4781
aaa(lp4782
g4774
a(lp4783
S'And'
p4784
aS'Ive'
p4785
aS'had'
p4786
aS'it'
p4787
aS'for'
p4788
aS'three'
p4789
aS'days'
p4790
aS'and'
p4791
aS'uh'
p4792
aaa(lp4793
g4774
a(lp4794
S'that'
p4795
aS'was'
p4796
aS'very'
p4797
aS'nice'
p4798
aS'of'
p4799
aS'her'
p4800
aaa(lp4801
g4774
a(lp4802
g7
aS'appreciated'
p4803
aS'her'
p4804
aS'doing'
p4805
aS'that'
p4806
aS'for'
p4807
aS'me'
p4808
aaa(lp4809
S'FREDShes'
p4810
a(lp4811
S'taking'
p4812
aS'the'
p4813
aS'Samurai'
p4814
aaa(lp4815
S'RICHARDShes'
p4816
a(lp4817
S'taking'
p4818
aS'her'
p4819
aS'BMW'
p4820
aaa(lp4821
g4816
a(lp4822
S'every'
p4823
aS'day'
p4824
aS'to'
p4825
aS'work'
p4826
aaa(lp4827
S'FREDBut'
p4828
a(lp4829
aa(lp4830
g4828
a(lp4831
S'shes'
p4832
aS'taking'
p4833
aS'the'
p4834
aS'Samurai'
p4835
aaa(lp4836
g4828
a(lp4837
S'F'
p4838
aS'from'
p4839
aS'you'
p4840
aaa(lp4841
S'RICHARDYeah'
p4842
a(lp4843
aa(lp4844
S'FREDB'
p4845
a(lp4846
S'because'
p4847
aS'uh'
p4848
aaa(lp4849
S'RICHARD'
p4850
a(lp4851
g7
aS'owed'
p4852
aS'her'
p4853
aS'money'
p4854
aaa(lp4855
g4850
a(lp4856
S'because'
p4857
aS'she'
p4858
aS'had'
p4859
aS'an'
p4860
aS'investment'
p4861
aS'in'
p4862
aS'the'
p4863
aS'Porsche'
p4864
aS'with'
p4865
aS'me'
p4866
aaa(lp4867
S'FRED'
p4868
a(lp4869
S'Oh'
p4870
ag7
aS'see'
p4871
aaa(lp4872
g4868
a(lp4873
S'So'
p4874
aaa(lp4875
g4868
a(lp4876
S'yeah'
p4877
aaa(lp4878
g4868
a(lp4879
S'She'
p4880
aS'gets'
p4881
aS'the'
p4882
aS'Samurai'
p4883
aaa(lp4884
g4868
a(lp4885
S'And'
p4886
aS'you'
p4887
aS'get'
p4888
aS'the'
p4889
aS'Porsche'
p4890
aaa(lp4891
S'RICHARD'
p4892
a(lp4893
S'Yeah'
p4894
aaa(lp4895
g4892
a(lp4896
S'And'
p4897
aS'uh'
p4898
aaa(lp4899
S'FREDBut'
p4900
a(lp4901
S'your'
p4902
aS'dad'
p4903
aaa(lp4904
g4900
a(lp4905
S'Man'
p4906
aaa(lp4907
g4900
a(lp4908
S'hes'
p4909
aS'not'
p4910
aS'gonna'
p4911
aS'like'
p4912
aS'that'
p4913
aaa(lp4914
g4900
a(lp4915
S'too'
p4916
aS'much'
p4917
ag7
aS'dont'
p4918
aS'think'
p4919
aaa(lp4920
S'RICHARD'
p4921
a(lp4922
S'Why'
p4923
aaa(lp4924
S'FRED'
p4925
a(lp4926
S'Cause'
p4927
aS'wasnt'
p4928
aS'he'
p4929
aS'the'
p4930
aS'L'
p4931
aS'garante'
p4932
ag4931
aaa(lp4933
S'RICHARD'
p4934
a(lp4935
S'No'
p4936
aaa(lp4937
g4934
a(lp4938
S'he'
p4939
aS'was'
p4940
aS'the'
p4941
aaa(lp4942
g4934
a(lp4943
S'he'
p4944
aS'had'
p4945
aS'the'
p4946
aS'insurance'
p4947
aS'under'
p4948
aS'his'
p4949
aS'name'
p4950
aaa(lp4951
S'FRED'
p4952
a(lp4953
S'Just'
p4954
aS'the'
p4955
aS'insurance'
p4956
aaa(lp4957
S'RICHARDThats'
p4958
a(lp4959
S'it'
p4960
aaa(lp4961
g4958
a(lp4962
S'So'
p4963
aS'the'
p4964
aS'car'
p4965
aaa(lp4966
g4958
a(lp4967
S'The'
p4968
aS'cars'
p4969
aS'uh'
p4970
aaa(lp4971
g4958
a(lp4972
S'you'
p4973
aS'know'
p4974
aaa(lp4975
g4958
a(lp4976
S'Im'
p4977
aS'paying'
p4978
aS'the'
p4979
aS'car'
p4980
aS'and'
p4981
aS'everything'
p4982
aS'and'
p4983
aaa(lp4984
S'FRED'
p4985
a(lp4986
S'Unhunh'
p4987
aaa(lp4988
g4985
a(lp4989
S'But'
p4990
aaa(lp4991
S'RICHARD'
p4992
a(lp4993
S'Im'
p4994
aS'letting'
p4995
aS'her'
p4996
aaa(lp4997
S'FREDshe'
p4998
a(lp4999
S'doesnt'
p5000
aS'wanna'
p5001
aS'move'
p5002
aS'the'
p5003
aS'BMW'
p5004
aaa(lp5005
g4998
a(lp5006
S'Right'
p5007
aaa(lp5008
g4998
a(lp5009
S'She'
p5010
aS'wants'
p5011
aS'to'
p5012
aS'keep'
p5013
aS'it'
p5014
aS'there'
p5015
aaa(lp5016
S'RICHARDNo'
p5017
a(lp5018
S'way'
p5019
aaa(lp5020
g5017
a(lp5021
S'that'
p5022
aS'cars'
p5023
aS'paid'
p5024
aS'off'
p5025
aaa(lp5026
g5017
a(lp5027
S'its'
p5028
aS'in'
p5029
aS'excellent'
p5030
aS'condition'
p5031
aaa(lp5032
g5017
a(lp5033
S'and'
p5034
aS'uh'
p5035
aaa(lp5036
S'FREDIts'
p5037
a(lp5038
g28
aS'gem'
p5039
aaa(lp5040
S'RICHARD'
p5041
a(lp5042
aa(lp5043
g5041
a(lp5044
S'Yeah'
p5045
aaa(lp5046
g5041
a(lp5047
S'so'
p5048
aS'shes'
p5049
aS'gonna'
p5050
aS'hang'
p5051
aS'on'
p5052
aS'to'
p5053
aS'it'
p5054
aaa(lp5055
g5041
a(lp5056
S'but'
p5057
aS'shes'
p5058
aS'being'
p5059
aS'real'
p5060
aS'nice'
p5061
aaa(lp5062
g5041
a(lp5063
S'See'
p5064
aS'thats'
p5065
aS'why'
p5066
ag7
aS'know'
p5067
aS'were'
p5068
aS'still'
p5069
aS'good'
p5070
aS'friends'
p5071
aaa(lp5072
g5041
a(lp5073
S'because'
p5074
aS'if'
p5075
aS'she'
p5076
aS'had'
p5077
aS'any'
p5078
aS'hard'
p5079
aS'feelings'
p5080
aS'for'
p5081
aS'me'
p5082
aaa(lp5083
S'FREDYeah'
p5084
a(lp5085
aa(lp5086
S'RICHARDshed'
p5087
a(lp5088
S'say'
p5089
aS'no'
p5090
aaa(lp5091
g5087
a(lp5092
S'Thats'
p5093
aS'my'
p5094
aS'car'
p5095
aaa(lp5096
g5087
a(lp5097
S'you'
p5098
aS'know'
p5099
aaa(lp5100
S'FRED'
p5101
a(lp5102
S'You'
p5103
aS'gotta'
p5104
aS'see'
p5105
aS'how'
p5106
aS'you'
p5107
aS'do'
p5108
aaa(lp5109
S'RICHARDExactly'
p5110
a(lp5111
aa(lp5112
g5110
a(lp5113
S'Do'
p5114
aS'your'
p5115
aS'own'
p5116
aS'thing'
p5117
aaa(lp5118
g5110
a(lp5119
S'Right'
p5120
aaa(lp5121
S'FRED'
p5122
a(lp5123
S'Yeah'
p5124
aaa(lp5125
g5122
a(lp5126
S'Hunh'
p5127
aaa(lp5128
S'RICHARD'
p5129
a(lp5130
S'But'
p5131
aS'shes'
p5132
aS'being'
p5133
aS'real'
p5134
aS'nice'
p5135
aaa(lp5136
g5129
a(lp5137
S'Thats'
p5138
aS'why'
p5139
aS'uh'
p5140
aaa(lp5141
S'FRED'
p5142
a(lp5143
S'Hey'
p5144
aS'you'
p5145
aS'still'
p5146
aS'got'
p5147
aS'tickets'
p5148
aaa(lp5149
g5142
a(lp5150
S'for'
p5151
aS'Celia'
p5152
aS'Cruz'
p5153
aaa(lp5154
g5142
a(lp5155
S'And'
p5156
aS'Tito'
p5157
aS'Puente'
p5158
aaa(lp5159
S'RICHARDYeah'
p5160
a(lp5161
aa(lp5162
g5160
a(lp5163
S'Yeah'
p5164
aaa(lp5165
S'FRED'
p5166
a(lp5167
S'You'
p5168
aS'gonna'
p5169
aS'go'
p5170
aaa(lp5171
S'RICHARDI'
p5172
a(lp5173
S'think'
p5174
aS'so'
p5175
aaa(lp5176
S'FREDYeah'
p5177
a(lp5178
aa(lp5179
g5177
a(lp5180
S'Alright'
p5181
aaa(lp5182
g5177
a(lp5183
S'Thats'
p5184
aS'gonna'
p5185
aS'be'
p5186
ag28
aS'good'
p5187
aS'show'
p5188
aS'man'
p5189
aaa(lp5190
g5177
a(lp5191
g7
aS'tell'
p5192
aS'you'
p5193
aaa(lp5194
S'RICHARDDefinetely'
p5195
a(lp5196
aa(lp5197
S'FREDCelia'
p5198
a(lp5199
S'Cruz'
p5200
aS'puts'
p5201
aS'on'
p5202
ag28
aS'good'
p5203
aS'show'
p5204
aaa(lp5205
S'RICHARDOh'
p5206
a(lp5207
aa(lp5208
g5206
a(lp5209
g7
aS'sold'
p5210
aaa(lp5211
g5206
a(lp5212
S'Yes'
p5213
aaa(lp5214
g5206
a(lp5215
S'is'
p5216
aS'uh'
p5217
aS'Kenny'
p5218
aS'in'
p5219
aaa(lp5220
g5206
a(lp5221
S'Or'
p5222
aS'is'
p5223
aS'this'
p5224
aS'Roger'
p5225
aaa(lp5226
g5206
a(lp5227
S'Okay'
p5228
aS'uh'
p5229
aaa(lp5230
g5206
a(lp5231
S'Roger'
p5232
aaa(lp5233
g5206
a(lp5234
S'this'
p5235
aS'is'
p5236
aS'Richard'
p5237
aS'Torres'
p5238
aaa(lp5239
g5206
a(lp5240
S'with'
p5241
aS'the'
p5242
aS'seventyseven'
p5243
aS'nineeleven'
p5244
aaa(lp5245
g5206
a(lp5246
S'the'
p5247
aS'silver'
p5248
aS'one'
p5249
aaa(lp5250
g5206
a(lp5251
S'With'
p5252
aS'the'
p5253
aS'cold'
p5254
aS'start'
p5255
aS'problem'
p5256
aaa(lp5257
g5206
a(lp5258
S'Do'
p5259
aS'you'
p5260
aS'know'
p5261
aS'uh'
p5262
aaa(lp5263
g5206
a(lp5264
S'if'
p5265
aS'its'
p5266
aS'been'
p5267
aS'worked'
p5268
aS'on'
p5269
aS'or'
p5270
aS'anything'
p5271
aaa(lp5272
g5206
a(lp5273
S'Unhunh'
p5274
aaa(lp5275
g5206
a(lp5276
S'A'
p5277
aaa(lp5278
g5206
a(lp5279
S'Exhaust'
p5280
aS'leak'
p5281
aaa(lp5282
g5206
a(lp5283
S'Right'
p5284
aaa(lp5285
g5206
a(lp5286
S'Okay'
p5287
aaa(lp5288
g5206
a(lp5289
S'Um'
p5290
aaa(lp5291
g5206
a(lp5292
g397
aaa(lp5293
g5206
a(lp5294
S'Now'
p5295
aS'this'
p5296
aS'warmup'
p5297
aS'regulator'
p5298
aaa(lp5299
g5206
a(lp5300
S'is'
p5301
aS'that'
p5302
aS'uh'
p5303
aaa(lp5304
g5206
a(lp5305
S'different'
p5306
aS'than'
p5307
ag28
aS'cold'
p5308
aS'start'
p5309
aS'valve'
p5310
aaa(lp5311
g5206
a(lp5312
S'Oh'
p5313
aaa(lp5314
g5206
a(lp5315
S'Yeah'
p5316
aaa(lp5317
g5206
a(lp5318
S'Okay'
p5319
aaa(lp5320
g5206
a(lp5321
S'cause'
p5322
ag7
aS'did'
p5323
aS'have'
p5324
aS'one'
p5325
aS'put'
p5326
aS'in'
p5327
aaa(lp5328
g5206
a(lp5329
g7
aS'think'
p5330
aS'uh'
p5331
aaa(lp5332
g5206
a(lp5333
S'about'
p5334
aS'three'
p5335
aS'months'
p5336
aS'ago'
p5337
aS'or'
p5338
aS'something'
p5339
aaa(lp5340
g5206
a(lp5341
g7
aS'think'
p5342
aS'you'
p5343
aS'guys'
p5344
aS'put'
p5345
aS'it'
p5346
aS'in'
p5347
aaa(lp5348
g5206
a(lp5349
g7
aS'had'
p5350
aS'the'
p5351
aS'same'
p5352
aS'problem'
p5353
aaa(lp5354
g5206
a(lp5355
S'And'
p5356
aaa(lp5357
g5206
a(lp5358
S'it'
p5359
aS'was'
p5360
aS'like'
p5361
aS'twohundred'
p5362
aS'bucks'
p5363
aS'or'
p5364
aS'something'
p5365
aaa(lp5366
g5206
a(lp5367
g7
aS'is'
p5368
aS'that'
p5369
aS'the'
p5370
aS'same'
p5371
aS'problem'
p5372
aS'now'
p5373
aaa(lp5374
g5206
a(lp5375
S'Oh'
p5376
aS'okay'
p5377
aaa(lp5378
g5206
a(lp5379
S'Oh'
p5380
aS'okay'
p5381
ag776
aaa(lp5382
g5206
a(lp5383
S'Okay'
p5384
aS'so'
p5385
aaa(lp5386
g5206
a(lp5387
S'should'
p5388
ag7
aS'just'
p5389
aS'call'
p5390
aS'back'
p5391
aS'in'
p5392
ag28
aS'little'
p5393
aS'bit'
p5394
aS'maybe'
p5395
aaa(lp5396
g5206
a(lp5397
S'Okay'
p5398
aaa(lp5399
g5206
a(lp5400
S'okay'
p5401
aaa(lp5402
g5206
a(lp5403
S'so'
p5404
aS'Ill'
p5405
aS'just'
p5406
aS'call'
p5407
aS'back'
p5408
aS'in'
p5409
aS'about'
p5410
aS'ten'
p5411
aS'or'
p5412
aS'fifteen'
p5413
aaa(lp5414
g5206
a(lp5415
S'Maybe'
p5416
aS'hell'
p5417
aS'be'
p5418
aS'there'
p5419
aaa(lp5420
g5206
a(lp5421
S'Okay'
p5422
aS'thanks'
p5423
aS'Roger'
p5424
aaa(lp5425
g5206
a(lp5426
S'Bye'
p5427
aaa(lp5428
S'FRED'
p5429
a(lp5430
S'So'
p5431
aaa(lp5432
g5429
a(lp5433
S'cold'
p5434
aS'start'
p5435
aS'regulator'
p5436
aaa(lp5437
g5429
a(lp5438
S'is'
p5439
aS'that'
p5440
aS'it'
p5441
aaa(lp5442
S'RICHARDOh'
p5443
a(lp5444
S'man'
p5445
aaa(lp5446
g5443
a(lp5447
g7
aS'just'
p5448
aS'had'
p5449
aS'one'
p5450
aS'put'
p5451
aS'in'
p5452
aaa(lp5453
g5443
a(lp5454
S'Twohundred'
p5455
aS'bucks'
p5456
aS'for'
p5457
aS'that'
p5458
aaa(lp5459
S'FREDOh'
p5460
a(lp5461
aa(lp5462
g5460
a(lp5463
S'Fuck'
p5464
aaa(lp5465
S'RICHARD'
p5466
a(lp5467
aa(lp5468
S'FRED'
p5469
a(lp5470
S'Thats'
p5471
aS'an'
p5472
aS'expensive'
p5473
aS'car'
p5474
aaa(lp5475
g5469
a(lp5476
S'and'
p5477
aS'then'
p5478
aS'you'
p5479
aS'gotta'
p5480
aS'get'
p5481
aS'the'
p5482
aS'tags'
p5483
aS'on'
p5484
aS'it'
p5485
aaa(lp5486
g5469
a(lp5487
S'Right'
p5488
aaa(lp5489
S'RICHARDI'
p5490
a(lp5491
S'got'
p5492
aS'everything'
p5493
aaa(lp5494
S'FREDYou'
p5495
a(lp5496
S'got'
p5497
aS'everything'
p5498
aaa(lp5499
S'RICHARD'
p5500
a(lp5501
g7
aS'got'
p5502
aS'everything'
p5503
aS'taken'
p5504
aS'care'
p5505
aS'of'
p5506
aaa(lp5507
g5500
a(lp5508
g7
aS'got'
p5509
aS'insurance'
p5510
aS'on'
p5511
aS'it'
p5512
aS'too'
p5513
aaa(lp5514
S'FRED'
p5515
a(lp5516
S'How'
p5517
aS'much'
p5518
aS'in'
p5519
aaa(lp5520
S'RICHARDUnder'
p5521
a(lp5522
S'my'
p5523
aS'name'
p5524
aaa(lp5525
g5521
a(lp5526
S'Elevenhundred'
p5527
ag28
aS'year'
p5528
aaa(lp5529
S'FREDElevenhundred'
p5530
a(lp5531
aa(lp5532
S'RICHARD'
p5533
a(lp5534
S'Threehundred'
p5535
aS'dollars'
p5536
aS'down'
p5537
aaa(lp5538
S'FREDThats'
p5539
a(lp5540
S'cheap'
p5541
aS'man'
p5542
aS'cause'
p5543
aaa(lp5544
S'RICHARD'
p5545
a(lp5546
g7
aS'just'
p5547
aS'got'
p5548
aS'liability'
p5549
aaa(lp5550
S'FREDTri'
p5551
a(lp5552
aa(lp5553
g5551
a(lp5554
S'Triple'
p5555
ag5277
aS'wanted'
p5556
aS'to'
p5557
aS'give'
p5558
aS'me'
p5559
aaa(lp5560
g5551
a(lp5561
S'you'
p5562
aS'know'
p5563
aaa(lp5564
g5551
a(lp5565
S'insurance'
p5566
aaa(lp5567
g5551
a(lp5568
S'elevenhundred'
p5569
aS'too'
p5570
aS'man'
p5571
aaa(lp5572
S'RICHARDYeah'
p5573
a(lp5574
aa(lp5575
S'FRED'
p5576
a(lp5577
S'On'
p5578
aS'the'
p5579
aS'fucking'
p5580
aaa(lp5581
S'RICHARD'
p5582
a(lp5583
S'For'
p5584
ag28
aS'regu'
p5585
aaa(lp5586
g5582
a(lp5587
S'for'
p5588
ag28
aS'Dodge'
p5589
aaa(lp5590
S'FRED'
p5591
a(lp5592
S'on'
p5593
aaa(lp5594
g5591
a(lp5595
S'On'
p5596
ag28
aaa(lp5597
g5591
a(lp5598
S'on'
p5599
aaa(lp5600
g5591
a(lp5601
S'Aries'
p5602
aS'man'
p5603
aaa(lp5604
S'RICHARDBut'
p5605
a(lp5606
S'you'
p5607
aS'were'
p5608
aS'gonna'
p5609
aS'get'
p5610
aS'full'
p5611
aS'coverage'
p5612
aaa(lp5613
g5605
a(lp5614
S'You'
p5615
aS'know'
p5616
aaa(lp5617
S'FRED'
p5618
a(lp5619
S'Uh'
p5620
aaa(lp5621
g5618
a(lp5622
g7
aS'dont'
p5623
aS'remember'
p5624
aaa(lp5625
S'RICHARDI'
p5626
a(lp5627
S'just'
p5628
aS'got'
p5629
aS'liability'
p5630
aaa(lp5631
S'FREDJust'
p5632
a(lp5633
S'liability'
p5634
aaa(lp5635
S'RICHARDWhich'
p5636
a(lp5637
S'is'
p5638
aS'good'
p5639
aS'enough'
p5640
aaa(lp5641
g5636
a(lp5642
S'At'
p5643
aS'least'
p5644
aS'its'
p5645
aS'insured'
p5646
aaa(lp5647
S'FREDYeah'
p5648
a(lp5649
aa(lp5650
S'RICHARDif'
p5651
a(lp5652
S'anything'
p5653
aS'happens'
p5654
aS'to'
p5655
aS'anybody'
p5656
aS'else'
p5657
aaa(lp5658
S'FREDFor'
p5659
a(lp5660
S'sure'
p5661
aaa(lp5662
S'RICHARD'
p5663
a(lp5664
S'But'
p5665
aS'uh'
p5666
aaa(lp5667
g5663
a(lp5668
S'no'
p5669
ag7
aS'took'
p5670
aS'care'
p5671
aS'of'
p5672
aS'the'
p5673
aS'th'
p5674
aS'registration'
p5675
aaa(lp5676
g5663
a(lp5677
g7
aS'registered'
p5678
aS'under'
p5679
aS'my'
p5680
aS'name'
p5681
aS'and'
p5682
aS'everything'
p5683
aaa(lp5684
g5663
a(lp5685
S'and'
p5686
aS'uh'
p5687
aaa(lp5688
g5663
a(lp5689
S'got'
p5690
aS'my'
p5691
aS'tags'
p5692
aS'for'
p5693
aS'eightyeight'
p5694
aaa(lp5695
S'FRED'
p5696
a(lp5697
S'Yeah'
p5698
aaa(lp5699
S'RICHARD'
p5700
a(lp5701
S'And'
p5702
aaa(lp5703
g5700
a(lp5704
S'got'
p5705
aS'custom'
p5706
aS'plates'
p5707
aS'on'
p5708
aS'it'
p5709
aaa(lp5710
S'FREDHow'
p5711
a(lp5712
S'much'
p5713
aS'did'
p5714
aS'the'
p5715
aS'tags'
p5716
aS'cost'
p5717
aS'you'
p5718
aaa(lp5719
g5711
a(lp5720
S'Mu'
p5721
aaa(lp5722
S'RICHARDFiftyone'
p5723
a(lp5724
S'bucks'
p5725
aaa(lp5726
S'FRED'
p5727
a(lp5728
S'Cheaper'
p5729
aS'than'
p5730
aS'mine'
p5731
aaa(lp5732
g5727
a(lp5733
S'Mine'
p5734
aS'cost'
p5735
aS'me'
p5736
aS'sixty'
p5737
aS'bucks'
p5738
aaa(lp5739
S'RICHARDAnd'
p5740
a(lp5741
g7
aS'didnt'
p5742
aS'have'
p5743
aS'to'
p5744
aS'pay'
p5745
aS'any'
p5746
aS'sales'
p5747
aS'tax'
p5748
aaa(lp5749
g5740
a(lp5750
S'When'
p5751
ag7
aS'registered'
p5752
aS'the'
p5753
aS'car'
p5754
aaa(lp5755
S'FREDYeah'
p5756
a(lp5757
aa(lp5758
g5756
a(lp5759
S'How'
p5760
aS'come'
p5761
aaa(lp5762
g5756
a(lp5763
S'Oh'
p5764
aS'you'
p5765
aS'did'
p5766
aS'it'
p5767
aaa(lp5768
g5756
a(lp5769
S'like'
p5770
aS'you'
p5771
aS'said'
p5772
aS'you'
p5773
aS'were'
p5774
aS'gonna'
p5775
aS'do'
p5776
aaa(lp5777
S'RICHARD'
p5778
a(lp5779
S'Jeanie'
p5780
aS'gave'
p5781
aS'it'
p5782
aS'to'
p5783
aS'me'
p5784
aS'as'
p5785
ag28
aS'gift'
p5786
aaa(lp5787
S'FREDAlright'
p5788
a(lp5789
S'homes'
p5790
aaa(lp5791
S'RICHARDShe'
p5792
a(lp5793
aa(lp5794
g5792
a(lp5795
S'she'
p5796
aS'backed'
p5797
aS'me'
p5798
aS'up'
p5799
aaa(lp5800
g5792
a(lp5801
S'Shes'
p5802
aS'being'
p5803
aS'cool'
p5804
aaa(lp5805
S'FRED'
p5806
a(lp5807
S'Yeah'
p5808
aaa(lp5809
S'RICHARDShe'
p5810
a(lp5811
S'put'
p5812
aaa(lp5813
g5810
a(lp5814
S'that'
p5815
ag7
aS'gave'
p5816
aS'this'
p5817
aS'car'
p5818
aS'to'
p5819
aS'Richard'
p5820
aS'Torres'
p5821
aS'for'
p5822
ag28
aS'gift'
p5823
aaa(lp5824
g5810
a(lp5825
S'So'
p5826
ag7
aS'didnt'
p5827
aS'have'
p5828
aS'to'
p5829
aS'pay'
p5830
aS'any'
p5831
aS'sales'
p5832
aS'tax'
p5833
aaa(lp5834
S'FREDTax'
p5835
a(lp5836
aa(lp5837
S'RICHARDOtherwise'
p5838
a(lp5839
g7
aS'wouldve'
p5840
aS'd'
p5841
aS'got'
p5842
aS'stuck'
p5843
aaa(lp5844
g5838
a(lp5845
S'threehundred'
p5846
aS'dollars'
p5847
aS'just'
p5848
aS'in'
p5849
aS'sales'
p5850
aS'tax'
p5851
aS'alone'
p5852
aaa(lp5853
g5838
a(lp5854
S'And'
p5855
aS'uh'
p5856
aaa(lp5857
g5838
a(lp5858
g7
aS'got'
p5859
aS'custom'
p5860
aS'plates'
p5861
aS'on'
p5862
aS'it'
p5863
aaa(lp5864
S'FREDWhat'
p5865
a(lp5866
aa(lp5867
g5865
a(lp5868
S'What'
p5869
aS'does'
p5870
aS'it'
p5871
aS'say'
p5872
aaa(lp5873
S'RICHARD'
p5874
a(lp5875
S'Hustlin'
p5876
aaa(lp5877
S'FRED'
p5878
a(lp5879
S'Hustlin'
p5880
aaa(lp5881
g5878
a(lp5882
S'Nobody'
p5883
aS'else'
p5884
aS'had'
p5885
aS'that'
p5886
aaa(lp5887
S'RICHARD'
p5888
a(lp5889
S'Thirtysix'
p5890
aS'bucks'
p5891
ag28
aS'year'
p5892
aaa(lp5893
S'FRED'
p5894
a(lp5895
aa(lp5896
S'RICHARDBut'
p5897
a(lp5898
S'thats'
p5899
ag28
aS'good'
p5900
aS'one'
p5901
aaa(lp5902
S'FRED'
p5903
a(lp5904
aa(lp5905
S'RICHARDfor'
p5906
a(lp5907
S'thats'
p5908
aS'what'
p5909
aS'Im'
p5910
aS'doing'
p5911
aS'now'
p5912
aaa(lp5913
g5906
a(lp5914
S'Thats'
p5915
aS'my'
p5916
aS'life'
p5917
aaa(lp5918
S'FREDYeah'
p5919
a(lp5920
aa(lp5921
g5919
a(lp5922
S'really'
p5923
aaa(lp5924
S'RICHARDI'
p5925
a(lp5926
S'gotta'
p5927
aS'hustle'
p5928
aS'to'
p5929
aS'make'
p5930
aS'money'
p5931
aaa(lp5932
g5925
a(lp5933
S'If'
p5934
ag7
aS'dont'
p5935
aS'hustle'
p5936
aaa(lp5937
g5925
a(lp5938
S'Im'
p5939
aS'not'
p5940
aS'gonna'
p5941
aS'make'
p5942
aS'money'
p5943
aaa(lp5944
S'FRED'
p5945
a(lp5946
S'Yeah'
p5947
aaa(lp5948
S'RICHARD'
p5949
a(lp5950
S'But'
p5951
aS'everythings'
p5952
aaa(lp5953
g5949
a(lp5954
S'Everythings'
p5955
aS'hap'
p5956
aaa(lp5957
g5949
a(lp5958
S'You'
p5959
aS'know'
p5960
aaa(lp5961
g5949
a(lp5962
S'fell'
p5963
aS'into'
p5964
aS'place'
p5965
aS'pretty'
p5966
aS'good'
p5967
aaa(lp5968
g5949
a(lp5969
g7
aS'mean'
p5970
aaa(lp5971
g5949
a(lp5972
S'things'
p5973
aS'happen'
p5974
aS'for'
p5975
ag28
aS'reason'
p5976
aaa(lp5977
g5949
a(lp5978
g1985
aS'this'
p5979
aaa(lp5980
g5949
a(lp5981
S'The'
p5982
aS'situation'
p5983
aS'that'
p5984
aS'Im'
p5985
aS'in'
p5986
aS'happened'
p5987
aS'for'
p5988
ag28
aS'reason'
p5989
aaa(lp5990
g5949
a(lp5991
g7
aS'changed'
p5992
aS'my'
p5993
aS'career'
p5994
aaa(lp5995
g5949
a(lp5996
g7
aS'took'
p5997
aS'care'
p5998
aS'of'
p5999
aS'everything'
p6000
ag7
aS'had'
p6001
aS'to'
p6002
aS'take'
p6003
aS'care'
p6004
aS'of'
p6005
aS'with'
p6006
aS'the'
p6007
aS'car'
p6008
aaa(lp6009
g5949
a(lp6010
S'And'
p6011
aS'uh'
p6012
aaa(lp6013
g5949
a(lp6014
S'now'
p6015
aS'Im'
p6016
aS'gonna'
p6017
aaa(lp6018
g5949
a(lp6019
S'j'
p6020
aS'save'
p6021
aS'my'
p6022
aS'money'
p6023
aS'and'
p6024
aaa(lp6025
g5949
a(lp6026
S'try'
p6027
aS'to'
p6028
aS'get'
p6029
aS'my'
p6030
aS'own'
p6031
aS'pad'
p6032
aaa(lp6033
g5949
a(lp6034
S'Condominium'
p6035
aS'or'
p6036
aS'whatever'
p6037
aS'the'
p6038
aS'case'
p6039
aS'may'
p6040
aS'be'
p6041
aaa(lp6042
S'FREDX'
p6043
a(lp6044
aa(lp6045
S'RICHARD'
p6046
a(lp6047
S'Im'
p6048
aS'gonna'
p6049
aS'be'
p6050
aS'saving'
p6051
ag28
aS'lotta'
p6052
aS'money'
p6053
aS'working'
p6054
aS'here'
p6055
aaa(lp6056
g6046
a(lp6057
S'so'
p6058
aS'if'
p6059
aS'Im'
p6060
aS'making'
p6061
aS'decent'
p6062
aS'money'
p6063
aaa(lp6064
g6046
a(lp6065
S'Ill'
p6066
aS'be'
p6067
aS'able'
p6068
aS'to'
p6069
aS'uh'
p6070
aaa(lp6071
S'FRED'
p6072
a(lp6073
S'To'
p6074
aaa(lp6075
S'RICHARDget'
p6076
a(lp6077
S'something'
p6078
aS'on'
p6079
aS'my'
p6080
aS'own'
p6081
aaa(lp6082
S'FRED'
p6083
a(lp6084
S'Yeah'
p6085
aaa(lp6086
S'RICHARD'
p6087
a(lp6088
S'With'
p6089
aS'the'
p6090
aS'help'
p6091
aS'of'
p6092
aS'my'
p6093
aS'parents'
p6094
aS'of'
p6095
aS'course'
p6096
aaa(lp6097
g6087
a(lp6098
S'because'
p6099
aaa(lp6100
S'FREDWhen'
p6101
a(lp6102
S'you'
p6103
aS'say'
p6104
aS'it'
p6105
aS'happens'
p6106
aS'for'
p6107
ag28
aS'reason'
p6108
aaa(lp6109
g6101
a(lp6110
S'its'
p6111
aS'like'
p6112
aaa(lp6113
g6101
a(lp6114
S'it'
p6115
aS'happened'
p6116
aaa(lp6117
g6101
a(lp6118
S'to'
p6119
aS'get'
p6120
aS'you'
p6121
aS'off'
p6122
aaa(lp6123
S'RICHARD'
p6124
a(lp6125
S'Off'
p6126
aS'my'
p6127
aS'ass'
p6128
aaa(lp6129
S'FREDOff'
p6130
a(lp6131
S'your'
p6132
aaa(lp6133
S'RICHARDGet'
p6134
a(lp6135
S'me'
p6136
aS'out'
p6137
aS'of'
p6138
aS'the'
p6139
aS'factory'
p6140
aaa(lp6141
g6134
a(lp6142
S'get'
p6143
aS'me'
p6144
aS'into'
p6145
ag28
aS'career'
p6146
aS'that'
p6147
ag7
aS'can'
p6148
aS'make'
p6149
aS'good'
p6150
aS'money'
p6151
aaa(lp6152
g6134
a(lp6153
S'and'
p6154
aS'uh'
p6155
aaa(lp6156
g6134
a(lp6157
S'to'
p6158
aS'realize'
p6159
aS'that'
p6160
aS'uh'
p6161
aaa(lp6162
g6134
a(lp6163
g7
aS'had'
p6164
ag28
aS'good'
p6165
aS'woman'
p6166
aaa(lp6167
g6134
a(lp6168
S'and'
p6169
ag7
aS'shouldnt'
p6170
aaa(lp6171
g6134
a(lp6172
g7
aS'shouldnt'
p6173
aS'wanna'
p6174
aS'have'
p6175
aS'anybody'
p6176
aS'else'
p6177
aaa(lp6178
g6134
a(lp6179
S'She'
p6180
aS'spent'
p6181
aS'twelve'
p6182
aS'years'
p6183
aS'of'
p6184
aS'her'
p6185
aS'life'
p6186
aS'with'
p6187
aS'me'
p6188
aS'and'
p6189
aS'uh'
p6190
aaa(lp6191
g6134
a(lp6192
S'shes'
p6193
aS'always'
p6194
aS'been'
p6195
aS'positive'
p6196
aS'thinker'
p6197
aaa(lp6198
g6134
a(lp6199
S'and'
p6200
aS'uh'
p6201
aaa(lp6202
g6134
a(lp6203
S'always'
p6204
aS'been'
p6205
aS'good'
p6206
aaa(lp6207
S'FRED'
p6208
a(lp6209
S'Yeah'
p6210
aaa(lp6211
S'RICHARD'
p6212
a(lp6213
S'understanding'
p6214
aaa(lp6215
g6212
a(lp6216
S'and'
p6217
aS'uh'
p6218
aaa(lp6219
S'FRED'
p6220
a(lp6221
S'Sure'
p6222
aaa(lp6223
g6220
a(lp6224
S'itd'
p6225
aS'be'
p6226
aS'different'
p6227
aS'if'
p6228
aS'she'
p6229
aS'were'
p6230
ag28
aS'bitch'
p6231
aS'and'
p6232
aS'always'
p6233
aS'nagging'
p6234
aaa(lp6235
S'RICHARDYeah'
p6236
a(lp6237
aa(lp6238
S'FREDyou'
p6239
a(lp6240
S'know'
p6241
aS'and'
p6242
aS'then'
p6243
aaa(lp6244
S'RICHARDexactly'
p6245
a(lp6246
aa(lp6247
S'FRED'
p6248
a(lp6249
S'getting'
p6250
aS'on'
p6251
aS'your'
p6252
aS'case'
p6253
aaa(lp6254
S'RICHARDOr'
p6255
a(lp6256
S'didnt'
p6257
aS'like'
p6258
aaa(lp6259
S'FREDand'
p6260
a(lp6261
S'making'
p6262
aS'your'
p6263
aS'life'
p6264
aS'impossible'
p6265
aaa(lp6266
S'RICHARD'
p6267
a(lp6268
S'didnt'
p6269
aS'enjoy'
p6270
aS'doing'
p6271
aS'anything'
p6272
aaa(lp6273
g6267
a(lp6274
S'she'
p6275
aS'always'
p6276
aS'was'
p6277
aaa(lp6278
S'FREDYeah'
p6279
a(lp6280
aa(lp6281
S'RICHARDyou'
p6282
a(lp6283
S'know'
p6284
aaa(lp6285
S'FRED'
p6286
a(lp6287
S'exactly'
p6288
aaa(lp6289
S'RICHARD'
p6290
a(lp6291
S'pretty'
p6292
aS'much'
p6293
aS'uh'
p6294
aaa(lp6295
g6290
a(lp6296
S'able'
p6297
aS'to'
p6298
aS'do'
p6299
aS'anything'
p6300
aS'that'
p6301
ag7
aS'wanted'
p6302
aS'to'
p6303
aS'do'
p6304
aaa(lp6305
g6290
a(lp6306
S'She'
p6307
aS'was'
p6308
aS'never'
p6309
aS'negative'
p6310
aS'or'
p6311
aS'anything'
p6312
aS'and'
p6313
aS'uh'
p6314
aaa(lp6315
g6290
a(lp6316
S'it'
p6317
aS'was'
p6318
aS'basically'
p6319
aS'me'
p6320
aaa(lp6321
g6290
a(lp6322
S'you'
p6323
aS'know'
p6324
aS'going'
p6325
aS'out'
p6326
aaa(lp6327
g6290
a(lp6328
S'The'
p6329
aS'problem'
p6330
aS'going'
p6331
aS'out'
p6332
aaa(lp6333
g6290
a(lp6334
S'So'
p6335
aS'it'
p6336
aS'happened'
p6337
aS'for'
p6338
ag28
aS'reason'
p6339
aaa(lp6340
g6290
a(lp6341
S'Now'
p6342
ag7
aS'hope'
p6343
aS'that'
p6344
aaa(lp6345
g6290
a(lp6346
S'you'
p6347
aS'know'
p6348
aaa(lp6349
g6290
a(lp6350
S'in'
p6351
aS'the'
p6352
aS'future'
p6353
aS'she'
p6354
aaa(lp6355
g6290
a(lp6356
S'she'
p6357
aS'realizes'
p6358
aS'that'
p6359
aS'Im'
p6360
aaa(lp6361
g6290
a(lp6362
g7
aS'have'
p6363
aS'have'
p6364
aS'changed'
p6365
aS'and'
p6366
aS'matured'
p6367
aS'and'
p6368
aaa(lp6369
g6290
a(lp6370
S'and'
p6371
aS'that'
p6372
aS'she'
p6373
aS'would'
p6374
aS'give'
p6375
aS'me'
p6376
aS'that'
p6377
aS'chance'
p6378
aaa(lp6379
g6290
a(lp6380
S'you'
p6381
aS'know'
p6382
aaa(lp6383
S'FRED'
p6384
a(lp6385
S'To'
p6386
aS'go'
p6387
aaa(lp6388
S'RICHARDto'
p6389
a(lp6390
S'go'
p6391
aS'back'
p6392
aS'with'
p6393
aS'her'
p6394
aaa(lp6395
S'FRED'
p6396
a(lp6397
S'To'
p6398
aS'go'
p6399
aS'back'
p6400
aaa(lp6401
S'RICHARDand'
p6402
a(lp6403
S'try'
p6404
aS'to'
p6405
aS'make'
p6406
aS'our'
p6407
aS'life'
p6408
aS'work'
p6409
aS'together'
p6410
aaa(lp6411
S'FRED'
p6412
a(lp6413
S'Yeah'
p6414
aaa(lp6415
S'RICHARD'
p6416
a(lp6417
S'But'
p6418
aS'only'
p6419
aS'time'
p6420
aS'will'
p6421
aS'tell'
p6422
aaa(lp6423
g6416
a(lp6424
g7
aS'gotta'
p6425
aS'prove'
p6426
aS'it'
p6427
aS'to'
p6428
aS'her'
p6429
aaa(lp6430
g6416
a(lp6431
S'And'
p6432
aaa(lp6433
g6416
a(lp6434
g7
aS'gotta'
p6435
aS'leave'
p6436
aS'her'
p6437
aS'on'
p6438
aS'her'
p6439
aS'own'
p6440
aaa(lp6441
g6416
a(lp6442
S'let'
p6443
aS'her'
p6444
aS'see'
p6445
aaa(lp6446
g6416
a(lp6447
S'you'
p6448
aS'know'
p6449
aaa(lp6450
S'FRED'
p6451
a(lp6452
S'Yeah'
p6453
aaa(lp6454
S'RICHARD'
p6455
a(lp6456
S'Even'
p6457
aS'if'
p6458
aS'she'
p6459
aS'goes'
p6460
aS'out'
p6461
aS'with'
p6462
aS'other'
p6463
aS'men'
p6464
aaa(lp6465
g6455
a(lp6466
S'or'
p6467
aS'dates'
p6468
aS'other'
p6469
aS'men'
p6470
aaa(lp6471
g6455
a(lp6472
S'if'
p6473
aS'thats'
p6474
aaa(lp6475
g6455
a(lp6476
S'if'
p6477
aS'if'
p6478
aS'she'
p6479
aS'does'
p6480
aS'feel'
p6481
aS'any'
p6482
aS'attraction'
p6483
aS'towards'
p6484
aS'anybody'
p6485
aS'else'
p6486
aaa(lp6487
g6455
a(lp6488
S'Ill'
p6489
aS'never'
p6490
aS'know'
p6491
aaa(lp6492
S'FRED'
p6493
a(lp6494
S'But'
p6495
aS'shell'
p6496
aS'know'
p6497
aS'what'
p6498
aS'her'
p6499
aS'good'
p6500
aS'thing'
p6501
aS'was'
p6502
aaa(lp6503
S'RICHARD'
p6504
a(lp6505
g1985
aS'yeah'
p6506
aaa(lp6507
S'FREDThats'
p6508
a(lp6509
S'for'
p6510
aS'sure'
p6511
aaa(lp6512
S'RICHARDdefinitely'
p6513
a(lp6514
aa.