(lp0
(lp1
S'BEN'
p2
a(lp3
S'Okay'
p4
aS'folks'
p5
aaa(lp6
g2
a(lp7
S'were'
p8
aS'coming'
p9
aS'to'
p10
aS'a'
p11
aS'short'
p12
aS'stairway'
p13
aaa(lp14
g2
a(lp15
S'use'
p16
aS'the'
p17
aS'handrails'
p18
aaa(lp19
g2
a(lp20
S'and'
p21
aS'be'
p22
aS'careful'
p23
aS'please'
p24
aaa(lp25
S'ENV'
p26
a(lp27
aa(lp28
S'BENOkay'
p29
a(lp30
S'folks'
p31
aaa(lp32
g29
a(lp33
S'lets'
p34
aS'find'
p35
aS'out'
p36
aS'where'
p37
aS'we'
p38
aS'are'
p39
aaa(lp40
g29
a(lp41
S'We'
p42
aS'got'
p43
aS'on'
p44
aS'the'
p45
aS'elevator'
p46
aS'right'
p47
aS'here'
p48
aaa(lp49
g29
a(lp50
S'came'
p51
aS'down'
p52
aS'and'
p53
aS'stood'
p54
aS'on'
p55
aS'the'
p56
aS'balcony'
p57
aS'overlooking'
p58
aS'the'
p59
aS'power'
p60
aS'plant'
p61
aaa(lp62
g29
a(lp63
S'down'
p64
aS'that'
p65
aS'stairway'
p66
aaa(lp67
g29
a(lp68
S'out'
p69
aS'on'
p70
aS'the'
p71
aS'power'
p72
aS'plant'
p73
aS'ramp'
p74
aS'about'
p75
aS'that'
p76
aS'far'
p77
aaa(lp78
g29
a(lp79
S'then'
p80
aS'right'
p81
aS'at'
p82
aS'that'
p83
aS'yellow'
p84
aS'line'
p85
aaa(lp86
g29
a(lp87
S'And'
p88
aS'youre'
p89
aS'now'
p90
aS'standing'
p91
aS'over'
p92
aS'the'
p93
aS'secondlargest'
p94
aS'water'
p95
aS'pipe'
p96
aS'in'
p97
aS'the'
p98
aS'world'
p99
aaa(lp100
g29
a(lp101
S'and'
p102
aS'its'
p103
aS'called'
p104
ag11
aS'penstock'
p105
aaa(lp106
g29
a(lp107
S'More'
p108
aS'about'
p109
aS'that'
p110
ag11
aS'little'
p111
aS'bit'
p112
aS'later'
p113
aaa(lp114
g29
a(lp115
S'The'
p116
aS'Colorado'
p117
aS'River'
p118
aaa(lp119
g29
a(lp120
S'flows'
p121
aS'in'
p122
aS'this'
p123
aS'direction'
p124
aaa(lp125
g29
a(lp126
S'In'
p127
aS'order'
p128
aS'to'
p129
aS'build'
p130
ag11
aS'dam'
p131
aS'here'
p132
aaa(lp133
g29
a(lp134
S'the'
p135
aS'very'
p136
aS'first'
p137
aS'thing'
p138
aS'they'
p139
aS'had'
p140
aS'to'
p141
aS'do'
p142
aaa(lp143
g29
a(lp144
S'was'
p145
aS'to'
p146
aS'get'
p147
aS'rid'
p148
aS'of'
p149
aS'that'
p150
aS'river'
p151
aaa(lp152
g29
a(lp153
S'So'
p154
aS'they'
p155
aS'came'
p156
aS'up'
p157
aS'here'
p158
aS'above'
p159
aS'where'
p160
aS'the'
p161
aS'dam'
p162
aS'was'
p163
aS'to'
p164
aS'be'
p165
aS'built'
p166
aaa(lp167
g29
a(lp168
S'and'
p169
aS'drilled'
p170
aS'and'
p171
aS'blasted'
p172
aS'out'
p173
aaa(lp174
g29
a(lp175
S'four'
p176
aS'diversion'
p177
aS'tunnels'
p178
aaa(lp179
g29
a(lp180
S'Two'
p181
aS'on'
p182
aS'either'
p183
aS'side'
p184
aaa(lp185
g29
a(lp186
S'into'
p187
aS'the'
p188
aS'canyon'
p189
aS'wall'
p190
aaa(lp191
g29
a(lp192
S'around'
p193
aS'where'
p194
aS'the'
p195
aS'dam'
p196
aS'was'
p197
aS'to'
p198
aS'be'
p199
aS'built'
p200
aaa(lp201
g29
a(lp202
S'out'
p203
aS'in'
p204
aS'the'
p205
aS'river'
p206
aS'down'
p207
aS'below'
p208
aaa(lp209
g29
a(lp210
S'Each'
p211
aS'one'
p212
aS'of'
p213
aS'these'
p214
aS'tunnels'
p215
aS'were'
p216
aS'drilled'
p217
aS'and'
p218
aS'blasted'
p219
aS'out'
p220
aS'at'
p221
aS'fiftysix'
p222
aS'feet'
p223
aS'in'
p224
aS'diameter'
p225
aaa(lp226
g29
a(lp227
S'and'
p228
aS'then'
p229
aS'lined'
p230
aS'with'
p231
aS'three'
p232
aS'feet'
p233
aS'of'
p234
aS'concrete'
p235
aaa(lp236
g29
a(lp237
S'Youre'
p238
aS'now'
p239
aS'standing'
p240
aS'in'
p241
aS'one'
p242
aS'of'
p243
aS'those'
p244
aS'old'
p245
aS'diversion'
p246
aS'tunnels'
p247
aaa(lp248
g29
a(lp249
S'They'
p250
aS'then'
p251
aS'came'
p252
aS'up'
p253
aS'here'
p254
aaa(lp255
g29
a(lp256
S'and'
p257
aS'they'
p258
aS'built'
p259
ag11
aS'cofferdam'
p260
aS'about'
p261
ag11
aS'hundred'
p262
aS'feet'
p263
aS'high'
p264
aaa(lp265
g29
a(lp266
S'to'
p267
aS'force'
p268
aS'this'
p269
aS'river'
p270
aS'into'
p271
aS'these'
p272
aS'diversion'
p273
aS'tunnels'
p274
aaa(lp275
g29
a(lp276
S'Came'
p277
aS'back'
p278
aS'down'
p279
aS'here'
p280
aaa(lp281
g29
a(lp282
S'built'
p283
aS'the'
p284
aS'other'
p285
aS'part'
p286
aS'of'
p287
aS'that'
p288
aS'cofferdam'
p289
aaa(lp290
g29
a(lp291
S'about'
p292
aS'sixtyfive'
p293
aS'feet'
p294
aS'high'
p295
aaa(lp296
g29
a(lp297
S'to'
p298
aS'keep'
p299
aS'this'
p300
aS'water'
p301
aS'from'
p302
aS'backing'
p303
aS'into'
p304
aS'the'
p305
aS'work'
p306
aS'area'
p307
aaa(lp308
g29
a(lp309
S'They'
p310
aS'now'
p311
aS'had'
p312
aS'from'
p313
aS'here'
p314
aaa(lp315
g29
a(lp316
S'to'
p317
aS'here'
p318
aS'where'
p319
aS'they'
p320
aS'could'
p321
aS'build'
p322
ag11
aS'dam'
p323
aaa(lp324
g29
a(lp325
S'They'
p326
aS'pumped'
p327
aS'the'
p328
aS'water'
p329
aS'out'
p330
aS'of'
p331
aS'this'
p332
aS'area'
p333
aaa(lp334
g29
a(lp335
S'and'
p336
aS'excavated'
p337
aS'down'
p338
aS'another'
p339
aS'hundred'
p340
aS'and'
p341
aS'thirtyfive'
p342
aS'feet'
p343
aS'to'
p344
aS'bedrock'
p345
aaa(lp346
g29
a(lp347
S'Okay'
p348
aS'folks'
p349
aaa(lp350
g29
a(lp351
S'if'
p352
aS'you'
p353
aS'will'
p354
aS'please'
p355
aaa(lp356
g29
a(lp357
S'take'
p358
ag11
aS'look'
p359
aS'at'
p360
aS'this'
p361
aS'picture'
p362
aS'taken'
p363
aS'during'
p364
aS'construction'
p365
aaa(lp366
g29
a(lp367
S'looks'
p368
aS'like'
p369
ag11
aS'series'
p370
aS'of'
p371
aS'boxes'
p372
aS'or'
p373
aS'blocks'
p374
aaa(lp375
g29
a(lp376
S'stacked'
p377
aS'one'
p378
aS'on'
p379
aS'top'
p380
aS'of'
p381
aS'the'
p382
aS'other'
p383
aaa(lp384
g29
a(lp385
S'and'
p386
aS'those'
p387
aS'are'
p388
aS'wooden'
p389
aS'concrete'
p390
aS'forms'
p391
aaa(lp392
g29
a(lp393
S'Each'
p394
aS'one'
p395
aS'of'
p396
aS'those'
p397
aS'forms'
p398
aS'are'
p399
aS'exactly'
p400
aS'five'
p401
aS'feet'
p402
aS'high'
p403
aaa(lp404
g29
a(lp405
S'but'
p406
aS'they'
p407
aS'did'
p408
aS'vary'
p409
aS'in'
p410
aS'area'
p411
aS'somewhat'
p412
aaa(lp413
g29
a(lp414
S'because'
p415
aS'they'
p416
aS'did'
p417
aS'not'
p418
aS'build'
p419
aS'the'
p420
aS'dam'
p421
aS'right'
p422
aS'straight'
p423
aS'across'
p424
aS'the'
p425
aS'river'
p426
aaa(lp427
g29
a(lp428
S'from'
p429
aS'canyon'
p430
aS'wall'
p431
aS'to'
p432
aS'canyon'
p433
aS'wall'
p434
aaa(lp435
g29
a(lp436
S'they'
p437
aS'built'
p438
aS'it'
p439
aS'in'
p440
aS'the'
p441
aS'form'
p442
aS'of'
p443
aS'an'
p444
aS'arc'
p445
aaa(lp446
g29
a(lp447
S'And'
p448
aS'its'
p449
aS'called'
p450
aS'an'
p451
aS'arch'
p452
aS'gravity'
p453
aS'design'
p454
aS'dam'
p455
aaa(lp456
g29
a(lp457
S'Where'
p458
aS'the'
p459
aS'force'
p460
aS'of'
p461
aS'the'
p462
aS'water'
p463
aaa(lp464
g29
a(lp465
S'coming'
p466
aS'down'
p467
aS'the'
p468
aS'Colorado'
p469
aS'River'
p470
aS'hits'
p471
aS'the'
p472
aS'face'
p473
aS'of'
p474
aS'the'
p475
aS'dam'
p476
aaa(lp477
g29
a(lp478
S'and'
p479
aS'tends'
p480
aS'to'
p481
aS'try'
p482
aS'to'
p483
aS'drive'
p484
aS'these'
p485
aS'wingtips'
p486
aS'further'
p487
aS'into'
p488
aS'the'
p489
aS'canyon'
p490
aS'wall'
p491
aaa(lp492
g29
a(lp493
S'Its'
p494
ag11
aS'very'
p495
aS'strong'
p496
aS'design'
p497
aaa(lp498
g29
a(lp499
S'They'
p500
aS'did'
p501
aS'build'
p502
aS'two'
p503
aS'concrete'
p504
aS'mixing'
p505
aS'plants'
p506
aS'here'
p507
aaa(lp508
g29
a(lp509
S'they'
p510
aS'did'
p511
aS'pour'
p512
aS'concrete'
p513
aS'for'
p514
aS'twentyfour'
p515
aS'hours'
p516
ag11
aS'day'
p517
aaa(lp518
g29
a(lp519
S'seven'
p520
aS'days'
p521
ag11
aS'week'
p522
aaa(lp523
g29
a(lp524
S'three'
p525
aS'hundred'
p526
aS'and'
p527
aS'sixtyfive'
p528
aS'days'
p529
ag11
aS'year'
p530
aaa(lp531
g29
a(lp532
S'For'
p533
aS'two'
p534
aS'years'
p535
aaa(lp536
g29
a(lp537
S'less'
p538
aS'six'
p539
aS'days'
p540
aaa(lp541
g29
a(lp542
S'Now'
p543
aS'every'
p544
aS'bit'
p545
aS'of'
p546
aS'that'
p547
aS'concrete'
p548
aS'came'
p549
aS'down'
p550
aS'in'
p551
aS'individual'
p552
aS'eightcubicyard'
p553
aS'bucketloads'
p554
aaa(lp555
g29
a(lp556
S'Eight'
p557
aS'cubic'
p558
aS'yards'
p559
aS'of'
p560
aS'concrete'
p561
aS'into'
p562
aS'one'
p563
aS'of'
p564
aS'these'
p565
aS'forms'
p566
aaa(lp567
g29
a(lp568
S'the'
p569
aS'smallest'
p570
aS'of'
p571
aS'which'
p572
aS'is'
p573
aS'twentytwo'
p574
aS'by'
p575
aS'twentyfive'
p576
aS'feet'
p577
aaa(lp578
g29
a(lp579
S'only'
p580
aS'filled'
p581
aS'that'
p582
aS'form'
p583
aS'up'
p584
aS'about'
p585
aS'three'
p586
aS'or'
p587
aS'four'
p588
aS'inches'
p589
aS'deep'
p590
aaa(lp591
g29
a(lp592
S'So'
p593
aS'there'
p594
aS'goes'
p595
aS'that'
p596
aS'story'
p597
aS'you'
p598
aS'may'
p599
aS'have'
p600
aS'heard'
p601
aaa(lp602
g29
a(lp603
S'that'
p604
aS'there'
p605
aS'are'
p606
aS'workers'
p607
aS'buried'
p608
aS'in'
p609
aS'the'
p610
aS'concrete'
p611
aS'here'
p612
aaa(lp613
g29
a(lp614
S'Couldnt'
p615
aS'possibly'
p616
aS'happen'
p617
aaa(lp618
g29
a(lp619
S'But'
p620
aS'what'
p621
aS'they'
p622
aS'did'
p623
aS'bury'
p624
aS'in'
p625
aS'that'
p626
aS'freshly'
p627
aS'poured'
p628
aS'concrete'
p629
aaa(lp630
g29
a(lp631
S'was'
p632
aS'oneinch'
p633
aS'steel'
p634
aS'water'
p635
aS'pipe'
p636
aaa(lp637
g29
a(lp638
S'They'
p639
aS'came'
p640
aS'down'
p641
aS'here'
p642
aS'in'
p643
aS'this'
p644
aS'lower'
p645
aS'cofferdam'
p646
aaa(lp647
g29
a(lp648
S'and'
p649
aS'they'
p650
aS'built'
p651
aS'an'
p652
aS'ice'
p653
aS'plant'
p654
aaa(lp655
g29
a(lp656
S'Capable'
p657
aS'of'
p658
aS'making'
p659
ag11
aS'thousand'
p660
aS'tons'
p661
aS'of'
p662
aS'ice'
p663
ag11
aS'day'
p664
aaa(lp665
g29
a(lp666
S'They'
p667
aS'used'
p668
aS'that'
p669
aS'ice'
p670
aaa(lp671
g29
a(lp672
S'to'
p673
aS'chill'
p674
aS'the'
p675
aS'water'
p676
aaa(lp677
g29
a(lp678
S'that'
p679
aS'they'
p680
aS'forced'
p681
aS'through'
p682
aS'that'
p683
aS'pipe'
p684
aS'in'
p685
aS'this'
p686
aS'newly'
p687
aS'placed'
p688
aS'concrete'
p689
aaa(lp690
g29
a(lp691
S'As'
p692
aS'concrete'
p693
aS'hardens'
p694
aaa(lp695
g29
a(lp696
S'or'
p697
aS'cures'
p698
aS'as'
p699
aS'we'
p700
aS'call'
p701
aS'it'
p702
aaa(lp703
g29
a(lp704
S'it'
p705
aS'produces'
p706
aS'heat'
p707
aaa(lp708
g29
a(lp709
S'The'
p710
aS'more'
p711
aS'you'
p712
aS'can'
p713
aS'control'
p714
aS'that'
p715
aS'heat'
p716
aaa(lp717
g29
a(lp718
S'the'
p719
aS'better'
p720
aS'job'
p721
aS'of'
p722
aS'curing'
p723
aS'youre'
p724
aS'going'
p725
aS'to'
p726
aS'get'
p727
aaa(lp728
g29
a(lp729
S'So'
p730
aS'they'
p731
aS'used'
p732
aS'the'
p733
aS'chilled'
p734
aS'water'
p735
aS'method'
p736
aaa(lp737
g29
a(lp738
S'of'
p739
aS'taking'
p740
aS'that'
p741
aS'cold'
p742
aS'water'
p743
aaa(lp744
g29
a(lp745
S'forcing'
p746
aS'it'
p747
aS'through'
p748
aS'that'
p749
aS'pipe'
p750
aS'in'
p751
aS'that'
p752
aS'newly'
p753
aS'placed'
p754
aS'concrete'
p755
aaa(lp756
g29
a(lp757
S'picking'
p758
aS'up'
p759
aS'some'
p760
aS'of'
p761
aS'that'
p762
aS'heat'
p763
aaa(lp764
g29
a(lp765
S'then'
p766
aS'carrying'
p767
aS'that'
p768
aS'heat'
p769
aS'out'
p770
aS'and'
p771
aS'away'
p772
aaa(lp773
g29
a(lp774
S'They'
p775
aS'felt'
p776
aS'if'
p777
aS'they'
p778
aS'did'
p779
aS'not'
p780
aS'use'
p781
ag11
aS'method'
p782
aS'such'
p783
aS'as'
p784
aS'this'
p785
aaa(lp786
g29
a(lp787
S'that'
p788
aS'it'
p789
aS'wouldve'
p790
aS'taken'
p791
aS'approximately'
p792
aS'one'
p793
aS'hundred'
p794
aS'and'
p795
aS'fifty'
p796
aS'years'
p797
aaa(lp798
g29
a(lp799
S'for'
p800
aS'the'
p801
aS'concrete'
p802
aS'in'
p803
aS'the'
p804
aS'interior'
p805
aS'part'
p806
aS'of'
p807
aS'the'
p808
aS'dam'
p809
aS'to'
p810
aS'cool'
p811
aS'down'
p812
aaa(lp813
g29
a(lp814
S'So'
p815
aS'the'
p816
aS'system'
p817
aS'did'
p818
aS'work'
p819
aaa(lp820
g29
a(lp821
S'And'
p822
aS'then'
p823
aS'it'
p824
aS'hardened'
p825
aaa(lp826
g29
a(lp827
S'and'
p828
aS'they'
p829
aS'remove'
p830
aS'these'
p831
aS'wooden'
p832
aS'forms'
p833
aaa(lp834
g29
a(lp835
S'X'
p836
aS'they'
p837
ag836
aS'left'
p838
aS'voids'
p839
aaa(lp840
g29
a(lp841
S'Vertically'
p842
aS'and'
p843
aS'horizontally'
p844
aS'these'
p845
aS'forms'
p846
aS'came'
p847
aS'together'
p848
aaa(lp849
g29
a(lp850
S'those'
p851
aS'voids'
p852
aS'were'
p853
aS'filled'
p854
aS'with'
p855
aS'grout'
p856
aaa(lp857
g29
a(lp858
S'Under'
p859
aS'high'
p860
aS'pressure'
p861
aaa(lp862
g29
a(lp863
S'Grout'
p864
aS'being'
p865
ag11
aS'mixture'
p866
aS'of'
p867
aS'concrete'
p868
aS'and'
p869
aS'water'
p870
aaa(lp871
g29
a(lp872
S'When'
p873
aS'this'
p874
aS'is'
p875
aS'done'
p876
aaa(lp877
g29
a(lp878
S'you'
p879
aS'have'
p880
aS'what'
p881
aS'we'
p882
aS'call'
p883
ag11
aS'modified'
p884
aS'monolithic'
p885
aS'pour'
p886
aaa(lp887
g29
a(lp888
S'or'
p889
aS'basically'
p890
ag11
aS'solid'
p891
aS'block'
p892
aS'of'
p893
aS'concrete'
p894
aaa(lp895
g29
a(lp896
S'which'
p897
aS'when'
p898
aS'completed'
p899
aS'would'
p900
aS'be'
p901
aS'six'
p902
aS'hundred'
p903
aS'and'
p904
aS'sixty'
p905
aS'feet'
p906
aS'across'
p907
aS'the'
p908
aS'base'
p909
aaa(lp910
g29
a(lp911
S'fourtyfive'
p912
aS'feet'
p913
aS'across'
p914
aS'the'
p915
aS'top'
p916
aaa(lp917
g29
a(lp918
S'twelve'
p919
aS'hundred'
p920
aS'and'
p921
aS'fourtyfour'
p922
aS'feet'
p923
aS'from'
p924
aS'wingtip'
p925
aS'to'
p926
aS'wingtip'
p927
aaa(lp928
g29
a(lp929
S'seven'
p930
aS'hundred'
p931
aS'and'
p932
aS'twentysix'
p933
aS'point'
p934
aS'four'
p935
aS'feet'
p936
aS'high'
p937
aaa(lp938
g29
a(lp939
S'MRC'
p940
aS'Six'
p941
aS'point'
p942
aS'six'
p943
aS'million'
p944
aS'tons'
p945
aS'of'
p946
aS'concrete'
p947
aS'MRC'
p948
aaa(lp949
g29
a(lp950
S'Thats'
p951
aS'enough'
p952
aS'concrete'
p953
aS'to'
p954
aS'build'
p955
ag11
aS'twolane'
p956
aS'highway'
p957
aS'from'
p958
aS'New'
p959
aS'York'
p960
aS'City'
p961
aS'to'
p962
aS'San'
p963
aS'Francisco'
p964
aaa(lp965
g29
a(lp966
S'Or'
p967
aaa(lp968
g29
a(lp969
S'put'
p970
aS'another'
p971
aS'way'
p972
aaa(lp973
g29
a(lp974
g11
aS'fourfoot'
p975
aS'wide'
p976
aS'sidewalk'
p977
aS'from'
p978
aS'the'
p979
aS'North'
p980
aS'Pole'
p981
aS'to'
p982
aS'the'
p983
aS'South'
p984
aS'Pole'
p985
aaa(lp986
g29
a(lp987
S'Then'
p988
aS'they'
p989
aS'had'
p990
aS'to'
p991
aS'protect'
p992
aS'that'
p993
aS'concrete'
p994
ag11
aS'little'
p995
aS'bit'
p996
aaa(lp997
g29
a(lp998
S'the'
p999
aS'next'
p1000
aS'thing'
p1001
aS'they'
p1002
aS'had'
p1003
aS'to'
p1004
aS'do'
p1005
aS'then'
p1006
aS'is'
p1007
aS'build'
p1008
ag11
aS'couple'
p1009
aS'of'
p1010
aS'spillways'
p1011
aaa(lp1012
g29
a(lp1013
S'As'
p1014
aS'you'
p1015
aS'got'
p1016
aS'out'
p1017
aS'of'
p1018
aS'your'
p1019
aS'cars'
p1020
aS'or'
p1021
aS'your'
p1022
aS'busses'
p1023
aS'this'
p1024
aS'afternoon'
p1025
aaa(lp1026
g29
a(lp1027
S'you'
p1028
aS'may'
p1029
aS'have'
p1030
aS'noticed'
p1031
aS'those'
p1032
aS'spillways'
p1033
aaa(lp1034
g29
a(lp1035
S'Here'
p1036
aS'they'
p1037
aS'are'
p1038
aaa(lp1039
g29
a(lp1040
S'one'
p1041
aS'on'
p1042
aS'either'
p1043
aS'side'
p1044
aaa(lp1045
g29
a(lp1046
S'What'
p1047
aS'they'
p1048
aS'did'
p1049
aaa(lp1050
g29
a(lp1051
S'is'
p1052
aS'they'
p1053
aS'came'
p1054
aS'in'
p1055
aS'here'
p1056
aaa(lp1057
g29
a(lp1058
S'and'
p1059
aS'they'
p1060
aS'blocked'
p1061
aS'these'
p1062
aS'diversion'
p1063
aS'tunnels'
p1064
aS'off'
p1065
aS'in'
p1066
aS'this'
p1067
aS'area'
p1068
aS'through'
p1069
aS'here'
p1070
aaa(lp1071
g29
a(lp1072
S'closed'
p1073
aS'these'
p1074
aS'gates'
p1075
aS'up'
p1076
aS'here'
p1077
aaa(lp1078
g29
a(lp1079
S'now'
p1080
aS'this'
p1081
aS'yellow'
p1082
aS'part'
p1083
aS'is'
p1084
aS'forever'
p1085
aS'under'
p1086
aS'water'
p1087
aaa(lp1088
g29
a(lp1089
S'Underneath'
p1090
aS'that'
p1091
aS'lake'
p1092
aS'out'
p1093
aS'there'
p1094
aaa(lp1095
g29
a(lp1096
S'and'
p1097
aS'completely'
p1098
aS'useless'
p1099
aaa(lp1100
g29
a(lp1101
S'But'
p1102
aS'they'
p1103
aS'did'
p1104
aS'incorporate'
p1105
aaa(lp1106
g29
a(lp1107
S'into'
p1108
aS'the'
p1109
aS'design'
p1110
aS'of'
p1111
aS'the'
p1112
aS'dam'
p1113
aaa(lp1114
g29
a(lp1115
S'the'
p1116
aS'balance'
p1117
aS'of'
p1118
aS'those'
p1119
aS'diversion'
p1120
aS'tunnels'
p1121
aaa(lp1122
g29
a(lp1123
S'using'
p1124
aS'these'
p1125
aS'outer'
p1126
aS'two'
p1127
aS'as'
p1128
aS'spillway'
p1129
aS'tunnels'
p1130
aaa(lp1131
g29
a(lp1132
S'Now'
p1133
aS'these'
p1134
aS'spillways'
p1135
aS'were'
p1136
aS'built'
p1137
aaa(lp1138
g29
a(lp1139
S'so'
p1140
aS'that'
p1141
aS'the'
p1142
aS'top'
p1143
aS'of'
p1144
aS'the'
p1145
aS'spillway'
p1146
aaa(lp1147
g29
a(lp1148
S'is'
p1149
aS'twentyseven'
p1150
aS'feet'
p1151
aS'lower'
p1152
aS'than'
p1153
aS'the'
p1154
aS'top'
p1155
aS'of'
p1156
aS'the'
p1157
aS'dam'
p1158
aaa(lp1159
g29
a(lp1160
S'This'
p1161
aS'assures'
p1162
aS'us'
p1163
aS'that'
p1164
aS'n'
p1165
aS'any'
p1166
aS'excess'
p1167
aS'water'
p1168
aS'coming'
p1169
aS'down'
p1170
aS'the'
p1171
aS'Colorado'
p1172
aS'River'
p1173
aaa(lp1174
g29
a(lp1175
S'rather'
p1176
aS'than'
p1177
aS'overtopping'
p1178
aS'the'
p1179
aS'dam'
p1180
aaa(lp1181
g29
a(lp1182
S'overtops'
p1183
aS'these'
p1184
aS'spillways'
p1185
aS'on'
p1186
aS'either'
p1187
aS'side'
p1188
aaa(lp1189
g29
a(lp1190
S'goes'
p1191
aS'into'
p1192
aS'the'
p1193
aS'canyon'
p1194
aS'wall'
p1195
aaa(lp1196
g29
a(lp1197
S'around'
p1198
aS'the'
p1199
aS'dam'
p1200
aaa(lp1201
g29
a(lp1202
S'out'
p1203
aS'in'
p1204
aS'the'
p1205
aS'river'
p1206
aS'down'
p1207
aS'below'
p1208
aaa(lp1209
g29
a(lp1210
S'two'
p1211
aS'hundred'
p1212
aS'thousand'
p1213
aS'cubic'
p1214
aS'feet'
p1215
aS'per'
p1216
aS'second'
p1217
aS'of'
p1218
aS'water'
p1219
aaa(lp1220
g29
a(lp1221
S'Thats'
p1222
aS'the'
p1223
aS'same'
p1224
aS'amount'
p1225
aS'of'
p1226
aS'water'
p1227
aS'that'
p1228
aS'goes'
p1229
aS'over'
p1230
aS'Niagara'
p1231
aS'Falls'
p1232
aaa(lp1233
g29
a(lp1234
g836
aS'Falls'
p1235
ag836
aS'three'
p1236
aS'times'
p1237
aS'higher'
p1238
aS'than'
p1239
aS'Niagara'
p1240
aS'Falls'
p1241
aS'does'
p1242
aaa(lp1243
g29
a(lp1244
S'time'
p1245
aS'that'
p1246
aS'water'
p1247
aS'reaches'
p1248
aS'this'
p1249
aS'area'
p1250
aS'down'
p1251
aS'in'
p1252
aS'here'
p1253
aaa(lp1254
g29
a(lp1255
S'it'
p1256
aS'is'
p1257
aS'flowing'
p1258
aS'at'
p1259
aS'between'
p1260
aS'one'
p1261
aS'hundred'
p1262
aaa(lp1263
g29
a(lp1264
S'and'
p1265
aS'one'
p1266
aS'hundred'
p1267
aS'and'
p1268
aS'twenty'
p1269
aS'miles'
p1270
aS'an'
p1271
aS'hour'
p1272
aaa(lp1273
g29
a(lp1274
S'Okay'
p1275
aS'we'
p1276
aS'have'
p1277
aS'protected'
p1278
aS'the'
p1279
aS'spillways'
p1280
aaa(lp1281
g29
a(lp1282
S'now'
p1283
aS'they'
p1284
aS'had'
p1285
aS'to'
p1286
aS'get'
p1287
aS'some'
p1288
aS'water'
p1289
aaa(lp1290
g29
a(lp1291
S'into'
p1292
aS'the'
p1293
aS'power'
p1294
aS'plant'
p1295
aaa(lp1296
g29
a(lp1297
S'What'
p1298
aS'they'
p1299
aS'did'
p1300
aS'is'
p1301
aS'they'
p1302
aS'built'
p1303
aS'four'
p1304
aS'intake'
p1305
aS'towers'
p1306
aaa(lp1307
g29
a(lp1308
S'river'
p1309
aaa(lp1310
g29
a(lp1311
S'on'
p1312
aS'ledges'
p1313
aS'above'
p1314
aS'the'
p1315
aS'river'
p1316
aaa(lp1317
g29
a(lp1318
S'each'
p1319
aS'of'
p1320
aS'those'
p1321
aS'towers'
p1322
aS'that'
p1323
aS'you'
p1324
aS'saw'
p1325
aS'out'
p1326
aS'there'
p1327
aS'in'
p1328
aS'that'
p1329
aS'lake'
p1330
aaa(lp1331
g29
a(lp1332
S'are'
p1333
aS'three'
p1334
aS'hundred'
p1335
aS'and'
p1336
aS'ninetyfive'
p1337
aS'feet'
p1338
aS'high'
p1339
aaa(lp1340
g29
a(lp1341
S'Each'
p1342
aS'with'
p1343
aS'twoelevenbythirtytwofoot'
p1344
aS'gates'
p1345
aS'in'
p1346
aS'them'
p1347
aaa(lp1348
g29
a(lp1349
S'one'
p1350
aS'gate'
p1351
aS'near'
p1352
aS'the'
p1353
aS'bottom'
p1354
aaa(lp1355
g29
a(lp1356
S'one'
p1357
aS'about'
p1358
aS'half'
p1359
aS'way'
p1360
aS'up'
p1361
aaa(lp1362
g29
a(lp1363
S'to'
p1364
aS'let'
p1365
aS'the'
p1366
aS'water'
p1367
aS'in'
p1368
aaa(lp1369
g29
a(lp1370
S'The'
p1371
aS'water'
p1372
aS'then'
p1373
aS'coming'
p1374
aS'into'
p1375
aS'the'
p1376
aS'penstocks'
p1377
aaa(lp1378
g29
a(lp1379
S'like'
p1380
aS'the'
p1381
aS'one'
p1382
aS'were'
p1383
aS'standing'
p1384
aS'over'
p1385
aS'right'
p1386
aS'now'
p1387
aaa(lp1388
g29
a(lp1389
S'This'
p1390
aS'penstock'
p1391
aaa(lp1392
g29
a(lp1393
S'you'
p1394
aS'can'
p1395
aS'see'
p1396
aS'on'
p1397
aS'either'
p1398
aS'side'
p1399
aS'of'
p1400
aS'us'
p1401
aS'out'
p1402
aS'here'
p1403
aaa(lp1404
g29
a(lp1405
S'is'
p1406
aS'three'
p1407
aS'stories'
p1408
aS'high'
p1409
aaa(lp1410
g29
a(lp1411
S'or'
p1412
aS'thirty'
p1413
aS'feet'
p1414
aS'in'
p1415
aS'diameter'
p1416
aaa(lp1417
g29
a(lp1418
S'made'
p1419
aS'of'
p1420
aS'twoandthreequarterinch'
p1421
aS'steel'
p1422
aS'boilerplate'
p1423
aaa(lp1424
g29
a(lp1425
S'Made'
p1426
aS'in'
p1427
aS'section'
p1428
aS'twentytwo'
p1429
aS'feet'
p1430
aS'long'
p1431
aaa(lp1432
g29
a(lp1433
S'Each'
p1434
aS'section'
p1435
aS'weighing'
p1436
aS'approximately'
p1437
ag11
aS'hundred'
p1438
aS'and'
p1439
aS'fifty'
p1440
aS'tons'
p1441
aaa(lp1442
g29
a(lp1443
S'Each'
p1444
aS'of'
p1445
aS'these'
p1446
aS'twentytwofoot'
p1447
aS'sections'
p1448
aS'is'
p1449
aS'joined'
p1450
aS'to'
p1451
aS'the'
p1452
aS'next'
p1453
aS'section'
p1454
aaa(lp1455
g29
a(lp1456
S'using'
p1457
aS'pressure'
p1458
aS'pins'
p1459
aS'like'
p1460
aS'this'
p1461
aaa(lp1462
g29
a(lp1463
S'The'
p1464
aS'water'
p1465
aS'pressure'
p1466
aS'in'
p1467
aS'that'
p1468
aS'penstock'
p1469
aS'out'
p1470
aS'there'
p1471
aS'this'
p1472
aS'afternoon'
p1473
aaa(lp1474
g29
a(lp1475
S'approximately'
p1476
aS'two'
p1477
aS'hundred'
p1478
aS'and'
p1479
aS'thirtyfour'
p1480
aS'pounds'
p1481
aS'per'
p1482
aS'square'
p1483
aS'inch'
p1484
aaa(lp1485
g29
a(lp1486
S'Okay'
p1487
aS'we'
p1488
aS'have'
p1489
aS'the'
p1490
aS'water'
p1491
aS'this'
p1492
aS'far'
p1493
aaa(lp1494
g29
a(lp1495
S'now'
p1496
aS'we'
p1497
aS'divert'
p1498
aS'that'
p1499
aS'into'
p1500
aS'thirteenfoot'
p1501
aS'penstocks'
p1502
aS'or'
p1503
aS'water'
p1504
aS'pipes'
p1505
aaa(lp1506
g29
a(lp1507
S'each'
p1508
aS'one'
p1509
aS'of'
p1510
aS'em'
p1511
aS'going'
p1512
aS'to'
p1513
ag11
aS'turbine'
p1514
aaa(lp1515
g29
a(lp1516
S'The'
p1517
aS'force'
p1518
aS'of'
p1519
aS'the'
p1520
aS'water'
p1521
aS'turns'
p1522
aS'the'
p1523
aS'turbine'
p1524
aaa(lp1525
g29
a(lp1526
S'which'
p1527
aS'turns'
p1528
aS'the'
p1529
aS'rotor'
p1530
aS'in'
p1531
aS'the'
p1532
aS'generator'
p1533
aaa(lp1534
g29
a(lp1535
S'and'
p1536
aS'generates'
p1537
aS'power'
p1538
aaa(lp1539
g29
a(lp1540
S'The'
p1541
aS'water'
p1542
aS'then'
p1543
aS'coming'
p1544
aS'on'
p1545
aS'the'
p1546
aS'tailrace'
p1547
aaa(lp1548
g29
a(lp1549
S'we'
p1550
aS'saw'
p1551
aS'it'
p1552
aS'up'
p1553
aS'there'
p1554
aaa(lp1555
g29
a(lp1556
S'and'
p1557
aS'going'
p1558
aS'on'
p1559
aS'downstream'
p1560
aS'to'
p1561
aS'be'
p1562
aS'used'
p1563
aS'at'
p1564
aS'least'
p1565
aS'six'
p1566
aS'more'
p1567
aS'times'
p1568
aaa(lp1569
g29
a(lp1570
S'before'
p1571
aS'it'
p1572
aS'reaches'
p1573
aS'the'
p1574
aS'Mexican'
p1575
aS'border'
p1576
aaa(lp1577
g29
a(lp1578
S'to'
p1579
aS'generate'
p1580
aS'more'
p1581
aS'power'
p1582
aaa(lp1583
g29
a(lp1584
S'Good'
p1585
aS'clean'
p1586
aS'reusable'
p1587
aS'nonpolluting'
p1588
aS'source'
p1589
aS'of'
p1590
aS'energy'
p1591
aaa(lp1592
g29
a(lp1593
S'The'
p1594
aS'cost'
p1595
aS'of'
p1596
aS'the'
p1597
aS'project'
p1598
aaa(lp1599
g29
a(lp1600
S'A'
p1601
aS'hundred'
p1602
aS'and'
p1603
aS'seventyfive'
p1604
aS'million'
p1605
aS'dollars'
p1606
aaa(lp1607
g29
a(lp1608
S'I'
p1609
aS'say'
p1610
aS'project'
p1611
aaa(lp1612
g29
a(lp1613
S'because'
p1614
aS'that'
p1615
aS'includes'
p1616
aS'the'
p1617
aS'building'
p1618
aS'of'
p1619
aS'the'
p1620
aS'dam'
p1621
aaa(lp1622
g29
a(lp1623
S'the'
p1624
aS'building'
p1625
aS'of'
p1626
aS'Boulder'
p1627
aS'City'
p1628
aS'about'
p1629
aS'seven'
p1630
aS'miles'
p1631
aS'up'
p1632
aS'the'
p1633
aS'road'
p1634
aaa(lp1635
g29
a(lp1636
S'the'
p1637
aS'highway'
p1638
aS'and'
p1639
aS'the'
p1640
aS'railway'
p1641
aS'from'
p1642
aS'Las'
p1643
aS'Vegas'
p1644
aS'out'
p1645
aS'here'
p1646
aS'to'
p1647
aS'the'
p1648
aS'dam'
p1649
aS'site'
p1650
aaa(lp1651
g29
a(lp1652
S'and'
p1653
aS'in'
p1654
aS'southern'
p1655
aS'California'
p1656
aS'they'
p1657
aS'built'
p1658
aS'the'
p1659
aS'AllAmerican'
p1660
aS'Canal'
p1661
aaa(lp1662
g29
a(lp1663
S'which'
p1664
aS'takes'
p1665
aS'water'
p1666
aS'to'
p1667
aS'the'
p1668
aS'people'
p1669
aS'and'
p1670
aS'the'
p1671
aS'crops'
p1672
aaa(lp1673
g29
a(lp1674
S'of'
p1675
aS'the'
p1676
aS'Imperial'
p1677
aS'and'
p1678
aS'Coachella'
p1679
aS'Valleys'
p1680
aaa(lp1681
g29
a(lp1682
S'This'
p1683
aS'money'
p1684
aS'was'
p1685
aS'borrowed'
p1686
aS'on'
p1687
ag11
aS'fiftyyear'
p1688
aS'term'
p1689
aS'at'
p1690
aS'threepercent'
p1691
aS'interest'
p1692
aaa(lp1693
g29
a(lp1694
S'and'
p1695
aS'was'
p1696
aS'paid'
p1697
aS'off'
p1698
aS'in'
p1699
aS'full'
p1700
aS'in'
p1701
aS'nineteen'
p1702
aS'eightyseven'
p1703
aaa(lp1704
g29
a(lp1705
S'The'
p1706
aS'people'
p1707
aS'who'
p1708
aS'worked'
p1709
aS'here'
p1710
aaa(lp1711
g29
a(lp1712
S'and'
p1713
aS'they'
p1714
aS'did'
p1715
aS'work'
p1716
aS'twentyfour'
p1717
aS'hours'
p1718
ag11
aS'day'
p1719
aaa(lp1720
g29
a(lp1721
S'average'
p1722
aS'twentyfourhour'
p1723
aS'work'
p1724
aS'force'
p1725
aS'was'
p1726
aS'about'
p1727
aS'thirtyfive'
p1728
aS'hundred'
p1729
aS'men'
p1730
aaa(lp1731
g29
a(lp1732
S'The'
p1733
aS'most'
p1734
aS'they'
p1735
aS'had'
p1736
aS'at'
p1737
aS'any'
p1738
aS'one'
p1739
aS'time'
p1740
aS'was'
p1741
aS'when'
p1742
aS'they'
p1743
aS'were'
p1744
aS'pouring'
p1745
aS'concrete'
p1746
aaa(lp1747
g29
a(lp1748
S'fourtythree'
p1749
aS'hundred'
p1750
aS'men'
p1751
aaa(lp1752
g29
a(lp1753
S'The'
p1754
aS'laborers'
p1755
aS'on'
p1756
aS'the'
p1757
aS'job'
p1758
aS'made'
p1759
aS'fifty'
p1760
aS'cents'
p1761
aS'an'
p1762
aS'hour'
p1763
aaa(lp1764
g29
a(lp1765
S'Highest'
p1766
aS'paid'
p1767
aS'man'
p1768
aS'on'
p1769
aS'the'
p1770
aS'project'
p1771
aS'was'
p1772
ag11
aS'power'
p1773
aS'shovel'
p1774
aS'operator'
p1775
aaa(lp1776
g29
a(lp1777
S'at'
p1778
ag11
aS'dollar'
p1779
aS'and'
p1780
ag11
aS'quarter'
p1781
aS'an'
p1782
aS'hour'
p1783
aaa(lp1784
g29
a(lp1785
S'Out'
p1786
aS'of'
p1787
aS'each'
p1788
aS'mans'
p1789
aS'paycheck'
p1790
aaa(lp1791
g29
a(lp1792
S'the'
p1793
aS'contractor'
p1794
aS'did'
p1795
aS'deduct'
p1796
aS'each'
p1797
aS'day'
p1798
aaa(lp1799
g29
a(lp1800
g11
aS'dollar'
p1801
aS'and'
p1802
aS'sixty'
p1803
aS'cents'
p1804
aaa(lp1805
g29
a(lp1806
S'Because'
p1807
aS'the'
p1808
aS'contractor'
p1809
aS'was'
p1810
aS'feeding'
p1811
aaa(lp1812
g29
a(lp1813
S'and'
p1814
aS'housing'
p1815
aS'the'
p1816
aS'men'
p1817
aS'in'
p1818
aS'Boulder'
p1819
aS'City'
p1820
aaa(lp1821
g29
a(lp1822
S'and'
p1823
aS'taking'
p1824
aS'them'
p1825
aS'back'
p1826
aS'and'
p1827
aS'forth'
p1828
aS'out'
p1829
aS'here'
p1830
aS'to'
p1831
aS'the'
p1832
aS'job'
p1833
aS'site'
p1834
aaa(lp1835
g29
a(lp1836
S'They'
p1837
aS'did'
p1838
aS'have'
p1839
aS'ninetysix'
p1840
aS'industrial'
p1841
aS'deaths'
p1842
aaa(lp1843
g29
a(lp1844
S'The'
p1845
aS'biggest'
p1846
aS'single'
p1847
aS'category'
p1848
aS'of'
p1849
aS'death'
p1850
aS'was'
p1851
aS'classified'
p1852
aS'as'
p1853
aS'falling'
p1854
aS'material'
p1855
aaa(lp1856
g29
a(lp1857
S'Basically'
p1858
aS'falling'
p1859
aS'rock'
p1860
aaa(lp1861
g29
a(lp1862
S'But'
p1863
aS'they'
p1864
aS'did'
p1865
aS'have'
p1866
aS'some'
p1867
aS'killed'
p1868
aS'by'
p1869
aS'explosion'
p1870
aaa(lp1871
g29
a(lp1872
S'some'
p1873
aS'by'
p1874
aS'drowning'
p1875
aaa(lp1876
g29
a(lp1877
S'some'
p1878
aS'by'
p1879
aS'electrocution'
p1880
aaa(lp1881
g29
a(lp1882
S'and'
p1883
aS'other'
p1884
aS'types'
p1885
aS'of'
p1886
aS'accidents'
p1887
aS'you'
p1888
aS'might'
p1889
aS'expect'
p1890
aS'to'
p1891
aS'have'
p1892
aaa(lp1893
g29
a(lp1894
S'On'
p1895
ag11
aS'job'
p1896
aS'of'
p1897
aS'this'
p1898
aS'magnitude'
p1899
aaa(lp1900
g29
a(lp1901
S'They'
p1902
aS'did'
p1903
aS'complete'
p1904
aS'the'
p1905
aS'project'
p1906
aaa(lp1907
g29
a(lp1908
S'two'
p1909
aS'years'
p1910
aS'ahead'
p1911
aS'of'
p1912
aS'schedule'
p1913
aaa(lp1914
g29
a(lp1915
S'and'
p1916
aS'under'
p1917
aS'budget'
p1918
aaa(lp1919
g29
a(lp1920
S'Started'
p1921
aS'in'
p1922
aS'early'
p1923
aS'nineteen'
p1924
aS'thirtyone'
p1925
aaa(lp1926
g29
a(lp1927
S'completed'
p1928
aS'in'
p1929
aS'late'
p1930
aS'nineteen'
p1931
aS'thirtyfive'
p1932
aaa(lp1933
g29
a(lp1934
S'Just'
p1935
aS'twelve'
p1936
aS'days'
p1937
aS'short'
p1938
aS'of'
p1939
aS'five'
p1940
aS'years'
p1941
aaa(lp1942
g29
a(lp1943
S'Do'
p1944
ag1609
aS'have'
p1945
aS'any'
p1946
aS'questions'
p1947
aaa(lp1948
S'AUD'
p1949
a(lp1950
S'Whats'
p1951
aS'this'
p1952
aS'overhead'
p1953
aS'pipe'
p1954
aS'here'
p1955
ag836
aaa(lp1956
S'BEN'
p1957
a(lp1958
S'The'
p1959
aS'overhead'
p1960
aS'pipe'
p1961
aaa(lp1962
g1957
a(lp1963
S'Thats'
p1964
aS'the'
p1965
aS'fresh'
p1966
aS'air'
p1967
aS'pipe'
p1968
aaa(lp1969
g1957
a(lp1970
S'In'
p1971
aS'the'
p1972
aS'summertime'
p1973
aaa(lp1974
g1957
a(lp1975
S'the'
p1976
aS'temperature'
p1977
aS'of'
p1978
aS'the'
p1979
aS'air'
p1980
aS'outside'
p1981
aS'gets'
p1982
aS'to'
p1983
aS'be'
p1984
aS'as'
p1985
aS'high'
p1986
aS'as'
p1987
ag11
aS'hundred'
p1988
aS'and'
p1989
aS'twenty'
p1990
aS'degrees'
p1991
aaa(lp1992
g1957
a(lp1993
S'So'
p1994
aS'they'
p1995
aS'bring'
p1996
aS'that'
p1997
aS'fresh'
p1998
aS'air'
p1999
aS'in'
p2000
aaa(lp2001
g1957
a(lp2002
S'and'
p2003
aS'they'
p2004
aS'pass'
p2005
aS'that'
p2006
aS'fresh'
p2007
aS'air'
p2008
aS'over'
p2009
ag11
aS'sump'
p2010
aS'at'
p2011
aS'the'
p2012
aS'base'
p2013
aS'of'
p2014
aS'the'
p2015
aS'dam'
p2016
aaa(lp2017
g1957
a(lp2018
S'the'
p2019
aS'water'
p2020
aS'in'
p2021
aS'that'
p2022
aS'sump'
p2023
aS'is'
p2024
ag11
aS'constant'
p2025
aS'fiftythree'
p2026
aS'degrees'
p2027
aaa(lp2028
g1957
a(lp2029
S'It'
p2030
aS'cools'
p2031
aS'that'
p2032
aS'air'
p2033
aS'down'
p2034
aS'to'
p2035
aS'between'
p2036
aS'sixtyeight'
p2037
aS'and'
p2038
aS'seventytwo'
p2039
aS'degrees'
p2040
aaa(lp2041
g1957
a(lp2042
S'then'
p2043
aS'they'
p2044
aS'force'
p2045
aS'it'
p2046
aS'back'
p2047
aS'throughout'
p2048
aS'the'
p2049
aS'dam'
p2050
aaa(lp2051
g1957
a(lp2052
S'So'
p2053
aS'its'
p2054
aS'airconditioning'
p2055
aS'without'
p2056
aS'refrigeration'
p2057
aaa(lp2058
g1957
a(lp2059
S'Like'
p2060
ag11
aS'big'
p2061
aS'evaporative'
p2062
aS'cooler'
p2063
aS'or'
p2064
aS'swamp'
p2065
aS'cooler'
p2066
aaa(lp2067
g1957
a(lp2068
S'Any'
p2069
aS'other'
p2070
aS'questions'
p2071
aaa(lp2072
g1957
a(lp2073
S'Yes'
p2074
aaa(lp2075
S'AUD'
p2076
a(lp2077
S'Uh'
p2078
aaa(lp2079
g2076
a(lp2080
S'during'
p2081
aS'the'
p2082
aS'uh'
p2083
aS'earthquake'
p2084
aS'this'
p2085
aS'morning'
p2086
aaa(lp2087
g2076
a(lp2088
S'do'
p2089
aS'you'
p2090
aS'have'
p2091
aS'any'
p2092
aS'sensors'
p2093
aS'down'
p2094
aS'here'
p2095
aaa(lp2096
g2076
a(lp2097
S'that'
p2098
aS'measure'
p2099
aS'any'
p2100
aS'kind'
p2101
aS'of'
p2102
aS'movement'
p2103
aaa(lp2104
g2076
a(lp2105
S'of'
p2106
aS'structures'
p2107
aaa(lp2108
S'BENX'
p2109
a(lp2110
S'Right'
p2111
ag836
aaa(lp2112
g2109
a(lp2113
S'Yes'
p2114
aaa(lp2115
g2109
a(lp2116
S'W'
p2117
aS'v'
p2118
aS'we'
p2119
aS'have'
p2120
aS'several'
p2121
aS'things'
p2122
aaa(lp2123
g2109
a(lp2124
S'First'
p2125
aS'place'
p2126
aS'we'
p2127
aS'have'
p2128
aS'three'
p2129
aS'seismographs'
p2130
aS'throughout'
p2131
aS'the'
p2132
aS'dam'
p2133
aaa(lp2134
g2109
a(lp2135
S'We'
p2136
aS'recorded'
p2137
aS'those'
p2138
aaa(lp2139
g2109
a(lp2140
S'but'
p2141
aS'nobody'
p2142
aS'down'
p2143
aS'here'
p2144
aS'felt'
p2145
aS'em'
p2146
aaa(lp2147
g2109
a(lp2148
S'But'
p2149
aS'we'
p2150
aS'do'
p2151
aS'have'
p2152
aS'sensors'
p2153
aaa(lp2154
g2109
a(lp2155
S'built'
p2156
aS'right'
p2157
aS'into'
p2158
aS'the'
p2159
aS'concrete'
p2160
aaa(lp2161
g2109
a(lp2162
S'any'
p2163
aS'movement'
p2164
aS'that'
p2165
aS'concrete'
p2166
aS'makes'
p2167
aaa(lp2168
g2109
a(lp2169
S'is'
p2170
aS'measured'
p2171
aS'and'
p2172
aS'recorded'
p2173
aaa(lp2174
g2109
a(lp2175
S'And'
p2176
aS'they'
p2177
aS'had'
p2178
aS'very'
p2179
aS'little'
p2180
aS'of'
p2181
aS'it'
p2182
aS'this'
p2183
aS'morning'
p2184
aaa(lp2185
g2109
a(lp2186
S'Very'
p2187
aS'little'
p2188
aaa(lp2189
g2109
a(lp2190
S'Any'
p2191
aS'other'
p2192
aS'questions'
p2193
aaa(lp2194
S'AUD'
p2195
a(lp2196
S'How'
p2197
aS'far'
p2198
aS'are'
p2199
aS'you'
p2200
aS'sending'
p2201
aS'electricity'
p2202
aaa(lp2203
g2195
a(lp2204
S'California'
p2205
aaa(lp2206
S'BEN'
p2207
a(lp2208
S'Okay'
p2209
aaa(lp2210
g2207
a(lp2211
S'Fiftysix'
p2212
aS'percent'
p2213
aS'of'
p2214
aS'our'
p2215
aS'power'
p2216
aS'goes'
p2217
aS'to'
p2218
aS'southern'
p2219
aS'California'
p2220
aaa(lp2221
g2207
a(lp2222
S'twentyfive'
p2223
aS'percent'
p2224
aS'of'
p2225
aS'it'
p2226
aS'stays'
p2227
aS'in'
p2228
aS'Nevada'
p2229
aaa(lp2230
g2207
a(lp2231
S'nineteen'
p2232
aS'percent'
p2233
aS'of'
p2234
aS'it'
p2235
aS'goes'
p2236
aS'to'
p2237
aS'Arizona'
p2238
aaa(lp2239
g2207
a(lp2240
S'What'
p2241
aS'the'
p2242
aS'government'
p2243
aS'did'
p2244
aaa(lp2245
g2207
a(lp2246
S'is'
p2247
aS'they'
p2248
aS'got'
p2249
aS'together'
p2250
aS'the'
p2251
aS'delegates'
p2252
aS'from'
p2253
aS'those'
p2254
aS'three'
p2255
aS'states'
p2256
aS'in'
p2257
aS'nineteen'
p2258
aS'thirty'
p2259
aaa(lp2260
g2207
a(lp2261
S'To'
p2262
aS'allocate'
p2263
aS'the'
p2264
aS'power'
p2265
aS'that'
p2266
aS'would'
p2267
aS'be'
p2268
aS'generated'
p2269
aS'here'
p2270
aS'when'
p2271
aS'this'
p2272
aS'dam'
p2273
aS'was'
p2274
aS'completed'
p2275
aaa(lp2276
g2207
a(lp2277
S'California'
p2278
aS'was'
p2279
aS'growing'
p2280
aS'very'
p2281
aS'fast'
p2282
aS'at'
p2283
aS'that'
p2284
aS'time'
p2285
aaa(lp2286
g2207
a(lp2287
S'so'
p2288
aS'they'
p2289
aS'asked'
p2290
aS'for'
p2291
aS'and'
p2292
aS'got'
p2293
aS'most'
p2294
aS'of'
p2295
aS'the'
p2296
aS'power'
p2297
aaa(lp2298
g2207
a(lp2299
S'But'
p2300
aS'by'
p2301
aS'the'
p2302
aS'same'
p2303
aS'token'
p2304
aaa(lp2305
g2207
a(lp2306
S'Las'
p2307
aS'Vegas'
p2308
aaa(lp2309
g2207
a(lp2310
S'about'
p2311
aS'thirtyfive'
p2312
aS'miles'
p2313
aS'up'
p2314
aS'the'
p2315
aS'road'
p2316
aS'here'
p2317
aaa(lp2318
g2207
a(lp2319
S'at'
p2320
aS'that'
p2321
aS'time'
p2322
aaa(lp2323
g2207
a(lp2324
S'was'
p2325
aS'nothing'
p2326
aS'but'
p2327
ag11
aS'watering'
p2328
aS'stop'
p2329
aS'on'
p2330
aS'the'
p2331
aS'railroad'
p2332
aaa(lp2333
g2207
a(lp2334
S'No'
p2335
aS'hotels'
p2336
aaa(lp2337
g2207
a(lp2338
S'no'
p2339
aS'casinos'
p2340
aaa(lp2341
g2207
a(lp2342
S'we'
p2343
aS'asked'
p2344
aS'Las'
p2345
aS'Vegas'
p2346
aS'to'
p2347
aS'take'
p2348
aS'five'
p2349
aS'percent'
p2350
aS'of'
p2351
aS'the'
p2352
aS'power'
p2353
aS'we'
p2354
aS'could'
p2355
aS'produce'
p2356
aS'here'
p2357
aaa(lp2358
g2207
a(lp2359
S'and'
p2360
aS'they'
p2361
aS'agreed'
p2362
aS'to'
p2363
aS'do'
p2364
aS'that'
p2365
aaa(lp2366
g2207
a(lp2367
S'But'
p2368
aS'thats'
p2369
aS'all'
p2370
aS'they'
p2371
aS'get'
p2372
aS'today'
p2373
aaa(lp2374
g2207
a(lp2375
S'Because'
p2376
aS'that'
p2377
aS'contract'
p2378
aS'is'
p2379
aS'good'
p2380
aS'through'
p2381
aS'the'
p2382
aS'year'
p2383
aS'twothousand'
p2384
aS'and'
p2385
aS'seventeen'
p2386
aaa(lp2387
g2207
a(lp2388
S'So'
p2389
aS'all'
p2390
aS'those'
p2391
aS'lights'
p2392
aaa(lp2393
g2207
a(lp2394
S'You'
p2395
aS'see'
p2396
aS'burning'
p2397
aS'up'
p2398
aS'there'
p2399
aS'in'
p2400
aS'Las'
p2401
aS'Vegas'
p2402
aaa(lp2403
g2207
a(lp2404
S'comes'
p2405
aS'from'
p2406
aS'power'
p2407
aS'from'
p2408
aS'steam'
p2409
aS'plants'
p2410
aaa(lp2411
g2207
a(lp2412
S'owned'
p2413
aS'and'
p2414
aS'operated'
p2415
aS'by'
p2416
aS'Nevada'
p2417
aS'Power'
p2418
aS'Company'
p2419
aaa(lp2420
g2207
a(lp2421
S'using'
p2422
aS'fossil'
p2423
aS'fuel'
p2424
aaa(lp2425
g2207
a(lp2426
S'They'
p2427
aS'get'
p2428
aS'very'
p2429
aS'little'
p2430
aS'of'
p2431
ag836
aS'our'
p2432
ag836
aS'hydroelectric'
p2433
aS'power'
p2434
aaa(lp2435
g2207
a(lp2436
S'Okay'
p2437
aS'folks'
p2438
aaa(lp2439
g2207
a(lp2440
S'you'
p2441
aS'can'
p2442
aS'follow'
p2443
aS'me'
p2444
aS'now'
p2445
aaa(lp2446
g2207
a(lp2447
S'Im'
p2448
aS'gonna'
p2449
aS'lead'
p2450
aS'us'
p2451
aS'out'
p2452
aS'of'
p2453
aS'here'
p2454
aaa(lp2455
g2207
a(lp2456
S'Okay'
p2457
aaa(lp2458
g2207
a(lp2459
S'here'
p2460
aS'we'
p2461
aS'go'
p2462
aS'folks'
p2463
aaa(lp2464
S'ENV'
p2465
a(lp2466
aa(lp2467
S'AUDX'
p2468
a(lp2469
S'Quite'
p2470
aS'amazing'
p2471
ag836
aaa(lp2472
S'BEN'
p2473
a(lp2474
S'Y'
p2475
aS'yes'
p2476
aS'its'
p2477
ag11
aS'fantastic'
p2478
aS'job'
p2479
aS'they'
p2480
aS'did'
p2481
aS'down'
p2482
aS'here'
p2483
aaa(lp2484
S'AUDYeah'
p2485
a(lp2486
aa(lp2487
S'ENV'
p2488
a(lp2489
aa(lp2490
S'AUDAbout'
p2491
a(lp2492
S'how'
p2493
aS'many'
p2494
aS'people'
p2495
aS'are'
p2496
aS'employed'
p2497
aS'here'
p2498
aaa(lp2499
g2491
a(lp2500
S'Now'
p2501
aaa(lp2502
S'BEN'
p2503
a(lp2504
S'Right'
p2505
aS'now'
p2506
aS'theres'
p2507
aS'about'
p2508
aS'two'
p2509
aS'hundred'
p2510
aaa(lp2511
g2503
a(lp2512
S'That'
p2513
aS'includes'
p2514
aS'the'
p2515
aS'security'
p2516
aS'people'
p2517
aaa(lp2518
g2503
a(lp2519
S'the'
p2520
aS'guide'
p2521
aS'force'
p2522
aaa(lp2523
g2503
a(lp2524
S'the'
p2525
aS'nursing'
p2526
aS'staff'
p2527
aaa(lp2528
g2503
a(lp2529
S'the'
p2530
aS'people'
p2531
aS'that'
p2532
aS'run'
p2533
aS'the'
p2534
aS'computer'
p2535
aS'room'
p2536
aaa(lp2537
g2503
a(lp2538
S'the'
p2539
aS'office'
p2540
aS'force'
p2541
aaa(lp2542
g2503
a(lp2543
S'as'
p2544
aS'well'
p2545
aS'as'
p2546
aS'the'
p2547
aS'people'
p2548
aS'that'
p2549
aS'work'
p2550
aS'on'
p2551
aS'the'
p2552
aS'dam'
p2553
aaa(lp2554
g2503
a(lp2555
S'And'
p2556
aS'thats'
p2557
ag11
aS'twentyfourhour'
p2558
aS'figure'
p2559
aaa(lp2560
g2503
a(lp2561
S'But'
p2562
aS'that'
p2563
aS'figure'
p2564
aS'is'
p2565
aS'becoming'
p2566
aS'smaller'
p2567
aS'every'
p2568
aS'year'
p2569
aaa(lp2570
g2503
a(lp2571
S'because'
p2572
aS'every'
p2573
aS'year'
p2574
aS'we'
p2575
aS'are'
p2576
aS'becoming'
p2577
aS'more'
p2578
aS'highly'
p2579
aS'computerized'
p2580
aaa(lp2581
g2503
a(lp2582
S'F'
p2583
aS'Okay'
p2584
aS'folks'
p2585
aaa(lp2586
g2503
a(lp2587
S'theres'
p2588
ag11
aS'tour'
p2589
aS'group'
p2590
aS'coming'
p2591
aS'in'
p2592
aaa(lp2593
g2503
a(lp2594
S'stay'
p2595
aS'to'
p2596
aS'your'
p2597
aS'right'
p2598
aS'please'
p2599
aaa(lp2600
g2503
a(lp2601
S'stay'
p2602
aS'to'
p2603
aS'your'
p2604
aS'right'
p2605
ag2583
aaa(lp2606
S'ENV'
p2607
a(lp2608
aa(lp2609
S'BENF'
p2610
a(lp2611
S'Stay'
p2612
aS'to'
p2613
aS'your'
p2614
aS'right'
p2615
aS'folks'
p2616
aaa(lp2617
g2610
a(lp2618
S'tour'
p2619
aS'group'
p2620
aS'coming'
p2621
aS'out'
p2622
ag2583
aaa(lp2623
S'ENV'
p2624
a(lp2625
aa(lp2626
S'BEN'
p2627
a(lp2628
S'Okay'
p2629
aaa(lp2630
g2627
a(lp2631
S'if'
p2632
aS'you'
p2633
aS'would'
p2634
aaa(lp2635
g2627
a(lp2636
S'right'
p2637
aS'up'
p2638
aS'this'
p2639
aS'stairway'
p2640
aaa(lp2641
g2627
a(lp2642
S'when'
p2643
aS'you'
p2644
aS'get'
p2645
aS'on'
p2646
aS'the'
p2647
aS'balcony'
p2648
aaa(lp2649
g2627
a(lp2650
S'wait'
p2651
aS'for'
p2652
aS'me'
p2653
aS'on'
p2654
aS'the'
p2655
aS'blue'
p2656
aS'couches'
p2657
aS'on'
p2658
aS'the'
p2659
aS'balcony'
p2660
aS'please'
p2661
aaa(lp2662
g2627
a(lp2663
S'Anybody'
p2664
aS'needs'
p2665
aS'the'
p2666
aS'elevator'
p2667
aS'its'
p2668
aS'available'
p2669
aaa(lp2670
S'ENV'
p2671
a(lp2672
aa(lp2673
S'BENAnybody'
p2674
a(lp2675
S'that'
p2676
aS'needs'
p2677
aS'the'
p2678
aS'elevator'
p2679
aS'its'
p2680
ag836
aS'is'
p2681
ag836
aS'available'
p2682
aaa(lp2683
S'ENV'
p2684
a(lp2685
aa(lp2686
S'BEN'
p2687
a(lp2688
S'Come'
p2689
aS'on'
p2690
aaa(lp2691
S'ENV'
p2692
a(lp2693
aa(lp2694
S'BENX'
p2695
a(lp2696
S'Come'
p2697
aS'on'
p2698
aS'then'
p2699
ag836
aaa(lp2700
g2695
a(lp2701
S'Up'
p2702
aS'the'
p2703
aS'stairway'
p2704
aS'if'
p2705
aS'you'
p2706
aS'can'
p2707
ag836
aaa(lp2708
g2695
a(lp2709
S'PX'
p2710
aS'Up'
p2711
aS'the'
p2712
aS'stairway'
p2713
aaa(lp2714
g2695
a(lp2715
S'Thats'
p2716
aaa(lp2717
g2695
a(lp2718
S'Up'
p2719
aS'the'
p2720
aS'stairs'
p2721
aS'XP'
p2722
aaa(lp2723
g2695
a(lp2724
S'Okay'
p2725
aaa(lp2726
g2695
a(lp2727
S'here'
p2728
aS'we'
p2729
aS'go'
p2730
aaa(lp2731
g2695
a(lp2732
S'VOX'
p2733
aS'Hi'
p2734
aS'VOX'
p2735
aaa(lp2736
S'AUD'
p2737
a(lp2738
S'That'
p2739
aS'was'
p2740
aS'the'
p2741
aS'turbine'
p2742
aS'over'
p2743
aS'here'
p2744
aaa(lp2745
g2737
a(lp2746
S'off'
p2747
aS'to'
p2748
aS'the'
p2749
aS'side'
p2750
aaa(lp2751
S'BENYeah'
p2752
a(lp2753
aa(lp2754
g2752
a(lp2755
S'thats'
p2756
aS'the'
p2757
aS'turbine'
p2758
aS'runner'
p2759
aaa(lp2760
g2752
a(lp2761
S'You'
p2762
aS'bet'
p2763
aaa(lp2764
g2752
a(lp2765
S'Thats'
p2766
ag11
aS'computer'
p2767
aS'design'
p2768
aS'made'
p2769
aS'of'
p2770
aS'stainless'
p2771
aS'steel'
p2772
aaa(lp2773
g2752
a(lp2774
S'its'
p2775
aS'designed'
p2776
aS'in'
p2777
aS'such'
p2778
ag11
aS'way'
p2779
aaa(lp2780
g2752
a(lp2781
S'theres'
p2782
aS'one'
p2783
aS'of'
p2784
aS'em'
p2785
aS'running'
p2786
aS'at'
p2787
ag11
aS'hundred'
p2788
aS'and'
p2789
aS'eighty'
p2790
aS'RPM'
p2791
aaa(lp2792
g2752
a(lp2793
S'it'
p2794
aS'actually'
p2795
aS'lifts'
p2796
aS'that'
p2797
aS'eight'
p2798
aS'hundred'
p2799
aS'tons'
p2800
aS'up'
p2801
ag11
aS'quarter'
p2802
aS'of'
p2803
aS'an'
p2804
aS'inch'
p2805
aaa(lp2806
g2752
a(lp2807
g836
aS'for'
p2808
ag836
aS'your'
p2809
aS'main'
p2810
aS'thrust'
p2811
aS'bearing'
p2812
aS'is'
p2813
aS'the'
p2814
aS'very'
p2815
aS'top'
p2816
aS'of'
p2817
aS'this'
p2818
aS'uh'
p2819
aS'structure'
p2820
aS'right'
p2821
aS'down'
p2822
aS'here'
p2823
aaa(lp2824
g2752
a(lp2825
S'This'
p2826
aS'is'
p2827
aS'the'
p2828
aS'rotor'
p2829
aaa(lp2830
g2752
a(lp2831
S'The'
p2832
aS'rotor'
p2833
aS'and'
p2834
aS'the'
p2835
aS'runner'
p2836
aaa(lp2837
g2752
a(lp2838
S'have'
p2839
aS'come'
p2840
aS'out'
p2841
aS'of'
p2842
aS'our'
p2843
aS'ASeven'
p2844
aS'generator'
p2845
aaa(lp2846
g2752
a(lp2847
S'what'
p2848
aS'happened'
p2849
aS'we'
p2850
aS'lost'
p2851
ag11
aS'water'
p2852
aS'seal'
p2853
aS'down'
p2854
aS'there'
p2855
aaa(lp2856
g2752
a(lp2857
S'So'
p2858
aS'we'
p2859
aS'had'
p2860
aS'to'
p2861
aS'pull'
p2862
aS'those'
p2863
aS'out'
p2864
aS'to'
p2865
aS'fix'
p2866
aS'that'
p2867
aS'water'
p2868
aS'seal'
p2869
aaa(lp2870
g2752
a(lp2871
S'theyll'
p2872
aS'be'
p2873
aS'replaced'
p2874
aS'within'
p2875
ag11
aS'couple'
p2876
aS'of'
p2877
aS'weeks'
p2878
aS'now'
p2879
aaa(lp2880
S'AUD'
p2881
a(lp2882
g836
aS'Oh'
p2883
ag1609
aS'see'
p2884
ag836
aaa(lp2885
S'BEN'
p2886
a(lp2887
S'rotor'
p2888
aS'in'
p2889
aS'that'
p2890
aS'part'
p2891
aS'of'
p2892
aS'the'
p2893
aS'shaft'
p2894
aS'weighs'
p2895
aS'five'
p2896
aS'hundred'
p2897
aS'and'
p2898
aS'eighty'
p2899
aS'tons'
p2900
aaa(lp2901
S'AUD'
p2902
a(lp2903
aa(lp2904
S'ENV'
p2905
a(lp2906
aa(lp2907
S'BENFF'
p2908
a(lp2909
S'Okay'
p2910
aS'folks'
p2911
aaa(lp2912
g2908
a(lp2913
S'if'
p2914
aS'you'
p2915
aS'will'
p2916
aS'please'
p2917
aaa(lp2918
g2908
a(lp2919
S'follow'
p2920
aS'me'
p2921
aS'now'
p2922
aS'FF'
p2923
aaa(lp2924
S'ENV'
p2925
a(lp2926
aa(lp2927
S'X'
p2928
a(lp2929
S'Hey'
p2930
ag836
aaa(lp2931
S'BENHow'
p2932
a(lp2933
S'you'
p2934
aS'doing'
p2935
aaa(lp2936
S'XGood'
p2937
a(lp2938
aa(lp2939
S'ENV'
p2940
a(lp2941
aa(lp2942
S'BENOkay'
p2943
a(lp2944
S'folks'
p2945
aaa(lp2946
g2943
a(lp2947
S'while'
p2948
aS'were'
p2949
aS'waiting'
p2950
aS'for'
p2951
aS'the'
p2952
aS'elevators'
p2953
aaa(lp2954
g2943
a(lp2955
S'does'
p2956
aS'anybody'
p2957
aS'have'
p2958
aS'any'
p2959
aS'questions'
p2960
aaa(lp2961
S'AUD'
p2962
a(lp2963
S'How'
p2964
aS'long'
p2965
aS'have'
p2966
aS'you'
p2967
aS'been'
p2968
aS'doing'
p2969
aS'these'
p2970
aS'tours'
p2971
aaa(lp2972
S'BENAbout'
p2973
a(lp2974
S'five'
p2975
aS'years'
p2976
aaa(lp2977
g2973
a(lp2978
S'About'
p2979
aS'five'
p2980
aS'years'
p2981
aaa(lp2982
g2973
a(lp2983
S'Ive'
p2984
aS'retired'
p2985
aS'twice'
p2986
aaa(lp2987
g2973
a(lp2988
S'cant'
p2989
aS'stand'
p2990
ag836
aS'retirement'
p2991
aS'so'
p2992
ag836
aaa(lp2993
g2973
a(lp2994
S'come'
p2995
aS'back'
p2996
aS'to'
p2997
aS'work'
p2998
aS'at'
p2999
ag11
aS'fun'
p3000
aS'job'
p3001
aaa(lp3002
S'AUDX'
p3003
a(lp3004
S'Oh'
p3005
ag836
aaa(lp3006
S'BEN'
p3007
a(lp3008
S'Anybody'
p3009
aS'have'
p3010
aS'any'
p3011
aS'questions'
p3012
aaa(lp3013
S'AUD'
p3014
a(lp3015
S'Yeah'
p3016
aaa(lp3017
g3014
a(lp3018
S'Ben'
p3019
aaa(lp3020
g3014
a(lp3021
S'water'
p3022
aS'comes'
p3023
aS'down'
p3024
aS'the'
p3025
aS'center'
p3026
aS'of'
p3027
aS'the'
p3028
aaa(lp3029
g3014
a(lp3030
S'where'
p3031
aS'your'
p3032
aS'shaft'
p3033
aS'is'
p3034
aaa(lp3035
g3014
a(lp3036
S'goes'
p3037
aS'out'
p3038
aS'the'
p3039
aS'turbine'
p3040
aaa(lp3041
S'BEN'
p3042
a(lp3043
S'No'
p3044
aaa(lp3045
g3042
a(lp3046
S'Goes'
p3047
aS'around'
p3048
aS'the'
p3049
aS'dam'
p3050
aaa(lp3051
g3042
a(lp3052
S'Water'
p3053
aS'comes'
p3054
aS'into'
p3055
aS'those'
p3056
aS'towers'
p3057
aaa(lp3058
g3042
a(lp3059
S'goes'
p3060
aS'around'
p3061
aS'the'
p3062
aS'dam'
p3063
aaa(lp3064
g3042
a(lp3065
S'comes'
p3066
aS'in'
p3067
aS'from'
p3068
aS'the'
p3069
aS'side'
p3070
aaa(lp3071
S'AUDEach'
p3072
a(lp3073
S'individual'
p3074
aS'turbine'
p3075
aaa(lp3076
S'BEN'
p3077
a(lp3078
S'Yeah'
p3079
aaa(lp3080
S'AUDThe'
p3081
a(lp3082
S'water'
p3083
aS'drops'
p3084
aS'in'
p3085
aS'the'
p3086
aS'center'
p3087
aS'where'
p3088
aS'the'
p3089
aS'shaft'
p3090
aS'goes'
p3091
aS'in'
p3092
aaa(lp3093
g3081
a(lp3094
S'then'
p3095
aS'goes'
p3096
aS'down'
p3097
aaa(lp3098
S'BENNo'
p3099
a(lp3100
S'no'
p3101
aaa(lp3102
g3099
a(lp3103
S'No'
p3104
aaa(lp3105
g3099
a(lp3106
S'It'
p3107
aS'comes'
p3108
aS'into'
p3109
aS'what'
p3110
aS'they'
p3111
aS'c'
p3112
aaa(lp3113
g3099
a(lp3114
S'It'
p3115
aS'comes'
p3116
aS'in'
p3117
aS'that'
p3118
aS'thirteenfoot'
p3119
aS'pipe'
p3120
aaa(lp3121
g3099
a(lp3122
S'goes'
p3123
aS'into'
p3124
aS'what'
p3125
aS'they'
p3126
aS'call'
p3127
aaa(lp3128
g3099
a(lp3129
S'the'
p3130
aS'area'
p3131
aS'of'
p3132
aS'the'
p3133
aS'wicket'
p3134
aS'gate'
p3135
aaa(lp3136
g3099
a(lp3137
S'and'
p3138
aS'there'
p3139
aaa(lp3140
g3099
a(lp3141
S'And'
p3142
aS'theres'
p3143
ag11
aS'pipe'
p3144
aS'around'
p3145
aS'that'
p3146
aS'wicket'
p3147
aS'gate'
p3148
aaa(lp3149
g3099
a(lp3150
S'and'
p3151
aS'that'
p3152
aS'pipe'
p3153
aS'goes'
p3154
aS'from'
p3155
ag11
aS'thirteenfoot'
p3156
aS'diameter'
p3157
aaa(lp3158
g3099
a(lp3159
S'down'
p3160
aS'to'
p3161
ag11
aS'threefoot'
p3162
aS'diameter'
p3163
aaa(lp3164
g3099
a(lp3165
S'goes'
p3166
aS'around'
p3167
aS'that'
p3168
aS'wicket'
p3169
aS'gate'
p3170
aaa(lp3171
g3099
a(lp3172
S'Okay'
p3173
aaa(lp3174
S'AUDRight'
p3175
a(lp3176
aa(lp3177
S'BEN'
p3178
a(lp3179
S'It'
p3180
aS'picks'
p3181
aS'up'
p3182
aS'speed'
p3183
aaa(lp3184
g3178
a(lp3185
S'By'
p3186
aS'the'
p3187
aS'time'
p3188
aS'it'
p3189
aS'enters'
p3190
aS'that'
p3191
aS'ap'
p3192
aaa(lp3193
g3178
a(lp3194
S'goes'
p3195
aS'out'
p3196
aS'that'
p3197
aS'aperture'
p3198
aaa(lp3199
g3178
a(lp3200
S'that'
p3201
aS'threefoot'
p3202
aS'aperture'
p3203
aaa(lp3204
g3178
a(lp3205
S'its'
p3206
aS'traveling'
p3207
aS'at'
p3208
aS'fiftyseven'
p3209
aS'miles'
p3210
aS'an'
p3211
aS'hour'
p3212
aaa(lp3213
g3178
a(lp3214
S'But'
p3215
aS'thats'
p3216
aS'what'
p3217
aS'drives'
p3218
aS'that'
p3219
aS'big'
p3220
aS'turbine'
p3221
aaa(lp3222
g3178
a(lp3223
S'It'
p3224
aS'goes'
p3225
aS'around'
p3226
aS'the'
p3227
aS'shaft'
p3228
aaa(lp3229
g3178
a(lp3230
S'It'
p3231
aS'doesnt'
p3232
aS'go'
p3233
aS'into'
p3234
aS'the'
p3235
aS'shaft'
p3236
aS'area'
p3237
aS'at'
p3238
aS'all'
p3239
aaa(lp3240
g3178
a(lp3241
S'The'
p3242
aS'wicket'
p3243
aS'gate'
p3244
aaa(lp3245
g3178
a(lp3246
S'All'
p3247
aS'the'
p3248
aS'water'
p3249
aS'goes'
p3250
aS'in'
p3251
aS'through'
p3252
aS'the'
p3253
aS'wicket'
p3254
aS'gate'
p3255
aaa(lp3256
S'AUD'
p3257
a(lp3258
S'Its'
p3259
aS'coming'
p3260
aS'in'
p3261
aS'underneath'
p3262
aaa(lp3263
S'BENYeah'
p3264
a(lp3265
aa(lp3266
g3264
a(lp3267
S'The'
p3268
aS'wick'
p3269
aaa(lp3270
S'AUDPerpendicular'
p3271
a(lp3272
aa(lp3273
S'BEN'
p3274
a(lp3275
S'Th'
p3276
aS'well'
p3277
aaa(lp3278
S'AUDperpendicular'
p3279
a(lp3280
S'to'
p3281
aS'the'
p3282
ag836
aS'shaft'
p3283
ag836
aaa(lp3284
S'BEN'
p3285
a(lp3286
S'and'
p3287
aS'yeah'
p3288
aaa(lp3289
S'AUDThe'
p3290
a(lp3291
S'generators'
p3292
aS'sitting'
p3293
aS'on'
p3294
aS'top'
p3295
aaa(lp3296
S'BENA'
p3297
a(lp3298
S'i'
p3299
aS'okay'
p3300
aaa(lp3301
g3297
a(lp3302
S'The'
p3303
aS'shaft'
p3304
aS'is'
p3305
aS'like'
p3306
aS'this'
p3307
aaa(lp3308
g3297
a(lp3309
S'and'
p3310
aS'waters'
p3311
aS'coming'
p3312
aS'in'
p3313
aS'like'
p3314
aS'this'
p3315
aaa(lp3316
S'AUDRight'
p3317
a(lp3318
aa(lp3319
g3317
a(lp3320
S'Thats'
p3321
aS'what'
p3322
ag1609
aS'thought'
p3323
aaa(lp3324
S'BEN'
p3325
a(lp3326
S'And'
p3327
aS'then'
p3328
aS'it'
p3329
aS'goes'
p3330
aS'around'
p3331
aS'like'
p3332
aS'this'
p3333
aaa(lp3334
S'AUDOh'
p3335
a(lp3336
S'yeah'
p3337
aaa(lp3338
S'BEN'
p3339
a(lp3340
S'and'
p3341
aS'then'
p3342
aS'out'
p3343
aaa(lp3344
S'AUDNow'
p3345
a(lp3346
S'that'
p3347
aS'thing'
p3348
aS'we'
p3349
aS'saw'
p3350
aS'down'
p3351
aS'laying'
p3352
aS'that'
p3353
aaa(lp3354
g3345
a(lp3355
S'uh'
p3356
aaa(lp3357
g3345
a(lp3358
S'alongside'
p3359
aaa(lp3360
S'BENOkay'
p3361
a(lp3362
aa(lp3363
S'AUDwith'
p3364
a(lp3365
S'the'
p3366
aS'uh'
p3367
aaa(lp3368
g3364
a(lp3369
S'looked'
p3370
aS'like'
p3371
ag11
aaa(lp3372
S'BENThats'
p3373
a(lp3374
g11
aaa(lp3375
g3373
a(lp3376
S'thats'
p3377
ag11
aS'r'
p3378
aS'turbine'
p3379
aS'runner'
p3380
aaa(lp3381
g3373
a(lp3382
S'We'
p3383
aS'call'
p3384
aaa(lp3385
g3373
a(lp3386
S'Turbine'
p3387
aS'runner'
p3388
aaa(lp3389
S'AUDThat'
p3390
a(lp3391
S'and'
p3392
aS'thats'
p3393
aaa(lp3394
g3390
a(lp3395
S'is'
p3396
aS'that'
p3397
aS'is'
p3398
aS'that'
p3399
aaa(lp3400
g3390
a(lp3401
S'kicked'
p3402
aS'up'
p3403
aS'on'
p3404
aS'the'
p3405
aS'side'
p3406
aS'like'
p3407
aS'that'
p3408
aaa(lp3409
g3390
a(lp3410
S'the'
p3411
aS'water'
p3412
aaa(lp3413
S'BEN'
p3414
a(lp3415
S'No'
p3416
aaa(lp3417
g3414
a(lp3418
S'it'
p3419
aS'just'
p3420
aS'lays'
p3421
aS'it'
p3422
aaa(lp3423
S'AUDSpinning'
p3424
a(lp3425
S'it'
p3426
aS'around'
p3427
aaa(lp3428
S'BEN'
p3429
a(lp3430
S'Oh'
p3431
aS'you'
p3432
aS'mean'
p3433
aS'the'
p3434
aS'one'
p3435
aS'd'
p3436
aS'on'
p3437
aS'the'
p3438
aS'floor'
p3439
aS'down'
p3440
aS'there'
p3441
aaa(lp3442
S'AUDYeah'
p3443
a(lp3444
S'yeah'
p3445
aaa(lp3446
S'BENNo'
p3447
a(lp3448
S'thats'
p3449
aS'laying'
p3450
aS'flat'
p3451
aS'like'
p3452
aS'this'
p3453
aaa(lp3454
S'AUDX'
p3455
a(lp3456
aa(lp3457
S'BENand'
p3458
a(lp3459
S'the'
p3460
aS'water'
p3461
aS'drives'
p3462
aS'that'
p3463
aS'around'
p3464
aS'this'
p3465
aS'way'
p3466
aS'like'
p3467
aS'this'
p3468
aaa(lp3469
S'AUDX'
p3470
a(lp3471
S'Oh'
p3472
aS'youre'
p3473
aS'right'
p3474
ag836
aS'XX'
p3475
aaa(lp3476
S'BENand'
p3477
a(lp3478
S'drives'
p3479
aS'the'
p3480
aS'turbine'
p3481
aS'up'
p3482
aS'there'
p3483
aS'yeah'
p3484
aaa(lp3485
S'AUDAnd'
p3486
a(lp3487
S'thats'
p3488
aS'down'
p3489
aS'inside'
p3490
aS'the'
p3491
aS'uh'
p3492
aaa(lp3493
g3486
a(lp3494
S'in'
p3495
aS'the'
p3496
aS'turbine'
p3497
aaa(lp3498
S'BENThats'
p3499
a(lp3500
S'way'
p3501
aS'down'
p3502
aaa(lp3503
g3499
a(lp3504
S'Yeah'
p3505
aaa(lp3506
g3499
a(lp3507
S'Way'
p3508
aS'down'
p3509
aS'in'
p3510
aS'the'
p3511
aS'turbine'
p3512
aaa(lp3513
S'AUDSo'
p3514
a(lp3515
S'its'
p3516
aS'in'
p3517
aS'the'
p3518
aS'turbine'
p3519
aaa(lp3520
g3514
a(lp3521
S'And'
p3522
aS'thats'
p3523
aS'the'
p3524
aaa(lp3525
S'BENUnhunh'
p3526
a(lp3527
aa(lp3528
g3526
a(lp3529
S'yeah'
p3530
aaa(lp3531
S'AUDthats'
p3532
a(lp3533
S'whats'
p3534
aS'generating'
p3535
aaa(lp3536
S'BENYeah'
p3537
a(lp3538
aa(lp3539
S'AUDthats'
p3540
a(lp3541
S'whats'
p3542
aS'turning'
p3543
aS'the'
p3544
aS'wheel'
p3545
aaa(lp3546
S'BENRight'
p3547
a(lp3548
aa(lp3549
g3547
a(lp3550
S'Right'
p3551
aaa(lp3552
S'AUDWe'
p3553
a(lp3554
S'were'
p3555
aS'right'
p3556
aS'on'
p3557
aS'that'
p3558
aaa(lp3559
S'BENRight'
p3560
a(lp3561
aa(lp3562
g3560
a(lp3563
S'Okay'
p3564
aS'folks'
p3565
aaa(lp3566
g3560
a(lp3567
S'step'
p3568
aS'right'
p3569
aS'in'
p3570
aS'the'
p3571
aS'elevator'
p3572
aS'please'
p3573
aaa(lp3574
g3560
a(lp3575
S'right'
p3576
aS'on'
p3577
aS'in'
p3578
aaa(lp3579
g3560
a(lp3580
S'step'
p3581
aS'right'
p3582
aS'in'
p3583
aS'the'
p3584
aS'elevator'
p3585
aaa(lp3586
g3560
a(lp3587
S'P'
p3588
aS'Three'
p3589
aaa(lp3590
g3560
a(lp3591
S'four'
p3592
aaa(lp3593
g3560
a(lp3594
S'five'
p3595
aaa(lp3596
g3560
a(lp3597
S'six'
p3598
aaa(lp3599
g3560
a(lp3600
S'seven'
p3601
aaa(lp3602
g3560
a(lp3603
S'eight'
p3604
aaa(lp3605
g3560
a(lp3606
S'nine'
p3607
aaa(lp3608
g3560
a(lp3609
S'ten'
p3610
aaa(lp3611
g3560
a(lp3612
S'eleven'
p3613
aaa(lp3614
g3560
a(lp3615
S'twelve'
p3616
aaa(lp3617
g3560
a(lp3618
S'Thirteen'
p3619
aS'fourteen'
p3620
aS'fifteen'
p3621
aS'sixteen'
p3622
aaa(lp3623
g3560
a(lp3624
S'nineteen'
p3625
aaa(lp3626
g3560
a(lp3627
S'twenty'
p3628
ag3588
aaa(lp3629
g3560
a(lp3630
S'alright'
p3631
aaa(lp3632
g3560
a(lp3633
S'are'
p3634
aS'you'
p3635
aS'with'
p3636
aS'them'
p3637
aaa(lp3638
g3560
a(lp3639
g3588
aS'Okay'
p3640
ag3588
aaa(lp3641
g3560
a(lp3642
S'Okay'
p3643
ag1609
aS'saved'
p3644
aS'room'
p3645
aS'for'
p3646
aS'you'
p3647
aaa(lp3648
S'AUD'
p3649
a(lp3650
S'All'
p3651
aS'right'
p3652
aaa(lp3653
g3649
a(lp3654
S'thanks'
p3655
ag11
aS'lot'
p3656
ag836
aS'man'
p3657
ag836
aaa(lp3658
S'BENYou'
p3659
a(lp3660
S'bet'
p3661
aaa(lp3662
g3659
a(lp3663
S'Folks'
p3664
aS'this'
p3665
aS'does'
p3666
aS'conclude'
p3667
aS'your'
p3668
aS'tour'
p3669
aS'of'
p3670
aS'the'
p3671
aS'dam'
p3672
aaa(lp3673
g3659
a(lp3674
S'hope'
p3675
aS'you'
p3676
aS'enjoyed'
p3677
aS'it'
p3678
aS'as'
p3679
aS'much'
p3680
aS'as'
p3681
ag1609
ag836
aS'enjoying'
p3682
aS'have'
p3683
ag836
aS'you'
p3684
aaa(lp3685
g3659
a(lp3686
S'come'
p3687
aS'back'
p3688
aS'and'
p3689
aS'see'
p3690
aS'us'
p3691
aS'again'
p3692
aaa(lp3693
g3659
a(lp3694
S'Have'
p3695
aS'any'
p3696
aS'questions'
p3697
aS'on'
p3698
aS'the'
p3699
aS'way'
p3700
aS'up'
p3701
aaa(lp3702
g3659
a(lp3703
S'ask'
p3704
aS'Norm'
p3705
aaa(lp3706
g3659
a(lp3707
S'Byebye'
p3708
aS'folks'
p3709
aaa(lp3710
g3659
a(lp3711
S'Okay'
p3712
aaa(lp3713
g3659
a(lp3714
S'any'
p3715
aS'more'
p3716
aS'questions'
p3717
aS'folks'
p3718
aaa(lp3719
S'AUD'
p3720
a(lp3721
S'Whats'
p3722
aS'the'
p3723
aS'story'
p3724
aS'with'
p3725
aS'this'
p3726
aS'tile'
p3727
aaa(lp3728
g3720
a(lp3729
S'Wasnt'
p3730
aS'this'
p3731
aS'created'
p3732
aS'by'
p3733
aS'somebody'
p3734
aaa(lp3735
S'BENYeah'
p3736
a(lp3737
aa(lp3738
g3736
a(lp3739
S'Folks'
p3740
aaa(lp3741
g3736
a(lp3742
S'the'
p3743
aS'dam'
p3744
aS'was'
p3745
aS'built'
p3746
aS'as'
p3747
ag11
aS'tourist'
p3748
aS'attraction'
p3749
aaa(lp3750
g3736
a(lp3751
S'as'
p3752
aS'well'
p3753
aS'as'
p3754
aS'being'
p3755
aS'very'
p3756
aS'functional'
p3757
aaa(lp3758
g3736
a(lp3759
S'this'
p3760
aS'terrazzo'
p3761
aS'flooring'
p3762
aS'you'
p3763
aS'see'
p3764
aaa(lp3765
g3736
a(lp3766
S'terrazzo'
p3767
aS'is'
p3768
aS'marble'
p3769
aS'chips'
p3770
aS'put'
p3771
aS'down'
p3772
aS'in'
p3773
aS'concrete'
p3774
aaa(lp3775
g3736
a(lp3776
S'ground'
p3777
aS'down'
p3778
aS'and'
p3779
aS'polished'
p3780
aaa(lp3781
g3736
a(lp3782
S'this'
p3783
aS'terrazzo'
p3784
aS'flooring'
p3785
aS'was'
p3786
aS'put'
p3787
aS'in'
p3788
aS'here'
p3789
aS'by'
p3790
aS'one'
p3791
aS'Italian'
p3792
aS'family'
p3793
aaa(lp3794
g3736
a(lp3795
S'by'
p3796
aS'the'
p3797
aS'name'
p3798
aS'of'
p3799
aS'Martina'
p3800
aaa(lp3801
g3736
a(lp3802
S't'
p3803
aS'uh'
p3804
aS'terrazzo'
p3805
aS'flooring'
p3806
aS'in'
p3807
aS'the'
p3808
aS'floor'
p3809
aaa(lp3810
g3736
a(lp3811
S'but'
p3812
aS'the'
p3813
aS'designs'
p3814
aS'you'
p3815
aS'see'
p3816
aaa(lp3817
g3736
a(lp3818
S'is'
p3819
aS'what'
p3820
aS'that'
p3821
aS'Italian'
p3822
aS'family'
p3823
aS'saw'
p3824
aaa(lp3825
g3736
a(lp3826
S'southwest'
p3827
aS'Indian'
p3828
aS'blankets'
p3829
aS'and'
p3830
aS'pottery'
p3831
aaa(lp3832
g3736
a(lp3833
S'Thats'
p3834
aS'where'
p3835
aS'the'
p3836
aS'designs'
p3837
aS'came'
p3838
aS'from'
p3839
aaa(lp3840
g3736
a(lp3841
S'Any'
p3842
aS'other'
p3843
aS'questions'
p3844
aaa(lp3845
S'AUD'
p3846
a(lp3847
S'Are'
p3848
aS'there'
p3849
aS'just'
p3850
aS'two'
p3851
aS'elevators'
p3852
aS'down'
p3853
aaa(lp3854
g3846
a(lp3855
S'from'
p3856
aS'these'
p3857
aS'two'
p3858
aS'shafts'
p3859
aaa(lp3860
g3846
a(lp3861
S'thatll'
p3862
aS'take'
p3863
aS'you'
p3864
aS'to'
p3865
aS'XX'
p3866
aaa(lp3867
S'BENThats'
p3868
a(lp3869
S'right'
p3870
aaa(lp3871
g3868
a(lp3872
S'Two'
p3873
aS'elevators'
p3874
aS'down'
p3875
aaa(lp3876
g3868
a(lp3877
S'Mhm'
p3878
aaa(lp3879
S'AUDThe'
p3880
a(lp3881
S'rest'
p3882
aS'of'
p3883
aS'its'
p3884
aS'just'
p3885
aS'solid'
p3886
aaa(lp3887
S'BENRight'
p3888
a(lp3889
aa(lp3890
g3888
a(lp3891
S'Well'
p3892
aS'there'
p3893
aS'are'
p3894
aaa(lp3895
g3888
a(lp3896
S'there'
p3897
aS'are'
p3898
aS'two'
p3899
aS'miles'
p3900
aS'of'
p3901
aS'tunnels'
p3902
aS'going'
p3903
aS'this'
p3904
aS'way'
p3905
aS'across'
p3906
aS'the'
p3907
aS'dam'
p3908
aaa(lp3909
g3888
a(lp3910
S'They'
p3911
aS'have'
p3912
ag11
aS'pipe'
p3913
aS'gallery'
p3914
aaa(lp3915
g3888
a(lp3916
S'they'
p3917
aS'have'
p3918
ag11
aS'drainage'
p3919
aS'gallery'
p3920
aaa(lp3921
g3888
a(lp3922
S'they'
p3923
aS'have'
p3924
ag11
aaa(lp3925
g3888
a(lp3926
g11
aS'uh'
p3927
aS'cable'
p3928
aS'gallery'
p3929
aaa(lp3930
g3888
a(lp3931
S'and'
p3932
aS'they'
p3933
aS'have'
p3934
aS'an'
p3935
aS'instrumentation'
p3936
aS'gallery'
p3937
aaa(lp3938
g3888
a(lp3939
S'And'
p3940
aS'all'
p3941
aS'those'
p3942
aS'things'
p3943
aS'are'
p3944
aaa(lp3945
g3888
a(lp3946
S'They'
p3947
aS'measure'
p3948
aS'constantly'
p3949
aS'the'
p3950
aS'condition'
p3951
aS'of'
p3952
aS'the'
p3953
aS'dam'
p3954
aS'with'
p3955
aS'that'
p3956
aS'instrumentation'
p3957
aS'gallery'
p3958
aaa(lp3959
S'AUD'
p3960
a(lp3961
S'Yall'
p3962
aS'open'
p3963
aS'seven'
p3964
aS'days'
p3965
ag11
aS'week'
p3966
aaa(lp3967
S'BEN'
p3968
a(lp3969
S'Yeah'
p3970
aaa(lp3971
g3968
a(lp3972
S'Mhm'
p3973
aaa(lp3974
S'AUD'
p3975
a(lp3976
S'Is'
p3977
aS'it'
p3978
aS'unusual'
p3979
aS'to'
p3980
aaa(lp3981
g3975
a(lp3982
S'to'
p3983
aS'do'
p3984
aS'the'
p3985
aS'generator'
p3986
aS'uh'
p3987
aS'room'
p3988
aS'floor'
p3989
aaa(lp3990
g3975
a(lp3991
S'In'
p3992
aS'something'
p3993
aS'like'
p3994
aS'this'
p3995
aaa(lp3996
g3975
a(lp3997
S'Theres'
p3998
aS'just'
p3999
aaa(lp4000
S'BENYeah'
p4001
a(lp4002
aa(lp4003
g4001
a(lp4004
S'It'
p4005
aS'its'
p4006
aS'in'
p4007
aS'fact'
p4008
aaa(lp4009
g4001
a(lp4010
S'it'
p4011
aS'was'
p4012
aS'built'
p4013
aS'during'
p4014
aS'the'
p4015
aS'depression'
p4016
aaa(lp4017
g4001
a(lp4018
S'and'
p4019
aS'they'
p4020
aS'wanted'
p4021
aS'to'
p4022
aS'make'
p4023
aS'it'
p4024
ag11
aS'tourist'
p4025
aS'attra'
p4026
aaa(lp4027
S'AUDX'
p4028
a(lp4029
S'Make'
p4030
aS'it'
p4031
aS'make'
p4032
aS'it'
p4033
aS'worth'
p4034
aS'talking'
p4035
ag836
aaa(lp4036
S'BENIt'
p4037
a(lp4038
S'was'
p4039
aS'at'
p4040
aS'that'
p4041
aS'time'
p4042
aS'the'
p4043
aS'largest'
p4044
aS'dam'
p4045
aS'in'
p4046
aS'the'
p4047
aS'world'
p4048
aaa(lp4049
g4037
a(lp4050
S'they'
p4051
aS'wanted'
p4052
aS'to'
p4053
aS'make'
p4054
aS'it'
p4055
aS'very'
p4056
aS'nice'
p4057
aaa(lp4058
g4037
a(lp4059
S'yeah'
p4060
aaa(lp4061
g4037
a(lp4062
S'its'
p4063
aS'unusual'
p4064
aaa(lp4065
g4037
a(lp4066
S'Usually'
p4067
aS'you'
p4068
aS'just'
p4069
aS'have'
p4070
aS'concrete'
p4071
aS'decks'
p4072
aaa(lp4073
S'AUDYeah'
p4074
a(lp4075
aa(lp4076
g4074
a(lp4077
g1609
aS'would'
p4078
aaa(lp4079
g4074
a(lp4080
S'Yeah'
p4081
aaa(lp4082
S'BENYeah'
p4083
a(lp4084
aa(lp4085
g4083
a(lp4086
S'Yeah'
p4087
aaa(lp4088
g4083
a(lp4089
S'Any'
p4090
aS'other'
p4091
aS'questions'
p4092
aS'folks'
p4093
aaa(lp4094
g4083
a(lp4095
S'Yes'
p4096
aaa(lp4097
S'AUD'
p4098
a(lp4099
S'What'
p4100
aS'are'
p4101
aS'the'
p4102
aS'chances'
p4103
aS'of'
p4104
ag11
aS'leak'
p4105
aaa(lp4106
S'BEN'
p4107
a(lp4108
S'Hm'
p4109
aaa(lp4110
S'AUD_'
p4111
a(lp4112
aa(lp4113
S'AUDWhat'
p4114
a(lp4115
S'are'
p4116
aS'the'
p4117
aS'chances'
p4118
aS'of'
p4119
ag11
aS'leak'
p4120
aaa(lp4121
S'BEN'
p4122
a(lp4123
g836
aS'Well'
p4124
ag836
aaa(lp4125
g4122
a(lp4126
S'it'
p4127
aS'leaks'
p4128
aS'all'
p4129
aS'the'
p4130
aS'time'
p4131
aaa(lp4132
g4122
a(lp4133
S'You'
p4134
aS'see'
p4135
aS'concretes'
p4136
aS'porous'
p4137
aaa(lp4138
g4122
a(lp4139
S'And'
p4140
aS'because'
p4141
aS'concretes'
p4142
aS'porous'
p4143
aaa(lp4144
g4122
a(lp4145
S'theres'
p4146
aS'water'
p4147
aS'coming'
p4148
aS'through'
p4149
aS'at'
p4150
aS'all'
p4151
aS'times'
p4152
aaa(lp4153
g4122
a(lp4154
S'But'
p4155
aS'thats'
p4156
aS'good'
p4157
aaa(lp4158
g4122
a(lp4159
S'Because'
p4160
aS'if'
p4161
ag836
aS'therere'
p4162
ag836
aS'no'
p4163
aS'moisture'
p4164
aS'in'
p4165
aS'concrete'
p4166
aaa(lp4167
g4122
a(lp4168
S'it'
p4169
aS'dries'
p4170
aS'out'
p4171
aaa(lp4172
g4122
a(lp4173
S'and'
p4174
aS'spalls'
p4175
aS'and'
p4176
aS'chips'
p4177
aaa(lp4178
g4122
a(lp4179
S'and'
p4180
aS'turns'
p4181
aS'to'
p4182
aS'powder'
p4183
aaa(lp4184
g4122
a(lp4185
S'Wouldnt'
p4186
aS'make'
p4187
ag11
aS'very'
p4188
aS'good'
p4189
aS'dam'
p4190
aaa(lp4191
g4122
a(lp4192
S'So'
p4193
aS'as'
p4194
aS'long'
p4195
aS'as'
p4196
aS'that'
p4197
aS'lake'
p4198
aS'is'
p4199
aS'back'
p4200
aS'there'
p4201
aaa(lp4202
g4122
a(lp4203
S'forcing'
p4204
aS'that'
p4205
aS'water'
p4206
aS'through'
p4207
aS'the'
p4208
aS'concrete'
p4209
aS'at'
p4210
aS'all'
p4211
aS'times'
p4212
aaa(lp4213
g4122
a(lp4214
S'it'
p4215
aS'keeps'
p4216
aS'that'
p4217
aS'concrete'
p4218
aS'in'
p4219
ag11
aS'stage'
p4220
aS'of'
p4221
aS'what'
p4222
aS'we'
p4223
aS'call'
p4224
aS'being'
p4225
aS'green'
p4226
aaa(lp4227
g4122
a(lp4228
S'Green'
p4229
aS'concretes'
p4230
aS'very'
p4231
aS'strong'
p4232
aaa(lp4233
g4122
a(lp4234
S'So'
p4235
aS'we'
p4236
aS'have'
p4237
ag11
aS'good'
p4238
aS'strong'
p4239
aS'dam'
p4240
aaa(lp4241
S'AUD'
p4242
a(lp4243
S'Say'
p4244
aS'Ben'
p4245
aaa(lp4246
S'BEN'
p4247
a(lp4248
S'Yes'
p4249
aaa(lp4250
S'AUDwhats'
p4251
a(lp4252
S'going'
p4253
aS'on'
p4254
aS'up'
p4255
aS'on'
p4256
aS'the'
p4257
aS'hill'
p4258
aS'up'
p4259
aS'here'
p4260
aaa(lp4261
g4251
a(lp4262
g836
aS'dont'
p4263
aS'think'
p4264
aS'its'
p4265
aS'uh'
p4266
ag836
aaa(lp4267
S'BENOkay'
p4268
a(lp4269
aa(lp4270
g4268
a(lp4271
S'Thats'
p4272
ag11
aS'fivestory'
p4273
aS'parking'
p4274
aS'garage'
p4275
aaa(lp4276
g4268
a(lp4277
S'and'
p4278
aS'the'
p4279
aS'new'
p4280
aS'building'
p4281
aS'is'
p4282
ag11
aS'new'
p4283
aS'visitors'
p4284
aS'center'
p4285
aaa(lp4286
g4268
a(lp4287
S'The'
p4288
aS'fivestory'
p4289
aS'parking'
p4290
aS'garage'
p4291
aS'will'
p4292
aS'hold'
p4293
aS'fourhundred'
p4294
aS'and'
p4295
aS'fifty'
p4296
aS'cars'
p4297
aaa(lp4298
g4268
a(lp4299
S'Okay'
p4300
aaa(lp4301
g4268
a(lp4302
S'the'
p4303
aS'new'
p4304
aS'f'
p4305
aS'visitors'
p4306
aS'center'
p4307
aaa(lp4308
g4268
a(lp4309
S'will'
p4310
aS'have'
p4311
aS'three'
p4312
aS'revolving'
p4313
aS'theaters'
p4314
aS'in'
p4315
aS'it'
p4316
aaa(lp4317
g4268
a(lp4318
S'itll'
p4319
aS'have'
p4320
ag11
aS'seating'
p4321
aS'area'
p4322
aS'for'
p4323
aS'people'
p4324
aS'going'
p4325
aS'on'
p4326
aS'tour'
p4327
aaa(lp4328
g4268
a(lp4329
S'itll'
p4330
aS'have'
p4331
ag11
aS'museum'
p4332
aaa(lp4333
g4268
a(lp4334
S'the'
p4335
aS'top'
p4336
aS'deck'
p4337
aS'of'
p4338
aS'that'
p4339
aS'building'
p4340
aS'will'
p4341
aS'be'
p4342
aS'an'
p4343
aS'observation'
p4344
aS'platform'
p4345
aaa(lp4346
g4268
a(lp4347
S'we'
p4348
aS'can'
p4349
aS'look'
p4350
aS'back'
p4351
aS'at'
p4352
aS'the'
p4353
aS'dam'
p4354
aS'in'
p4355
aS'one'
p4356
aS'direction'
p4357
aaa(lp4358
g4268
a(lp4359
S'downstream'
p4360
aS'in'
p4361
aS'the'
p4362
aS'other'
p4363
aaa(lp4364
g4268
a(lp4365
S'Now'
p4366
aaa(lp4367
g4268
a(lp4368
S'when'
p4369
aS'thats'
p4370
aS'all'
p4371
aS'done'
p4372
aaa(lp4373
g4268
a(lp4374
S'they'
p4375
aS'hope'
p4376
aS'to'
p4377
aS'be'
p4378
aS'able'
p4379
aS'to'
p4380
aS'figure'
p4381
aaa(lp4382
g4268
a(lp4383
S'to'
p4384
aS'handle'
p4385
aS'between'
p4386
aS'one'
p4387
aS'point'
p4388
aS'two'
p4389
aS'and'
p4390
aS'one'
p4391
aS'point'
p4392
aS'three'
p4393
aS'million'
p4394
aS'people'
p4395
ag11
aS'year'
p4396
aaa(lp4397
g4268
a(lp4398
S'Last'
p4399
aS'year'
p4400
aS'we'
p4401
aS'had'
p4402
aaa(lp4403
g4268
a(lp4404
S'seven'
p4405
aS'hundred'
p4406
aS'and'
p4407
aS'twentynine'
p4408
aS'thousand'
p4409
aS'eight'
p4410
aS'hundred'
p4411
aS'and'
p4412
aS'eightynine'
p4413
aS'people'
p4414
aS'go'
p4415
aS'through'
p4416
aS'the'
p4417
aS'dam'
p4418
aaa(lp4419
g4268
a(lp4420
S'but'
p4421
aS'we'
p4422
aS'had'
p4423
aS'to'
p4424
aS'turn'
p4425
aS'people'
p4426
aS'away'
p4427
aaa(lp4428
g4268
a(lp4429
S'almost'
p4430
aS'every'
p4431
aS'night'
p4432
aaa(lp4433
g4268
a(lp4434
S'Just'
p4435
aS'not'
p4436
aS'enough'
p4437
aS'time'
p4438
aS'in'
p4439
aS'the'
p4440
aS'day'
p4441
aaa(lp4442
g4268
a(lp4443
S'to'
p4444
aS'get'
p4445
aS'everybody'
p4446
aS'through'
p4447
aS'the'
p4448
aS'dam'
p4449
aS'that'
p4450
aS'would'
p4451
aS'like'
p4452
aS'to'
p4453
aS'see'
p4454
aS'it'
p4455
aaa(lp4456
S'AUD'
p4457
a(lp4458
S'Hmm'
p4459
aaa(lp4460
g4457
a(lp4461
S'Will'
p4462
aS'it'
p4463
aS'have'
p4464
aS'any'
p4465
aS'slot'
p4466
aS'machines'
p4467
aS'in'
p4468
aS'it'
p4469
aaa(lp4470
S'BEN'
p4471
a(lp4472
S'No'
p4473
aaa(lp4474
g4471
a(lp4475
S'but'
p4476
aS'itd'
p4477
aS'be'
p4478
ag11
aS'good'
p4479
aS'idea'
p4480
aaa(lp4481
S'AUD'
p4482
a(lp4483
aa(lp4484
S'BENwouldnt'
p4485
a(lp4486
S'it'
p4487
aaa(lp4488
S'AUD'
p4489
a(lp4490
aa(lp4491
S'BEN'
p4492
a(lp4493
S'Pay'
p4494
aS'for'
p4495
aS'this'
p4496
aS'place'
p4497
aaa(lp4498
S'AUD_'
p4499
a(lp4500
aa(lp4501
S'AUDWhens'
p4502
a(lp4503
S'completion'
p4504
aS'on'
p4505
aS'that'
p4506
aS'parking'
p4507
aS'garage'
p4508
aaa(lp4509
S'BEN'
p4510
a(lp4511
S'They'
p4512
aS'figure'
p4513
aS'between'
p4514
aS'fifteen'
p4515
aS'and'
p4516
aS'seventeen'
p4517
aS'months'
p4518
aaa(lp4519
g4510
a(lp4520
S'Yeah'
p4521
aaa(lp4522
g4510
a(lp4523
S'Okay'
p4524
aS'folks'
p4525
aaa(lp4526
g4510
a(lp4527
S'step'
p4528
aS'right'
p4529
aS'in'
p4530
aS'the'
p4531
aS'elevator'
p4532
aS'please'
p4533
aaa(lp4534
g4510
a(lp4535
S'Right'
p4536
aS'on'
p4537
aS'in'
p4538
aaa(lp4539
S'ENV'
p4540
a(lp4541
aa(lp4542
S'X'
p4543
a(lp4544
S'VOX'
p4545
aS'Everyone'
p4546
aS'please'
p4547
aS'face'
p4548
aS'the'
p4549
aS'front'
p4550
aS'of'
p4551
aS'the'
p4552
aS'car'
p4553
aS'VOX'
p4554
aaa(lp4555
S'AUDIts'
p4556
a(lp4557
S'gonna'
p4558
aS'be'
p4559
aS'seventeen'
p4560
aS'more'
p4561
aS'months'
p4562
aaa(lp4563
g4556
a(lp4564
S'Seventeen'
p4565
aS'more'
p4566
aS'months'
p4567
aaa(lp4568
S'X'
p4569
a(lp4570
S'VOX'
p4571
aS'Everyone'
p4572
aS'face'
p4573
aS'the'
p4574
aS'front'
p4575
aS'of'
p4576
aS'the'
p4577
aS'car'
p4578
aS'please'
p4579
aS'VOX'
p4580
aaa(lp4581
S'BEN'
p4582
a(lp4583
S'Right'
p4584
aS'to'
p4585
aS'there'
p4586
aaa(lp4587
S'XVOX'
p4588
a(lp4589
S'Front'
p4590
aS'of'
p4591
aS'the'
p4592
aS'car'
p4593
aS'please'
p4594
aS'VOX'
p4595
aaa(lp4596
S'AUD'
p4597
a(lp4598
S'Have'
p4599
aS'they'
p4600
aS'ever'
p4601
aS'had'
p4602
aS'to'
p4603
aS'use'
p4604
aS'the'
p4605
aS'spillway'
p4606
aaa(lp4607
S'BENJust'
p4608
a(lp4609
g11
aS'minute'
p4610
aaa(lp4611
g4608
a(lp4612
S'Okay'
p4613
aS'folks'
p4614
aaa(lp4615
g4608
a(lp4616
S'this'
p4617
aS'does'
p4618
aS'conclude'
p4619
aS'your'
p4620
aS'tour'
p4621
aS'of'
p4622
aS'the'
p4623
aS'dam'
p4624
aaa(lp4625
g4608
a(lp4626
g1609
aS'hope'
p4627
aS'you'
p4628
aS'enjoyed'
p4629
aS'it'
p4630
aS'as'
p4631
aS'much'
p4632
aS'as'
p4633
ag1609
aS'enjoyed'
p4634
aS'having'
p4635
aS'you'
p4636
aaa(lp4637
g4608
a(lp4638
S'come'
p4639
aS'back'
p4640
aS'and'
p4641
aS'see'
p4642
aS'us'
p4643
aS'again'
p4644
aaa(lp4645
g4608
a(lp4646
S'have'
p4647
aS'any'
p4648
aS'questions'
p4649
aS'on'
p4650
aS'the'
p4651
aS'way'
p4652
aS'up'
p4653
aaa(lp4654
g4608
a(lp4655
S'ask'
p4656
aS'Norm'
p4657
aaa(lp4658
g4608
a(lp4659
S'Byebye'
p4660
aS'folks'
p4661
aaa(lp4662
S'AUDThanks'
p4663
a(lp4664
S'Ben'
p4665
aaa(lp4666
S'AUD_'
p4667
a(lp4668
S'Have'
p4669
aS'they'
p4670
aS'ever'
p4671
aS'had'
p4672
aS'to'
p4673
aS'use'
p4674
aS'the'
p4675
aS'spillway'
p4676
aaa(lp4677
S'BENOkay'
p4678
a(lp4679
aa(lp4680
g4678
a(lp4681
S'Folks'
p4682
aaa(lp4683
g4678
a(lp4684
S'the'
p4685
aS'question'
p4686
aS'is'
p4687
aaa(lp4688
g4678
a(lp4689
S'did'
p4690
aS'they'
p4691
aS'ever'
p4692
aS'have'
p4693
aS'to'
p4694
aS'use'
p4695
aS'the'
p4696
aS'spillway'
p4697
aaa(lp4698
g4678
a(lp4699
S'Yes'
p4700
aaa(lp4701
g4678
a(lp4702
S'Just'
p4703
aS'once'
p4704
aS'in'
p4705
aS'the'
p4706
aS'history'
p4707
aS'of'
p4708
aS'the'
p4709
aS'dam'
p4710
aaa(lp4711
g4678
a(lp4712
S'and'
p4713
aS'that'
p4714
aS'was'
p4715
aS'nineteen'
p4716
aS'eightythree'
p4717
aaa(lp4718
g4678
a(lp4719
S'What'
p4720
aS'happened'
p4721
aS'that'
p4722
aS'year'
p4723
aaa(lp4724
g4678
a(lp4725
S'is'
p4726
aS'they'
p4727
aS'had'
p4728
ag11
aS'very'
p4729
aS'heavy'
p4730
aS'snowpack'
p4731
aS'in'
p4732
aS'the'
p4733
aS'Rocky'
p4734
aS'Mountains'
p4735
aaa(lp4736
g4678
a(lp4737
S'and'
p4738
aS'that'
p4739
aS'was'
p4740
aS'followed'
p4741
aS'by'
p4742
aS'rain'
p4743
aS'and'
p4744
aS'hot'
p4745
aS'weather'
p4746
aaa(lp4747
g4678
a(lp4748
S'which'
p4749
aS'created'
p4750
ag11
aS'flooding'
p4751
aS'condition'
p4752
aaa(lp4753
g4678
a(lp4754
S'We'
p4755
aS'had'
p4756
aS'more'
p4757
aS'water'
p4758
aS'coming'
p4759
aS'down'
p4760
aS'the'
p4761
aS'Colorado'
p4762
aS'River'
p4763
aS'system'
p4764
aaa(lp4765
g4678
a(lp4766
S'than'
p4767
aS'they'
p4768
aS'could'
p4769
aS'put'
p4770
aS'through'
p4771
aS'the'
p4772
aS'power'
p4773
aS'plant'
p4774
aaa(lp4775
g4678
a(lp4776
S'Every'
p4777
aS'reservoir'
p4778
aS'in'
p4779
aS'the'
p4780
aS'Colorado'
p4781
aS'River'
p4782
aS'system'
p4783
aS'was'
p4784
aS'full'
p4785
aS'to'
p4786
aS'overflowing'
p4787
aS'that'
p4788
aS'year'
p4789
aaa(lp4790
g4678
a(lp4791
S'On'
p4792
aS'July'
p4793
aS'second'
p4794
aaa(lp4795
g4678
a(lp4796
S'water'
p4797
aS'overtopped'
p4798
aS'our'
p4799
aS'spillways'
p4800
aS'out'
p4801
aS'here'
p4802
aaa(lp4803
g4678
a(lp4804
S'Six'
p4805
aS'days'
p4806
aS'later'
p4807
aaa(lp4808
g4678
a(lp4809
S'it'
p4810
aS'was'
p4811
aS'going'
p4812
aS'over'
p4813
aS'four'
p4814
aS'and'
p4815
ag11
aS'half'
p4816
aS'feet'
p4817
aS'high'
p4818
aaa(lp4819
g4678
a(lp4820
S'And'
p4821
aS'that'
p4822
aS'went'
p4823
aS'on'
p4824
aS'for'
p4825
aS'sixtysix'
p4826
aS'days'
p4827
aaa(lp4828
g4678
a(lp4829
S'At'
p4830
aS'the'
p4831
aS'end'
p4832
aS'of'
p4833
aS'that'
p4834
aS'time'
p4835
aS'there'
p4836
aS'was'
p4837
aS'no'
p4838
aS'damage'
p4839
aS'to'
p4840
aS'the'
p4841
aS'dam'
p4842
aaa(lp4843
g4678
a(lp4844
S'or'
p4845
aS'to'
p4846
aS'the'
p4847
aS'power'
p4848
aS'plant'
p4849
aaa(lp4850
g4678
a(lp4851
S'but'
p4852
aS'further'
p4853
aS'on'
p4854
aS'downstream'
p4855
aS'where'
p4856
aS'people'
p4857
aS'had'
p4858
aS'built'
p4859
aS'in'
p4860
aS'the'
p4861
aS'floodplain'
p4862
aaa(lp4863
g4678
a(lp4864
S'they'
p4865
aS'did'
p4866
aS'have'
p4867
aS'thirty'
p4868
aS'million'
p4869
aS'dollars'
p4870
aS'worth'
p4871
aS'of'
p4872
aS'damage'
p4873
aaa(lp4874
g4678
a(lp4875
S'but'
p4876
aS'no'
p4877
aS'loss'
p4878
aS'of'
p4879
aS'life'
p4880
aaa(lp4881
g4678
a(lp4882
S'But'
p4883
aS'that'
p4884
aS'floods'
p4885
aS'what'
p4886
aS'left'
p4887
aS'that'
p4888
aS'white'
p4889
aS'line'
p4890
aS'around'
p4891
aS'the'
p4892
aS'lake'
p4893
aS'out'
p4894
aS'there'
p4895
aaa(lp4896
g4678
a(lp4897
S'That'
p4898
aS'white'
p4899
aS'line'
p4900
aS'indicates'
p4901
aS'it'
p4902
aS'was'
p4903
aS'going'
p4904
aS'over'
p4905
aS'the'
p4906
aS'spillways'
p4907
aaa(lp4908
g4678
a(lp4909
S'four'
p4910
aS'and'
p4911
ag11
aS'half'
p4912
aS'feet'
p4913
aS'above'
p4914
aS'floodstage'
p4915
aaa(lp4916
g4678
a(lp4917
S'It'
p4918
aS'gives'
p4919
ag11
aS'false'
p4920
aS'impression'
p4921
aaa(lp4922
g4678
a(lp4923
S'and'
p4924
aS'makes'
p4925
aS'it'
p4926
aS'look'
p4927
aS'like'
p4928
aS'the'
p4929
aS'lake'
p4930
aS'of'
p4931
aS'the'
p4932
aS'level'
p4933
aS'is'
p4934
aS'low'
p4935
aaa(lp4936
g4678
a(lp4937
S'Or'
p4938
aS'level'
p4939
aS'the'
p4940
aS'lake'
p4941
aS'of'
p4942
aS'the'
p4943
aS'low'
p4944
aaa(lp4945
g4678
a(lp4946
S'Actually'
p4947
aS'were'
p4948
aS'eight'
p4949
aS'feet'
p4950
aS'above'
p4951
aS'normal'
p4952
aaa(lp4953
g4678
a(lp4954
S'for'
p4955
aS'this'
p4956
aS'time'
p4957
aS'of'
p4958
aS'year'
p4959
aaa(lp4960
S'AUD'
p4961
a(lp4962
S'Wow'
p4963
aaa(lp4964
S'BEN'
p4965
a(lp4966
S'Yeah'
p4967
aS'we'
p4968
aS'had'
p4969
ag11
aS'very'
p4970
aS'good'
p4971
aS'snowpack'
p4972
aS'last'
p4973
aS'year'
p4974
aaa.