(lp0
(lp1
S'PATTYIts'
p2
a(lp3
S'not'
p4
aS'that'
p5
aS'bad'
p6
aaa(lp7
S'DALEX'
p8
a(lp9
S'something'
p10
aS'else'
p11
aaa(lp12
g8
a(lp13
S'or'
p14
aS'do'
p15
aS'you'
p16
aS'want'
p17
aaa(lp18
S'PATTYactually'
p19
a(lp20
aa(lp21
S'STEPHANIEWell'
p22
a(lp23
S'ten'
p24
aS'seventy'
p25
aaa(lp26
S'MAUREENYeah'
p27
a(lp28
aa(lp29
g27
a(lp30
S'No'
p31
aaa(lp32
S'DALEYou'
p33
a(lp34
S'want'
p35
aS'em'
p36
aaa(lp37
S'MAUREEN'
p38
a(lp39
S'Just'
p40
aS'take'
p41
aS'em'
p42
aS'out'
p43
aS'and'
p44
aaa(lp45
S'ERIKA'
p46
a(lp47
S'Thats'
p48
aS'great'
p49
aaa(lp50
S'STEPHANIEX'
p51
a(lp52
S'take'
p53
aS'em'
p54
aS'X'
p55
aS'again'
p56
aaa(lp57
S'DALEYeah'
p58
a(lp59
aa(lp60
S'MAUREEN'
p61
a(lp62
S'Theres'
p63
aS'that'
p64
aaa(lp65
S'STEPHANIEBetter'
p66
a(lp67
S'get'
p68
aS'twelve'
p69
aS'hundred'
p70
aaa(lp71
S'MAUREEN'
p72
a(lp73
S'and'
p74
aaa(lp75
S'STEPHANIEThats'
p76
a(lp77
S'what'
p78
aS'I'
p79
aS'want'
p80
aaa(lp81
g76
a(lp82
g79
aS'mean'
p83
aaa(lp84
S'MAUREEN'
p85
a(lp86
S'Heres'
p87
aS'this'
p88
aaa(lp89
S'STEPHANIEX'
p90
a(lp91
S'So'
p92
ag55
aaa(lp93
g90
a(lp94
S'cause'
p95
ag79
aS'think'
p96
aS'ten'
p97
aS'seventys'
p98
aS'way'
p99
aS'too'
p100
aS'low'
p101
aaa(lp102
S'GENEVIEVE'
p103
a(lp104
aa(lp105
S'MAUREENErika'
p106
a(lp107
S'would'
p108
aS'you'
p109
aaa(lp110
S'STEPHANIEFor'
p111
a(lp112
S'XXXX'
p113
aaa(lp114
S'MAUREENfollow'
p115
a(lp116
S'Dale'
p117
aS'out'
p118
aaa(lp119
g115
a(lp120
S'and'
p121
aS'just'
p122
aS'hand'
p123
aS'him'
p124
aS'that'
p125
ag55
aS'XXX'
p126
aS'XXX'
p127
aS'XX'
p128
aaa(lp129
S'ERIKASure'
p130
a(lp131
aa(lp132
S'STEPHANIEXX'
p133
a(lp134
S'XXXX'
p135
aS'XXX'
p136
aaa(lp137
S'MAUREEN'
p138
a(lp139
S'Thank'
p140
aS'you'
p141
aaa(lp142
g138
a(lp143
S'XXX'
p144
aaa(lp145
S'STEPHANIE'
p146
a(lp147
S'So'
p148
ag79
aS'have'
p149
aS'to'
p150
aS'take'
p151
aS'them'
p152
aS'again'
p153
aaa(lp154
g146
a(lp155
S'um'
p156
aaa(lp157
S'DALEYou'
p158
a(lp159
S'can'
p160
aS'just'
p161
aS'put'
p162
aS'that'
p163
aS'over'
p164
aS'on'
p165
aS'the'
p166
aS'XX'
p167
aaa(lp168
S'STEPHANIEI'
p169
a(lp170
S'have'
p171
aS'to'
p172
aS'send'
p173
aS'them'
p174
aS'money'
p175
aS'by'
p176
aS'the'
p177
aS'eighteenth'
p178
aaa(lp179
g169
a(lp180
S'for'
p181
aS'SATs'
p182
aS'for'
p183
aS'the'
p184
aS'October'
p185
aS'exam'
p186
aaa(lp187
S'DALEX'
p188
a(lp189
S'Put'
p190
aS'it'
p191
aS'on'
p192
aS'that'
p193
aS'railing'
p194
aS'over'
p195
aS'there'
p196
ag55
aaa(lp197
S'MAUREENOkay'
p198
a(lp199
aa(lp200
S'PATTY'
p201
a(lp202
S'Mm'
p203
aaa(lp204
S'STEPHANIESo'
p205
a(lp206
aa(lp207
g205
a(lp208
S'STOMPINGMRC'
p209
aS'Id'
p210
aS'better'
p211
aS'get'
p212
aS'twelve'
p213
aS'hundred'
p214
aS'on'
p215
aS'these'
p216
aaa(lp217
g205
a(lp218
S'Have'
p219
aS'to'
p220
aS'get'
p221
aS'twelve'
p222
aS'hundred'
p223
aS'MRCSTOMPING'
p224
aaa(lp225
S'GAIL'
p226
a(lp227
aa(lp228
S'PATTYWell'
p229
a(lp230
S'if'
p231
aS'you'
p232
aS'study'
p233
aS'hard'
p234
aaa(lp235
S'STEPHANIE'
p236
a(lp237
S'You'
p238
aS'cant'
p239
aS'study'
p240
aS'for'
p241
aS'the'
p242
aS'SAT'
p243
aaa(lp244
S'PATTYGet'
p245
a(lp246
S'your'
p247
aS'rest'
p248
aaa(lp249
g245
a(lp250
S'no'
p251
aaa(lp252
g245
a(lp253
S'but'
p254
aS'you'
p255
aaa(lp256
g245
a(lp257
S'Well'
p258
aaa(lp259
g245
a(lp260
S'they'
p261
aS'say'
p262
aS'yes'
p263
aS'you'
p264
aS'can'
p265
aaa(lp266
g245
a(lp267
S'because'
p268
aS'they'
p269
aS'have'
p270
aS'all'
p271
aS'these'
p272
aS'groups'
p273
aS'that'
p274
aS'say'
p275
aaa(lp276
g245
a(lp277
S'that'
p278
aS'if'
p279
aS'you'
p280
aS'take'
p281
aS'their'
p282
aS'classes'
p283
aaa(lp284
g245
a(lp285
S'and'
p286
aS'they'
p287
aS'go'
p288
aS'over'
p289
aS'the'
p290
aS'test'
p291
aaa(lp292
S'STEPHANIENo'
p293
a(lp294
aa(lp295
g293
a(lp296
S'Mom'
p297
aaa(lp298
g293
a(lp299
S'Mom'
p300
aaa(lp301
g293
a(lp302
S'Mom'
p303
aaa(lp304
S'PATTY'
p305
a(lp306
S'you'
p307
aS'can'
p308
aS'raise'
p309
aS'your'
p310
aS'points'
p311
aaa(lp312
g305
a(lp313
S'you'
p314
aS'can'
p315
aS'raise'
p316
aS'your'
p317
aS'points'
p318
aS'a'
p319
aS'couple'
p320
aS'hundred'
p321
aS'points'
p322
aaa(lp323
S'STEPHANIEThe'
p324
a(lp325
S'SAT'
p326
aaa(lp327
g324
a(lp328
S'the'
p329
aS'SAT'
p330
aS'board'
p331
aS'itself'
p332
aS'has'
p333
aS'said'
p334
aaa(lp335
S'ERIKAYeah'
p336
a(lp337
aa(lp338
S'STEPHANIE'
p339
a(lp340
S'Yeah'
p341
aaa(lp342
g339
a(lp343
S'but'
p344
aS'thats'
p345
aS'just'
p346
aS'by'
p347
aS'learning'
p348
aS'tricks'
p349
aaa(lp350
g339
a(lp351
g79
aS'know'
p352
aS'what'
p353
aS'the'
p354
aS'tricks'
p355
aS'are'
p356
aaa(lp357
g339
a(lp358
S'Thats'
p359
aS'all'
p360
aS'you'
p361
aS'need'
p362
aS'to'
p363
aS'know'
p364
aaa(lp365
S'ERIKA'
p366
a(lp367
S'Teach'
p368
aS'them'
p369
aS'to'
p370
aS'me'
p371
aaa(lp372
S'STEPHANIEThe'
p373
a(lp374
S'only'
p375
aS'way'
p376
aS'you'
p377
aS'can'
p378
aaa(lp379
S'PATTYBut'
p380
a(lp381
S'what'
p382
aS'you'
p383
aS'have'
p384
aS'to'
p385
aS'remember'
p386
aS'is'
p387
aS'that'
p388
aaa(lp389
S'STEPHANIEThe'
p390
a(lp391
S'only'
p392
aS'way'
p393
aS'you'
p394
aS'can'
p395
aS'score'
p396
aS'high'
p397
aS'is'
p398
aS'if'
p399
aS'you'
p400
aS'read'
p401
ag319
aS'lot'
p402
aaa(lp403
g390
a(lp404
S'Thats'
p405
aS'all'
p406
aaa(lp407
S'PATTYwhat'
p408
a(lp409
S'you'
p410
aS'have'
p411
aS'to'
p412
aS'remember'
p413
aS'is'
p414
aaa(lp415
S'STEPHANIEYou'
p416
a(lp417
S'cant'
p418
aS'study'
p419
ag55
aaa(lp420
S'PATTYthat'
p421
a(lp422
S'the'
p423
aS'SAT'
p424
aS'is'
p425
aS'not'
p426
ag319
aS'whole'
p427
aS'measure'
p428
aS'of'
p429
aS'who'
p430
aS'you'
p431
aS'are'
p432
aaa(lp433
S'STEPHANIEHI'
p434
a(lp435
S'Oh'
p436
ag79
aS'know'
p437
aS'HI'
p438
aaa(lp439
S'PATTYIt'
p440
a(lp441
S'doesnt'
p442
aS'measure'
p443
aS'your'
p444
aS'creativity'
p445
aaa(lp446
g440
a(lp447
S'it'
p448
aS'doesnt'
p449
ag55
aS'measure'
p450
aS'you'
p451
aS'know'
p452
aS'so'
p453
ag55
aaa(lp454
S'STEPHANIEMom'
p455
a(lp456
aa(lp457
g455
a(lp458
g79
aS'know'
p459
aaa(lp460
g455
a(lp461
S'Mom'
p462
aaa(lp463
g455
a(lp464
S'Im'
p465
aS'not'
p466
aS'saying'
p467
aS'that'
p468
aaa(lp469
g455
a(lp470
S'But'
p471
ag79
aS'do'
p472
aS'need'
p473
aS'to'
p474
aS'have'
p475
ag319
aS'better'
p476
aS'SAT'
p477
aS'score'
p478
aS'for'
p479
aS'applications'
p480
aaa(lp481
g455
a(lp482
S'So'
p483
ag79
aS'wanna'
p484
aS'bring'
p485
aS'it'
p486
aS'up'
p487
aaa(lp488
S'PATTY'
p489
a(lp490
S'Whatd'
p491
aS'you'
p492
aS'say'
p493
aS'your'
p494
aS'score'
p495
aS'was'
p496
aaa(lp497
S'STEPHANIE'
p498
a(lp499
S'Ten'
p500
aS'seventy'
p501
aaa(lp502
S'ERIKA'
p503
a(lp504
S'Id'
p505
aS'be'
p506
aS'happy'
p507
aS'to'
p508
aS'get'
p509
aS'seven'
p510
aS'hundred'
p511
aaa(lp512
S'PATTYWell'
p513
a(lp514
S'youd'
p515
aS'only'
p516
aS'taken'
p517
aS'it'
p518
aS'once'
p519
aS'so'
p520
aaa(lp521
S'STEPHANIE'
p522
a(lp523
S'Yeah'
p524
aaa(lp525
S'ERIKA'
p526
a(lp527
aa(lp528
S'PATTY'
p529
a(lp530
g79
aS'think'
p531
aS'Claire'
p532
aS'took'
p533
aS'hers'
p534
ag319
aS'couple'
p535
aS'times'
p536
aaa(lp537
S'STEPHANIEWhat'
p538
a(lp539
aa(lp540
S'ERIKA'
p541
a(lp542
g79
aS'said'
p543
aS'Id'
p544
aS'be'
p545
aS'happy'
p546
aS'to'
p547
aS'get'
p548
aS'seven'
p549
aS'hundred'
p550
aaa(lp551
S'STEPHANIE'
p552
a(lp553
g79
ag79
aS'mean'
p554
aaa(lp555
g552
a(lp556
S'yeah'
p557
aaa(lp558
g552
a(lp559
S'people'
p560
aS'in'
p561
aS'my'
p562
aS'school'
p563
aS'when'
p564
ag79
aS'told'
p565
aS'em'
p566
aS'my'
p567
aS'score'
p568
aS'were'
p569
aS'like'
p570
aaa(lp571
g552
a(lp572
S'VOX'
p573
aS'oh'
p574
aaa(lp575
g552
a(lp576
S'you'
p577
aS'wont'
p578
aS'need'
p579
aS'to'
p580
aS'take'
p581
aS'it'
p582
aS'again'
p583
aS'VOX'
p584
aaa(lp585
g552
a(lp586
S'but'
p587
aS'then'
p588
aS'like'
p589
aaa(lp590
g552
a(lp591
S'my'
p592
aS'friends'
p593
aS'who'
p594
aS'have'
p595
aS'like'
p596
aS'thirteen'
p597
aS'fifty'
p598
aS'on'
p599
aS'their'
p600
aS'SATs'
p601
aaa(lp602
S'ERIKAWhos'
p603
a(lp604
S'that'
p605
aaa(lp606
S'PATTYBut'
p607
a(lp608
S'Stephanie'
p609
aaa(lp610
S'GAILYeah'
p611
a(lp612
aa(lp613
g611
a(lp614
S'but'
p615
ag79
aS'mean'
p616
aS'you'
p617
aS'can'
p618
aS'you'
p619
aS'cant'
p620
aS'compare'
p621
aS'yourself'
p622
aaa(lp623
S'PATTYyou'
p624
a(lp625
S'cannot'
p626
aS'compare'
p627
aS'yourself'
p628
aaa(lp629
g624
a(lp630
S'you'
p631
aS'are'
p632
aS'uniquely'
p633
aS'you'
p634
aaa(lp635
S'STEPHANIEMark'
p636
a(lp637
aa(lp638
S'ERIKAXXX'
p639
a(lp640
aa(lp641
S'PATTYYou'
p642
a(lp643
S'cant'
p644
aS'do'
p645
aS'that'
p646
aaa(lp647
S'STEPHANIEJohn'
p648
a(lp649
aa(lp650
S'ERIKAGlen'
p651
a(lp652
aa(lp653
S'STEPHANIEGlen'
p654
a(lp655
S'got'
p656
aS's'
p657
aS'what'
p658
aaa(lp659
g654
a(lp660
S'Glen'
p661
aS'got'
p662
aS'fifteen'
p663
aS'seventy'
p664
aS'or'
p665
aS'something'
p666
aS'like'
p667
aS'that'
p668
aaa(lp669
S'PATTYStephanie'
p670
a(lp671
aa(lp672
g670
a(lp673
S'you'
p674
aS'cannot'
p675
aS'com'
p676
aaa(lp677
S'STEPHANIEI'
p678
a(lp679
S'was'
p680
aS'like'
p681
aS'you'
p682
aS'make'
p683
aS'me'
p684
aS'sick'
p685
aaa(lp686
S'PATTYStephanie'
p687
a(lp688
aa(lp689
S'ERIKAX'
p690
a(lp691
S'But'
p692
aS'dont'
p693
aS'you'
p694
aS'be'
p695
aS'like'
p696
ag55
aS'Glen'
p697
aS'is'
p698
aaa(lp699
S'PATTYyou'
p700
a(lp701
S'cant'
p702
aS'compare'
p703
aS'yourself'
p704
aaa(lp705
S'STEPHANIEI'
p706
a(lp707
S'know'
p708
aaa(lp709
g706
a(lp710
S'Glen'
p711
aS'has'
p712
aS'to'
p713
aS'like'
p714
aS'get'
p715
aS'dates'
p716
aS'through'
p717
aS'the'
p718
aS'computer'
p719
aaa(lp720
S'ERIKAHow'
p721
a(lp722
S'do'
p723
aS'you'
p724
aS'think'
p725
ag79
aS'feel'
p726
aS'when'
p727
ag79
aS'get'
p728
aS'around'
p729
aS'Glen'
p730
aaa(lp731
S'PATTYWhen'
p732
a(lp733
S'you'
p734
aS'learn'
p735
aS'that'
p736
aS'you'
p737
aS'cant'
p738
aS'compare'
p739
aaa(lp740
g732
a(lp741
S'youll'
p742
aS'really'
p743
aS'be'
p744
aS'grown'
p745
aS'up'
p746
aaa(lp747
g732
a(lp748
S'You'
p749
aS'are'
p750
aS'uniquely'
p751
aS'you'
p752
aaa(lp753
S'STEPHANIENo'
p754
a(lp755
aa(lp756
g754
a(lp757
g79
aS'mean'
p758
aaa(lp759
S'PATTY'
p760
a(lp761
S'You'
p762
aS'are'
p763
aS'not'
p764
aS'like'
p765
aS'anybody'
p766
aS'else'
p767
aaa(lp768
S'STEPHANIEI'
p769
a(lp770
aa(lp771
g769
a(lp772
S'But'
p773
aS'Mom'
p774
aaa(lp775
S'PATTYYou'
p776
a(lp777
S'have'
p778
aS'to'
p779
aS'accept'
p780
aS'that'
p781
aaa(lp782
S'STEPHANIEThe'
p783
a(lp784
S'reason'
p785
ag79
aS'am'
p786
aS'saying'
p787
ag79
aS'need'
p788
aS'to'
p789
aS'bring'
p790
aS'them'
p791
aS'up'
p792
aaa(lp793
g783
a(lp794
S'and'
p795
aS'the'
p796
aS'fact'
p797
aS'that'
p798
aS'other'
p799
aS'people'
p800
aS'have'
p801
aS'higher'
p802
aS'scores'
p803
aaa(lp804
g783
a(lp805
S'is'
p806
aS'that'
p807
aaa(lp808
g783
a(lp809
g79
aS'do'
p810
aS'need'
p811
aS'to'
p812
aS'bring'
p813
aS'them'
p814
aS'up'
p815
aS'from'
p816
aS'ten'
p817
aS'seventy'
p818
aaa(lp819
g783
a(lp820
S'if'
p821
ag79
aS'wanna'
p822
aS'have'
p823
ag319
aS'better'
p824
aS'chance'
p825
aS'at'
p826
aS'getting'
p827
aS'into'
p828
aS'colleges'
p829
aaa(lp830
S'ERIKAWheres'
p831
a(lp832
S'your'
p833
aS'bathroom'
p834
aS'at'
p835
aaa(lp836
S'MAUREENRight'
p837
a(lp838
S'around'
p839
aS'the'
p840
aS'bend'
p841
aaa(lp842
S'PATTYIts'
p843
a(lp844
S'not'
p845
aS'all'
p846
aS'they'
p847
aS'look'
p848
aS'at'
p849
aS'though'
p850
aaa(lp851
S'MAUREENOr'
p852
a(lp853
S'upstairs'
p854
aaa(lp855
g852
a(lp856
S'One'
p857
aS'or'
p858
aS'the'
p859
aS'other'
p860
aaa(lp861
S'STEPHANIEYes'
p862
a(lp863
aa(lp864
g862
a(lp865
S'But'
p866
aS'its'
p867
aS'one'
p868
aS'of'
p869
aS'the'
p870
aS'things'
p871
aS'that'
p872
ag319
aS'lot'
p873
aS'of'
p874
aS'colleges'
p875
aS'use'
p876
aaa(lp877
S'ERIKAIll'
p878
a(lp879
S'find'
p880
aS'one'
p881
aaa(lp882
S'MAUREEN'
p883
a(lp884
aa(lp885
S'GAILRight'
p886
a(lp887
S'around'
p888
aS'the'
p889
aS'bend'
p890
aaa(lp891
S'PATTY'
p892
a(lp893
S'Well'
p894
aaa(lp895
g892
a(lp896
S'you'
p897
aS'know'
p898
aaa(lp899
S'MAUREENOr'
p900
a(lp901
S'you'
p902
aS'can'
p903
aS'go'
p904
aS'upstairs'
p905
aS'if'
p906
aS'you'
p907
aS'want'
p908
aS'Erika'
p909
aaa(lp910
S'PATTYjust'
p911
a(lp912
S'uh'
p913
aaa(lp914
S'STEPHANIE'
p915
a(lp916
S'HIX'
p917
aS'Well'
p918
aS'XHI'
p919
aaa(lp920
S'MAUREENwith'
p921
a(lp922
S'all'
p923
aS'those'
p924
aS'guys'
p925
aS'sitting'
p926
aS'there'
p927
aaa(lp928
S'PATTYX'
p929
a(lp930
S'Well'
p931
aS'its'
p932
aS'on'
p933
ag55
aaa(lp934
S'GAILX'
p935
a(lp936
g79
aS'cant'
p937
ag55
ag55
aaa(lp938
g935
a(lp939
g79
aS'should'
p940
aS'look'
p941
aS'around'
p942
aS'and'
p943
aS'see'
p944
aS'what'
p945
aS'else'
p946
aS'is'
p947
aaa(lp948
S'MAUREENGo'
p949
a(lp950
S'up'
p951
aS'to'
p952
aS'the'
p953
aS'top'
p954
aS'of'
p955
aS'the'
p956
aS'stairs'
p957
aaa(lp958
g949
a(lp959
S'go'
p960
aS'straight'
p961
aS'ahead'
p962
aaa(lp963
S'GAIL'
p964
a(lp965
S'What'
p966
aS'else'
p967
aS'is'
p968
aS'there'
p969
aaa(lp970
S'MAUREEN'
p971
a(lp972
S'and'
p973
aS'youll'
p974
aS'see'
p975
aS'it'
p976
aS'on'
p977
aS'the'
p978
aS'right'
p979
aaa(lp980
S'ERIKAOkay'
p981
a(lp982
aa(lp983
S'GAILTheres'
p984
a(lp985
g319
aS'good'
p986
ag55
aS'see'
p987
ag55
aaa(lp988
S'PATTYHow'
p989
a(lp990
S'about'
p991
aS'this'
p992
aS'school'
p993
aS'called'
p994
aS'Adrian'
p995
aS'College'
p996
aS'in'
p997
aS'Michigan'
p998
aaa(lp999
S'STEPHANIEXXX'
p1000
a(lp1001
aa(lp1002
g1000
a(lp1003
S'Yeah'
p1004
aaa(lp1005
S'PATTYIts'
p1006
a(lp1007
S'real'
p1008
aaa(lp1009
S'STEPHANIEits'
p1010
a(lp1011
S'in'
p1012
aS'Adrian'
p1013
aS'Michigan'
p1014
aaa(lp1015
S'PATTYnot'
p1016
a(lp1017
S'very'
p1018
aS'far'
p1019
aS'from'
p1020
aS'uh'
p1021
aS'Ann'
p1022
aS'Arbor'
p1023
aaa(lp1024
g1016
a(lp1025
S'They'
p1026
aS'sent'
p1027
aS'you'
p1028
ag319
aS'lotta'
p1029
aS'information'
p1030
aaa(lp1031
g1016
a(lp1032
S'Sounds'
p1033
aS'like'
p1034
ag319
aS'neat'
p1035
aS'school'
p1036
aaa(lp1037
S'STEPHANIEBut'
p1038
a(lp1039
aa(lp1040
g1038
a(lp1041
S'they'
p1042
aS'dont'
p1043
aS'have'
p1044
ag55
ag319
aS'lot'
p1045
aS'of'
p1046
ag55
aaa(lp1047
S'PATTYIts'
p1048
a(lp1049
g319
aS'smaller'
p1050
aS'school'
p1051
aaa(lp1052
S'GAIL'
p1053
a(lp1054
g79
aS'had'
p1055
ag319
aS'really'
p1056
aS'good'
p1057
aS'book'
p1058
aS'that'
p1059
ag79
aS'should'
p1060
aS'give'
p1061
aS'you'
p1062
aaa(lp1063
S'STEPHANIEThey'
p1064
a(lp1065
S'dont'
p1066
aS'have'
p1067
aS'that'
p1068
aS'many'
p1069
aS'majors'
p1070
aS'Mom'
p1071
aaa(lp1072
g1064
a(lp1073
g79
aS'wanna'
p1074
aS'go'
p1075
aS'to'
p1076
ag319
aS'school'
p1077
aS'that'
p1078
aS'has'
p1079
ag319
aS'large'
p1080
aS'variety'
p1081
aS'of'
p1082
aS'majors'
p1083
aaa(lp1084
g1064
a(lp1085
S'and'
p1086
aS'so'
p1087
aS'if'
p1088
ag79
aS'change'
p1089
aaa(lp1090
g1064
a(lp1091
g79
aS'have'
p1092
aS'something'
p1093
aS'to'
p1094
aS'F'
p1095
aS'look'
p1096
aS'at'
p1097
ag1095
aaa(lp1098
S'PATTY'
p1099
a(lp1100
S'You'
p1101
aS'have'
p1102
aS'to'
p1103
aS'remember'
p1104
aS'one'
p1105
aS'thing'
p1106
aaa(lp1107
S'GAILHm'
p1108
a(lp1109
aa(lp1110
S'PATTYand'
p1111
a(lp1112
S'and'
p1113
ag79
aS'dont'
p1114
aS'know'
p1115
aaa(lp1116
g1111
a(lp1117
S'maybe'
p1118
aS'maybe'
p1119
aS'Gail'
p1120
aS'could'
p1121
ag1095
aS'talk'
p1122
aS'about'
p1123
aS'that'
p1124
aaa(lp1125
S'GAILOU'
p1126
a(lp1127
S'had'
p1128
ag319
aS'good'
p1129
aS'art'
p1130
aS'department'
p1131
aaa(lp1132
S'PATTYGail'
p1133
a(lp1134
S'went'
p1135
ag1095
aS'to'
p1136
ag319
aS'big'
p1137
aS'school'
p1138
aaa(lp1139
g1133
a(lp1140
S'A'
p1141
aS'big'
p1142
aS'school'
p1143
aS'was'
p1144
aS'very'
p1145
aS'different'
p1146
aS'than'
p1147
ag319
aS'small'
p1148
aS'school'
p1149
aaa(lp1150
g1133
a(lp1151
S'Now'
p1152
aS'Aunt'
p1153
aS'Maureen'
p1154
aS'went'
p1155
aS'to'
p1156
ag319
aS'smaller'
p1157
aS'school'
p1158
aaa(lp1159
S'STEPHANIEMom'
p1160
a(lp1161
aa(lp1162
g1160
a(lp1163
g79
aS'want'
p1164
aaa(lp1165
S'PATTY'
p1166
a(lp1167
S'well'
p1168
aS'they'
p1169
aS'bo'
p1170
aaa(lp1171
g1166
a(lp1172
S'Now'
p1173
aS'wait'
p1174
aaa(lp1175
g1166
a(lp1176
S'They'
p1177
aS'both'
p1178
aS'have'
p1179
aS'advantages'
p1180
aS'and'
p1181
aS'disadvantages'
p1182
aaa(lp1183
g1166
a(lp1184
S'Both'
p1185
aS'of'
p1186
aS'them'
p1187
aaa(lp1188
g1166
a(lp1189
S'You'
p1190
aS'have'
p1191
aS'to'
p1192
aS'see'
p1193
aS'which'
p1194
aS'ones'
p1195
aS'fits'
p1196
aS'your'
p1197
aS'personality'
p1198
aS'best'
p1199
aaa(lp1200
S'STEPHANIEOh'
p1201
a(lp1202
g79
aS'know'
p1203
aaa(lp1204
g1201
a(lp1205
S'But'
p1206
aS'Mom'
p1207
aaa(lp1208
S'PATTYThats'
p1209
a(lp1210
S'it'
p1211
aaa(lp1212
S'STEPHANIE'
p1213
a(lp1214
S'of'
p1215
aS'my'
p1216
aS'personality'
p1217
aaa(lp1218
g1213
a(lp1219
S'even'
p1220
aS'Claire'
p1221
aS'said'
p1222
aaa(lp1223
g1213
a(lp1224
S'that'
p1225
aS'she'
p1226
aS'thinks'
p1227
ag79
aS'would'
p1228
aS'do'
p1229
aS'fine'
p1230
aS'at'
p1231
ag319
aS'bi'
p1232
aaa(lp1233
S'PATTY'
p1234
a(lp1235
S'Dont'
p1236
aS'take'
p1237
aS'Claire'
p1238
aS'as'
p1239
aS'an'
p1240
aS'authority'
p1241
aaa(lp1242
S'STEPHANIEIm'
p1243
a(lp1244
S'not'
p1245
aS'taking'
p1246
aS'her'
p1247
aS'as'
p1248
aS'an'
p1249
aS'authority'
p1250
aaa(lp1251
S'MAUREEN'
p1252
a(lp1253
aa(lp1254
S'GAIL'
p1255
a(lp1256
aa(lp1257
g1255
a(lp1258
S'Ah'
p1259
aaa(lp1260
S'PATTYBelieve'
p1261
a(lp1262
S'me'
p1263
aaa(lp1264
g1261
a(lp1265
S'Ive'
p1266
aS'lived'
p1267
aS'with'
p1268
aS'Claire'
p1269
aaa(lp1270
S'STEPHANIEIm'
p1271
a(lp1272
S'just'
p1273
aS'saying'
p1274
aS'that'
p1275
aaa(lp1276
S'GAIL'
p1277
a(lp1278
aa(lp1279
S'STEPHANIE'
p1280
a(lp1281
S'But'
p1282
aS'Mom'
p1283
aaa(lp1284
g1280
a(lp1285
S'if'
p1286
ag79
aS'wanna'
p1287
aS'go'
p1288
aS'to'
p1289
ag319
aS'big'
p1290
aS'school'
p1291
aaa(lp1292
g1280
a(lp1293
S'thats'
p1294
aS'my'
p1295
aS'choice'
p1296
aaa(lp1297
S'PATTYIf'
p1298
a(lp1299
S'Im'
p1300
aS'willing'
p1301
aS'to'
p1302
aS'pay'
p1303
aS'for'
p1304
aS'it'
p1305
aaa(lp1306
g1298
a(lp1307
S'yes'
p1308
aaa(lp1309
S'STEPHANIEIts'
p1310
a(lp1311
S'cheaper'
p1312
aS'to'
p1313
aS'go'
p1314
aS'to'
p1315
ag319
aS'university'
p1316
aS'than'
p1317
aS'it'
p1318
aS'is'
p1319
aS'to'
p1320
aS'go'
p1321
aS'to'
p1322
ag319
aS'private'
p1323
aS'school'
p1324
aS'Mom'
p1325
aaa(lp1326
S'PATTY'
p1327
a(lp1328
S'Depends'
p1329
aS'where'
p1330
aS'you'
p1331
aS'feel'
p1332
aS'comfortable'
p1333
aaa(lp1334
S'MAUREENUh'
p1335
a(lp1336
aa(lp1337
g1335
a(lp1338
g79
aS'have'
p1339
ag319
aS'platter'
p1340
aaa(lp1341
S'PATTYWhen'
p1342
a(lp1343
S'you'
p1344
aS'get'
p1345
aS'on'
p1346
ag319
aS'campus'
p1347
aS'sometimes'
p1348
ag79
aS'think'
p1349
aS'it'
p1350
aS'might'
p1351
aaa(lp1352
S'MAUREEN'
p1353
a(lp1354
S'you'
p1355
aS'can'
p1356
aS'get'
p1357
ag319
aS'platter'
p1358
aS'for'
p1359
aS'that'
p1360
ag55
aS'its'
p1361
ag55
aaa(lp1362
S'PATTYGail'
p1363
a(lp1364
S'might'
p1365
aS'say'
p1366
aaa(lp1367
S'GAILYeah'
p1368
a(lp1369
S'you'
p1370
aS'have'
p1371
aS'to'
p1372
aS'go'
p1373
aaa(lp1374
g1368
a(lp1375
S'you'
p1376
aS'have'
p1377
aS'to'
p1378
aS'go'
p1379
ag55
aS'out'
p1380
aS'and'
p1381
aS'visit'
p1382
aS'and'
p1383
aS'then'
p1384
ag55
aaa(lp1385
S'PATTYyou'
p1386
a(lp1387
S'feel'
p1388
aS'like'
p1389
aaa(lp1390
g1386
a(lp1391
S'hey'
p1392
ag79
aS'like'
p1393
aS'this'
p1394
aS'place'
p1395
aaa(lp1396
g1386
a(lp1397
g79
aS'think'
p1398
ag79
aS'could'
p1399
aS'belong'
p1400
aaa(lp1401
g1386
a(lp1402
S'or'
p1403
aS'you'
p1404
aS'think'
p1405
aaa(lp1406
g1386
a(lp1407
g79
aS'dont'
p1408
ag79
aS'dont'
p1409
aS'feel'
p1410
aS'comfortable'
p1411
aS'here'
p1412
aaa(lp1413
S'GAILI'
p1414
a(lp1415
S'dont'
p1416
aS'feel'
p1417
aS'comfortable'
p1418
aS'here'
p1419
aaa(lp1420
S'PATTY'
p1421
a(lp1422
S'And'
p1423
aS'thats'
p1424
aS'what'
p1425
aS'has'
p1426
aS'to'
p1427
aS'be'
p1428
aS'your'
p1429
aS'final'
p1430
aS'goal'
p1431
aaa(lp1432
S'STEPHANIEOh'
p1433
a(lp1434
S'yeah'
p1435
aaa(lp1436
g1433
a(lp1437
g79
aS'know'
p1438
aS'that'
p1439
aaa(lp1440
S'PATTYA'
p1441
a(lp1442
S'place'
p1443
aS'that'
p1444
aS'has'
p1445
aS'what'
p1446
aS'you'
p1447
aS'want'
p1448
aaa(lp1449
g1441
a(lp1450
S'but'
p1451
aS'you'
p1452
aS'feel'
p1453
aS'good'
p1454
aS'about'
p1455
aS'it'
p1456
aaa(lp1457
S'STEPHANIEBut'
p1458
a(lp1459
aa(lp1460
S'PATTYYou'
p1461
a(lp1462
S'walk'
p1463
aS'on'
p1464
aS'campus'
p1465
aS'and'
p1466
aS'you'
p1467
aS'think'
p1468
aaa(lp1469
g1461
a(lp1470
S'hey'
p1471
aS'theres'
p1472
aS'something'
p1473
aS'about'
p1474
aS'this'
p1475
aS'place'
p1476
aaa(lp1477
S'MAUREENX'
p1478
a(lp1479
S'Ill'
p1480
ag55
aS'dump'
p1481
aS'this'
p1482
aS'outside'
p1483
aaa(lp1484
S'PATTY'
p1485
a(lp1486
S'that'
p1487
aaa(lp1488
g1485
a(lp1489
S'that'
p1490
aS'speaks'
p1491
aS'to'
p1492
aS'me'
p1493
aaa(lp1494
S'STEPHANIEI'
p1495
a(lp1496
S'had'
p1497
aS'one'
p1498
aS'college'
p1499
aS'that'
p1500
aS'did'
p1501
aS'that'
p1502
aaa(lp1503
S'PATTYyou'
p1504
a(lp1505
S'know'
p1506
aaa(lp1507
g1504
a(lp1508
S'you'
p1509
aS'dont'
p1510
aS'know'
p1511
aS'that'
p1512
aS'until'
p1513
aS'youre'
p1514
aS'on'
p1515
aS'the'
p1516
aS'campus'
p1517
aaa(lp1518
S'STEPHANIEI'
p1519
a(lp1520
S'had'
p1521
ag319
aS'college'
p1522
aS'that'
p1523
aS'did'
p1524
aS'that'
p1525
aaa(lp1526
S'GAILMm'
p1527
a(lp1528
aa(lp1529
S'STEPHANIEbut'
p1530
a(lp1531
g79
aS'would'
p1532
aS'nev'
p1533
aaa(lp1534
g1530
a(lp1535
g79
aS'cant'
p1536
aS'get'
p1537
aS'in'
p1538
aaa(lp1539
g1530
a(lp1540
S'cause'
p1541
aS'its'
p1542
aS'just'
p1543
aS'too'
p1544
aS'impossible'
p1545
aaa(lp1546
g1530
a(lp1547
S'Duke'
p1548
aS'University'
p1549
aaa(lp1550
S'GAILYeah'
p1551
a(lp1552
aa(lp1553
g1551
a(lp1554
S'Duke'
p1555
aaa(lp1556
g1551
a(lp1557
S'Yeah'
p1558
aaa(lp1559
S'STEPHANIEI'
p1560
a(lp1561
S'fell'
p1562
aS'in'
p1563
aS'love'
p1564
aS'with'
p1565
aS'that'
p1566
aS'school'
p1567
aS'right'
p1568
aS'away'
p1569
aS'but'
p1570
aaa(lp1571
S'MAUREENWell'
p1572
a(lp1573
aa(lp1574
g1572
a(lp1575
S'you'
p1576
aS'can'
p1577
aS'always'
p1578
aS'apply'
p1579
aaa(lp1580
S'GAILApply'
p1581
a(lp1582
aa(lp1583
g1581
a(lp1584
S'thats'
p1585
aS'true'
p1586
aaa(lp1587
S'MAUREENAbsolutely'
p1588
a(lp1589
aa(lp1590
S'STEPHANIEYeah'
p1591
a(lp1592
aa(lp1593
g1591
a(lp1594
S'But'
p1595
aaa(lp1596
g1591
a(lp1597
g79
aS'dont'
p1598
aS'know'
p1599
aS'if'
p1600
aS'Im'
p1601
aS'gonna'
p1602
aS'bother'
p1603
aaa(lp1604
g1591
a(lp1605
S'cause'
p1606
aS'its'
p1607
aS'like'
p1608
ag319
aS'seventyfivedollar'
p1609
aS'application'
p1610
aS'fee'
p1611
aaa(lp1612
g1591
a(lp1613
S'and'
p1614
aS'the'
p1615
aS'chances'
p1616
aS'of'
p1617
aS'me'
p1618
aS'getting'
p1619
aS'in'
p1620
aS'there'
p1621
aS'are'
p1622
aS'like'
p1623
aS'zilch'
p1624
aaa(lp1625
g1591
a(lp1626
S'So'
p1627
aaa(lp1628
S'MAUREEN'
p1629
a(lp1630
S'What'
p1631
aaa(lp1632
g1629
a(lp1633
S'what'
p1634
aS'do'
p1635
aS'they'
p1636
aS'require'
p1637
aaa(lp1638
S'STEPHANIE'
p1639
a(lp1640
S'Ih'
p1641
aaa(lp1642
g1639
a(lp1643
S'the'
p1644
aS'people'
p1645
aS'that'
p1646
ag79
aS'have'
p1647
aS'met'
p1648
aS'that'
p1649
aS'have'
p1650
aS'gotten'
p1651
aS'in'
p1652
aaa(lp1653
g1639
a(lp1654
S'had'
p1655
aS'four'
p1656
aS'point'
p1657
aS'os'
p1658
aaa(lp1659
g1639
a(lp1660
S'uh'
p1661
aaa(lp1662
g1639
a(lp1663
S'fourteen'
p1664
aS'hundred'
p1665
aS'on'
p1666
aS'their'
p1667
aS'SATs'
p1668
aS'and'
p1669
aS'uh'
p1670
aaa(lp1671
S'PATTYWell'
p1672
a(lp1673
S'kiddo'
p1674
aaa(lp1675
g1672
a(lp1676
S'you'
p1677
aS'had'
p1678
ag319
aS'chance'
p1679
aS'to'
p1680
aS'study'
p1681
aaa(lp1682
g1672
a(lp1683
S'you'
p1684
aS'know'
p1685
aaa(lp1686
g1672
a(lp1687
g79
aS'mean'
p1688
aS'thats'
p1689
aaa(lp1690
S'STEPHANIE'
p1691
a(lp1692
S'basically'
p1693
aaa(lp1694
g1691
a(lp1695
S'they'
p1696
aS'they'
p1697
aS'were'
p1698
aS'in'
p1699
aS'like'
p1700
aaa(lp1701
S'PATTYKept'
p1702
a(lp1703
S'telling'
p1704
aS'her'
p1705
aaa(lp1706
S'STEPHANIEthe'
p1707
a(lp1708
S'three'
p1709
aS'clubs'
p1710
aS'like'
p1711
aaa(lp1712
g1707
a(lp1713
S'the'
p1714
aS'Young'
p1715
aS'Republicans'
p1716
aaa(lp1717
S'PATTYComes'
p1718
a(lp1719
S'you'
p1720
aS'know'
p1721
aaa(lp1722
g1718
a(lp1723
S'when'
p1724
aS'it'
p1725
aS'comes'
p1726
aS'down'
p1727
aS'to'
p1728
aS'the'
p1729
aS'you'
p1730
aS'know'
p1731
aaa(lp1732
S'STEPHANIEuh'
p1733
a(lp1734
aa(lp1735
S'GENEVIEVE'
p1736
a(lp1737
aa(lp1738
S'STEPHANIE'
p1739
a(lp1740
S'some'
p1741
aS'uh'
p1742
aS'like'
p1743
aS'business'
p1744
aS'management'
p1745
aS'and'
p1746
aS'something'
p1747
aS'else'
p1748
aaa(lp1749
S'GENEVIEVEX'
p1750
a(lp1751
aa(lp1752
S'PATTYPast'
p1753
a(lp1754
S'performance'
p1755
aS'has'
p1756
aS'something'
p1757
aS'to'
p1758
aS'say'
p1759
aS'about'
p1760
aS'that'
p1761
aaa(lp1762
S'STEPHANIEYou'
p1763
a(lp1764
S'know'
p1765
aaa(lp1766
S'PATTY'
p1767
a(lp1768
S'But'
p1769
aS'Stephanie'
p1770
aaa(lp1771
g1767
a(lp1772
S'Ive'
p1773
aS'been'
p1774
aS'telling'
p1775
aS'you'
p1776
aS'for'
p1777
aS'four'
p1778
aS'years'
p1779
aaa(lp1780
g1767
a(lp1781
S'youve'
p1782
aS'gotta'
p1783
aS'work'
p1784
aS'hard'
p1785
aaa(lp1786
S'STEPHANIEMom'
p1787
a(lp1788
aa(lp1789
g1787
a(lp1790
S'Mom'
p1791
aaa(lp1792
g1787
a(lp1793
S'Mom'
p1794
aaa(lp1795
S'MAUREENGail'
p1796
a(lp1797
S'understands'
p1798
aaa(lp1799
S'STEPHANIE'
p1800
a(lp1801
g79
aS'dont'
p1802
aS'wanna'
p1803
aS'hear'
p1804
aS'it'
p1805
aaa(lp1806
S'MAUREEN'
p1807
a(lp1808
aa(lp1809
S'GAIL'
p1810
a(lp1811
S'Good'
p1812
aS'old'
p1813
aS'BU'
p1814
aS'didnt'
p1815
aS'want'
p1816
aS'me'
p1817
aaa(lp1818
g1810
a(lp1819
g55
aS'No'
p1820
ag55
aS'BC'
p1821
aaa(lp1822
S'STEPHANIEXX'
p1823
a(lp1824
aa(lp1825
S'MAUREEN'
p1826
a(lp1827
S'BC'
p1828
aaa(lp1829
g1826
a(lp1830
S'They'
p1831
aS'didnt'
p1832
aS'want'
p1833
aS'her'
p1834
aaa(lp1835
S'GAILThey'
p1836
a(lp1837
S'didnt'
p1838
aS'want'
p1839
aS'me'
p1840
aaa(lp1841
S'MAUREEN'
p1842
a(lp1843
S'She'
p1844
aS'snowed'
p1845
aS'the'
p1846
aS'interviewer'
p1847
aaa(lp1848
g1842
a(lp1849
S'but'
p1850
aS'they'
p1851
aS'still'
p1852
aS'didnt'
p1853
aS'want'
p1854
aS'her'
p1855
aaa(lp1856
S'STEPHANIE'
p1857
a(lp1858
aa(lp1859
g1857
a(lp1860
S'You'
p1861
aS'snowed'
p1862
aS'the'
p1863
aS'interviewer'
p1864
aaa(lp1865
S'GAIL'
p1866
a(lp1867
S'The'
p1868
aS'interviewer'
p1869
aS'was'
p1870
aS'so'
p1871
aS'goodlooking'
p1872
aaa(lp1873
S'MAUREEN'
p1874
a(lp1875
aa(lp1876
S'PATTYHa'
p1877
a(lp1878
S'haha'
p1879
aaa(lp1880
S'STEPHANIE'
p1881
a(lp1882
aa(lp1883
g1881
a(lp1884
g79
aS'love'
p1885
aS'it'
p1886
aaa(lp1887
S'GAILHe'
p1888
a(lp1889
S'was'
p1890
aS'this'
p1891
aS'young'
p1892
aS'attorney'
p1893
aaa(lp1894
g1888
a(lp1895
S'He'
p1896
aS'was'
p1897
aS'real'
p1898
aS'young'
p1899
aaa(lp1900
g1888
a(lp1901
S'and'
p1902
ag79
aS'had'
p1903
aS'my'
p1904
aS'interview'
p1905
aS'in'
p1906
aS'the'
p1907
aS'US'
p1908
aS'Steel'
p1909
aS'Building'
p1910
aaa(lp1911
g1888
a(lp1912
S'And'
p1913
ag79
aS'went'
p1914
aS'up'
p1915
aS'there'
p1916
aS'and'
p1917
aaa(lp1918
g1888
a(lp1919
S'but'
p1920
aaa(lp1921
g1888
a(lp1922
S'You'
p1923
aS'know'
p1924
aS'what'
p1925
aaa(lp1926
g1888
a(lp1927
S'they'
p1928
aS'asked'
p1929
aS'me'
p1930
aS'some'
p1931
aS'really'
p1932
aS'weird'
p1933
aS'questions'
p1934
aS'though'
p1935
aaa(lp1936
S'MAUREENI'
p1937
a(lp1938
S'know'
p1939
aaa(lp1940
g1937
a(lp1941
g79
aS'know'
p1942
aaa(lp1943
S'PATTYThey'
p1944
a(lp1945
S'did'
p1946
aaa(lp1947
S'GAILLike'
p1948
a(lp1949
S'they'
p1950
aaa(lp1951
g1948
a(lp1952
g79
aS'expected'
p1953
aS'to'
p1954
aS'go'
p1955
aS'in'
p1956
aS'there'
p1957
aS'and'
p1958
aS'talk'
p1959
aS'about'
p1960
aaa(lp1961
g1948
a(lp1962
S'you'
p1963
aS'know'
p1964
aS'my'
p1965
aS'life'
p1966
aaa(lp1967
g1948
a(lp1968
S'and'
p1969
aS'what'
p1970
ag79
aS'wanted'
p1971
aS'out'
p1972
aS'of'
p1973
ag319
aS'school'
p1974
aaa(lp1975
g1948
a(lp1976
S'and'
p1977
aS'what'
p1978
ag79
aS'expected'
p1979
aS'from'
p1980
aS'them'
p1981
aS'and'
p1982
aaa(lp1983
S'PATTYSo'
p1984
a(lp1985
S'what'
p1986
aS'did'
p1987
aS'they'
p1988
aS'ask'
p1989
aS'you'
p1990
aaa(lp1991
S'GAIL'
p1992
a(lp1993
S'They'
p1994
aS'asked'
p1995
aS'me'
p1996
aS'what'
p1997
aS'my'
p1998
aS'stance'
p1999
aS'was'
p2000
aS'abou'
p2001
aS'on'
p2002
aS'abortion'
p2003
aaa(lp2004
S'PATTYBoy'
p2005
a(lp2006
S'that'
p2007
aS'was'
p2008
ag319
aS'dumb'
p2009
aS'question'
p2010
aaa(lp2011
g2005
a(lp2012
S'thats'
p2013
aS'one'
p2014
aaa(lp2015
S'GAILBoom'
p2016
a(lp2017
aa(lp2018
g2016
a(lp2019
g79
aS'was'
p2020
aS'like'
p2021
aaa(lp2022
S'PATTYThats'
p2023
a(lp2024
g319
aS'controversial'
p2025
aS'question'
p2026
aaa(lp2027
g2023
a(lp2028
S'so'
p2029
ag79
ag55
aS'would'
p2030
ag55
aS'think'
p2031
aS'thats'
p2032
ag319
aS'dumb'
p2033
aS'one'
p2034
aS'to'
p2035
aS'ask'
p2036
aaa(lp2037
S'GAILWell'
p2038
a(lp2039
aa(lp2040
S'PATTYIts'
p2041
a(lp2042
S'controversial'
p2043
aaa(lp2044
S'GAILWell'
p2045
a(lp2046
S'they'
p2047
aS'asked'
p2048
aS'me'
p2049
aS'that'
p2050
aaa(lp2051
g2045
a(lp2052
S'and'
p2053
aS'they'
p2054
aS'asked'
p2055
aS'me'
p2056
aaa(lp2057
S'PATTYAnd'
p2058
a(lp2059
S'personal'
p2060
aaa(lp2061
S'GAILhow'
p2062
a(lp2063
g79
aS'thought'
p2064
aS'about'
p2065
aS'drug'
p2066
aS'testing'
p2067
aS'in'
p2068
aS'the'
p2069
aS'workplace'
p2070
aaa(lp2071
S'PATTYits'
p2072
a(lp2073
S'very'
p2074
aS'personal'
p2075
aaa(lp2076
g2072
a(lp2077
S'Very'
p2078
aS'personal'
p2079
aaa(lp2080
g2072
a(lp2081
S'Those'
p2082
aS'are'
p2083
aS'both'
p2084
aS'personal'
p2085
aS'questions'
p2086
aaa(lp2087
S'STEPHANIEYou'
p2088
a(lp2089
S'know'
p2090
aS'what'
p2091
aaa(lp2092
g2088
a(lp2093
S'Williams'
p2094
aS'did'
p2095
aS'the'
p2096
ag657
aaa(lp2097
S'GAILWell'
p2098
a(lp2099
aa(lp2100
g2098
a(lp2101
S'you'
p2102
aS'know'
p2103
aS'whats'
p2104
aS'funny'
p2105
aS'is'
p2106
aaa(lp2107
g2098
a(lp2108
S'you'
p2109
aS'know'
p2110
aaa(lp2111
g2098
a(lp2112
S'BC'
p2113
aS'is'
p2114
ag319
aS'Catholic'
p2115
aS'school'
p2116
aaa(lp2117
S'PATTYYeah'
p2118
a(lp2119
aa(lp2120
S'GAILAnd'
p2121
a(lp2122
g79
aS'th'
p2123
aaa(lp2124
g2121
a(lp2125
S'You'
p2126
aS'know'
p2127
aaa(lp2128
g2121
a(lp2129
g79
aS'dont'
p2130
aS'think'
p2131
aS'they'
p2132
aS'really'
p2133
aS'liked'
p2134
aS'my'
p2135
aS'answer'
p2136
aaa(lp2137
S'PATTY'
p2138
a(lp2139
aa(lp2140
S'GAILbut'
p2141
a(lp2142
S'uh'
p2143
aaa(lp2144
S'PATTYThats'
p2145
a(lp2146
aa(lp2147
g2145
a(lp2148
S'But'
p2149
aS'you'
p2150
aS'have'
p2151
aaa(lp2152
S'STEPHANIEWell'
p2153
a(lp2154
aa(lp2155
S'PATTY'
p2156
a(lp2157
S'but'
p2158
aS'you'
p2159
aS'still'
p2160
aS'have'
p2161
aS'freedom'
p2162
aS'of'
p2163
aS'choice'
p2164
aaa(lp2165
S'STEPHANIEYou'
p2166
a(lp2167
S'know'
p2168
aS'what'
p2169
aaa(lp2170
S'GAILThats'
p2171
a(lp2172
S'right'
p2173
aaa(lp2174
S'PATTYYeah'
p2175
a(lp2176
aa(lp2177
g2175
a(lp2178
g79
aS'mean'
p2179
aaa(lp2180
S'GAILXX'
p2181
a(lp2182
aa(lp2183
S'STEPHANIEWilliams'
p2184
a(lp2185
S'is'
p2186
aS'the'
p2187
aS'same'
p2188
aS'way'
p2189
aaa(lp2190
g2184
a(lp2191
S'Cause'
p2192
aS'Lee'
p2193
aS'went'
p2194
aaa(lp2195
g2184
a(lp2196
S'and'
p2197
aaa(lp2198
g2184
a(lp2199
S'Lee'
p2200
aS'applied'
p2201
aS'to'
p2202
aS'Williams'
p2203
aaa(lp2204
g2184
a(lp2205
S'And'
p2206
aS'she'
p2207
aS'got'
p2208
aS'waitlisted'
p2209
aaa(lp2210
g2184
a(lp2211
S'And'
p2212
aS'Williams'
p2213
aS'used'
p2214
aS'to'
p2215
aS'be'
p2216
aS'really'
p2217
aS'lib'
p2218
aaa(lp2219
g2184
a(lp2220
S'liberal'
p2221
aS'whatever'
p2222
aaa(lp2223
g2184
a(lp2224
S'But'
p2225
aS'lately'
p2226
aaa(lp2227
g2184
a(lp2228
S'the'
p2229
aS'information'
p2230
aS'theyre'
p2231
aS'sending'
p2232
aS'out'
p2233
aS'is'
p2234
aaa(lp2235
g2184
a(lp2236
S'VOX'
p2237
ag319
aS'nice'
p2238
aS'value'
p2239
aS'community'
p2240
aS'uh'
p2241
aaa(lp2242
g2184
a(lp2243
S'moral'
p2244
aS'stance'
p2245
aaa(lp2246
g2184
a(lp2247
S'dadadadada'
p2248
ag79
aS'mean'
p2249
aS'VOX'
p2250
aaa(lp2251
S'PATTYTheres'
p2252
a(lp2253
S'nothing'
p2254
aS'wrong'
p2255
aS'with'
p2256
aS'that'
p2257
aaa(lp2258
S'STEPHANIE'
p2259
a(lp2260
S'Well'
p2261
aS'no'
p2262
aaa(lp2263
g2259
a(lp2264
S'but'
p2265
aS'what'
p2266
aS'theyre'
p2267
aS'do'
p2268
aaa(lp2269
S'PATTYthats'
p2270
a(lp2271
S'important'
p2272
aaa(lp2273
S'STEPHANIEBut'
p2274
a(lp2275
aa(lp2276
g2274
a(lp2277
S'but'
p2278
aS'm'
p2279
aS'Mom'
p2280
aaa(lp2281
g2274
a(lp2282
S'what'
p2283
aS'Im'
p2284
aS'saying'
p2285
aS'is'
p2286
aaa(lp2287
S'PATTYIm'
p2288
a(lp2289
S'listening'
p2290
aaa(lp2291
S'STEPHANIE'
p2292
a(lp2293
S'They'
p2294
aS'had'
p2295
aaa(lp2296
g2292
a(lp2297
S'years'
p2298
aS'ago'
p2299
aaa(lp2300
g2292
a(lp2301
S'they'
p2302
aS'had'
p2303
aS'VOX'
p2304
aS'the'
p2305
aS'sitins'
p2306
aS'VOX'
p2307
aaa(lp2308
g2292
a(lp2309
S'everything'
p2310
aS'you'
p2311
aS'know'
p2312
aaa(lp2313
g2292
a(lp2314
S'real'
p2315
aS'liberal'
p2316
aaa(lp2317
g2292
a(lp2318
S'now'
p2319
aS'theyre'
p2320
aS'going'
p2321
aS'to'
p2322
aS'conservative'
p2323
aaa(lp2324
g2292
a(lp2325
S'and'
p2326
aS'when'
p2327
aS'she'
p2328
aS'was'
p2329
aS'interviewed'
p2330
aS'for'
p2331
aS'it'
p2332
aaa(lp2333
g2292
a(lp2334
S'they'
p2335
aS'took'
p2336
aS'her'
p2337
aS'answers'
p2338
aS'very'
p2339
aS'slowly'
p2340
aaa(lp2341
g2292
a(lp2342
S'and'
p2343
aS'they'
p2344
aS'waitlisted'
p2345
aS'her'
p2346
aaa(lp2347
g2292
a(lp2348
S'she'
p2349
aS'had'
p2350
aS'the'
p2351
aS'grades'
p2352
aaa(lp2353
g2292
a(lp2354
S'but'
p2355
aS'she'
p2356
aS'didnt'
p2357
aS'have'
p2358
aS'the'
p2359
aS'political'
p2360
aS'views'
p2361
aaa(lp2362
g2292
a(lp2363
S'And'
p2364
aaa(lp2365
g2292
a(lp2366
S'uh'
p2367
aaa(lp2368
g2292
a(lp2369
S'thats'
p2370
aS'what'
p2371
aS'was'
p2372
aS'happening'
p2373
aaa(lp2374
S'PATTYSo'
p2375
a(lp2376
S'maybe'
p2377
aS'she'
p2378
aS'was'
p2379
aS'better'
p2380
aS'to'
p2381
aS'be'
p2382
aS'in'
p2383
ag319
aS'place'
p2384
aaa(lp2385
g2375
a(lp2386
S'where'
p2387
aS'shes'
p2388
aS'free'
p2389
aS'to'
p2390
aS'express'
p2391
aS'herself'
p2392
aaa(lp2393
S'STEPHANIEOh'
p2394
a(lp2395
S'yeah'
p2396
aaa(lp2397
g2394
a(lp2398
S'Rice'
p2399
aaa(lp2400
g2394
a(lp2401
S'Rice'
p2402
aS'is'
p2403
aS'great'
p2404
aaa(lp2405
g2394
a(lp2406
S'She'
p2407
aaa(lp2408
S'PATTYYou'
p2409
a(lp2410
S'know'
p2411
aaa(lp2412
S'STEPHANIERice'
p2413
a(lp2414
S'is'
p2415
aS'really'
p2416
aS'liberal'
p2417
aaa(lp2418
g2413
a(lp2419
S'XX'
p2420
ag55
aS'XX'
p2421
ag55
aaa(lp2422
S'PATTYThings'
p2423
a(lp2424
S'work'
p2425
aS'out'
p2426
aS'sometimes'
p2427
aS'for'
p2428
aS'the'
p2429
aS'best'
p2430
aaa(lp2431
S'X'
p2432
a(lp2433
aa(lp2434
S'PATTYas'
p2435
a(lp2436
S'maybe'
p2437
aS'Gail'
p2438
aS'realizes'
p2439
aS'too'
p2440
aS'you'
p2441
aS'know'
p2442
aaa(lp2443
S'STEPHANIEOh'
p2444
a(lp2445
S'shes'
p2446
aS'much'
p2447
aS'happier'
p2448
aS'at'
p2449
aaa(lp2450
S'GAILYeah'
p2451
a(lp2452
aa(lp2453
S'STEPHANIE'
p2454
a(lp2455
S'Shes'
p2456
aS'happy'
p2457
aS'in'
p2458
aS'Texas'
p2459
aaa(lp2460
g2454
a(lp2461
S'Shes'
p2462
aS'really'
p2463
aS'happy'
p2464
aS'there'
p2465
aaa(lp2466
S'GAIL'
p2467
a(lp2468
S'Where'
p2469
aS'is'
p2470
aS'Rice'
p2471
aaa(lp2472
S'STEPHANIE'
p2473
a(lp2474
S'Its'
p2475
aS'in'
p2476
aS'Houston'
p2477
aaa(lp2478
S'GAILHouston'
p2479
a(lp2480
aa(lp2481
S'STEPHANIEIts'
p2482
a(lp2483
S'right'
p2484
aS'outside'
p2485
aS'of'
p2486
aS'Houston'
p2487
aaa(lp2488
g2482
a(lp2489
S'she'
p2490
aS'r'
p2491
aS'she'
p2492
aS'loves'
p2493
aS'it'
p2494
aS'there'
p2495
aaa(lp2496
g2482
a(lp2497
S'Um'
p2498
aaa(lp2499
g2482
a(lp2500
S'they'
p2501
aaa(lp2502
g2482
a(lp2503
S'their'
p2504
aS'admissions'
p2505
aS'were'
p2506
aS'higher'
p2507
aS'than'
p2508
aS'Harvards'
p2509
aS'this'
p2510
aS'year'
p2511
aaa(lp2512
S'GAIL'
p2513
a(lp2514
S'Really'
p2515
aaa(lp2516
S'STEPHANIE'
p2517
a(lp2518
S'They'
p2519
aS'have'
p2520
aS'one'
p2521
aS'of'
p2522
aS'the'
p2523
aS'top'
p2524
aS'history'
p2525
aS'departments'
p2526
aS'XX'
p2527
ag55
aaa(lp2528
S'GENEVIEVEMaureen'
p2529
a(lp2530
S'didnt'
p2531
aS'have'
p2532
aS'any'
p2533
aS'trouble'
p2534
aS'deciding'
p2535
aaa(lp2536
S'GAIL'
p2537
a(lp2538
S'Hm'
p2539
aaa(lp2540
S'PATTY'
p2541
a(lp2542
S'Well'
p2543
aS'sometimes'
p2544
aS'you'
p2545
aS'dont'
p2546
aaa(lp2547
g2541
a(lp2548
S'Some'
p2549
aS'people'
p2550
aS'are'
p2551
aS'lucky'
p2552
aaa(lp2553
S'GAILWhy'
p2554
a(lp2555
aa(lp2556
S'PATTYthey'
p2557
a(lp2558
S'always'
p2559
aS'know'
p2560
aS'where'
p2561
aS'they'
p2562
aS'wanna'
p2563
aS'be'
p2564
aS'or'
p2565
aS'what'
p2566
aS'and'
p2567
aaa(lp2568
S'GAILWhy'
p2569
a(lp2570
S'was'
p2571
aS'that'
p2572
aaa(lp2573
g2569
a(lp2574
g79
aS'was'
p2575
aS'probably'
p2576
aS'the'
p2577
aS'hardest'
p2578
aS'person'
p2579
aS'to'
p2580
aS'find'
p2581
ag319
aS'school'
p2582
aS'for'
p2583
aaa(lp2584
S'PATTYX'
p2585
a(lp2586
aa(lp2587
S'GAILbecause'
p2588
a(lp2589
S'everyone'
p2590
aaa(lp2591
g2588
a(lp2592
S'in'
p2593
aS'my'
p2594
aS'family'
p2595
aaa(lp2596
g2588
a(lp2597
S'knew'
p2598
aS'what'
p2599
aS'they'
p2600
aS'wanted'
p2601
aS'to'
p2602
aS'major'
p2603
aS'in'
p2604
aaa(lp2605
S'PATTYAnd'
p2606
a(lp2607
S'you'
p2608
aS'werent'
p2609
aS'sure'
p2610
aaa(lp2611
S'GAILImmediately'
p2612
a(lp2613
aa(lp2614
S'PATTYAnd'
p2615
a(lp2616
S'Stephanies'
p2617
aS'not'
p2618
aS'sure'
p2619
aS'either'
p2620
aaa(lp2621
S'GAILAnd'
p2622
a(lp2623
g79
aS'was'
p2624
aS'kinda'
p2625
aS'like'
p2626
aaa(lp2627
g2622
a(lp2628
S'yeah'
p2629
aaa(lp2630
g2622
a(lp2631
g79
aS'was'
p2632
aS'like'
p2633
aaa(lp2634
S'PATTYShe'
p2635
a(lp2636
S'has'
p2637
aS'some'
p2638
aS'idea'
p2639
aaa(lp2640
S'GAILwell'
p2641
a(lp2642
aa(lp2643
S'STEPHANIEYes'
p2644
a(lp2645
g79
aS'am'
p2646
aaa(lp2647
S'PATTY'
p2648
a(lp2649
S'Well'
p2650
aaa(lp2651
S'GAILWhatre'
p2652
a(lp2653
S'you'
p2654
aS'gonna'
p2655
aS'be'
p2656
aaa(lp2657
S'STEPHANIE'
p2658
a(lp2659
S'Im'
p2660
aS'gonna'
p2661
aS'be'
p2662
aS'an'
p2663
aS'art'
p2664
aS'historian'
p2665
aaa(lp2666
S'MAUREENShe'
p2667
a(lp2668
aa(lp2669
g2667
a(lp2670
g79
aS'thought'
p2671
aS'she'
p2672
aS'was'
p2673
aS'gonna'
p2674
aS'be'
p2675
ag319
aS'shortorder'
p2676
aS'chef'
p2677
aaa(lp2678
g2667
a(lp2679
S'Thats'
p2680
aS'what'
p2681
aS'she'
p2682
aaa(lp2683
S'GAIL'
p2684
a(lp2685
aa(lp2686
S'PATTYWell'
p2687
a(lp2688
S'she'
p2689
aS'has'
p2690
aS'no'
p2691
aS'experience'
p2692
aS'at'
p2693
aS'that'
p2694
aS'in'
p2695
aS'my'
p2696
aS'house'
p2697
aaa(lp2698
S'GAIL'
p2699
a(lp2700
g1141
aS'professional'
p2701
aS'griller'
p2702
aaa(lp2703
S'STEPHANIE'
p2704
a(lp2705
g79
aS'have'
p2706
aS'it'
p2707
aS'at'
p2708
aS'the'
p2709
aS'store'
p2710
aaa(lp2711
S'GAIL'
p2712
a(lp2713
aa(lp2714
S'GENEVIEVEStephanie'
p2715
a(lp2716
aa(lp2717
S'ERIKAA'
p2718
a(lp2719
S'manager'
p2720
aS'of'
p2721
aS'Tasty'
p2722
aS'Freeze'
p2723
aaa(lp2724
S'GENEVIEVE'
p2725
a(lp2726
S'what'
p2727
aS'are'
p2728
aS'you'
p2729
aS'going'
p2730
aS'to'
p2731
aS'w'
p2732
aaa(lp2733
g2725
a(lp2734
S'What'
p2735
aS'are'
p2736
aS'you'
p2737
aS'going'
p2738
aS'to'
p2739
aS'be'
p2740
aaa(lp2741
S'MAUREEN'
p2742
a(lp2743
aa(lp2744
S'STEPHANIEAn'
p2745
a(lp2746
S'art'
p2747
aS'historian'
p2748
aaa(lp2749
S'MAUREEN'
p2750
a(lp2751
S'Isnt'
p2752
aS'that'
p2753
aS'what'
p2754
aS'you'
p2755
aS'XX'
p2756
aS'XXX'
p2757
aaa(lp2758
S'GENEVIEVEA'
p2759
a(lp2760
S'what'
p2761
aaa(lp2762
S'STEPHANIEWell'
p2763
a(lp2764
S'an'
p2765
aS'art'
p2766
aS'history'
p2767
aS'major'
p2768
aaa(lp2769
S'MAUREEN'
p2770
a(lp2771
aa(lp2772
S'STEPHANIEDepends'
p2773
a(lp2774
S'on'
p2775
aS'what'
p2776
ag79
aS'minor'
p2777
aS'in'
p2778
aaa(lp2779
S'GAILArt'
p2780
a(lp2781
aa(lp2782
S'ERIKA'
p2783
a(lp2784
g79
aS'wanna'
p2785
aS'be'
p2786
ag319
aS'social'
p2787
aS'worker'
p2788
aaa(lp2789
S'MAUREEN'
p2790
a(lp2791
S'Oh'
p2792
aS'what'
p2793
aS'an'
p2794
aS'excellent'
p2795
aS'choice'
p2796
aaa(lp2797
S'STEPHANIEI'
p2798
a(lp2799
S'have'
p2800
aS'to'
p2801
ag55
aS'determine'
p2802
aS'my'
p2803
aS'minor'
p2804
ag55
aaa(lp2805
S'PATTYProbably'
p2806
a(lp2807
S'be'
p2808
aS'good'
p2809
aS'at'
p2810
aS'that'
p2811
aaa(lp2812
S'MAUREEN'
p2813
a(lp2814
aa(lp2815
S'PATTYI'
p2816
a(lp2817
S'kept'
p2818
aS'telling'
p2819
aS'Stephanie'
p2820
aaa(lp2821
g2816
a(lp2822
S'thats'
p2823
aS'what'
p2824
aS'she'
p2825
aS'should'
p2826
aS'be'
p2827
aaa(lp2828
g2816
a(lp2829
S'and'
p2830
aS'she'
p2831
aS'loves'
p2832
aS'to'
p2833
aS'talk'
p2834
aS'to'
p2835
aS'people'
p2836
aaa(lp2837
g2816
a(lp2838
S'thats'
p2839
aS'where'
p2840
aS'she'
p2841
aS'should'
p2842
aS'be'
p2843
aaa(lp2844
g2816
a(lp2845
S'and'
p2846
aS'shes'
p2847
aaa(lp2848
S'STEPHANIEBut'
p2849
a(lp2850
S'if'
p2851
ag79
aS'am'
p2852
ag319
aaa(lp2853
S'GAILHey'
p2854
a(lp2855
S'you'
p2856
aS'could'
p2857
aS'be'
p2858
aS'in'
p2859
aS'human'
p2860
aS'resources'
p2861
aS'like'
p2862
aS'me'
p2863
aaa(lp2864
S'PATTYHey'
p2865
a(lp2866
aa(lp2867
g2865
a(lp2868
S'pour'
p2869
aS'me'
p2870
aS'some'
p2871
aS'more'
p2872
aS'of'
p2873
aS'that'
p2874
aaa(lp2875
g2865
a(lp2876
S'Im'
p2877
aS'not'
p2878
aS'going'
p2879
aS'anywhere'
p2880
aS'tonight'
p2881
aaa(lp2882
S'XX'
p2883
a(lp2884
aa(lp2885
S'GAIL'
p2886
a(lp2887
S'You'
p2888
aS'can'
p2889
aS'be'
p2890
aS'like'
p2891
aaa(lp2892
g2886
a(lp2893
S'in'
p2894
aS'human'
p2895
aS'resources'
p2896
aS'like'
p2897
aS'me'
p2898
aaa(lp2899
S'STEPHANIE'
p2900
a(lp2901
aa(lp2902
S'PATTYX'
p2903
a(lp2904
S'Not'
p2905
aS'driving'
p2906
ag55
aaa(lp2907
S'STEPHANIEThats'
p2908
a(lp2909
S'right'
p2910
aaa(lp2911
g2908
a(lp2912
S'cause'
p2913
aS'were'
p2914
aS'taking'
p2915
aS'the'
p2916
aS'car'
p2917
aS'later'
p2918
aaa(lp2919
S'PATTYI'
p2920
a(lp2921
S'dont'
p2922
aS'have'
p2923
aS'to'
p2924
aS'drive'
p2925
aS'home'
p2926
aaa(lp2927
S'GAILHey'
p2928
a(lp2929
S'you'
p2930
aS'know'
p2931
aS'what'
p2932
aaa(lp2933
S'STEPHANIE'
p2934
a(lp2935
S'Speaking'
p2936
aS'of'
p2937
aS'that'
p2938
aaa(lp2939
g2934
a(lp2940
S'are'
p2941
aS'the'
p2942
aS'keys'
p2943
aS'in'
p2944
aS'the'
p2945
aS'XX'
p2946
aaa(lp2947
S'GAILI'
p2948
a(lp2949
S'have'
p2950
aS'the'
p2951
aS'best'
p2952
aS'job'
p2953
aS'on'
p2954
aS'earth'
p2955
aaa(lp2956
g2948
a(lp2957
S'So'
p2958
aS'if'
p2959
aS'you'
p2960
aS'wanna'
p2961
aS'get'
p2962
aS'into'
p2963
aS'something'
p2964
aS'good'
p2965
aaa(lp2966
S'ERIKANo'
p2967
a(lp2968
aa(lp2969
g2967
a(lp2970
g79
aS'didnt'
p2971
aS'bring'
p2972
aS'your'
p2973
aS'set'
p2974
aS'of'
p2975
aS'keys'
p2976
aaa(lp2977
S'PATTYI'
p2978
a(lp2979
S'have'
p2980
aS'keys'
p2981
aaa(lp2982
S'GAILget'
p2983
a(lp2984
S'into'
p2985
aS'what'
p2986
aS'Im'
p2987
aS'getting'
p2988
aS'into'
p2989
aaa(lp2990
S'PATTYI'
p2991
a(lp2992
S'drove'
p2993
aS'here'
p2994
aaa(lp2995
g2991
a(lp2996
g79
aS'have'
p2997
aS'keys'
p2998
aaa(lp2999
S'STEPHANIE'
p3000
a(lp3001
S'Oh'
p3002
aS'thats'
p3003
aS'right'
p3004
aaa(lp3005
g3000
a(lp3006
S'you'
p3007
aS'did'
p3008
aS'drive'
p3009
aS'here'
p3010
aaa(lp3011
S'PATTYIts'
p3012
a(lp3013
S'its'
p3014
aaa(lp3015
g3012
a(lp3016
S'you'
p3017
aS'know'
p3018
aaa(lp3019
S'STEPHANIEX'
p3020
a(lp3021
g79
aS'couldve'
p3022
aS'drank'
p3023
aS'anything'
p3024
ag55
aaa(lp3025
S'PATTYWell'
p3026
a(lp3027
g79
aS'think'
p3028
aS'the'
p3029
aS'th'
p3030
aS'important'
p3031
aS'thing'
p3032
aS'that'
p3033
aS'maybe'
p3034
aS'we'
p3035
aS'should'
p3036
aS'all'
p3037
aS'say'
p3038
aS'to'
p3039
aS'you'
p3040
aS'Stephanie'
p3041
aaa(lp3042
g3026
a(lp3043
S'and'
p3044
aS'you'
p3045
aS'need'
p3046
aS'to'
p3047
aS'listen'
p3048
aS'is'
p3049
aaa(lp3050
g3026
a(lp3051
S'you'
p3052
aS'have'
p3053
aS'to'
p3054
aS'keep'
p3055
aS'an'
p3056
aS'open'
p3057
aS'mind'
p3058
aaa(lp3059
g3026
a(lp3060
S'Dont'
p3061
aS'cross'
p3062
aS'any'
p3063
aS'school'
p3064
aS'off'
p3065
aS'before'
p3066
aS'you'
p3067
aS'see'
p3068
aS'it'
p3069
aaa(lp3070
S'GENEVIEVEThats'
p3071
a(lp3072
S'right'
p3073
aaa(lp3074
S'PATTY'
p3075
a(lp3076
S'You'
p3077
aS'know'
p3078
aaa(lp3079
S'STEPHANIEOh'
p3080
a(lp3081
S'yeah'
p3082
aaa(lp3083
S'PATTYdont'
p3084
a(lp3085
S'cross'
p3086
aS'off'
p3087
aS'Geneva'
p3088
aS'before'
p3089
aS'you'
p3090
aS'go'
p3091
aS'there'
p3092
aaa(lp3093
S'STEPHANIEIm'
p3094
a(lp3095
S'not'
p3096
aS'crossing'
p3097
aS'it'
p3098
aS'off'
p3099
aaa(lp3100
S'PATTY'
p3101
a(lp3102
g79
aS'know'
p3103
aS'its'
p3104
aS'far'
p3105
aS'away'
p3106
aS'and'
p3107
aS'its'
p3108
aS'not'
p3109
ag319
aS'big'
p3110
aS'town'
p3111
aS'but'
p3112
aaa(lp3113
g3101
a(lp3114
S'dont'
p3115
aS'already'
p3116
aS'think'
p3117
aaa(lp3118
g3101
a(lp3119
g79
aS'dont'
p3120
aS'wanna'
p3121
aS'go'
p3122
aS'there'
p3123
aS'because'
p3124
aaa(lp3125
S'STEPHANIEIts'
p3126
a(lp3127
S'not'
p3128
aS'far'
p3129
aS'away'
p3130
aaa(lp3131
S'PATTY'
p3132
a(lp3133
S'its'
p3134
aS'not'
p3135
aS'near'
p3136
ag319
aS'big'
p3137
aS'metropolitan'
p3138
aS'area'
p3139
aaa(lp3140
g3132
a(lp3141
S'You'
p3142
aS'know'
p3143
aS'y'
p3144
aaa(lp3145
g3132
a(lp3146
S'she'
p3147
aS'wasnt'
p3148
aS'near'
p3149
ag319
aS'big'
p3150
aS'metropolitan'
p3151
aS'area'
p3152
aaa(lp3153
g3132
a(lp3154
S'Right'
p3155
aaa(lp3156
S'GAILBut'
p3157
a(lp3158
aa(lp3159
g3157
a(lp3160
g79
aS'had'
p3161
aS'thought'
p3162
aS'that'
p3163
ag79
aS'wanted'
p3164
aS'to'
p3165
aS'be'
p3166
aS'near'
p3167
aS'big'
p3168
aS'area'
p3169
aaa(lp3170
S'STEPHANIEBut'
p3171
a(lp3172
g79
aS'also'
p3173
aS'went'
p3174
aS'to'
p3175
ag1095
aS'high'
p3176
aS'school'
p3177
aS'in'
p3178
ag319
aS'big'
p3179
aS'metropolitan'
p3180
aS'area'
p3181
ag1095
aaa(lp3182
S'PATTYBut'
p3183
a(lp3184
S'what'
p3185
aS'but'
p3186
aaa(lp3187
g3183
a(lp3188
S'But'
p3189
aS'were'
p3190
aS'saying'
p3191
aaa(lp3192
g3183
a(lp3193
S'So'
p3194
aaa(lp3195
S'GAILBut'
p3196
a(lp3197
aa(lp3198
g3196
a(lp3199
S'it'
p3200
aS'doesnt'
p3201
aS'matter'
p3202
aS'though'
p3203
aaa(lp3204
S'PATTYSo'
p3205
a(lp3206
S'did'
p3207
aS'she'
p3208
aaa(lp3209
S'GAILI'
p3210
a(lp3211
S'mean'
p3212
aaa(lp3213
S'PATTYShe'
p3214
a(lp3215
aa(lp3216
g3214
a(lp3217
g79
aS'mean'
p3218
aaa(lp3219
g3214
a(lp3220
S'she'
p3221
aS'wasnt'
p3222
ag55
aS'downtown'
p3223
ag55
aaa(lp3224
S'GAILI'
p3225
a(lp3226
S'had'
p3227
aS'my'
p3228
aS'access'
p3229
aS'to'
p3230
aS'the'
p3231
aS'city'
p3232
aaa(lp3233
S'PATTYbut'
p3234
a(lp3235
S'she'
p3236
aS'lived'
p3237
aS'in'
p3238
aS'Pittsburgh'
p3239
aS'all'
p3240
aS'her'
p3241
aS'life'
p3242
aaa(lp3243
S'STEPHANIEYeah'
p3244
a(lp3245
aa(lp3246
S'GAILYou'
p3247
a(lp3248
S'know'
p3249
aaa(lp3250
S'PATTY'
p3251
a(lp3252
S'she'
p3253
aS'did'
p3254
aS'the'
p3255
aS'same'
p3256
aS'things'
p3257
aS'you'
p3258
aS'did'
p3259
aaa(lp3260
S'STEPHANIEBut'
p3261
a(lp3262
g55
aS'theres'
p3263
ag55
aaa(lp3264
S'PATTYshe'
p3265
a(lp3266
S'went'
p3267
aS'to'
p3268
aS'the'
p3269
aS'opera'
p3270
aaa(lp3271
g3265
a(lp3272
S'she'
p3273
aS'went'
p3274
aS'to'
p3275
aS'the'
p3276
aS'symphony'
p3277
aaa(lp3278
g3265
a(lp3279
S'she'
p3280
aS'went'
p3281
aS'to'
p3282
aS'the'
p3283
aS'ballet'
p3284
aaa(lp3285
g3265
a(lp3286
S'so'
p3287
aS'she'
p3288
aS'grew'
p3289
aS'up'
p3290
aS'in'
p3291
ag319
aS'cosmopolitan'
p3292
aS'atmosphere'
p3293
aaa(lp3294
S'STEPHANIEIf'
p3295
a(lp3296
S'theres'
p3297
aS'not'
p3298
ag319
aS'coffee'
p3299
aS'house'
p3300
aS'on'
p3301
aS'the'
p3302
aS'campus'
p3303
aaa(lp3304
g3295
a(lp3305
S'Im'
p3306
aS'not'
p3307
aS'going'
p3308
aaa(lp3309
S'PATTYThey'
p3310
a(lp3311
g1095
aS'all'
p3312
ag1095
aS'have'
p3313
aS'coffee'
p3314
aS'houses'
p3315
aaa(lp3316
S'GAILThats'
p3317
a(lp3318
aa(lp3319
g3317
a(lp3320
S'They'
p3321
aS'all'
p3322
aS'do'
p3323
aaa(lp3324
S'PATTYthats'
p3325
a(lp3326
S'the'
p3327
aS'latest'
p3328
aS'thing'
p3329
aaa(lp3330
S'GAILXXX'
p3331
a(lp3332
aa(lp3333
S'X'
p3334
a(lp3335
aa(lp3336
S'PATTYYou'
p3337
a(lp3338
S'know'
p3339
aaa(lp3340
S'GAIL'
p3341
a(lp3342
S'They'
p3343
aS'changed'
p3344
aS'our'
p3345
aS'bar'
p3346
aaa(lp3347
S'PATTYBut'
p3348
a(lp3349
S'what'
p3350
aS'Im'
p3351
aS'saying'
p3352
aS'is'
p3353
aaa(lp3354
S'GAILon'
p3355
a(lp3356
S'our'
p3357
aS'campus'
p3358
aaa(lp3359
g3355
a(lp3360
S'to'
p3361
ag319
aS'coffee'
p3362
aS'house'
p3363
aaa(lp3364
S'PATTYDont'
p3365
a(lp3366
S'eliminate'
p3367
ag319
aS'school'
p3368
aaa(lp3369
S'STEPHANIE'
p3370
a(lp3371
aa(lp3372
S'PATTYby'
p3373
a(lp3374
S'where'
p3375
aS'it'
p3376
aS'is'
p3377
aaa(lp3378
S'GENEVIEVEAre'
p3379
a(lp3380
S'you'
p3381
aS'sure'
p3382
aaa(lp3383
S'PATTYX'
p3384
a(lp3385
S'and'
p3386
ag55
aS'what'
p3387
aS'somebody'
p3388
aS'has'
p3389
aS'told'
p3390
aS'you'
p3391
aaa(lp3392
S'GENEVIEVEAre'
p3393
a(lp3394
S'you'
p3395
aS'sure'
p3396
aS'youre'
p3397
aS'old'
p3398
aS'enough'
p3399
aS'to'
p3400
aS'go'
p3401
aS'to'
p3402
aS'college'
p3403
aaa(lp3404
S'PATTY'
p3405
a(lp3406
aa(lp3407
g3405
a(lp3408
S'Well'
p3409
aS'Im'
p3410
aS'not'
p3411
aS'sure'
p3412
aS'about'
p3413
aS'that'
p3414
aaa(lp3415
S'STEPHANIESo'
p3416
a(lp3417
S'far'
p3418
aS'as'
p3419
ag79
aS'know'
p3420
aaa(lp3421
g3416
a(lp3422
S'yeah'
p3423
aaa(lp3424
g3416
a(lp3425
g79
ag79
ag79
aS'graduate'
p3426
aS'this'
p3427
aS'year'
p3428
aS'uh'
p3429
aaa(lp3430
g3416
a(lp3431
S'yeah'
p3432
aaa(lp3433
S'GAILWell'
p3434
a(lp3435
S'you'
p3436
aS'know'
p3437
ag79
aS'had'
p3438
aS'some'
p3439
aS'really'
p3440
aS'really'
p3441
aS'big'
p3442
aS'problems'
p3443
aaa(lp3444
S'STEPHANIE'
p3445
a(lp3446
aa(lp3447
S'GAILwhen'
p3448
a(lp3449
g79
aS'first'
p3450
aS'went'
p3451
aS'to'
p3452
aS'OU'
p3453
aaa(lp3454
g3448
a(lp3455
S'for'
p3456
aS'the'
p3457
aS'first'
p3458
aS'quarter'
p3459
aaa(lp3460
S'MAUREEN'
p3461
a(lp3462
aa(lp3463
S'GAILbut'
p3464
a(lp3465
S'it'
p3466
aS'wasnt'
p3467
aaa(lp3468
S'X'
p3469
a(lp3470
aa(lp3471
S'GAILIt'
p3472
a(lp3473
S'ended'
p3474
aS'up'
p3475
aaa(lp3476
S'MAUREEN'
p3477
a(lp3478
g79
aS'wondered'
p3479
aS'if'
p3480
aS'you'
p3481
aS'were'
p3482
aS'gonna'
p3483
aS'tell'
p3484
aS'XXXX'
p3485
aaa(lp3486
S'GAILWell'
p3487
a(lp3488
aa(lp3489
g3487
a(lp3490
S'well'
p3491
aS'the'
p3492
aS'thing'
p3493
aS'is'
p3494
aS'that'
p3495
aaa(lp3496
S'PATTYWell'
p3497
a(lp3498
S'thats'
p3499
aS'good'
p3500
aS'to'
p3501
aS'share'
p3502
aaa(lp3503
S'GAILit'
p3504
a(lp3505
S'ended'
p3506
aS'up'
p3507
aS'not'
p3508
aS'being'
p3509
aaa(lp3510
g3504
a(lp3511
g79
aS'mean'
p3512
aS'it'
p3513
aS'doesnt'
p3514
aS'really'
p3515
aS'matter'
p3516
aaa(lp3517
g3504
a(lp3518
S'the'
p3519
aS'atmosphere'
p3520
aaa(lp3521
g3504
a(lp3522
S'eventually'
p3523
aS'it'
p3524
aS'doesnt'
p3525
aS'matter'
p3526
aS'the'
p3527
aS'atmosphere'
p3528
aaa(lp3529
g3504
a(lp3530
S'because'
p3531
aS'eventually'
p3532
aaa(lp3533
g3504
a(lp3534
S'its'
p3535
aS'the'
p3536
aS'people'
p3537
aS'that'
p3538
aS'you'
p3539
aS'meet'
p3540
aaa(lp3541
S'MAUREENWhen'
p3542
a(lp3543
S'youre'
p3544
aS'ready'
p3545
ag79
aS'need'
p3546
aaa(lp3547
S'GAILthe'
p3548
a(lp3549
S'professors'
p3550
aS'that'
p3551
aS'you'
p3552
aS'meet'
p3553
aaa(lp3554
S'MAUREENmy'
p3555
a(lp3556
S'soninlaw'
p3557
aS'to'
p3558
aS'reach'
p3559
aS'that'
p3560
aS'platter'
p3561
aaa(lp3562
S'GAILyour'
p3563
a(lp3564
S'classes'
p3565
aS'itself'
p3566
aaa(lp3567
S'DALEX'
p3568
a(lp3569
S'Okay'
p3570
ag55
aaa(lp3571
S'GAILthat'
p3572
a(lp3573
S'really'
p3574
aS'become'
p3575
aS'important'
p3576
aaa(lp3577
g3572
a(lp3578
S'You'
p3579
aS'know'
p3580
aaa(lp3581
S'STEPHANIEMhm'
p3582
a(lp3583
aa(lp3584
S'PATTYRight'
p3585
a(lp3586
aa(lp3587
g3585
a(lp3588
S'And'
p3589
aS'that'
p3590
aS'should'
p3591
aS'be'
p3592
aS'your'
p3593
aS'first'
p3594
aS'priority'
p3595
aaa(lp3596
S'GAILYeah'
p3597
a(lp3598
aa(lp3599
g3597
a(lp3600
S'Yeah'
p3601
aaa(lp3602
g3597
a(lp3603
S'and'
p3604
aS'thatll'
p3605
aaa(lp3606
g3597
a(lp3607
g79
aS'mean'
p3608
aaa(lp3609
S'PATTYWhat'
p3610
a(lp3611
S'you'
p3612
aS'do'
p3613
aS'extracurricular'
p3614
aaa(lp3615
S'DALEWheres'
p3616
a(lp3617
S'the'
p3618
aS'be'
p3619
aaa(lp3620
g3616
a(lp3621
S'Wheres'
p3622
aS'that'
p3623
aS'bread'
p3624
aS'that'
p3625
aS'you'
p3626
aS'want'
p3627
aaa(lp3628
S'PATTYcant'
p3629
a(lp3630
S'be'
p3631
aS'important'
p3632
aaa(lp3633
S'STEPHANIEBut'
p3634
a(lp3635
aa(lp3636
S'PATTYBecause'
p3637
a(lp3638
S'thats'
p3639
aS'not'
p3640
aS'what'
p3641
aS'youre'
p3642
aS'there'
p3643
aS'for'
p3644
aaa(lp3645
S'STEPHANIEbut'
p3646
a(lp3647
S'if'
p3648
aS'youre'
p3649
aS'not'
p3650
aaa(lp3651
g3646
a(lp3652
S'But'
p3653
aaa(lp3654
g3646
a(lp3655
S'Mom'
p3656
aaa(lp3657
S'XMm'
p3658
a(lp3659
aa(lp3660
S'STEPHANIEif'
p3661
a(lp3662
S'youre'
p3663
aS'not'
p3664
aS'happy'
p3665
aS'in'
p3666
aS'your'
p3667
aS'setting'
p3668
aaa(lp3669
S'MAUREENIll'
p3670
a(lp3671
S'have'
p3672
aS'Jerry'
p3673
aS'get'
p3674
aS'them'
p3675
aS'down'
p3676
aaa(lp3677
S'STEPHANIEyoure'
p3678
a(lp3679
S'not'
p3680
aS'gonna'
p3681
aS'be'
p3682
aS'happy'
p3683
aS'with'
p3684
aS'where'
p3685
aS'you'
p3686
aS'are'
p3687
aaa(lp3688
S'PATTYIll'
p3689
a(lp3690
S'tell'
p3691
aS'you'
p3692
aS'what'
p3693
aS'kid'
p3694
aaa(lp3695
g3689
a(lp3696
S'if'
p3697
aS'youre'
p3698
aS'going'
p3699
aS'to'
p3700
aS'college'
p3701
aS'to'
p3702
aS'have'
p3703
ag319
aS'good'
p3704
aS'time'
p3705
aaa(lp3706
S'X'
p3707
a(lp3708
aa(lp3709
S'PATTYone'
p3710
a(lp3711
S'year'
p3712
aS'is'
p3713
aS'all'
p3714
aS'Im'
p3715
aS'paying'
p3716
aS'for'
p3717
aaa(lp3718
S'STEPHANIEIm'
p3719
a(lp3720
S'not'
p3721
aS'going'
p3722
aS'to'
p3723
aS'college'
p3724
aS'to'
p3725
aS'have'
p3726
ag319
aS'good'
p3727
aS'time'
p3728
aaa(lp3729
S'PATTYthe'
p3730
a(lp3731
S'rest'
p3732
aS'is'
p3733
aS'on'
p3734
aS'your'
p3735
aS'own'
p3736
aaa(lp3737
S'MAUREENDale'
p3738
a(lp3739
aa(lp3740
S'PATTYI'
p3741
a(lp3742
S'already'
p3743
aS'told'
p3744
aS'you'
p3745
aS'that'
p3746
aaa(lp3747
S'MAUREENDale'
p3748
a(lp3749
aa(lp3750
S'STEPHANIE'
p3751
a(lp3752
S'But'
p3753
aS'its'
p3754
aS'like'
p3755
aaa(lp3756
g3751
a(lp3757
S'its'
p3758
ag319
aS'proven'
p3759
aS'fact'
p3760
aS'that'
p3761
aaa(lp3762
S'DALE'
p3763
a(lp3764
S'No'
p3765
aS'thats'
p3766
aS'alright'
p3767
aaa(lp3768
S'MAUREENNo'
p3769
a(lp3770
aa(lp3771
g3769
a(lp3772
S'here'
p3773
aaa(lp3774
S'DALEI'
p3775
a(lp3776
S'know'
p3777
aaa(lp3778
S'STEPHANIEpeople'
p3779
a(lp3780
S'work'
p3781
aS'better'
p3782
aS'in'
p3783
ag319
aS'comfortable'
p3784
aS'situation'
p3785
aaa(lp3786
S'PATTYExactly'
p3787
a(lp3788
S'but'
p3789
aaa(lp3790
S'STEPHANIEthan'
p3791
a(lp3792
S'in'
p3793
aS'an'
p3794
aS'uncomfortable'
p3795
aS'situation'
p3796
aaa(lp3797
S'PATTY'
p3798
a(lp3799
S'extra'
p3800
aaa(lp3801
g3798
a(lp3802
S'But'
p3803
aS'you'
p3804
aS'dont'
p3805
aS'have'
p3806
aS'to'
p3807
aS'be'
p3808
aS'near'
p3809
ag319
aS'big'
p3810
aS'city'
p3811
aaa(lp3812
g3798
a(lp3813
S'Aunt'
p3814
aS'Maureen'
p3815
aS'wasnt'
p3816
aS'beer'
p3817
aS'near'
p3818
ag319
aS'big'
p3819
aS'city'
p3820
aaa(lp3821
S'STEPHANIEMom'
p3822
a(lp3823
aa(lp3824
g3822
a(lp3825
S'its'
p3826
ag319
aS'little'
p3827
aS'different'
p3828
aaa(lp3829
g3822
a(lp3830
S'Im'
p3831
ag319
aS'different'
p3832
aS'person'
p3833
aaa(lp3834
S'PATTYTrue'
p3835
a(lp3836
aa(lp3837
S'STEPHANIEI'
p3838
a(lp3839
S'like'
p3840
aS'city'
p3841
aS'life'
p3842
aaa(lp3843
S'PATTYexactly'
p3844
a(lp3845
aa(lp3846
S'STEPHANIEI'
p3847
a(lp3848
S'have'
p3849
aS'MRC'
p3850
aS'always'
p3851
aS'liked'
p3852
aS'city'
p3853
aS'life'
p3854
aS'MRC'
p3855
aaa(lp3856
S'PATTYThen'
p3857
a(lp3858
S'stay'
p3859
aS'here'
p3860
aS'and'
p3861
aS'go'
p3862
aS'to'
p3863
aS'Pitt'
p3864
aaa(lp3865
g3857
a(lp3866
S'itll'
p3867
aS'be'
p3868
aS'very'
p3869
aS'cheap'
p3870
aaa(lp3871
S'STEPHANIENo'
p3872
a(lp3873
aa(lp3874
S'GAIL'
p3875
a(lp3876
aa(lp3877
S'MAUREEN'
p3878
a(lp3879
aa(lp3880
S'STEPHANIEI'
p3881
a(lp3882
S'like'
p3883
aS'city'
p3884
aS'life'
p3885
aS'MRC'
p3886
aS'away'
p3887
aS'from'
p3888
aS'parents'
p3889
aS'MRC'
p3890
aaa(lp3891
S'PATTYI'
p3892
a(lp3893
S'like'
p3894
aaa(lp3895
g3892
a(lp3896
g79
aS'like'
p3897
aS'that'
p3898
aaa(lp3899
g3892
a(lp3900
g55
aS'Could'
p3901
aS'you'
p3902
aS'imagine'
p3903
ag55
aS'Gail'
p3904
aaa(lp3905
g3892
a(lp3906
S'itll'
p3907
aS'be'
p3908
aS'very'
p3909
aS'cheap'
p3910
aaa(lp3911
S'GAILWhy'
p3912
a(lp3913
S'dont'
p3914
aaa(lp3915
g3912
a(lp3916
S'Why'
p3917
aS'dont'
p3918
aS'you'
p3919
aS'look'
p3920
aS'at'
p3921
aaa(lp3922
S'GENEVIEVEHoney'
p3923
a(lp3924
S'youll'
p3925
aS'be'
p3926
aS'away'
p3927
aS'from'
p3928
aS'parents'
p3929
aS'anyway'
p3930
aaa(lp3931
S'STEPHANIE'
p3932
a(lp3933
S'No'
p3934
aaa(lp3935
g3932
a(lp3936
S'in'
p3937
aS'my'
p3938
aS'opinion'
p3939
aaa(lp3940
S'GAILLets'
p3941
a(lp3942
S'look'
p3943
aS'at'
p3944
aaa(lp3945
g3941
a(lp3946
S'Lets'
p3947
aS'look'
p3948
aS'at'
p3949
aS'cities'
p3950
aaa(lp3951
g3941
a(lp3952
S'What'
p3953
aS'kinda'
p3954
aS'cities'
p3955
aS'do'
p3956
aS'you'
p3957
aS'like'
p3958
aaa(lp3959
g3941
a(lp3960
S'Do'
p3961
aS'you'
p3962
aS'like'
p3963
aS'big'
p3964
aS'cities'
p3965
aaa(lp3966
g3941
a(lp3967
S'like'
p3968
ag319
aS'Chicago'
p3969
aaa(lp3970
g3941
a(lp3971
S'Or'
p3972
aS'do'
p3973
aS'you'
p3974
aS'like'
p3975
ag319
aS'Pittsburgh'
p3976
aaa(lp3977
S'XXXX'
p3978
a(lp3979
aa(lp3980
S'PATTYShes'
p3981
a(lp3982
S'never'
p3983
aS'been'
p3984
aS'in'
p3985
ag319
aS'big'
p3986
aS'city'
p3987
aS'like'
p3988
aS'Chicago'
p3989
aaa(lp3990
g3981
a(lp3991
S'She'
p3992
aS'couldnt'
p3993
aS'identify'
p3994
aS'with'
p3995
aS'that'
p3996
aaa(lp3997
S'ERIKAYou'
p3998
a(lp3999
S'were'
p4000
aS'in'
p4001
aS'Chicago'
p4002
aS'Steph'
p4003
aaa(lp4004
g3998
a(lp4005
S'when'
p4006
aS'we'
p4007
aS'went'
p4008
aS'to'
p4009
aS'Easter'
p4010
aaa(lp4011
S'STEPHANIEMRC'
p4012
a(lp4013
S'Ive'
p4014
aS'been'
p4015
aS'in'
p4016
aS'Chicago'
p4017
aS'MRC'
p4018
aaa(lp4019
S'PATTYWhen'
p4020
a(lp4021
aa(lp4022
S'GAIL'
p4023
a(lp4024
S'Pittsburgh'
p4025
aaa(lp4026
g4023
a(lp4027
S'or'
p4028
aS'Chicago'
p4029
aaa(lp4030
S'STEPHANIEEaster'
p4031
a(lp4032
S'break'
p4033
aaa(lp4034
g4031
a(lp4035
S'Two'
p4036
aS'years'
p4037
aS'ago'
p4038
aaa(lp4039
S'GAILChicago'
p4040
a(lp4041
S'and'
p4042
aS'Pittsburgh'
p4043
aS'are'
p4044
aS'very'
p4045
aS'different'
p4046
aaa(lp4047
S'PATTYThats'
p4048
a(lp4049
S'right'
p4050
aaa(lp4051
g4048
a(lp4052
S'but'
p4053
aS'what'
p4054
aS'did'
p4055
aS'you'
p4056
aS'do'
p4057
aS'in'
p4058
aS'the'
p4059
aS'city'
p4060
aaa(lp4061
S'GAILIm'
p4062
a(lp4063
S'gonna'
p4064
ag55
aS'give'
p4065
ag55
aS'you'
p4066
aaa(lp4067
S'PATTYDid'
p4068
a(lp4069
S'you'
p4070
aS'go'
p4071
aS'downtown'
p4072
aaa(lp4073
S'ERIKAShopped'
p4074
a(lp4075
aa(lp4076
g4074
a(lp4077
S'we'
p4078
aS'went'
p4079
aS'to'
p4080
aS'the'
p4081
aS'biggest'
p4082
aS'mall'
p4083
aaa(lp4084
S'STEPHANIE'
p4085
a(lp4086
S'Yeah'
p4087
aS'we'
p4088
aS'went'
p4089
aS'shopping'
p4090
aaa(lp4091
S'PATTYThats'
p4092
a(lp4093
S'all'
p4094
aS'you'
p4095
aS'did'
p4096
aaa(lp4097
g4092
a(lp4098
S'You'
p4099
aS'cant'
p4100
aS'shop'
p4101
aS'when'
p4102
aS'youre'
p4103
aS'in'
p4104
aS'college'
p4105
aaa(lp4106
g4092
a(lp4107
S'youll'
p4108
aS'have'
p4109
aS'no'
p4110
aS'money'
p4111
aS'for'
p4112
aS'that'
p4113
aaa(lp4114
g4092
a(lp4115
S'Ask'
p4116
aS'Gail'
p4117
aaa(lp4118
g4092
a(lp4119
S'You'
p4120
aS'will'
p4121
aS'not'
p4122
aS'have'
p4123
aS'money'
p4124
aS'for'
p4125
aS'that'
p4126
aaa(lp4127
S'STEPHANIEMom'
p4128
a(lp4129
aa(lp4130
g4128
a(lp4131
g79
aS'drove'
p4132
aS'around'
p4133
aS'LA'
p4134
aaa(lp4135
g4128
a(lp4136
S'That'
p4137
aS'tells'
p4138
aS'me'
p4139
aS'what'
p4140
ag319
aS'big'
p4141
aS'citys'
p4142
aS'like'
p4143
aaa(lp4144
S'PATTYAnd'
p4145
a(lp4146
S'thats'
p4147
aS'pretty'
p4148
aS'scary'
p4149
aS'actually'
p4150
aaa(lp4151
S'STEPHANIE'
p4152
a(lp4153
aa(lp4154
g4152
a(lp4155
S'No'
p4156
aaa(lp4157
g4152
a(lp4158
S'Friday'
p4159
aS'night'
p4160
aaa(lp4161
g4152
a(lp4162
S'at'
p4163
aS'nine'
p4164
aS'oclock'
p4165
aaa(lp4166
g4152
a(lp4167
S'on'
p4168
aS'Hollywood'
p4169
aS'Boulevard'
p4170
aS'MRC'
p4171
aS'is'
p4172
aS'not'
p4173
ag319
aS'place'
p4174
aS'to'
p4175
aS'be'
p4176
aS'MRC'
p4177
aaa(lp4178
g4152
a(lp4179
S'Okay'
p4180
aaa(lp4181
S'PATTYThey'
p4182
a(lp4183
S'couldnt'
p4184
aS'find'
p4185
aS'the'
p4186
aS'uh'
p4187
aaa(lp4188
S'STEPHANIE'
p4189
a(lp4190
S'No'
p4191
aS'it'
p4192
aS'wasnt'
p4193
aS'that'
p4194
aaa(lp4195
g4189
a(lp4196
S'We'
p4197
aS'knew'
p4198
aS'where'
p4199
aS'it'
p4200
aS'was'
p4201
aaa(lp4202
g4189
a(lp4203
S'we'
p4204
aS'just'
p4205
aS'didnt'
p4206
aS'know'
p4207
aS'which'
p4208
aS'exit'
p4209
aS'to'
p4210
aS'take'
p4211
aaa(lp4212
S'PATTYBut'
p4213
a(lp4214
aa(lp4215
g4213
a(lp4216
S'didnt'
p4217
aS'get'
p4218
aS'there'
p4219
aaa(lp4220
S'ERIKAWhat'
p4221
a(lp4222
S'were'
p4223
aS'you'
p4224
aS'looking'
p4225
aS'for'
p4226
aaa(lp4227
S'STEPHANIEUniversal'
p4228
a(lp4229
S'Studios'
p4230
aaa(lp4231
S'PATTY'
p4232
a(lp4233
S'They'
p4234
aS'got'
p4235
aS'there'
p4236
aS'at'
p4237
aS'nine'
p4238
aS'thirty'
p4239
aaa(lp4240
S'STEPHANIESo'
p4241
a(lp4242
S'we'
p4243
aS'miss'
p4244
aS'it'
p4245
aaa(lp4246
S'PATTY'
p4247
a(lp4248
S'They'
p4249
aS'had'
p4250
aS'tickets'
p4251
aS'and'
p4252
aS'got'
p4253
aS'lost'
p4254
aaa(lp4255
S'STEPHANIENo'
p4256
a(lp4257
aa(lp4258
g4256
a(lp4259
S'it'
p4260
ag55
aS'get'
p4261
ag55
aaa(lp4262
g4256
a(lp4263
S'It'
p4264
aS'g'
p4265
aS'its'
p4266
aS'its'
p4267
ag319
aS'funny'
p4268
aS'story'
p4269
aaa(lp4270
S'PATTYshe'
p4271
a(lp4272
S'and'
p4273
aS'Samantha'
p4274
aS'Taylor'
p4275
aaa(lp4276
S'STEPHANIEYou'
p4277
a(lp4278
S'have'
p4279
aS'to'
p4280
aS'hear'
p4281
aS'this'
p4282
aaa(lp4283
S'PATTY'
p4284
a(lp4285
aa(lp4286
S'GAILOh'
p4287
a(lp4288
S'really'
p4289
aaa(lp4290
S'PATTYYes'
p4291
a(lp4292
aa(lp4293
S'GAIL'
p4294
a(lp4295
aa(lp4296
S'STEPHANIE'
p4297
a(lp4298
S'Samantha'
p4299
aS'and'
p4300
ag79
aS'go'
p4301
aS'out'
p4302
aaa(lp4303
S'GENEVIEVEShe'
p4304
a(lp4305
S'what'
p4306
aaa(lp4307
S'PATTYShe'
p4308
a(lp4309
S'and'
p4310
aS'Samantha'
p4311
aS'Taylor'
p4312
aS'get'
p4313
aS'lost'
p4314
aaa(lp4315
g4308
a(lp4316
S'Samantha'
p4317
aS'knows'
p4318
aS'where'
p4319
aS'theyre'
p4320
aS'going'
p4321
aS'but'
p4322
aS'cant'
p4323
aS'get'
p4324
aS'there'
p4325
aaa(lp4326
S'STEPHANIEWell'
p4327
a(lp4328
S'HI'
p4329
aS'let'
p4330
aS'me'
p4331
aS'tell'
p4332
aS'the'
p4333
aS'story'
p4334
aS'HI'
p4335
aaa(lp4336
S'GAIL'
p4337
a(lp4338
aa(lp4339
S'PATTYGo'
p4340
a(lp4341
S'ahead'
p4342
aaa(lp4343
g4340
a(lp4344
S'tell'
p4345
aaa(lp4346
S'STEPHANIEYou'
p4347
a(lp4348
S'dont'
p4349
aS'know'
p4350
aaa(lp4351
g4347
a(lp4352
S'because'
p4353
aS'you'
p4354
aS'werent'
p4355
aS'there'
p4356
aaa(lp4357
S'PATTYI'
p4358
a(lp4359
S'wasnt'
p4360
aaa(lp4361
S'STEPHANIE'
p4362
a(lp4363
g79
aS'was'
p4364
aS'in'
p4365
aS'the'
p4366
aS'car'
p4367
aaa(lp4368
S'PATTYThats'
p4369
a(lp4370
S'right'
p4371
aaa(lp4372
g4369
a(lp4373
g79
aS'heard'
p4374
aS'it'
p4375
aS'later'
p4376
aaa(lp4377
S'STEPHANIE'
p4378
a(lp4379
S'So'
p4380
aS'were'
p4381
aS'driving'
p4382
aS'and'
p4383
aaa(lp4384
g4378
a(lp4385
S'we'
p4386
aS'went'
p4387
aS'and'
p4388
aaa(lp4389
S'GENEVIEVE'
p4390
a(lp4391
S'How'
p4392
aS'do'
p4393
aS'you'
p4394
aS'put'
p4395
aS'up'
p4396
aS'with'
p4397
aS'that'
p4398
aaa(lp4399
S'STEPHANIEWe'
p4400
a(lp4401
S'missed'
p4402
aS'the'
p4403
aS'exit'
p4404
aaa(lp4405
S'GENEVIEVE'
p4406
a(lp4407
aa(lp4408
S'STEPHANIEShe'
p4409
a(lp4410
S'said'
p4411
aaa(lp4412
g4409
a(lp4413
S'oh'
p4414
aaa(lp4415
S'PATTYIts'
p4416
a(lp4417
S'hard'
p4418
aaa(lp4419
S'STEPHANIEwell'
p4420
a(lp4421
S'well'
p4422
aS'just'
p4423
aS'get'
p4424
aS'off'
p4425
aS'at'
p4426
aS'the'
p4427
aS'next'
p4428
aS'exit'
p4429
aaa(lp4430
S'PATTYTakes'
p4431
a(lp4432
g319
aS'lot'
p4433
aS'of'
p4434
aS'patience'
p4435
aaa(lp4436
S'GENEVIEVE'
p4437
a(lp4438
S'Yes'
p4439
aS'it'
p4440
aS'does'
p4441
aaa(lp4442
S'STEPHANIEAnd'
p4443
a(lp4444
aa(lp4445
g4443
a(lp4446
S'turn'
p4447
aS'around'
p4448
aaa(lp4449
S'PATTYX'
p4450
a(lp4451
S'Could'
p4452
ag55
aS'be'
p4453
aS'the'
p4454
aS'hardest'
p4455
aS'thing'
p4456
aS'Ive'
p4457
aS'done'
p4458
aS'in'
p4459
aS'my'
p4460
aS'life'
p4461
aaa(lp4462
S'STEPHANIE'
p4463
a(lp4464
S'So'
p4465
aS'we'
p4466
aS'got'
p4467
aS'off'
p4468
aS'at'
p4469
aS'the'
p4470
aS'exit'
p4471
aaa(lp4472
g4463
a(lp4473
S'and'
p4474
aaa(lp4475
g4463
a(lp4476
S'it'
p4477
aS'was'
p4478
aS'the'
p4479
aS'Hollywood'
p4480
aS'Bowl'
p4481
aS'exit'
p4482
aaa(lp4483
g4463
a(lp4484
S'She'
p4485
aS'goes'
p4486
aS'well'
p4487
aaa(lp4488
g4463
a(lp4489
S'no'
p4490
aS'big'
p4491
aS'deal'
p4492
aaa(lp4493
g4463
a(lp4494
S'Except'
p4495
aaa(lp4496
g4463
a(lp4497
S'there'
p4498
aS'was'
p4499
ag319
aS'Hollywood'
p4500
aS'Bowl'
p4501
aS'going'
p4502
aS'on'
p4503
aS'that'
p4504
aS'night'
p4505
aaa(lp4506
S'GAILOh'
p4507
a(lp4508
S'no'
p4509
aaa(lp4510
S'STEPHANIE'
p4511
a(lp4512
S'So'
p4513
aS'here'
p4514
aS'we'
p4515
aS'are'
p4516
aaa(lp4517
g4511
a(lp4518
S'stuck'
p4519
aS'in'
p4520
aS'this'
p4521
aS'huge'
p4522
aS'line'
p4523
aS'of'
p4524
aS'traffic'
p4525
aaa(lp4526
g4511
a(lp4527
S'And'
p4528
aS'we'
p4529
aS'wanted'
p4530
aS'to'
p4531
aS'turn'
p4532
aS'around'
p4533
aaa(lp4534
g4511
a(lp4535
S'but'
p4536
aS'you'
p4537
aS'couldnt'
p4538
aS'make'
p4539
ag319
aS'left'
p4540
aS'turn'
p4541
aS'because'
p4542
aaa(lp4543
g4511
a(lp4544
S'they'
p4545
aS'had'
p4546
aS'parking'
p4547
aS'going'
p4548
aS'on'
p4549
aaa(lp4550
g4511
a(lp4551
S'So'
p4552
aS'you'
p4553
aS'had'
p4554
aS'to'
p4555
aS'go'
p4556
aS'all'
p4557
aS'the'
p4558
aS'way'
p4559
aS'down'
p4560
aaa(lp4561
g4511
a(lp4562
S'so'
p4563
aS'we'
p4564
aS'go'
p4565
aS'all'
p4566
aS'the'
p4567
aS'way'
p4568
aS'down'
p4569
aS'and'
p4570
aS'we'
p4571
aS'hit'
p4572
aS'Highland'
p4573
aaa(lp4574
g4511
a(lp4575
S'So'
p4576
aS'we'
p4577
aS'take'
p4578
aS'Highland'
p4579
aS'and'
p4580
aaa(lp4581
g4511
a(lp4582
S'VOX'
p4583
aS'we'
p4584
aS'end'
p4585
aS'up'
p4586
aS'on'
p4587
aS'Hollywood'
p4588
aS'Boulevard'
p4589
aS'VOX'
p4590
aaa(lp4591
g4511
a(lp4592
S'It'
p4593
aS'is'
p4594
aS'nine'
p4595
aS'thirty'
p4596
aS'at'
p4597
aS'night'
p4598
aaa(lp4599
g4511
a(lp4600
S'were'
p4601
aS'on'
p4602
aS'Hollywood'
p4603
aS'Boulevard'
p4604
aaa(lp4605
g4511
a(lp4606
S'and'
p4607
aS'its'
p4608
aS'Friday'
p4609
aaa(lp4610
g4511
a(lp4611
S'HI'
p4612
aS'Not'
p4613
ag319
aS'place'
p4614
aS'HI'
p4615
aS'you'
p4616
aS'wanna'
p4617
aS'be'
p4618
aaa(lp4619
g4511
a(lp4620
S'Now'
p4621
aS'were'
p4622
aS'trying'
p4623
aS'to'
p4624
aS'find'
p4625
ag319
aS'place'
p4626
aS'to'
p4627
aS'turn'
p4628
aS'around'
p4629
aaa(lp4630
S'GAILReminds'
p4631
a(lp4632
S'me'
p4633
aS'of'
p4634
aS'the'
p4635
aS'scene'
p4636
aS'in'
p4637
aS'Valley'
p4638
aS'Girl'
p4639
aaa(lp4640
S'STEPHANIEWe'
p4641
a(lp4642
S'drive'
p4643
aS'by'
p4644
aS'the'
p4645
aS'Chinese'
p4646
aS'theater'
p4647
aaa(lp4648
S'ERIKAYeah'
p4649
a(lp4650
aa(lp4651
g4649
a(lp4652
S'that'
p4653
aS'one'
p4654
aS'XXX'
p4655
aaa(lp4656
S'STEPHANIEYeah'
p4657
a(lp4658
aa(lp4659
S'GAILYeah'
p4660
a(lp4661
aa(lp4662
g4660
a(lp4663
S'you'
p4664
aS'know'
p4665
aaa(lp4666
S'PATTYWhy'
p4667
a(lp4668
S'didnt'
p4669
aS'you'
p4670
aS'just'
p4671
aS'go'
p4672
aS'to'
p4673
aS'the'
p4674
aS'Chinese'
p4675
aS'theater'
p4676
aaa(lp4677
g4667
a(lp4678
S'but'
p4679
aS'you'
p4680
aS'had'
p4681
aS'tickets'
p4682
aaa(lp4683
S'STEPHANIEYeah'
p4684
a(lp4685
aa(lp4686
S'X'
p4687
a(lp4688
aa(lp4689
S'PATTYRight'
p4690
a(lp4691
aa(lp4692
S'STEPHANIEwe'
p4693
a(lp4694
S'had'
p4695
aaa(lp4696
g4693
a(lp4697
S'we'
p4698
aS'had'
p4699
aS'free'
p4700
aS'tickets'
p4701
aaa(lp4702
g4693
a(lp4703
S'That'
p4704
aS'her'
p4705
aS'mom'
p4706
aS'won'
p4707
aS'on'
p4708
aS'the'
p4709
aS'radio'
p4710
aaa(lp4711
g4693
a(lp4712
S'Or'
p4713
aS'on'
p4714
ag319
aS'raffle'
p4715
aS'or'
p4716
aS'something'
p4717
aaa(lp4718
S'PATTYOh'
p4719
a(lp4720
S'thats'
p4721
aS'neat'
p4722
aaa(lp4723
S'XOh'
p4724
a(lp4725
aa(lp4726
S'STEPHANIE'
p4727
a(lp4728
S'So'
p4729
aaa(lp4730
S'PATTY'
p4731
a(lp4732
aa(lp4733
S'STEPHANIEwere'
p4734
a(lp4735
S'going'
p4736
aS'down'
p4737
aaa(lp4738
S'PATTYThey'
p4739
a(lp4740
S'cant'
p4741
aS'get'
p4742
aS'there'
p4743
aaa(lp4744
S'STEPHANIEWell'
p4745
a(lp4746
S'it'
p4747
aS'gets'
p4748
aaa(lp4749
S'PATTYIts'
p4750
a(lp4751
S'not'
p4752
aS'funny'
p4753
aaa(lp4754
S'STEPHANIEI'
p4755
a(lp4756
S'know'
p4757
aaa(lp4758
g4755
a(lp4759
S'this'
p4760
aS'is'
p4761
aS'just'
p4762
aS'the'
p4763
aS'beginning'
p4764
aaa(lp4765
S'X'
p4766
a(lp4767
aa(lp4768
S'STEPHANIESo'
p4769
a(lp4770
S'were'
p4771
aS'on'
p4772
aS'mo'
p4773
aaa(lp4774
g4769
a(lp4775
S'Were'
p4776
aS'on'
p4777
aS'Hollywood'
p4778
aS'Boulevard'
p4779
aaa(lp4780
g4769
a(lp4781
S'were'
p4782
aS'looking'
p4783
aS'at'
p4784
aS'VOX'
p4785
aS'all'
p4786
aS'kinds'
p4787
aS'of'
p4788
aS'interesting'
p4789
aS'things'
p4790
aS'VOX'
p4791
aaa(lp4792
g4769
a(lp4793
S'And'
p4794
aS'were'
p4795
aS'like'
p4796
aS'okay'
p4797
aaa(lp4798
g4769
a(lp4799
S'we'
p4800
aS'gotta'
p4801
aS'turn'
p4802
aS'around'
p4803
aaa(lp4804
g4769
a(lp4805
S'So'
p4806
aS'we'
p4807
aS'find'
p4808
aS'this'
p4809
aaa(lp4810
S'X'
p4811
a(lp4812
aa(lp4813
S'STEPHANIEWe'
p4814
a(lp4815
S'had'
p4816
aS'no'
p4817
aS'streets'
p4818
aaa(lp4819
g4814
a(lp4820
S'That'
p4821
aS'we'
p4822
aS'could'
p4823
aS'turn'
p4824
aS'down'
p4825
aaa(lp4826
g4814
a(lp4827
S'except'
p4828
aS'for'
p4829
aS'this'
p4830
aS'one'
p4831
aS'alleyway'
p4832
aaa(lp4833
g4814
a(lp4834
S'So'
p4835
aS'we'
p4836
aS'turn'
p4837
aS'down'
p4838
aaa(lp4839
g4814
a(lp4840
S'in'
p4841
aS'this'
p4842
aS'dark'
p4843
aS'alleyway'
p4844
aaa(lp4845
g4814
a(lp4846
S'and'
p4847
aS'were'
p4848
aS'turning'
p4849
aS'the'
p4850
aS'car'
p4851
aS'around'
p4852
aaa(lp4853
S'PATTYOh'
p4854
a(lp4855
S'my'
p4856
aS'god'
p4857
aaa(lp4858
g4854
a(lp4859
S'good'
p4860
aS'thing'
p4861
ag79
aS'didnt'
p4862
aS'know'
p4863
aS'this'
p4864
aaa(lp4865
S'STEPHANIEand'
p4866
a(lp4867
S'we'
p4868
aS'see'
p4869
aS'all'
p4870
aS'these'
p4871
aS'people'
p4872
aS'in'
p4873
aS'the'
p4874
aS'alleyway'
p4875
aaa(lp4876
g4866
a(lp4877
S'were'
p4878
aS'like'
p4879
aaa(lp4880
g4866
a(lp4881
S'VOX'
p4882
aS'get'
p4883
aS'us'
p4884
aS'out'
p4885
aS'of'
p4886
aS'here'
p4887
aS'VOX'
p4888
aaa(lp4889
g4866
a(lp4890
S'She'
p4891
aS'backed'
p4892
aS'up'
p4893
aaa(lp4894
g4866
a(lp4895
S'So'
p4896
aS'were'
p4897
aS'going'
p4898
aS'back'
p4899
aaa(lp4900
g4866
a(lp4901
S'and'
p4902
aS'we'
p4903
aS'get'
p4904
aS'to'
p4905
aS'the'
p4906
aS'Hollywood'
p4907
aS'Bowl'
p4908
aaa(lp4909
g4866
a(lp4910
S'and'
p4911
aS'were'
p4912
aS'stuck'
p4913
aS'in'
p4914
aS'traffic'
p4915
aaa(lp4916
g4866
a(lp4917
g55
aS'you'
p4918
aS'know'
p4919
ag55
aaa(lp4920
g4866
a(lp4921
S'Sams'
p4922
aS'going'
p4923
aaa(lp4924
g4866
a(lp4925
S'VOX'
p4926
ag79
aS'hate'
p4927
aS'LA'
p4928
aaa(lp4929
g4866
a(lp4930
g79
aS'hate'
p4931
aS'it'
p4932
aS'VOX'
p4933
aaa(lp4934
g4866
a(lp4935
S'Shes'
p4936
aS'screaming'
p4937
aaa(lp4938
g4866
a(lp4939
S'Im'
p4940
aS'sitting'
p4941
aS'there'
p4942
aaa(lp4943
g4866
a(lp4944
S'and'
p4945
aS'some'
p4946
aS'guys'
p4947
aS'looking'
p4948
aS'at'
p4949
aS'us'
p4950
aaa(lp4951
g4866
a(lp4952
S'And'
p4953
aS'he'
p4954
aS'keeps'
p4955
aS'staring'
p4956
aaa(lp4957
g4866
a(lp4958
S'and'
p4959
aS'were'
p4960
aS'like'
p4961
aS'VOX'
p4962
aS'what'
p4963
aS'are'
p4964
aS'you'
p4965
aS'looking'
p4966
aS'at'
p4967
aaa(lp4968
g4866
a(lp4969
S'Were'
p4970
aS'just'
p4971
aS'lost'
p4972
aS'VOX'
p4973
aaa(lp4974
g4866
a(lp4975
S'So'
p4976
aaa(lp4977
g4866
a(lp4978
S'we'
p4979
aS'get'
p4980
aS'back'
p4981
aS'on'
p4982
aS'the'
p4983
aS'freeway'
p4984
aaa(lp4985
g4866
a(lp4986
S'were'
p4987
aS'like'
p4988
aaa(lp4989
g4866
a(lp4990
S'sh'
p4991
aS'Sams'
p4992
aS'like'
p4993
aaa(lp4994
g4866
a(lp4995
g79
aS'know'
p4996
aS'it'
p4997
aS'was'
p4998
aS'the'
p4999
aS'exit'
p5000
aS'before'
p5001
aS'this'
p5002
aS'one'
p5003
aaa(lp5004
S'XThe'
p5005
a(lp5006
S'big'
p5007
aS'one'
p5008
aaa(lp5009
S'MAUREENYeah'
p5010
a(lp5011
aa(lp5012
g5010
a(lp5013
S'Whatever'
p5014
aS'you'
p5015
aS'can'
p5016
aS'reach'
p5017
aS'up'
p5018
aS'there'
p5019
aaa(lp5020
S'STEPHANIEI'
p5021
a(lp5022
S'know'
p5023
aS'that'
p5024
aS'was'
p5025
aS'the'
p5026
aS'one'
p5027
aS'it'
p5028
aS'was'
p5029
aaa(lp5030
S'MAUREENany'
p5031
a(lp5032
S'one'
p5033
aS'of'
p5034
aS'them'
p5035
aS'will'
p5036
aS'do'
p5037
aaa(lp5038
S'STEPHANIEokay'
p5039
a(lp5040
aa(lp5041
g5039
a(lp5042
S'lets'
p5043
aS'go'
p5044
aaa(lp5045
S'MAUREENtheres'
p5046
a(lp5047
S'one'
p5048
aS'on'
p5049
aS'the'
p5050
aS'top'
p5051
aS'thats'
p5052
aS'fine'
p5053
aaa(lp5054
S'STEPHANIEWe'
p5055
a(lp5056
S'go'
p5057
aS'off'
p5058
aS'the'
p5059
aS'next'
p5060
aS'exit'
p5061
aaa(lp5062
S'MAUREENThats'
p5063
a(lp5064
aa(lp5065
S'STEPHANIEand'
p5066
a(lp5067
S'we'
p5068
aS'see'
p5069
aS'this'
p5070
aS'huge'
p5071
aS'sign'
p5072
aaa(lp5073
g5066
a(lp5074
g55
aS'that'
p5075
aS'says'
p5076
ag55
aS'Universal'
p5077
aS'Studios'
p5078
aaa(lp5079
S'MAUREENThatll'
p5080
a(lp5081
S'be'
p5082
aS'fine'
p5083
aaa(lp5084
S'STEPHANIEBut'
p5085
a(lp5086
S'theres'
p5087
aS'no'
p5088
aS'arrow'
p5089
aaa(lp5090
S'MAUREENAh'
p5091
a(lp5092
aa(lp5093
S'PATTY'
p5094
a(lp5095
aa(lp5096
S'MAUREENX'
p5097
a(lp5098
g55
ag55
aaa(lp5099
S'STEPHANIEWere'
p5100
a(lp5101
S'like'
p5102
aaa(lp5103
g5100
a(lp5104
S'okay'
p5105
aS'well'
p5106
aaa(lp5107
g5100
a(lp5108
g79
aS'guess'
p5109
aS'that'
p5110
aS'means'
p5111
aS'we'
p5112
aS'just'
p5113
aS'go'
p5114
aS'out'
p5115
aS'this'
p5116
aS'road'
p5117
aaa(lp5118
S'MAUREEN'
p5119
a(lp5120
S'Thank'
p5121
aS'you'
p5122
aaa(lp5123
S'STEPHANIESo'
p5124
a(lp5125
S'we'
p5126
aS'go'
p5127
aS'up'
p5128
aS'the'
p5129
aS'road'
p5130
ag319
aS'while'
p5131
aaa(lp5132
S'XYoure'
p5133
a(lp5134
S'welcome'
p5135
aaa(lp5136
S'STEPHANIE'
p5137
a(lp5138
S'were'
p5139
aS'driving'
p5140
aS'up'
p5141
aS'this'
p5142
aS'road'
p5143
aS'and'
p5144
aaa(lp5145
g5137
a(lp5146
S'all'
p5147
aS'of'
p5148
ag319
aS'sudden'
p5149
aS'we'
p5150
aS'see'
p5151
aS'HI'
p5152
aS'Warner'
p5153
aS'HI'
p5154
aS'Brothers'
p5155
aS'Studios'
p5156
aaa(lp5157
g5137
a(lp5158
g1141
aS'sign'
p5159
aS'that'
p5160
aS'says'
p5161
aaa(lp5162
g5137
a(lp5163
S'L'
p5164
aS'city'
p5165
aS'limits'
p5166
aS'of'
p5167
aS'Burbank'
p5168
ag5164
aaa(lp5169
g5137
a(lp5170
S'Looked'
p5171
aS'at'
p5172
aS'Sam'
p5173
ag79
aS'said'
p5174
aaa(lp5175
g5137
a(lp5176
S'Sam'
p5177
aaa(lp5178
g5137
a(lp5179
S'were'
p5180
aS'in'
p5181
aS'Burbank'
p5182
aaa(lp5183
g5137
a(lp5184
S'And'
p5185
aS'she'
p5186
aS'goes'
p5187
aaa(lp5188
S'X'
p5189
a(lp5190
aa(lp5191
S'STEPHANIE'
p5192
a(lp5193
S'Were'
p5194
aS'not'
p5195
aS'supposed'
p5196
aS'to'
p5197
aS'be'
p5198
aS'here'
p5199
aaa(lp5200
S'MAUREEN'
p5201
a(lp5202
aa(lp5203
S'PATTY'
p5204
a(lp5205
aa(lp5206
S'STEPHANIETurn'
p5207
a(lp5208
S'around'
p5209
aaa(lp5210
S'PATTYThats'
p5211
a(lp5212
S'what'
p5213
aS'happens'
p5214
aS'when'
p5215
aS'you'
p5216
aS'let'
p5217
aS'two'
p5218
aS'seventeenyearolds'
p5219
aS'go'
p5220
aS'off'
p5221
aS'on'
p5222
ag319
aS'Friday'
p5223
aS'night'
p5224
aaa(lp5225
S'STEPHANIEcome'
p5226
a(lp5227
S'back'
p5228
aaa(lp5229
g5226
a(lp5230
S'So'
p5231
aaa(lp5232
g5226
a(lp5233
S'now'
p5234
aS'we'
p5235
aS'go'
p5236
aS'over'
p5237
aaa(lp5238
S'GAIL'
p5239
a(lp5240
aa(lp5241
S'STEPHANIEand'
p5242
a(lp5243
S'we'
p5244
aS'see'
p5245
aS'the'
p5246
aS'sign'
p5247
aS'that'
p5248
aS'says'
p5249
aS'Universal'
p5250
aS'Studios'
p5251
aaa(lp5252
g5242
a(lp5253
S'and'
p5254
aS'were'
p5255
aS'like'
p5256
aaa(lp5257
g5242
a(lp5258
S'HI'
p5259
aS'well'
p5260
aS'it'
p5261
aS'has'
p5262
aS'HI'
p5263
aS'to'
p5264
aS'be'
p5265
aS'around'
p5266
aS'here'
p5267
aS'HI'
p5268
aS'somewhere'
p5269
aS'HI'
p5270
aaa(lp5271
g5242
a(lp5272
S'its'
p5273
aS'right'
p5274
aS'here'
p5275
aaa(lp5276
g5242
a(lp5277
S'So'
p5278
aS'we'
p5279
aS'go'
p5280
aS'across'
p5281
aaa(lp5282
S'GAILIsnt'
p5283
a(lp5284
S'that'
p5285
aS'in'
p5286
aS'Burbank'
p5287
aS'California'
p5288
aaa(lp5289
g5283
a(lp5290
S'Universal'
p5291
aS'Studios'
p5292
aaa(lp5293
S'MAUREENI'
p5294
a(lp5295
S'thought'
p5296
aS'it'
p5297
aS'was'
p5298
aS'in'
p5299
aS'Burbank'
p5300
aaa(lp5301
S'GAILYeah'
p5302
a(lp5303
aa(lp5304
S'STEPHANIEIt'
p5305
a(lp5306
S'its'
p5307
aS'outside'
p5308
aaa(lp5309
g5305
a(lp5310
S'its'
p5311
aS'like'
p5312
aS'right'
p5313
aS'next'
p5314
aS'to'
p5315
aS'Burbank'
p5316
aaa(lp5317
g5305
a(lp5318
S'but'
p5319
aaa(lp5320
S'GAILThats'
p5321
a(lp5322
aa(lp5323
g5321
a(lp5324
S'thats'
p5325
aS'where'
p5326
aS'uh'
p5327
aS'the'
p5328
aS'Love'
p5329
aS'Connection'
p5330
aS'is'
p5331
ag55
aS'though'
p5332
ag55
aaa(lp5333
S'STEPHANIEWell'
p5334
a(lp5335
S'get'
p5336
aS'to'
p5337
aS'it'
p5338
aaa(lp5339
S'GAILMy'
p5340
a(lp5341
S'favorite'
p5342
aS'show'
p5343
aaa(lp5344
S'STEPHANIEits'
p5345
a(lp5346
S'XX'
p5347
ag55
aaa(lp5348
S'X'
p5349
a(lp5350
aa(lp5351
S'MAUREEN'
p5352
a(lp5353
aa(lp5354
S'STEPHANIE'
p5355
a(lp5356
S'No'
p5357
aS'no'
p5358
aaa(lp5359
g5355
a(lp5360
g79
aS'liked'
p5361
aS'Thats'
p5362
ag319
aS'More'
p5363
aaa(lp5364
S'ERIKA'
p5365
a(lp5366
S'Yes'
p5367
aaa(lp5368
g5365
a(lp5369
S'Thats'
p5370
ag319
aS'More'
p5371
aaa(lp5372
S'MAUREENOh'
p5373
a(lp5374
S'that'
p5375
aS'one'
p5376
ag79
aS'dont'
p5377
aS'know'
p5378
aS'unfortunately'
p5379
aaa(lp5380
S'STEPHANIEThe'
p5381
a(lp5382
S'one'
p5383
aS'where'
p5384
aS'like'
p5385
aS'they'
p5386
aS'bring'
p5387
aS'in'
p5388
aS'their'
p5389
aS'infat'
p5390
aaa(lp5391
g5381
a(lp5392
S'or'
p5393
aaa(lp5394
g5381
a(lp5395
S'infatuation'
p5396
aaa(lp5397
g5381
a(lp5398
S'when'
p5399
aS'they'
p5400
aS'bring'
p5401
aS'in'
p5402
aS'someone'
p5403
aS'theyre'
p5404
aS'infatuated'
p5405
aS'with'
p5406
aaa(lp5407
g5381
a(lp5408
S'and'
p5409
aS'they'
p5410
aS'ask'
p5411
aS'them'
p5412
aS'out'
p5413
aaa(lp5414
g5381
a(lp5415
S'and'
p5416
aS'the'
p5417
aS'person'
p5418
aS'either'
p5419
aS'she'
p5420
aS'ts'
p5421
aaa(lp5422
g5381
a(lp5423
S'sh'
p5424
aaa(lp5425
g5381
a(lp5426
S'like'
p5427
aS'turns'
p5428
aS'them'
p5429
aS'down'
p5430
aS'or'
p5431
aS'goes'
p5432
aS'out'
p5433
aS'with'
p5434
aS'em'
p5435
aaa(lp5436
S'GAILOh'
p5437
a(lp5438
aa(lp5439
g5437
a(lp5440
S'thats'
p5441
aS'that'
p5442
aS'one'
p5443
aS'guy'
p5444
aaa(lp5445
g5437
a(lp5446
S'from'
p5447
aS'the'
p5448
aS'soap'
p5449
aS'opera'
p5450
aaa(lp5451
g5437
a(lp5452
S'Dean'
p5453
aaa(lp5454
S'STEPHANIE'
p5455
a(lp5456
S'Its'
p5457
aaa(lp5458
S'GAILDean'
p5459
a(lp5460
S'from'
p5461
aS'Another'
p5462
aS'World'
p5463
aaa(lp5464
S'STEPHANIENo'
p5465
a(lp5466
aa(lp5467
g5465
a(lp5468
S'that'
p5469
aS'that'
p5470
aaa(lp5471
g5465
a(lp5472
S'Yeah'
p5473
aaa(lp5474
S'GAILIs'
p5475
a(lp5476
S'that'
p5477
aS'it'
p5478
aaa(lp5479
S'STEPHANIE'
p5480
a(lp5481
S'Theres'
p5482
aS'two'
p5483
aaa(lp5484
S'ERIKANo'
p5485
a(lp5486
aa(lp5487
g5485
a(lp5488
S'thats'
p5489
aS'another'
p5490
aS'show'
p5491
aaa(lp5492
S'STEPHANIENo'
p5493
a(lp5494
aa(lp5495
g5493
a(lp5496
S'thats'
p5497
aS'thats'
p5498
aS'the'
p5499
aS'new'
p5500
aS'one'
p5501
aaa(lp5502
S'GAILOh'
p5503
a(lp5504
S'okay'
p5505
aaa(lp5506
S'MAUREEN'
p5507
a(lp5508
S'Oh'
p5509
aaa(lp5510
S'STEPHANIETheres'
p5511
a(lp5512
S'like'
p5513
aS'eight'
p5514
aS'of'
p5515
aS'em'
p5516
aaa(lp5517
S'ERIKAThats'
p5518
a(lp5519
S'yet'
p5520
aS'another'
p5521
aS'one'
p5522
aaa(lp5523
S'STEPHANIEWell'
p5524
a(lp5525
aa(lp5526
S'PATTYOh'
p5527
a(lp5528
S'my'
p5529
aS'God'
p5530
aaa(lp5531
S'STEPHANIEso'
p5532
a(lp5533
S'were'
p5534
aS'turning'
p5535
aaa(lp5536
g5532
a(lp5537
S'and'
p5538
aS'we'
p5539
aS'see'
p5540
aS'this'
p5541
aS'pizza'
p5542
aS'shop'
p5543
aaa(lp5544
g5532
a(lp5545
S'and'
p5546
aS'its'
p5547
aS'still'
p5548
ag55
aS'open'
p5549
ag55
aaa(lp5550
g5532
a(lp5551
S'and'
p5552
aS'were'
p5553
aS'like'
p5554
aaa(lp5555
g5532
a(lp5556
S'okay'
p5557
aaa(lp5558
g5532
a(lp5559
S'Go'
p5560
aS'in'
p5561
aaa(lp5562
g5532
a(lp5563
S'well'
p5564
aS'ask'
p5565
aS'him'
p5566
aaa(lp5567
g5532
a(lp5568
S'since'
p5569
aS'the'
p5570
aS'signs'
p5571
aS'right'
p5572
aS'across'
p5573
ag55
aS'here'
p5574
ag55
aaa(lp5575
g5532
a(lp5576
S'We'
p5577
aS'go'
p5578
aS'in'
p5579
aaa(lp5580
g5532
a(lp5581
S'and'
p5582
aS'were'
p5583
aS'like'
p5584
aaa(lp5585
g5532
a(lp5586
g2732
aaa(lp5587
g5532
a(lp5588
S'Excuse'
p5589
aS'me'
p5590
aaa(lp5591
g5532
a(lp5592
S'but'
p5593
aS'do'
p5594
aS'you'
p5595
aS'know'
p5596
aS'where'
p5597
aS'Universal'
p5598
aS'Studios'
p5599
aaa(lp5600
g5532
a(lp5601
S'Well'
p5602
aS'it'
p5603
aS'said'
p5604
aS'on'
p5605
ag319
aS'sign'
p5606
aS'right'
p5607
aS'there'
p5608
aaa(lp5609
g5532
a(lp5610
S'were'
p5611
aS'just'
p5612
aS'like'
p5613
aS'well'
p5614
aS'theres'
p5615
aS'no'
p5616
aS'arrow'
p5617
aS'pointing'
p5618
aaa(lp5619
g5532
a(lp5620
S'He'
p5621
aS'goes'
p5622
aaa(lp5623
g5532
a(lp5624
S'yeah'
p5625
aS'there'
p5626
aS'is'
p5627
aaa(lp5628
g5532
a(lp5629
S'the'
p5630
ag1095
aS'arrow'
p5631
ag1095
aS'is'
p5632
aS'the'
p5633
aS'last'
p5634
aS'three'
p5635
aS'inches'
p5636
aS'of'
p5637
aS'the'
p5638
aS'billboard'
p5639
aaa(lp5640
g5532
a(lp5641
S'And'
p5642
aS'its'
p5643
aS'MRC'
p5644
aS'on'
p5645
aS'the'
p5646
aS'ground'
p5647
aS'MRC'
p5648
aaa(lp5649
S'GAIL'
p5650
a(lp5651
aa(lp5652
S'STEPHANIESo'
p5653
a(lp5654
S'theres'
p5655
ag319
aS'bush'
p5656
aaa(lp5657
g5653
a(lp5658
S'Covering'
p5659
aS'this'
p5660
aS'big'
p5661
aS'yellow'
p5662
aS'arrow'
p5663
aaa(lp5664
g5653
a(lp5665
S'HI'
p5666
aS'You'
p5667
aS'couldnt'
p5668
aS'see'
p5669
aS'it'
p5670
aS'HI'
p5671
aaa(lp5672
g5653
a(lp5673
S'We'
p5674
aS'get'
p5675
aS'to'
p5676
aS'Universal'
p5677
aS'Studios'
p5678
aaa(lp5679
S'X'
p5680
a(lp5681
aa(lp5682
S'STEPHANIEits'
p5683
a(lp5684
S'ten'
p5685
aS'oclock'
p5686
aaa(lp5687
g5683
a(lp5688
S'or'
p5689
aS'no'
p5690
aaa(lp5691
g5683
a(lp5692
S'It'
p5693
aS'was'
p5694
aaa(lp5695
S'PATTY'
p5696
a(lp5697
S'Nine'
p5698
aS'thirty'
p5699
ag79
aS'thought'
p5700
aS'you'
p5701
aS'said'
p5702
aaa(lp5703
S'STEPHANIEIt'
p5704
a(lp5705
S'was'
p5706
aaa(lp5707
g5704
a(lp5708
S'it'
p5709
aS'was'
p5710
aS'nine'
p5711
aS'forty'
p5712
aS'five'
p5713
aS'or'
p5714
aS'something'
p5715
aS'like'
p5716
aS'that'
p5717
aaa(lp5718
g5704
a(lp5719
S'and'
p5720
aS'they'
p5721
aS'closed'
p5722
aS'at'
p5723
aS'eleven'
p5724
aaa(lp5725
S'PATTY'
p5726
a(lp5727
aa(lp5728
S'GAILOh'
p5729
a(lp5730
S'no'
p5731
aaa(lp5732
S'STEPHANIEWe'
p5733
a(lp5734
S'got'
p5735
aS'on'
p5736
aS'one'
p5737
aS'ride'
p5738
aaa(lp5739
S'PATTYThey'
p5740
a(lp5741
S'spent'
p5742
aS'all'
p5743
aS'night'
p5744
aS'trying'
p5745
aS'to'
p5746
aS'get'
p5747
aS'there'
p5748
aaa(lp5749
S'STEPHANIE'
p5750
a(lp5751
aa(lp5752
g5750
a(lp5753
S'Were'
p5754
aS'on'
p5755
aS'the'
p5756
aS'way'
p5757
aS'home'
p5758
aaa(lp5759
g5750
a(lp5760
g79
aS'was'
p5761
aS'like'
p5762
aaa(lp5763
g5750
a(lp5764
S'lets'
p5765
aS'not'
p5766
aS'take'
p5767
aS'another'
p5768
aS'detour'
p5769
aaa(lp5770
g5750
a(lp5771
S'Shes'
p5772
aS'like'
p5773
aaa(lp5774
g5750
a(lp5775
S'Unhunh'
p5776
aaa(lp5777
S'GAIL'
p5778
a(lp5779
aa(lp5780
S'ERIKAWhat'
p5781
a(lp5782
S'did'
p5783
aS'you'
p5784
aS'go'
p5785
aS'on'
p5786
aaa(lp5787
g5781
a(lp5788
S'while'
p5789
aS'you'
p5790
aS'were'
p5791
aS'there'
p5792
aS'then'
p5793
aaa(lp5794
S'STEPHANIEWe'
p5795
a(lp5796
S'went'
p5797
aS'on'
p5798
aS'the'
p5799
aS'Back'
p5800
aS'to'
p5801
aS'the'
p5802
aS'Future'
p5803
aS'ride'
p5804
aaa(lp5805
g5795
a(lp5806
S'Simulation'
p5807
aaa(lp5808
S'GENEVIEVEOn'
p5809
a(lp5810
S'what'
p5811
aaa(lp5812
S'ERIKAOh'
p5813
a(lp5814
S'really'
p5815
aaa(lp5816
S'STEPHANIE'
p5817
a(lp5818
S'Back'
p5819
aS'to'
p5820
aS'the'
p5821
aS'Future'
p5822
aaa(lp5823
S'MAUREENSixteen'
p5824
a(lp5825
S'thousand'
p5826
aS'gigahertz'
p5827
aaa(lp5828
S'PATTYThat'
p5829
a(lp5830
S'was'
p5831
aS'Stephanies'
p5832
aS'introduction'
p5833
aS'to'
p5834
aS'LA'
p5835
aS'California'
p5836
aaa(lp5837
S'ERIKA'
p5838
a(lp5839
aa(lp5840
S'MAUREENsixtysix'
p5841
a(lp5842
S'thousand'
p5843
aS'gigahertz'
p5844
aS'or'
p5845
aS'whatever'
p5846
aS'it'
p5847
aS'is'
p5848
ag55
aaa(lp5849
S'PATTYIts'
p5850
a(lp5851
g319
aS'pretty'
p5852
aS'big'
p5853
aS'place'
p5854
aaa(lp5855
S'STEPHANIEIt'
p5856
a(lp5857
S'was'
p5858
aS'fun'
p5859
aaa(lp5860
S'PATTYIts'
p5861
a(lp5862
S'enormous'
p5863
aaa(lp5864
S'ERIKAYeah'
p5865
a(lp5866
aa(lp5867
g5865
a(lp5868
S'oh'
p5869
aaa(lp5870
g5865
a(lp5871
S'yeah'
p5872
aaa(lp5873
S'STEPHANIEOh'
p5874
a(lp5875
g79
ag79
aaa(lp5876
g5874
a(lp5877
g79
aS'almost'
p5878
aS'got'
p5879
aS'to'
p5880
aaa(lp5881
S'GAILI'
p5882
a(lp5883
S'dont'
p5884
aS'think'
p5885
aS'Id'
p5886
aS'want'
p5887
aS'to'
p5888
aS'take'
p5889
ag319
aS'wrong'
p5890
aS'turn'
p5891
aS'there'
p5892
aaa(lp5893
S'ERIKAI'
p5894
a(lp5895
S'wouldnt'
p5896
aS'even'
p5897
ag55
ag55
aS'XXXX'
p5898
aaa(lp5899
S'STEPHANIEI'
p5900
a(lp5901
S'drove'
p5902
aS'by'
p5903
aS'the'
p5904
aS'Galleria'
p5905
aaa(lp5906
S'PATTYX'
p5907
a(lp5908
S'No'
p5909
aS'you'
p5910
aS'dont'
p5911
ag55
aaa(lp5912
S'STEPHANIE'
p5913
a(lp5914
S'The'
p5915
aS'Galleria'
p5916
aaa(lp5917
S'ERIKAMm'
p5918
a(lp5919
aa(lp5920
g5918
a(lp5921
S'mhm'
p5922
aaa(lp5923
S'STEPHANIEWe'
p5924
a(lp5925
S'were'
p5926
aS'gonna'
p5927
aS'go'
p5928
aS'to'
p5929
aS'the'
p5930
aS'Galleria'
p5931
aaa(lp5932
g5924
a(lp5933
S'but'
p5934
aS'we'
p5935
aS'didnt'
p5936
aS'get'
p5937
ag319
aS'chance'
p5938
aaa(lp5939
S'GAILDid'
p5940
a(lp5941
S'you'
p5942
aaa(lp5943
S'MAUREENYeah'
p5944
a(lp5945
aa(lp5946
g5944
a(lp5947
S'thats'
p5948
aS'the'
p5949
aS'ch'
p5950
aaa(lp5951
S'GAILTheres'
p5952
a(lp5953
S'the'
p5954
aS'Galleria'
p5955
aS'in'
p5956
aS'Dallas'
p5957
aaa(lp5958
S'STEPHANIESherwood'
p5959
a(lp5960
S'Oaks'
p5961
aaa(lp5962
g5959
a(lp5963
S'Sherwood'
p5964
aS'Oaks'
p5965
aS'Galleria'
p5966
aaa(lp5967
S'PATTY'
p5968
a(lp5969
S'You'
p5970
aS'wouldntve'
p5971
aS'had'
p5972
aS'any'
p5973
aS'money'
p5974
aS'left'
p5975
aS'anyway'
p5976
aS'probab'
p5977
aaa(lp5978
S'MAUREENWe'
p5979
a(lp5980
S'have'
p5981
aS'uh'
p5982
aaa(lp5983
g5979
a(lp5984
S'Roger'
p5985
aaa(lp5986
S'ROGERWhere'
p5987
a(lp5988
S'was'
p5989
aS'th'
p5990
aaa(lp5991
g5987
a(lp5992
S'Where'
p5993
aS'was'
p5994
aS'this'
p5995
aaa(lp5996
g5987
a(lp5997
S'Im'
p5998
aS'gonna'
p5999
aS'take'
p6000
aS'it'
p6001
aS'off'
p6002
aaa(lp6003
S'STEPHANIENo'
p6004
a(lp6005
aa(lp6006
S'ROGERXXX'
p6007
a(lp6008
aa(lp6009
S'MAUREENOkay'
p6010
a(lp6011
aa(lp6012
S'STEPHANIEits'
p6013
a(lp6014
S'not'
p6015
aS'that'
p6016
ag79
aS'h'
p6017
aS'needed'
p6018
aS'money'
p6019
aaa(lp6020
g6013
a(lp6021
S'its'
p6022
aS'the'
p6023
aS'Galleria'
p6024
aaa(lp6025
g6013
a(lp6026
S'Every'
p6027
aS'teenage'
p6028
aS'film'
p6029
aaa(lp6030
g6013
a(lp6031
S'that'
p6032
aS'has'
p6033
aS'ever'
p6034
aS'been'
p6035
aS'filmed'
p6036
aaa(lp6037
g6013
a(lp6038
S'was'
p6039
aS'filmed'
p6040
aS'in'
p6041
aS'the'
p6042
aS'Galleria'
p6043
aaa(lp6044
S'GAIL'
p6045
a(lp6046
aa(lp6047
S'STEPHANIE'
p6048
a(lp6049
aa(lp6050
S'PATTYSee'
p6051
a(lp6052
g79
aS'dont'
p6053
aS'watch'
p6054
aS'that'
p6055
aS'stuff'
p6056
aaa(lp6057
S'STEPHANIEValley'
p6058
a(lp6059
S'Girl'
p6060
aaa(lp6061
S'PATTYso'
p6062
a(lp6063
g79
aS'wasnt'
p6064
aS'aware'
p6065
aS'of'
p6066
aS'that'
p6067
aaa(lp6068
S'STEPHANIE'
p6069
a(lp6070
aa(lp6071
S'MAUREENGail'
p6072
a(lp6073
aa(lp6074
g6072
a(lp6075
S'would'
p6076
aS'you'
p6077
aS'go'
p6078
aS'downstairs'
p6079
aaa(lp6080
S'STEPHANIEX'
p6081
a(lp6082
S'everything'
p6083
aaa(lp6084
S'MAUREENthere'
p6085
a(lp6086
S'are'
p6087
aS'two'
p6088
aS'bottles'
p6089
aS'of'
p6090
aaa(lp6091
S'ERIKAWasnt'
p6092
a(lp6093
S'Fast'
p6094
aS'Times'
p6095
aS'at'
p6096
aS'Ridgemont'
p6097
aS'High'
p6098
aS'filmed'
p6099
aS'there'
p6100
aS'too'
p6101
aaa(lp6102
S'MAUREENburgundy'
p6103
a(lp6104
S'in'
p6105
aS'the'
p6106
aS'refrigerator'
p6107
aaa(lp6108
g6103
a(lp6109
S'and'
p6110
aS'bring'
p6111
aS'up'
p6112
ag319
aS'roll'
p6113
aS'of'
p6114
aS'paper'
p6115
aS'towels'
p6116
aaa(lp6117
S'STEPHANIEFast'
p6118
a(lp6119
S'Times'
p6120
aS'at'
p6121
aS'Ridgemont'
p6122
aS'High'
p6123
aaa(lp6124
S'MAUREENX'
p6125
a(lp6126
S'since'
p6127
aS'were'
p6128
ag55
aaa(lp6129
g6125
a(lp6130
S'um'
p6131
aaa(lp6132
g6125
a(lp6133
g55
aS'okay'
p6134
ag55
aaa(lp6135
S'STEPHANIEum'
p6136
a(lp6137
aa(lp6138
S'GAILOkay'
p6139
a(lp6140
aa(lp6141
S'STEPHANIE'
p6142
a(lp6143
S'Bill'
p6144
aS'and'
p6145
aS'Teds'
p6146
aS'Excellent'
p6147
aS'Adventure'
p6148
aaa(lp6149
g6142
a(lp6150
S'everything'
p6151
aaa(lp6152
g6142
a(lp6153
S'The'
p6154
aS'Gallerias'
p6155
aS'like'
p6156
aS'the'
p6157
aS'biggest'
p6158
aS'filming'
p6159
aS'place'
p6160
aS'in'
p6161
aS'the'
p6162
aS'world'
p6163
aaa(lp6164
g6142
a(lp6165
S'Oh'
p6166
aS'and'
p6167
ag79
aS'found'
p6168
aS'out'
p6169
aS'where'
p6170
aS'Grease'
p6171
aS'was'
p6172
aS'filmed'
p6173
aaa(lp6174
S'MAUREEN'
p6175
a(lp6176
S'Oh'
p6177
aS'yeah'
p6178
aaa(lp6179
S'STEPHANIE'
p6180
a(lp6181
S'It'
p6182
aS'was'
p6183
aS'filmed'
p6184
aS'at'
p6185
aaa(lp6186
g6180
a(lp6187
S'um'
p6188
aaa(lp6189
g6180
a(lp6190
S'Venice'
p6191
aS'High'
p6192
aS'School'
p6193
aaa(lp6194
g6180
a(lp6195
S'In'
p6196
aS'Venice'
p6197
aS'California'
p6198
aaa(lp6199
g6180
a(lp6200
g79
aS'got'
p6201
aS'to'
p6202
aS'see'
p6203
aS'Venice'
p6204
aS'High'
p6205
aS'School'
p6206
aaa(lp6207
g6180
a(lp6208
S'So'
p6209
aaa(lp6210
g6180
a(lp6211
S'PX'
p6212
aS'that'
p6213
aS'was'
p6214
aS'good'
p6215
aS'XP'
p6216
aaa(lp6217
g6180
a(lp6218
S'It'
p6219
aS'was'
p6220
aS'fun'
p6221
aaa(lp6222
g6180
a(lp6223
S'They'
p6224
aS'filmed'
p6225
ag319
aS'movie'
p6226
aS'at'
p6227
aS'Oakland'
p6228
aS'Catholic'
p6229
aaa(lp6230
S'ERIKA'
p6231
a(lp6232
g55
aS'what'
p6233
aaa(lp6234
S'STEPHANIE'
p6235
a(lp6236
S'They'
p6237
aS'filmed'
p6238
ag319
aS'movie'
p6239
aS'at'
p6240
aS'Oakland'
p6241
aS'Catholic'
p6242
aaa(lp6243
S'ERIKAWhat'
p6244
a(lp6245
S'movie'
p6246
aS'was'
p6247
aS'this'
p6248
aaa(lp6249
S'STEPHANIE'
p6250
a(lp6251
g79
aS'dont'
p6252
aS'know'
p6253
aaa(lp6254
g6250
a(lp6255
S'but'
p6256
aS'they'
p6257
aS'filmed'
p6258
aS'it'
p6259
aaa(lp6260
g6250
a(lp6261
S'and'
p6262
aS'there'
p6263
aS'was'
p6264
aS'this'
p6265
aS'woman'
p6266
aS'wearing'
p6267
ag319
aS'wedding'
p6268
aS'dress'
p6269
aS'and'
p6270
aS'combat'
p6271
aS'boots'
p6272
aaa(lp6273
g6250
a(lp6274
S'and'
p6275
aS'she'
p6276
aS'was'
p6277
aS'fighting'
p6278
aS'with'
p6279
aS'her'
p6280
aS'lover'
p6281
aS'outside'
p6282
aaa(lp6283
g6250
a(lp6284
S'and'
p6285
aS'they'
p6286
aS'were'
p6287
aS'filming'
p6288
aS'it'
p6289
aaa(lp6290
S'MAUREEN'
p6291
a(lp6292
aa(lp6293
S'STEPHANIEso'
p6294
a(lp6295
aa(lp6296
g6294
a(lp6297
S'it'
p6298
aS'it'
p6299
aS'was'
p6300
aS'either'
p6301
aS'Funniest'
p6302
aS'Home'
p6303
aS'Videos'
p6304
aaa(lp6305
g6294
a(lp6306
S'or'
p6307
aS'they'
p6308
aS'were'
p6309
aS'filming'
p6310
ag319
aS'fi'
p6311
ag319
aS'movie'
p6312
aaa(lp6313
S'MAUREEN'
p6314
a(lp6315
aa(lp6316
S'STEPHANIEwere'
p6317
a(lp6318
S'not'
p6319
aS'sure'
p6320
aaa(lp6321
S'ERIKA'
p6322
a(lp6323
S'Okay'
p6324
aaa(lp6325
S'PATTYStephanie'
p6326
a(lp6327
S'said'
p6328
aS'to'
p6329
aS'me'
p6330
aS'on'
p6331
aS'Friday'
p6332
aaa(lp6333
g6326
a(lp6334
S'this'
p6335
aS'is'
p6336
aS'an'
p6337
aS'historic'
p6338
aS'day'
p6339
aaa(lp6340
g6326
a(lp6341
g79
aS'started'
p6342
aS'my'
p6343
aS'first'
p6344
aS'day'
p6345
aS'as'
p6346
ag319
aS'senior'
p6347
aaa(lp6348
g6326
a(lp6349
g79
aS'said'
p6350
aS'that'
p6351
aS'is'
p6352
aS'historic'
p6353
aaa(lp6354
S'X'
p6355
a(lp6356
aa(lp6357
S'PATTY'
p6358
a(lp6359
S'This'
p6360
aS'is'
p6361
aS'the'
p6362
aS'beginning'
p6363
aS'of'
p6364
aS'the'
p6365
aS'end'
p6366
aS'for'
p6367
aS'me'
p6368
aaa(lp6369
S'STEPHANIEYou'
p6370
a(lp6371
S'get'
p6372
aS'to'
p6373
aS'make'
p6374
aS'fun'
p6375
aS'of'
p6376
aS'freshmen'
p6377
aaa(lp6378
S'PATTYif'
p6379
a(lp6380
S'it'
p6381
aS'ever'
p6382
aS'comes'
p6383
aaa(lp6384
g6379
a(lp6385
S'the'
p6386
aS'beginning'
p6387
aS'of'
p6388
aS'the'
p6389
aS'end'
p6390
aaa(lp6391
g6379
a(lp6392
S'if'
p6393
aS'it'
p6394
aS'ever'
p6395
aS'comes'
p6396
aaa(lp6397
S'STEPHANIE'
p6398
a(lp6399
S'It'
p6400
aS'comes'
p6401
aS'Jan'
p6402
aaa(lp6403
g6398
a(lp6404
S'June'
p6405
aS'second'
p6406
aaa(lp6407
g6398
a(lp6408
S'when'
p6409
ag79
aS'graduate'
p6410
aaa(lp6411
g6398
a(lp6412
S'and'
p6413
ag79
aS'get'
p6414
aS'my'
p6415
aS'diploma'
p6416
aS'MRC'
p6417
aS'in'
p6418
aS'my'
p6419
aS'hand'
p6420
aS'MRC'
p6421
aaa(lp6422
S'PATTYHallelujah'
p6423
a(lp6424
aa(lp6425
S'ERIKANext'
p6426
a(lp6427
S'is'
p6428
aS'the'
p6429
aS'wedding'
p6430
aaa(lp6431
S'PATTY'
p6432
a(lp6433
S'Never'
p6434
aaa(lp6435
S'STEPHANIENo'
p6436
a(lp6437
aa(lp6438
S'PATTY'
p6439
a(lp6440
S'Never'
p6441
aaa(lp6442
S'STEPHANIEnext'
p6443
a(lp6444
S'is'
p6445
aS'college'
p6446
aS'graduation'
p6447
aaa(lp6448
S'PATTYIve'
p6449
a(lp6450
S'married'
p6451
aS'one'
p6452
aS'daughter'
p6453
aaa(lp6454
g6449
a(lp6455
S'thats'
p6456
aS'enough'
p6457
aaa(lp6458
g6449
a(lp6459
S'Thats'
p6460
aS'enough'
p6461
aaa(lp6462
S'STEPHANIE'
p6463
a(lp6464
S'No'
p6465
aS'no'
p6466
aaa(lp6467
g6463
a(lp6468
S'Youve'
p6469
aS'gotta'
p6470
aS'go'
p6471
aS'through'
p6472
aS'two'
p6473
aS'more'
p6474
aaa(lp6475
S'MAUREENAlright'
p6476
a(lp6477
aa(lp6478
g6476
a(lp6479
S'Okay'
p6480
aaa(lp6481
g6476
a(lp6482
S'um'
p6483
aaa(lp6484
S'STEPHANIE'
p6485
a(lp6486
S'Cause'
p6487
aS't'
p6488
aS'we'
p6489
aaa(lp6490
S'MAUREENUh'
p6491
a(lp6492
aa(lp6493
S'PATTYYou'
p6494
a(lp6495
S'guys'
p6496
aS'cant'
p6497
aS'get'
p6498
aS'married'
p6499
aaa(lp6500
g6494
a(lp6501
S'you'
p6502
aS'have'
p6503
aS'to'
p6504
aS'elope'
p6505
aaa(lp6506
S'STEPHANIE'
p6507
a(lp6508
S'Im'
p6509
aS'not'
p6510
aS'eloping'
p6511
aaa(lp6512
S'MAUREENWe'
p6513
a(lp6514
S'need'
p6515
aS'from'
p6516
ag2732
aaa(lp6517
S'STEPHANIEI'
p6518
a(lp6519
S'got'
p6520
ag319
aS'big'
p6521
aS'production'
p6522
aaa(lp6523
S'MAUREENStephanie'
p6524
a(lp6525
aa(lp6526
g6524
a(lp6527
g2732
ag79
aS'need'
p6528
aS'you'
p6529
aS'and'
p6530
aS'Erika'
p6531
aS'to'
p6532
aS'carry'
p6533
aS'chairs'
p6534
aS'from'
p6535
aS'the'
p6536
aS'front'
p6537
aS'porch'
p6538
aaa(lp6539
g6524
a(lp6540
S'those'
p6541
aS'four'
p6542
aS'little'
p6543
aS'white'
p6544
aS'ones'
p6545
aaa(lp6546
g6524
a(lp6547
S'and'
p6548
aS'theyll'
p6549
aS'stack'
p6550
aaa(lp6551
g6524
a(lp6552
S'you'
p6553
aS'can'
p6554
aS'stack'
p6555
aS'two'
p6556
aS'together'
p6557
aaa(lp6558
S'STEPHANIEOkay'
p6559
a(lp6560
aa(lp6561
S'MAUREENand'
p6562
a(lp6563
S'carry'
p6564
aS'them'
p6565
aS'around'
p6566
aaa(lp6567
S'PATTYTheyll'
p6568
a(lp6569
S'be'
p6570
aS'good'
p6571
aS'carriers'
p6572
aaa(lp6573
S'MAUREEN'
p6574
a(lp6575
S'And'
p6576
aaa(lp6577
g6574
a(lp6578
S'Ill'
p6579
aS'put'
p6580
aS'this'
p6581
aS'out'
p6582
aaa(lp6583
g6574
a(lp6584
S'and'
p6585
aS'were'
p6586
aS'ready'
p6587
aS'to'
p6588
aS'eat'
p6589
aaa(lp6590
S'PATTYSmells'
p6591
a(lp6592
S'good'
p6593
aaa(lp6594
S'ERIKAOkay'
p6595
a(lp6596
aa(lp6597
S'MAUREENSo'
p6598
a(lp6599
aa(lp6600
S'GENEVIEVE'
p6601
a(lp6602
S'How'
p6603
aS'are'
p6604
aS'we'
p6605
aS'ever'
p6606
aS'gonna'
p6607
aS'find'
p6608
ag319
aS'school'
p6609
aS'for'
p6610
aS'her'
p6611
aaa(lp6612
S'PATTY'
p6613
a(lp6614
aa(lp6615
S'GAIL'
p6616
a(lp6617
aa(lp6618
S'PATTY'
p6619
a(lp6620
S'Im'
p6621
aS'gonna'
p6622
aS'pray'
p6623
ag319
aS'lot'
p6624
aaa(lp6625
S'GAIL'
p6626
a(lp6627
aa(lp6628
S'PATTYThat'
p6629
a(lp6630
S'she'
p6631
aS'makes'
p6632
aS'good'
p6633
aS'choices'
p6634
aaa(lp6635
S'GAILUh'
p6636
a(lp6637
aa(lp6638
g6636
a(lp6639
S'itll'
p6640
aS'work'
p6641
aaa(lp6642
S'PATTYShes'
p6643
a(lp6644
S'very'
p6645
aS'opinionated'
p6646
aaa(lp6647
g6643
a(lp6648
S'And'
p6649
aS'her'
p6650
aS'dads'
p6651
aS'very'
p6652
aS'patient'
p6653
aS'with'
p6654
aS'it'
p6655
aaa(lp6656
g6643
a(lp6657
S'and'
p6658
ag79
aS'get'
p6659
aS'really'
p6660
aS'hyper'
p6661
aaa(lp6662
S'GAILXXX'
p6663
a(lp6664
aa(lp6665
g6663
a(lp6666
S'After'
p6667
ag319
aS'while'
p6668
aaa(lp6669
g6663
a(lp6670
S'But'
p6671
aaa(lp6672
g6663
a(lp6673
S'thats'
p6674
aS'why'
p6675
ag79
aS'said'
p6676
aS'you'
p6677
aS'know'
p6678
aaa(lp6679
g6663
a(lp6680
S'you'
p6681
aS'cant'
p6682
aS'prejudge'
p6683
aaa(lp6684
g6663
a(lp6685
S'You'
p6686
aS'have'
p6687
aS'to'
p6688
aS'go'
p6689
aS'and'
p6690
aaa(lp6691
g6663
a(lp6692
S'feel'
p6693
aS'and'
p6694
aaa(lp6695
g6663
a(lp6696
S'visit'
p6697
aS'and'
p6698
aS'say'
p6699
aaa(lp6700
g6663
a(lp6701
S'oh'
p6702
aS'yeah'
p6703
aS'well'
p6704
aaa(lp6705
g6663
a(lp6706
S'and'
p6707
aS'then'
p6708
aS'keep'
p6709
ag319
aS'list'
p6710
aaa(lp6711
S'MAUREENOkay'
p6712
a(lp6713
aa(lp6714
S'PATTYWell'
p6715
a(lp6716
S'this'
p6717
aS'school'
p6718
aS'has'
p6719
aS'this'
p6720
aS'good'
p6721
aS'point'
p6722
aaa(lp6723
S'MAUREENDinners'
p6724
a(lp6725
g55
aS'serving'
p6726
ag55
aaa(lp6727
S'PATTYand'
p6728
a(lp6729
S'this'
p6730
aS'bad'
p6731
aS'point'
p6732
aS'and'
p6733
aS'then'
p6734
aaa(lp6735
S'DALEYou'
p6736
a(lp6737
S'got'
p6738
aS'any'
p6739
aS'extra'
p6740
aS'work'
p6741
aS'for'
p6742
aS'me'
p6743
aaa(lp6744
S'PATTY'
p6745
a(lp6746
S'Then'
p6747
aS'eventually'
p6748
aS'onell'
p6749
aS'click'
p6750
aS'in'
p6751
aS'your'
p6752
aS'mind'
p6753
aaa(lp6754
S'MAUREENXX'
p6755
a(lp6756
S'XX'
p6757
ag55
ag55
aaa(lp6758
g6755
a(lp6759
g79
aS'need'
p6760
aS'someone'
p6761
aS'to'
p6762
aS'help'
p6763
aS'Mom'
p6764
aS'out'
p6765
aS'to'
p6766
aS'the'
p6767
aS'table'
p6768
aaa(lp6769
S'PATTYand'
p6770
a(lp6771
S'youll'
p6772
aS'say'
p6773
aS'after'
p6774
aS'all'
p6775
aS'XXX'
p6776
aaa(lp6777
g6770
a(lp6778
S'you'
p6779
aS'know'
p6780
aaa(lp6781
g6770
a(lp6782
S'this'
p6783
aS'is'
p6784
aS'the'
p6785
aS'one'
p6786
ag79
aS'really'
p6787
aS'like'
p6788
aS'the'
p6789
aS'best'
p6790
aaa(lp6791
S'ROGERXX'
p6792
a(lp6793
S'XXX'
p6794
aaa(lp6795
S'PATTY'
p6796
a(lp6797
S'Cause'
p6798
aS'where'
p6799
aS'Stephanie'
p6800
aaa(lp6801
g6796
a(lp6802
S'Where'
p6803
aS'Amy'
p6804
aS'expected'
p6805
aS'to'
p6806
aS'go'
p6807
aS'she'
p6808
aS'hated'
p6809
aaa(lp6810
g6796
a(lp6811
S'She'
p6812
aS'hated'
p6813
aS'the'
p6814
aS'University'
p6815
aS'of'
p6816
aS'Minnesota'
p6817
aaa(lp6818
g6796
a(lp6819
S'She'
p6820
aS'went'
p6821
aS'to'
p6822
aS'Saint'
p6823
aS'Bens'
p6824
aS'and'
p6825
aS'she'
p6826
aS'loved'
p6827
aS'it'
p6828
aaa(lp6829
g6796
a(lp6830
S'And'
p6831
aS'she'
p6832
aS'was'
p6833
aS'happy'
p6834
aS'there'
p6835
aaa(lp6836
S'GAILYeah'
p6837
a(lp6838
aa(lp6839
S'PATTYYou'
p6840
a(lp6841
S'know'
p6842
aS'you'
p6843
aS'dont'
p6844
aS'know'
p6845
aaa(lp6846
g6840
a(lp6847
S'You'
p6848
aS'just'
p6849
aS'uh'
p6850
aaa(lp6851
g6840
a(lp6852
S'you'
p6853
aS'know'
p6854
aaa(lp6855
g6840
a(lp6856
S'so'
p6857
ag55
ag79
aS'dont'
p6858
aS'know'
p6859
aS'how'
p6860
aS'to'
p6861
ag55
aS'prejudge'
p6862
aaa(lp6863
g6840
a(lp6864
S'Im'
p6865
aS'just'
p6866
aS'gonna'
p6867
aS'hold'
p6868
aS'my'
p6869
aS'breath'
p6870
aaa(lp6871
g6840
a(lp6872
S'For'
p6873
aS'the'
p6874
aS'next'
p6875
aS'six'
p6876
aS'months'
p6877
aaa(lp6878
g6840
a(lp6879
S'Im'
p6880
aS'gonna'
p6881
aS'hold'
p6882
aS'my'
p6883
aS'breath'
p6884
aaa(lp6885
S'GAIL'
p6886
a(lp6887
aa(lp6888
g6886
a(lp6889
S'That'
p6890
aS'works'
p6891
aaa(lp6892
g6886
a(lp6893
S'Right'
p6894
aaa(lp6895
S'PATTY'
p6896
a(lp6897
g79
aS'dont'
p6898
aS'know'
p6899
aaa(lp6900
g6896
a(lp6901
g79
aS'could'
p6902
aS'die'
p6903
aS'from'
p6904
aS'holding'
p6905
aS'my'
p6906
aS'breath'
p6907
aaa(lp6908
S'GAIL'
p6909
a(lp6910
aa(lp6911
S'PATTYThen'
p6912
a(lp6913
g79
aS'wouldnt'
p6914
aS'have'
p6915
aS'this'
p6916
aS'problem'
p6917
aS'though'
p6918
aaa(lp6919
g6912
a(lp6920
S'Uncle'
p6921
aS'John'
p6922
aS'would'
p6923
aS'have'
p6924
aS'it'
p6925
aaa(lp6926
g6912
a(lp6927
S'So'
p6928
ag79
aS'wont'
p6929
aS'have'
p6930
aS'to'
p6931
aS'do'
p6932
aS'this'
p6933
aaa(lp6934
S'GAIL'
p6935
a(lp6936
aa(lp6937
S'PATTYMaybe'
p6938
a(lp6939
S'thats'
p6940
aaa(lp6941
g6938
a(lp6942
S'not'
p6943
aS'such'
p6944
ag319
aS'bad'
p6945
aS'idea'
p6946
aaa(lp6947
g6938
a(lp6948
S'Hold'
p6949
aS'my'
p6950
aS'breath'
p6951
aaa(lp6952
g6938
a(lp6953
S'then'
p6954
aS'he'
p6955
aS'has'
p6956
aS'to'
p6957
aS'deal'
p6958
aS'with'
p6959
aS'it'
p6960
aaa(lp6961
S'GAIL'
p6962
a(lp6963
aa(lp6964
S'ROGER'
p6965
a(lp6966
S'Here'
p6967
ag79
aS'am'
p6968
aaa(lp6969
g6965
a(lp6970
S'see'
p6971
aS'if'
p6972
aS'shes'
p6973
ag55
aaa(lp6974
S'PATTYBut'
p6975
a(lp6976
g79
aS'am'
p6977
aS'getting'
p6978
aS'better'
p6979
aaa(lp6980
g6975
a(lp6981
S'Ive'
p6982
aS'been'
p6983
aS'laying'
p6984
aS'down'
p6985
aaa(lp6986
S'MAUREENWell'
p6987
a(lp6988
S'Dale'
p6989
aS'will'
p6990
aS'help'
p6991
aS'her'
p6992
aaa(lp6993
S'PATTYIve'
p6994
a(lp6995
S'been'
p6996
aS'putting'
p6997
aS'my'
p6998
aS'foot'
p6999
aS'down'
p7000
aS'on'
p7001
aS'things'
p7002
aS'like'
p7003
aaa(lp7004
S'ROGERSee'
p7005
a(lp7006
S'if'
p7007
aS'she'
p7008
aS'trusts'
p7009
ag319
aS'drunk'
p7010
aaa(lp7011
S'PATTYyou'
p7012
a(lp7013
S'know'
p7014
aaa(lp7015
g7012
a(lp7016
S'cause'
p7017
aS'Stephanie'
p7018
aS'has'
p7019
aS'futzed'
p7020
aS'around'
p7021
aS'with'
p7022
aS'her'
p7023
aS'health'
p7024
aS'class'
p7025
aaa(lp7026
S'MAUREENLet'
p7027
a(lp7028
S'Dale'
p7029
aS'help'
p7030
aS'her'
p7031
aS'please'
p7032
aaa(lp7033
S'ROGERNo'
p7034
a(lp7035
aa(lp7036
S'PATTYand'
p7037
a(lp7038
S'hasnt'
p7039
aS'had'
p7040
aS'it'
p7041
aS'yet'
p7042
aaa(lp7043
g7037
a(lp7044
S'You'
p7045
aS'cant'
p7046
aS'graduate'
p7047
aS'without'
p7048
aS'health'
p7049
aaa(lp7050
S'GAILOh'
p7051
a(lp7052
aa(lp7053
S'PATTY'
p7054
a(lp7055
S'She'
p7056
ag79
aS'got'
p7057
aS'her'
p7058
aS'schedule'
p7059
aS'Tuesday'
p7060
aS'night'
p7061
aaa(lp7062
g7054
a(lp7063
S'when'
p7064
ag79
aS'went'
p7065
aS'to'
p7066
aS'the'
p7067
aS'meeting'
p7068
aaa(lp7069
g7054
a(lp7070
S'and'
p7071
ag79
aS'said'
p7072
aaa(lp7073
g7054
a(lp7074
S'kiddo'
p7075
aaa(lp7076
g7054
a(lp7077
S'you'
p7078
aS'go'
p7079
aS'to'
p7080
aS'school'
p7081
aS'tomorrow'
p7082
aaa(lp7083
S'ROGEROoh'
p7084
a(lp7085
S'that'
p7086
aS'looks'
p7087
aS'good'
p7088
aaa(lp7089
S'PATTYand'
p7090
a(lp7091
S'you'
p7092
aS'get'
p7093
aS'this'
p7094
aS'health'
p7095
aS'class'
p7096
aS'arranged'
p7097
aaa(lp7098
g7090
a(lp7099
S'if'
p7100
aS'you'
p7101
aS'bring'
p7102
aS'it'
p7103
aS'home'
p7104
aaa(lp7105
S'ROGERX'
p7106
a(lp7107
S'Im'
p7108
aS'fine'
p7109
ag55
aaa(lp7110
S'PATTY'
p7111
a(lp7112
S'She'
p7113
aS'said'
p7114
aS'well'
p7115
ag79
aS'can'
p7116
aS'do'
p7117
aS'it'
p7118
aS'next'
p7119
aS'semester'
p7120
aaa(lp7121
g7111
a(lp7122
g79
aS'said'
p7123
aS'no'
p7124
aaa(lp7125
g7111
a(lp7126
S'Youre'
p7127
aS'not'
p7128
aaa(lp7129
g7111
a(lp7130
S'Youre'
p7131
aS'doing'
p7132
aS'it'
p7133
aS'now'
p7134
aaa(lp7135
g7111
a(lp7136
S'Cause'
p7137
aS'you'
p7138
aS'and'
p7139
ag79
aS'arent'
p7140
aS'gonna'
p7141
aS'cry'
p7142
aS'next'
p7143
aS'February'
p7144
aaa(lp7145
g7111
a(lp7146
S'cause'
p7147
aS'it'
p7148
aS'doesnt'
p7149
aS'fit'
p7150
aS'in'
p7151
aS'your'
p7152
aS'schedule'
p7153
aaa(lp7154
g7111
a(lp7155
S'and'
p7156
aS'you'
p7157
aS'cant'
p7158
aS'graduate'
p7159
aaa(lp7160
S'GAIL'
p7161
a(lp7162
aa(lp7163
S'PATTYFMRC'
p7164
a(lp7165
S'You'
p7166
aS'do'
p7167
aS'it'
p7168
aS'now'
p7169
aS'MRCF'
p7170
aaa(lp7171
g7164
a(lp7172
S'Oh'
p7173
ag79
ag2732
aaa(lp7174
g7164
a(lp7175
g79
aS'was'
p7176
aS'really'
p7177
aS'emphatic'
p7178
aaa(lp7179
S'MAUREENOkay'
p7180
a(lp7181
aa(lp7182
S'PATTYI'
p7183
a(lp7184
S'said'
p7185
aaa(lp7186
S'MAUREENGet'
p7187
a(lp7188
S'those'
p7189
aS'people'
p7190
aS'in'
p7191
aS'here'
p7192
aaa(lp7193
S'PATTYdont'
p7194
a(lp7195
S'come'
p7196
aS'home'
p7197
aS'until'
p7198
aS'its'
p7199
aS'scheduled'
p7200
aaa(lp7201
S'ROGERHey'
p7202
a(lp7203
S'Ma'
p7204
aS'you'
p7205
aS'ready'
p7206
aS'to'
p7207
aS'go'
p7208
aaa(lp7209
S'PATTYSo'
p7210
a(lp7211
S'she'
p7212
aS'came'
p7213
aS'home'
p7214
aS'Friday'
p7215
aaa(lp7216
g7210
a(lp7217
S'and'
p7218
aS'she'
p7219
aS'says'
p7220
aaa(lp7221
g7210
a(lp7222
S'oh'
p7223
aS'Mom'
p7224
aaa(lp7225
S'ROGERYou'
p7226
a(lp7227
S'have'
p7228
aS'to'
p7229
aS'go'
p7230
aS'to'
p7231
aS'the'
p7232
aS'pot'
p7233
aaa(lp7234
S'PATTYshe'
p7235
a(lp7236
S'said'
p7237
aaa(lp7238
g7235
a(lp7239
g79
aS'have'
p7240
aS'good'
p7241
aS'news'
p7242
aS'for'
p7243
aS'you'
p7244
aaa(lp7245
g7235
a(lp7246
S'And'
p7247
ag79
aS'thought'
p7248
aaa(lp7249
g7235
a(lp7250
S'yeah'
p7251
aaa(lp7252
g7235
a(lp7253
S'sure'
p7254
aS'you'
p7255
aS'do'
p7256
aaa(lp7257
g7235
a(lp7258
g79
aS'said'
p7259
aaa(lp7260
S'ROGERYou'
p7261
a(lp7262
S'gotta'
p7263
aS'go'
p7264
aS'to'
p7265
aS'the'
p7266
aS'pot'
p7267
aaa(lp7268
S'PATTYI'
p7269
a(lp7270
S'said'
p7271
aaa(lp7272
S'GENEVIEVEI'
p7273
a(lp7274
S'just'
p7275
aS'did'
p7276
aaa(lp7277
S'PATTY'
p7278
a(lp7279
S'she'
p7280
aS'kept'
p7281
aS'saying'
p7282
aaa(lp7283
g7278
a(lp7284
S'you'
p7285
aaa(lp7286
g7278
a(lp7287
S'youre'
p7288
aS'gonna'
p7289
aS'be'
p7290
aS'so'
p7291
aS'pleased'
p7292
aS'with'
p7293
aS'me'
p7294
aaa(lp7295
S'ROGEROh'
p7296
a(lp7297
aa(lp7298
S'PATTYAnd'
p7299
a(lp7300
g79
aS'said'
p7301
aaa(lp7302
g7299
a(lp7303
S'well'
p7304
aaa(lp7305
g7299
a(lp7306
S'And'
p7307
aS'she'
p7308
aS'said'
p7309
aaa(lp7310
g7299
a(lp7311
g79
aS'got'
p7312
aS'health'
p7313
aS'on'
p7314
aS'my'
p7315
aS'schedule'
p7316
aaa(lp7317
g7299
a(lp7318
S'For'
p7319
aS'this'
p7320
aS'semester'
p7321
aS'and'
p7322
ag79
aS'said'
p7323
aaa(lp7324
g7299
a(lp7325
S'she'
p7326
aS'says'
p7327
ag79
aS'went'
p7328
aS'and'
p7329
ag79
aS'talked'
p7330
aS'about'
p7331
aS'it'
p7332
aaa(lp7333
g7299
a(lp7334
S'and'
p7335
aS'then'
p7336
aS'the'
p7337
aS'teacher'
p7338
aaa(lp7339
g7299
a(lp7340
g79
aS'went'
p7341
aS'to'
p7342
aS'see'
p7343
aS'the'
p7344
aS'teacher'
p7345
aS'and'
p7346
aS'he'
p7347
aS'said'
p7348
aaa(lp7349
g7299
a(lp7350
S'she'
p7351
aS'cant'
p7352
aS'take'
p7353
aS'it'
p7354
aaa(lp7355
g7299
a(lp7356
S'cause'
p7357
aS'theres'
p7358
aS'only'
p7359
aS'thirtyseven'
p7360
aS'chairs'
p7361
aaa(lp7362
g7299
a(lp7363
S'and'
p7364
ag79
aS'said'
p7365
aS'you'
p7366
aS'can'
p7367
aS'carry'
p7368
aS'your'
p7369
aS'own'
p7370
aaa(lp7371
S'GAIL'
p7372
a(lp7373
aa(lp7374
S'PATTYYou'
p7375
a(lp7376
S'tell'
p7377
aS'her'
p7378
aaa(lp7379
g7375
a(lp7380
S'youre'
p7381
aS'gonna'
p7382
aS'be'
p7383
aS'there'
p7384
aaa(lp7385
g7375
a(lp7386
S'cause'
p7387
aS'its'
p7388
aS'on'
p7389
aS'the'
p7390
aS'schedule'
p7391
aaa(lp7392
g7375
a(lp7393
S'and'
p7394
aS'if'
p7395
aS'you'
p7396
aS'have'
p7397
aS'to'
p7398
aS'carry'
p7399
aS'your'
p7400
aS'own'
p7401
aS'chair'
p7402
aaa(lp7403
g7375
a(lp7404
S'youre'
p7405
aS'gonna'
p7406
aS'be'
p7407
aS'there'
p7408
aaa(lp7409
g7375
a(lp7410
S'because'
p7411
aS'youre'
p7412
aS'gonna'
p7413
aS'do'
p7414
aS'it'
p7415
aS'now'
p7416
aaa(lp7417
g7375
a(lp7418
S'and'
p7419
aS'next'
p7420
aS'semester'
p7421
aS'that'
p7422
aS'its'
p7423
aS'like'
p7424
aaa(lp7425
g7375
a(lp7426
S'not'
p7427
aS'hanging'
p7428
aS'over'
p7429
aS'your'
p7430
aS'head'
p7431
aaa(lp7432
S'MAUREENDale'
p7433
a(lp7434
S'will'
p7435
aS'you'
p7436
aS'help'
p7437
aS'Mom'
p7438
aS'out'
p7439
aaa(lp7440
S'PATTYX'
p7441
a(lp7442
S'She'
p7443
aS'goes'
p7444
aS'Sam'
p7445
aS'was'
p7446
aS'like'
p7447
ag55
aaa(lp7448
g7441
a(lp7449
S'oh'
p7450
aS'dont'
p7451
aS'worry'
p7452
aaa(lp7453
S'GAIL'
p7454
a(lp7455
aa(lp7456
S'PATTYno'
p7457
a(lp7458
S'sweat'
p7459
aS'Mom'
p7460
aaa(lp7461
S'MAUREENXX'
p7462
a(lp7463
aa(lp7464
S'PATTYIll'
p7465
a(lp7466
S'do'
p7467
aS'it'
p7468
aaa(lp7469
g7465
a(lp7470
S'you'
p7471
aS'know'
p7472
aS'what'
p7473
ag79
aS'mean'
p7474
aaa(lp7475
S'GAILOh'
p7476
a(lp7477
aa(lp7478
S'PATTY'
p7479
a(lp7480
aa(lp7481
S'GAILlike'
p7482
a(lp7483
S'Robert'
p7484
aaa(lp7485
S'PATTYYes'
p7486
a(lp7487
aa(lp7488
g7486
a(lp7489
S'yes'
p7490
aaa(lp7491
S'GAILOkay'
p7492
a(lp7493
aa(lp7494
S'PATTYoh'
p7495
a(lp7496
S'its'
p7497
aS'scary'
p7498
aaa(lp7499
g7495
a(lp7500
S'And'
p7501
ag79
aS'said'
p7502
aaa(lp7503
g7495
a(lp7504
S'you'
p7505
aS'will'
p7506
aaa(lp7507
g7495
a(lp7508
S'PAR'
p7509
ag79
aS'lost'
p7510
aS'my'
p7511
aS'bracelet'
p7512
aaa(lp7513
g7495
a(lp7514
S'Its'
p7515
aS'under'
p7516
aS'your'
p7517
aS'foot'
p7518
aS'PAR'
p7519
aaa(lp7520
g7495
a(lp7521
S'And'
p7522
ag79
aS'said'
p7523
aaa(lp7524
g7495
a(lp7525
S'and'
p7526
aaa(lp7527
S'MAUREENChairs'
p7528
a(lp7529
aa(lp7530
S'PATTYif'
p7531
a(lp7532
S'you'
p7533
aS'wanna'
p7534
aS'go'
p7535
aS'out'
p7536
aS'tonight'
p7537
aaa(lp7538
g7531
a(lp7539
S'youre'
p7540
aS'not'
p7541
aS'getting'
p7542
aS'my'
p7543
aS'keys'
p7544
aS'to'
p7545
aS'my'
p7546
aS'car'
p7547
aaa(lp7548
g7531
a(lp7549
S'until'
p7550
aS'we'
p7551
aS'finish'
p7552
aS'this'
p7553
aS'conversation'
p7554
aaa(lp7555
S'GAIL'
p7556
a(lp7557
aa(lp7558
S'PATTYI'
p7559
a(lp7560
S'got'
p7561
aS'really'
p7562
aS'nasty'
p7563
aaa(lp7564
S'ROGERX'
p7565
a(lp7566
S'Now'
p7567
aS'Im'
p7568
aS'not'
p7569
aS'worried'
p7570
aS'Im'
p7571
ag55
aS'forgetting'
p7572
aS'my'
p7573
aS'shoes'
p7574
aaa(lp7575
S'GAIL'
p7576
a(lp7577
aa(lp7578
g7576
a(lp7579
S'Yeah'
p7580
aaa(lp7581
S'PATTYBut'
p7582
a(lp7583
S'she'
p7584
aS'went'
p7585
aS'the'
p7586
aS'next'
p7587
aS'day'
p7588
aS'and'
p7589
aS'she'
p7590
aS'did'
p7591
aS'it'
p7592
aaa(lp7593
g7582
a(lp7594
g79
aS'thought'
p7595
aaa(lp7596
g7582
a(lp7597
S'okay'
p7598
aaa(lp7599
S'GAILWell'
p7600
a(lp7601
S'thats'
p7602
aS'good'
p7603
aaa(lp7604
S'PATTYjust'
p7605
a(lp7606
S'keep'
p7607
aS'doing'
p7608
aS'it'
p7609
ag55
ag55
aS'baby'
p7610
ag55
aaa(lp7611
S'GAILshes'
p7612
a(lp7613
S'learning'
p7614
aaa(lp7615
g7612
a(lp7616
S'Right'
p7617
aaa(lp7618
S'PATTYjust'
p7619
a(lp7620
S'keep'
p7621
aS'do'
p7622
aaa(lp7623
g7619
a(lp7624
S'Shes'
p7625
aS'learning'
p7626
aaa(lp7627
g7619
a(lp7628
g79
aS'mean'
p7629
aS'it'
p7630
aaa(lp7631
g7619
a(lp7632
g79
aS'mean'
p7633
aS'business'
p7634
aaa(lp7635
S'ROGERGo'
p7636
a(lp7637
S'out'
p7638
aS'this'
p7639
aS'way'
p7640
aaa(lp7641
S'GAIL'
p7642
a(lp7643
S'Yeah'
p7644
aaa(lp7645
S'PATTY'
p7646
a(lp7647
g79
aS'dont'
p7648
aS'know'
p7649
aS'which'
p7650
aS'ways'
p7651
aS'better'
p7652
aS'for'
p7653
aS'her'
p7654
aS'to'
p7655
aS'go'
p7656
aS'out'
p7657
aaa(lp7658
S'ROGERWhats'
p7659
a(lp7660
S'the'
p7661
aS'best'
p7662
aS'way'
p7663
aaa(lp7664
S'GAIL'
p7665
a(lp7666
S'That'
p7667
aS'way'
p7668
aaa(lp7669
S'PATTYI'
p7670
a(lp7671
aa(lp7672
g7670
a(lp7673
S'That'
p7674
aS'way'
p7675
aaa(lp7676
S'GAIL'
p7677
a(lp7678
S'Even'
p7679
aS'though'
p7680
aS'you'
p7681
aS'have'
p7682
aS'to'
p7683
aS'walk'
p7684
ag319
aS'little'
p7685
aS'further'
p7686
aaa(lp7687
S'PATTYYeah'
p7688
a(lp7689
aa(lp7690
g7688
a(lp7691
S'maybe'
p7692
aaa(lp7693
g7688
a(lp7694
S'cause'
p7695
aS'of'
p7696
aS'the'
p7697
aS'railing'
p7698
aaa(lp7699
g7688
a(lp7700
S'hunh'
p7701
aaa(lp7702
S'GAILbecause'
p7703
a(lp7704
S'theres'
p7705
aS'railings'
p7706
aaa(lp7707
S'PATTYCan'
p7708
a(lp7709
g79
aS'carry'
p7710
aS'something'
p7711
aaa(lp7712
S'GAILand'
p7713
a(lp7714
S'theyre'
p7715
aS'not'
p7716
aS'as'
p7717
aaa(lp7718
g7713
a(lp7719
S'Yes'
p7720
aaa(lp7721
g7713
a(lp7722
S'that'
p7723
aS'can'
p7724
aS'go'
p7725
aS'out'
p7726
aaa(lp7727
S'PATTYThis'
p7728
a(lp7729
aa(lp7730
g7728
a(lp7731
S'Out'
p7732
aS'to'
p7733
aS'the'
p7734
aS'big'
p7735
aS'table'
p7736
aaa(lp7737
g7728
a(lp7738
S'Right'
p7739
aaa(lp7740
S'ROGER'
p7741
a(lp7742
g55
aS'You'
p7743
aS'walk'
p7744
aS'the'
p7745
aS'grass'
p7746
ag55
aaa(lp7747
g7741
a(lp7748
S'Here'
p7749
aaa(lp7750
S'GENEVIEVE'
p7751
a(lp7752
S'Well'
p7753
aS'weve'
p7754
aS'gotta'
p7755
aS'XXX'
p7756
aaa(lp7757
g7751
a(lp7758
S'Im'
p7759
aS'slow'
p7760
aaa(lp7761
S'ROGER'
p7762
a(lp7763
S'What'
p7764
aaa(lp7765
S'MAUREEN'
p7766
a(lp7767
S'Take'
p7768
aS'your'
p7769
aS'time'
p7770
aaa(lp7771
S'ROGER'
p7772
a(lp7773
S'Yeah'
p7774
aaa(lp7775
g7772
a(lp7776
S'no'
p7777
aS'hurry'
p7778
aaa(lp7779
g7772
a(lp7780
S'Let'
p7781
aS'me'
p7782
aS'get'
p7783
aS'in'
p7784
aS'front'
p7785
aaa.