(lp0
(lp1
S'LENORE'
p2
a(lp3
S'So'
p4
aS'you'
p5
aS'dont'
p6
aS'need'
p7
aS'to'
p8
aS'go'
p9
aS'borrow'
p10
aS'equipment'
p11
aS'from'
p12
aS'anybody'
p13
aaa(lp14
g2
a(lp15
S'to'
p16
aaa(lp17
g2
a(lp18
S'to'
p19
aS'do'
p20
aS'the'
p21
aS'feet'
p22
aaa(lp23
g2
a(lp24
S'Do'
p25
aS'the'
p26
aS'hooves'
p27
aaa(lp28
S'LYNNE'
p29
a(lp30
S'YWN'
p31
aS'Well'
p32
aaa(lp33
g29
a(lp34
S'were'
p35
aS'gonna'
p36
aS'have'
p37
aS'to'
p38
aS'find'
p39
aS'somewhere'
p40
aaa(lp41
g29
a(lp42
S'to'
p43
aS'get'
p44
aaa(lp45
g29
a(lp46
S'YWN'
p47
aaa(lp48
S'DORIS'
p49
a(lp50
S'So'
p51
aaa(lp52
g49
a(lp53
S'Mae'
p54
aaa(lp55
S'LYNNE'
p56
a(lp57
S'Im'
p58
aS'gonna'
p59
aaa(lp60
S'DORIS'
p61
a(lp62
S'Mae'
p63
aS'Lynne'
p64
aS'XX'
p65
aaa(lp66
S'LYNNE'
p67
a(lp68
S'Were'
p69
aS'not'
p70
aS'gonna'
p71
aS'do'
p72
aS'the'
p73
aS'feet'
p74
aS'today'
p75
aaa(lp76
g67
a(lp77
S'Im'
p78
aS'gonna'
p79
aS'wait'
p80
aS'till'
p81
aS'like'
p82
aaa(lp83
g67
a(lp84
S'early'
p85
aS'in'
p86
aS'the'
p87
aS'morning'
p88
aaa(lp89
g67
a(lp90
S'to'
p91
aS'do'
p92
aS'those'
p93
aaa(lp94
g67
a(lp95
S'cause'
p96
aS'y'
p97
aaa(lp98
g67
a(lp99
S'I'
p100
aS'mean'
p101
aS'you'
p102
aS'get'
p103
aS'so'
p104
aS'tired'
p105
aaa(lp106
g67
a(lp107
S'n'
p108
aS'you'
p109
aS'just'
p110
aaa(lp111
g67
a(lp112
S'it'
p113
aS'takes'
p114
aaa(lp115
g67
a(lp116
S'well'
p117
aaa(lp118
g67
a(lp119
S'it'
p120
aS'takes'
p121
aS'me'
p122
aS'longer'
p123
aS'than'
p124
aS'most'
p125
aS'people'
p126
aaa(lp127
g67
a(lp128
S'cause'
p129
aS'you'
p130
aS'know'
p131
aaa(lp132
g67
a(lp133
S'Im'
p134
aS'not'
p135
aS'as'
p136
aS'strong'
p137
aS'and'
p138
aaa(lp139
g67
a(lp140
S'and'
p141
aS'Im'
p142
aS'not'
p143
aS'as'
p144
aS'good'
p145
aaa(lp146
g67
a(lp147
S'as'
p148
aS'like'
p149
aS'somebody'
p150
aS'that'
p151
aS'would'
p152
aS'do'
p153
aS'it'
p154
aS'all'
p155
aS'the'
p156
aS'time'
p157
aaa(lp158
g67
a(lp159
S'You'
p160
aS'know'
p161
aaa(lp162
g67
a(lp163
g100
aS'mean'
p164
aaa(lp165
g67
a(lp166
S'X'
p167
aS'Oh'
p168
ag167
aaa(lp169
g67
a(lp170
g100
aS'mean'
p171
ag100
aS'trim'
p172
aS'horses'
p173
aaa(lp174
g67
a(lp175
S'and'
p176
aS'stuff'
p177
aS'like'
p178
aS'that'
p179
aaa(lp180
g67
a(lp181
S'but'
p182
ag100
aS'mean'
p183
aaa(lp184
g67
a(lp185
S'Im'
p186
aS'not'
p187
aS'like'
p188
aaa(lp189
g67
a(lp190
S'Im'
p191
aS'not'
p192
aS'uh'
p193
aaa(lp194
g67
a(lp195
g100
aS'dont'
p196
aS'know'
p197
aS'how'
p198
aS'to'
p199
aS'say'
p200
aS'it'
p201
aaa(lp202
g67
a(lp203
S'But'
p204
aS'you'
p205
aS'know'
p206
aaa(lp207
g67
a(lp208
S'they'
p209
aS'do'
p210
aS'it'
p211
aS'for'
p212
aS'a'
p213
aS'living'
p214
aaa(lp215
g67
a(lp216
S'you'
p217
aS'know'
p218
aaa(lp219
g67
a(lp220
S'most'
p221
aS'people'
p222
aS'that'
p223
aS'you'
p224
aS'would'
p225
aS'get'
p226
aS'to'
p227
aS'trim'
p228
aS'your'
p229
aS'horse'
p230
aS'do'
p231
aS'it'
p232
aS'all'
p233
aS'the'
p234
aS'time'
p235
aaa(lp236
g67
a(lp237
S'that'
p238
aS'good'
p239
aS'or'
p240
aaa(lp241
g67
a(lp242
S'and'
p243
aS'Im'
p244
aS'not'
p245
aS'very'
p246
aS'strong'
p247
aaa(lp248
S'LENORE'
p249
a(lp250
S'Did'
p251
aS'they'
p252
aS'train'
p253
aS'you'
p254
aaa(lp255
S'LYNNE'
p256
a(lp257
S'yeah'
p258
aaa(lp259
S'LENORE'
p260
a(lp261
S'Did'
p262
aS'they'
p263
aS'train'
p264
aS'you'
p265
aS'that'
p266
aaa(lp267
g260
a(lp268
S'XX'
p269
aaa(lp270
S'LYNNE'
p271
a(lp272
S'yeah'
p273
aaa(lp274
g271
a(lp275
S'yeah'
p276
aaa(lp277
S'LENORE'
p278
a(lp279
S'So'
p280
aS'you'
p281
aS'have'
p282
aS'your'
p283
aS'own'
p284
aS'equipment'
p285
aaa(lp286
S'LYNNE'
p287
a(lp288
aa(lp289
S'LENORE'
p290
a(lp291
S'but'
p292
aaa(lp293
S'LYNNE'
p294
a(lp295
S'No'
p296
aaa(lp297
g294
a(lp298
g100
aS'dont'
p299
aS'have'
p300
aS'my'
p301
aS'own'
p302
aS'equipment'
p303
aS'at'
p304
aS'all'
p305
aaa(lp306
g294
a(lp307
S'Dad'
p308
aaa(lp309
g294
a(lp310
S'you'
p311
aS'know'
p312
aaa(lp313
g294
a(lp314
S'has'
p315
aS'done'
p316
aS'some'
p317
aS'of'
p318
aS'it'
p319
aaa(lp320
g294
a(lp321
S'Thats'
p322
aS'another'
p323
aS'thing'
p324
aS'too'
p325
aaa(lp326
g294
a(lp327
S'is'
p328
ag100
aS'kinda'
p329
aS'had'
p330
ag213
aS'b'
p331
aS'general'
p332
aS'idea'
p333
aaa(lp334
g294
a(lp335
S'of'
p336
aS'kinda'
p337
aS'how'
p338
aS'to'
p339
aS'do'
p340
aS'it'
p341
aaa(lp342
g294
a(lp343
S'just'
p344
aS'watching'
p345
aS'him'
p346
aaa(lp347
g294
a(lp348
S'or'
p349
aaa(lp350
g294
a(lp351
S'and'
p352
aS'watching'
p353
aaa(lp354
g294
a(lp355
S'people'
p356
aS'come'
p357
aS'to'
p358
aS'our'
p359
aS'place'
p360
aaa(lp361
g294
a(lp362
S'and'
p363
aS'doing'
p364
aS'it'
p365
aS'and'
p366
aS'stuff'
p367
aS'you'
p368
aS'know'
p369
aaa(lp370
g294
a(lp371
S'and'
p372
aaa(lp373
g294
a(lp374
g100
aS'dont'
p375
aS'know'
p376
aaa(lp377
g294
a(lp378
S'then'
p379
aaa(lp380
g294
a(lp381
S'down'
p382
aS'there'
p383
aaa(lp384
g294
a(lp385
S'um'
p386
aaa(lp387
g294
a(lp388
S'its'
p389
aS'mandatory'
p390
aaa(lp391
g294
a(lp392
S'you'
p393
aS'have'
p394
aS'to'
p395
aaa(lp396
g294
a(lp397
S'to'
p398
aS'graduate'
p399
aaa(lp400
g294
a(lp401
S'you'
p402
aS'know'
p403
aaa(lp404
g294
a(lp405
S'or'
p406
aS'well'
p407
aaa(lp408
g294
a(lp409
S'to'
p410
aS'get'
p411
aS'the'
p412
aS'degree'
p413
aaa(lp414
g294
a(lp415
S'you'
p416
aS'know'
p417
aaa(lp418
g294
a(lp419
S'you'
p420
aS'have'
p421
aS'to'
p422
aS'take'
p423
aS'this'
p424
aS'class'
p425
aaa(lp426
g294
a(lp427
S'And'
p428
aS'you'
p429
aS'can'
p430
aS'only'
p431
aS'take'
p432
aaa(lp433
g294
a(lp434
S'if'
p435
aS'you'
p436
aS'want'
p437
aS'to'
p438
aaa(lp439
g294
a(lp440
S'you'
p441
aS'can'
p442
aS'only'
p443
aS'take'
p444
aS'it'
p445
aS'for'
p446
aS'eight'
p447
aS'weeks'
p448
aaa(lp449
g294
a(lp450
S'And'
p451
aaa(lp452
g294
a(lp453
S'if'
p454
aS'you'
p455
aS'wanna'
p456
aS'go'
p457
aS'on'
p458
aS'in'
p459
aS'it'
p460
aaa(lp461
g294
a(lp462
S'you'
p463
ag108
aaa(lp464
g294
a(lp465
S'then'
p466
aaa(lp467
g294
a(lp468
S'you'
p469
aS'can'
p470
aS'go'
p471
aS'on'
p472
aaa(lp473
g294
a(lp474
S'you'
p475
aS'know'
p476
aaa(lp477
g294
a(lp478
S'And'
p479
ag100
aS'decided'
p480
aS'to'
p481
aS'go'
p482
aS'ahead'
p483
aS'and'
p484
aS'go'
p485
aS'on'
p486
aS'in'
p487
aS'it'
p488
aaa(lp489
g294
a(lp490
S'And'
p491
aS'the'
p492
aS'first'
p493
aS'part'
p494
aS'of'
p495
aS'it'
p496
aaa(lp497
g294
a(lp498
S'is'
p499
aS'like'
p500
aaa(lp501
g294
a(lp502
S'well'
p503
aS'we'
p504
aS'have'
p505
aS'lecture'
p506
aaa(lp507
g294
a(lp508
S'then'
p509
aS'we'
p510
aS'have'
p511
aS'lab'
p512
aaa(lp513
g294
a(lp514
S'And'
p515
aS'like'
p516
aaa(lp517
g294
a(lp518
S'the'
p519
aS'first'
p520
aS'part'
p521
aS'of'
p522
aS'it'
p523
aaa(lp524
g294
a(lp525
S'we'
p526
aS'just'
p527
aS'go'
p528
aS'into'
p529
aS'the'
p530
aS'classroom'
p531
aaa(lp532
g294
a(lp533
S'and'
p534
aS'he'
p535
aS'like'
p536
aaa(lp537
g294
a(lp538
S'In'
p539
aS'the'
p540
aS'beginning'
p541
aS'of'
p542
aS'the'
p543
aS'year'
p544
aS'there'
p545
aS'was'
p546
ag213
aS'lot'
p547
aS'of'
p548
aS'classroom'
p549
aS'work'
p550
aaa(lp551
g294
a(lp552
g100
aS'mean'
p553
aaa(lp554
g294
a(lp555
S'it'
p556
aaa(lp557
g294
a(lp558
S'thats'
p559
aS'just'
p560
aS'kinda'
p561
aS'how'
p562
aS'it'
p563
aS'happens'
p564
aaa(lp565
g294
a(lp566
S'you'
p567
aS'know'
p568
aaa(lp569
g294
a(lp570
S'because'
p571
aS'he'
p572
aS'kinda'
p573
aS'has'
p574
aS'to'
p575
aS'tell'
p576
aS'you'
p577
aaa(lp578
g294
a(lp579
S'they'
p580
aS'go'
p581
aS'over'
p582
aaa(lp583
g294
a(lp584
S'the'
p585
aS'whole'
p586
aaa(lp587
g294
a(lp588
S'the'
p589
aS'whole'
p590
aS'part'
p591
aS'of'
p592
aS'the'
p593
aS'horse'
p594
aaa(lp595
g294
a(lp596
g100
aS'mean'
p597
aaa(lp598
g294
a(lp599
S'all'
p600
aS'the'
p601
aS'skeleton'
p602
aS'part'
p603
aS'of'
p604
aS'it'
p605
aS'you'
p606
aS'know'
p607
aaa(lp608
g294
a(lp609
S'and'
p610
aaa(lp611
g294
a(lp612
S'and'
p613
aS'they'
p614
aS'go'
p615
aS'through'
p616
aS'every'
p617
aS'kinda'
p618
aS'ligament'
p619
aaa(lp620
g294
a(lp621
S'and'
p622
ag100
aS'mean'
p623
aaa(lp624
g294
a(lp625
S'theres'
p626
aaa(lp627
g294
a(lp628
S'millions'
p629
aS'of'
p630
aS'ligaments'
p631
aaa(lp632
g294
a(lp633
S'and'
p634
aS'millions'
p635
aS'of'
p636
aS'tendons'
p637
aaa(lp638
g294
a(lp639
S'you'
p640
aS'know'
p641
aaa(lp642
g294
a(lp643
S'well'
p644
aS'not'
p645
aS'millions'
p646
aaa(lp647
g294
a(lp648
S'but'
p649
aaa(lp650
g294
a(lp651
g100
aS'mean'
p652
aaa(lp653
S'LENORE'
p654
a(lp655
S'yeah'
p656
aaa(lp657
g654
a(lp658
g100
aS'bet'
p659
aaa(lp660
S'LYNNE'
p661
a(lp662
S'and'
p663
ag167
aS'then'
p664
ag167
aaa(lp665
g661
a(lp666
S'so'
p667
aS'we'
p668
aS'had'
p669
aS'to'
p670
aS'know'
p671
aS'these'
p672
aS'tendons'
p673
aaa(lp674
g661
a(lp675
S'and'
p676
aS'ligaments'
p677
aaa(lp678
g661
a(lp679
S'and'
p680
aS'then'
p681
aaa(lp682
g661
a(lp683
S'all'
p684
aS'the'
p685
aS'bones'
p686
aaa(lp687
g661
a(lp688
S'and'
p689
aaa(lp690
g661
a(lp691
S'you'
p692
aS'know'
p693
aaa(lp694
g661
a(lp695
S'all'
p696
aS'the'
p697
aS'way'
p698
aS'up'
p699
aS'from'
p700
aS'the'
p701
aS'shoulder'
p702
aS'down'
p703
aaa(lp704
g661
a(lp705
S'and'
p706
aS'then'
p707
aS'from'
p708
aS'the'
p709
aS'hip'
p710
aS'down'
p711
aaa(lp712
g661
a(lp713
S'You'
p714
aS'know'
p715
aaa(lp716
g661
a(lp717
S'all'
p718
aS'the'
p719
aS'way'
p720
aS'down'
p721
aS'to'
p722
aS'the'
p723
aS'hoof'
p724
aaa(lp725
g661
a(lp726
S'and'
p727
aS'then'
p728
aaa(lp729
g661
a(lp730
S'the'
p731
aS'bone'
p732
aS'in'
p733
aS'the'
p734
aS'hoof'
p735
aaa(lp736
g661
a(lp737
S'and'
p738
aaa(lp739
g661
a(lp740
S'then'
p741
aS'all'
p742
aS'the'
p743
aS'wall'
p744
aaa(lp745
g661
a(lp746
S'and'
p747
aaa(lp748
g661
a(lp749
S'you'
p750
aS'know'
p751
aaa(lp752
g661
a(lp753
S'of'
p754
aS'the'
p755
aS'hoof'
p756
aaa(lp757
g661
a(lp758
S'and'
p759
aaa(lp760
g661
a(lp761
S'what'
p762
aS'everything'
p763
aS'was'
p764
aS'called'
p765
aS'there'
p766
aaa(lp767
g661
a(lp768
S'and'
p769
aS'then'
p770
aaa(lp771
g661
a(lp772
S'he'
p773
aS'went'
p774
aS'over'
p775
aS'on'
p776
aS'how'
p777
aS'to'
p778
aS'trim'
p779
aS'it'
p780
aaa(lp781
g661
a(lp782
S'and'
p783
aS'where'
p784
aS'you'
p785
aaa(lp786
g661
a(lp787
S'th'
p788
aS'theres'
p789
ag213
aS'white'
p790
aS'line'
p791
aaa(lp792
g661
a(lp793
S'that'
p794
aS'you'
p795
aS'go'
p796
aS'by'
p797
aaa(lp798
g661
a(lp799
S'and'
p800
ag213
aS'horse'
p801
aS'has'
p802
aS'this'
p803
aS'little'
p804
aS'white'
p805
aS'line'
p806
aaa(lp807
g661
a(lp808
S'and'
p809
aS'you'
p810
aS'clean'
p811
aS'it'
p812
aS'out'
p813
aS'with'
p814
aS'the'
p815
aaa(lp816
g661
a(lp817
S'with'
p818
aS'the'
p819
aS'hoof'
p820
aS'knife'
p821
aaa(lp822
g661
a(lp823
S'you'
p824
aS'know'
p825
aaa(lp826
g661
a(lp827
S'and'
p828
aS'then'
p829
aS'there'
p830
aaa(lp831
g661
a(lp832
S'and'
p833
aS'then'
p834
aS'you'
p835
aS'can'
p836
aS'see'
p837
aS'this'
p838
aS'little'
p839
aS'white'
p840
aS'line'
p841
aaa(lp842
g661
a(lp843
S'and'
p844
aS'thats'
p845
aS'kinda'
p846
aS'where'
p847
aS'you'
p848
aS'go'
p849
aS'by'
p850
aaa(lp851
g661
a(lp852
S'to'
p853
aaa(lp854
g661
a(lp855
S'SM'
p856
aS'you'
p857
aS'know'
p858
aaa(lp859
g661
a(lp860
S'the'
p861
aS'horse'
p862
aS'kinda'
p863
aS'helps'
p864
aS'you'
p865
aS'out'
p866
aaa(lp867
g661
a(lp868
S'because'
p869
aS'it'
p870
aaa(lp871
g661
a(lp872
S'has'
p873
aS'that'
p874
aS'little'
p875
aS'white'
p876
aS'line'
p877
aS'right'
p878
aS'there'
p879
aaa(lp880
S'LENORE'
p881
a(lp882
S'mhm'
p883
aaa(lp884
S'LYNNE'
p885
a(lp886
S'and'
p887
aS'thats'
p888
aS'where'
p889
aS'you'
p890
aS'kinda'
p891
aS'SM'
p892
aaa(lp893
g885
a(lp894
S'kinda'
p895
aS'need'
p896
ag213
aS'little'
p897
aS'guide'
p898
aaa(lp899
g885
a(lp900
S'of'
p901
aS'where'
p902
aS'you'
p903
aS'trim'
p904
aaa(lp905
g885
a(lp906
S'And'
p907
aaa(lp908
g885
a(lp909
g100
aS'am'
p910
aS'still'
p911
aS'scared'
p912
aS'to'
p913
aS'do'
p914
aS'it'
p915
aaa(lp916
g885
a(lp917
S'because'
p918
aaa(lp919
g885
a(lp920
S'_you'
p921
aS'know'
p922
aaa(lp923
g885
a(lp924
g100
aS'mean'
p925
aaa(lp926
g885
a(lp927
S'HI'
p928
aS'you'
p929
aS'can'
p930
aS'make'
p931
aS'HI'
p932
ag213
aS'horse'
p933
aS'go'
p934
aS'lame'
p935
aaa(lp936
g885
a(lp937
S'By'
p938
aS'doing'
p939
aS'it'
p940
aaa(lp941
S'LENORE'
p942
a(lp943
S'really'
p944
aaa(lp945
S'LYNNE'
p946
a(lp947
S'Well'
p948
aS'you'
p949
aS'can'
p950
aS'trim'
p951
aS'em'
p952
aS'too'
p953
aS'short'
p954
aaa(lp955
g946
a(lp956
S'And'
p957
aS'make'
p958
aS'em'
p959
aaa(lp960
g946
a(lp961
S'you'
p962
aS'know'
p963
aaa(lp964
g946
a(lp965
S'and'
p966
aS'theyre'
p967
aS'just'
p968
ag213
aS'little'
p969
aS'bit'
p970
aaa(lp971
g946
a(lp972
S'for'
p973
aS'f'
p974
aaa(lp975
g946
a(lp976
S'the'
p977
aS'first'
p978
aS'couple'
p979
aS'of'
p980
aS'days'
p981
aaa(lp982
g946
a(lp983
S'you'
p984
aS'know'
p985
aaa(lp986
g946
a(lp987
g100
aS'mean'
p988
aS'theyre'
p989
aS'just'
p990
aS'sore'
p991
aaa(lp992
g946
a(lp993
S'Thats'
p994
aS'not'
p995
aS'bad'
p996
aaa(lp997
g946
a(lp998
S'but'
p999
aS'sometimes'
p1000
aS'you'
p1001
aS'can'
p1002
aS'get'
p1003
aS'it'
p1004
aS'really'
p1005
aS'bad'
p1006
aaa(lp1007
g946
a(lp1008
S'You'
p1009
aS'can'
p1010
aS'really'
p1011
aS'make'
p1012
ag213
aS'horse'
p1013
aS'really'
p1014
aS'bad'
p1015
aaa(lp1016
g946
a(lp1017
S'And'
p1018
aS'they'
p1019
aS'm'
p1020
aaa(lp1021
g946
a(lp1022
S'you'
p1023
aS'know'
p1024
aS'then'
p1025
aaa(lp1026
g946
a(lp1027
S'they'
p1028
aS'have'
p1029
aS'to'
p1030
aaa(lp1031
g946
a(lp1032
S'like'
p1033
aaa(lp1034
g946
a(lp1035
S'away'
p1036
aS'from'
p1037
aS'anything'
p1038
aaa(lp1039
g946
a(lp1040
S'you'
p1041
aS'know'
p1042
aaa(lp1043
g946
a(lp1044
S'get'
p1045
aS'em'
p1046
aS'really'
p1047
aS'in'
p1048
aS'the'
p1049
aS'soft'
p1050
aS'ground'
p1051
aaa(lp1052
g946
a(lp1053
S'and'
p1054
aaa(lp1055
g946
a(lp1056
S'no'
p1057
aS'hard'
p1058
aS'pebbles'
p1059
aaa(lp1060
g946
a(lp1061
S'or'
p1062
aS'hard'
p1063
aS'clods'
p1064
aS'of'
p1065
aS'dirt'
p1066
aS'or'
p1067
aS'anything'
p1068
aaa(lp1069
g946
a(lp1070
S'So'
p1071
aaa(lp1072
g946
a(lp1073
g100
aS'dont'
p1074
aS'know'
p1075
aaa(lp1076
g946
a(lp1077
S'Im'
p1078
ag213
aS'little'
p1079
aS'scared'
p1080
aS'about'
p1081
aS'doing'
p1082
aS'it'
p1083
aS'yet'
p1084
aaa(lp1085
g946
a(lp1086
S'you'
p1087
aS'know'
p1088
aaa(lp1089
g946
a(lp1090
g100
aS'get'
p1091
aS'em'
p1092
aS'really'
p1093
aS'long'
p1094
aaa(lp1095
g946
a(lp1096
g100
aS'mean'
p1097
aS'theyre'
p1098
aS'still'
p1099
aS'long'
p1100
aaa(lp1101
g946
a(lp1102
S'When'
p1103
ag100
aS'get'
p1104
aS'done'
p1105
aS'with'
p1106
aS'them'
p1107
aaa(lp1108
g946
a(lp1109
S'SM'
p1110
aS'A'
p1111
aS'lot'
p1112
aS'of'
p1113
aS'times'
p1114
aaa(lp1115
g946
a(lp1116
S'like'
p1117
aS'Ill'
p1118
aS'get'
p1119
aS'done'
p1120
aaa(lp1121
g946
a(lp1122
S'and'
p1123
aS'Ill'
p1124
aS'think'
p1125
aS'Im'
p1126
aS'done'
p1127
aaa(lp1128
g946
a(lp1129
S'and'
p1130
aS'Ill'
p1131
aS'look'
p1132
aS'at'
p1133
aaa(lp1134
g946
a(lp1135
S'look'
p1136
aS'down'
p1137
aS'at'
p1138
aS'the'
p1139
aS'horses'
p1140
aS'hoof'
p1141
aS'SM'
p1142
aaa(lp1143
g946
a(lp1144
S'and'
p1145
aS'its'
p1146
aS'still'
p1147
aaa(lp1148
g946
a(lp1149
S'its'
p1150
aS'too'
p1151
aS'long'
p1152
aaa(lp1153
g946
a(lp1154
S'And'
p1155
aS'then'
p1156
aS'like'
p1157
aaa(lp1158
g946
a(lp1159
g100
aS'would'
p1160
aS'never'
p1161
aaa(lp1162
g946
a(lp1163
S'ever'
p1164
aaa(lp1165
g946
a(lp1166
S'ever'
p1167
aaa(lp1168
g946
a(lp1169
S'trust'
p1170
aS'myself'
p1171
aaa(lp1172
g946
a(lp1173
S'to'
p1174
aS'shoe'
p1175
ag213
aS'horse'
p1176
aaa(lp1177
g946
a(lp1178
S'See'
p1179
aS'we'
p1180
aS'did'
p1181
aS'that'
p1182
aS'too'
p1183
aaa(lp1184
g946
a(lp1185
S'we'
p1186
aS'did'
p1187
aaa(lp1188
g946
a(lp1189
S'We'
p1190
aS'did'
p1191
ag213
aS'lot'
p1192
aS'of'
p1193
aS'stuff'
p1194
aaa(lp1195
g946
a(lp1196
S'we'
p1197
aS'did'
p1198
ag213
aS'lot'
p1199
aS'of'
p1200
aS'stuff'
p1201
aS'with'
p1202
aS'the'
p1203
aaa(lp1204
g946
a(lp1205
S'like'
p1206
aS'we'
p1207
aS'had'
p1208
aS'the'
p1209
aaa(lp1210
g946
a(lp1211
S'um'
p1212
aaa(lp1213
g946
a(lp1214
S'the'
p1215
aS'burners'
p1216
aaa(lp1217
g946
a(lp1218
S'you'
p1219
aS'know'
p1220
aaa(lp1221
g946
a(lp1222
S'and'
p1223
aS'youd'
p1224
aS'put'
p1225
aS'the'
p1226
aaa(lp1227
g946
a(lp1228
S'youd'
p1229
aS'have'
p1230
aaa(lp1231
g946
a(lp1232
S'you'
p1233
aS'started'
p1234
aS'out'
p1235
aS'with'
p1236
aS'the'
p1237
aS'straight'
p1238
aS'iron'
p1239
aaa(lp1240
g946
a(lp1241
S'you'
p1242
aS'know'
p1243
aaa(lp1244
g946
a(lp1245
S'and'
p1246
aS'youd'
p1247
aS'stick'
p1248
aS'it'
p1249
aS'into'
p1250
aS'the'
p1251
aaa(lp1252
g946
a(lp1253
S'into'
p1254
aS'the'
p1255
aaa(lp1256
g946
a(lp1257
S'you'
p1258
aS'know'
p1259
aS'like'
p1260
aaa(lp1261
g946
a(lp1262
S'SM'
p1263
aS'actual'
p1264
aS'blacksmithing'
p1265
aaa(lp1266
g946
a(lp1267
S'And'
p1268
aS'youd'
p1269
aS'put'
p1270
aS'it'
p1271
aS'into'
p1272
aS'the'
p1273
aS'hot'
p1274
aS'SM'
p1275
aS'coals'
p1276
aaa(lp1277
g946
a(lp1278
S'you'
p1279
aS'know'
p1280
aaa(lp1281
g946
a(lp1282
S'And'
p1283
aS'then'
p1284
aaa(lp1285
g946
a(lp1286
S'wed'
p1287
aaa(lp1288
g946
a(lp1289
S'i'
p1290
ag1290
aS'straight'
p1291
aS'bar'
p1292
aaa(lp1293
g946
a(lp1294
S'and'
p1295
aS'wed'
p1296
aS'make'
p1297
aS'it'
p1298
ag213
aaa(lp1299
g946
a(lp1300
g213
aS'horseshoe'
p1301
aS'out'
p1302
aS'of'
p1303
aS'it'
p1304
aaa(lp1305
g946
a(lp1306
S'you'
p1307
aS'know'
p1308
aaa(lp1309
g946
a(lp1310
S'But'
p1311
aaa(lp1312
g946
a(lp1313
S'these'
p1314
aS'shoes'
p1315
aS'we'
p1316
aS'never'
p1317
aS'did'
p1318
aS'put'
p1319
aS'on'
p1320
ag213
aS'horse'
p1321
aaa(lp1322
g946
a(lp1323
S'We'
p1324
aS'just'
p1325
aS'put'
p1326
aS'the'
p1327
aS'shoes'
p1328
aS'that'
p1329
aS'were'
p1330
aS'already'
p1331
aS'made'
p1332
aaa(lp1333
S'LENORE'
p1334
a(lp1335
aa(lp1336
S'LYNNE'
p1337
a(lp1338
S'on'
p1339
ag213
aS'horse'
p1340
aaa(lp1341
g1337
a(lp1342
S'And'
p1343
aS'thats'
p1344
aS'as'
p1345
aS'far'
p1346
aS'as'
p1347
aS'we'
p1348
aS'got'
p1349
aaa(lp1350
g1337
a(lp1351
g100
aS'mean'
p1352
aaa(lp1353
g1337
a(lp1354
S'if'
p1355
aS'you'
p1356
aS'would'
p1357
aS'really'
p1358
aS'get'
p1359
aS'into'
p1360
aS'it'
p1361
aaa(lp1362
g1337
a(lp1363
S'Well'
p1364
aS'as'
p1365
ag213
aS'matter'
p1366
aS'of'
p1367
aS'fact'
p1368
aaa(lp1369
g1337
a(lp1370
S'this'
p1371
aS'is'
p1372
aS'really'
p1373
aS'funny'
p1374
aaa(lp1375
g1337
a(lp1376
S'You'
p1377
aS'know'
p1378
aaa(lp1379
g1337
a(lp1380
S'there'
p1381
aS'isnt'
p1382
aS'really'
p1383
aS'any'
p1384
aS'girl'
p1385
aS'farriers'
p1386
aS'around'
p1387
aS'anywhere'
p1388
aaa(lp1389
g1337
a(lp1390
S'Theyre'
p1391
aS'really'
p1392
aaa(lp1393
S'LENORE'
p1394
a(lp1395
S'farrier'
p1396
aaa(lp1397
S'LYNNE'
p1398
a(lp1399
S'th'
p1400
aS'Yeah'
p1401
aaa(lp1402
g1398
a(lp1403
S'farrier'
p1404
aS'is'
p1405
aS'what'
p1406
aS'theyre'
p1407
aS'called'
p1408
aaa(lp1409
g1398
a(lp1410
S'And'
p1411
aS'the'
p1412
ag1020
aaa(lp1413
g1398
a(lp1414
S'the'
p1415
aS'reason'
p1416
aS'they'
p1417
aS'were'
p1418
aS'showing'
p1419
aS'us'
p1420
aS'this'
p1421
aS'at'
p1422
aS'college'
p1423
aaa(lp1424
g1398
a(lp1425
S'was'
p1426
aS'just'
p1427
aaa(lp1428
g1398
a(lp1429
S'to'
p1430
aS'get'
p1431
aS'us'
p1432
aaa(lp1433
g1398
a(lp1434
S'to'
p1435
aS'know'
p1436
aS'if'
p1437
aS'our'
p1438
aS'trimmer'
p1439
aaa(lp1440
g1398
a(lp1441
S'and'
p1442
aS'shoer'
p1443
aS'were_s'
p1444
aS'doing'
p1445
aS'it'
p1446
aS'right'
p1447
aaa(lp1448
g1398
a(lp1449
S'and'
p1450
aaa(lp1451
g1398
a(lp1452
S'plus'
p1453
aS'the'
p1454
aS'knowledge'
p1455
aS'of'
p1456
aS'knowing'
p1457
aS'the'
p1458
aS'bones'
p1459
aS'and'
p1460
aS'ligaments'
p1461
aaa(lp1462
g1398
a(lp1463
S'which'
p1464
aS'we'
p1465
aaa(lp1466
g1398
a(lp1467
S'we'
p1468
aS'had'
p1469
aS'it'
p1470
aS'in'
p1471
aS'another'
p1472
aS'class'
p1473
aS'too'
p1474
aaa(lp1475
g1398
a(lp1476
S'we'
p1477
aaa(lp1478
g1398
a(lp1479
S'that'
p1480
aS'was'
p1481
aS'kind'
p1482
aS'of'
p1483
ag213
aS'double'
p1484
aS'thing'
p1485
aS'that'
p1486
aaa(lp1487
g1398
a(lp1488
S'we'
p1489
aS'had'
p1490
aS'in'
p1491
aaa(lp1492
g1398
a(lp1493
S'in'
p1494
aS'another'
p1495
aS'class'
p1496
aaa(lp1497
g1398
a(lp1498
S'so'
p1499
aS'it'
p1500
aS'was'
p1501
aS'kinda'
p1502
aS'review'
p1503
aS'for'
p1504
aS'us'
p1505
aaa(lp1506
g1398
a(lp1507
S'well'
p1508
aS'it'
p1509
aS'was'
p1510
ag213
aS'review'
p1511
aS'for'
p1512
aS'some'
p1513
aS'people'
p1514
aaa(lp1515
g1398
a(lp1516
S'depend'
p1517
aS'on'
p1518
aS'what'
p1519
aS'time'
p1520
aS'of'
p1521
aS'the'
p1522
aS'year'
p1523
aS'you'
p1524
aS'took'
p1525
aS'it'
p1526
aaa(lp1527
g1398
a(lp1528
S'You'
p1529
aS'know'
p1530
aaa(lp1531
g1398
a(lp1532
S'if'
p1533
aS'it'
p1534
aS'was'
p1535
ag213
aS'review'
p1536
aS'or'
p1537
aS'not'
p1538
aaa(lp1539
g1398
a(lp1540
S'But'
p1541
aaa(lp1542
g1398
a(lp1543
S'anyway'
p1544
aaa(lp1545
g1398
a(lp1546
S'um'
p1547
aaa(lp1548
g1398
a(lp1549
S'PARP'
p1550
aS'what'
p1551
aS'was'
p1552
ag100
aS'gonna'
p1553
aS'say'
p1554
aaa(lp1555
g1398
a(lp1556
g100
aS'forgot'
p1557
aS'what'
p1558
ag100
aS'was'
p1559
aS'think'
p1560
aaa(lp1561
S'LENORE'
p1562
a(lp1563
S'You'
p1564
aS'said'
p1565
aS'you'
p1566
aS'never'
p1567
aS'made'
p1568
aS'the'
p1569
aS'horseshoes'
p1570
aaa(lp1571
S'LYNNE'
p1572
a(lp1573
S'gonna'
p1574
aS'say'
p1575
aS'PPAR'
p1576
aaa(lp1577
S'LENORE'
p1578
a(lp1579
S'but'
p1580
aaa(lp1581
S'LYNNE'
p1582
a(lp1583
S'Well'
p1584
aaa(lp1585
g1582
a(lp1586
S'w'
p1587
aS'um'
p1588
aaa(lp1589
g1582
a(lp1590
S'when'
p1591
aS'we'
p1592
aS'put'
p1593
aS'em'
p1594
aS'on'
p1595
ag213
aS'horses'
p1596
aS'hoof'
p1597
aaa(lp1598
g1582
a(lp1599
S'all'
p1600
aS'we'
p1601
aS'do'
p1602
aaa(lp1603
g1582
a(lp1604
S'theyre'
p1605
aS'already'
p1606
aS'made'
p1607
aaa(lp1608
g1582
a(lp1609
S'theyre'
p1610
aS'round'
p1611
aaa(lp1612
g1582
a(lp1613
S'we'
p1614
aS'pick'
p1615
aS'out'
p1616
ag213
aS'size'
p1617
aaa(lp1618
g1582
a(lp1619
S'you'
p1620
aS'know'
p1621
aS'wed'
p1622
aaa(lp1623
g1582
a(lp1624
S'like'
p1625
aS'look'
p1626
aS'at'
p1627
aS'the'
p1628
aS'horses'
p1629
aS'hoof'
p1630
aaa(lp1631
g1582
a(lp1632
S'and'
p1633
aS'say'
p1634
aaa(lp1635
g1582
a(lp1636
S'okay'
p1637
aaa(lp1638
g1582
a(lp1639
S'this'
p1640
aS'is'
p1641
ag213
aS'doubleaught'
p1642
aaa(lp1643
g1582
a(lp1644
S'this'
p1645
aS'is'
p1646
aS'an'
p1647
aS'aught'
p1648
aaa(lp1649
g1582
a(lp1650
S'this'
p1651
aS'is'
p1652
aaa(lp1653
g1582
a(lp1654
S'you'
p1655
aS'know'
p1656
aaa(lp1657
g1582
a(lp1658
S'what'
p1659
aS's'
p1660
aaa(lp1661
g1582
a(lp1662
S'what'
p1663
aS'size'
p1664
aaa(lp1665
g1582
a(lp1666
S'and'
p1667
aS'doubleaught'
p1668
aS'and'
p1669
aS'aught'
p1670
aaa(lp1671
g1582
a(lp1672
S'are'
p1673
aS'the'
p1674
aS'ones'
p1675
aS'that'
p1676
aS'are'
p1677
aS'most'
p1678
aS'popular'
p1679
aaa(lp1680
g1582
a(lp1681
S'For'
p1682
aaa(lp1683
g1582
a(lp1684
S'you'
p1685
aS'know'
p1686
aaa(lp1687
g1582
a(lp1688
S'the'
p1689
aS'light'
p1690
aS'horse'
p1691
aaa(lp1692
g1582
a(lp1693
S'You'
p1694
aS'know'
p1695
aaa(lp1696
g1582
a(lp1697
g100
aS'mean'
p1698
aaa(lp1699
g1582
a(lp1700
S'you'
p1701
aS'get'
p1702
aS'into'
p1703
aS'the'
p1704
aS'big'
p1705
aS'horses'
p1706
aaa(lp1707
g1582
a(lp1708
S'the'
p1709
aaa(lp1710
g1582
a(lp1711
S'like'
p1712
aS'the'
p1713
aS'Clydesdales'
p1714
aaa(lp1715
g1582
a(lp1716
S'Shires'
p1717
aaa(lp1718
g1582
a(lp1719
S'thats'
p1720
ag213
aS'd'
p1721
aaa(lp1722
g1582
a(lp1723
g213
aS'whole'
p1724
aS'different'
p1725
aS'thing'
p1726
aaa(lp1727
g1582
a(lp1728
S'Or'
p1729
aS'ponies'
p1730
aaa(lp1731
g1582
a(lp1732
S'thats'
p1733
ag213
aS'whole'
p1734
aS'different'
p1735
aS'thing'
p1736
aaa(lp1737
g1582
a(lp1738
S'But'
p1739
aS'were'
p1740
aS'talking'
p1741
aS'just'
p1742
aS'the'
p1743
aS'regular'
p1744
aaa(lp1745
g1582
a(lp1746
S'light'
p1747
aS'horses'
p1748
aS'you'
p1749
aS'know'
p1750
aaa(lp1751
g1582
a(lp1752
S'And'
p1753
aaa(lp1754
g1582
a(lp1755
S'aught'
p1756
aS'and'
p1757
aS'aught'
p1758
aaa(lp1759
g1582
a(lp1760
g167
aS'uh'
p1761
ag167
aS'aught'
p1762
aaa(lp1763
g1582
a(lp1764
S'and'
p1765
aS'doubleaught'
p1766
aaa(lp1767
g1582
a(lp1768
S'are'
p1769
aS'the'
p1770
aS'two'
p1771
aS'sizes'
p1772
aaa(lp1773
g1582
a(lp1774
S'Well'
p1775
aS'anyway'
p1776
aaa(lp1777
g1582
a(lp1778
S'you'
p1779
aS'go'
p1780
aS'get'
p1781
aS'your'
p1782
aaa(lp1783
g1582
a(lp1784
S'Okay'
p1785
aaa(lp1786
g1582
a(lp1787
S'this'
p1788
aS'is'
p1789
aS'after'
p1790
aS'you'
p1791
aS'trimmed'
p1792
aS'em'
p1793
aaa(lp1794
g1582
a(lp1795
S'And'
p1796
aS'you'
p1797
aS'go'
p1798
aS'get'
p1799
aS'your'
p1800
aS'shoe'
p1801
aaa(lp1802
g1582
a(lp1803
S'Its'
p1804
aS'already'
p1805
aS'made'
p1806
aaa(lp1807
g1582
a(lp1808
S'Its'
p1809
aS'already'
p1810
aS'round'
p1811
aaa(lp1812
g1582
a(lp1813
S'You'
p1814
aS'pick'
p1815
aS'out'
p1816
aS'your'
p1817
aS'size'
p1818
aaa(lp1819
g1582
a(lp1820
S'_You'
p1821
aS'go'
p1822
aS'look'
p1823
aaa(lp1824
g1582
a(lp1825
S'and'
p1826
aS'every'
p1827
aS'horses'
p1828
aS'hoof'
p1829
aS'is'
p1830
aS'shaped'
p1831
aS'different'
p1832
aaa(lp1833
g1582
a(lp1834
S'It'
p1835
aS'doesnt'
p1836
aS'matter'
p1837
aaa(lp1838
g1582
a(lp1839
S'every'
p1840
aS'horse'
p1841
aS'is'
p1842
aS'gonna'
p1843
aS'have'
p1844
ag213
aS'little'
p1845
aS'different'
p1846
aS'shape'
p1847
aaa(lp1848
g1582
a(lp1849
S'And'
p1850
aS'so'
p1851
aS'what'
p1852
aS'you'
p1853
aS'have'
p1854
aS'to'
p1855
aS'do'
p1856
aaa(lp1857
S'LENORE'
p1858
a(lp1859
S'So'
p1860
aS'every'
p1861
aaa(lp1862
g1858
a(lp1863
S'every'
p1864
aS'uh'
p1865
aaa(lp1866
g1858
a(lp1867
S'horseshoe'
p1868
aS'is'
p1869
aS'made'
p1870
aaa(lp1871
g1858
a(lp1872
S'custommade'
p1873
aS'for'
p1874
aS'the'
p1875
aS'horse'
p1876
aS'then'
p1877
aaa(lp1878
S'LYNNE'
p1879
a(lp1880
S'No'
p1881
aS'no'
p1882
aaa(lp1883
g1879
a(lp1884
S'No'
p1885
aaa(lp1886
g1879
a(lp1887
S'What'
p1888
aaa(lp1889
g1879
a(lp1890
S'What'
p1891
aS'we'
p1892
aS'do'
p1893
aaa(lp1894
g1879
a(lp1895
S'then'
p1896
aS'thats'
p1897
aS'thats'
p1898
aS'where'
p1899
aS'the'
p1900
aS'ferrier'
p1901
aS'comes'
p1902
aS'in'
p1903
aaa(lp1904
g1879
a(lp1905
S'Every'
p1906
aS'shoe'
p1907
aaa(lp1908
g1879
a(lp1909
S'is'
p1910
aS'like'
p1911
aaa(lp1912
g1879
a(lp1913
S'you'
p1914
aS'get'
p1915
aS'order'
p1916
aaa(lp1917
g1879
a(lp1918
S'you'
p1919
aS'know'
p1920
aaa(lp1921
g1879
a(lp1922
g100
aS'would'
p1923
aS'like'
p1924
ag213
ag331
aS'case'
p1925
aS'of'
p1926
aS'doubleaught'
p1927
aS'shoes'
p1928
aaa(lp1929
g1879
a(lp1930
S'Youd'
p1931
aS'get'
p1932
aaa(lp1933
g1879
a(lp1934
S'The'
p1935
aS'ferrier'
p1936
aS'gets'
p1937
aS'em'
p1938
aaa(lp1939
g1879
a(lp1940
S'You'
p1941
aS'know'
p1942
aaa(lp1943
g1879
a(lp1944
S'thats'
p1945
aS'the'
p1946
aS'way'
p1947
aS'it'
p1948
aS'goes'
p1949
aaa(lp1950
g1879
a(lp1951
S'And'
p1952
aS'then'
p1953
aaa(lp1954
g1879
a(lp1955
S'_Our'
p1956
aS'job'
p1957
aaa(lp1958
g1879
a(lp1959
S'is'
p1960
aS'to'
p1961
aS'shape'
p1962
aS'the'
p1963
aS'shoe'
p1964
aaa(lp1965
g1879
a(lp1966
S'to'
p1967
aS'the'
p1968
aS'horses'
p1969
aS'foot'
p1970
aaa(lp1971
g1879
a(lp1972
S'And'
p1973
aS'that'
p1974
aaa(lp1975
g1879
a(lp1976
S'it'
p1977
ag1721
aS'it'
p1978
aS'sounds'
p1979
aS'easy'
p1980
aaa(lp1981
g1879
a(lp1982
S'but'
p1983
aS'its'
p1984
aS'really'
p1985
aS'hard'
p1986
aS'to'
p1987
aS'do'
p1988
aaa(lp1989
g1879
a(lp1990
g100
aS'mean'
p1991
aaa(lp1992
g1879
a(lp1993
S'some'
p1994
aS'of'
p1995
aS'em'
p1996
aS'you'
p1997
aS'have'
p1998
aS'to'
p1999
aaa(lp2000
g1879
a(lp2001
S'you'
p2002
aS'know'
p2003
aaa(lp2004
g1879
a(lp2005
S'like'
p2006
aS'say'
p2007
aaa(lp2008
g1879
a(lp2009
S'okay'
p2010
aaa(lp2011
g1879
a(lp2012
S'say'
p2013
aS'your'
p2014
aS'shoes'
p2015
aS'like'
p2016
aS'this'
p2017
aaa(lp2018
g1879
a(lp2019
S'and'
p2020
aS'your'
p2021
aS'horses'
p2022
aS'foot'
p2023
aS'is'
p2024
aS'just'
p2025
aS'really'
p2026
aS'wide'
p2027
aS'or'
p2028
aS'something'
p2029
aaa(lp2030
g1879
a(lp2031
S'Well'
p2032
aS'then'
p2033
aS'you'
p2034
aS'have'
p2035
aS'to'
p2036
aS'put'
p2037
aS'it'
p2038
aS'on'
p2039
aS'the'
p2040
aS'anvil'
p2041
aaa(lp2042
g1879
a(lp2043
S'and'
p2044
aS'get'
p2045
aS'the'
p2046
aS'shoe'
p2047
aS'stretched'
p2048
aS'out'
p2049
aaa(lp2050
g1879
a(lp2051
S'well'
p2052
aS'then'
p2053
aS'once'
p2054
aS'you'
p2055
aS'stretch'
p2056
aS'the'
p2057
aS'shoe'
p2058
aS'out'
p2059
aaa(lp2060
g1879
a(lp2061
S'well'
p2062
aS'then'
p2063
aaa(lp2064
g1879
a(lp2065
S'the'
p2066
aS'two'
p2067
aS'corners'
p2068
aaa(lp2069
g1879
a(lp2070
S'they'
p2071
aS'go'
p2072
aS'out'
p2073
aaa(lp2074
g1879
a(lp2075
S'too'
p2076
aaa(lp2077
g1879
a(lp2078
S'you'
p2079
aS'know'
p2080
aaa(lp2081
g1879
a(lp2082
S'okay'
p2083
aS'your'
p2084
aS'shoes'
p2085
aS'like'
p2086
aS'this'
p2087
aaa(lp2088
g1879
a(lp2089
S'You'
p2090
aS'stretch'
p2091
aS'this'
p2092
aS'out'
p2093
aaa(lp2094
g1879
a(lp2095
S'well'
p2096
aS'then'
p2097
aS'its'
p2098
aS'gonna'
p2099
aS'make'
p2100
aS'these'
p2101
aS'go'
p2102
aS'way'
p2103
aS'out'
p2104
aaa(lp2105
g1879
a(lp2106
S'too'
p2107
aaa(lp2108
g1879
a(lp2109
S'and'
p2110
aS'they'
p2111
aS'get'
p2112
aS'like'
p2113
aS'this'
p2114
aaa(lp2115
S'LENORE'
p2116
a(lp2117
S'Right'
p2118
aaa(lp2119
S'LYNNE'
p2120
a(lp2121
S'then'
p2122
aS'you'
p2123
aS'have'
p2124
aS'to'
p2125
aS'round'
p2126
aS'these'
p2127
aS'back'
p2128
aaa(lp2129
g2120
a(lp2130
S'you'
p2131
aS'know'
p2132
aaa(lp2133
g2120
a(lp2134
S'Its'
p2135
aS'just'
p2136
aaa(lp2137
g2120
a(lp2138
S'it'
p2139
ag1660
aS'it'
p2140
aS'sounds'
p2141
aS'easy'
p2142
aaa(lp2143
g2120
a(lp2144
S'but'
p2145
aS'its'
p2146
aS'really'
p2147
aS'hard'
p2148
aS'to'
p2149
aS'do'
p2150
aaa(lp2151
g2120
a(lp2152
S'and'
p2153
aS'then'
p2154
aaa(lp2155
g2120
a(lp2156
g100
aS'would'
p2157
aS'never'
p2158
aS'do'
p2159
aS'it'
p2160
aaa(lp2161
g2120
a(lp2162
S'cause'
p2163
aS'Id'
p2164
aS'never'
p2165
aS'trust'
p2166
aS'myself'
p2167
aS'to'
p2168
aS'do'
p2169
aS'it'
p2170
aaa(lp2171
g2120
a(lp2172
g100
aS'mean'
p2173
aS'we'
p2174
aS'had'
p2175
aS'to'
p2176
aS'do'
p2177
aS'it'
p2178
aaa(lp2179
S'LENORE'
p2180
a(lp2181
aa(lp2182
S'LYNNE'
p2183
a(lp2184
S'but'
p2185
aaa(lp2186
g2183
a(lp2187
S'its'
p2188
aS'just'
p2189
aS'that'
p2190
aS'people'
p2191
aS'would'
p2192
aS'volunteer'
p2193
aS'their'
p2194
aS'horses'
p2195
aS'to'
p2196
aS'the'
p2197
aS'college'
p2198
aaa(lp2199
g2183
a(lp2200
S'because'
p2201
aaa(lp2202
g2183
a(lp2203
S'it'
p2204
aS'costs'
p2205
aS'like'
p2206
aS'thirty'
p2207
aS'bucks'
p2208
aS'to'
p2209
aS'get'
p2210
aS'your'
p2211
aS'horse'
p2212
aS'shod'
p2213
aaa(lp2214
g2183
a(lp2215
g100
aS'mean'
p2216
aaa(lp2217
g2183
a(lp2218
S'thats'
p2219
aS'just'
p2220
aS'how'
p2221
aS'much'
p2222
aS'it'
p2223
aS'costs'
p2224
aaa(lp2225
g2183
a(lp2226
S'Could'
p2227
aS'you'
p2228
aS'imagine'
p2229
aS'all'
p2230
aS'those'
p2231
aS'horses'
p2232
aS'out'
p2233
aS'there'
p2234
aaa(lp2235
g2183
a(lp2236
S'if'
p2237
aS'we'
p2238
aS'had'
p2239
aS'em'
p2240
aS'all'
p2241
aS'shod'
p2242
aaa(lp2243
g2183
a(lp2244
S'thats'
p2245
aaa(lp2246
S'LENORE'
p2247
a(lp2248
S'How'
p2249
aS'many'
p2250
aS'have'
p2251
aS'you'
p2252
aS'got'
p2253
aaa(lp2254
S'LYNNE'
p2255
a(lp2256
S'thirty'
p2257
aS'bucks'
p2258
aaa(lp2259
g2255
a(lp2260
S'for'
p2261
aS'twenty'
p2262
aS'horses'
p2263
aaa(lp2264
S'LENORE'
p2265
a(lp2266
S'twenty'
p2267
aaa(lp2268
S'LYNNE'
p2269
a(lp2270
S'twentyeight'
p2271
aS'horses'
p2272
aaa(lp2273
g2269
a(lp2274
S'you'
p2275
aS'know'
p2276
aaa(lp2277
g2269
a(lp2278
g100
aS'mean'
p2279
aaa(lp2280
g2269
a(lp2281
S'Jesus'
p2282
aaa(lp2283
g2269
a(lp2284
S'that'
p2285
aS'would'
p2286
aS'be'
p2287
ag213
aS'th'
p2288
aS'nine'
p2289
aS'hundred'
p2290
aS'dollars'
p2291
aaa(lp2292
g2269
a(lp2293
S'SNAP'
p2294
aS'just'
p2295
aS'SNAP'
p2296
aS'like'
p2297
aS'that'
p2298
aaa(lp2299
g2269
a(lp2300
S'SM'
p2301
ag100
aS'mean'
p2302
aaa(lp2303
g2269
a(lp2304
S'could'
p2305
aS'you'
p2306
aS'imagine'
p2307
aS'SM'
p2308
aaa(lp2309
g2269
a(lp2310
S'So'
p2311
aaa(lp2312
g2269
a(lp2313
g1587
aS'you'
p2314
aS'know'
p2315
aaa(lp2316
g2269
a(lp2317
S'like'
p2318
aaa(lp2319
g2269
a(lp2320
g213
aS'lot'
p2321
aS'of'
p2322
aS'people'
p2323
aaa(lp2324
g2269
a(lp2325
S'that'
p2326
aS'have'
p2327
ag213
aS'lot'
p2328
aS'of'
p2329
aS'horses'
p2330
aS'and'
p2331
aS'stuff'
p2332
aaa(lp2333
g2269
a(lp2334
S'and'
p2335
aS'that'
p2336
aS'theyre'
p2337
aS'riding'
p2338
ag213
aS'lot'
p2339
aaa(lp2340
g2269
a(lp2341
S'theyll'
p2342
aS'just'
p2343
aaa(lp2344
g2269
a(lp2345
S'let'
p2346
aS'the'
p2347
aS'college'
p2348
aS'kids'
p2349
aS'do'
p2350
aS'em'
p2351
aaa(lp2352
g2269
a(lp2353
S'For'
p2354
aS'em'
p2355
aS'you'
p2356
aS'know'
p2357
aaa(lp2358
g2269
a(lp2359
S'Theyre'
p2360
aS'taking'
p2361
aS'the'
p2362
aS'risk'
p2363
aaa(lp2364
g2269
a(lp2365
S'of'
p2366
aS'having'
p2367
aS'their'
p2368
aS'horse'
p2369
aS'get'
p2370
aS'lame'
p2371
aaa(lp2372
g2269
a(lp2373
S'but'
p2374
aaa(lp2375
g2269
a(lp2376
S'It'
p2377
aS'really'
p2378
aS'never'
p2379
aS'happens'
p2380
aaa(lp2381
g2269
a(lp2382
S'cause'
p2383
aS'we'
p2384
aS'have'
p2385
aS'our'
p2386
ag1660
aS'instructor'
p2387
aS'right'
p2388
aS'there'
p2389
aaa(lp2390
g2269
a(lp2391
S'telling'
p2392
aS'us'
p2393
aaa(lp2394
g2269
a(lp2395
S'this'
p2396
aS'is'
p2397
aS'what'
p2398
aS'you'
p2399
aS'do'
p2400
aaa(lp2401
g2269
a(lp2402
S'And'
p2403
aS'its'
p2404
aS'not'
p2405
aS'like'
p2406
aaa(lp2407
g2269
a(lp2408
S'theres'
p2409
ag213
aS'person'
p2410
aS'thats'
p2411
aS'just'
p2412
aS'gung'
p2413
aS'ho'
p2414
aaa(lp2415
g2269
a(lp2416
S'and'
p2417
aS'goes'
p2418
aS'and'
p2419
aS'just'
p2420
aaa(lp2421
g2269
a(lp2422
S'trims'
p2423
aS'their'
p2424
aS'feet'
p2425
aaa(lp2426
g2269
a(lp2427
S'and'
p2428
aS'puts'
p2429
aS'the'
p2430
aS'shoe'
p2431
aS'on'
p2432
aaa(lp2433
g2269
a(lp2434
S'you'
p2435
aS'know'
p2436
aaa(lp2437
g2269
a(lp2438
S'you'
p2439
ag1721
aS'you'
p2440
ag1721
aS'you'
p2441
aS'cant'
p2442
aS'do'
p2443
aS'that'
p2444
aaa(lp2445
g2269
a(lp2446
S'And'
p2447
aS'so'
p2448
aS'we'
p2449
aS'have'
p2450
aS'our'
p2451
aS'instructor'
p2452
aS'right'
p2453
aS'there'
p2454
aaa(lp2455
g2269
a(lp2456
S'and'
p2457
aS'we'
p2458
aS'asked'
p2459
ag213
aS'million'
p2460
aS'questions'
p2461
aaa(lp2462
g2269
a(lp2463
S'all'
p2464
aS'the'
p2465
aS'time'
p2466
ag100
aS'mean'
p2467
aaa(lp2468
g2269
a(lp2469
S'he'
p2470
aS'e'
p2471
aaa(lp2472
g2269
a(lp2473
S'he'
p2474
aS'just'
p2475
aS'runs'
p2476
aS'around'
p2477
aaa(lp2478
g2269
a(lp2479
S'everywhere'
p2480
aaa(lp2481
g2269
a(lp2482
S'you'
p2483
aS'know'
p2484
aaa(lp2485
g2269
a(lp2486
S'so'
p2487
aS'its'
p2488
aaa(lp2489
g2269
a(lp2490
S'But'
p2491
aS'uh'
p2492
aaa(lp2493
g2269
a(lp2494
S'PPAR'
p2495
aS'What'
p2496
aS'was'
p2497
ag100
aS'gonna'
p2498
aS'say'
p2499
aS'PARP'
p2500
aaa(lp2501
g2269
a(lp2502
S'Oh'
p2503
aaa(lp2504
g2269
a(lp2505
S'and'
p2506
aS'its'
p2507
aS'really'
p2508
aS'tiring'
p2509
aS'though'
p2510
aaa(lp2511
g2269
a(lp2512
S'And'
p2513
aS'it'
p2514
aaa(lp2515
g2269
a(lp2516
S'you'
p2517
aS'know'
p2518
aS'like'
p2519
aaa(lp2520
g2269
a(lp2521
S'you'
p2522
aS'get'
p2523
aS'so'
p2524
aaa(lp2525
g2269
a(lp2526
S'Ive'
p2527
aS'only'
p2528
aS'done'
p2529
aS'like'
p2530
aaa(lp2531
g2269
a(lp2532
S'at'
p2533
aS'the'
p2534
aS'end'
p2535
aS'of'
p2536
aS'the'
p2537
aS'year'
p2538
aaa(lp2539
g2269
a(lp2540
S'now'
p2541
aS'see'
p2542
aaa(lp2543
g2269
a(lp2544
g100
aS'took'
p2545
aS'the'
p2546
aS'second'
p2547
aS'half'
p2548
aS'of'
p2549
aS'the'
p2550
aS'course'
p2551
aaa(lp2552
g2269
a(lp2553
S'And'
p2554
aaa(lp2555
g2269
a(lp2556
S'right'
p2557
aS'now'
p2558
aaa(lp2559
g2269
a(lp2560
S'Ive'
p2561
aS'probably'
p2562
aaa(lp2563
g2269
a(lp2564
S'only'
p2565
aS'shod'
p2566
aS'about'
p2567
aaa(lp2568
g2269
a(lp2569
S'five'
p2570
aS'horses'
p2571
aaa(lp2572
g2269
a(lp2573
S'Trimmed'
p2574
ag213
aS'lot'
p2575
aS'of'
p2576
aS'em'
p2577
aaa(lp2578
g2269
a(lp2579
S'And'
p2580
aS'you'
p2581
aS'know'
p2582
aS'what'
p2583
aS'we'
p2584
aS'start'
p2585
aS'out'
p2586
aS'with'
p2587
aaa(lp2588
g2269
a(lp2589
S'This'
p2590
aS'is'
p2591
aS'the'
p2592
aS'grossest'
p2593
aS'of'
p2594
aS'everything'
p2595
aaa(lp2596
S'LENORE'
p2597
a(lp2598
g167
aS'What'
p2599
ag167
aaa(lp2600
S'LYNNE'
p2601
a(lp2602
S'We'
p2603
aS'start'
p2604
aS'out'
p2605
aaa(lp2606
g2601
a(lp2607
S'with'
p2608
aaa(lp2609
g2601
a(lp2610
S'dead'
p2611
aS'horse'
p2612
aS'hooves'
p2613
aaa(lp2614
g2601
a(lp2615
g100
aS'mean'
p2616
aaa(lp2617
g2601
a(lp2618
S'you'
p2619
aS'know'
p2620
aaa(lp2621
g2601
a(lp2622
g167
aS'the'
p2623
ag167
aS'the'
p2624
aS'canneries'
p2625
aaa(lp2626
g2601
a(lp2627
S'you'
p2628
aS'know'
p2629
aS'and'
p2630
aS'stuff'
p2631
aS'you'
p2632
aS'know'
p2633
aaa(lp2634
g2601
a(lp2635
S'The'
p2636
aS'people'
p2637
aS'that'
p2638
aaa(lp2639
g2601
a(lp2640
S'that'
p2641
aaa(lp2642
g2601
a(lp2643
S'kill'
p2644
aS'the'
p2645
aS'horses'
p2646
aS'for'
p2647
aS'meat'
p2648
aS'and'
p2649
aS'stuff'
p2650
aaa(lp2651
g2601
a(lp2652
S'You'
p2653
aS'know'
p2654
aS'they'
p2655
aS'have'
p2656
aS'all'
p2657
aS'these'
p2658
aS'legs'
p2659
aS'and'
p2660
aS'stuff'
p2661
aaa(lp2662
g2601
a(lp2663
S'And'
p2664
aaa(lp2665
g2601
a(lp2666
g100
aS'dont'
p2667
aS'know'
p2668
aaa(lp2669
g2601
a(lp2670
S'everybody'
p2671
aaa(lp2672
S'LENORE'
p2673
a(lp2674
g100
aS'thought'
p2675
aS'they'
p2676
aS'used'
p2677
aS'the'
p2678
aS'the'
p2679
aS'horsehooves'
p2680
aS'in'
p2681
aS'for'
p2682
aS'gelatin'
p2683
aaa(lp2684
g2673
a(lp2685
S'Thats'
p2686
aS'not'
p2687
aS'so'
p2688
aaa(lp2689
S'LYNNE'
p2690
a(lp2691
S'HI'
p2692
aS'You'
p2693
aS'know'
p2694
aaa(lp2695
g2690
a(lp2696
g100
aS'think'
p2697
aS'they'
p2698
aS'do'
p2699
aS'HI'
p2700
aaa(lp2701
g2690
a(lp2702
g100
aS'think'
p2703
ag213
aS'lot'
p2704
aS'of'
p2705
aS'times'
p2706
aaa(lp2707
g2690
a(lp2708
S'but'
p2709
aaa(lp2710
g2690
a(lp2711
S'then'
p2712
aS'they'
p2713
aaa(lp2714
g2690
a(lp2715
S'they'
p2716
aS'probably'
p2717
aS'use'
p2718
aS'em'
p2719
aS'for'
p2720
aS'everything'
p2721
aaa(lp2722
g2690
a(lp2723
g100
aS'dont'
p2724
aS'know'
p2725
aS'what'
p2726
aS'all'
p2727
aS'they'
p2728
aS'use'
p2729
aS'em'
p2730
aS'for'
p2731
aaa(lp2732
g2690
a(lp2733
S'But'
p2734
aS'anyway'
p2735
aaa(lp2736
g2690
a(lp2737
S'we'
p2738
aS'get'
p2739
aS'these'
p2740
aS'horse'
p2741
aS'hooves'
p2742
aaa(lp2743
g2690
a(lp2744
S'from'
p2745
aS'this'
p2746
aS'one'
p2747
aS'cannery'
p2748
aaa(lp2749
g2690
a(lp2750
S'they'
p2751
aaa(lp2752
g2690
a(lp2753
S'they'
p2754
aS'have'
p2755
aS'to'
p2756
aS'go'
p2757
aaa(lp2758
g2690
a(lp2759
g213
aS'long'
p2760
aS'ways'
p2761
aS'to'
p2762
aS'go'
p2763
aS'get'
p2764
aS'em'
p2765
aaa(lp2766
g2690
a(lp2767
S'like'
p2768
aS'back'
p2769
aS'East'
p2770
aS'somewhere'
p2771
aaa(lp2772
g2690
a(lp2773
S'to'
p2774
aS'get'
p2775
aS'these'
p2776
aS'horse'
p2777
aS'hooves'
p2778
aaa(lp2779
g2690
a(lp2780
S'For'
p2781
aS'the'
p2782
aS'college'
p2783
aaa(lp2784
g2690
a(lp2785
S'They'
p2786
aS'go'
p2787
aS'back'
p2788
aS'East'
p2789
aaa(lp2790
g2690
a(lp2791
S'and'
p2792
aS'they'
p2793
aS'get'
p2794
aS'em'
p2795
aaa(lp2796
g2690
a(lp2797
S'and'
p2798
aS'they'
p2799
aS'freeze'
p2800
aS'em'
p2801
aS'you'
p2802
aS'know'
p2803
aaa(lp2804
g2690
a(lp2805
S'So'
p2806
aS'we'
p2807
aS'have'
p2808
aS'this'
p2809
aS'frozen'
p2810
aS'horse'
p2811
aS'hoof'
p2812
aaa(lp2813
g2690
a(lp2814
S'that'
p2815
aS'we'
p2816
aS'have'
p2817
aS'to'
p2818
aS'start'
p2819
aS'out'
p2820
aS'on'
p2821
aaa(lp2822
g2690
a(lp2823
S'cause'
p2824
aS'you'
p2825
aS'dont'
p2826
aS'want'
p2827
aS'to'
p2828
aS'cripple'
p2829
aS'up'
p2830
ag213
aS'really'
p2831
aS'good'
p2832
aS'horse'
p2833
aaa(lp2834
g2690
a(lp2835
S'and'
p2836
aS'like'
p2837
aaa(lp2838
g2690
a(lp2839
S'my'
p2840
aS'first'
p2841
aS'hoof'
p2842
aaa(lp2843
g2690
a(lp2844
S'that'
p2845
aS'horse'
p2846
aS'would'
p2847
aS'have'
p2848
aS'been'
p2849
aaa(lp2850
g2690
a(lp2851
S'lame'
p2852
aaa(lp2853
g2690
a(lp2854
S'like'
p2855
aS'crazy'
p2856
aaa(lp2857
g2690
a(lp2858
S'But'
p2859
aaa(lp2860
g2690
a(lp2861
S'it'
p2862
aS'was'
p2863
aS'just'
p2864
aaa(lp2865
g2690
a(lp2866
S'and'
p2867
aaa(lp2868
g2690
a(lp2869
S'oh'
p2870
aaa(lp2871
g2690
a(lp2872
S'God'
p2873
aaa(lp2874
g2690
a(lp2875
S'its'
p2876
aS'so'
p2877
aS'gross'
p2878
aaa(lp2879
g2690
a(lp2880
S'because'
p2881
aaa(lp2882
g2690
a(lp2883
S'sometimes'
p2884
aS'if'
p2885
aS'you'
p2886
aS'get'
p2887
aS'one'
p2888
aS'thats'
p2889
aS'been'
p2890
aS'thawed'
p2891
aS'out'
p2892
ag213
aS'little'
p2893
aS'bit'
p2894
aaa(lp2895
g2690
a(lp2896
S'they'
p2897
aS'start'
p2898
aS'really'
p2899
aS'stinking'
p2900
aS'and'
p2901
aS'stuff'
p2902
aaa(lp2903
g2690
a(lp2904
S'Oh'
p2905
aaa(lp2906
g2690
a(lp2907
S'its'
p2908
aS'the'
p2909
aS'grossest'
p2910
aS'thing'
p2911
aaa(lp2912
g2690
a(lp2913
S'Oh'
p2914
aaa(lp2915
g2690
a(lp2916
S'its'
p2917
aS'just'
p2918
aS'so'
p2919
aS'icky'
p2920
aaa(lp2921
g2690
a(lp2922
S'HI'
p2923
ag100
aS'mean'
p2924
aaa(lp2925
g2690
a(lp2926
S'you'
p2927
aS'have'
p2928
aS'this'
p2929
aS'HI'
p2930
aS'piece'
p2931
aS'of'
p2932
aS'horse'
p2933
aaa(lp2934
g2690
a(lp2935
S'HI'
p2936
ag100
aS'mean'
p2937
aS'this'
p2938
aS'leg'
p2939
aS'thats'
p2940
aS'HI'
p2941
aaa(lp2942
g2690
a(lp2943
S'oh'
p2944
aaa(lp2945
g2690
a(lp2946
S'its'
p2947
aS'just'
p2948
aS'gross'
p2949
aaa(lp2950
g2690
a(lp2951
S'And'
p2952
aS'like'
p2953
aS'in'
p2954
aS'some'
p2955
aS'of'
p2956
aS'em'
p2957
aaa(lp2958
g2690
a(lp2959
S'blood'
p2960
aS'will'
p2961
aS'spurt'
p2962
aS'out'
p2963
aaa(lp2964
g2690
a(lp2965
S'you'
p2966
aS'know'
p2967
aaa(lp2968
g2690
a(lp2969
S'and'
p2970
ag100
aS'mean'
p2971
aaa(lp2972
g2690
a(lp2973
S'oh'
p2974
aaa(lp2975
g2690
a(lp2976
S'Its'
p2977
aS'nothing'
p2978
aaa(lp2979
g2690
a(lp2980
S'SM'
p2981
aS'its'
p2982
aS'the'
p2983
aS'grossest'
p2984
aS'thing'
p2985
aS'SM'
p2986
aaa(lp2987
g2690
a(lp2988
S'And'
p2989
aS'thats'
p2990
aS'why'
p2991
aaa(lp2992
g2690
a(lp2993
S'thats'
p2994
aS'probably'
p2995
aS'why'
p2996
aS'they'
p2997
aS'have'
p2998
aS'to'
p2999
aS'make'
p3000
aS'that'
p3001
aS'class'
p3002
aS'mandatory'
p3003
aaa(lp3004
g2690
a(lp3005
S'because'
p3006
aS'at'
p3007
aS'the'
p3008
aS'beginning'
p3009
aS'of'
p3010
aS'the'
p3011
aS'year'
p3012
aaa(lp3013
g2690
a(lp3014
S'its'
p3015
aS'just'
p3016
aS'the'
p3017
aaa(lp3018
g2690
a(lp3019
S'its'
p3020
aS'the'
p3021
aS'pits'
p3022
aaa(lp3023
g2690
a(lp3024
S'But'
p3025
aS'once'
p3026
aS'you'
p3027
aS'get'
p3028
aS'into'
p3029
aS'it'
p3030
aaa(lp3031
g2690
a(lp3032
S'its'
p3033
aS'the'
p3034
aS'funnest'
p3035
aS'thing'
p3036
aS'and'
p3037
aaa(lp3038
g2690
a(lp3039
S'you'
p3040
aS'know'
p3041
aaa(lp3042
g2690
a(lp3043
S'its'
p3044
aS'really'
p3045
aS'interesting'
p3046
aaa(lp3047
g2690
a(lp3048
S'to'
p3049
aS'do'
p3050
aS'stuff'
p3051
aS'like'
p3052
aS'that'
p3053
aaa(lp3054
g2690
a(lp3055
S'But'
p3056
aaa(lp3057
g2690
a(lp3058
g100
aS'would'
p3059
aS'have'
p3060
aS'never'
p3061
aS'got'
p3062
aS'into'
p3063
aS'that'
p3064
aS'class'
p3065
aaa(lp3066
g2690
a(lp3067
S'if'
p3068
aaa(lp3069
g2690
a(lp3070
S'theres'
p3071
aS'no'
p3072
aS'way'
p3073
aaa(lp3074
g2690
a(lp3075
S'if'
p3076
ag100
aS'didnt'
p3077
aS'have'
p3078
aS'to'
p3079
aS'have'
p3080
aS'it'
p3081
aaa(lp3082
g2690
a(lp3083
S'theres'
p3084
aS'no'
p3085
aS'way'
p3086
aaa(lp3087
g2690
a(lp3088
g100
aS'mean'
p3089
aaa(lp3090
g2690
a(lp3091
g100
aS'heard'
p3092
aS'everybody'
p3093
aS'saying'
p3094
aS'um'
p3095
aaa(lp3096
g2690
a(lp3097
S'you'
p3098
aS'know'
p3099
aaa(lp3100
g2690
a(lp3101
S'like'
p3102
aS'the'
p3103
aS'people'
p3104
aS'that'
p3105
aS'took'
p3106
aS'the'
p3107
aS'class'
p3108
aS'before'
p3109
aaa(lp3110
g2690
a(lp3111
S'talking'
p3112
aS'about'
p3113
aaa(lp3114
g2690
a(lp3115
S'VOX'
p3116
aS'Oh'
p3117
aaa(lp3118
g2690
a(lp3119
S'you'
p3120
aS'have'
p3121
aS'to'
p3122
aS'do'
p3123
aS'this'
p3124
aaa(lp3125
g2690
a(lp3126
S'you'
p3127
aS'have'
p3128
aS'to'
p3129
aS'do'
p3130
aS'that'
p3131
aaa(lp3132
g2690
a(lp3133
S'theres'
p3134
aS'dead'
p3135
aS'horse'
p3136
aS'hooves'
p3137
aaa(lp3138
g2690
a(lp3139
S'you'
p3140
aS'know'
p3141
aS'you'
p3142
aS'gotta'
p3143
aaa(lp3144
g2690
a(lp3145
S'and'
p3146
aS'they'
p3147
aS'stink'
p3148
aS'VOX'
p3149
aaa(lp3150
g2690
a(lp3151
S'and'
p3152
aS'all'
p3153
aS'this'
p3154
aS'other'
p3155
aS'stuff'
p3156
aaa(lp3157
g2690
a(lp3158
S'and'
p3159
ag100
aS'was'
p3160
aS'just'
p3161
aS'going'
p3162
aaa(lp3163
g2690
a(lp3164
S'Q'
p3165
aS'oh'
p3166
aS'my'
p3167
aS'God'
p3168
aaa(lp3169
g2690
a(lp3170
S'Im'
p3171
aS'never'
p3172
aaa(lp3173
g2690
a(lp3174
g100
aS'dont'
p3175
aS'want'
p3176
aS'to'
p3177
aS'take'
p3178
aS'that'
p3179
aS'class'
p3180
aaa(lp3181
g2690
a(lp3182
S'so'
p3183
aS'maybe'
p3184
aS'Ill'
p3185
aS'wait'
p3186
aS'till'
p3187
aS'next'
p3188
aS'year'
p3189
ag3165
aaa(lp3190
g2690
a(lp3191
S'and'
p3192
aS'then'
p3193
ag100
aS'thought'
p3194
aaa(lp3195
g2690
a(lp3196
S'no'
p3197
aaa(lp3198
g2690
a(lp3199
S'Ill'
p3200
aS'get'
p3201
aS'it'
p3202
aS'out'
p3203
aS'of'
p3204
aS'the'
p3205
aS'way'
p3206
aS'now'
p3207
aaa(lp3208
g2690
a(lp3209
S'And'
p3210
aS'then'
p3211
aS'once'
p3212
ag100
aS'got'
p3213
aS'into'
p3214
aS'it'
p3215
aaa(lp3216
g2690
a(lp3217
S'geez'
p3218
aaa(lp3219
g2690
a(lp3220
g100
aS'wanna'
p3221
aS'take'
p3222
aS'the'
p3223
aS'second'
p3224
aS'half'
p3225
aS'of'
p3226
aS'it'
p3227
aaa(lp3228
g2690
a(lp3229
S'it'
p3230
aS'was'
p3231
aS'just'
p3232
aS'really'
p3233
aS'interesting'
p3234
aS'to'
p3235
aS'me'
p3236
aaa(lp3237
g2690
a(lp3238
S'you'
p3239
aS'know'
p3240
aaa(lp3241
g2690
a(lp3242
S'But'
p3243
aaa(lp3244
g2690
a(lp3245
S'at'
p3246
aS'first'
p3247
aS'it'
p3248
aS'was'
p3249
aS'kind'
p3250
aS'of'
p3251
ag213
aS'bummer'
p3252
aaa(lp3253
g2690
a(lp3254
S'But'
p3255
aaa(lp3256
g2690
a(lp3257
S'Im'
p3258
aS'glad'
p3259
ag100
aS'took'
p3260
aS'it'
p3261
aaa(lp3262
g2690
a(lp3263
S'Really'
p3264
aS'glad'
p3265
aaa(lp3266
g2690
a(lp3267
S'It'
p3268
aS'pays'
p3269
aS'off'
p3270
aaa(lp3271
g2690
a(lp3272
S'Especially'
p3273
aaa(lp3274
g2690
a(lp3275
S'_you'
p3276
aS'know'
p3277
aaa(lp3278
g2690
a(lp3279
S'twelve'
p3280
aS'bucks'
p3281
aaa(lp3282
g2690
a(lp3283
S'for'
p3284
ag213
aS'trim'
p3285
aaa(lp3286
g2690
a(lp3287
g100
aS'mean'
p3288
aS'thats'
p3289
aS'twelve'
p3290
aS'bucks'
p3291
aaa(lp3292
g2690
a(lp3293
S'every'
p3294
aS'time'
p3295
ag100
aS'can'
p3296
aS'go'
p3297
aS'out'
p3298
aaa(lp3299
g2690
a(lp3300
S'and'
p3301
aS'trim'
p3302
aS'my'
p3303
aS'own'
p3304
aS'horses'
p3305
aS'hooves'
p3306
aaa(lp3307
S'LENORE'
p3308
a(lp3309
S'Right'
p3310
aaa(lp3311
S'LYNNE'
p3312
a(lp3313
S'You'
p3314
aS'know'
p3315
aaa(lp3316
g3312
a(lp3317
S'and'
p3318
ag100
aS'wouldnt'
p3319
aS'trust'
p3320
aS'myself'
p3321
aS'to'
p3322
aS'do'
p3323
aS'it'
p3324
aaa(lp3325
g3312
a(lp3326
S'with'
p3327
aaa(lp3328
g3312
a(lp3329
g213
aS'horse'
p3330
aS'that'
p3331
ag100
aS'was'
p3332
aS'really'
p3333
aS'using'
p3334
ag213
aS'lot'
p3335
aaa(lp3336
g3312
a(lp3337
S'or'
p3338
aS'anything'
p3339
aaa(lp3340
g3312
a(lp3341
S'but'
p3342
aS'the'
p3343
aS'ones'
p3344
aS'that'
p3345
aS'are'
p3346
aS'standing'
p3347
aS'around'
p3348
aaa(lp3349
g3312
a(lp3350
S'thats'
p3351
aS'still'
p3352
aS'twelve'
p3353
aS'dollars'
p3354
aaa(lp3355
g3312
a(lp3356
S'you'
p3357
aS'know'
p3358
aaa(lp3359
g3312
a(lp3360
g100
aS'mean'
p3361
aS'whether'
p3362
aS'the'
p3363
aS'horse'
p3364
aS'being'
p3365
aS'used'
p3366
ag213
aS'lot'
p3367
aS'or'
p3368
aS'not'
p3369
aaa(lp3370
g3312
a(lp3371
S'thats'
p3372
aS'twelve'
p3373
aS'bucks'
p3374
aaa(lp3375
g3312
a(lp3376
S'and'
p3377
aaa(lp3378
g3312
a(lp3379
S'shoot'
p3380
aaa(lp3381
g3312
a(lp3382
g100
aS'can'
p3383
aS'do'
p3384
aS'those'
p3385
aaa(lp3386
g3312
a(lp3387
S'you'
p3388
aS'know'
p3389
aaa(lp3390
g3312
a(lp3391
S'But'
p3392
aaa(lp3393
g3312
a(lp3394
g100
aS'always'
p3395
aS'have'
p3396
aaa(lp3397
g3312
a(lp3398
S'anybody'
p3399
aaa(lp3400
g3312
a(lp3401
g100
aS'always'
p3402
aS'have'
p3403
aS'somebody'
p3404
aS'that'
p3405
aS'really'
p3406
aS'knows'
p3407
aS'what'
p3408
aS'theyre'
p3409
aS'doing'
p3410
aaa(lp3411
g3312
a(lp3412
S'for'
p3413
aS'the'
p3414
aS'horses'
p3415
aS'that'
p3416
aS'Im'
p3417
aS'really'
p3418
aS'really'
p3419
aS'using'
p3420
aaa(lp3421
g3312
a(lp3422
S'But'
p3423
aS'anyway'
p3424
aaa(lp3425
g3312
a(lp3426
g100
aS'wanna'
p3427
aS'wait'
p3428
aS'until'
p3429
aS'the'
p3430
aS'morning'
p3431
aaa(lp3432
g3312
a(lp3433
S'to'
p3434
aS'do'
p3435
aS'that'
p3436
aaa(lp3437
g3312
a(lp3438
S'because'
p3439
aaa(lp3440
g3312
a(lp3441
S'Its'
p3442
aS'just'
p3443
aaa(lp3444
g3312
a(lp3445
S'too'
p3446
aS'hot'
p3447
aS'in'
p3448
aS'the'
p3449
aS'afternoon'
p3450
aaa(lp3451
g3312
a(lp3452
S'to'
p3453
aS'try'
p3454
aS'to'
p3455
aS'sit'
p3456
aS'out'
p3457
aS'there'
p3458
aaa(lp3459
g3312
a(lp3460
g100
aS'mean'
p3461
aS'you'
p3462
aS'can'
p3463
aS'get'
p3464
aaa(lp3465
g3312
a(lp3466
S'just'
p3467
aaa(lp3468
g3312
a(lp3469
S'exhausted'
p3470
aaa(lp3471
g3312
a(lp3472
S'Anyway'
p3473
aaa(lp3474
g3312
a(lp3475
g100
aS'was'
p3476
aS'gonna'
p3477
aS'tell'
p3478
aS'you'
p3479
aS'about'
p3480
aS'that'
p3481
aaa(lp3482
g3312
a(lp3483
S'the'
p3484
aS'girl'
p3485
aaa(lp3486
g3312
a(lp3487
S'you'
p3488
aS'know'
p3489
aaa(lp3490
g3312
a(lp3491
S'there'
p3492
aS'isnt'
p3493
aS'mary'
p3494
aS'very'
p3495
aS'many'
p3496
aaa(lp3497
g3312
a(lp3498
S'ferrier'
p3499
aS'girls'
p3500
aS'you'
p3501
aS'know'
p3502
aaa(lp3503
g3312
a(lp3504
S'And'
p3505
aS'her'
p3506
aS'heart'
p3507
aaa(lp3508
S'LYNNE'
p3509
a(lp3510
S'That'
p3511
aS'do'
p3512
aS'this'
p3513
aaa(lp3514
g3509
a(lp3515
S'This'
p3516
aS'summer'
p3517
ag100
aS'met'
p3518
aS'one'
p3519
aaa(lp3520
g3509
a(lp3521
S'Jorgensens'
p3522
aaa(lp3523
g3509
a(lp3524
S'they'
p3525
aS'have'
p3526
aS'one'
p3527
aS'shoer'
p3528
aaa(lp3529
g3509
a(lp3530
S'that'
p3531
aS'comes'
p3532
aS'to'
p3533
aS'their'
p3534
aS'house'
p3535
aaa(lp3536
g3509
a(lp3537
S'all'
p3538
aS'the'
p3539
aS'time'
p3540
aaa(lp3541
g3509
a(lp3542
S'theyve'
p3543
aS'had'
p3544
aS'him'
p3545
aS'for'
p3546
aS'years'
p3547
aS'and'
p3548
aS'years'
p3549
aS'and'
p3550
aS'years'
p3551
aaa(lp3552
g3509
a(lp3553
S'And'
p3554
ag100
aS'guess'
p3555
aS'like'
p3556
aS'in'
p3557
aS'Minnesota'
p3558
aS'its'
p3559
aS'real'
p3560
aS'wet'
p3561
aaa(lp3562
g3509
a(lp3563
S'and'
p3564
aS'stuff'
p3565
aS'you'
p3566
aS'know'
p3567
aaa(lp3568
g3509
a(lp3569
S'So'
p3570
aS'like'
p3571
aaa(lp3572
g3509
a(lp3573
S'they'
p3574
aS'really'
p3575
aS'have'
p3576
aS'to'
p3577
aS'watch'
p3578
aS'their'
p3579
aS'shoes'
p3580
aaa(lp3581
g3509
a(lp3582
S'for'
p3583
aS'not'
p3584
aS'coming'
p3585
aS'off'
p3586
aaa(lp3587
g3509
a(lp3588
S'because'
p3589
aS'the'
p3590
aS'hoof'
p3591
aS'wall'
p3592
aaa(lp3593
g3509
a(lp3594
S'is'
p3595
aS'so'
p3596
aS'much'
p3597
aS'softer'
p3598
aaa(lp3599
g3509
a(lp3600
S'Its'
p3601
aS'like'
p3602
aaa(lp3603
g3509
a(lp3604
S'when'
p3605
aS'youre'
p3606
aS'down'
p3607
aS'there'
p3608
aaa(lp3609
g3509
a(lp3610
S'your'
p3611
aS'hands'
p3612
aS'are'
p3613
aS'softer'
p3614
aS'and'
p3615
aS'everything'
p3616
aS'you'
p3617
aS'know'
p3618
aaa(lp3619
g3509
a(lp3620
S'and'
p3621
aS'theyre'
p3622
aS'not'
p3623
aS'as'
p3624
aS'dry'
p3625
aS'or'
p3626
aS'anything'
p3627
aaa(lp3628
g3509
a(lp3629
S'When'
p3630
aS'you'
p3631
aS'get'
p3632
aS'back'
p3633
aS'here'
p3634
aaa(lp3635
g3509
a(lp3636
S'we'
p3637
aS'have'
p3638
aS'dry'
p3639
aS'hooves'
p3640
aaa(lp3641
g3509
a(lp3642
S'we'
p3643
aS'have'
p3644
aS'to'
p3645
aS'watch'
p3646
aS'out'
p3647
aS'for'
p3648
aS'like'
p3649
aS'uh'
p3650
aaa(lp3651
g3509
a(lp3652
S'like'
p3653
aS'the'
p3654
aS'hooves'
p3655
aS'being'
p3656
aS'too'
p3657
aS'dry'
p3658
aaa(lp3659
g3509
a(lp3660
S'we'
p3661
aS'have'
p3662
aS'to'
p3663
aS'put'
p3664
aS'ointment'
p3665
aS'on'
p3666
aS'em'
p3667
aS'and'
p3668
aS'stuff'
p3669
aaa(lp3670
g3509
a(lp3671
S'The'
p3672
aaa(lp3673
g3509
a(lp3674
S'Back'
p3675
aS'there'
p3676
aS'theyre'
p3677
aS'too'
p3678
aS'wet'
p3679
aaa(lp3680
g3509
a(lp3681
S'Not'
p3682
aS'this'
p3683
aS'time'
p3684
aS'of'
p3685
aS'the'
p3686
aS'year'
p3687
aaa(lp3688
g3509
a(lp3689
S'because'
p3690
aaa(lp3691
g3509
a(lp3692
S'you'
p3693
aS'know'
p3694
aaa(lp3695
g3509
a(lp3696
S'theyve'
p3697
aS'had'
p3698
ag213
aS'dry'
p3699
aS'year'
p3700
aaa(lp3701
g3509
a(lp3702
S'but'
p3703
aaa(lp3704
g3509
a(lp3705
S'usually'
p3706
aS'theyre'
p3707
aS'too'
p3708
aS'wet'
p3709
aaa(lp3710
g3509
a(lp3711
S'and'
p3712
aS'that'
p3713
aaa(lp3714
g3509
a(lp3715
S'that'
p3716
aS'shoe'
p3717
aS'can'
p3718
aS'just'
p3719
aS'pull'
p3720
aS'right'
p3721
aS'off'
p3722
aaa(lp3723
g3509
a(lp3724
S'because'
p3725
aS'its'
p3726
aS'just'
p3727
aaa(lp3728
g3509
a(lp3729
S'the'
p3730
aS'hoof'
p3731
aS'wall'
p3732
aS'is'
p3733
aS'so'
p3734
aS'soft'
p3735
aaa(lp3736
S'LENORE'
p3737
a(lp3738
S'Yeah'
p3739
aaa(lp3740
S'LYNNE'
p3741
a(lp3742
S'It'
p3743
aS'seems'
p3744
aS'weird'
p3745
aaa(lp3746
g3741
a(lp3747
S'that'
p3748
aS'thats'
p3749
aS'like'
p3750
aS'that'
p3751
aaa(lp3752
S'LENORE'
p3753
a(lp3754
g167
aaa(lp3755
S'LYNNE'
p3756
a(lp3757
S'you'
p3758
aS'know'
p3759
aaa(lp3760
g3756
a(lp3761
S'and'
p3762
ag100
aS'nei'
p3763
aaa(lp3764
g3756
a(lp3765
g100
aS'never'
p3766
aS'knew'
p3767
aS'that'
p3768
aaa(lp3769
g3756
a(lp3770
S'until'
p3771
ag100
aS'took'
p3772
aS'this'
p3773
aS'class'
p3774
aaa(lp3775
g3756
a(lp3776
S'either'
p3777
aaa(lp3778
g3756
a(lp3779
g100
aS'didnt'
p3780
aS'realize'
p3781
aS'that'
p3782
aS'in'
p3783
aaa(lp3784
g3756
a(lp3785
S'you'
p3786
aS'know'
p3787
aaa(lp3788
g3756
a(lp3789
S'if'
p3790
aS'you'
p3791
aS'think'
p3792
aS'about'
p3793
aS'it'
p3794
aaa(lp3795
g3756
a(lp3796
S'yeah'
p3797
aaa(lp3798
g3756
a(lp3799
S'if'
p3800
aS'it'
p3801
aS'rains'
p3802
ag213
aS'lot'
p3803
aaa(lp3804
g3756
a(lp3805
S'the'
p3806
aS'horse'
p3807
aS'is'
p3808
aS'always'
p3809
aS'wet'
p3810
aaa(lp3811
g3756
a(lp3812
S'And'
p3813
aS'its'
p3814
aS'always'
p3815
aS'moist'
p3816
aaa(lp3817
g3756
a(lp3818
S'and'
p3819
aS'its'
p3820
aS'always'
p3821
aS'on'
p3822
aS'something'
p3823
aS'moist'
p3824
aaa(lp3825
S'LENORE'
p3826
a(lp3827
S'Yeah'
p3828
aaa(lp3829
S'LYNNE'
p3830
a(lp3831
S'Sure'
p3832
aS'its'
p3833
aS'gonna'
p3834
aS'be'
p3835
aS'softer'
p3836
aaa(lp3837
g3830
a(lp3838
S'But'
p3839
ag100
aS'never'
p3840
aS'even'
p3841
aS'thought'
p3842
aS'about'
p3843
aS'that'
p3844
aS'until'
p3845
ag100
aS'took'
p3846
aS'this'
p3847
aS'class'
p3848
aaa(lp3849
g3830
a(lp3850
S'So'
p3851
aS'its'
p3852
aaa(lp3853
g3830
a(lp3854
S'you'
p3855
aS'know'
p3856
aS'thats'
p3857
aS'kinda'
p3858
aS'stuff'
p3859
aS'too'
p3860
aS'that'
p3861
aS'you'
p3862
aS'think'
p3863
aS'about'
p3864
aaa(lp3865
g3830
a(lp3866
S'But'
p3867
aS'anyway'
p3868
aaa(lp3869
g3830
a(lp3870
S'they'
p3871
aS'always'
p3872
aS'have'
p3873
aS'this'
p3874
aS'one'
p3875
aS'horseshoer'
p3876
aaa(lp3877
g3830
a(lp3878
S'and'
p3879
aaa(lp3880
g3830
a(lp3881
S'this'
p3882
aS'girls'
p3883
aS'been'
p3884
aS'in'
p3885
aS'this'
p3886
aS'ferrier'
p3887
aaa(lp3888
g3830
a(lp3889
S'uh'
p3890
aaa(lp3891
g3830
a(lp3892
S'shes'
p3893
aS'going'
p3894
aS'to'
p3895
aS'an'
p3896
aS'actual'
p3897
aS'ferrier'
p3898
aS'college'
p3899
aaa(lp3900
g3830
a(lp3901
S'They'
p3902
aS'have'
p3903
ag213
aS'lot'
p3904
aS'of'
p3905
aS'those'
p3906
aS'around'
p3907
aaa(lp3908
g3830
a(lp3909
g213
aS'lot'
p3910
aaa(lp3911
g3830
a(lp3912
S'And'
p3913
aS'shes'
p3914
aS'going'
p3915
aS'to'
p3916
aS'one'
p3917
aS'of'
p3918
aS'em'
p3919
aaa(lp3920
g3830
a(lp3921
S'and'
p3922
aS'shes'
p3923
aS'been'
p3924
aS'going'
p3925
aS'for'
p3926
aaa(lp3927
g3830
a(lp3928
S'like'
p3929
aS'nine'
p3930
aS'months'
p3931
aaa(lp3932
g3830
a(lp3933
S'to'
p3934
aS'this'
p3935
aS'one'
p3936
aaa(lp3937
g3830
a(lp3938
S'and'
p3939
aS'shes'
p3940
aS'still'
p3941
aS'got'
p3942
ag213
aS'lot'
p3943
aS'more'
p3944
aaa(lp3945
S'DORIS'
p3946
a(lp3947
g167
aS'Where'
p3948
aS'is'
p3949
aS'the'
p3950
aaa(lp3951
g3946
a(lp3952
S'uh'
p3953
ag167
aaa(lp3954
S'LYNNE'
p3955
a(lp3956
S'left'
p3957
aS'to'
p3958
aS'go'
p3959
aaa(lp3960
g3955
a(lp3961
S'What'
p3962
aaa(lp3963
S'DORIS'
p3964
a(lp3965
S'Where'
p3966
aS'is'
p3967
aS'the'
p3968
aS'XX'
p3969
aaa(lp3970
S'LYNNE'
p3971
a(lp3972
S'Oh'
p3973
aaa(lp3974
g3971
a(lp3975
S'Right'
p3976
aS'here'
p3977
aaa(lp3978
S'DORIS'
p3979
a(lp3980
S'Guess'
p3981
aS'Ill'
p3982
aS'put'
p3983
aS'it'
p3984
aS'on'
p3985
aaa(lp3986
g3979
a(lp3987
S'its'
p3988
aS'not'
p3989
aS'on'
p3990
aaa(lp3991
g3979
a(lp3992
S'XX'
p3993
aaa(lp3994
S'LYNNE'
p3995
a(lp3996
S'But'
p3997
aS'anyway'
p3998
aaa(lp3999
g3995
a(lp4000
S'She'
p4001
aS'has'
p4002
aaa(lp4003
g3995
a(lp4004
S'um'
p4005
aaa(lp4006
g3995
a(lp4007
S'she'
p4008
aaa(lp4009
g3995
a(lp4010
S'hes'
p4011
aS'like'
p4012
aS'taking'
p4013
aS'her'
p4014
aS'as'
p4015
ag213
aaa(lp4016
g3995
a(lp4017
S'you'
p4018
aS'know'
p4019
aaa(lp4020
g3995
a(lp4021
S'helping'
p4022
aS'her'
p4023
aS'out'
p4024
aaa(lp4025
g3995
a(lp4026
S'and'
p4027
aS'stuff'
p4028
aaa(lp4029
g3995
a(lp4030
S'you'
p4031
aS'know'
p4032
aaa(lp4033
g3995
a(lp4034
S'for'
p4035
aS'the'
p4036
aS'summer'
p4037
aaa(lp4038
g3995
a(lp4039
S'shes'
p4040
aS'been'
p4041
aS'working'
p4042
aS'with'
p4043
aS'him'
p4044
aS'all'
p4045
aS'summer'
p4046
aaa(lp4047
g3995
a(lp4048
S'And'
p4049
aaa(lp4050
g3995
a(lp4051
S'its'
p4052
aS'really'
p4053
aS'different'
p4054
aaa(lp4055
g3995
a(lp4056
S'to'
p4057
aS'see'
p4058
ag213
aS'girl'
p4059
aS'doing'
p4060
aS'it'
p4061
aaa(lp4062
g3995
a(lp4063
S'you'
p4064
aS'know'
p4065
aaa(lp4066
g3995
a(lp4067
S'you'
p4068
aS'just'
p4069
aS'dont'
p4070
aS'see'
p4071
aS'that'
p4072
aaa(lp4073
S'ENV'
p4074
a(lp4075
aa(lp4076
S'LYNNE'
p4077
a(lp4078
S'at'
p4079
aS'all'
p4080
aaa(lp4081
g4077
a(lp4082
S'ever'
p4083
aaa(lp4084
g4077
a(lp4085
S'Jorgensens'
p4086
aS'have'
p4087
ag213
aS'girl'
p4088
aaa(lp4089
g4077
a(lp4090
S'or'
p4091
ag213
aS'g'
p4092
aaa(lp4093
g4077
a(lp4094
S'you'
p4095
aS'know'
p4096
ag213
aS'guy'
p4097
aaa(lp4098
g4077
a(lp4099
S'theyve'
p4100
aS'had'
p4101
ag213
aS'guy'
p4102
aS'being'
p4103
ag213
aS'horseshoer'
p4104
aS'for'
p4105
aaa(lp4106
g4077
a(lp4107
g213
aS'long'
p4108
aS'time'
p4109
aS'you'
p4110
aS'know'
p4111
aaa(lp4112
g4077
a(lp4113
S'And'
p4114
aS'they'
p4115
aaa(lp4116
g4077
a(lp4117
S'are'
p4118
aS'um'
p4119
aaa(lp4120
g4077
a(lp4121
S'theres'
p4122
aS'this'
p4123
aS'girl'
p4124
aaa(lp4125
g4077
a(lp4126
S'thats'
p4127
aS'working'
p4128
aS'with'
p4129
aS'him'
p4130
aaa(lp4131
g4077
a(lp4132
S'for'
p4133
aS'the'
p4134
aS'summer'
p4135
aaa(lp4136
S'DORIS'
p4137
a(lp4138
S'Unhunh'
p4139
aaa(lp4140
S'LYNNE'
p4141
a(lp4142
S'And'
p4143
aS'shes'
p4144
aS'gonna'
p4145
aS'be'
p4146
ag213
aS'ferrier'
p4147
aaa(lp4148
S'DORIS'
p4149
a(lp4150
S'Yeah'
p4151
aaa(lp4152
S'LYNNE'
p4153
a(lp4154
g100
aS'couldnt'
p4155
aS'believe'
p4156
aS'it'
p4157
aaa(lp4158
g4153
a(lp4159
S'HI'
p4160
aS'And'
p4161
aS'shes'
p4162
aS'just'
p4163
aS'little'
p4164
aS'HI'
p4165
aaa(lp4166
g4153
a(lp4167
S'Shes'
p4168
ag213
aS'tiny'
p4169
aS'girl'
p4170
aaa(lp4171
g4153
a(lp4172
S'but'
p4173
aaa(lp4174
g4153
a(lp4175
S'boy'
p4176
ag100
aS'tell'
p4177
aS'you'
p4178
aaa(lp4179
g4153
a(lp4180
S'shes'
p4181
aS'got'
p4182
aS'arms'
p4183
aS'the'
p4184
aS'size'
p4185
aS'of'
p4186
aaa(lp4187
g4153
a(lp4188
S'theyre'
p4189
aS'huge'
p4190
aaa(lp4191
g4153
a(lp4192
S'but'
p4193
aS'she'
p4194
aS'must'
p4195
aS'only'
p4196
aaa(lp4197
g4153
a(lp4198
S'HI'
p4199
aS'What'
p4200
aS'is'
p4201
ag1020
aS'blowing'
p4202
aS'out'
p4203
aS'of'
p4204
aS'there'
p4205
aS'HI'
p4206
aaa(lp4207
S'DORIS'
p4208
a(lp4209
S'Well'
p4210
aaa(lp4211
g4208
a(lp4212
S'thats'
p4213
aS'what'
p4214
aS'happens'
p4215
aS'with'
p4216
aS'that'
p4217
aS'air'
p4218
aS'conditioner'
p4219
aaa(lp4220
g4208
a(lp4221
S'its'
p4222
aS'just'
p4223
aaa(lp4224
g4208
a(lp4225
S'it'
p4226
aS'gets'
p4227
aS'dust'
p4228
aS'accumulated'
p4229
aS'in'
p4230
aS'it'
p4231
aaa(lp4232
g4208
a(lp4233
S'see'
p4234
aS'its'
p4235
aS'all'
p4236
aS'over'
p4237
aS'the'
p4238
aS'TV'
p4239
aaa(lp4240
S'LYNNE'
p4241
a(lp4242
S'It'
p4243
aS'was'
p4244
aS'just'
p4245
aS'on'
p4246
aS'last'
p4247
aS'night'
p4248
aaa(lp4249
g4241
a(lp4250
S'how'
p4251
aS'does'
p4252
aS'it'
p4253
aS'get'
p4254
aS'dust'
p4255
aS'in'
p4256
aS'it'
p4257
aS'already'
p4258
aaa(lp4259
S'DORIS'
p4260
a(lp4261
S'Well'
p4262
aaa(lp4263
g4260
a(lp4264
g100
aaa(lp4265
g4260
a(lp4266
S'It'
p4267
aS'Mae'
p4268
aS'Lynne'
p4269
aaa(lp4270
g4260
a(lp4271
S'for'
p4272
aS'one'
p4273
aS'thing'
p4274
aS'the'
p4275
aS'filters'
p4276
aS'are'
p4277
aS'dirty'
p4278
aS'because'
p4279
aS'it'
p4280
aS'it'
p4281
aS'so'
p4282
aaa(lp4283
g4260
a(lp4284
S'been'
p4285
aS'so'
p4286
aS'dry'
p4287
aaa(lp4288
g4260
a(lp4289
S'And'
p4290
aS'the'
p4291
aaa(lp4292
g4260
a(lp4293
S'it'
p4294
aS'all'
p4295
aS'comes'
p4296
aS'acrost'
p4297
aaa(lp4298
g4260
a(lp4299
S'the'
p4300
aS'road'
p4301
aaa(lp4302
g4260
a(lp4303
S'you'
p4304
aS'know'
p4305
aaa(lp4306
g4260
a(lp4307
S'and'
p4308
aaa(lp4309
g4260
a(lp4310
S'and'
p4311
aS'then'
p4312
aS'it'
p4313
aS'builds'
p4314
aS'up'
p4315
aS'real'
p4316
aS'bad'
p4317
aS'with'
p4318
aaa(lp4319
g4260
a(lp4320
S'deposits'
p4321
aaa(lp4322
g4260
a(lp4323
S'out'
p4324
aS'of'
p4325
aS'the'
p4326
aS'water'
p4327
aaa(lp4328
S'LYNNE'
p4329
a(lp4330
S'Oh'
p4331
aaa(lp4332
S'DORIS'
p4333
a(lp4334
S'In'
p4335
aS'other'
p4336
aS'words'
p4337
ag100
aS'should'
p4338
aS'be'
p4339
aS'change'
p4340
aS'filters'
p4341
aaa(lp4342
S'LYNNE'
p4343
a(lp4344
S'Ugh'
p4345
aaa(lp4346
g4343
a(lp4347
S'God'
p4348
aaa(lp4349
S'DORIS'
p4350
a(lp4351
g100
aS'know'
p4352
aaa(lp4353
g4350
a(lp4354
S'It'
p4355
aS'wont'
p4356
aS'last'
p4357
aS'long'
p4358
aaa(lp4359
g4350
a(lp4360
S'But'
p4361
aaa(lp4362
g4350
a(lp4363
S'it'
p4364
aS'sure'
p4365
aS'does'
p4366
aS'make'
p4367
ag213
aS'mess'
p4368
aS'in'
p4369
aS'the'
p4370
aS'house'
p4371
aaa(lp4372
S'LYNNE'
p4373
a(lp4374
S'Yeah'
p4375
aaa(lp4376
g4373
a(lp4377
S'it'
p4378
aS'makes'
p4379
ag213
aS'mess'
p4380
aaa(lp4381
S'DORIS'
p4382
a(lp4383
g167
ag100
aS'need'
p4384
ag167
aS'new'
p4385
aS'filters'
p4386
aaa(lp4387
g4382
a(lp4388
S'XX'
p4389
aaa(lp4390
S'LYNNE'
p4391
a(lp4392
S'Anyway'
p4393
aaa(lp4394
g4391
a(lp4395
S'this'
p4396
aS'girl'
p4397
aS'must'
p4398
aS'only'
p4399
aS'weigh'
p4400
aS'like'
p4401
aaa(lp4402
g4391
a(lp4403
g213
aS'hundred'
p4404
aS'and'
p4405
aS'ten'
p4406
aS'pounds'
p4407
aaa(lp4408
g4391
a(lp4409
g100
aS'mean'
p4410
aaa(lp4411
g4391
a(lp4412
S'shes'
p4413
aS'just'
p4414
ag213
aS'little'
p4415
aS'shit'
p4416
aaa(lp4417
g4391
a(lp4418
S'and'
p4419
aS'shes'
p4420
aS'out'
p4421
aS'there'
p4422
aaa(lp4423
g4391
a(lp4424
S'and'
p4425
aS'shes'
p4426
aS'got'
p4427
aS'huge'
p4428
aS'arms'
p4429
aaa(lp4430
g4391
a(lp4431
g100
aS'mean'
p4432
aS'shes'
p4433
aS'in'
p4434
aS'shape'
p4435
aS'like'
p4436
aS'you'
p4437
aS'cant'
p4438
aS'believe'
p4439
aaa(lp4440
g4391
a(lp4441
S'Shes'
p4442
aS'out'
p4443
aS'there'
p4444
aS'just'
p4445
aaa(lp4446
g4391
a(lp4447
S'working'
p4448
aS'away'
p4449
aaa(lp4450
g4391
a(lp4451
S'And'
p4452
aaa(lp4453
g4391
a(lp4454
S'those'
p4455
aS'guys'
p4456
aS'are'
p4457
aS'so'
p4458
aS'used'
p4459
aS'to'
p4460
aS'it'
p4461
aaa(lp4462
g4391
a(lp4463
S'that'
p4464
aS'they'
p4465
aS'do'
p4466
aS'it'
p4467
aS'all'
p4468
aS'day'
p4469
aS'long'
p4470
aaa(lp4471
g4391
a(lp4472
S'you'
p4473
aS'know'
p4474
aaa(lp4475
S'LENORE'
p4476
a(lp4477
S'Mhm'
p4478
aaa(lp4479
S'LYNNE'
p4480
a(lp4481
S'And'
p4482
aS'that'
p4483
aS'doesnt'
p4484
aS'bother'
p4485
aS'em'
p4486
ag213
aS'bit'
p4487
aaa(lp4488
g4480
a(lp4489
S'to'
p4490
aS'just'
p4491
aS'go'
p4492
aS'out'
p4493
aS'there'
p4494
aS'and'
p4495
aaa(lp4496
g4480
a(lp4497
S'trim'
p4498
aS'and'
p4499
aS'trim'
p4500
aS'and'
p4501
aS'trim'
p4502
aaa(lp4503
g4480
a(lp4504
S'And'
p4505
aS'shoe'
p4506
aaa(lp4507
g4480
a(lp4508
S'and'
p4509
aS'everything'
p4510
aaa(lp4511
g4480
a(lp4512
S'but'
p4513
aaa(lp4514
g4480
a(lp4515
S'for'
p4516
aS'me'
p4517
aaa(lp4518
g4480
a(lp4519
S'thats'
p4520
aS'something'
p4521
aS'Im'
p4522
aS'not'
p4523
aS'used'
p4524
aS'to'
p4525
aaa(lp4526
g4480
a(lp4527
S'and'
p4528
aS'boy'
p4529
ag100
aS'tell'
p4530
aS'you'
p4531
aaa(lp4532
g4480
a(lp4533
S'you'
p4534
aS'just'
p4535
aaa(lp4536
g4480
a(lp4537
S'sweat'
p4538
aS'just'
p4539
aS'rolls'
p4540
aS'off'
p4541
aS'of'
p4542
aS'you'
p4543
aaa(lp4544
g4480
a(lp4545
g100
aS'just'
p4546
aaa(lp4547
g4480
a(lp4548
S'HI'
p4549
aS'its'
p4550
aS'HI'
p4551
aS'tiring'
p4552
aaa(lp4553
g4480
a(lp4554
S'The'
p4555
aS'very'
p4556
aaa(lp4557
g4480
a(lp4558
S'at'
p4559
aS'the'
p4560
aS'very'
p4561
aS'beginning'
p4562
aaa(lp4563
g4480
a(lp4564
S'when'
p4565
aS'we'
p4566
aS'first'
p4567
aS'started'
p4568
aS'doing'
p4569
aS'it'
p4570
aaa(lp4571
g4480
a(lp4572
S'we'
p4573
aS'only'
p4574
aS'did'
p4575
aS'like'
p4576
aS'one'
p4577
aS'hoof'
p4578
aaa(lp4579
g4480
a(lp4580
S'Then'
p4581
aS'we'
p4582
aS'moved'
p4583
aS'up'
p4584
aS'to'
p4585
aS'two'
p4586
aaa(lp4587
g4480
a(lp4588
S'Then'
p4589
aS'we'
p4590
aS'moved'
p4591
aS'up'
p4592
aS'to'
p4593
ag213
aS'full'
p4594
aS'horse'
p4595
aaa(lp4596
g4480
a(lp4597
S'you'
p4598
aS'know'
p4599
aaa(lp4600
g4480
a(lp4601
S'And'
p4602
aaa(lp4603
g4480
a(lp4604
S'We'
p4605
aS'were'
p4606
aS'just'
p4607
aS'slowly'
p4608
aS'got'
p4609
aS'in'
p4610
aS'shape'
p4611
aaa(lp4612
g4480
a(lp4613
S'doing'
p4614
aS'that'
p4615
aaa(lp4616
g4480
a(lp4617
S'you'
p4618
aS'know'
p4619
aaa(lp4620
g4480
a(lp4621
S'But'
p4622
aS'now'
p4623
aS'if'
p4624
ag100
aS'went'
p4625
aS'to'
p4626
aS'do'
p4627
aS'that'
p4628
aaa(lp4629
g4480
a(lp4630
S'Holy'
p4631
aS'smokes'
p4632
aaa(lp4633
g4480
a(lp4634
S'Id'
p4635
aS'never'
p4636
aS'be'
p4637
aS'able'
p4638
aS'to'
p4639
aS'handle'
p4640
aS'it'
p4641
aaa(lp4642
S'LENORE'
p4643
a(lp4644
S'Why'
p4645
aaa(lp4646
S'LYNNE'
p4647
a(lp4648
S'Its'
p4649
aS'just'
p4650
aaa(lp4651
g4647
a(lp4652
S'its'
p4653
ag213
aaa(lp4654
g4647
a(lp4655
S'its'
p4656
aS'hard'
p4657
aS'work'
p4658
aaa(lp4659
g4647
a(lp4660
S'It'
p4661
aS'is'
p4662
aS'really'
p4663
aS'hard'
p4664
aS'work'
p4665
aaa(lp4666
g4647
a(lp4667
S'Youre'
p4668
aS'bent'
p4669
aS'over'
p4670
aaa(lp4671
g4647
a(lp4672
S'and'
p4673
aS'its'
p4674
aaa(lp4675
g4647
a(lp4676
S'you'
p4677
aS'know'
p4678
aaa(lp4679
g4647
a(lp4680
S'it'
p4681
aS'takes'
p4682
aS'like'
p4683
aaa(lp4684
g4647
a(lp4685
g100
aS'dont'
p4686
aS'know'
p4687
aS'why'
p4688
aS'you'
p4689
aS'sweat'
p4690
aS'so'
p4691
aS'bad'
p4692
aS'doing'
p4693
aS'it'
p4694
aS'either'
p4695
aaa(lp4696
g4647
a(lp4697
S'but'
p4698
aS'you'
p4699
aS'just'
p4700
aaa(lp4701
g4647
a(lp4702
S'oh'
p4703
aaa(lp4704
g4647
a(lp4705
S'its'
p4706
aS'just'
p4707
aaa(lp4708
g4647
a(lp4709
S'its'
p4710
aS'just'
p4711
aS'hard'
p4712
aS'hard'
p4713
aS'work'
p4714
aaa(lp4715
g4647
a(lp4716
S'Its'
p4717
aaa(lp4718
g4647
a(lp4719
S'it'
p4720
aS'doesnt'
p4721
aS'seem'
p4722
aS'like'
p4723
aS'it'
p4724
aS'would'
p4725
aS'be'
p4726
aaa(lp4727
g4647
a(lp4728
S'but'
p4729
aaa(lp4730
g4647
a(lp4731
S'it'
p4732
aS'is'
p4733
aaa(lp4734
g4647
a(lp4735
S'Its'
p4736
aS'really'
p4737
aS'takes'
p4738
ag213
aS'lot'
p4739
aS'of'
p4740
aS'muscles'
p4741
aS'to'
p4742
aS'do'
p4743
aS'it'
p4744
aS'too'
p4745
aaa(lp4746
g4647
a(lp4747
g100
aS'mean'
p4748
ag213
aS'lot'
p4749
aaa(lp4750
g4647
a(lp4751
S'Those'
p4752
aaa(lp4753
g4647
a(lp4754
S'Its'
p4755
aS'hard'
p4756
aaa(lp4757
S'LENORE'
p4758
a(lp4759
g167
aS'You'
p4760
aS'dont'
p4761
ag167
aS'get'
p4762
aS'kicked'
p4763
ag213
aS'lot'
p4764
aaa(lp4765
S'LYNNE'
p4766
a(lp4767
S'Ive'
p4768
aS'never'
p4769
aS'been'
p4770
aS'kicked'
p4771
aaa(lp4772
g4766
a(lp4773
S'ever'
p4774
aaa(lp4775
g4766
a(lp4776
S'But'
p4777
aS'like'
p4778
aaa(lp4779
g4766
a(lp4780
S'it'
p4781
aS'those'
p4782
aS'college'
p4783
aS'h'
p4784
aS'is'
p4785
aS'course'
p4786
aaa(lp4787
g4766
a(lp4788
S'you'
p4789
aS'know'
p4790
aaa(lp4791
g4766
a(lp4792
S'like'
p4793
ag100
aS'was'
p4794
aS'talking'
p4795
aaa(lp4796
g4766
a(lp4797
S'our'
p4798
aS'horses'
p4799
aS'are'
p4800
ag213
aS'little'
p4801
aS'better'
p4802
aS'than'
p4803
aaa(lp4804
g4766
a(lp4805
S'most'
p4806
aS'peoples'
p4807
aS'horse'
p4808
aaa(lp4809
g4766
a(lp4810
S'cause'
p4811
aS'theyve'
p4812
aS'been'
p4813
aS'around'
p4814
aS'people'
p4815
ag213
aS'lot'
p4816
aaa(lp4817
g4766
a(lp4818
S'And'
p4819
aS'they'
p4820
aaa(lp4821
g4766
a(lp4822
S'they'
p4823
aS'dont'
p4824
aS'get'
p4825
aS'by'
p4826
aS'with'
p4827
aS'stuff'
p4828
aaa(lp4829
g4766
a(lp4830
g100
aS'mean'
p4831
aaa(lp4832
g4766
a(lp4833
S'we'
p4834
aS'do'
p4835
aS'get'
p4836
aS'mad'
p4837
aS'at'
p4838
aS'our'
p4839
aS'horses'
p4840
aS'for'
p4841
aaa(lp4842
g4766
a(lp4843
S'you'
p4844
aS'know'
p4845
aaa(lp4846
g4766
a(lp4847
S'whatever'
p4848
aS'they'
p4849
aS'do'
p4850
aS'wrong'
p4851
aaa(lp4852
g4766
a(lp4853
S'we'
p4854
aS'do'
p4855
aS'get'
p4856
aS'mad'
p4857
aS'at'
p4858
aS'em'
p4859
aaa(lp4860
g4766
a(lp4861
S'like'
p4862
ag100
aS'noticed'
p4863
aaa(lp4864
g4766
a(lp4865
S'horses'
p4866
aS'at'
p4867
aS'college'
p4868
aaa(lp4869
g4766
a(lp4870
S'they'
p4871
aS'just'
p4872
aS'havent'
p4873
aS'been'
p4874
aS'disciplined'
p4875
aS'enough'
p4876
aaa(lp4877
g4766
a(lp4878
S'and'
p4879
aS'theyre'
p4880
aS'just'
p4881
aaa(lp4882
g4766
a(lp4883
S'its'
p4884
aS'like'
p4885
ag213
aS'kid'
p4886
aaa(lp4887
g4766
a(lp4888
S'theyre'
p4889
aS'just'
p4890
aaa(lp4891
g4766
a(lp4892
S'are'
p4893
aS'ornery'
p4894
aaa(lp4895
g4766
a(lp4896
S'you'
p4897
aS'know'
p4898
aaa(lp4899
g4766
a(lp4900
S'And'
p4901
aS'like'
p4902
aaa(lp4903
g4766
a(lp4904
S'theyll'
p4905
aS'move'
p4906
aS'around'
p4907
aaa(lp4908
g4766
a(lp4909
S'and'
p4910
aaa(lp4911
g4766
a(lp4912
S'kinda'
p4913
aS'be'
p4914
aS'ornery'
p4915
aS'about'
p4916
aS'half'
p4917
aS'way'
p4918
aaa(lp4919
g4766
a(lp4920
S'but'
p4921
aS'not'
p4922
aS'not'
p4923
aS'too'
p4924
aS'bad'
p4925
aaa(lp4926
g4766
a(lp4927
S'Ive'
p4928
aS'never'
p4929
aS'been'
p4930
aS'kicked'
p4931
aS'doing'
p4932
aS'it'
p4933
aS'at'
p4934
aS'all'
p4935
aaa(lp4936
g4766
a(lp4937
S'And'
p4938
aS'thats'
p4939
aS'another'
p4940
aS'thing'
p4941
aS'we'
p4942
aS'had'
p4943
aS'to'
p4944
aS'learn'
p4945
aS'in'
p4946
aS'the'
p4947
aS'class'
p4948
aS'you'
p4949
aS'know'
p4950
aaa(lp4951
g4766
a(lp4952
S'just'
p4953
aS'had'
p4954
aS'to'
p4955
aS'learn'
p4956
aS'our'
p4957
aS'safety'
p4958
aS'of'
p4959
aaa(lp4960
g4766
a(lp4961
S'where'
p4962
aS'to'
p4963
aS'stand'
p4964
aaa(lp4965
g4766
a(lp4966
S'and'
p4967
aS'how'
p4968
aS'to'
p4969
aS'stand'
p4970
aaa(lp4971
g4766
a(lp4972
S'You'
p4973
aS'have'
p4974
aS'to'
p4975
aS'stand'
p4976
aS'like'
p4977
aS'these'
p4978
aS'certain'
p4979
aS'ways'
p4980
aaa(lp4981
g4766
a(lp4982
S'and'
p4983
aaa(lp4984
g4766
a(lp4985
S'oh'
p4986
aS'and'
p4987
aS'its'
p4988
ag213
aS'killer'
p4989
aS'on'
p4990
aS'your'
p4991
aS'back'
p4992
aaa(lp4993
g4766
a(lp4994
S'cause'
p4995
aS'youre'
p4996
aS'standing'
p4997
aS'like'
p4998
aS'this'
p4999
aaa(lp5000
g4766
a(lp5001
S'Oh'
p5002
aS'Im'
p5003
aS'sorry'
p5004
aS'Berry'
p5005
aaa(lp5006
g4766
a(lp5007
S'Youre'
p5008
aS'standing'
p5009
aaa(lp5010
S'ENV'
p5011
a(lp5012
aa(lp5013
S'LYNNE'
p5014
a(lp5015
S'Whoops'
p5016
aaa(lp5017
g5014
a(lp5018
S'Youre'
p5019
aS'standing'
p5020
aS'like'
p5021
aS'this'
p5022
aS'you'
p5023
aS'know'
p5024
aaa(lp5025
g5014
a(lp5026
S'And'
p5027
aS'like'
p5028
aaa(lp5029
g5014
a(lp5030
S'when'
p5031
aS'youre'
p5032
aS'in'
p5033
aS'the'
p5034
aS'back'
p5035
aaa(lp5036
g5014
a(lp5037
S'the'
p5038
aS'horses'
p5039
aS'hoof'
p5040
aS'_lays'
p5041
aS'like'
p5042
aS'this'
p5043
aS'right'
p5044
aS'over'
p5045
aS'you'
p5046
aaa(lp5047
g5014
a(lp5048
S'and'
p5049
aS'youre'
p5050
aaa(lp5051
g5014
a(lp5052
S'like'
p5053
aS'this'
p5054
aS'working'
p5055
aaa(lp5056
g5014
a(lp5057
S'you'
p5058
aS'know'
p5059
aaa(lp5060
g5014
a(lp5061
S'This'
p5062
aS'is'
p5063
aS'like'
p5064
ag213
aS'hoof'
p5065
aS'knife'
p5066
aaa(lp5067
g5014
a(lp5068
S'then'
p5069
ag213
aaa(lp5070
g5014
a(lp5071
S'you'
p5072
aS'know'
p5073
aaa(lp5074
S'LENORE'
p5075
a(lp5076
S'So'
p5077
aS'youre'
p5078
aS'always'
p5079
aS'bent'
p5080
aS'over'
p5081
aaa(lp5082
S'LYNNE'
p5083
a(lp5084
S'Youre'
p5085
aS'always'
p5086
aS'bent'
p5087
aS'over'
p5088
aaa(lp5089
g5083
a(lp5090
S'And'
p5091
aS'like'
p5092
aS'in'
p5093
aS'the'
p5094
aS'front'
p5095
aaa(lp5096
g5083
a(lp5097
S'You'
p5098
aS'stick'
p5099
aS'the'
p5100
aS'horses'
p5101
aS'hoof'
p5102
aS'between'
p5103
aS'your'
p5104
aS'leg'
p5105
aaa(lp5106
g5083
a(lp5107
S'you'
p5108
aS'know'
p5109
aaa(lp5110
g5083
a(lp5111
S'Kinda'
p5112
aS'like'
p5113
aS'that'
p5114
aaa(lp5115
g5083
a(lp5116
S'and'
p5117
aS'you'
p5118
aS'kinda'
p5119
aaa(lp5120
g5083
a(lp5121
S'you'
p5122
aS'go'
p5123
aS'like'
p5124
aS'this'
p5125
aaa(lp5126
g5083
a(lp5127
S'you'
p5128
aS'kinda'
p5129
aS'bend'
p5130
aS'down'
p5131
aS'like'
p5132
aS'this'
p5133
aaa(lp5134
g5083
a(lp5135
S'and'
p5136
aS'you'
p5137
aS'have'
p5138
aS'the'
p5139
aS'horses'
p5140
aS'hoof'
p5141
aS'right'
p5142
aS'here'
p5143
aaa(lp5144
S'LENORE'
p5145
a(lp5146
S'Its'
p5147
aS'hard'
p5148
aS'on'
p5149
aS'your'
p5150
aS'back'
p5151
aaa(lp5152
S'LYNNE'
p5153
a(lp5154
S'Its'
p5155
aS'really'
p5156
aS'hard'
p5157
aS'on'
p5158
aS'your'
p5159
aS'back'
p5160
aaa(lp5161
g5153
a(lp5162
S'Like'
p5163
aaa(lp5164
g5153
a(lp5165
g100
aS'noticed'
p5166
aS'that'
p5167
aS'girls'
p5168
aS'back'
p5169
aS'muscles'
p5170
aS'were'
p5171
aS'just'
p5172
aS'tremendous'
p5173
aaa(lp5174
g5153
a(lp5175
S'too'
p5176
aS'you'
p5177
aS'know'
p5178
aaa(lp5179
g5153
a(lp5180
S'Couldnt'
p5181
aS'believe'
p5182
aS'it'
p5183
aaa(lp5184
g5153
a(lp5185
S'She'
p5186
aS'had'
p5187
aS'like'
p5188
aS'on'
p5189
aS'this'
p5190
aS'really'
p5191
aS'p'
p5192
aS'kinda'
p5193
aS'short'
p5194
aS'shirt'
p5195
aaa(lp5196
g5153
a(lp5197
S'you'
p5198
aS'know'
p5199
aaa(lp5200
g5153
a(lp5201
g167
aS'Theres'
p5202
aS'this'
p5203
ag167
aaa(lp5204
g5153
a(lp5205
g100
aS'think'
p5206
aS'thats'
p5207
aS'cold'
p5208
aaa(lp5209
S'LENORE'
p5210
a(lp5211
S'Just'
p5212
aS'dont'
p5213
aaa(lp5214
g5210
a(lp5215
S'its'
p5216
aaa(lp5217
g5210
a(lp5218
S'if'
p5219
aS'you'
p5220
aS'rub'
p5221
aS'something'
p5222
aS'against'
p5223
aS'it'
p5224
aaa(lp5225
g5210
a(lp5226
S'its'
p5227
aS'just'
p5228
aaa(lp5229
S'LYNNE'
p5230
a(lp5231
S'Makes'
p5232
ag213
aS'sound'
p5233
aaa(lp5234
g5230
a(lp5235
S'Nkay'
p5236
aaa(lp5237
S'LENORE'
p5238
a(lp5239
S'So'
p5240
aS'what'
p5241
aaa(lp5242
g5238
a(lp5243
S'what'
p5244
aS'were'
p5245
aS'you'
p5246
aS'gonna'
p5247
aS'do'
p5248
aS'out'
p5249
aS'there'
p5250
aS'today'
p5251
aaa(lp5252
g5238
a(lp5253
S'What'
p5254
aS'other'
p5255
aaa(lp5256
g5238
a(lp5257
S'what'
p5258
aS'other'
p5259
aS'things'
p5260
ag167
aS'were'
p5261
aS'you'
p5262
ag167
aS'gonna'
p5263
aaa(lp5264
S'LYNNE'
p5265
a(lp5266
S'Just'
p5267
aS'go'
p5268
aS'out'
p5269
aS'and'
p5270
aS'um'
p5271
aaa(lp5272
S'LENORE'
p5273
a(lp5274
S'Look'
p5275
aS'at'
p5276
aS'the'
p5277
aS'filly'
p5278
aaa(lp5279
S'LYNNE'
p5280
a(lp5281
S'Yeah'
p5282
aaa(lp5283
g5280
a(lp5284
S'its'
p5285
aS'getting'
p5286
aS'about'
p5287
aaa(lp5288
g5280
a(lp5289
S'so'
p5290
aS'late'
p5291
aS'now'
p5292
aaa(lp5293
g5280
a(lp5294
S'Pretty'
p5295
aS'much'
p5296
aS'all'
p5297
aS'were'
p5298
aS'gonna'
p5299
aS'do'
p5300
aS'is'
p5301
aS'go'
p5302
aS'out'
p5303
aaa(lp5304
g5280
a(lp5305
g100
aS'dont'
p5306
aS'know'
p5307
aS'what'
p5308
aS'her'
p5309
aS'plans'
p5310
aS'really'
p5311
aS'are'
p5312
aaa(lp5313
g5280
a(lp5314
S'But'
p5315
ag100
aS'think'
p5316
aS'pretty'
p5317
aS'much'
p5318
aS'just'
p5319
aS'go'
p5320
aS'out'
p5321
aS'and'
p5322
aS'take'
p5323
aS'care'
p5324
aS'of'
p5325
aS'em'
p5326
aS'and'
p5327
aS'then'
p5328
aaa(lp5329
g5280
a(lp5330
S'maybe'
p5331
aS'go'
p5332
aS'to'
p5333
aS'that'
p5334
aS'seasonal'
p5335
aS'dance'
p5336
aaa(lp5337
g5280
a(lp5338
S'or'
p5339
aS'whatever'
p5340
aS'it'
p5341
aS'is'
p5342
aaa(lp5343
g5280
a(lp5344
S'Is'
p5345
aS'that'
p5346
aS'what'
p5347
aS'its'
p5348
aS'called'
p5349
aaa(lp5350
S'LENORE'
p5351
a(lp5352
g100
aS'dont'
p5353
aS'know'
p5354
aaa(lp5355
S'LYNNE'
p5356
a(lp5357
g100
aS'dont'
p5358
aS'know'
p5359
aS'what'
p5360
aS'its'
p5361
aS'called'
p5362
aS'either'
p5363
aaa(lp5364
g5356
a(lp5365
S'You'
p5366
aS'know'
p5367
aaa(lp5368
g5356
a(lp5369
S'he'
p5370
aS'said'
p5371
aS'there'
p5372
aS'was'
p5373
aS'four'
p5374
aS'guys'
p5375
aS'doing'
p5376
aS'that'
p5377
aaa(lp5378
S'LENORE'
p5379
a(lp5380
S'Doing'
p5381
aS'what'
p5382
aaa(lp5383
S'LYNNE'
p5384
a(lp5385
S'The'
p5386
aS'dance'
p5387
aaa(lp5388
g5384
a(lp5389
S'you'
p5390
aS'know'
p5391
aaa(lp5392
g5384
a(lp5393
S'How'
p5394
aS'he'
p5395
aS'said'
p5396
aS'theres'
p5397
aS'four'
p5398
aS'guys'
p5399
aaa(lp5400
g5384
a(lp5401
g100
aS'wonder'
p5402
aS'if'
p5403
aS'that'
p5404
aS'means'
p5405
aS'like'
p5406
aaa(lp5407
g5384
a(lp5408
S'Since'
p5409
aS'theres'
p5410
aS'four'
p5411
aS'seasons'
p5412
aaa(lp5413
g5384
a(lp5414
S'you'
p5415
aS'know'
p5416
aaa(lp5417
g5384
a(lp5418
g100
aS'wonder'
p5419
aS'if'
p5420
aS'that'
p5421
aS'has'
p5422
aS'something'
p5423
aS'to'
p5424
aS'do'
p5425
aS'with'
p5426
aS'it'
p5427
aaa(lp5428
S'LENORE'
p5429
a(lp5430
S'Unhunh'
p5431
aaa(lp5432
S'LYNNE'
p5433
a(lp5434
S'since'
p5435
aS'he'
p5436
aS'called'
p5437
aS'it'
p5438
ag213
aS'seasonal'
p5439
aS'dance'
p5440
aaa(lp5441
S'LENORE'
p5442
a(lp5443
S'XX'
p5444
aaa(lp5445
S'LYNNE'
p5446
a(lp5447
S'Hes'
p5448
ag213
aS'pretty'
p5449
aS'neat'
p5450
aS'guy'
p5451
aaa(lp5452
g5446
a(lp5453
g100
aS'thought'
p5454
aaa(lp5455
S'LENORE'
p5456
a(lp5457
S'Yeah'
p5458
aaa(lp5459
g5456
a(lp5460
S'he'
p5461
aS'spoke'
p5462
aS'Crow'
p5463
aS'okay'
p5464
aaa(lp5465
S'LYNNE'
p5466
a(lp5467
aa(lp5468
g5466
a(lp5469
g100
aS'got'
p5470
ag213
aS'kick'
p5471
aS'out'
p5472
aS'of'
p5473
aS'him'
p5474
aS'when'
p5475
aS'he'
p5476
aS'kept'
p5477
aS'saying'
p5478
aS'it'
p5479
aaa(lp5480
g5466
a(lp5481
S'See'
p5482
aS'this'
p5483
aS'little'
p5484
aS'cat'
p5485
aaa(lp5486
g5466
a(lp5487
S'Little'
p5488
aS'cat'
p5489
aaa(lp5490
S'LENORE'
p5491
a(lp5492
g100
aS'dont'
p5493
aS'wanna'
p5494
aS'see'
p5495
aS'the'
p5496
aS'little'
p5497
aS'cat'
p5498
aaa(lp5499
g5491
a(lp5500
g100
aS'know'
p5501
aaa(lp5502
S'LYNNE'
p5503
a(lp5504
g100
aS'know'
p5505
aaa(lp5506
S'LENORE'
p5507
a(lp5508
S'that'
p5509
aS'sounds'
p5510
aS'like'
p5511
aS'kitten'
p5512
aaa(lp5513
S'LYNNE'
p5514
a(lp5515
S'that'
p5516
aS'sounds'
p5517
aS'like'
p5518
aS'kit'
p5519
aaa(lp5520
S'LENORE'
p5521
a(lp5522
g100
aS'dont'
p5523
aS'wanna'
p5524
aS'say'
p5525
aS'kitten'
p5526
aaa(lp5527
g5521
a(lp5528
S'that'
p5529
aS'sounds'
p5530
aS'stupid'
p5531
aaa(lp5532
S'LYNNE'
p5533
a(lp5534
aa(lp5535
S'LENORE'
p5536
a(lp5537
aa(lp5538
S'LYNNE'
p5539
a(lp5540
S'So'
p5541
aS'she'
p5542
aS'named'
p5543
aS'everybody'
p5544
aS'in'
p5545
aS'the'
p5546
aS'class'
p5547
aS'except'
p5548
aS'for'
p5549
aaa(lp5550
S'LENORE'
p5551
a(lp5552
S'About'
p5553
aS'four'
p5554
aS'people'
p5555
aaa(lp5556
g5551
a(lp5557
S'Well'
p5558
aaa(lp5559
g5551
a(lp5560
g100
aS'think'
p5561
aS'they'
p5562
aS'asked'
p5563
aS'for'
p5564
aS'names'
p5565
aaa(lp5566
S'LYNNE'
p5567
a(lp5568
S'Oh'
p5569
aS'did'
p5570
aS'they'
p5571
aaa(lp5572
g5567
a(lp5573
S'Hunh'
p5574
aaa(lp5575
g5567
a(lp5576
S'Thats'
p5577
aS'funny'
p5578
aaa(lp5579
g5567
a(lp5580
S'Look'
p5581
aS'at'
p5582
aS'how'
p5583
aS'much'
p5584
aS'that'
p5585
aS'air'
p5586
aS'conditioner'
p5587
aS'blew'
p5588
aS'on'
p5589
aS'that'
p5590
aS'blue'
p5591
aS'bag'
p5592
aS'right'
p5593
aS'there'
p5594
aaa(lp5595
S'LENORE'
p5596
a(lp5597
S'Yeah'
p5598
aaa(lp5599
g5596
a(lp5600
g100
aS'noticed'
p5601
aS'on'
p5602
aS'the'
p5603
aaa(lp5604
g5596
a(lp5605
S'on'
p5606
aS'the'
p5607
aS'case'
p5608
aS'for'
p5609
aS'the'
p5610
aS'tape'
p5611
aS'recorder'
p5612
aS'too'
p5613
aaa(lp5614
g5596
a(lp5615
g167
aS'that'
p5616
aS'its'
p5617
aS'all'
p5618
ag167
aaa(lp5619
g5596
a(lp5620
S'that'
p5621
aS'its'
p5622
aS'all'
p5623
aS'covered'
p5624
aS'today'
p5625
aaa(lp5626
g5596
a(lp5627
S'Look'
p5628
aS'right'
p5629
aS'here'
p5630
aaa(lp5631
S'LYNNE'
p5632
a(lp5633
S'Look'
p5634
aS'at'
p5635
aS'your'
p5636
aS'cigarettes'
p5637
aS'even'
p5638
aaa(lp5639
S'LENORE'
p5640
a(lp5641
S'Look'
p5642
aaa(lp5643
g5640
a(lp5644
S'Right'
p5645
aS'here'
p5646
aaa(lp5647
g5640
a(lp5648
S'Just'
p5649
aaa(lp5650
S'LYNNE'
p5651
a(lp5652
S'Geez'
p5653
aaa(lp5654
S'LENORE'
p5655
a(lp5656
S'just'
p5657
aS'from'
p5658
aS'sitting'
p5659
aS'here'
p5660
aaa(lp5661
g5655
a(lp5662
S'For'
p5663
aS'just'
p5664
ag213
aS'minute'
p5665
aaa(lp5666
g5655
a(lp5667
S'Thats'
p5668
aaa(lp5669
S'LYNNE'
p5670
a(lp5671
S'Look'
p5672
aS'at'
p5673
aS'the'
p5674
aS'cigarettes'
p5675
aaa(lp5676
S'LENORE'
p5677
a(lp5678
S'Its'
p5679
aS'like'
p5680
aS'ash'
p5681
aaa(lp5682
g5677
a(lp5683
S'Is'
p5684
aS'it'
p5685
aS'from'
p5686
aaa(lp5687
g5677
a(lp5688
S'that'
p5689
aS'must'
p5690
aS'be'
p5691
aS'from'
p5692
aS'the'
p5693
aS'fires'
p5694
aaa(lp5695
g5677
a(lp5696
S'Or'
p5697
aS'what'
p5698
aaa(lp5699
S'LYNNE'
p5700
a(lp5701
S'You'
p5702
aS'know'
p5703
aaa(lp5704
g5700
a(lp5705
S'maybe'
p5706
aS'it'
p5707
aS'is'
p5708
aaa(lp5709
g5700
a(lp5710
S'Maybe'
p5711
aS'it'
p5712
aS'is'
p5713
aaa(lp5714
S'LENORE'
p5715
a(lp5716
S'Uh'
p5717
aaa(lp5718
S'LYNNE'
p5719
a(lp5720
S'Cause'
p5721
aS'that'
p5722
aS'one'
p5723
aS'whole'
p5724
aS'day'
p5725
aaa(lp5726
g5719
a(lp5727
S'you'
p5728
aS'couldnt'
p5729
aS'even'
p5730
aS'see'
p5731
aS'or'
p5732
aS'anything'
p5733
aaa(lp5734
g5719
a(lp5735
S'from'
p5736
aaa(lp5737
g5719
a(lp5738
S'but'
p5739
aS'look'
p5740
aS'at'
p5741
aS'your'
p5742
aS'cigarettes'
p5743
aaa(lp5744
g5719
a(lp5745
S'Just'
p5746
aS'sitting'
p5747
aS'there'
p5748
aaa(lp5749
S'LENORE'
p5750
a(lp5751
S'Oh'
p5752
aS'yeah'
p5753
aaa(lp5754
g5750
a(lp5755
S'On'
p5756
aS'the'
p5757
aS'way'
p5758
aS'into'
p5759
aS'r'
p5760
aaa(lp5761
g5750
a(lp5762
S'from'
p5763
aS'Roundup'
p5764
aaa(lp5765
g5750
a(lp5766
S'yesterday'
p5767
aS'morning'
p5768
aaa(lp5769
g5750
a(lp5770
S'the'
p5771
aS'radio'
p5772
aS'was'
p5773
aS'on'
p5774
aaa(lp5775
g5750
a(lp5776
S'And'
p5777
aS'they'
p5778
aS'were'
p5779
aaa(lp5780
g5750
a(lp5781
S'talking'
p5782
aS'about'
p5783
aS'the'
p5784
aS'weather'
p5785
aS'and'
p5786
aS'they'
p5787
aS'said'
p5788
aaa(lp5789
g5750
a(lp5790
S'how'
p5791
aS'we'
p5792
aaa(lp5793
g5750
a(lp5794
S'everybody'
p5795
aS'woke'
p5796
aS'up'
p5797
aS'with'
p5798
aS'ash'
p5799
aS'all'
p5800
aS'over'
p5801
aS'their'
p5802
aS'car'
p5803
aS'today'
p5804
aaa(lp5805
g5750
a(lp5806
S'and'
p5807
aaa(lp5808
S'LYNNE'
p5809
a(lp5810
S'In'
p5811
aS'Roundup'
p5812
aaa(lp5813
S'LENORE'
p5814
a(lp5815
S'On'
p5816
aS'the'
p5817
aS'way'
p5818
aS'from'
p5819
aS'Roundup'
p5820
aaa(lp5821
g5814
a(lp5822
g100
aS'was'
p5823
aS'listening'
p5824
aS'to'
p5825
aS'the'
p5826
aS'radio'
p5827
aaa(lp5828
g5814
a(lp5829
S'Yesterday'
p5830
aS'morning'
p5831
aaa(lp5832
g5814
a(lp5833
S'And'
p5834
aS'they'
p5835
aS'were'
p5836
aS'talking'
p5837
aaa(lp5838
S'LYNNE'
p5839
a(lp5840
S'And'
p5841
aS'so'
p5842
aS'this'
p5843
aS'was'
p5844
aS'probably'
p5845
aS'like'
p5846
ag213
aS'Billings'
p5847
aS'radio'
p5848
aS'station'
p5849
aaa(lp5850
g5839
a(lp5851
S'or'
p5852
aS'something'
p5853
aS'like'
p5854
aS'that'
p5855
aaa(lp5856
S'LENORE'
p5857
a(lp5858
S'Yeah'
p5859
aaa(lp5860
g5857
a(lp5861
S'Unhunh'
p5862
aaa(lp5863
S'LYNNE'
p5864
a(lp5865
S'Is'
p5866
aS'that'
p5867
aS'right'
p5868
aaa(lp5869
S'LENORE'
p5870
a(lp5871
S'And'
p5872
aS'they'
p5873
aS'said'
p5874
aS'well'
p5875
aS'everybody'
p5876
aS'woke'
p5877
aS'up'
p5878
aS'with'
p5879
aS'ashes'
p5880
aS'on'
p5881
aS'their'
p5882
aS'car'
p5883
aS'today'
p5884
aaa(lp5885
g5870
a(lp5886
S'And'
p5887
ag100
aS'guess'
p5888
aS'just'
p5889
aS'from'
p5890
aS'the'
p5891
aS'fires'
p5892
aaa(lp5893
S'DORIS'
p5894
a(lp5895
S'Yeah'
p5896
aaa(lp5897
g5894
a(lp5898
S'it'
p5899
aS'is'
p5900
aaa(lp5901
S'LYNNE'
p5902
a(lp5903
aa(lp5904
S'DORIS'
p5905
a(lp5906
g100
aS'was'
p5907
aS'telling'
p5908
aS'Mae'
p5909
aS'Lynne'
p5910
aaa(lp5911
S'LYNNE'
p5912
a(lp5913
S'Hunh'
p5914
aaa(lp5915
S'DORIS'
p5916
a(lp5917
S'Uh'
p5918
aaa(lp5919
g5916
a(lp5920
S'day'
p5921
aS'before'
p5922
aS'yesterday'
p5923
aaa(lp5924
g5916
a(lp5925
S'it'
p5926
aS'was'
p5927
aS'the'
p5928
aS'most'
p5929
aS'weird'
p5930
aS'day'
p5931
aS'Ive'
p5932
aS'ever'
p5933
aS'seen'
p5934
aS'in'
p5935
aS'my'
p5936
aS'entire'
p5937
aS'adult'
p5938
aS'life'
p5939
aaa(lp5940
g5916
a(lp5941
S'It'
p5942
aS'was'
p5943
aS'um'
p5944
aaa(lp5945
g5916
a(lp5946
S'the'
p5947
aS'wind'
p5948
aS'was'
p5949
aS'blowing'
p5950
aS'real'
p5951
aS'hot'
p5952
aS'when'
p5953
ag100
aS'first'
p5954
aS'got'
p5955
aS'up'
p5956
aaa(lp5957
g5916
a(lp5958
S'And'
p5959
aS'it'
p5960
aS'was'
p5961
aS'early'
p5962
aaa(lp5963
g5916
a(lp5964
S'Real'
p5965
aS'early'
p5966
aaa(lp5967
g5916
a(lp5968
S'like'
p5969
aS'seven'
p5970
aS'oclock'
p5971
aS'in'
p5972
aS'the'
p5973
aS'morning'
p5974
aaa(lp5975
g5916
a(lp5976
S'that'
p5977
aaa(lp5978
g5916
a(lp5979
S'that'
p5980
aS'wind'
p5981
aS'was'
p5982
aS'just'
p5983
aS'hot'
p5984
aaa(lp5985
g5916
a(lp5986
S'And'
p5987
aaa(lp5988
g5916
a(lp5989
S'next'
p5990
aS'thing'
p5991
aS'you'
p5992
aS'knew'
p5993
aaa(lp5994
g5916
a(lp5995
S'it'
p5996
aS'was'
p5997
aS'just'
p5998
aS'overcast'
p5999
aaa(lp6000
g5916
a(lp6001
S'well'
p6002
aS'the'
p6003
aS'smoke'
p6004
aS'all'
p6005
aS'blew'
p6006
aS'in'
p6007
aaa(lp6008
g5916
a(lp6009
S'Just'
p6010
aS'like'
p6011
aS'there'
p6012
aS'was'
p6013
ag213
aS'fire'
p6014
aaa(lp6015
g5916
a(lp6016
S'right'
p6017
aS'around'
p6018
aS'close'
p6019
aaa(lp6020
g5916
a(lp6021
S'And'
p6022
aS'it'
p6023
aS'was'
p6024
aS'just'
p6025
aS'dense'
p6026
aaa(lp6027
g5916
a(lp6028
S'You'
p6029
aS'couldnt'
p6030
aS'even'
p6031
aS'hardly'
p6032
aS'see'
p6033
aaa(lp6034
g5916
a(lp6035
S'very'
p6036
aS'far'
p6037
aS'away'
p6038
aaa(lp6039
g5916
a(lp6040
S'Okay'
p6041
aS'then'
p6042
aaa(lp6043
g5916
a(lp6044
S'it'
p6045
aaa(lp6046
g5916
a(lp6047
S'that'
p6048
aaa(lp6049
g5916
a(lp6050
g1660
aaa(lp6051
g5916
a(lp6052
S'it'
p6053
aS'just'
p6054
aS'kinda'
p6055
aS'blew'
p6056
aS'the'
p6057
aS'smoke'
p6058
aS'in'
p6059
aaa(lp6060
g5916
a(lp6061
S'and'
p6062
aS'then'
p6063
aS'blew'
p6064
aS'it'
p6065
aS'out'
p6066
aaa(lp6067
g5916
a(lp6068
S'but'
p6069
aaa(lp6070
g5916
a(lp6071
S'then'
p6072
aS'it'
p6073
aS'was'
p6074
aS'real'
p6075
aS'hazy'
p6076
aaa(lp6077
g5916
a(lp6078
S'and'
p6079
aS'there'
p6080
aS'was'
p6081
aS'just'
p6082
aS'dust'
p6083
aS'particles'
p6084
aaa(lp6085
g5916
a(lp6086
S'all'
p6087
aS'over'
p6088
aaa(lp6089
g5916
a(lp6090
S'and'
p6091
aS'it'
p6092
aS'was'
p6093
aaa(lp6094
g5916
a(lp6095
S'youd'
p6096
aS'look'
p6097
aS'at'
p6098
aS'the'
p6099
aS'sun'
p6100
aaa(lp6101
g5916
a(lp6102
S'and'
p6103
aS'it'
p6104
aS'would'
p6105
aS'just'
p6106
aS'look'
p6107
aS'red'
p6108
aaa(lp6109
g5916
a(lp6110
g100
aS'mean'
p6111
aS'you'
p6112
aS'couldnt'
p6113
aS'see'
p6114
aS'the'
p6115
aS'sun'
p6116
aaa(lp6117
g5916
a(lp6118
S'It'
p6119
aS'was'
p6120
aS'just'
p6121
aaa(lp6122
S'LYNNE'
p6123
a(lp6124
S'She'
p6125
aS'said'
p6126
aS'people'
p6127
aS'were'
p6128
aS'driving'
p6129
aS'around'
p6130
aS'with'
p6131
aS'their'
p6132
aS'lights'
p6133
aS'on'
p6134
aaa(lp6135
S'DORIS'
p6136
a(lp6137
S'Yeah'
p6138
aaa(lp6139
g6136
a(lp6140
S'And'
p6141
aS'the'
p6142
aS'lights'
p6143
aS'were'
p6144
aaa(lp6145
g6136
a(lp6146
S'they'
p6147
aS'didnt'
p6148
aS'look'
p6149
aS'like'
p6150
aS'they'
p6151
aS'were'
p6152
aaa(lp6153
g6136
a(lp6154
S'its'
p6155
aS'just'
p6156
aS'from'
p6157
aS'the'
p6158
aS'drought'
p6159
aS'and'
p6160
aS'the'
p6161
aS'dust'
p6162
aaa(lp6163
g6136
a(lp6164
S'you'
p6165
aS'know'
p6166
aaa(lp6167
g6136
a(lp6168
S'and'
p6169
aS'the'
p6170
aS'smoke'
p6171
aS'in'
p6172
aS'the'
p6173
aS'air'
p6174
aaa(lp6175
g6136
a(lp6176
S'Ive'
p6177
aS'never'
p6178
aS'seen'
p6179
aS'anything'
p6180
aS'like'
p6181
aS'it'
p6182
aaa(lp6183
S'LYNNE'
p6184
a(lp6185
S'And'
p6186
aS'she'
p6187
aS'said'
p6188
aS'like'
p6189
aaa(lp6190
g6184
a(lp6191
S'the'
p6192
aS'lights'
p6193
aS'looked'
p6194
ag213
aS'greenish'
p6195
aS'color'
p6196
aaa(lp6197
S'DORIS'
p6198
a(lp6199
S'Yeah'
p6200
aaa(lp6201
g6198
a(lp6202
S'They'
p6203
aS'look'
p6204
ag213
aS'green'
p6205
aS'XXXX'
p6206
aaa(lp6207
S'LYNNE'
p6208
a(lp6209
S'You'
p6210
aS'know'
p6211
aS'how'
p6212
aS'they'
p6213
aS'look'
p6214
aS'yellow'
p6215
aS'at'
p6216
aS'night'
p6217
aaa(lp6218
g6208
a(lp6219
S'you'
p6220
aS'know'
p6221
aaa(lp6222
S'DORIS'
p6223
a(lp6224
S'Yeah'
p6225
aaa(lp6226
g6223
a(lp6227
S'they'
p6228
aS'just'
p6229
aS'looked'
p6230
aS'green'
p6231
aaa(lp6232
g6223
a(lp6233
S'It'
p6234
aS'was'
p6235
ag213
aS'weird'
p6236
aaa(lp6237
g6223
a(lp6238
S'ugly'
p6239
aaa(lp6240
g6223
a(lp6241
S'ugly'
p6242
aS'day'
p6243
aaa(lp6244
g6223
a(lp6245
S'Rana'
p6246
aS'Lees'
p6247
aS'gonna'
p6248
aS'have'
p6249
ag213
aS'baby'
p6250
aS'by'
p6251
aS'the'
p6252
aS'way'
p6253
aaa(lp6254
S'LYNNE'
p6255
a(lp6256
S'Who'
p6257
aS'is'
p6258
aaa(lp6259
S'DORIS'
p6260
a(lp6261
S'P'
p6262
aS'Rana'
p6263
aS'Lee'
p6264
ag6262
aaa(lp6265
S'LYNNE'
p6266
a(lp6267
S'Brians'
p6268
aS'wife'
p6269
aaa(lp6270
S'DORIS'
p6271
a(lp6272
S'Brians'
p6273
aS'wife'
p6274
aaa(lp6275
S'LYNNE'
p6276
a(lp6277
g100
aS'didnt'
p6278
aS'even'
p6279
aS'know'
p6280
aS'she'
p6281
aS'was'
p6282
aS'pregnant'
p6283
aaa(lp6284
g6276
a(lp6285
S'three'
p6286
aS'months'
p6287
aS'ago'
p6288
aaa(lp6289
g6276
a(lp6290
S'Of'
p6291
aS'course'
p6292
ag100
aS'guess'
p6293
aS'they'
p6294
aS'can'
p6295
aS'get'
p6296
aS'big'
p6297
aS'in'
p6298
aS'three'
p6299
aS'months'
p6300
aaa(lp6301
S'DORIS'
p6302
a(lp6303
g167
aS'Well'
p6304
aaa(lp6305
g6302
a(lp6306
g100
ag100
aS'told'
p6307
aS'you'
p6308
ag167
aaa(lp6309
S'LYNNE'
p6310
a(lp6311
S'too'
p6312
aaa(lp6313
S'LENORE'
p6314
a(lp6315
S'Whats'
p6316
aS'her'
p6317
aS'name'
p6318
aaa(lp6319
S'LYNNE'
p6320
a(lp6321
S'Bran'
p6322
aaa(lp6323
g6320
a(lp6324
S'F'
p6325
aS'whats'
p6326
aS'her'
p6327
aS'name'
p6328
aaa(lp6329
S'DORIS'
p6330
a(lp6331
S'Rana'
p6332
aS'Lee'
p6333
aaa(lp6334
S'LYNNE'
p6335
a(lp6336
S'Rana'
p6337
aS'Lee'
p6338
ag6325
aaa(lp6339
S'DORIS'
p6340
a(lp6341
S'Unhunh'
p6342
aaa(lp6343
S'LYNNE'
p6344
a(lp6345
S'Rana'
p6346
aS'Lee'
p6347
aaa(lp6348
S'LENORE'
p6349
a(lp6350
S'Hm'
p6351
aaa(lp6352
S'LYNNE'
p6353
a(lp6354
aa(lp6355
g6353
a(lp6356
g100
aS'dont'
p6357
aS'know'
p6358
aS'why'
p6359
ag100
aS'told'
p6360
aS'you'
p6361
aS'that'
p6362
aaa(lp6363
g6353
a(lp6364
S'SING'
p6365
aS'Rana'
p6366
aS'Lee'
p6367
aS'SING'
p6368
aaa(lp6369
g6353
a(lp6370
S'YWN'
p6371
aS'She'
p6372
aS'had'
p6373
ag213
aS'brother'
p6374
aS'that'
p6375
aS'died'
p6376
aS'from'
p6377
aS'asthma'
p6378
aS'too'
p6379
aS'YWN'
p6380
aaa(lp6381
g6353
a(lp6382
S'Seem'
p6383
aS'like'
p6384
ag213
aS'lot'
p6385
aS'of'
p6386
aS'people'
p6387
aaa(lp6388
g6353
a(lp6389
g100
aS'mean'
p6390
aS'thats'
p6391
aS'weird'
p6392
aaa(lp6393
g6353
a(lp6394
S'that'
p6395
ag100
aS'would'
p6396
aS'know'
p6397
aS'two'
p6398
aS'people'
p6399
aS'that'
p6400
aS'died'
p6401
aS'from'
p6402
aS'asthma'
p6403
aaa(lp6404
g6353
a(lp6405
S'You'
p6406
aS'know'
p6407
aaa(lp6408
S'DORIS'
p6409
a(lp6410
S'Why'
p6411
aS'dont'
p6412
aS'we'
p6413
aS'go'
p6414
aaa(lp6415
S'LENORE'
p6416
a(lp6417
S'just'
p6418
aS'in'
p6419
aaa(lp6420
S'DORIS'
p6421
a(lp6422
S'except'
p6423
aaa(lp6424
S'LYNNE'
p6425
a(lp6426
S'Just'
p6427
aS'in'
p6428
ag213
aS'matter'
p6429
aS'of'
p6430
ag213
aS'years'
p6431
aS'time'
p6432
aaa(lp6433
S'DORIS'
p6434
a(lp6435
S'This'
p6436
aS'washing'
p6437
aS'is'
p6438
aS'XXX'
p6439
aaa(lp6440
S'LENORE'
p6441
a(lp6442
S'Really'
p6443
aaa(lp6444
S'LYNNE'
p6445
a(lp6446
S'Yeah'
p6447
aaa(lp6448
g6445
a(lp6449
S'Her'
p6450
aS'brother'
p6451
aS'was'
p6452
aS'like'
p6453
aaa(lp6454
g6445
a(lp6455
S'just'
p6456
aS'right'
p6457
aS'out'
p6458
aS'of'
p6459
aS'high'
p6460
aS'school'
p6461
aaa(lp6462
g6445
a(lp6463
g100
aS'mean'
p6464
aaa(lp6465
g6445
a(lp6466
S'you'
p6467
aS'know'
p6468
aaa(lp6469
g6445
a(lp6470
S'did'
p6471
aS'mom'
p6472
aS'tell'
p6473
aS'you'
p6474
aaa(lp6475
g6445
a(lp6476
S'about'
p6477
aS'Deb'
p6478
aS'at'
p6479
aS'all'
p6480
aaa(lp6481
g6445
a(lp6482
S'She'
p6483
aS'probably'
p6484
aS'really'
p6485
aS'couldnt'
p6486
aaa(lp6487
g6445
a(lp6488
S'since'
p6489
aS'Genetta'
p6490
aS'was'
p6491
aS'there'
p6492
aaa(lp6493
g6445
a(lp6494
S'You'
p6495
aS'know'
p6496
aaa(lp6497
g6445
a(lp6498
S'she'
p6499
aS'was'
p6500
aaa(lp6501
g6445
a(lp6502
S'like'
p6503
aS'she'
p6504
aS'was'
p6505
aS'in'
p6506
aS'the'
p6507
aS'hospital'
p6508
aaa(lp6509
g6445
a(lp6510
S'in'
p6511
aS'and'
p6512
aS'out'
p6513
aS'of'
p6514
aS'the'
p6515
aS'hospital'
p6516
aS'all'
p6517
aS'the'
p6518
aS'time'
p6519
aS'and'
p6520
aS'stuff'
p6521
aaa(lp6522
g6445
a(lp6523
S'ever'
p6524
aS'since'
p6525
aS'she'
p6526
aS'was'
p6527
aS'little'
p6528
aaa(lp6529
g6445
a(lp6530
S'she'
p6531
aS'was'
p6532
aS'in'
p6533
aS'and'
p6534
aS'out'
p6535
aS'of'
p6536
aS'the'
p6537
aS'hospital'
p6538
aaa(lp6539
S'DORIS'
p6540
a(lp6541
S'Who'
p6542
aS'was'
p6543
aS'that'
p6544
aaa(lp6545
g6540
a(lp6546
S'Debby'
p6547
aaa(lp6548
S'LYNNE'
p6549
a(lp6550
S'Debby'
p6551
aaa(lp6552
g6549
a(lp6553
g100
aS'mean'
p6554
aS'she'
p6555
aS'was'
p6556
aS'in'
p6557
aaa(lp6558
S'DORIS'
p6559
a(lp6560
g167
aaa(lp6561
S'LYNNE'
p6562
a(lp6563
S'she'
p6564
aS'loved'
p6565
aS'horses'
p6566
aS'so'
p6567
aS'much'
p6568
aaa(lp6569
S'DORIS'
p6570
a(lp6571
S'XXXX'
p6572
ag167
aS'stuff'
p6573
aS'on'
p6574
aS'it'
p6575
ag167
aaa(lp6576
S'LYNNE'
p6577
a(lp6578
S'and'
p6579
aS'she'
p6580
aS'was'
p6581
aS'always'
p6582
aaa(lp6583
g6577
a(lp6584
S'like'
p6585
aaa(lp6586
g6577
a(lp6587
S'shes'
p6588
aS'allergic'
p6589
aS'to'
p6590
aS'horsehair'
p6591
aaa(lp6592
g6577
a(lp6593
S'horse'
p6594
aS'sweat'
p6595
aaa(lp6596
S'LENORE'
p6597
a(lp6598
S'Oh'
p6599
aaa(lp6600
g6597
a(lp6601
g167
aaa(lp6602
S'LYNNE'
p6603
a(lp6604
S'You'
p6605
aS'know'
p6606
aaa(lp6607
g6603
a(lp6608
S'stuff'
p6609
aS'like'
p6610
aS'that'
p6611
aaa(lp6612
g6603
a(lp6613
S'but'
p6614
aS'she'
p6615
aS'wouldnt'
p6616
aS'quit'
p6617
aS'riding'
p6618
aS'em'
p6619
aaa(lp6620
g6603
a(lp6621
S'so'
p6622
aaa(lp6623
S'DORIS'
p6624
a(lp6625
S'Well'
p6626
aS'XX'
p6627
aaa(lp6628
S'LYNNE'
p6629
a(lp6630
S'shes'
p6631
aS'allergic'
p6632
aS'to'
p6633
aS'everything'
p6634
aaa(lp6635
g6629
a(lp6636
S'it'
p6637
aS'doesnt'
p6638
aS'matter'
p6639
aaa(lp6640
S'DORIS'
p6641
a(lp6642
S'XXX'
p6643
aS'was'
p6644
aS'saying'
p6645
aaa(lp6646
g6641
a(lp6647
S'it'
p6648
aS'didnt'
p6649
aS'matter'
p6650
aS'what'
p6651
aS'she'
p6652
aS'did'
p6653
aaa(lp6654
S'LENORE'
p6655
a(lp6656
S'Did'
p6657
aS'she'
p6658
aS'ever'
p6659
aS'go'
p6660
aS'to'
p6661
ag213
aS'allergy'
p6662
aS'doctor'
p6663
aaa(lp6664
S'LYNNE'
p6665
a(lp6666
S'XXXX'
p6667
aaa(lp6668
S'LENORE'
p6669
a(lp6670
S'or'
p6671
aS'anybody'
p6672
aS'like'
p6673
aS'that'
p6674
aaa(lp6675
S'LYNNE'
p6676
a(lp6677
S'Oh'
p6678
aS'yeah'
p6679
aaa(lp6680
g6676
a(lp6681
S'She'
p6682
aS't'
p6683
aaa(lp6684
g6676
a(lp6685
S'well'
p6686
aS'they'
p6687
aaa(lp6688
g6676
a(lp6689
S'she'
p6690
aS'never'
p6691
aS'did'
p6692
aS'take'
p6693
aS'shots'
p6694
aaa(lp6695
g6676
a(lp6696
S'Did'
p6697
aS'she'
p6698
aaa(lp6699
S'DORIS'
p6700
a(lp6701
S'No'
p6702
aaa(lp6703
g6700
a(lp6704
g100
aS'dont'
p6705
aS'know'
p6706
aS'why'
p6707
aaa(lp6708
g6700
a(lp6709
S'They'
p6710
aS'shouldve'
p6711
aaa(lp6712
g6700
a(lp6713
S'they'
p6714
aS'should'
p6715
aS'have'
p6716
aS'gotten'
p6717
aS'her'
p6718
aaa(lp6719
S'LYNNE'
p6720
a(lp6721
g100
aS'dont'
p6722
aS'know'
p6723
aS'why'
p6724
aS'they'
p6725
aS'didnt'
p6726
aS'either'
p6727
aaa(lp6728
S'DORIS'
p6729
a(lp6730
g100
aaa(lp6731
g6729
a(lp6732
g100
ag1587
aS'always'
p6733
aS'wondered'
p6734
aS'about'
p6735
aS'that'
p6736
aaa(lp6737
g6729
a(lp6738
S'and'
p6739
aS'she'
p6740
aS'was'
p6741
ag1660
aaa(lp6742
g6729
a(lp6743
S'she'
p6744
aS'had'
p6745
aS'such'
p6746
aS'severe'
p6747
aS'asthma'
p6748
aaa(lp6749
g6729
a(lp6750
S'that'
p6751
aaa(lp6752
g6729
a(lp6753
g100
aS'would'
p6754
aS'have'
p6755
aS'done'
p6756
ag213
aS'little'
p6757
aS'bit'
p6758
aS'more'
p6759
aS'for'
p6760
aS'her'
p6761
ag100
aS'think'
p6762
aaa(lp6763
S'LYNNE'
p6764
a(lp6765
S'If'
p6766
aS'you'
p6767
aS'wanna'
p6768
aS'talk'
p6769
aS'about'
p6770
aS'somebody'
p6771
aS'tired'
p6772
aaa(lp6773
g6764
a(lp6774
S'that'
p6775
aS'girl'
p6776
aaa(lp6777
g6764
a(lp6778
S'that'
p6779
aS'girl'
p6780
aS'couldnt'
p6781
aS'walk'
p6782
aS'down'
p6783
aS'to'
p6784
aS'the'
p6785
aS'street'
p6786
aS'and'
p6787
aS'back'
p6788
aaa(lp6789
g6764
a(lp6790
S'without'
p6791
aS'taking'
p6792
ag213
aS'nap'
p6793
aaa(lp6794
g6764
a(lp6795
S'And'
p6796
aS'me'
p6797
aS'and'
p6798
aS'mom'
p6799
aS'always'
p6800
aS'accused'
p6801
aS'her'
p6802
aS'of'
p6803
aS'being'
p6804
aS'lazy'
p6805
aaa(lp6806
g6764
a(lp6807
S'You'
p6808
aS'know'
p6809
aaa(lp6810
g6764
a(lp6811
S'because'
p6812
aS'she'
p6813
aS'was'
p6814
aS'just'
p6815
aaa(lp6816
g6764
a(lp6817
S'HI'
p6818
aS'all'
p6819
aS'she'
p6820
aS'did'
p6821
aS'was'
p6822
aS'sleep'
p6823
aS'HI'
p6824
aaa(lp6825
S'LENORE'
p6826
a(lp6827
S'She'
p6828
aS'sounded'
p6829
aS'like'
p6830
aS'she'
p6831
aS'had'
p6832
aS'more'
p6833
aS'problems'
p6834
aS'than'
p6835
aaa(lp6836
S'LYNNE'
p6837
a(lp6838
S'and'
p6839
aS'now'
p6840
aS'that'
p6841
aS'when'
p6842
aS'we'
p6843
aS'think'
p6844
aS'about'
p6845
aS'it'
p6846
aaa(lp6847
g6837
a(lp6848
S'she'
p6849
aS'probably'
p6850
aS'wasnt'
p6851
aS'really'
p6852
aS'lazy'
p6853
aaa(lp6854
g6837
a(lp6855
S'shes'
p6856
aS'probably'
p6857
aS'just'
p6858
aS'exhausted'
p6859
aaa(lp6860
g6837
a(lp6861
g100
aS'mean'
p6862
aaa(lp6863
g6837
a(lp6864
S'you'
p6865
aS'know'
p6866
aaa(lp6867
g6837
a(lp6868
S'if'
p6869
aS'you'
p6870
aS'think'
p6871
aS'about'
p6872
aS'it'
p6873
aaa(lp6874
g6837
a(lp6875
S'we'
p6876
aS'like'
p6877
aS'take'
p6878
aS'everything'
p6879
aS'for'
p6880
aS'granted'
p6881
aaa(lp6882
g6837
a(lp6883
S'We'
p6884
aS'take'
p6885
aS'our'
p6886
aS'air'
p6887
aS'for'
p6888
aS'granted'
p6889
aaa(lp6890
g6837
a(lp6891
S'You'
p6892
aS'know'
p6893
aaa(lp6894
g6837
a(lp6895
S'Then'
p6896
aS'somebody'
p6897
aS'like'
p6898
aS'that'
p6899
aaa(lp6900
g6837
a(lp6901
S'every'
p6902
aS'little'
p6903
aS'breath'
p6904
aS'is'
p6905
aS'like'
p6906
aS'and'
p6907
aS'effort'
p6908
aS'to'
p6909
aS'em'
p6910
aaa(lp6911
g6837
a(lp6912
g1721
aaa(lp6913
g6837
a(lp6914
S'and'
p6915
aS'you'
p6916
aS'know'
p6917
aaa(lp6918
g6837
a(lp6919
S'and'
p6920
aS'if'
p6921
ag100
aS'had'
p6922
aS'to'
p6923
aS'go'
p6924
aS'through'
p6925
aS'an'
p6926
aS'effort'
p6927
aaa(lp6928
g6837
a(lp6929
S'just'
p6930
aS'in'
p6931
aS'breathing'
p6932
aaa(lp6933
g6837
a(lp6934
S'all'
p6935
aS'the'
p6936
aS'time'
p6937
aaa(lp6938
S'DORIS'
p6939
a(lp6940
S'Well'
p6941
aS'Debby'
p6942
aS'got'
p6943
aaa(lp6944
S'LYNNE'
p6945
a(lp6946
g100
aS'would'
p6947
aS'be'
p6948
aS'tired'
p6949
aS'too'
p6950
aaa(lp6951
S'DORIS'
p6952
a(lp6953
S'Debby'
p6954
aS'got'
p6955
aS'to'
p6956
aS'the'
p6957
aS'point'
p6958
aaa(lp6959
g6952
a(lp6960
S'where'
p6961
aS'all'
p6962
aS'she'
p6963
aS'would'
p6964
aS'do'
p6965
aS'is'
p6966
aaa(lp6967
g6952
a(lp6968
S'when'
p6969
aS'she'
p6970
aS'did'
p6971
aaa(lp6972
g6952
a(lp6973
S'you'
p6974
aS'know'
p6975
aS'every'
p6976
aaa(lp6977
g6952
a(lp6978
S'just'
p6979
aaa(lp6980
g6952
a(lp6981
S'really'
p6982
aS'often'
p6983
aS'she'
p6984
aS'would'
p6985
aS'go'
p6986
aaa(lp6987
g6952
a(lp6988
S'to'
p6989
aS'try'
p6990
aS'to'
p6991
aS'get'
p6992
aS'enough'
p6993
aS'air'
p6994
aS'in'
p6995
aaa(lp6996
g6952
a(lp6997
S'and'
p6998
aS'her'
p6999
aaa(lp7000
g6952
a(lp7001
S'they'
p7002
aS'had'
p7003
aS'an'
p7004
aS'autopsy'
p7005
aS'done'
p7006
aS'on'
p7007
aS'her'
p7008
aaa(lp7009
g6952
a(lp7010
S'And'
p7011
aS'her'
p7012
aS'heart'
p7013
aaa(lp7014
g6952
a(lp7015
S'was'
p7016
aS'just'
p7017
aS'hard'
p7018
aaa(lp7019
g6952
a(lp7020
S'on'
p7021
aS'one'
p7022
aS'side'
p7023
aaa(lp7024
g6952
a(lp7025
S'from'
p7026
aaa(lp7027
g6952
a(lp7028
S'labored'
p7029
aS'breathing'
p7030
aS'all'
p7031
aS'of'
p7032
aS'her'
p7033
aS'life'
p7034
aaa(lp7035
g6952
a(lp7036
S'It'
p7037
aS'had'
p7038
aS'just'
p7039
aS'labored'
p7040
aS'her'
p7041
aS'heart'
p7042
aS'so'
p7043
aS'bad'
p7044
aaa(lp7045
g6952
a(lp7046
S'She'
p7047
aS'actually'
p7048
aS'died'
p7049
aS'of'
p7050
ag213
aS'heart'
p7051
aS'attack'
p7052
aaa(lp7053
S'LYNNE'
p7054
a(lp7055
S'She'
p7056
aS'did'
p7057
aaa(lp7058
S'DORIS'
p7059
a(lp7060
S'Yeah'
p7061
aaa(lp7062
S'LYNNE'
p7063
a(lp7064
S'They'
p7065
aS'did'
p7066
aS'have'
p7067
aS'an'
p7068
aS'autopsy'
p7069
aS'done'
p7070
aS'on'
p7071
aS'her'
p7072
aaa(lp7073
S'DORIS'
p7074
a(lp7075
S'Yes'
p7076
aaa(lp7077
g7074
a(lp7078
S'It'
p7079
aS'surprised'
p7080
aS'me'
p7081
aaa(lp7082
g7074
a(lp7083
S'But'
p7084
aS'they'
p7085
aaa(lp7086
g7074
a(lp7087
S'they'
p7088
aS'did'
p7089
aaa(lp7090
g7074
a(lp7091
S'And'
p7092
aS'it'
p7093
aS'was'
p7094
aS'actually'
p7095
ag213
aaa(lp7096
S'LYNNE'
p7097
a(lp7098
S'And'
p7099
aS'her'
p7100
aS'heart'
p7101
aS'was'
p7102
aS'hard'
p7103
aaa(lp7104
S'DORIS'
p7105
a(lp7106
S'cardiac'
p7107
aS'arrest'
p7108
aaa(lp7109
g7105
a(lp7110
S'Mhm'
p7111
aaa(lp7112
g7105
a(lp7113
S'One'
p7114
aS'side'
p7115
aS'of'
p7116
aS'her'
p7117
aS'heart'
p7118
aS'was'
p7119
aS'just'
p7120
aS'hard'
p7121
aaa(lp7122
g7105
a(lp7123
S'from'
p7124
aaa(lp7125
g7105
a(lp7126
S'the'
p7127
aS'muscle'
p7128
aaa(lp7129
g7105
a(lp7130
S'the'
p7131
aS'muscle'
p7132
aS'was'
p7133
aS'just'
p7134
aS'hard'
p7135
aaa(lp7136
g7105
a(lp7137
S'from'
p7138
aS'just'
p7139
aS'labored'
p7140
aS'breathing'
p7141
aaa(lp7142
S'LYNNE'
p7143
a(lp7144
S'Geez'
p7145
aaa(lp7146
S'DORIS'
p7147
a(lp7148
g167
aS'trying'
p7149
aS'to'
p7150
aS'breathe'
p7151
aS'all'
p7152
aS'the'
p7153
aS'time'
p7154
ag167
aaa(lp7155
S'LYNNE'
p7156
a(lp7157
S'Thats'
p7158
aS'just'
p7159
aS'sick'
p7160
aaa(lp7161
S'Doris'
p7162
a(lp7163
S'Yeah'
p7164
aaa(lp7165
g7162
a(lp7166
S'we'
p7167
aS'thought'
p7168
aS'she'
p7169
aS'was'
p7170
aS'just'
p7171
aS'lazy'
p7172
aaa(lp7173
g7162
a(lp7174
S'and'
p7175
aS'kind'
p7176
aS'of'
p7177
aS'worthless'
p7178
aaa(lp7179
g7162
a(lp7180
S'but'
p7181
aaa(lp7182
g7162
a(lp7183
S'we'
p7184
aS'didnt'
p7185
aS'realize'
p7186
aS'what'
p7187
aS'she'
p7188
aS'was'
p7189
aS'going'
p7190
aS'through'
p7191
aaa(lp7192
S'LYNNE'
p7193
a(lp7194
S'And'
p7195
aS'you'
p7196
aS'know'
p7197
aaa(lp7198
g7193
a(lp7199
S'maybe'
p7200
aS'thats'
p7201
aS'another'
p7202
aS'reason'
p7203
aS'why'
p7204
aS'she'
p7205
aS'didnt'
p7206
aS'really'
p7207
aaa(lp7208
g7193
a(lp7209
S'maybe'
p7210
aS'mom'
p7211
aS'she'
p7212
aS'kinda'
p7213
aS'knew'
p7214
aS'about'
p7215
aS'all'
p7216
aS'this'
p7217
aS'stuff'
p7218
aaa(lp7219
g7193
a(lp7220
S'And'
p7221
aS'maybe'
p7222
aS'thats'
p7223
aS'why'
p7224
aS'she'
p7225
aS'didnt'
p7226
aS'really'
p7227
aaa(lp7228
g7193
a(lp7229
S'pay'
p7230
aS'that'
p7231
aS'much'
p7232
aS'attention'
p7233
aS'to'
p7234
aS'Amanda'
p7235
aaa(lp7236
g7193
a(lp7237
g100
aS'mean'
p7238
aS'not'
p7239
aS'because'
p7240
aaa(lp7241
g7193
a(lp7242
g100
aS'mean'
p7243
aS'it'
p7244
aS'seems'
p7245
aS'like'
p7246
aS'shed'
p7247
aS'pay'
p7248
aS'more'
p7249
aS'attention'
p7250
aS'to'
p7251
aS'her'
p7252
aaa(lp7253
g7193
a(lp7254
S'but'
p7255
aS'maybe'
p7256
aS'its'
p7257
aS'because'
p7258
aS'she'
p7259
aS'wanted'
p7260
aS'to'
p7261
aS'have'
p7262
ag213
aS'little'
p7263
aS'fun'
p7264
aS'in'
p7265
aS'her'
p7266
aS'life'
p7267
aS'too'
p7268
aaa(lp7269
g7193
a(lp7270
S'and'
p7271
aS'knew'
p7272
aS'it'
p7273
aS'wasnt'
p7274
aS'gonna'
p7275
aaa(lp7276
g7193
a(lp7277
S'last'
p7278
aS'forever'
p7279
aS'for'
p7280
aS'her'
p7281
aaa(lp7282
g7193
a(lp7283
S'You'
p7284
aS'know'
p7285
aaa(lp7286
g7193
a(lp7287
g100
aS'mean'
p7288
aaa(lp7289
g7193
a(lp7290
g100
aS'guess'
p7291
aS'like'
p7292
aS'right'
p7293
aS'before'
p7294
aS'she'
p7295
aS'died'
p7296
aS'and'
p7297
aS'stuff'
p7298
aaa(lp7299
g7193
a(lp7300
S'shes'
p7301
aS'like'
p7302
aS'telling'
p7303
aS'her'
p7304
aS'mom'
p7305
aS'like'
p7306
aaa(lp7307
g7193
a(lp7308
S'well'
p7309
aS'if'
p7310
ag100
aS'go'
p7311
aaa(lp7312
g7193
a(lp7313
g100
aS'want'
p7314
aS'this'
p7315
aS'here'
p7316
aaa(lp7317
g7193
a(lp7318
S'and'
p7319
ag100
aS'want'
p7320
aS'that'
p7321
aS'there'
p7322
aaa(lp7323
g7193
a(lp7324
S'and'
p7325
aaa(lp7326
g7193
a(lp7327
S'You'
p7328
aS'know'
p7329
aaa(lp7330
g7193
a(lp7331
S'just'
p7332
aS'little'
p7333
aS'things'
p7334
aaa(lp7335
S'LENORE'
p7336
a(lp7337
S'Is'
p7338
aS'Amanda'
p7339
aS'her'
p7340
aS'kid'
p7341
aaa(lp7342
g7336
a(lp7343
S'or'
p7344
aaa(lp7345
S'LYNNE'
p7346
a(lp7347
S'Yeah'
p7348
aaa(lp7349
S'LENORE'
p7350
a(lp7351
S'Oh'
p7352
aaa(lp7353
S'DORIS'
p7354
a(lp7355
S'she'
p7356
aS'had'
p7357
ag213
aS'little'
p7358
aS'threeyearold'
p7359
aS'daughter'
p7360
aaa(lp7361
S'LYNNE'
p7362
a(lp7363
S'Its'
p7364
aS'just'
p7365
aS'too'
p7366
aS'bad'
p7367
aaa(lp7368
g7362
a(lp7369
g100
aS'just'
p7370
aS'hope'
p7371
aS'Orville'
p7372
aS'and'
p7373
aS'Genetta'
p7374
aS'get'
p7375
aS'that'
p7376
aS'little'
p7377
aS'girl'
p7378
aaa(lp7379
S'DORIS'
p7380
a(lp7381
S'Oh'
p7382
aS'they'
p7383
aS'wont'
p7384
aaa(lp7385
g7380
a(lp7386
S'theres'
p7387
aS'no'
p7388
aaa(lp7389
S'LYNNE'
p7390
a(lp7391
S'Are'
p7392
aS'they'
p7393
aS'even'
p7394
aS'trying'
p7395
aaa(lp7396
S'DORIS'
p7397
a(lp7398
g167
aS'They'
p7399
aS'cant'
p7400
ag167
aaa(lp7401
g7397
a(lp7402
S'They'
p7403
aS'want'
p7404
aS'her'
p7405
aS'three'
p7406
aS'months'
p7407
aS'out'
p7408
aS'of'
p7409
aS'the'
p7410
aS'year'
p7411
aaa(lp7412
g7397
a(lp7413
S'but'
p7414
aS'they'
p7415
aS'have'
p7416
aS'no'
p7417
aS'legal'
p7418
aS'grounds'
p7419
aaa(lp7420
g7397
a(lp7421
g100
aS'mean'
p7422
aaa(lp7423
g7397
a(lp7424
S'You'
p7425
aS'know'
p7426
aaa(lp7427
g7397
a(lp7428
S'he'
p7429
aS'is'
p7430
aS'the'
p7431
aS'legal'
p7432
aS'father'
p7433
aaa(lp7434
g7397
a(lp7435
S'and'
p7436
aaa(lp7437
g7397
a(lp7438
S'theres'
p7439
aS'not'
p7440
aS'much'
p7441
aS'they'
p7442
aS'can'
p7443
aS'do'
p7444
aaa(lp7445
S'LENORE'
p7446
a(lp7447
g167
aS'Oh'
p7448
ag167
aS'she'
p7449
aS'was'
p7450
aS'divorced'
p7451
aaa(lp7452
S'DORIS'
p7453
a(lp7454
S'Mhm'
p7455
aaa(lp7456
S'LYNNE'
p7457
a(lp7458
S'Yeah'
p7459
aaa(lp7460
g7457
a(lp7461
S'and'
p7462
aS'he'
p7463
aS'is'
p7464
aS'such'
p7465
ag213
aS'weirdo'
p7466
aaa(lp7467
g7457
a(lp7468
S'This'
p7469
aS'is'
p7470
aS'the'
p7471
aS'type'
p7472
aS'of'
p7473
aS'person'
p7474
aaa(lp7475
g7457
a(lp7476
S'that'
p7477
aS'is'
p7478
aS'like'
p7479
ag213
aS'hermit'
p7480
aaa(lp7481
g7457
a(lp7482
g100
aS'dont'
p7483
aS'know'
p7484
aS'what'
p7485
aS'youd'
p7486
aS'call'
p7487
aS'him'
p7488
aaa(lp7489
S'DORIS'
p7490
a(lp7491
S'Well'
p7492
aS'they'
p7493
aS'were'
p7494
aS'rai'
p7495
aS'raised'
p7496
aS'backward'
p7497
aaa(lp7498
S'LYNNE'
p7499
a(lp7500
S'Hes'
p7501
aS'like'
p7502
aaa(lp7503
S'DORIS'
p7504
a(lp7505
S'Uh'
p7506
aaa(lp7507
g7504
a(lp7508
S'back'
p7509
aS'woods'
p7510
aaa(lp7511
S'LYNNE'
p7512
a(lp7513
S'Back'
p7514
aS'woodsy'
p7515
aaa(lp7516
S'DORIS'
p7517
a(lp7518
S'raised'
p7519
aS'in'
p7520
aS'the'
p7521
aS'mountains'
p7522
aaa(lp7523
g7517
a(lp7524
S'didnt'
p7525
ag1721
aaa(lp7526
S'LYNNE'
p7527
a(lp7528
S'Never'
p7529
aS'came'
p7530
aS'down'
p7531
aS'out'
p7532
aS'of'
p7533
aS'the'
p7534
aS'mountains'
p7535
aaa(lp7536
g7527
a(lp7537
S'He'
p7538
aS'doesnt'
p7539
aS'have'
p7540
aS'any'
p7541
aaa(lp7542
g7527
a(lp7543
S'He'
p7544
aS'doesnt'
p7545
aS'know'
p7546
aS'whats'
p7547
aS'going'
p7548
aS'on'
p7549
aS'in'
p7550
aS'this'
p7551
aS'world'
p7552
aaa(lp7553
S'DORIS'
p7554
a(lp7555
S'No'
p7556
aS'he'
p7557
aS'doesnt'
p7558
aaa(lp7559
g7554
a(lp7560
S'He'
p7561
aS'was'
p7562
aS'just'
p7563
aS'not'
p7564
aS'properly'
p7565
aS'brought'
p7566
aS'up'
p7567
aaa(lp7568
S'LYNNE'
p7569
a(lp7570
S'He'
p7571
aaa(lp7572
g7569
a(lp7573
g100
aS'mean'
p7574
aS'he'
p7575
aS'wouldnt'
p7576
aS'even'
p7577
aS'have'
p7578
aS'the'
p7579
aS'slightest'
p7580
aS'idea'
p7581
aS'XX'
p7582
aaa(lp7583
S'LENORE'
p7584
a(lp7585
S'Where'
p7586
aS'was'
p7587
aS'he'
p7588
aS'from'
p7589
aaa(lp7590
S'DORIS'
p7591
a(lp7592
S'Um'
p7593
aaa(lp7594
g7591
a(lp7595
g167
ag100
aS'forget'
p7596
ag167
aaa(lp7597
S'LYNNE'
p7598
a(lp7599
S'Idaho'
p7600
aaa(lp7601
S'DORIS'
p7602
a(lp7603
S'Idaho'
p7604
aaa(lp7605
g7602
a(lp7606
S'and'
p7607
aaa(lp7608
S'LYNNE'
p7609
a(lp7610
S'up'
p7611
aS'in'
p7612
aS'the'
p7613
aS'mountains'
p7614
aaa(lp7615
g7609
a(lp7616
S'In'
p7617
aS'Idaho'
p7618
aaa(lp7619
S'DORIS'
p7620
a(lp7621
S'XXX'
p7622
aaa(lp7623
g7620
a(lp7624
S'Um'
p7625
aS'Macley'
p7626
aaa(lp7627
g7620
a(lp7628
S'and'
p7629
aaa(lp7630
S'LYNNE'
p7631
a(lp7632
S'Arco'
p7633
aaa(lp7634
g7631
a(lp7635
S'Isnt'
p7636
aS'that'
p7637
aS'where'
p7638
aS'Deb'
p7639
aS'kinda'
p7640
aS'was'
p7641
aaa(lp7642
g7631
a(lp7643
S'But'
p7644
aS'hes'
p7645
aS'just'
p7646
aS'really'
p7647
aS'really'
p7648
aS'really'
p7649
aS'strange'
p7650
aaa.