(lp0
(lp1
S'DEBRA'
p2
a(lp3
S'Good'
p4
aS'afternoon'
p5
aS'ladies'
p6
aS'and'
p7
aS'gentlemen'
p8
aaa(lp9
g2
a(lp10
S'Wed'
p11
aS'like'
p12
aS'to'
p13
aS'welcome'
p14
aS'you'
p15
aS'to'
p16
aS'the'
p17
aS'Kentucky'
p18
aS'Horse'
p19
aS'Park'
p20
aaa(lp21
g2
a(lp22
S'and'
p23
aS'to'
p24
aS'the'
p25
aS'Hall'
p26
aS'of'
p27
aS'Champions'
p28
aS'presentation'
p29
aaa(lp30
g2
a(lp31
S'We'
p32
aS'have'
p33
aS'four'
p34
aS'geldings'
p35
aS'and'
p36
aS'one'
p37
aS'stallion'
p38
aS'that'
p39
aS'well'
p40
aS'present'
p41
aS'for'
p42
aS'you'
p43
aS'this'
p44
aS'afternoon'
p45
aaa(lp46
g2
a(lp47
S'and'
p48
aS'as'
p49
aS'we'
p50
aS'bring'
p51
aS'them'
p52
aS'out'
p53
aaa(lp54
g2
a(lp55
S'well'
p56
aS'give'
p57
aS'you'
p58
aS'the'
p59
aS'history'
p60
aS'on'
p61
aS'each'
p62
aS'one'
p63
aaa(lp64
g2
a(lp65
S'and'
p66
aS'please'
p67
aS'feel'
p68
aS'free'
p69
aS'to'
p70
aS'take'
p71
aS'all'
p72
aS'the'
p73
aS'pictures'
p74
aS'that'
p75
aS'you'
p76
aS'want'
p77
aaa(lp78
g2
a(lp79
S'and'
p80
aS'to'
p81
aS'ask'
p82
aS'questions'
p83
aaa(lp84
g2
a(lp85
S'Our'
p86
aS'first'
p87
aS'horse'
p88
aS'here'
p89
aS'today'
p90
aS'at'
p91
aS'the'
p92
aS'Hall'
p93
aS'of'
p94
aS'Champions'
p95
aaa(lp96
g2
a(lp97
S'is'
p98
aS'our'
p99
aS'only'
p100
aS'thoroughbred'
p101
aS'stallion'
p102
aaa(lp103
g2
a(lp104
S'This'
p105
aS'is'
p106
aS'Bold'
p107
aS'Forbes'
p108
aaa(lp109
g2
a(lp110
S'Bold'
p111
aS'Forbes'
p112
aS'is'
p113
aS'a'
p114
aS'dark'
p115
aS'bay'
p116
aS'or'
p117
aS'brown'
p118
aS'stallion'
p119
aaa(lp120
g2
a(lp121
S'and'
p122
aS'he'
p123
aS'was'
p124
aS'foaled'
p125
aS'in'
p126
aS'nineteen'
p127
aS'seventythree'
p128
aaa(lp129
g2
a(lp130
S'He'
p131
aS'is'
p132
aS'by'
p133
aS'the'
p134
aS'stallion'
p135
aS'Irish'
p136
aS'Castle'
p137
aaa(lp138
g2
a(lp139
S'and'
p140
aS'out'
p141
aS'of'
p142
aS'the'
p143
aS'unraced'
p144
aS'mare'
p145
aS'Comely'
p146
aS'Nell'
p147
aaa(lp148
g2
a(lp149
S'He'
p150
aS'was'
p151
aS'bred'
p152
aS'by'
p153
aS'Lee'
p154
aS'Eaton'
p155
aaa(lp156
g2
a(lp157
S'and'
p158
aS'Red'
p159
aS'Bull'
p160
aS'Stables'
p161
aaa(lp162
g2
a(lp163
S'This'
p164
aS'grandson'
p165
aS'of'
p166
aS'Bold'
p167
aS'Ruler'
p168
aS'was'
p169
aS'entered'
p170
aS'into'
p171
ag114
aS'sale'
p172
aS'in'
p173
aS'July'
p174
aS'of'
p175
aS'nineteen'
p176
aS'seventyfour'
p177
aaa(lp178
g2
a(lp179
S'Mister'
p180
aS'Estaban'
p181
aS'Tizol'
p182
aaa(lp183
g2
a(lp184
g114
aS'banker'
p185
aS'and'
p186
aS'real'
p187
aS'estate'
p188
aS'developer'
p189
aS'from'
p190
aS'Puerto'
p191
aS'Rico'
p192
aaa(lp193
g2
a(lp194
S'liked'
p195
aS'Bold'
p196
aS'Forbes'
p197
aS'pedigree'
p198
aaa(lp199
g2
a(lp200
S'And'
p201
aS'he'
p202
aS'liked'
p203
aS'this'
p204
aS'horse'
p205
aS'so'
p206
aS'much'
p207
aaa(lp208
g2
a(lp209
S'that'
p210
aS'he'
p211
aS'decided'
p212
aS'he'
p213
aS'was'
p214
aS'going'
p215
aS'to'
p216
aS'buy'
p217
aS'him'
p218
aaa(lp219
g2
a(lp220
S'no'
p221
aS'matter'
p222
aS'what'
p223
aS'the'
p224
aS'cost'
p225
aaa(lp226
g2
a(lp227
S'The'
p228
aS'cost'
p229
aS'ended'
p230
aS'up'
p231
aS'being'
p232
aS'fifteenthousand'
p233
aS'twohundred'
p234
aS'dollars'
p235
aaa(lp236
g2
a(lp237
S'and'
p238
aS'Bold'
p239
aS'Forbes'
p240
aS'was'
p241
aS'then'
p242
aS'shipped'
p243
aS'to'
p244
aS'El'
p245
aS'Commandante'
p246
aS'racetrack'
p247
aS'in'
p248
aS'San'
p249
aS'Juan'
p250
aS'Puerto'
p251
aS'Rico'
p252
aaa(lp253
g2
a(lp254
S'In'
p255
aS'Bold'
p256
aS'Forbes'
p257
aS'very'
p258
aS'first'
p259
aS'start'
p260
aS'in'
p261
aS'Puerto'
p262
aS'Rico'
p263
aS'as'
p264
ag114
aS'twoyearold'
p265
aaa(lp266
g2
a(lp267
S'he'
p268
aS'went'
p269
aS'off'
p270
aS'at'
p271
aS'odds'
p272
aS'of'
p273
aS'thirtyfive'
p274
aS'to'
p275
aS'one'
p276
aaa(lp277
g2
a(lp278
S'and'
p279
aS'he'
p280
aS'won'
p281
aS'that'
p282
aS'race'
p283
aS'by'
p284
aS'seventeen'
p285
aS'lengths'
p286
aaa(lp287
g2
a(lp288
S'He'
p289
aS'was'
p290
aS'entered'
p291
aS'into'
p292
aS'four'
p293
aS'more'
p294
aS'races'
p295
aaa(lp296
g2
a(lp297
S'he'
p298
aS'won'
p299
aS'them'
p300
aS'all'
p301
aaa(lp302
g2
a(lp303
S'and'
p304
aS'in'
p305
aS'doing'
p306
aS'so'
p307
aaa(lp308
g2
a(lp309
S'he'
p310
aS'was'
p311
aS'named'
p312
aS'champion'
p313
aS'twoyearold'
p314
aS'in'
p315
aS'Puerto'
p316
aS'Rico'
p317
aaa(lp318
g2
a(lp319
S'Well'
p320
aS'El'
p321
aS'Commandante'
p322
aS'is'
p323
aS'the'
p324
aS'only'
p325
aS'racetrack'
p326
aS'in'
p327
aS'Puerto'
p328
aS'Rico'
p329
aaa(lp330
g2
a(lp331
S'so'
p332
aS'it'
p333
aS'didnt'
p334
aS'take'
p335
aS'Bold'
p336
aS'Forbes'
p337
aS'too'
p338
aS'long'
p339
aS'to'
p340
aS'run'
p341
aS'out'
p342
aS'of'
p343
aS'competition'
p344
aaa(lp345
g2
a(lp346
S'So'
p347
aS'in'
p348
aS'the'
p349
aS'summer'
p350
aS'of'
p351
aS'nineteen'
p352
aS'seventyfive'
p353
aaa(lp354
g2
a(lp355
S'he'
p356
aS'was'
p357
aS'shipped'
p358
aS'to'
p359
aS'New'
p360
aS'York'
p361
aaa(lp362
g2
a(lp363
S'to'
p364
aS'his'
p365
aS'new'
p366
aS'trainer'
p367
aS'Laz'
p368
aS'Barrera'
p369
aaa(lp370
g2
a(lp371
S'In'
p372
aS'New'
p373
aS'York'
p374
aS'he'
p375
aS'won'
p376
aS'the'
p377
aS'Freemont'
p378
aS'Stakes'
p379
aaa(lp380
g2
a(lp381
S'and'
p382
aS'the'
p383
aS'Saratoga'
p384
aS'Special'
p385
aaa(lp386
g2
a(lp387
S'before'
p388
aS'he'
p389
aS'injured'
p390
aS'his'
p391
aS'shins'
p392
aaa(lp393
g2
a(lp394
S'and'
p395
aS'was'
p396
aS'given'
p397
aS'the'
p398
aS'rest'
p399
aS'of'
p400
aS'the'
p401
aS'year'
p402
aS'off'
p403
aaa(lp404
g2
a(lp405
S'Well'
p406
aS'all'
p407
aS'of'
p408
aS'Bold'
p409
aS'Forbess'
p410
aS'races'
p411
aS'up'
p412
aS'to'
p413
aS'this'
p414
aS'point'
p415
aS'had'
p416
aS'been'
p417
aS'sprints'
p418
aaa(lp419
g2
a(lp420
S'or'
p421
aS'six'
p422
aS'furlong'
p423
aS'races'
p424
aaa(lp425
g2
a(lp426
S'The'
p427
aS'Kentucky'
p428
aS'Derby'
p429
aS'is'
p430
ag114
aS'much'
p431
aS'longer'
p432
aS'race'
p433
aaa(lp434
g2
a(lp435
S'at'
p436
ag114
aS'mile'
p437
aS'and'
p438
ag114
aS'quarter'
p439
aaa(lp440
g2
a(lp441
S'So'
p442
aS'as'
p443
ag114
aS'threeyearold'
p444
aaa(lp445
g2
a(lp446
S'Forbes'
p447
aS'wasnt'
p448
aS'given'
p449
aS'much'
p450
aS'of'
p451
ag114
aS'chance'
p452
aS'at'
p453
aS'all'
p454
aS'in'
p455
aS'the'
p456
aS'Kentucky'
p457
aS'Derby'
p458
aaa(lp459
g2
a(lp460
S'But'
p461
aS'his'
p462
aS'trainer'
p463
aS'had'
p464
aS'more'
p465
aS'confidence'
p466
aS'in'
p467
aS'him'
p468
aS'than'
p469
aS'that'
p470
aaa(lp471
g2
a(lp472
S'and'
p473
aS'with'
p474
aS'Angel'
p475
aS'Cordero'
p476
aS'junior'
p477
aS'in'
p478
aS'the'
p479
aS'saddle'
p480
aaa(lp481
g2
a(lp482
S'Bold'
p483
aS'Forbes'
p484
aS'won'
p485
aS'the'
p486
aS'Kentucky'
p487
aS'Derby'
p488
aaa(lp489
g2
a(lp490
S'at'
p491
aS'odds'
p492
aS'of'
p493
aS'seventeen'
p494
aS'to'
p495
aS'one'
p496
aaa(lp497
g2
a(lp498
S'one'
p499
aS'length'
p500
aS'in'
p501
aS'front'
p502
aS'of'
p503
aS'the'
p504
aS'leader'
p505
aaa(lp506
g2
a(lp507
S'Honest'
p508
aS'Pleasure'
p509
aaa(lp510
g2
a(lp511
S'The'
p512
aS'Preakness'
p513
aS'however'
p514
aS'was'
p515
ag114
aS'disappointment'
p516
aS'for'
p517
aS'Bold'
p518
aS'Forbes'
p519
aaa(lp520
g2
a(lp521
S'He'
p522
aS'cut'
p523
aS'his'
p524
aS'left'
p525
aS'hind'
p526
aS'heel'
p527
aS'during'
p528
aS'the'
p529
aS'race'
p530
aaa(lp531
g2
a(lp532
S'but'
p533
aS'he'
p534
aS'still'
p535
aS'managed'
p536
aS'to'
p537
aS'run'
p538
aS'third'
p539
aaa(lp540
g2
a(lp541
S'But'
p542
aS'when'
p543
aS'the'
p544
aS'Belmont'
p545
aS'rolled'
p546
aS'around'
p547
aaa(lp548
g2
a(lp549
S'he'
p550
aS'had'
p551
aS'that'
p552
aS'all'
p553
aS'healed'
p554
aS'up'
p555
aaa(lp556
g2
a(lp557
S'and'
p558
aS'he'
p559
aS'won'
p560
aS'the'
p561
aS'Belmont'
p562
aS'stakes'
p563
aS'by'
p564
ag114
aS'neck'
p565
aaa(lp566
g2
a(lp567
S'In'
p568
aS'October'
p569
aaa(lp570
g2
a(lp571
S'Forbes'
p572
aS'was'
p573
aS'entered'
p574
aS'into'
p575
aS'the'
p576
aS'Vosburgh'
p577
aS'Handicap'
p578
aaa(lp579
g2
a(lp580
S'and'
p581
aS'again'
p582
aS'he'
p583
aS'severely'
p584
aS'bruised'
p585
aS'his'
p586
aS'right'
p587
aS'hind'
p588
aS'foot'
p589
aaa(lp590
g2
a(lp591
S'Again'
p592
aS'he'
p593
aS'ran'
p594
ag114
aS'very'
p595
aS'game'
p596
aS'third'
p597
aaa(lp598
g2
a(lp599
S'but'
p600
aS'after'
p601
aS'this'
p602
aS'race'
p603
aaa(lp604
g2
a(lp605
S'he'
p606
aS'was'
p607
aS'considered'
p608
aS'too'
p609
aS'valuable'
p610
ag114
aS'breeding'
p611
aS'stallion'
p612
aS'to'
p613
aS'risk'
p614
aS'any'
p615
aS'more'
p616
aS'injury'
p617
aaa(lp618
g2
a(lp619
S'So'
p620
aS'he'
p621
aS'was'
p622
aS'retired'
p623
aS'to'
p624
aS'stud'
p625
aS'from'
p626
aS'the'
p627
aS'track'
p628
aaa(lp629
g2
a(lp630
S'Bold'
p631
aS'Forbes'
p632
aS'was'
p633
aS'syndicated'
p634
aS'to'
p635
aS'stud'
p636
aS'for'
p637
ag114
aS'hundred'
p638
aS'and'
p639
aS'thirty'
p640
aS'thousand'
p641
aS'dollars'
p642
aS'per'
p643
aS'share'
p644
aaa(lp645
g2
a(lp646
S'and'
p647
aS'he'
p648
aS'stood'
p649
aS'his'
p650
aS'entire'
p651
aS'career'
p652
aS'at'
p653
aS'Arthur'
p654
aS'Hancock'
p655
aS'Stone'
p656
aS'Farm'
p657
aaa(lp658
g2
a(lp659
S'As'
p660
ag114
aS'stallion'
p661
aaa(lp662
g2
a(lp663
S'Bold'
p664
aS'Forbes'
p665
aS'produced'
p666
ag114
aS'champion'
p667
aS'filly'
p668
aS'Tiffany'
p669
aS'Lass'
p670
aaa(lp671
g2
a(lp672
g114
aS'winner'
p673
aS'of'
p674
aS'over'
p675
aS'half'
p676
ag114
aS'million'
p677
aS'dollars'
p678
aaa(lp679
g2
a(lp680
S'Bold'
p681
aS'Apparel'
p682
aaa(lp683
g2
a(lp684
g114
aS'champion'
p685
aS'filly'
p686
aS'in'
p687
aS'Italy'
p688
aaa(lp689
g2
a(lp690
S'Air'
p691
aS'Forbes'
p692
aS'One'
p693
aaa(lp694
g2
a(lp695
S'and'
p696
aS'over'
p697
aS'twohundred'
p698
aS'other'
p699
aS'winners'
p700
aaa(lp701
g2
a(lp702
S'Bold'
p703
aS'Forbes'
p704
aS'is'
p705
ag114
aS'winner'
p706
aS'of'
p707
aS'over'
p708
aS'half'
p709
ag114
aS'million'
p710
aS'dollars'
p711
aaa(lp712
g2
a(lp713
S'in'
p714
aS'just'
p715
aS'two'
p716
aS'years'
p717
aS'on'
p718
aS'the'
p719
aS'racetrack'
p720
aaa(lp721
g2
a(lp722
S'He'
p723
aS'was'
p724
aS'in'
p725
aS'eighteen'
p726
aS'races'
p727
aaa(lp728
g2
a(lp729
S'and'
p730
aS'had'
p731
aS'thirteen'
p732
aS'wins'
p733
aaa(lp734
g2
a(lp735
S'and'
p736
aS'was'
p737
aS'never'
p738
aS'worse'
p739
aS'than'
p740
aS'third'
p741
aaa(lp742
g2
a(lp743
S'He'
p744
aS'was'
p745
aS'retired'
p746
aS'from'
p747
aS'stud'
p748
aS'duty'
p749
aS'in'
p750
aS'the'
p751
aS'spring'
p752
aS'of'
p753
aS'nineteen'
p754
aS'ninetyone'
p755
aaa(lp756
g2
a(lp757
S'He'
p758
aS'is'
p759
aS'twentyone'
p760
aS'years'
p761
aS'old'
p762
aaa(lp763
g2
a(lp764
S'and'
p765
aS'stands'
p766
aS'fifteen'
p767
aS'point'
p768
aS'three'
p769
aS'hands'
p770
aS'tall'
p771
aaa(lp772
g2
a(lp773
S'Ladies'
p774
aS'and'
p775
aS'gentlemen'
p776
aaa(lp777
g2
a(lp778
S'the'
p779
aS'nineteen'
p780
aS'seventysix'
p781
aS'Kentucky'
p782
aS'Derby'
p783
aS'winner'
p784
aaa(lp785
g2
a(lp786
S'Bold'
p787
aS'Forbes'
p788
aaa(lp789
S'MANY'
p790
a(lp791
aa(lp792
S'DEBRA'
p793
a(lp794
S'Does'
p795
aS'anyone'
p796
aS'have'
p797
aS'any'
p798
aS'questions'
p799
aaa(lp800
g793
a(lp801
S'while'
p802
aS'were'
p803
aS'waiting'
p804
aS'for'
p805
aS'the'
p806
aS'next'
p807
aS'horse'
p808
aS'to'
p809
aS'come'
p810
aS'out'
p811
aaa(lp812
g793
a(lp813
S'Questions'
p814
aaa(lp815
g793
a(lp816
S'Okay'
p817
aaa(lp818
g793
a(lp819
S'while'
p820
aS'were'
p821
aS'waiting'
p822
aaa(lp823
g793
a(lp824
S'Ill'
p825
aS'just'
p826
aS'call'
p827
aS'everyones'
p828
aS'attention'
p829
aS'to'
p830
aS'this'
p831
aS'horse'
p832
aaa(lp833
g793
a(lp834
S'I'
p835
aS'dont'
p836
aS'know'
p837
aS'if'
p838
aS'everyone'
p839
aS'can'
p840
aS'see'
p841
aS'him'
p842
aaa(lp843
g793
a(lp844
S'over'
p845
aS'here'
p846
aS'in'
p847
aS'this'
p848
aS'paddock'
p849
aS'on'
p850
aS'the'
p851
aS'right'
p852
aaa(lp853
g793
a(lp854
S'this'
p855
aS'is'
p856
aS'Sergeant'
p857
aS'Pepper'
p858
aS'Feature'
p859
aaa(lp860
g793
a(lp861
S'and'
p862
aaa(lp863
g793
a(lp864
S'hes'
p865
aS'usually'
p866
aS'in'
p867
aS'our'
p868
aS'show'
p869
aaa(lp870
g793
a(lp871
S'but'
p872
aaa(lp873
g793
a(lp874
S'because'
p875
aS'Bold'
p876
aS'Forbes'
p877
aS'is'
p878
aS'up'
p879
aS'here'
p880
aS'today'
p881
aaa(lp882
g793
a(lp883
S'he'
p884
aaa(lp885
g793
a(lp886
S'We'
p887
aS'kicked'
p888
aS'him'
p889
aS'out'
p890
aaa(lp891
g793
a(lp892
S'We'
p893
aS'have'
p894
aS'six'
p895
aS'horses'
p896
aS'that'
p897
aS'belong'
p898
aS'to'
p899
aS'the'
p900
aS'Hall'
p901
aS'of'
p902
aS'Champions'
p903
aaa(lp904
g793
a(lp905
S'and'
p906
aS'only'
p907
aS'five'
p908
aS'stalls'
p909
aaa(lp910
g793
a(lp911
S'So'
p912
aS'we'
p913
aS'could'
p914
aS'only'
p915
aS'have'
p916
aS'five'
p917
aS'at'
p918
ag114
aS'time'
p919
aS'in'
p920
aS'the'
p921
aS'show'
p922
aaa(lp923
g793
a(lp924
S'Um'
p925
aaa(lp926
g793
a(lp927
S'Sergeant'
p928
aS'Pepper'
p929
aS'was'
p930
aS'the'
p931
aS'nineteen'
p932
aS'eightytwo'
p933
aS'world'
p934
aS'champion'
p935
aS'racing'
p936
aS'quarter'
p937
aS'horse'
p938
aaa(lp939
g793
a(lp940
S'and'
p941
aaa(lp942
g793
a(lp943
S'at'
p944
aS'the'
p945
aS'time'
p946
aS'of'
p947
aS'his'
p948
aS'retirement'
p949
aaa(lp950
g793
a(lp951
S'he'
p952
aS'was'
p953
aS'the'
p954
aS'eighth'
p955
aS'richest'
p956
aS'quarter'
p957
aS'horse'
p958
aS'in'
p959
aS'history'
p960
aaa(lp961
g793
a(lp962
S'and'
p963
aS'he'
p964
aS'had'
p965
aS'earnings'
p966
aS'of'
p967
aS'over'
p968
aS'ninehundred'
p969
aS'thousand'
p970
aS'dollars'
p971
aaa(lp972
g793
a(lp973
S'So'
p974
aaa(lp975
g793
a(lp976
S'on'
p977
aS'your'
p978
aS'way'
p979
aS'out'
p980
aS'today'
p981
aaa(lp982
g793
a(lp983
S'you'
p984
aS'might'
p985
aS'wanna'
p986
aS'just'
p987
aS'take'
p988
ag114
aS'look'
p989
aS'over'
p990
aS'there'
p991
aaa(lp992
g793
a(lp993
S'and'
p994
aS'say'
p995
aS'hi'
p996
aS'to'
p997
aS'Sergeant'
p998
aS'Pepper'
p999
aaa(lp1000
g793
a(lp1001
S'And'
p1002
aS'theres'
p1003
aS'Bold'
p1004
aS'Forbes'
p1005
aS'looking'
p1006
aS'out'
p1007
aS'the'
p1008
aS'window'
p1009
aaa(lp1010
g793
a(lp1011
S'If'
p1012
aS'anybody'
p1013
aS'can'
p1014
aS'see'
p1015
aS'him'
p1016
aaa(lp1017
g793
a(lp1018
S'hes'
p1019
aS'right'
p1020
aS'there'
p1021
aaa(lp1022
g793
a(lp1023
S'watching'
p1024
aS'the'
p1025
aS'show'
p1026
aaa(lp1027
g793
a(lp1028
S'Our'
p1029
aS'next'
p1030
aS'horse'
p1031
aS'is'
p1032
aS'the'
p1033
aS'first'
p1034
aS'horse'
p1035
aS'to'
p1036
aS'retire'
p1037
aS'here'
p1038
aS'to'
p1039
aS'the'
p1040
aS'Hall'
p1041
aS'of'
p1042
aS'Champions'
p1043
aaa(lp1044
g793
a(lp1045
S'that'
p1046
aS'is'
p1047
aS'not'
p1048
ag114
aS'racehorse'
p1049
aaa(lp1050
g793
a(lp1051
S'This'
p1052
aS'is'
p1053
aS'Imperator'
p1054
aaa(lp1055
g793
a(lp1056
S'And'
p1057
aS'he'
p1058
aS'is'
p1059
ag114
aS'fivegaited'
p1060
aS'American'
p1061
aS'Saddlebred'
p1062
aS'showhorse'
p1063
aaa(lp1064
g793
a(lp1065
S'Perry'
p1066
aaa(lp1067
g793
a(lp1068
S'as'
p1069
aS'he'
p1070
aS'is'
p1071
aS'commonly'
p1072
aS'called'
p1073
aaa(lp1074
g793
a(lp1075
S'is'
p1076
aS'by'
p1077
aS'the'
p1078
aS'sire'
p1079
aS'Supreme'
p1080
aS'Sultan'
p1081
aaa(lp1082
g793
a(lp1083
S'who'
p1084
aS'is'
p1085
aS'buried'
p1086
aS'in'
p1087
aS'front'
p1088
aS'of'
p1089
aS'the'
p1090
aS'saddlehorse'
p1091
aS'museum'
p1092
aS'here'
p1093
aS'at'
p1094
aS'the'
p1095
aS'Horse'
p1096
aS'Park'
p1097
aaa(lp1098
g793
a(lp1099
S'He'
p1100
aS'is'
p1101
aS'out'
p1102
aS'of'
p1103
aS'the'
p1104
aS'dam'
p1105
aS'Empress'
p1106
aS'Wing'
p1107
aaa(lp1108
g793
a(lp1109
S'and'
p1110
aS'she'
p1111
aS'is'
p1112
aS'by'
p1113
aS'the'
p1114
aS'great'
p1115
aS'sire'
p1116
aS'Wing'
p1117
aS'Commander'
p1118
aaa(lp1119
g793
a(lp1120
S'Only'
p1121
aS'Wing'
p1122
aS'Commander'
p1123
aS'holds'
p1124
aS'more'
p1125
aS'world'
p1126
aS'grand'
p1127
aS'championships'
p1128
aS'than'
p1129
aS'Imperator'
p1130
aaa(lp1131
g793
a(lp1132
S'Perry'
p1133
aS'was'
p1134
aS'born'
p1135
aS'in'
p1136
aS'Wilmette'
p1137
aS'Illinois'
p1138
aaa(lp1139
g793
a(lp1140
S'and'
p1141
aS'he'
p1142
aS'was'
p1143
aS'purchased'
p1144
aS'there'
p1145
aS'as'
p1146
ag114
aS'twoyearold'
p1147
aaa(lp1148
g793
a(lp1149
S'by'
p1150
aS'his'
p1151
aS'owner'
p1152
aaa(lp1153
g793
a(lp1154
S'Doctor'
p1155
aS'Geraldine'
p1156
aS'Meanor'
p1157
aaa(lp1158
g793
a(lp1159
S'and'
p1160
aS'then'
p1161
aS'sent'
p1162
aS'to'
p1163
aS'his'
p1164
aS'trainer'
p1165
aaa(lp1166
g793
a(lp1167
S'Don'
p1168
aS'Harris'
p1169
aaa(lp1170
g793
a(lp1171
S'of'
p1172
aS'Simpsonville'
p1173
aS'Kentucky'
p1174
aaa(lp1175
g793
a(lp1176
S'Now'
p1177
aS'Perry'
p1178
aS'and'
p1179
aS'Mister'
p1180
aS'Harris'
p1181
aS'had'
p1182
ag114
aS'very'
p1183
aS'special'
p1184
aS'bond'
p1185
aS'that'
p1186
aS'they'
p1187
aS'shared'
p1188
aaa(lp1189
g793
a(lp1190
S'They'
p1191
aS'both'
p1192
aS'had'
p1193
aS'the'
p1194
aS'same'
p1195
aS'birthday'
p1196
aaa(lp1197
g793
a(lp1198
S'And'
p1199
aS'as'
p1200
aS'the'
p1201
aS'years'
p1202
aS'went'
p1203
aS'past'
p1204
aaa(lp1205
g793
a(lp1206
S'and'
p1207
aS'Imperators'
p1208
aS'popularity'
p1209
aS'increased'
p1210
aaa(lp1211
g793
a(lp1212
S'Mister'
p1213
aS'Harris'
p1214
aS'didnt'
p1215
aS'get'
p1216
aS'too'
p1217
aS'upset'
p1218
aS'when'
p1219
aS'Perry'
p1220
aS'received'
p1221
aS'more'
p1222
aS'birthday'
p1223
aS'cards'
p1224
aS'and'
p1225
aS'presents'
p1226
aS'than'
p1227
aS'he'
p1228
aS'did'
p1229
aaa(lp1230
g793
a(lp1231
S'Being'
p1232
aS'fivegaited'
p1233
aS'means'
p1234
aS'that'
p1235
aS'Perry'
p1236
aS'performs'
p1237
aS'the'
p1238
aS'three'
p1239
aS'natural'
p1240
aS'gaits'
p1241
aaa(lp1242
g793
a(lp1243
S'the'
p1244
aS'walk'
p1245
aS'trot'
p1246
aS'and'
p1247
aS'canter'
p1248
aaa(lp1249
g793
a(lp1250
S'plus'
p1251
aS'two'
p1252
aS'manmade'
p1253
aS'gaits'
p1254
aaa(lp1255
g793
a(lp1256
S'the'
p1257
aS'slow'
p1258
aS'gait'
p1259
aS'and'
p1260
aS'the'
p1261
aS'rack'
p1262
aaa(lp1263
g793
a(lp1264
S'The'
p1265
aS'only'
p1266
aS'difference'
p1267
aS'in'
p1268
aS'these'
p1269
aS'gaits'
p1270
aS'are'
p1271
aS'the'
p1272
aS'speed'
p1273
aS'at'
p1274
aS'which'
p1275
aS'theyre'
p1276
aS'performed'
p1277
aaa(lp1278
g793
a(lp1279
S'Perrys'
p1280
aS'greatest'
p1281
aS'accomplishment'
p1282
aS'was'
p1283
aS'winning'
p1284
aS'the'
p1285
aS'fivegaited'
p1286
aS'world'
p1287
aS'grand'
p1288
aS'championship'
p1289
aS'four'
p1290
aS'times'
p1291
aaa(lp1292
g793
a(lp1293
S'And'
p1294
aS'he'
p1295
aS'has'
p1296
aS'also'
p1297
aS'been'
p1298
aS'reserve'
p1299
aS'world'
p1300
aS'champion'
p1301
aS'five'
p1302
aS'times'
p1303
aaa(lp1304
g793
a(lp1305
S'He'
p1306
aS'was'
p1307
aS'shown'
p1308
aS'eightyfive'
p1309
aS'times'
p1310
aaa(lp1311
g793
a(lp1312
S'at'
p1313
aS'fortyfour'
p1314
aS'shows'
p1315
aS'around'
p1316
aS'the'
p1317
aS'country'
p1318
aaa(lp1319
g793
a(lp1320
S'He'
p1321
aS'has'
p1322
aS'sixtyeight'
p1323
aS'blue'
p1324
aS'ribbons'
p1325
aaa(lp1326
g793
a(lp1327
S'thirteen'
p1328
aS'seconds'
p1329
aaa(lp1330
g793
a(lp1331
S'and'
p1332
aS'very'
p1333
aS'rarely'
p1334
aS'was'
p1335
aS'he'
p1336
aS'ever'
p1337
aS'worse'
p1338
aS'than'
p1339
aS'third'
p1340
aaa(lp1341
g793
a(lp1342
S'Now'
p1343
aS'the'
p1344
aS'first'
p1345
aS'time'
p1346
aS'Perry'
p1347
aS'was'
p1348
aS'shown'
p1349
aaa(lp1350
g793
a(lp1351
S'he'
p1352
aS'was'
p1353
aS'very'
p1354
aS'wild'
p1355
aS'and'
p1356
aS'inexperienced'
p1357
aaa(lp1358
g793
a(lp1359
S'and'
p1360
aS'he'
p1361
aS'stepped'
p1362
aS'on'
p1363
aS'just'
p1364
aS'about'
p1365
aS'every'
p1366
aS'foot'
p1367
aS'in'
p1368
aS'the'
p1369
aS'show'
p1370
aS'ring'
p1371
aaa(lp1372
g793
a(lp1373
S'And'
p1374
aS'he'
p1375
aS'even'
p1376
aS'chased'
p1377
aS'the'
p1378
aS'judges'
p1379
aS'out'
p1380
aS'of'
p1381
aS'the'
p1382
aS'ring'
p1383
aS'on'
p1384
aS'several'
p1385
aS'occasions'
p1386
aaa(lp1387
g793
a(lp1388
S'But'
p1389
aS'the'
p1390
aS'second'
p1391
aS'time'
p1392
aS'he'
p1393
aS'was'
p1394
aS'shown'
p1395
aaa(lp1396
g793
a(lp1397
S'he'
p1398
aS'had'
p1399
aS'improved'
p1400
aS'so'
p1401
aS'much'
p1402
aaa(lp1403
g793
a(lp1404
S'the'
p1405
aS'judges'
p1406
aS'said'
p1407
aS'he'
p1408
aS'would'
p1409
aS'have'
p1410
aS'won'
p1411
aS'if'
p1412
aS'hed'
p1413
aS'been'
p1414
aS'lying'
p1415
aS'on'
p1416
aS'his'
p1417
aS'back'
p1418
aaa(lp1419
g793
a(lp1420
S'with'
p1421
aS'all'
p1422
aS'four'
p1423
aS'feet'
p1424
aS'stuck'
p1425
aS'up'
p1426
aS'in'
p1427
aS'the'
p1428
aS'air'
p1429
aaa(lp1430
g793
a(lp1431
S'Perrys'
p1432
aS'most'
p1433
aS'beautiful'
p1434
aS'characteristic'
p1435
aS'during'
p1436
aS'his'
p1437
aS'show'
p1438
aS'career'
p1439
aS'was'
p1440
aS'his'
p1441
aS'tail'
p1442
aaa(lp1443
g793
a(lp1444
S'At'
p1445
aS'the'
p1446
aS'highlight'
p1447
aS'of'
p1448
aS'his'
p1449
aS'career'
p1450
aaa(lp1451
g793
a(lp1452
S'Perrys'
p1453
aS'tail'
p1454
aS'was'
p1455
aS'fourteen'
p1456
aS'feet'
p1457
aS'long'
p1458
aaa(lp1459
g793
a(lp1460
S'and'
p1461
aS'could'
p1462
aS'be'
p1463
aS'wrapped'
p1464
aS'completely'
p1465
aS'around'
p1466
aS'his'
p1467
aS'body'
p1468
aaa(lp1469
g793
a(lp1470
S'If'
p1471
aS'you'
p1472
aS'wanted'
p1473
aS'to'
p1474
aS'take'
p1475
ag114
aS'picture'
p1476
aS'of'
p1477
aS'all'
p1478
aS'of'
p1479
aS'Perry'
p1480
aaa(lp1481
g793
a(lp1482
S'you'
p1483
aS'had'
p1484
aS'to'
p1485
aS'take'
p1486
aS'two'
p1487
aS'pictures'
p1488
aS'to'
p1489
aS'include'
p1490
aS'all'
p1491
aS'of'
p1492
aS'his'
p1493
aS'tail'
p1494
aaa(lp1495
g793
a(lp1496
S'When'
p1497
aS'Perry'
p1498
aS'was'
p1499
aS'retired'
p1500
aaa(lp1501
g793
a(lp1502
S'Mister'
p1503
aS'Harris'
p1504
aS'cut'
p1505
aS'his'
p1506
aS'tail'
p1507
aaa(lp1508
g793
a(lp1509
S'to'
p1510
aS'make'
p1511
aS'it'
p1512
aS'easier'
p1513
aS'to'
p1514
aS'care'
p1515
aS'for'
p1516
aaa(lp1517
g793
a(lp1518
S'and'
p1519
aS'he'
p1520
aS'was'
p1521
aS'able'
p1522
aS'to'
p1523
aS'make'
p1524
aS'three'
p1525
aS'false'
p1526
aS'tails'
p1527
aS'from'
p1528
aS'the'
p1529
aS'hair'
p1530
aS'he'
p1531
aS'had'
p1532
aS'taken'
p1533
aS'from'
p1534
aS'Perrys'
p1535
aS'tail'
p1536
aaa(lp1537
g793
a(lp1538
S'Well'
p1539
aS'Perry'
p1540
aS'had'
p1541
aS'been'
p1542
aS'retired'
p1543
aS'here'
p1544
aS'for'
p1545
aS'about'
p1546
aS'two'
p1547
aS'years'
p1548
aaa(lp1549
g793
a(lp1550
S'but'
p1551
aS'had'
p1552
aS'never'
p1553
aS'had'
p1554
ag114
aS'formal'
p1555
aS'retirement'
p1556
aaa(lp1557
g793
a(lp1558
S'So'
p1559
aS'in'
p1560
aS'August'
p1561
aS'of'
p1562
aS'nineteen'
p1563
aS'ninetyone'
p1564
aaa(lp1565
g793
a(lp1566
S'Perry'
p1567
aS'was'
p1568
aS'formally'
p1569
aS'retired'
p1570
aS'at'
p1571
aS'the'
p1572
aS'world'
p1573
aS'championship'
p1574
aS'horse'
p1575
aS'show'
p1576
aS'in'
p1577
aS'Louisville'
p1578
aS'Kentucky'
p1579
aaa(lp1580
g793
a(lp1581
S'That'
p1582
aS'night'
p1583
aaa(lp1584
g793
a(lp1585
S'Imperator'
p1586
aS'and'
p1587
aS'his'
p1588
aS'trainer'
p1589
aaa(lp1590
g793
a(lp1591
S'Mister'
p1592
aS'Don'
p1593
aS'Harris'
p1594
aaa(lp1595
g793
a(lp1596
S'stepped'
p1597
aS'into'
p1598
aS'the'
p1599
aS'ring'
p1600
aaa(lp1601
g793
a(lp1602
S'one'
p1603
aS'last'
p1604
aS'time'
p1605
aS'together'
p1606
aaa(lp1607
g793
a(lp1608
S'and'
p1609
aS'were'
p1610
aS'both'
p1611
aS'named'
p1612
aS'the'
p1613
aS'American'
p1614
aS'Saddlebred'
p1615
aS'horse'
p1616
aS'and'
p1617
aS'trainer'
p1618
aS'for'
p1619
aS'the'
p1620
aS'decade'
p1621
aS'of'
p1622
aS'the'
p1623
aS'nineteeneighties'
p1624
aaa(lp1625
g793
a(lp1626
S'Perry'
p1627
aS'is'
p1628
aS'now'
p1629
aS'twenty'
p1630
aS'years'
p1631
aS'old'
p1632
aaa(lp1633
g793
a(lp1634
S'and'
p1635
aS'stands'
p1636
aS'fifteen'
p1637
aS'point'
p1638
aS'three'
p1639
aS'hands'
p1640
aS'tall'
p1641
aaa(lp1642
g793
a(lp1643
S'Ladies'
p1644
aS'and'
p1645
aS'gentlemen'
p1646
aaa(lp1647
g793
a(lp1648
S'the'
p1649
aS'fourtime'
p1650
aS'world'
p1651
aS'grand'
p1652
aS'champion'
p1653
aaa(lp1654
g793
a(lp1655
S'Imperator'
p1656
aaa(lp1657
S'MANY'
p1658
a(lp1659
aa(lp1660
S'DEBRA'
p1661
a(lp1662
S'Does'
p1663
aS'anyone'
p1664
aS'have'
p1665
aS'any'
p1666
aS'questions'
p1667
aaa(lp1668
g1661
a(lp1669
S'while'
p1670
aS'were'
p1671
aaa(lp1672
g1661
a(lp1673
S'Yes'
p1674
aaa(lp1675
S'AUD'
p1676
a(lp1677
S'Whats'
p1678
aS'the'
p1679
aS'average'
p1680
aS'age'
p1681
aS'that'
p1682
ag114
aS'horse'
p1683
aS'lives'
p1684
aS'to'
p1685
aaa(lp1686
S'DEBRA'
p1687
a(lp1688
S'A'
p1689
aS'good'
p1690
aS'average'
p1691
aS'is'
p1692
aS'about'
p1693
aS'twentyeight'
p1694
aaa(lp1695
g1687
a(lp1696
S'if'
p1697
aS'theyre'
p1698
aS'well'
p1699
aS'taken'
p1700
aS'care'
p1701
aS'of'
p1702
aaa(lp1703
g1687
a(lp1704
S'Um'
p1705
aaa(lp1706
g1687
a(lp1707
g114
aS'lotta'
p1708
aS'horses'
p1709
aS'will'
p1710
aS'live'
p1711
aS'into'
p1712
aS'their'
p1713
aS'thirties'
p1714
aaa(lp1715
g1687
a(lp1716
g1689
ag114
aS'good'
p1717
aS'way'
p1718
aS'to'
p1719
aS'compare'
p1720
aS'horse'
p1721
aS'ages'
p1722
aS'to'
p1723
aS'humans'
p1724
aaa(lp1725
g1687
a(lp1726
S'is'
p1727
aS'to'
p1728
aS'multiply'
p1729
aS'by'
p1730
aS'three'
p1731
aaa(lp1732
g1687
a(lp1733
S'And'
p1734
aaa(lp1735
g1687
a(lp1736
S'Except'
p1737
aaa(lp1738
g1687
a(lp1739
g835
aS'think'
p1740
aS'the'
p1741
aS'oldest'
p1742
aS'liv'
p1743
aaa(lp1744
g1687
a(lp1745
S'Oh'
p1746
aaa(lp1747
g1687
a(lp1748
S'oldest'
p1749
aS'horse'
p1750
aS'on'
p1751
aS'record'
p1752
aaa(lp1753
g1687
a(lp1754
g835
aS'think'
p1755
aS'in'
p1756
aS'the'
p1757
aS'Guinness'
p1758
aS'Book'
p1759
aS'of'
p1760
aS'World'
p1761
aS'Records'
p1762
aaa(lp1763
g1687
a(lp1764
S'was'
p1765
aS'sixtytwo'
p1766
aaa(lp1767
g1687
a(lp1768
S'So'
p1769
aS'dont'
p1770
aS'multiply'
p1771
aS'that'
p1772
aS'that'
p1773
aS'one'
p1774
aS'by'
p1775
aS'three'
p1776
aaa(lp1777
g1687
a(lp1778
S'That'
p1779
aS'would'
p1780
aS'be'
p1781
aS'what'
p1782
aaa(lp1783
g1687
a(lp1784
S'Are'
p1785
aS'there'
p1786
aS'any'
p1787
aS'other'
p1788
aS'questions'
p1789
aaa(lp1790
g1687
a(lp1791
S'No'
p1792
aaa(lp1793
g1687
a(lp1794
S'If'
p1795
aS'anyones'
p1796
aS'interested'
p1797
aS'in'
p1798
aS'seeing'
p1799
aS'what'
p1800
aS'Perry'
p1801
aS'looked'
p1802
aS'like'
p1803
aaa(lp1804
g1687
a(lp1805
S'when'
p1806
aS'he'
p1807
aS'had'
p1808
aS'his'
p1809
aS'fourteenfoot'
p1810
aS'tail'
p1811
aaa(lp1812
g1687
a(lp1813
S'um'
p1814
aaa(lp1815
g1687
a(lp1816
S'when'
p1817
aS'you'
p1818
aS'come'
p1819
aS'into'
p1820
aS'the'
p1821
aS'visitor'
p1822
aS'center'
p1823
aaa(lp1824
g1687
a(lp1825
g835
aS'dont'
p1826
aS'know'
p1827
aS'if'
p1828
aS'if'
p1829
aS'anybody'
p1830
aS'noticed'
p1831
aS'this'
p1832
aaa(lp1833
g1687
a(lp1834
S'theres'
p1835
ag114
aS'TV'
p1836
aS'monitor'
p1837
aS'right'
p1838
aS'after'
p1839
aS'you'
p1840
aaa(lp1841
g1687
a(lp1842
S'Where'
p1843
aS'you'
p1844
aS'buy'
p1845
aS'your'
p1846
aS'tickets'
p1847
aS'when'
p1848
aS'you'
p1849
aS'come'
p1850
aS'in'
p1851
aaa(lp1852
g1687
a(lp1853
S'and'
p1854
aS'you'
p1855
aS'look'
p1856
aS'up'
p1857
aaa(lp1858
g1687
a(lp1859
S'and'
p1860
aS'theres'
p1861
ag114
aaa(lp1862
g1687
a(lp1863
S'An'
p1864
aS'ongoing'
p1865
aS'Hall'
p1866
aS'of'
p1867
aS'Champions'
p1868
aS'presentation'
p1869
aS'on'
p1870
aS'this'
p1871
aS'TV'
p1872
aS'monitor'
p1873
aS'up'
p1874
aS'there'
p1875
aaa(lp1876
g1687
a(lp1877
S'and'
p1878
aS'uh'
p1879
aaa(lp1880
g1687
a(lp1881
S'theres'
p1882
ag114
aS'little'
p1883
aS'clip'
p1884
aS'of'
p1885
aS'Imperator'
p1886
aS'on'
p1887
aS'there'
p1888
aaa(lp1889
g1687
a(lp1890
S'and'
p1891
ag835
aS'think'
p1892
aS'hes'
p1893
aS'slowgaiting'
p1894
aaa(lp1895
g1687
a(lp1896
S'which'
p1897
aS'was'
p1898
aS'his'
p1899
aS'most'
p1900
aS'beautiful'
p1901
aS'gait'
p1902
aaa(lp1903
g1687
a(lp1904
S'um'
p1905
aaa(lp1906
g1687
a(lp1907
S'and'
p1908
aS'you'
p1909
aS'can'
p1910
aS'see'
p1911
aS'his'
p1912
aS'fourteenfoot'
p1913
aS'tail'
p1914
aS'up'
p1915
aS'there'
p1916
aaa(lp1917
g1687
a(lp1918
S'and'
p1919
aS'that'
p1920
aS'was'
p1921
aaa(lp1922
g1687
a(lp1923
S'It'
p1924
aS'was'
p1925
aS'really'
p1926
aS'beautiful'
p1927
aaa(lp1928
g1687
a(lp1929
S'Do'
p1930
aS'you'
p1931
aS'have'
p1932
ag114
aS'question'
p1933
aaa(lp1934
g1687
a(lp1935
S'Back'
p1936
aS'there'
p1937
aaa(lp1938
S'AUD'
p1939
a(lp1940
S'He'
p1941
aS'wants'
p1942
aS'to'
p1943
aS'know'
p1944
aS'how'
p1945
aS'you'
p1946
aS'say'
p1947
aS'hi'
p1948
aS'to'
p1949
ag114
aS'horse'
p1950
aaa(lp1951
S'DEBRA'
p1952
a(lp1953
S'Um'
p1954
aaa(lp1955
g1952
a(lp1956
S'just'
p1957
aS'say'
p1958
aS'hi'
p1959
aaa(lp1960
g1952
a(lp1961
S'You'
p1962
aS'can'
p1963
aS'just'
p1964
aS'say'
p1965
aS'hi'
p1966
aaa(lp1967
g1952
a(lp1968
S'and'
p1969
aS'they'
p1970
aaa(lp1971
g1952
a(lp1972
S'And'
p1973
aS'you'
p1974
aS'can'
p1975
aS'say'
p1976
aS'their'
p1977
aS'name'
p1978
aaa(lp1979
g1952
a(lp1980
S'cause'
p1981
aS'they'
p1982
aS'know'
p1983
aS'their'
p1984
aS'names'
p1985
aaa(lp1986
g1952
a(lp1987
S'So'
p1988
aS'if'
p1989
aS'you'
p1990
aS'wanted'
p1991
aS'to'
p1992
aS'say'
p1993
aS'hi'
p1994
aS'to'
p1995
aS'Imperator'
p1996
aaa(lp1997
g1952
a(lp1998
S'just'
p1999
aaa(lp2000
g1952
a(lp2001
S'And'
p2002
aS'he'
p2003
aS'goes'
p2004
aS'by'
p2005
aS'Perry'
p2006
aaa(lp2007
g1952
a(lp2008
S'so'
p2009
aS'if'
p2010
aS'you'
p2011
aS'just'
p2012
aS'come'
p2013
aS'up'
p2014
aS'to'
p2015
aS'him'
p2016
aS'and'
p2017
aS'say'
p2018
aS'VOX'
p2019
aS'hi'
p2020
aS'Perry'
p2021
aS'VOX'
p2022
aaa(lp2023
g1952
a(lp2024
S'hell'
p2025
aS'know'
p2026
aS'youre'
p2027
aS'talking'
p2028
aS'to'
p2029
aS'him'
p2030
aaa(lp2031
g1952
a(lp2032
S'Our'
p2033
aS'next'
p2034
aS'horse'
p2035
aS'is'
p2036
aS'one'
p2037
aS'of'
p2038
aS'our'
p2039
aS'two'
p2040
aS'thoroughbred'
p2041
aS'geldings'
p2042
aS'here'
p2043
aS'at'
p2044
aS'the'
p2045
aS'Hall'
p2046
aS'of'
p2047
aS'Champions'
p2048
aaa(lp2049
g1952
a(lp2050
S'this'
p2051
aS'is'
p2052
aS'Forego'
p2053
aaa(lp2054
g1952
a(lp2055
S'Forego'
p2056
aS'is'
p2057
aS'by'
p2058
aS'the'
p2059
aS'Argentine'
p2060
aS'stallion'
p2061
aS'Forli'
p2062
aaa(lp2063
g1952
a(lp2064
S'and'
p2065
aS'he'
p2066
aS'is'
p2067
aS'out'
p2068
aS'of'
p2069
aS'the'
p2070
aS'champion'
p2071
aS'race'
p2072
aS'mare'
p2073
aS'Lady'
p2074
aS'Golconda'
p2075
aaa(lp2076
g1952
a(lp2077
S'He'
p2078
aS'was'
p2079
aS'bred'
p2080
aS'and'
p2081
aS'raised'
p2082
aS'at'
p2083
aS'Claiborne'
p2084
aS'Farm'
p2085
aS'in'
p2086
aS'Paris'
p2087
aS'Kentucky'
p2088
aaa(lp2089
g1952
a(lp2090
S'Due'
p2091
aS'to'
p2092
aS'Foregos'
p2093
aS'large'
p2094
aS'size'
p2095
aaa(lp2096
g1952
a(lp2097
S'he'
p2098
aS'was'
p2099
aS'not'
p2100
aS'raced'
p2101
aS'as'
p2102
ag114
aS'twoyearold'
p2103
aaa(lp2104
g1952
a(lp2105
S'because'
p2106
aS'his'
p2107
aS'owners'
p2108
aS'thought'
p2109
aS'they'
p2110
aS'would'
p2111
aS'give'
p2112
aS'him'
p2113
aS'more'
p2114
aS'time'
p2115
aS'to'
p2116
aS'mature'
p2117
aaa(lp2118
g1952
a(lp2119
S'He'
p2120
aS'started'
p2121
aS'his'
p2122
aS'racing'
p2123
aS'career'
p2124
aS'as'
p2125
ag114
aS'threeyearold'
p2126
aaa(lp2127
g1952
a(lp2128
S'And'
p2129
aS'he'
p2130
aS'ran'
p2131
aS'well'
p2132
aS'enough'
p2133
aS'to'
p2134
aS'be'
p2135
aS'entered'
p2136
aS'in'
p2137
aS'the'
p2138
aS'nineteen'
p2139
aS'seventythree'
p2140
aS'Kentucky'
p2141
aS'Derby'
p2142
aaa(lp2143
g1952
a(lp2144
S'Well'
p2145
aS'you'
p2146
aS'may'
p2147
aS'recall'
p2148
aS'that'
p2149
aS'this'
p2150
aS'was'
p2151
aS'the'
p2152
aS'year'
p2153
aS'that'
p2154
ag114
aS'horse'
p2155
aS'named'
p2156
aS'Secretariat'
p2157
aS'won'
p2158
aS'the'
p2159
aS'Kentucky'
p2160
aS'Derby'
p2161
aaa(lp2162
g1952
a(lp2163
S'on'
p2164
aS'his'
p2165
aS'way'
p2166
aS'to'
p2167
aS'sweeping'
p2168
aS'the'
p2169
aS'Triple'
p2170
aS'Crown'
p2171
aaa(lp2172
g1952
a(lp2173
S'Well'
p2174
aS'Forego'
p2175
aS'wasnt'
p2176
aS'as'
p2177
aS'successful'
p2178
aS'as'
p2179
aS'Secretariat'
p2180
aS'that'
p2181
aS'day'
p2182
aaa(lp2183
g1952
a(lp2184
S'But'
p2185
aS'he'
p2186
aS'did'
p2187
aS'run'
p2188
ag114
aS'fine'
p2189
aS'race'
p2190
aaa(lp2191
g1952
a(lp2192
S'He'
p2193
aS'was'
p2194
aS'involved'
p2195
aS'in'
p2196
ag114
aS'bumping'
p2197
aS'incident'
p2198
aaa(lp2199
g1952
a(lp2200
S'as'
p2201
aS'the'
p2202
aS'horses'
p2203
aS'left'
p2204
aS'the'
p2205
aS'starting'
p2206
aS'gate'
p2207
aaa(lp2208
g1952
a(lp2209
S'He'
p2210
aS'recovered'
p2211
aS'from'
p2212
aS'that'
p2213
aaa(lp2214
g1952
a(lp2215
S'but'
p2216
aS'he'
p2217
aS'and'
p2218
aS'another'
p2219
aS'horse'
p2220
aaa(lp2221
g1952
a(lp2222
S'Our'
p2223
aS'Native'
p2224
aaa(lp2225
g1952
a(lp2226
S'bumped'
p2227
aS'through'
p2228
aS'the'
p2229
aS'entire'
p2230
aS'stretch'
p2231
aaa(lp2232
g1952
a(lp2233
S'and'
p2234
aS'both'
p2235
aS'horses'
p2236
aS'ended'
p2237
aS'in'
p2238
ag114
aS'photo'
p2239
aS'finish'
p2240
aS'for'
p2241
aS'third'
p2242
aaa(lp2243
g1952
a(lp2244
S'After'
p2245
aS'the'
p2246
aS'stewards'
p2247
aS'inquiry'
p2248
aaa(lp2249
g1952
a(lp2250
S'Forego'
p2251
aS'had'
p2252
aS'to'
p2253
aS'settle'
p2254
aS'for'
p2255
aS'fourth'
p2256
aaa(lp2257
g1952
a(lp2258
S'because'
p2259
aS'the'
p2260
aS'steward'
p2261
aS'said'
p2262
aS'the'
p2263
aS'bumping'
p2264
aS'was'
p2265
aS'all'
p2266
aS'his'
p2267
aS'fault'
p2268
aaa(lp2269
g1952
a(lp2270
S'The'
p2271
aS'older'
p2272
aS'Forego'
p2273
aS'got'
p2274
aaa(lp2275
g1952
a(lp2276
S'the'
p2277
aS'better'
p2278
aS'he'
p2279
aS'got'
p2280
aaa(lp2281
g1952
a(lp2282
S'and'
p2283
aS'he'
p2284
aS'became'
p2285
aS'one'
p2286
aS'of'
p2287
aS'the'
p2288
aS'greatest'
p2289
aS'handicap'
p2290
aS'horses'
p2291
aS'to'
p2292
aS'ever'
p2293
aS'race'
p2294
aaa(lp2295
g1952
a(lp2296
S'He'
p2297
aS'has'
p2298
aS'also'
p2299
aS'been'
p2300
aS'voted'
p2301
aS'one'
p2302
aS'of'
p2303
aS'the'
p2304
aS'top'
p2305
aS'ten'
p2306
aS'racehorses'
p2307
aS'of'
p2308
aS'the'
p2309
aS'century'
p2310
aaa(lp2311
g1952
a(lp2312
S'Being'
p2313
ag114
aS'handicap'
p2314
aS'horse'
p2315
aS'means'
p2316
aS'that'
p2317
aS'Forego'
p2318
aS'ha'
p2319
aaa(lp2320
g1952
a(lp2321
S'Forego'
p2322
aS'had'
p2323
aS'to'
p2324
aS'carry'
p2325
ag114
aS'lot'
p2326
aS'of'
p2327
aS'extra'
p2328
aS'weight'
p2329
aaa(lp2330
g1952
a(lp2331
S'over'
p2332
aS'whatever'
p2333
aS'distance'
p2334
aS'he'
p2335
aS'was'
p2336
aS'asked'
p2337
aS'to'
p2338
aS'run'
p2339
aaa(lp2340
g1952
a(lp2341
S'in'
p2342
aS'order'
p2343
aS'to'
p2344
aS'give'
p2345
aS'the'
p2346
aS'other'
p2347
aS'horses'
p2348
aS'more'
p2349
aS'of'
p2350
ag114
aS'chance'
p2351
aaa(lp2352
g1952
a(lp2353
S'He'
p2354
aS'was'
p2355
aS'in'
p2356
aS'thirtyfour'
p2357
aS'handicap'
p2358
aS'events'
p2359
aaa(lp2360
g1952
a(lp2361
S'and'
p2362
aS'thirty'
p2363
aS'times'
p2364
aaa(lp2365
g1952
a(lp2366
S'he'
p2367
aS'was'
p2368
aS'the'
p2369
aS'highweighted'
p2370
aS'horse'
p2371
aaa(lp2372
g1952
a(lp2373
S'The'
p2374
aS'most'
p2375
aS'weight'
p2376
aS'Forego'
p2377
aS'ever'
p2378
aS'had'
p2379
aS'to'
p2380
aS'carry'
p2381
aS'to'
p2382
aS'victory'
p2383
aaa(lp2384
g1952
a(lp2385
S'was'
p2386
ag114
aS'hundred'
p2387
aS'and'
p2388
aS'thirtyseven'
p2389
aS'pounds'
p2390
aaa(lp2391
g1952
a(lp2392
S'And'
p2393
aS'that'
p2394
aS'was'
p2395
aS'in'
p2396
aS'the'
p2397
aS'nineteen'
p2398
aS'seventysix'
p2399
aS'Marlboro'
p2400
aS'Cup'
p2401
aaa(lp2402
g1952
a(lp2403
S'Well'
p2404
aS'before'
p2405
aS'the'
p2406
aS'race'
p2407
aS'it'
p2408
aS'had'
p2409
aS'rained'
p2410
aaa(lp2411
g1952
a(lp2412
S'and'
p2413
aS'the'
p2414
aS'track'
p2415
aS'was'
p2416
aS'sloppy'
p2417
aaa(lp2418
g1952
a(lp2419
S'and'
p2420
aS'Forego'
p2421
aS'was'
p2422
aS'always'
p2423
ag114
aS'little'
p2424
aS'wimpy'
p2425
aS'about'
p2426
aS'getting'
p2427
aS'his'
p2428
aS'feet'
p2429
aS'wet'
p2430
aaa(lp2431
g1952
a(lp2432
S'So'
p2433
aS'as'
p2434
aS'the'
p2435
aS'field'
p2436
aS'turned'
p2437
aS'for'
p2438
aS'home'
p2439
aaa(lp2440
g1952
a(lp2441
S'it'
p2442
aS'looked'
p2443
aS'just'
p2444
aS'as'
p2445
aS'if'
p2446
aS'he'
p2447
aS'was'
p2448
aS'hopelessly'
p2449
aS'beaten'
p2450
aaa(lp2451
g1952
a(lp2452
S'some'
p2453
aS'ten'
p2454
aS'lengths'
p2455
aS'behind'
p2456
aS'the'
p2457
aS'leader'
p2458
aS'Honest'
p2459
aS'Pleasure'
p2460
aaa(lp2461
g1952
a(lp2462
S'Honest'
p2463
aS'Pleasure'
p2464
aS'had'
p2465
aS'been'
p2466
aS'the'
p2467
aS'Kentucky'
p2468
aS'Derby'
p2469
aS'favorite'
p2470
aS'that'
p2471
aS'year'
p2472
aaa(lp2473
g1952
a(lp2474
S'He'
p2475
aS'was'
p2476
aS'three'
p2477
aS'years'
p2478
aS'younger'
p2479
aS'than'
p2480
aS'Forego'
p2481
aaa(lp2482
g1952
a(lp2483
S'and'
p2484
aS'was'
p2485
aS'carrying'
p2486
aS'almost'
p2487
aS'twenty'
p2488
aS'pounds'
p2489
aS'less'
p2490
aS'in'
p2491
aS'weight'
p2492
aaa(lp2493
g1952
a(lp2494
S'But'
p2495
aS'determined'
p2496
aS'to'
p2497
aS'win'
p2498
aaa(lp2499
g1952
a(lp2500
S'Forego'
p2501
aS'made'
p2502
aS'up'
p2503
aS'that'
p2504
aS'last'
p2505
aS'quarter'
p2506
aS'mile'
p2507
aaa(lp2508
g1952
a(lp2509
S'in'
p2510
aS'twentytwo'
p2511
aS'seconds'
p2512
aS'flat'
p2513
aaa(lp2514
g1952
a(lp2515
S'and'
p2516
aS'he'
p2517
aS'beat'
p2518
aS'Honest'
p2519
aS'Pleasure'
p2520
aS'at'
p2521
aS'the'
p2522
aS'wire'
p2523
aaa(lp2524
g1952
a(lp2525
S'The'
p2526
aS'jockey'
p2527
aS'that'
p2528
aS'rode'
p2529
aS'Forego'
p2530
aaa(lp2531
g1952
a(lp2532
S'the'
p2533
aS'great'
p2534
aS'Willy'
p2535
aS'Shoemaker'
p2536
aaa(lp2537
g1952
a(lp2538
S'said'
p2539
aS'there'
p2540
aS'wasnt'
p2541
ag114
aS'horse'
p2542
aS'alive'
p2543
aaa(lp2544
g1952
a(lp2545
S'that'
p2546
aS'couldve'
p2547
aS'beaten'
p2548
aS'Forego'
p2549
aS'on'
p2550
aS'that'
p2551
aS'day'
p2552
aaa(lp2553
g1952
a(lp2554
S'Forego'
p2555
aS'was'
p2556
aS'named'
p2557
aS'horse'
p2558
aS'of'
p2559
aS'the'
p2560
aS'year'
p2561
aaa(lp2562
g1952
a(lp2563
S'three'
p2564
aS'consecutive'
p2565
aS'years'
p2566
aaa(lp2567
g1952
a(lp2568
S'in'
p2569
aS'nineteen'
p2570
aS'seventyfour'
p2571
aS'seventyfive'
p2572
aS'and'
p2573
aS'seventysix'
p2574
aaa(lp2575
g1952
a(lp2576
S'And'
p2577
aS'he'
p2578
aS'has'
p2579
aS'also'
p2580
aS'been'
p2581
aS'champion'
p2582
aS'sprinter'
p2583
aaa(lp2584
g1952
a(lp2585
S'as'
p2586
aS'well'
p2587
aS'as'
p2588
aS'champion'
p2589
aS'handicap'
p2590
aS'horse'
p2591
aaa(lp2592
g1952
a(lp2593
S'An'
p2594
aS'Eclipse'
p2595
aS'Award'
p2596
aS'is'
p2597
aS'the'
p2598
aS'highest'
p2599
aS'honor'
p2600
ag114
aS'thoroughbred'
p2601
aS'can'
p2602
aS'receive'
p2603
aaa(lp2604
g1952
a(lp2605
S'And'
p2606
aS'Forego'
p2607
aS'holds'
p2608
aS'eight'
p2609
aS'Eclipse'
p2610
aS'Awards'
p2611
aaa(lp2612
g1952
a(lp2613
S'which'
p2614
aS'is'
p2615
aS'more'
p2616
aS'than'
p2617
aS'any'
p2618
aS'other'
p2619
aS'horse'
p2620
aaa(lp2621
g1952
a(lp2622
S'Forego'
p2623
aS'retired'
p2624
aS'in'
p2625
aS'nineteen'
p2626
aS'seventyeight'
p2627
aaa(lp2628
g1952
a(lp2629
S'with'
p2630
aS'earnings'
p2631
aS'of'
p2632
aS'over'
p2633
aS'one'
p2634
aS'point'
p2635
aS'nine'
p2636
aS'million'
p2637
aS'dollars'
p2638
aaa(lp2639
g1952
a(lp2640
S'which'
p2641
aS'made'
p2642
aS'him'
p2643
aS'the'
p2644
aS'second'
p2645
aS'richest'
p2646
aS'thoroughbred'
p2647
aS'in'
p2648
aS'history'
p2649
aS'at'
p2650
aS'that'
p2651
aS'time'
p2652
aaa(lp2653
g1952
a(lp2654
S'behind'
p2655
aS'Kelso'
p2656
aaa(lp2657
g1952
a(lp2658
S'He'
p2659
aS'was'
p2660
aS'inducted'
p2661
aS'into'
p2662
aS'racings'
p2663
aS'hall'
p2664
aS'of'
p2665
aS'fame'
p2666
aS'in'
p2667
aS'nineteen'
p2668
aS'seventynine'
p2669
aaa(lp2670
g1952
a(lp2671
S'Forego'
p2672
aS'is'
p2673
aS'one'
p2674
aS'of'
p2675
aS'our'
p2676
aS'senior'
p2677
aS'citizens'
p2678
aS'here'
p2679
aS'at'
p2680
aS'the'
p2681
aS'Hall'
p2682
aS'of'
p2683
aS'Champions'
p2684
aaa(lp2685
g1952
a(lp2686
S'he'
p2687
aS'is'
p2688
aS'twentyfour'
p2689
aS'years'
p2690
aS'old'
p2691
aaa(lp2692
g1952
a(lp2693
S'and'
p2694
aS'stands'
p2695
ag114
aS'very'
p2696
aS'impressive'
p2697
aS'seventeen'
p2698
aS'point'
p2699
aS'one'
p2700
aS'hands'
p2701
aS'tall'
p2702
aaa(lp2703
g1952
a(lp2704
S'Ladies'
p2705
aS'and'
p2706
aS'gentlemen'
p2707
aaa(lp2708
g1952
a(lp2709
S'the'
p2710
aS'great'
p2711
aS'handicap'
p2712
aS'horse'
p2713
aaa(lp2714
g1952
a(lp2715
S'Forego'
p2716
aaa(lp2717
S'MANY'
p2718
a(lp2719
aa(lp2720
S'DEBRA'
p2721
a(lp2722
S'Does'
p2723
aS'anyone'
p2724
aS'have'
p2725
aS'any'
p2726
aS'questions'
p2727
aaa(lp2728
g2721
a(lp2729
S'Questions'
p2730
aaa(lp2731
g2721
a(lp2732
S'X'
p2733
aS'Okay'
p2734
ag2733
aaa(lp2735
g2721
a(lp2736
S'Oh'
p2737
aaa(lp2738
g2721
a(lp2739
S'Okay'
p2740
aaa(lp2741
g2721
a(lp2742
g835
aS'dont'
p2743
aS'have'
p2744
aS'my'
p2745
aS'glasses'
p2746
aS'on'
p2747
aaa(lp2748
g2721
a(lp2749
g835
aS'couldnt'
p2750
aS'see'
p2751
aS'you'
p2752
aaa(lp2753
S'AUDWhat'
p2754
a(lp2755
S'is'
p2756
aS'the'
p2757
aS'average'
p2758
aS'weight'
p2759
aS'for'
p2760
ag114
aS'horse'
p2761
aaa(lp2762
S'DEBRA'
p2763
a(lp2764
S'Um'
p2765
aS'it'
p2766
aS'varies'
p2767
aaa(lp2768
g2763
a(lp2769
S'um'
p2770
aaa(lp2771
g2763
a(lp2772
S'like'
p2773
aS'probably'
p2774
aaa(lp2775
g2763
a(lp2776
S'lets'
p2777
aS'see'
p2778
aaa(lp2779
g2763
a(lp2780
S'Forego'
p2781
aS'probably'
p2782
aS'weighs'
p2783
aS'around'
p2784
aS't'
p2785
aaa(lp2786
g2763
a(lp2787
S'oh'
p2788
aS'about'
p2789
aS'twelve'
p2790
aS'hundred'
p2791
aaa(lp2792
g2763
a(lp2793
S'maybe'
p2794
aS'twelve'
p2795
aS'fifty'
p2796
aaa(lp2797
g2763
a(lp2798
S'some'
p2799
aS'of'
p2800
aS'the'
p2801
aS'draft'
p2802
aS'horses'
p2803
aS'weigh'
p2804
aS'over'
p2805
ag114
aS'ton'
p2806
aaa(lp2807
g2763
a(lp2808
S'in'
p2809
aS'the'
p2810
aS'draft'
p2811
aS'horse'
p2812
aS'barn'
p2813
aaa(lp2814
g2763
a(lp2815
S'some'
p2816
aS'of'
p2817
aS'the'
p2818
aaa(lp2819
g2763
a(lp2820
S'The'
p2821
aS'Belgians'
p2822
aS'are'
p2823
aS'the'
p2824
aS'biggest'
p2825
aS'horses'
p2826
aaa(lp2827
g2763
a(lp2828
S'The'
p2829
aS'the'
p2830
aS'Shires'
p2831
aS'are'
p2832
aS'the'
p2833
aS'tallest'
p2834
aaa(lp2835
g2763
a(lp2836
S'but'
p2837
aS'the'
p2838
aS'Belgians'
p2839
aS'are'
p2840
aS'the'
p2841
aS'heaviest'
p2842
aaa(lp2843
g2763
a(lp2844
S'And'
p2845
aaa(lp2846
g2763
a(lp2847
S'Have'
p2848
aS'you'
p2849
aS'been'
p2850
aS'to'
p2851
aS'the'
p2852
aS'draft'
p2853
aS'barn'
p2854
aS'yet'
p2855
aaa(lp2856
g2763
a(lp2857
S'Did'
p2858
aS'you'
p2859
aS'see'
p2860
aS'Roy'
p2861
aS'and'
p2862
aS'Captain'
p2863
aaa(lp2864
g2763
a(lp2865
S'SM'
p2866
aS'the'
p2867
aS'two'
p2868
aS'big'
p2869
aS'Belgians'
p2870
aS'SM'
p2871
aaa(lp2872
g2763
a(lp2873
S'They'
p2874
aS'weigh'
p2875
aaa(lp2876
g2763
a(lp2877
S'they'
p2878
aS'both'
p2879
aS'weigh'
p2880
aS'over'
p2881
aS'two'
p2882
aS'th'
p2883
aaa(lp2884
g2763
a(lp2885
g835
aS'th'
p2886
aaa(lp2887
g2763
a(lp2888
g835
aS'know'
p2889
aS'Roy'
p2890
aS'does'
p2891
aaa(lp2892
g2763
a(lp2893
S'Im'
p2894
aS'not'
p2895
aS'sure'
p2896
aS'about'
p2897
aS'Captain'
p2898
aaa(lp2899
g2763
a(lp2900
S'but'
p2901
aS'Roy'
p2902
aS'weighs'
p2903
aS'over'
p2904
aS'two'
p2905
aS'thousand'
p2906
aS'pounds'
p2907
aaa(lp2908
g2763
a(lp2909
S'Yes'
p2910
aaa(lp2911
S'AUD'
p2912
a(lp2913
S'Isnt'
p2914
aS'Secretariat'
p2915
aaa(lp2916
g2912
a(lp2917
S'didnt'
p2918
aS'he'
p2919
aS'die'
p2920
aaa(lp2921
g2912
a(lp2922
S'and'
p2923
aS'wasnt'
p2924
aS'he'
p2925
aS'buried'
p2926
aS'on'
p2927
ag2733
aS'this'
p2928
aS'property'
p2929
aS'somewhere'
p2930
ag2733
aaa(lp2931
S'DEBRAUh'
p2932
a(lp2933
aa(lp2934
g2932
a(lp2935
S'uh'
p2936
aS'hes'
p2937
aS'buried'
p2938
aS'at'
p2939
aS'Claiborne'
p2940
aS'Farm'
p2941
aaa(lp2942
S'AUDClaiborne'
p2943
a(lp2944
aa(lp2945
S'DEBRAMhm'
p2946
a(lp2947
aa(lp2948
S'AUD'
p2949
a(lp2950
S'How'
p2951
aS'did'
p2952
aS'he'
p2953
aS'die'
p2954
aaa(lp2955
S'DEBRA'
p2956
a(lp2957
S'Pardon'
p2958
aaa(lp2959
S'AUD'
p2960
a(lp2961
S'How'
p2962
aS'did'
p2963
aS'he'
p2964
aS'die'
p2965
aaa(lp2966
S'DEBRA'
p2967
a(lp2968
S'He'
p2969
aS'was'
p2970
aS'put'
p2971
aS'down'
p2972
aaa(lp2973
g2967
a(lp2974
S'he'
p2975
aS'had'
p2976
aS'laminitis'
p2977
aaa(lp2978
g2967
a(lp2979
S'which'
p2980
aS'is'
p2981
ag114
aS'disease'
p2982
aS'of'
p2983
aS'the'
p2984
aS'h'
p2985
aaa(lp2986
g2967
a(lp2987
S'Of'
p2988
aS'the'
p2989
aS'hoof'
p2990
aaa(lp2991
g2967
a(lp2992
S'and'
p2993
aS'and'
p2994
aS'they'
p2995
aS'put'
p2996
aS'him'
p2997
aS'down'
p2998
aaa(lp2999
g2967
a(lp3000
S'Our'
p3001
aS'next'
p3002
aS'horse'
p3003
aS'to'
p3004
aS'come'
p3005
aS'out'
p3006
aS'today'
p3007
aaa(lp3008
g2967
a(lp3009
S'is'
p3010
aS'our'
p3011
aS'other'
p3012
aS'thoroughbred'
p3013
aS'gelding'
p3014
aS'to'
p3015
aS'be'
p3016
aS'retired'
p3017
aS'here'
p3018
aaa(lp3019
g2967
a(lp3020
S'and'
p3021
aS'youll'
p3022
aS'see'
p3023
aS'that'
p3024
aS'hes'
p3025
ag114
aS'lot'
p3026
aS'smaller'
p3027
aS'than'
p3028
aS'Forego'
p3029
aaa(lp3030
g2967
a(lp3031
S'This'
p3032
aS'is'
p3033
aS'John'
p3034
aS'Henry'
p3035
aaa(lp3036
g2967
a(lp3037
S'John'
p3038
aS'Henry'
p3039
aS'is'
p3040
aS'the'
p3041
aS'horse'
p3042
aS'that'
p3043
aS'comes'
p3044
aS'from'
p3045
aS'very'
p3046
aS'humble'
p3047
aS'beginnings'
p3048
aaa(lp3049
g2967
a(lp3050
S'He'
p3051
aS'is'
p3052
aS'by'
p3053
aS'the'
p3054
aS'stallion'
p3055
aS'Old'
p3056
aS'Bob'
p3057
aS'Bowers'
p3058
aaa(lp3059
g2967
a(lp3060
S'who'
p3061
aS'was'
p3062
aS'not'
p3063
aS'much'
p3064
aS'of'
p3065
ag114
aS'racehorse'
p3066
aS'or'
p3067
ag114
aS'stallion'
p3068
aS'either'
p3069
aaa(lp3070
g2967
a(lp3071
S'And'
p3072
aS'he'
p3073
aS'is'
p3074
aS'out'
p3075
aS'of'
p3076
aS'the'
p3077
aS'brood'
p3078
aS'mare'
p3079
aS'Once'
p3080
aS'Double'
p3081
aaa(lp3082
g2967
a(lp3083
S'who'
p3084
aS'outside'
p3085
aS'of'
p3086
aS'John'
p3087
aS'Henry'
p3088
aaa(lp3089
g2967
a(lp3090
S'had'
p3091
aS'very'
p3092
aS'little'
p3093
aS'success'
p3094
aS'as'
p3095
ag114
aS'brood'
p3096
aS'mare'
p3097
aaa(lp3098
g2967
a(lp3099
S'John'
p3100
aS'was'
p3101
aS'born'
p3102
aS'on'
p3103
aS'March'
p3104
aS'ninth'
p3105
aS'nineteen'
p3106
aS'seventyfive'
p3107
aaa(lp3108
g2967
a(lp3109
S'at'
p3110
aS'Golden'
p3111
aS'Chance'
p3112
aS'Farm'
p3113
aS'in'
p3114
aS'Paris'
p3115
aS'Kentucky'
p3116
aaa(lp3117
g2967
a(lp3118
S'The'
p3119
aS'farm'
p3120
aS'kept'
p3121
aS'John'
p3122
aS'until'
p3123
aS'nineteen'
p3124
aS'seventysix'
p3125
aaa(lp3126
g2967
a(lp3127
S'when'
p3128
aS'he'
p3129
aS'was'
p3130
aS'consigned'
p3131
aS'to'
p3132
aS'the'
p3133
aS'Keenenland'
p3134
aS'January'
p3135
aS'Mixed'
p3136
aS'Sale'
p3137
aaa(lp3138
g2967
a(lp3139
S'Now'
p3140
aS'this'
p3141
aS'sale'
p3142
aS'is'
p3143
aS'not'
p3144
ag114
aS'very'
p3145
aS'good'
p3146
aS'time'
p3147
aS'to'
p3148
aS'sell'
p3149
ag114
aS'horse'
p3150
aaa(lp3151
g2967
a(lp3152
S'its'
p3153
aS'usually'
p3154
aS'when'
p3155
aS'people'
p3156
aS'try'
p3157
aS'to'
p3158
aS'sell'
p3159
aS'the'
p3160
aS'horses'
p3161
aS'they'
p3162
aS'dont'
p3163
aS'think'
p3164
aS'are'
p3165
aS'worth'
p3166
aS'feeding'
p3167
aS'through'
p3168
aS'the'
p3169
aS'winter'
p3170
aaa(lp3171
g2967
a(lp3172
S'So'
p3173
aS'because'
p3174
aS'of'
p3175
aS'his'
p3176
aS'small'
p3177
aS'size'
p3178
aaa(lp3179
g2967
a(lp3180
S'his'
p3181
aS'lack'
p3182
aS'of'
p3183
aS'pedigree'
p3184
aaa(lp3185
g2967
a(lp3186
S'but'
p3187
aS'most'
p3188
aS'of'
p3189
aS'all'
p3190
aaa(lp3191
g2967
a(lp3192
S'his'
p3193
aS'very'
p3194
aS'nasty'
p3195
aS'disposition'
p3196
aaa(lp3197
g2967
a(lp3198
S'John'
p3199
aS'brought'
p3200
aS'only'
p3201
aS'eleven'
p3202
aS'hundred'
p3203
aS'dollars'
p3204
aaa(lp3205
g2967
a(lp3206
S'And'
p3207
aS'from'
p3208
aS'the'
p3209
aS'time'
p3210
aS'of'
p3211
aS'this'
p3212
aS'first'
p3213
aS'sale'
p3214
aaa(lp3215
g2967
a(lp3216
S'until'
p3217
aS'May'
p3218
aS'nineteen'
p3219
aS'seventyeight'
p3220
aaa(lp3221
g2967
a(lp3222
S'John'
p3223
aS'was'
p3224
aS'sold'
p3225
aaa(lp3226
g2967
a(lp3227
S'over'
p3228
aS'half'
p3229
ag114
aS'dozen'
p3230
aS'times'
p3231
aaa(lp3232
g2967
a(lp3233
S'because'
p3234
aS'nobody'
p3235
aS'wanted'
p3236
aS'him'
p3237
aaa(lp3238
g2967
a(lp3239
S'and'
p3240
aS'nobody'
p3241
aS'could'
p3242
aS'get'
p3243
aS'along'
p3244
aS'with'
p3245
aS'him'
p3246
aaa(lp3247
g2967
a(lp3248
S'But'
p3249
aS'in'
p3250
aS'May'
p3251
aS'of'
p3252
aS'nineteen'
p3253
aS'seventyeight'
p3254
aaa(lp3255
g2967
a(lp3256
g114
aS'New'
p3257
aS'York'
p3258
aS'businessman'
p3259
aaa(lp3260
g2967
a(lp3261
S'Sam'
p3262
aS'Rubin'
p3263
aaa(lp3264
g2967
a(lp3265
S'decided'
p3266
aS'it'
p3267
aS'would'
p3268
aS'be'
p3269
aS'fun'
p3270
aS'to'
p3271
aS'own'
p3272
ag114
aS'racehorse'
p3273
aaa(lp3274
g2967
a(lp3275
S'Well'
p3276
aS'Mister'
p3277
aS'Rubin'
p3278
aS'didnt'
p3279
aS'know'
p3280
aS'anything'
p3281
aS'about'
p3282
aS'horses'
p3283
aaa(lp3284
g2967
a(lp3285
S'and'
p3286
aS'the'
p3287
aS'only'
p3288
aS'thing'
p3289
aS'he'
p3290
aS'knew'
p3291
aS'about'
p3292
aS'racing'
p3293
aaa(lp3294
g2967
a(lp3295
S'is'
p3296
aS'where'
p3297
aS'the'
p3298
aS'valet'
p3299
aS'parking'
p3300
aS'was'
p3301
aaa(lp3302
g2967
a(lp3303
S'So'
p3304
aS'he'
p3305
aS'bought'
p3306
aS'John'
p3307
aS'Henry'
p3308
aaa(lp3309
g2967
a(lp3310
S'over'
p3311
aS'the'
p3312
aS'telephone'
p3313
aaa(lp3314
g2967
a(lp3315
S'sight'
p3316
aS'unseen'
p3317
aaa(lp3318
g2967
a(lp3319
S'for'
p3320
aS'twentyfive'
p3321
aS'thousand'
p3322
aS'dollars'
p3323
aaa(lp3324
g2967
a(lp3325
S'John'
p3326
aS'then'
p3327
aS'went'
p3328
aS'to'
p3329
aS'New'
p3330
aS'York'
p3331
aaa(lp3332
g2967
a(lp3333
S'to'
p3334
aS'his'
p3335
aS'first'
p3336
aS'trainer'
p3337
aS'Bobby'
p3338
aS'Donato'
p3339
aaa(lp3340
g2967
a(lp3341
S'In'
p3342
aS'his'
p3343
aS'very'
p3344
aS'first'
p3345
aS'New'
p3346
aS'York'
p3347
aS'start'
p3348
aaa(lp3349
g2967
a(lp3350
S'he'
p3351
aS'won'
p3352
ag114
aS'twentyfive'
p3353
aS'thousand'
p3354
aS'dollar'
p3355
aS'claiming'
p3356
aS'race'
p3357
aaa(lp3358
g2967
a(lp3359
S'over'
p3360
aS'the'
p3361
aS'dirt'
p3362
aaa(lp3363
g2967
a(lp3364
S'by'
p3365
aS'one'
p3366
aS'and'
p3367
ag114
aS'half'
p3368
aS'lengths'
p3369
aaa(lp3370
g2967
a(lp3371
S'His'
p3372
aS'next'
p3373
aS'race'
p3374
aS'was'
p3375
aS'on'
p3376
aS'turf'
p3377
aaa(lp3378
g2967
a(lp3379
S'which'
p3380
aS'John'
p3381
aS'preferred'
p3382
aS'to'
p3383
aS'run'
p3384
aS'on'
p3385
aaa(lp3386
g2967
a(lp3387
S'and'
p3388
aS'again'
p3389
aS'he'
p3390
aS'won'
p3391
aaa(lp3392
g2967
a(lp3393
S'but'
p3394
aS'this'
p3395
aS'time'
p3396
aS'by'
p3397
aS'fourteen'
p3398
aS'lengths'
p3399
aaa(lp3400
g2967
a(lp3401
S'Well'
p3402
ag114
aS'group'
p3403
aS'of'
p3404
aS'horsemen'
p3405
aS'who'
p3406
aS'knew'
p3407
aS'more'
p3408
aS'about'
p3409
aS'racing'
p3410
aS'than'
p3411
aS'Mister'
p3412
aS'Rubin'
p3413
aS'did'
p3414
aaa(lp3415
g2967
a(lp3416
S'advised'
p3417
aS'him'
p3418
aS'to'
p3419
aS'send'
p3420
aS'John'
p3421
aS'west'
p3422
aaa(lp3423
g2967
a(lp3424
S'where'
p3425
aS'the'
p3426
aS'turf'
p3427
aS'racing'
p3428
aS'was'
p3429
aS'more'
p3430
aS'lucrative'
p3431
aaa(lp3432
g2967
a(lp3433
S'more'
p3434
aS'competitive'
p3435
aaa(lp3436
g2967
a(lp3437
S'and'
p3438
aS'run'
p3439
aS'all'
p3440
aS'year'
p3441
aS'long'
p3442
aaa(lp3443
g2967
a(lp3444
S'So'
p3445
aS'in'
p3446
aS'late'
p3447
aS'nineteen'
p3448
aS'seventynine'
p3449
aaa(lp3450
g2967
a(lp3451
S'John'
p3452
aS'headed'
p3453
aS'west'
p3454
aaa(lp3455
g2967
a(lp3456
S'to'
p3457
aS'his'
p3458
aS'new'
p3459
aS'trainer'
p3460
aaa(lp3461
g2967
a(lp3462
S'Ronald'
p3463
aS'McAnally'
p3464
aaa(lp3465
g2967
a(lp3466
S'In'
p3467
aS'nineteen'
p3468
aS'eighty'
p3469
aaa(lp3470
g2967
a(lp3471
S'John'
p3472
aS'won'
p3473
aS'over'
p3474
aS'ninehundred'
p3475
aS'thousand'
p3476
aS'dollars'
p3477
aaa(lp3478
g2967
a(lp3479
S'In'
p3480
aS'nineteen'
p3481
aS'eightyone'
p3482
aaa(lp3483
g2967
a(lp3484
S'John'
p3485
aS'won'
p3486
aS'the'
p3487
aS'very'
p3488
aS'first'
p3489
aS'Arlington'
p3490
aS'Million'
p3491
aaa(lp3492
g2967
a(lp3493
S'over'
p3494
aS'one'
p3495
aS'point'
p3496
aS'seven'
p3497
aS'million'
p3498
aS'dollars'
p3499
aaa(lp3500
g2967
a(lp3501
S'and'
p3502
aS'was'
p3503
aS'voted'
p3504
aS'horse'
p3505
aS'of'
p3506
aS'the'
p3507
aS'year'
p3508
aaa(lp3509
g2967
a(lp3510
S'In'
p3511
aS'nineteen'
p3512
aS'eightytwo'
p3513
aaa(lp3514
g2967
a(lp3515
S'and'
p3516
aS'nineteen'
p3517
aS'eightythree'
p3518
aaa(lp3519
g2967
a(lp3520
S'John'
p3521
aS'had'
p3522
aS'some'
p3523
aS'injuries'
p3524
aaa(lp3525
g2967
a(lp3526
S'and'
p3527
aS'only'
p3528
aS'won'
p3529
aS'four'
p3530
aS'races'
p3531
aaa(lp3532
g2967
a(lp3533
S'but'
p3534
aS'they'
p3535
aS'mounted'
p3536
aS'up'
p3537
aS'to'
p3538
aS'one'
p3539
aS'point'
p3540
aS'two'
p3541
aS'million'
p3542
aS'dollars'
p3543
aaa(lp3544
g2967
a(lp3545
S'And'
p3546
aS'when'
p3547
aS'Mister'
p3548
aS'McAnally'
p3549
aS'wanted'
p3550
aS'to'
p3551
aS'bring'
p3552
aS'John'
p3553
aS'Henry'
p3554
aS'back'
p3555
aS'as'
p3556
ag114
aS'nineyearold'
p3557
aaa(lp3558
g2967
a(lp3559
S'folks'
p3560
aS'were'
p3561
aS'pretty'
p3562
aS'skeptical'
p3563
aS'about'
p3564
aS'his'
p3565
aS'chances'
p3566
aS'of'
p3567
aS'being'
p3568
aS'competitive'
p3569
aS'at'
p3570
aS'this'
p3571
aS'age'
p3572
aaa(lp3573
g2967
a(lp3574
S'Well'
p3575
aS'John'
p3576
aS'did'
p3577
aS'lose'
p3578
aS'his'
p3579
aS'first'
p3580
aS'race'
p3581
aS'that'
p3582
aS'year'
p3583
aaa(lp3584
g2967
a(lp3585
S'but'
p3586
aS'he'
p3587
aS'went'
p3588
aS'on'
p3589
aS'to'
p3590
aS'have'
p3591
aS'his'
p3592
aS'best'
p3593
aS'year'
p3594
aS'ever'
p3595
aS'on'
p3596
aS'the'
p3597
aS'racetrack'
p3598
aaa(lp3599
g2967
a(lp3600
S'He'
p3601
aS'won'
p3602
aS'six'
p3603
aS'graded'
p3604
aS'stakes'
p3605
aaa(lp3606
g2967
a(lp3607
S'including'
p3608
ag114
aS'repeat'
p3609
aS'victory'
p3610
aS'in'
p3611
aS'the'
p3612
aS'Arlington'
p3613
aS'Million'
p3614
aaa(lp3615
g2967
a(lp3616
S'over'
p3617
aS'two'
p3618
aS'point'
p3619
aS'three'
p3620
aS'million'
p3621
aS'dollars'
p3622
aaa(lp3623
g2967
a(lp3624
S'and'
p3625
aS'again'
p3626
aS'was'
p3627
aS'voted'
p3628
aS'horse'
p3629
aS'of'
p3630
aS'the'
p3631
aS'year'
p3632
aaa(lp3633
g2967
a(lp3634
S'When'
p3635
aS'John'
p3636
aS'was'
p3637
aS'retired'
p3638
aS'in'
p3639
aS'nineteen'
p3640
aS'eightyfour'
p3641
aaa(lp3642
g2967
a(lp3643
S'he'
p3644
aS'was'
p3645
aS'the'
p3646
aS'worlds'
p3647
aS'richest'
p3648
aS'thoroughbred'
p3649
aS'in'
p3650
aS'history'
p3651
aaa(lp3652
g2967
a(lp3653
S'With'
p3654
aS'earnings'
p3655
aS'over'
p3656
aS'six'
p3657
aS'point'
p3658
aS'five'
p3659
aS'million'
p3660
aS'dollars'
p3661
aaa(lp3662
g2967
a(lp3663
S'Since'
p3664
aS'then'
p3665
aS'Alisheba'
p3666
aS'has'
p3667
aS'beat'
p3668
aS'his'
p3669
aS'record'
p3670
aaa(lp3671
g2967
a(lp3672
S'but'
p3673
aS'John'
p3674
aS'is'
p3675
aS'still'
p3676
aS'the'
p3677
aS'richest'
p3678
aS'gelding'
p3679
aaa(lp3680
g2967
a(lp3681
S'John'
p3682
aS'holds'
p3683
aS'seven'
p3684
aS'Eclipse'
p3685
aS'Awards'
p3686
aaa(lp3687
g2967
a(lp3688
S'which'
p3689
aS'is'
p3690
aS'second'
p3691
aS'only'
p3692
aS'to'
p3693
aS'Foregos'
p3694
aS'eight'
p3695
aaa(lp3696
g2967
a(lp3697
S'and'
p3698
aS'was'
p3699
aS'inducted'
p3700
aS'into'
p3701
aS'the'
p3702
aS'racing'
p3703
aS'hall'
p3704
aS'of'
p3705
aS'fame'
p3706
aS'in'
p3707
aS'nineteen'
p3708
aS'ninety'
p3709
aaa(lp3710
g2967
a(lp3711
S'John'
p3712
aS'was'
p3713
aS'also'
p3714
aS'named'
p3715
aS'the'
p3716
aS'thoroughbred'
p3717
aS'horse'
p3718
aS'of'
p3719
aS'the'
p3720
aS'decade'
p3721
aaa(lp3722
g2967
a(lp3723
S'for'
p3724
aS'the'
p3725
aS'nineteen'
p3726
aS'eighties'
p3727
aaa(lp3728
g2967
a(lp3729
S'John'
p3730
aS'has'
p3731
aS'been'
p3732
aS'retired'
p3733
aS'here'
p3734
aS'for'
p3735
aS'eight'
p3736
aS'years'
p3737
aS'now'
p3738
aaa(lp3739
g2967
a(lp3740
S'He'
p3741
aS'is'
p3742
aS'nineteen'
p3743
aS'years'
p3744
aS'old'
p3745
aaa(lp3746
g2967
a(lp3747
S'and'
p3748
aS'stands'
p3749
ag114
aS'very'
p3750
aS'small'
p3751
aaa(lp3752
g2967
a(lp3753
S'fifteen'
p3754
aS'point'
p3755
aS'one'
p3756
aS'hands'
p3757
aS'tall'
p3758
aaa(lp3759
g2967
a(lp3760
S'Ladies'
p3761
aS'and'
p3762
aS'gentlemen'
p3763
aaa(lp3764
g2967
a(lp3765
S'the'
p3766
aS'great'
p3767
aS'great'
p3768
aS'John'
p3769
aS'Henry'
p3770
aaa(lp3771
S'MANY'
p3772
a(lp3773
aa(lp3774
S'DEBRA'
p3775
a(lp3776
S'Does'
p3777
aS'anyone'
p3778
aS'have'
p3779
aS'any'
p3780
aS'questions'
p3781
aaa(lp3782
g3775
a(lp3783
S'Yes'
p3784
aaa(lp3785
S'AUD'
p3786
a(lp3787
S'The'
p3788
aS'horses'
p3789
aS'that'
p3790
aS'retire'
p3791
aS'here'
p3792
aaa(lp3793
g3786
a(lp3794
S'how'
p3795
aS'much'
p3796
aS'exercise'
p3797
aaa(lp3798
g3786
a(lp3799
S'and'
p3800
aS'what'
p3801
aS'kind'
p3802
aS'of'
p3803
aS'XX'
p3804
aS'XXX'
p3805
aaa(lp3806
S'DEBRAOkay'
p3807
a(lp3808
aa(lp3809
g3807
a(lp3810
S'These'
p3811
aS'horses'
p3812
aS'are'
p3813
aS'are'
p3814
aS'not'
p3815
aS'ridden'
p3816
aS'anymore'
p3817
aaa(lp3818
g3807
a(lp3819
S'um'
p3820
aaa(lp3821
g3807
a(lp3822
S'theyre'
p3823
aS'just'
p3824
aaa(lp3825
g3807
a(lp3826
S'l'
p3827
aS'like'
p3828
aS'you'
p3829
aS'said'
p3830
aaa(lp3831
g3807
a(lp3832
S'theyre'
p3833
aS'retired'
p3834
aaa(lp3835
g3807
a(lp3836
S'they'
p3837
aS'each'
p3838
aS'have'
p3839
aS'their'
p3840
aS'own'
p3841
aS'paddock'
p3842
aaa(lp3843
g3807
a(lp3844
S'except'
p3845
aS'for'
p3846
aS'Sergeant'
p3847
aS'Pepper'
p3848
aS'and'
p3849
aS'Imperator'
p3850
aaa(lp3851
g3807
a(lp3852
S'they'
p3853
aaa(lp3854
g3807
a(lp3855
S'We'
p3856
aS'turn'
p3857
aS'them'
p3858
aS'out'
p3859
aS'together'
p3860
aaa(lp3861
g3807
a(lp3862
S'because'
p3863
aS'theyre'
p3864
aS'friends'
p3865
aaa(lp3866
g3807
a(lp3867
S'and'
p3868
aS'mostly'
p3869
aS'they'
p3870
aS'just'
p3871
aS'hang'
p3872
aS'out'
p3873
aS'in'
p3874
aS'their'
p3875
aS'paddock'
p3876
aaa(lp3877
g3807
a(lp3878
S'and'
p3879
aS'they'
p3880
aS'graze'
p3881
aS'and'
p3882
aaa(lp3883
g3807
a(lp3884
S'they'
p3885
aS'exercise'
p3886
aS'themselves'
p3887
aaa(lp3888
g3807
a(lp3889
S'they'
p3890
aS'run'
p3891
aS'around'
p3892
ag114
aS'lot'
p3893
aaa(lp3894
g3807
a(lp3895
S'and'
p3896
aS'keep'
p3897
aS'themselves'
p3898
aS'in'
p3899
aS'shape'
p3900
aaa(lp3901
g3807
a(lp3902
S'and'
p3903
aaa(lp3904
g3807
a(lp3905
S'thats'
p3906
aS'about'
p3907
aS'all'
p3908
aS'they'
p3909
aS'do'
p3910
aaa(lp3911
g3807
a(lp3912
S'They'
p3913
aS'get'
p3914
aaa(lp3915
g3807
a(lp3916
S'they'
p3917
aS'get'
p3918
aS'lots'
p3919
aS'of'
p3920
aS'treats'
p3921
aaa(lp3922
g3807
a(lp3923
S'and'
p3924
aS'lots'
p3925
aS'of'
p3926
aS'love'
p3927
aS'and'
p3928
aaa(lp3929
g3807
a(lp3930
S's'
p3931
aS'we'
p3932
aS'think'
p3933
aS'theyre'
p3934
aS'happy'
p3935
aaa(lp3936
g3807
a(lp3937
S'But'
p3938
aaa(lp3939
g3807
a(lp3940
S'they'
p3941
aS'still'
p3942
aS'run'
p3943
aS'around'
p3944
aaa(lp3945
g3807
a(lp3946
S'um'
p3947
aaa(lp3948
g3807
a(lp3949
S'just'
p3950
aS'like'
p3951
aS'young'
p3952
aS'horses'
p3953
aaa(lp3954
g3807
a(lp3955
S'sometimes'
p3956
aS'John'
p3957
aS'will'
p3958
aS'get'
p3959
aS'out'
p3960
aS'there'
p3961
aS'and'
p3962
aS'run'
p3963
aS'around'
p3964
aaa(lp3965
g3807
a(lp3966
S'hell'
p3967
aS'rear'
p3968
aS'up'
p3969
aS'on'
p3970
aS'his'
p3971
aS'hind'
p3972
aS'legs'
p3973
aaa(lp3974
g3807
a(lp3975
S'like'
p3976
aS'Silver'
p3977
aaa(lp3978
g3807
a(lp3979
S'you'
p3980
aS'know'
p3981
aS'and'
p3982
aS'do'
p3983
aaa(lp3984
g3807
a(lp3985
S'And'
p3986
aS'uh'
p3987
aS'its'
p3988
aS'real'
p3989
aS'cute'
p3990
aaa(lp3991
g3807
a(lp3992
S'uh'
p3993
aS'Foregoll'
p3994
aS'run'
p3995
aS'around'
p3996
aaa(lp3997
g3807
a(lp3998
S'Willie'
p3999
aaa(lp4000
g3807
a(lp4001
S'and'
p4002
aS'his'
p4003
aS'little'
p4004
aS'goat'
p4005
aS'will'
p4006
aS'get'
p4007
aS'out'
p4008
aS'there'
p4009
aS'and'
p4010
aaa(lp4011
g3807
a(lp4012
S'and'
p4013
aS'run'
p4014
aS'and'
p4015
aaa(lp4016
g3807
a(lp4017
S'Imperator'
p4018
aS'usually'
p4019
aS'likes'
p4020
aS'to'
p4021
aS'trot'
p4022
aaa(lp4023
g3807
a(lp4024
S'He'
p4025
aS'doesnt'
p4026
aS'gallop'
p4027
ag114
aS'lot'
p4028
aaa(lp4029
g3807
a(lp4030
S'but'
p4031
aS'he'
p4032
aS'trots'
p4033
aS'around'
p4034
aS'like'
p4035
aS'he'
p4036
aS'did'
p4037
aS'when'
p4038
aS'he'
p4039
aS'was'
p4040
aS'showing'
p4041
aS'and'
p4042
aaa(lp4043
g3807
a(lp4044
S'its'
p4045
aaa(lp4046
g3807
a(lp4047
S'Theyre'
p4048
aS'real'
p4049
aS'cute'
p4050
aaa(lp4051
g3807
a(lp4052
S'There'
p4053
aS'any'
p4054
aS'other'
p4055
aS'questions'
p4056
aaa(lp4057
S'AUD'
p4058
a(lp4059
S'Yes'
p4060
aaa(lp4061
g4058
a(lp4062
S'What'
p4063
aaa(lp4064
g4058
a(lp4065
S'Uh'
p4066
aaa(lp4067
g4058
a(lp4068
S'the'
p4069
aS'goat'
p4070
aS'in'
p4071
aS'with'
p4072
aS'the'
p4073
aS'horse'
p4074
aaa(lp4075
g4058
a(lp4076
S'Are'
p4077
aS'they'
p4078
aS'just'
p4079
aS'good'
p4080
aS'friends'
p4081
aaa(lp4082
S'DEBRAUhuh'
p4083
a(lp4084
aa(lp4085
g4083
a(lp4086
S'Thats'
p4087
aS'his'
p4088
aS'little'
p4089
aS'buddy'
p4090
aaa(lp4091
g4083
a(lp4092
S'Theyre'
p4093
aS'just'
p4094
aS'friends'
p4095
aaa(lp4096
g4083
a(lp4097
S'He'
p4098
aaa(lp4099
g4083
a(lp4100
S'Willie'
p4101
aS'doesnt'
p4102
aS'really'
p4103
aS'like'
p4104
aS'other'
p4105
aS'horses'
p4106
aS'very'
p4107
aS'well'
p4108
aaa(lp4109
g4083
a(lp4110
S'And'
p4111
aS'and'
p4112
aS'he'
p4113
aS'likes'
p4114
aS'people'
p4115
aaa(lp4116
g4083
a(lp4117
S'but'
p4118
aS'hes'
p4119
aS'not'
p4120
aS'as'
p4121
aS'affectionate'
p4122
aS'as'
p4123
aS'maybe'
p4124
aS'Perry'
p4125
aaa(lp4126
g4083
a(lp4127
S'or'
p4128
aS'Sergeant'
p4129
aS'Pepper'
p4130
aS'so'
p4131
aaa(lp4132
g4083
a(lp4133
S'we'
p4134
aS'dont'
p4135
aS'want'
p4136
aS'him'
p4137
aS'to'
p4138
aS'get'
p4139
aS'lonely'
p4140
aaa(lp4141
g4083
a(lp4142
S'and'
p4143
aS'thats'
p4144
aS'his'
p4145
aaa(lp4146
g4083
a(lp4147
S'thats'
p4148
aS'his'
p4149
aS'little'
p4150
aS'friend'
p4151
aaa(lp4152
g4083
a(lp4153
S'Originally'
p4154
aS'they'
p4155
aS'had'
p4156
aS'got'
p4157
aS'the'
p4158
aS'goat'
p4159
aS'for'
p4160
aS'John'
p4161
aS'Henry'
p4162
aaa(lp4163
g4083
a(lp4164
S'when'
p4165
aS'he'
p4166
aS'first'
p4167
aS'came'
p4168
aS'to'
p4169
aS'live'
p4170
aS'here'
p4171
aaa(lp4172
g4083
a(lp4173
S'eight'
p4174
aS'years'
p4175
aS'ago'
p4176
aaa(lp4177
g4083
a(lp4178
S'and'
p4179
aS'they'
p4180
aS'put'
p4181
aS'the'
p4182
aS'goat'
p4183
aS'in'
p4184
aS'the'
p4185
aS'stall'
p4186
aS'with'
p4187
aS'him'
p4188
aaa(lp4189
g4083
a(lp4190
S'he'
p4191
aS'kicked'
p4192
aS'it'
p4193
aS'back'
p4194
aS'out'
p4195
aaa(lp4196
g4083
a(lp4197
S'and'
p4198
aS'um'
p4199
aaa(lp4200
g4083
a(lp4201
S'so'
p4202
aS'Willie'
p4203
aS'adopted'
p4204
aS'it'
p4205
aaa(lp4206
g4083
a(lp4207
S'And'
p4208
aS'that'
p4209
aS'original'
p4210
aS'goat'
p4211
aS'died'
p4212
aS'about'
p4213
ag114
aS'year'
p4214
aS'ago'
p4215
aaa(lp4216
g4083
a(lp4217
S'and'
p4218
aS'Willie'
p4219
aS'was'
p4220
aS'real'
p4221
aS'sad'
p4222
aS'and'
p4223
aS'depressed'
p4224
aaa(lp4225
g4083
a(lp4226
S'so'
p4227
aS'they'
p4228
aS'got'
p4229
aS'him'
p4230
ag114
aS'new'
p4231
aS'one'
p4232
aaa(lp4233
g4083
a(lp4234
S'Our'
p4235
aS'last'
p4236
aS'horse'
p4237
aS'to'
p4238
aS'come'
p4239
aS'out'
p4240
aS'today'
p4241
aaa(lp4242
g4083
a(lp4243
S'is'
p4244
aS'our'
p4245
aS'standardbred'
p4246
aS'representative'
p4247
aaa(lp4248
g4083
a(lp4249
S'Rambling'
p4250
aS'Willie'
p4251
aaa(lp4252
g4083
a(lp4253
g1689
aS'standardbred'
p4254
aS'races'
p4255
aS'at'
p4256
ag114
aS'trot'
p4257
aS'or'
p4258
ag114
aS'pace'
p4259
aaa(lp4260
g4083
a(lp4261
S'and'
p4262
aS'they'
p4263
aS'pull'
p4264
ag114
aS'sulky'
p4265
aS'with'
p4266
ag114
aS'driver'
p4267
aaa(lp4268
g4083
a(lp4269
S'Willie'
p4270
aS'is'
p4271
ag114
aS'pacer'
p4272
aaa(lp4273
g4083
a(lp4274
S'Willie'
p4275
aS'was'
p4276
aS'born'
p4277
aS'in'
p4278
aS'Monroeville'
p4279
aS'Indiana'
p4280
aaa(lp4281
g4083
a(lp4282
S'and'
p4283
aS'he'
p4284
aS'began'
p4285
aS'his'
p4286
aS'racing'
p4287
aS'career'
p4288
aS'as'
p4289
ag114
aS'toyearold'
p4290
aaa(lp4291
g4083
a(lp4292
S'for'
p4293
aS'his'
p4294
aS'owner'
p4295
aS'Raymond'
p4296
aS'Gibson'
p4297
aaa(lp4298
g4083
a(lp4299
S'He'
p4300
aS'had'
p4301
aS'four'
p4302
aS'starts'
p4303
aS'with'
p4304
aS'two'
p4305
aS'seconds'
p4306
aS'and'
p4307
aS'two'
p4308
aS'thirds'
p4309
aaa(lp4310
g4083
a(lp4311
S'so'
p4312
aS'he'
p4313
aS'did'
p4314
aS'show'
p4315
aS'some'
p4316
aS'promise'
p4317
aaa(lp4318
g4083
a(lp4319
S'but'
p4320
aS'Mister'
p4321
aS'Gibson'
p4322
aS'decided'
p4323
aS'to'
p4324
aS'sell'
p4325
aS'Willie'
p4326
aS'as'
p4327
ag114
aS'threeyearold'
p4328
aaa(lp4329
g4083
a(lp4330
S'Willie'
p4331
aS'was'
p4332
aS'sold'
p4333
aS'to'
p4334
ag114
aS'hall'
p4335
aS'of'
p4336
aS'fame'
p4337
aS'trainer'
p4338
aS'and'
p4339
aS'driver'
p4340
aaa(lp4341
g4083
a(lp4342
S'Mister'
p4343
aS'Robert'
p4344
aS'Farrington'
p4345
aaa(lp4346
g4083
a(lp4347
S'for'
p4348
aS'fifteen'
p4349
aS'thousand'
p4350
aS'dollars'
p4351
aaa(lp4352
g4083
a(lp4353
S'But'
p4354
aS'not'
p4355
aS'long'
p4356
aS'after'
p4357
aS'he'
p4358
aS'bought'
p4359
aS'him'
p4360
aaa(lp4361
g4083
a(lp4362
S'Mister'
p4363
aS'Farrington'
p4364
aS'decided'
p4365
aS'hed'
p4366
aS'spent'
p4367
aS'too'
p4368
aS'much'
p4369
aS'money'
p4370
aS'on'
p4371
aS'this'
p4372
aS'horse'
p4373
aaa(lp4374
g4083
a(lp4375
S'so'
p4376
aS'he'
p4377
aS'called'
p4378
ag114
aS'friend'
p4379
aS'of'
p4380
aS'his'
p4381
aS'from'
p4382
aS'Cincinnati'
p4383
aS'Ohio'
p4384
aaa(lp4385
g4083
a(lp4386
S'Mister'
p4387
aS'Paul'
p4388
aS'Sebert'
p4389
aaa(lp4390
g4083
a(lp4391
S'and'
p4392
aS'he'
p4393
aS'tried'
p4394
aS'to'
p4395
aS'talk'
p4396
aS'Mister'
p4397
aS'Sebert'
p4398
aS'into'
p4399
aS'buying'
p4400
ag114
aS'half'
p4401
aS'interest'
p4402
aS'in'
p4403
aS'Willie'
p4404
aaa(lp4405
g4083
a(lp4406
S'Well'
p4407
aS'Mister'
p4408
aS'Sebert'
p4409
aS'had'
p4410
aS'owned'
p4411
aS'horses'
p4412
aS'before'
p4413
aaa(lp4414
g4083
a(lp4415
S'and'
p4416
aS'his'
p4417
aS'luck'
p4418
aS'had'
p4419
aS'been'
p4420
aS'pretty'
p4421
aS'bad'
p4422
aaa(lp4423
g4083
a(lp4424
S'The'
p4425
aS'first'
p4426
aS'horse'
p4427
aS'he'
p4428
aS'owned'
p4429
aS'died'
p4430
aaa(lp4431
g4083
a(lp4432
S'before'
p4433
aS'it'
p4434
aS'made'
p4435
aS'it'
p4436
aS'to'
p4437
aS'the'
p4438
aS'racetrack'
p4439
aaa(lp4440
g4083
a(lp4441
S'and'
p4442
aS'the'
p4443
aS'second'
p4444
aS'horse'
p4445
aS'he'
p4446
aS'owned'
p4447
aS'made'
p4448
aS'it'
p4449
aS'to'
p4450
aS'the'
p4451
aS'races'
p4452
aaa(lp4453
g4083
a(lp4454
S'and'
p4455
aS'she'
p4456
aS'ran'
p4457
aS'and'
p4458
aS'ran'
p4459
aaa(lp4460
g4083
a(lp4461
S'but'
p4462
aS'just'
p4463
aS'couldnt'
p4464
aS'win'
p4465
aS'anything'
p4466
aaa(lp4467
g4083
a(lp4468
S'so'
p4469
aS'he'
p4470
aS'sold'
p4471
aS'her'
p4472
aaa(lp4473
g4083
a(lp4474
S'And'
p4475
aS'after'
p4476
aS'he'
p4477
aS'sold'
p4478
aS'her'
p4479
aaa(lp4480
g4083
a(lp4481
S'she'
p4482
aS'went'
p4483
aS'on'
p4484
aS'to'
p4485
aS'win'
p4486
aS'her'
p4487
aS'next'
p4488
aS'four'
p4489
aS'starts'
p4490
aS'in'
p4491
ag114
aS'row'
p4492
aS'for'
p4493
aS'her'
p4494
aS'new'
p4495
aS'owner'
p4496
aaa(lp4497
g4083
a(lp4498
S'Well'
p4499
aS'Mister'
p4500
aS'Sebert'
p4501
aS'did'
p4502
aS'buy'
p4503
ag114
aS'half'
p4504
aS'interest'
p4505
aS'in'
p4506
aS'Willie'
p4507
aS'though'
p4508
aaa(lp4509
g4083
a(lp4510
S'and'
p4511
aS'things'
p4512
aS'didnt'
p4513
aS'start'
p4514
aS'off'
p4515
aS'so'
p4516
aS'well'
p4517
aS'there'
p4518
aS'either'
p4519
aaa(lp4520
g4083
a(lp4521
S'Willie'
p4522
aS'was'
p4523
aS'being'
p4524
aS'raced'
p4525
aS'at'
p4526
aS'county'
p4527
aS'fairs'
p4528
aaa(lp4529
g4083
a(lp4530
S'in'
p4531
aS'Ohio'
p4532
aS'and'
p4533
aS'Indiana'
p4534
aaa(lp4535
g4083
a(lp4536
S'and'
p4537
aS'was'
p4538
aS'being'
p4539
aS'beaten'
p4540
aS'on'
p4541
ag114
aS'regular'
p4542
aS'basis'
p4543
aaa(lp4544
g4083
a(lp4545
S'Well'
p4546
aS'around'
p4547
aS'this'
p4548
aS'time'
p4549
aS'Mister'
p4550
aS'Farringtons'
p4551
aS'wife'
p4552
aS'Vivian'
p4553
aS'was'
p4554
aS'having'
p4555
ag114
aS'birthday'
p4556
aaa(lp4557
g4083
a(lp4558
S'and'
p4559
aS'he'
p4560
aS'was'
p4561
aS'trying'
p4562
aS'to'
p4563
aS'decide'
p4564
aS'what'
p4565
aS'to'
p4566
aS'get'
p4567
aS'her'
p4568
aaa(lp4569
g4083
a(lp4570
S'So'
p4571
aS'Mister'
p4572
aS'Farrington'
p4573
aS'decided'
p4574
aS'that'
p4575
ag114
aS'good'
p4576
aS'present'
p4577
aS'for'
p4578
aS'Vivian'
p4579
aaa(lp4580
g4083
a(lp4581
S'would'
p4582
aS'be'
p4583
aS'the'
p4584
aS'other'
p4585
aS'half'
p4586
aS'of'
p4587
aS'Willie'
p4588
aaa(lp4589
g4083
a(lp4590
S'Well'
p4591
aS'Vivian'
p4592
aS'was'
p4593
ag114
aS'very'
p4594
aS'religious'
p4595
aS'person'
p4596
aaa(lp4597
g4083
a(lp4598
S'and'
p4599
aS'her'
p4600
aS'father'
p4601
aS'at'
p4602
aS'that'
p4603
aS'time'
p4604
aS'was'
p4605
aS'the'
p4606
aS'minister'
p4607
aS'of'
p4608
ag114
aS'nearby'
p4609
aS'church'
p4610
aaa(lp4611
g4083
a(lp4612
S'So'
p4613
aS'Vivian'
p4614
aS'decided'
p4615
aaa(lp4616
g4083
a(lp4617
S'that'
p4618
aS'if'
p4619
aS'Willie'
p4620
aS'ever'
p4621
aS'had'
p4622
aS'any'
p4623
aS'success'
p4624
aS'at'
p4625
aS'the'
p4626
aS'racetrack'
p4627
aaa(lp4628
g4083
a(lp4629
S'she'
p4630
aS'would'
p4631
aS'donate'
p4632
aS'ten'
p4633
aS'percent'
p4634
aaa(lp4635
g4083
a(lp4636
S'of'
p4637
aS'her'
p4638
aS'half'
p4639
aS'of'
p4640
aS'Willies'
p4641
aS'earnings'
p4642
aaa(lp4643
g4083
a(lp4644
S'to'
p4645
aS'her'
p4646
aS'fathers'
p4647
aS'church'
p4648
aaa(lp4649
g4083
a(lp4650
S'And'
p4651
aS'thats'
p4652
aS'when'
p4653
aS'Willies'
p4654
aS'racing'
p4655
aS'career'
p4656
aS'took'
p4657
aS'off'
p4658
aaa(lp4659
S'MANY'
p4660
a(lp4661
aa(lp4662
S'DEBRA'
p4663
a(lp4664
S'Because'
p4665
aS'of'
p4666
aS'his'
p4667
aS'success'
p4668
aaa(lp4669
g4663
a(lp4670
S'and'
p4671
aS'his'
p4672
aS'ties'
p4673
aS'to'
p4674
aS'the'
p4675
aS'church'
p4676
aaa(lp4677
g4663
a(lp4678
S'there'
p4679
aS'was'
p4680
ag114
aS'book'
p4681
aS'written'
p4682
aS'about'
p4683
aS'Willie'
p4684
aaa(lp4685
g4663
a(lp4686
S'titled'
p4687
aaa(lp4688
g4663
a(lp4689
S'Rambling'
p4690
aS'Willie'
p4691
aaa(lp4692
g4663
a(lp4693
S'The'
p4694
aS'Horse'
p4695
aS'That'
p4696
aS'God'
p4697
aS'Loved'
p4698
aaa(lp4699
g4663
a(lp4700
S'In'
p4701
aS'order'
p4702
aS'to'
p4703
aS'promote'
p4704
aS'his'
p4705
aS'book'
p4706
aaa(lp4707
g4663
a(lp4708
S'Willie'
p4709
aS'would'
p4710
aS'hold'
p4711
aS'autograph'
p4712
aS'sessions'
p4713
aaa(lp4714
g4663
a(lp4715
S'One'
p4716
aS'day'
p4717
aS'when'
p4718
aS'Willie'
p4719
aS'was'
p4720
aS'in'
p4721
aS'New'
p4722
aS'York'
p4723
aaa(lp4724
g4663
a(lp4725
S'he'
p4726
aS'had'
p4727
aS'an'
p4728
aS'autograph'
p4729
aS'session'
p4730
aS'at'
p4731
aS'Macys'
p4732
aS'department'
p4733
aS'store'
p4734
aaa(lp4735
g4663
a(lp4736
S'And'
p4737
aS'he'
p4738
aS'was'
p4739
aS'such'
p4740
ag114
aS'hit'
p4741
aS'there'
p4742
aaa(lp4743
g4663
a(lp4744
S'that'
p4745
aS'Macys'
p4746
aS'gave'
p4747
aS'him'
p4748
aS'his'
p4749
aS'very'
p4750
aS'own'
p4751
aS'charge'
p4752
aS'card'
p4753
aaa(lp4754
S'MANY'
p4755
a(lp4756
aa(lp4757
S'DEBRA'
p4758
a(lp4759
S'Well'
p4760
aS'Willie'
p4761
aS'is'
p4762
aS'without'
p4763
ag114
aS'doubt'
p4764
aS'one'
p4765
aS'of'
p4766
aS'the'
p4767
aS'toughest'
p4768
aS'and'
p4769
aS'most'
p4770
aS'durable'
p4771
aS'horses'
p4772
aS'to'
p4773
aS'ever'
p4774
aS'race'
p4775
aaa(lp4776
g4758
a(lp4777
S'He'
p4778
aS'raced'
p4779
aS'from'
p4780
aS'the'
p4781
aS'age'
p4782
aS'of'
p4783
aS'two'
p4784
aS'to'
p4785
aS'thirteen'
p4786
aaa(lp4787
g4758
a(lp4788
S'He'
p4789
aS'had'
p4790
aS'an'
p4791
aS'incredible'
p4792
aS'threehundred'
p4793
aS'and'
p4794
aS'five'
p4795
aS'starts'
p4796
aaa(lp4797
g4758
a(lp4798
S'He'
p4799
aS'won'
p4800
ag114
aS'hundred'
p4801
aS'and'
p4802
aS'twentyeight'
p4803
aS'times'
p4804
aaa(lp4805
g4758
a(lp4806
S'sixtynine'
p4807
aS'times'
p4808
aS'he'
p4809
aS'finished'
p4810
aS'second'
p4811
aaa(lp4812
g4758
a(lp4813
S'and'
p4814
aS'seventynine'
p4815
aS'times'
p4816
aS'he'
p4817
aS'paced'
p4818
aS'the'
p4819
aS'mile'
p4820
aaa(lp4821
g4758
a(lp4822
S'in'
p4823
aS'two'
p4824
aS'minutes'
p4825
aS'or'
p4826
aS'less'
p4827
aaa(lp4828
g4758
a(lp4829
S'which'
p4830
aS'is'
p4831
ag114
aS'record'
p4832
aS'Willie'
p4833
aS'still'
p4834
aS'holds'
p4835
aS'today'
p4836
aaa(lp4837
g4758
a(lp4838
S'When'
p4839
aS'he'
p4840
aS'retired'
p4841
aaa(lp4842
g4758
a(lp4843
S'he'
p4844
aS'was'
p4845
aS'the'
p4846
aS'richest'
p4847
aS'standardbred'
p4848
aS'in'
p4849
aS'history'
p4850
aaa(lp4851
g4758
a(lp4852
S'with'
p4853
aS'earnings'
p4854
aS'over'
p4855
aS'two'
p4856
aS'million'
p4857
aS'dollars'
p4858
aaa(lp4859
g4758
a(lp4860
S'Willie'
p4861
aS'is'
p4862
aS'our'
p4863
aS'other'
p4864
aS'senior'
p4865
aS'citizen'
p4866
aS'here'
p4867
aS'at'
p4868
aS'the'
p4869
aS'Hall'
p4870
aS'of'
p4871
aS'Champions'
p4872
aaa(lp4873
g4758
a(lp4874
S'he'
p4875
aS'is'
p4876
aS'twentyfour'
p4877
aS'years'
p4878
aS'old'
p4879
aaa(lp4880
g4758
a(lp4881
S'and'
p4882
aS'stands'
p4883
aS'fifteen'
p4884
aS'point'
p4885
aS'two'
p4886
aS'hands'
p4887
aS'tall'
p4888
aaa(lp4889
g4758
a(lp4890
S'Ladies'
p4891
aS'and'
p4892
aS'gentlemen'
p4893
aaa(lp4894
g4758
a(lp4895
S'the'
p4896
aS'horse'
p4897
aS'that'
p4898
aS'God'
p4899
aS'loved'
p4900
aaa(lp4901
g4758
a(lp4902
S'Rambling'
p4903
aS'Willie'
p4904
aaa(lp4905
S'MANY'
p4906
a(lp4907
aa(lp4908
S'DEBRA'
p4909
a(lp4910
S'Now'
p4911
aS'Ill'
p4912
aS'just'
p4913
aS'let'
p4914
aS'everybody'
p4915
aS'know'
p4916
aaa(lp4917
g4909
a(lp4918
S'that'
p4919
aS'Willies'
p4920
aS'book'
p4921
aS'is'
p4922
aS'for'
p4923
aS'sale'
p4924
aS'here'
p4925
aS'at'
p4926
aS'the'
p4927
aS'Horse'
p4928
aS'Park'
p4929
aS'gift'
p4930
aS'shop'
p4931
aaa(lp4932
g4909
a(lp4933
S'And'
p4934
aS'wed'
p4935
aS'like'
p4936
aS'to'
p4937
aS'thank'
p4938
aS'everyone'
p4939
aaa(lp4940
g4909
a(lp4941
S'for'
p4942
aS'coming'
p4943
aS'to'
p4944
aS'the'
p4945
aS'Horse'
p4946
aS'Park'
p4947
aaa(lp4948
g4909
a(lp4949
S'and'
p4950
aS'to'
p4951
aS'the'
p4952
aS'Hall'
p4953
aS'of'
p4954
aS'Champions'
p4955
aS'presentation'
p4956
aaa(lp4957
g4909
a(lp4958
S'we'
p4959
aS'hope'
p4960
aS'youve'
p4961
aS'had'
p4962
ag114
aS'good'
p4963
aS'day'
p4964
aaa(lp4965
g4909
a(lp4966
S'and'
p4967
aS'if'
p4968
aS'you'
p4969
aS'have'
p4970
aS'any'
p4971
aS'questions'
p4972
aaa(lp4973
g4909
a(lp4974
S'feel'
p4975
aS'free'
p4976
aS'to'
p4977
aS'ask'
p4978
aS'us'
p4979
aS'on'
p4980
aS'your'
p4981
aS'way'
p4982
aS'out'
p4983
aaa(lp4984
g4909
a(lp4985
S'Thank'
p4986
aS'you'
p4987
aS'very'
p4988
aS'much'
p4989
aaa(lp4990
S'MANY'
p4991
a(lp4992
aa.