(lp0
(lp1
S'LISA'
p2
a(lp3
aa(lp4
S'KEVINX'
p5
a(lp6
S'Hes'
p7
aS'teething'
p8
aS'X'
p9
aaa(lp10
S'LISA'
p11
a(lp12
aa(lp13
S'MARIEYou'
p14
a(lp15
S'should'
p16
aS'have'
p17
aS'heard'
p18
aS'him'
p19
aaa(lp20
g14
a(lp21
S'the'
p22
aS'night'
p23
aS'we'
p24
aS'took'
p25
aS'him'
p26
aS'to'
p27
aS'the'
p28
aS'emergency'
p29
aS'room'
p30
aaa(lp31
g14
a(lp32
S'He'
p33
aS'sounded'
p34
aS'worse'
p35
aaa(lp36
S'LISAI'
p37
a(lp38
S'pr'
p39
aS'if'
p40
aaa(lp41
g37
a(lp42
S'I'
p43
aS'know'
p44
aaa(lp45
g37
a(lp46
g43
aS'would'
p47
aS'probablyve'
p48
aS'been'
p49
aS'totally'
p50
aS'freaked'
p51
aS'out'
p52
aaa(lp53
S'KEVINThats'
p54
a(lp55
S'scary'
p56
aaa(lp57
S'LISA'
p58
a(lp59
S'Maybe'
p60
aS'its'
p61
aS'good'
p62
aS'he'
p63
aS'didnt'
p64
aS'stay'
p65
aS'with'
p66
aS'me'
p67
aaa(lp68
g58
a(lp69
S'Idve'
p70
aS'been'
p71
aS'like'
p72
aS'VOX'
p73
aS'Michael'
p74
aaa(lp75
g58
a(lp76
S'VOX'
p77
aaa(lp78
S'MARIE'
p79
a(lp80
S'Yeah'
p81
aaa(lp82
g79
a(lp83
S'he'
p84
aS'was'
p85
aaa(lp86
S'KEVINVOX'
p87
a(lp88
S'Scary'
p89
aS'VOX'
p90
aaa(lp91
S'MARIEHe'
p92
a(lp93
S'was'
p94
aS'um'
p95
aaa(lp96
S'LISA'
p97
a(lp98
S'Id'
p99
aS'be'
p100
aS'like'
p101
aS'Mom'
p102
aaa(lp103
g97
a(lp104
S'uh'
p105
aaa(lp106
g97
a(lp107
S'what'
p108
aS'should'
p109
aS'we'
p110
aS'do'
p111
aS'with'
p112
aS'this'
p113
aS'child'
p114
aaa(lp115
S'MARIE'
p116
a(lp117
S'Well'
p118
aS'his'
p119
aS'temperature'
p120
aS'was'
p121
aS'a'
p122
aS'hundred'
p123
aS'and'
p124
aS'four'
p125
aS'point'
p126
aS'five'
p127
aaa(lp128
S'LISA'
p129
a(lp130
S'That'
p131
aS'is'
p132
aS'so'
p133
aS'high'
p134
aaa(lp135
S'KEVINHes'
p136
a(lp137
S'lucky'
p138
aS'that'
p139
aS'he'
p140
aS'didnt'
p141
aaa(lp142
S'LISAHow'
p143
a(lp144
S'long'
p145
aS'was'
p146
aS'he'
p147
aS'there'
p148
aaa(lp149
g143
a(lp150
S'That'
p151
aS'high'
p152
aaa(lp153
S'KEVINHow'
p154
a(lp155
S'long'
p156
aaa(lp157
g154
a(lp158
S'do'
p159
aS'you'
p160
aS'know'
p161
aaa(lp162
S'MARIEUh'
p163
a(lp164
S'his'
p165
aS'fever'
p166
aaa(lp167
S'KEVIN'
p168
a(lp169
S'Yeah'
p170
aaa(lp171
S'MARIEI'
p172
a(lp173
S'dont'
p174
aS'know'
p175
aaa(lp176
S'KEVIN'
p177
a(lp178
S'Thats'
p179
aS'dangerou'
p180
aaa(lp181
g177
a(lp182
g43
aS'mean'
p183
ag9
aS'its'
p184
ag9
aS'XX'
p185
aaa(lp186
S'MARIEThe'
p187
a(lp188
S'doctor'
p189
aS'said'
p190
aaa(lp191
S'LISACause'
p192
a(lp193
S'he'
p194
aS'could'
p195
aS'have'
p196
aaa(lp197
g192
a(lp198
S'brain'
p199
aS'damage'
p200
aaa(lp201
S'MARIEThe'
p202
a(lp203
S'doctor'
p204
aS'said'
p205
aS'that'
p206
aS'th'
p207
aS'um'
p208
aaa(lp209
g202
a(lp210
S'his'
p211
aS'pediatrician'
p212
aS'cause'
p213
ag43
aS'asked'
p214
aS'him'
p215
aS'about'
p216
aS'it'
p217
aaa(lp218
g202
a(lp219
S'and'
p220
aS'he'
p221
aS'said'
p222
aS'that'
p223
aS'they'
p224
aS'dont'
p225
aS'hospitalize'
p226
aS'until'
p227
aS'they'
p228
aS'go'
p229
aS'up'
p230
aS'to'
p231
aS'like'
p232
ag122
aS'hundred'
p233
aS'and'
p234
aS'seven'
p235
aaa(lp236
g202
a(lp237
S'And'
p238
aS'thats'
p239
aS'where'
p240
aS'its'
p241
aS'fatal'
p242
aaa(lp243
g202
a(lp244
S'And'
p245
ag43
aS'was'
p246
aS'like'
p247
aaa(lp248
g202
a(lp249
S'well'
p250
aaa(lp251
g202
a(lp252
S'you'
p253
aS'know'
p254
aaa(lp255
S'LISAWhat'
p256
a(lp257
S'about'
p258
aS'brain'
p259
aS'damage'
p260
aaa(lp261
g256
a(lp262
S'That'
p263
aS'doesnt'
p264
aS'matter'
p265
aS'or'
p266
aaa(lp267
S'MARIE'
p268
a(lp269
S'Mmm'
p270
aaa(lp271
S'LISAExcuse'
p272
a(lp273
S'me'
p274
aS'brain'
p275
aS'damage'
p276
aS'is'
p277
aS'important'
p278
aS'VOX'
p279
aS'to'
p280
aS'me'
p281
aS'VOX'
p282
aaa(lp283
S'MARIE'
p284
a(lp285
S'He'
p286
aS'said'
p287
aS'actually'
p288
aS'fevers'
p289
aS'are'
p290
aaa(lp291
g284
a(lp292
S'How'
p293
aS'did'
p294
aS'he'
p295
aS'explain'
p296
aS'it'
p297
aaa(lp298
g284
a(lp299
S'he'
p300
aS'said'
p301
aS'something'
p302
aS'like'
p303
aaa(lp304
g284
a(lp305
S'fethers'
p306
aaa(lp307
g284
a(lp308
S'Fevers'
p309
aS'are'
p310
aS'like'
p311
aaa(lp312
g284
a(lp313
S'um'
p314
aaa(lp315
g284
a(lp316
S'good'
p317
aS'for'
p318
aS'babies'
p319
aS'like'
p320
aaa(lp321
g284
a(lp322
S'when'
p323
aS'theyre'
p324
aS'i'
p325
aS'b'
p326
aS'getting'
p327
aS'sick'
p328
aaa(lp329
g284
a(lp330
S'because'
p331
aS'they'
p332
aS'help'
p333
aS'the'
p334
aS'immune'
p335
aS'system'
p336
aS'fight'
p337
aS'harder'
p338
aaa(lp339
g284
a(lp340
S'Somehow'
p341
aaa(lp342
S'LISA'
p343
a(lp344
S'Well'
p345
aS'thats'
p346
aS'what'
p347
aS'the'
p348
aaa(lp349
S'MARIEI'
p350
a(lp351
S'dont'
p352
aS'know'
p353
aaa(lp354
S'LISA'
p355
a(lp356
g43
aS'mean'
p357
aS'thats'
p358
aS'what'
p359
aaa(lp360
g355
a(lp361
S'The'
p362
aS'reason'
p363
aS'the'
p364
aS'body'
p365
aS'gets'
p366
aS'that'
p367
aS'hot'
p368
aaa(lp369
g355
a(lp370
S'is'
p371
aS'like'
p372
aS'to'
p373
aS'kill'
p374
aS'the'
p375
aS'germs'
p376
aS'or'
p377
aS'whatever'
p378
ag43
aS'think'
p379
aaa(lp380
g355
a(lp381
S'Isnt'
p382
aS'that'
p383
aS'part'
p384
aS'of'
p385
aS'it'
p386
aaa(lp387
S'MARIE'
p388
a(lp389
S'Yes'
p390
aS'doctor'
p391
aS'Kevin'
p392
aaa(lp393
g388
a(lp394
S'tell'
p395
aS'us'
p396
aaa(lp397
S'KEVIN'
p398
a(lp399
aa(lp400
S'LISA'
p401
a(lp402
S'No'
p403
aS'Im'
p404
aS'pretty'
p405
aaa(lp406
g401
a(lp407
S'Im'
p408
aS'pretty'
p409
aS'sure'
p410
aaa(lp411
g401
a(lp412
S'Im'
p413
aS'pretty'
p414
aS'sure'
p415
aS'thats'
p416
aS'part'
p417
aS'of'
p418
aS'it'
p419
aaa(lp420
g401
a(lp421
S'but'
p422
aS'uh'
p423
aS'its'
p424
aS'just'
p425
aS'that'
p426
aS'you'
p427
aS'have'
p428
aS'to'
p429
aS'watch'
p430
aS'out'
p431
aaa(lp432
g401
a(lp433
S'cause'
p434
aS'then'
p435
aaa(lp436
g401
a(lp437
S'if'
p438
aS'it'
p439
aS'gets'
p440
aS'too'
p441
aS'hot'
p442
aS'its'
p443
aS'bad'
p444
aS'for'
p445
aS'the'
p446
aS'brain'
p447
aaa(lp448
S'MARIEIts'
p449
a(lp450
S'like'
p451
ag122
aS'car'
p452
aaa(lp453
g449
a(lp454
S'it'
p455
aS'overheats'
p456
aaa(lp457
S'KEVIN'
p458
a(lp459
aa(lp460
S'MARIE'
p461
a(lp462
S'And'
p463
aS'stalls'
p464
aS'out'
p465
aaa(lp466
S'KEVIN'
p467
a(lp468
S'Maybe'
p469
aaa(lp470
g467
a(lp471
g43
aS'dont'
p472
aaa(lp473
g467
a(lp474
g43
aaa(lp475
S'LISAVOX'
p476
a(lp477
S'Are'
p478
aS'you'
p479
aS'gonna'
p480
aS'stall'
p481
aS'out'
p482
aS'L'
p483
aS'jito'
p484
aS'LVOX'
p485
aaa(lp486
S'KEVINIm'
p487
a(lp488
S'not'
p489
aS'VOX'
p490
aS'sure'
p491
aS'VOX'
p492
aaa(lp493
S'LISAVOX'
p494
a(lp495
S'Dont'
p496
aS'stall'
p497
aS'out'
p498
aS'on'
p499
aS'us'
p500
aS'VOX'
p501
aaa(lp502
S'KEVIN'
p503
a(lp504
S'Whos'
p505
aS'all'
p506
aS'the'
p507
aS'VOX'
p508
aS'babinos'
p509
aS'VOX'
p510
aaa(lp511
g503
a(lp512
g43
aS'know'
p513
aS'the'
p514
aS'one'
p515
aS'in'
p516
aS'the'
p517
aS'lower'
p518
aS'right'
p519
aaa(lp520
S'LISAWhich'
p521
a(lp522
S'one'
p523
aaa(lp524
S'MARIE'
p525
a(lp526
S'This'
p527
aS'one'
p528
aS'is'
p529
aS'mine'
p530
aaa(lp531
S'KEVIN'
p532
a(lp533
aa(lp534
g532
a(lp535
g43
aS'recognize'
p536
aS'him'
p537
aS'alr'
p538
aaa(lp539
S'LISAIssac'
p540
a(lp541
aa(lp542
S'MARIEThats'
p543
a(lp544
S'the'
p545
aS'one'
p546
aS'thats'
p547
aS'ten'
p548
aS'days'
p549
aS'older'
p550
aS'than'
p551
aS'him'
p552
aaa(lp553
g543
a(lp554
S'thats'
p555
aS'Michaels'
p556
aaa(lp557
g543
a(lp558
S'Those'
p559
aS'are'
p560
aS'Michaels'
p561
aS'nephews'
p562
aaa(lp563
S'LISAJose'
p564
a(lp565
aa(lp566
S'KEVINthats'
p567
a(lp568
S'Jose'
p569
aaa(lp570
S'LISAJose'
p571
a(lp572
S'and'
p573
aS'then'
p574
aaa(lp575
S'MARIEand'
p576
a(lp577
S'then'
p578
aS'Ginos'
p579
aS'the'
p580
aS'one'
p581
aS'in'
p582
aS'the'
p583
aS'middle'
p584
aaa(lp585
S'LISAGino'
p586
a(lp587
S'is'
p588
aS'in'
p589
aS'the'
p590
aS'middle'
p591
aaa(lp592
S'MARIEThats'
p593
a(lp594
S'his'
p595
aS'sister'
p596
aaa(lp597
S'KEVINAw'
p598
a(lp599
S'hes'
p600
ag122
aS'bit'
p601
aS'older'
p602
aaa(lp603
g598
a(lp604
S'Right'
p605
aaa(lp606
S'MARIEYeah'
p607
a(lp608
S'hes'
p609
aS'three'
p610
aaa(lp611
S'KEVIN'
p612
a(lp613
S'He'
p614
aS'doesnt'
p615
aS'look'
p616
aS'that'
p617
aaa(lp618
S'LISA'
p619
a(lp620
S'Hes'
p621
aS'o'
p622
aaa(lp623
g619
a(lp624
S'Hes'
p625
aS'three'
p626
aaa(lp627
g619
a(lp628
S'Is'
p629
aS'he'
p630
aS'talking'
p631
aS'any'
p632
aS'more'
p633
aaa(lp634
g619
a(lp635
S'Is'
p636
aS'he'
p637
aS'talking'
p638
aS'good'
p639
aS'now'
p640
aaa(lp641
S'MARIE'
p642
a(lp643
S'You'
p644
aS'cant'
p645
aS'understan'
p646
aaa(lp647
g642
a(lp648
S'He'
p649
aaa(lp650
g642
a(lp651
S'You'
p652
aS'can'
p653
aS'but'
p654
aaa(lp655
g642
a(lp656
S'then'
p657
aS'you'
p658
aS'cant'
p659
aaa(lp660
g642
a(lp661
S'Sometimes'
p662
aS'some'
p663
aS'of'
p664
aS'the'
p665
aS'things'
p666
aS'he'
p667
aS'says'
p668
aaa(lp669
S'LISA'
p670
a(lp671
S'Does'
p672
aS'he'
p673
aS'talk'
p674
aS'big'
p675
aS'long'
p676
aS'things'
p677
aS'but'
p678
aS'you'
p679
aS'just'
p680
aS'cant'
p681
aS'understand'
p682
aS'em'
p683
aaa(lp684
g670
a(lp685
S'No'
p686
aaa(lp687
g670
a(lp688
S'hes'
p689
aS'okay'
p690
aS'then'
p691
aaa(lp692
S'KEVIN'
p693
a(lp694
S'P'
p695
aS'A'
p696
aS'gestalt'
p697
aS'kid'
p698
ag695
aaa(lp699
S'LISA'
p700
a(lp701
S'VOX'
p702
aS'Hes'
p703
ag122
aS'gestalt'
p704
aS'child'
p705
aS'VOX'
p706
aaa(lp707
S'KEVIN'
p708
a(lp709
aa(lp710
S'MARIE'
p711
a(lp712
aa(lp713
S'LISANo'
p714
a(lp715
aa(lp716
g714
a(lp717
S'theres'
p718
aS'two'
p719
aS'different'
p720
aS'wa'
p721
aaa(lp722
S'MARIEYeah'
p723
a(lp724
aa(lp725
g723
a(lp726
S'psychotherapist'
p727
aS'Lisa'
p728
aaa(lp729
S'LISANo'
p730
a(lp731
S'no'
p732
aS'no'
p733
aS'no'
p734
aS'no'
p735
aS'no'
p736
aS'n'
p737
aS'no'
p738
aS'no'
p739
ag737
aS'no'
p740
aaa(lp741
S'MARIE'
p742
a(lp743
aa(lp744
S'KEVIN'
p745
a(lp746
aa(lp747
S'LISA'
p748
a(lp749
S'Its'
p750
aS'just'
p751
aS'two'
p752
aS'different'
p753
aS'ways'
p754
aaa(lp755
g748
a(lp756
S'Like'
p757
aaa(lp758
g748
a(lp759
S'kids'
p760
aS'can'
p761
aS'either'
p762
aS'like'
p763
aaa(lp764
g748
a(lp765
S'theyll'
p766
aS'say'
p767
aS'one'
p768
aS'word'
p769
aaa(lp770
g748
a(lp771
S'but'
p772
aS'theyll'
p773
aS'say'
p774
aS'it'
p775
aS'really'
p776
aaa(lp777
g748
a(lp778
S'like'
p779
aS'pretty'
p780
aS'clear'
p781
aaa(lp782
g748
a(lp783
S'and'
p784
aS'thats'
p785
aS'the'
p786
aS'way'
p787
aS'theyre'
p788
aS'th'
p789
aaa(lp790
g748
a(lp791
S'Theyll'
p792
aS'have'
p793
aS'like'
p794
aS'twenty'
p795
aS'words'
p796
aS'or'
p797
aS'whatever'
p798
aaa(lp799
g748
a(lp800
S'and'
p801
aS'theyll'
p802
aS'just'
p803
aS'ask'
p804
aS'for'
p805
aS'one'
p806
aS'thing'
p807
aaa(lp808
g748
a(lp809
S'And'
p810
aS'then'
p811
aS'theres'
p812
aS'other'
p813
aS'kids'
p814
aS'who'
p815
aS'go'
p816
aaa(lp817
g748
a(lp818
S'VOX'
p819
aS'nanananazabada'
p820
aS'VOX'
p821
aaa(lp822
g748
a(lp823
S'And'
p824
aS'therell'
p825
aS'be'
p826
ag122
aS'word'
p827
aS'in'
p828
aS'there'
p829
aS'somewhere'
p830
aaa(lp831
S'KEVIN'
p832
a(lp833
aa(lp834
S'LISA'
p835
a(lp836
S'And'
p837
aS'theres'
p838
ag122
aaa(lp839
S'BABYCOUGHING'
p840
a(lp841
aa(lp842
S'KEVIN'
p843
a(lp844
S'Oh'
p845
aaa(lp846
S'MARIEDont'
p847
a(lp848
S'freak'
p849
aS'out'
p850
aaa(lp851
S'LISA'
p852
a(lp853
S'Are'
p854
aS'you'
p855
aS'okay'
p856
aaa(lp857
S'KEVINCause'
p858
a(lp859
g43
aS'tickled'
p860
aS'his'
p861
aS'feet'
p862
aaa(lp863
g858
a(lp864
S'Its'
p865
aS'all'
p866
aS'my'
p867
aS'fault'
p868
aaa(lp869
S'LISA'
p870
a(lp871
S'Give'
p872
aS'him'
p873
ag122
aS'drink'
p874
aaa(lp875
S'MARIE'
p876
a(lp877
g9
aS'Its'
p878
ag9
aS'he'
p879
aS'drinks'
p880
aS'too'
p881
aS'fast'
p882
aaa(lp883
g876
a(lp884
S'It'
p885
aS'just'
p886
aS'went'
p887
aS'down'
p888
aS'the'
p889
aS'wrong'
p890
aS'pipe'
p891
aaa(lp892
S'BABYCOUGHING'
p893
a(lp894
aa(lp895
S'KEVIN'
p896
a(lp897
S'You'
p898
aS'need'
p899
aS'to'
p900
aS'burp'
p901
aaa(lp902
S'BABY'
p903
a(lp904
aa(lp905
S'KEVINIt'
p906
a(lp907
S'wasnt'
p908
aS'that'
p909
aS'bad'
p910
aaa(lp911
S'LISAVOX'
p912
a(lp913
S'Oh'
p914
aaa(lp915
g912
a(lp916
S'really'
p917
aS'sorry'
p918
aS'VOX'
p919
aaa(lp920
g912
a(lp921
S'KEVIN'
p922
aaa(lp923
S'LISA'
p924
a(lp925
S'But'
p926
aS'um'
p927
aaa(lp928
g924
a(lp929
S'anyways'
p930
aaa(lp931
g924
a(lp932
S'So'
p933
aS'its'
p934
aS'just'
p935
ag122
aS'd'
p936
aS'like'
p937
ag122
aS'different'
p938
aS'style'
p939
aaa(lp940
S'KEVINX'
p941
a(lp942
g9
ag122
aS'lot'
p943
aS'of'
p944
aS'air'
p945
ag9
aaa(lp946
S'LISA'
p947
a(lp948
S'VOX'
p949
ag43
aS'sorry'
p950
aS'VOX'
p951
aaa(lp952
S'KEVINTheyre'
p953
a(lp954
S'allowed'
p955
aS'to'
p956
aS'do'
p957
aS'it'
p958
aS'either'
p959
aS'way'
p960
aaa(lp961
S'MARIE'
p962
a(lp963
aa(lp964
S'LISA'
p965
a(lp966
S'Theyre'
p967
aS'allowed'
p968
aaa(lp969
S'KEVIN'
p970
a(lp971
aa(lp972
S'LISA'
p973
a(lp974
S'VOX'
p975
aS'No'
p976
aS'no'
p977
aS'no'
p978
aS'no'
p979
aS'VOX'
p980
aaa(lp981
g973
a(lp982
S'VOX'
p983
aS'Which'
p984
aS'way'
p985
aS'you'
p986
aS'gonna'
p987
aS'do'
p988
aS'it'
p989
aS'VOX'
p990
aaa(lp991
S'KEVIN'
p992
a(lp993
S'Is'
p994
aS'he'
p995
ag122
aS'righ'
p996
aaa(lp997
g992
a(lp998
S'Are'
p999
aS'you'
p1000
ag122
aS'righty'
p1001
aaa(lp1002
g992
a(lp1003
S'Youre'
p1004
ag122
aS'righty'
p1005
aaa(lp1006
S'MARIE'
p1007
a(lp1008
S'Its'
p1009
aS'funny'
p1010
aS'cause'
p1011
aaa(lp1012
g1007
a(lp1013
S'h'
p1014
aS'hell'
p1015
aS'be'
p1016
aS'like'
p1017
aaa(lp1018
g1007
a(lp1019
S'hell'
p1020
aS'get'
p1021
aS'up'
p1022
aS'in'
p1023
aS'the'
p1024
aS'morning'
p1025
aaa(lp1026
g1007
a(lp1027
S'hell'
p1028
aS'sit'
p1029
aS'in'
p1030
aS'front'
p1031
aS'of'
p1032
aS'the'
p1033
aS'TV'
p1034
aS'with'
p1035
aS'his'
p1036
aS'bottle'
p1037
aS'in'
p1038
aS'one'
p1039
aS'hand'
p1040
aaa(lp1041
g1007
a(lp1042
S'just'
p1043
aS'watching'
p1044
aS'TV'
p1045
aaa(lp1046
S'KEVIN'
p1047
a(lp1048
aa(lp1049
S'MARIE'
p1050
a(lp1051
S'like'
p1052
aS'half'
p1053
aS'asleep'
p1054
aaa(lp1055
g1050
a(lp1056
S'you'
p1057
aS'know'
p1058
aaa(lp1059
S'KEVIN'
p1060
a(lp1061
aa(lp1062
S'MARIEhes'
p1063
a(lp1064
g122
aaa(lp1065
g1063
a(lp1066
S'and'
p1067
aS'Im'
p1068
aS'like'
p1069
aaa(lp1070
g1063
a(lp1071
S'Go'
p1072
aaa(lp1073
g1063
a(lp1074
S'While'
p1075
aS'ago'
p1076
aS'he'
p1077
aS'was'
p1078
aS'sitting'
p1079
aS'here'
p1080
aaa(lp1081
S'KEVINX'
p1082
a(lp1083
S'If'
p1084
aS'you'
p1085
aS'lay'
p1086
ag9
aaa(lp1087
S'MARIEand'
p1088
a(lp1089
S'he'
p1090
aS'was'
p1091
aS'watching'
p1092
aS'the'
p1093
aS'football'
p1094
aS'game'
p1095
aaa(lp1096
S'LISALike'
p1097
a(lp1098
S'his'
p1099
aS'grandpa'
p1100
aaa(lp1101
S'MARIE'
p1102
a(lp1103
S'he'
p1104
aS'was'
p1105
aS'watching'
p1106
aS'the'
p1107
aS'football'
p1108
aS'game'
p1109
aaa(lp1110
S'KEVIN'
p1111
a(lp1112
aa(lp1113
S'MARIE'
p1114
a(lp1115
aa(lp1116
S'LISA'
p1117
a(lp1118
aa(lp1119
S'KEVIN'
p1120
a(lp1121
S'Thats'
p1122
aS'low'
p1123
aaa(lp1124
g1120
a(lp1125
g9
aS'Issac'
p1126
ag9
aaa(lp1127
S'LISABottle'
p1128
a(lp1129
S'in'
p1130
aS'one'
p1131
aS'hand'
p1132
aaa(lp1133
g1128
a(lp1134
S'half'
p1135
aS'asleep'
p1136
aaa(lp1137
S'KEVIN'
p1138
a(lp1139
aa(lp1140
S'MARIE'
p1141
a(lp1142
aa(lp1143
S'LISAwatching'
p1144
a(lp1145
S'TV'
p1146
aaa(lp1147
S'KEVIN'
p1148
a(lp1149
S'Thats'
p1150
aS'low'
p1151
aaa(lp1152
S'LISA'
p1153
a(lp1154
S'XXX'
p1155
aS'this'
p1156
aS'picture'
p1157
aaa(lp1158
S'MARIE'
p1159
a(lp1160
S'Thanks'
p1161
ag122
aS'lot'
p1162
aaa(lp1163
S'KEVIN'
p1164
a(lp1165
aa(lp1166
S'MARIEyou'
p1167
a(lp1168
S'witch'
p1169
aaa(lp1170
S'LISA'
p1171
a(lp1172
aa(lp1173
S'KEVIN'
p1174
a(lp1175
aa(lp1176
S'LISAWhat'
p1177
a(lp1178
aa(lp1179
S'MARIEYou'
p1180
a(lp1181
S'witch'
p1182
aaa(lp1183
S'LISA'
p1184
a(lp1185
S'Its'
p1186
aS'true'
p1187
aaa(lp1188
S'KEVIN'
p1189
a(lp1190
aa(lp1191
S'BABY'
p1192
a(lp1193
aa(lp1194
S'KEVINVOX'
p1195
a(lp1196
S'Aw'
p1197
aaa(lp1198
S'LISAL'
p1199
a(lp1200
S'Jito'
p1201
ag483
aaa(lp1202
S'KEVINyoure'
p1203
a(lp1204
S'dwibbling'
p1205
aS'VOX'
p1206
aaa(lp1207
S'LISA'
p1208
a(lp1209
S'VOX'
p1210
aS'Dwibbling'
p1211
aS'VOX'
p1212
aaa(lp1213
S'KEVINVOX'
p1214
a(lp1215
S'Uh'
p1216
aS'dwibbling'
p1217
aS'VOX'
p1218
aaa(lp1219
S'LISA'
p1220
a(lp1221
S'Gross'
p1222
aaa(lp1223
g1220
a(lp1224
S'Um'
p1225
aaa(lp1226
S'KEVINOh'
p1227
a(lp1228
aa(lp1229
S'LISAtry'
p1230
a(lp1231
S'not'
p1232
aS'to'
p1233
aS'spit'
p1234
aS'all'
p1235
aS'over'
p1236
ag9
aS'here'
p1237
ag9
aaa(lp1238
S'KEVINBaby'
p1239
a(lp1240
S'slobber'
p1241
aaa(lp1242
g1239
a(lp1243
S'ew'
p1244
aaa(lp1245
S'MARIE'
p1246
a(lp1247
aa(lp1248
S'LISA'
p1249
a(lp1250
aa(lp1251
S'MARIE'
p1252
a(lp1253
S'You'
p1254
ag9
aS'seen'
p1255
aS'it'
p1256
aS'was'
p1257
aS'gross'
p1258
aaa(lp1259
S'KEVINX'
p1260
a(lp1261
aa(lp1262
S'MARIEMichael'
p1263
a(lp1264
aa(lp1265
g1263
a(lp1266
S'Michaels'
p1267
aS'shirt'
p1268
aS'was'
p1269
aS'all'
p1270
aS'wet'
p1271
aaa(lp1272
g1263
a(lp1273
S'from'
p1274
aS'right'
p1275
aS'here'
p1276
aaa(lp1277
S'KEVIN'
p1278
a(lp1279
aa(lp1280
S'MARIEfrom'
p1281
a(lp1282
S'him'
p1283
aS'just'
p1284
aS'drooling'
p1285
aaa(lp1286
S'KEVIN'
p1287
a(lp1288
aa(lp1289
S'MARIE'
p1290
a(lp1291
S'It'
p1292
aS'was'
p1293
aS'gross'
p1294
aaa(lp1295
S'KEVIN'
p1296
a(lp1297
aa(lp1298
S'LISA'
p1299
a(lp1300
S'Probably'
p1301
aS'he'
p1302
aS'was'
p1303
aS'opening'
p1304
aaa(lp1305
S'MARIEand'
p1306
a(lp1307
S'we'
p1308
ag9
aS'took'
p1309
aS'him'
p1310
aS'to'
p1311
aS'the'
p1312
ag9
ag9
aaa(lp1313
S'LISA'
p1314
a(lp1315
S'Breathing'
p1316
aS'through'
p1317
aS'his'
p1318
aS'mouth'
p1319
aS'more'
p1320
aaa(lp1321
g1314
a(lp1322
S'cause'
p1323
aS'he'
p1324
aS'couldnt'
p1325
aS'breathe'
p1326
aS'through'
p1327
aS'his'
p1328
aS'nose'
p1329
ag9
aS'at'
p1330
ag9
aaa(lp1331
S'MARIEMm'
p1332
a(lp1333
aa(lp1334
g1332
a(lp1335
S'And'
p1336
aS'then'
p1337
aS'he'
p1338
aS'couldnt'
p1339
aS'even'
p1340
aS'breathe'
p1341
aaa(lp1342
g1332
a(lp1343
S'he'
p1344
aS'had'
p1345
aaa(lp1346
g1332
a(lp1347
S'um'
p1348
aaa(lp1349
g1332
a(lp1350
S'they'
p1351
aS'had'
p1352
aS'this'
p1353
aS'thing'
p1354
aaa(lp1355
g1332
a(lp1356
S'it'
p1357
aS'was'
p1358
aS'this'
p1359
aS'big'
p1360
aS'old'
p1361
aS'long'
p1362
aS'old'
p1363
aS'tube'
p1364
aaa(lp1365
S'LISAHere'
p1366
a(lp1367
aa(lp1368
S'MARIE'
p1369
a(lp1370
S'and'
p1371
aS'it'
p1372
aS'was'
p1373
aS'funny'
p1374
aS'cause'
p1375
aaa(lp1376
g1369
a(lp1377
S'like'
p1378
aaa(lp1379
g1369
a(lp1380
S'we'
p1381
aS'could'
p1382
aaa(lp1383
S'BABY'
p1384
a(lp1385
aa(lp1386
S'MARIE'
p1387
a(lp1388
S'They'
p1389
aS'put'
p1390
ag122
aS'mist'
p1391
aaa(lp1392
S'LISAChild'
p1393
a(lp1394
aa(lp1395
g1393
a(lp1396
S'youre'
p1397
aS'having'
p1398
aS'problems'
p1399
aaa(lp1400
S'MARIEAnd'
p1401
a(lp1402
S'you'
p1403
aS'could'
p1404
aS'just'
p1405
aS'see'
p1406
aS'like'
p1407
aS'smoke'
p1408
aaa(lp1409
g1401
a(lp1410
S'you'
p1411
aS'know'
p1412
aaa(lp1413
g1401
a(lp1414
S'like'
p1415
ag122
aS'mist'
p1416
aaa(lp1417
g1401
a(lp1418
S'like'
p1419
ag122
aS'humidifier'
p1420
aaa(lp1421
g1401
a(lp1422
S'coming'
p1423
aS'out'
p1424
aS'and'
p1425
ag43
aS'was'
p1426
aS'like'
p1427
aaa(lp1428
S'KEVINMhm'
p1429
a(lp1430
aa(lp1431
S'LISAMhm'
p1432
a(lp1433
aa(lp1434
S'MARIE'
p1435
a(lp1436
aa(lp1437
g1435
a(lp1438
S'and'
p1439
ag43
aS'was'
p1440
aS'all'
p1441
aaa(lp1442
S'KEVIN'
p1443
a(lp1444
S'Out'
p1445
aS'of'
p1446
aS'his'
p1447
aS'throat'
p1448
aaa(lp1449
g1443
a(lp1450
g43
aS'mean'
p1451
ag9
aS'then'
p1452
aS'whered'
p1453
aS'they'
p1454
aS'put'
p1455
aS'this'
p1456
aS'on'
p1457
ag9
aaa(lp1458
g1443
a(lp1459
S'in'
p1460
aS'where'
p1461
aS'did'
p1462
aS'it'
p1463
aaa(lp1464
S'MARIENo'
p1465
a(lp1466
aa(lp1467
g1465
a(lp1468
S'they'
p1469
aS'stuck'
p1470
aS'it'
p1471
aS'in'
p1472
ag122
aS'tu'
p1473
aaa(lp1474
g1465
a(lp1475
S'It'
p1476
aS'came'
p1477
aS'out'
p1478
aS'of'
p1479
ag122
aS'tube'
p1480
aaa(lp1481
g1465
a(lp1482
S'and'
p1483
ag43
aS'just'
p1484
aS'had'
p1485
aS'to'
p1486
aS'hold'
p1487
aS'it'
p1488
aS'like'
p1489
aaa(lp1490
g1465
a(lp1491
S'around'
p1492
aS'his'
p1493
aS'face'
p1494
aaa(lp1495
S'KEVINOh'
p1496
a(lp1497
aa(lp1498
g1496
a(lp1499
S'oh'
p1500
aS'okay'
p1501
aS'okay'
p1502
aaa(lp1503
S'MARIEso'
p1504
a(lp1505
S'that'
p1506
aS'he'
p1507
aS'could'
p1508
aaa(lp1509
S'LISAVOX'
p1510
a(lp1511
S'Come'
p1512
aS'here'
p1513
aS'VOX'
p1514
aaa(lp1515
S'MARIEIt'
p1516
a(lp1517
S'was'
p1518
aS'oxygen'
p1519
aaa(lp1520
g1516
a(lp1521
S'but'
p1522
aS'they'
p1523
aS'put'
p1524
ag122
aS'mist'
p1525
aS'in'
p1526
aS'it'
p1527
aaa(lp1528
g1516
a(lp1529
S'so'
p1530
aS'that'
p1531
aS'he'
p1532
aS'could'
p1533
aaa(lp1534
g1516
a(lp1535
S'They'
p1536
aS'didnt'
p1537
aS'want'
p1538
aS'to'
p1539
aS'stick'
p1540
aS'oxygen'
p1541
aS'tube'
p1542
aS'up'
p1543
aS'his'
p1544
aS'nose'
p1545
aaa(lp1546
g1516
a(lp1547
S'or'
p1548
aS'put'
p1549
ag122
aS'mask'
p1550
aS'on'
p1551
aS'him'
p1552
aaa(lp1553
g1516
a(lp1554
S'cause'
p1555
aS'hed'
p1556
aS'take'
p1557
aS'it'
p1558
aS'off'
p1559
aaa(lp1560
S'LISA'
p1561
a(lp1562
S'Mhm'
p1563
aaa(lp1564
S'MARIE'
p1565
a(lp1566
aa(lp1567
g1565
a(lp1568
S'And'
p1569
aS'it'
p1570
aS'was'
p1571
aS'funny'
p1572
aaa(lp1573
g1565
a(lp1574
S'because'
p1575
aS'every'
p1576
aS'time'
p1577
aS'like'
p1578
aS'hed'
p1579
aS'see'
p1580
ag122
aS'person'
p1581
aS'wearing'
p1582
aS'blue'
p1583
aaa(lp1584
g1565
a(lp1585
S'hed'
p1586
aS'be'
p1587
aS'all'
p1588
aaa(lp1589
g1565
a(lp1590
S'and'
p1591
aS'hed'
p1592
aS'start'
p1593
aS'like'
p1594
aaa(lp1595
g1565
a(lp1596
S'not'
p1597
aS'breathing'
p1598
aaa(lp1599
S'KEVIN'
p1600
a(lp1601
aa(lp1602
S'LISAOh'
p1603
a(lp1604
aa(lp1605
S'MARIEand'
p1606
a(lp1607
S'then'
p1608
aS'hed'
p1609
aS'like'
p1610
aaa(lp1611
g1606
a(lp1612
g9
aS'poor'
p1613
ag9
aaa(lp1614
g1606
a(lp1615
S'And'
p1616
aS'then'
p1617
aS'it'
p1618
aS'would'
p1619
aS'sto'
p1620
aaa(lp1621
g1606
a(lp1622
S'And'
p1623
aS'theyd'
p1624
aS'be'
p1625
aS'all'
p1626
aS'VOX'
p1627
aS'okay'
p1628
aS'okay'
p1629
aS'VOX'
p1630
aaa(lp1631
g1606
a(lp1632
S'and'
p1633
aS'theyd'
p1634
aS'walk'
p1635
aS'out'
p1636
aS'of'
p1637
aS'the'
p1638
aS'room'
p1639
aaa(lp1640
g1606
a(lp1641
S'cause'
p1642
aS'they'
p1643
aS'didnt'
p1644
aS'want'
p1645
aS'to'
p1646
aS'excite'
p1647
aS'him'
p1648
aaa(lp1649
g1606
a(lp1650
S'cause'
p1651
aS'they'
p1652
aS'didnt'
p1653
aS'want'
p1654
aS'him'
p1655
aS'to'
p1656
aS'hyperventilate'
p1657
aaa(lp1658
S'LISAVOX'
p1659
a(lp1660
S'Poor'
p1661
aS'thing'
p1662
aaa(lp1663
g1659
a(lp1664
S'XXX'
p1665
aS'VOX'
p1666
aaa(lp1667
S'KEVINX'
p1668
a(lp1669
S'Yeah'
p1670
ag9
aS'hes'
p1671
aS'doing'
p1672
aS'better'
p1673
aaa(lp1674
S'MARIE'
p1675
a(lp1676
S'And'
p1677
aS'then'
p1678
aS'the'
p1679
aS'doctor'
p1680
aS'comes'
p1681
aS'in'
p1682
aaa(lp1683
g1675
a(lp1684
S'and'
p1685
aS'he'
p1686
aS'just'
p1687
aS'looks'
p1688
aS'at'
p1689
aS'him'
p1690
aaa(lp1691
g1675
a(lp1692
S'and'
p1693
aS'then'
p1694
aS'they'
p1695
aS'stick'
p1696
aS'this'
p1697
aS'fing'
p1698
aaa(lp1699
g1675
a(lp1700
S'thing'
p1701
aS'on'
p1702
aS'his'
p1703
aS'finger'
p1704
aaa(lp1705
g1675
a(lp1706
S'Its'
p1707
aS'like'
p1708
aS'light'
p1709
aS'sensored'
p1710
aaa(lp1711
g1675
a(lp1712
S'And'
p1713
aS'they'
p1714
aS'have'
p1715
aS'to'
p1716
aS'guard'
p1717
aS'it'
p1718
aS'from'
p1719
aS'the'
p1720
aS'light'
p1721
aaa(lp1722
g1675
a(lp1723
S'and'
p1724
aS'thats'
p1725
aS'what'
p1726
aS'measures'
p1727
aS'his'
p1728
aS'heart'
p1729
aS'rate'
p1730
aaa(lp1731
g1675
a(lp1732
S'And'
p1733
aS'it'
p1734
aS'measures'
p1735
aS'his'
p1736
aS'oxygen'
p1737
aS'percent'
p1738
aaa(lp1739
g1675
a(lp1740
S'how'
p1741
aS'much'
p1742
aS'oxygen'
p1743
aS'hes'
p1744
aS'getting'
p1745
aaa(lp1746
S'KEVINWild'
p1747
a(lp1748
aa(lp1749
S'LISA'
p1750
a(lp1751
S'Cool'
p1752
aaa(lp1753
S'MARIE'
p1754
a(lp1755
S'It'
p1756
aS'was'
p1757
aS'weird'
p1758
aaa(lp1759
g1754
a(lp1760
S'And'
p1761
aS'he'
p1762
aS'was'
p1763
aS'all'
p1764
aS'in'
p1765
aaa(lp1766
S'KEVINDid'
p1767
a(lp1768
S'his'
p1769
aS'oxygen'
p1770
aS'get'
p1771
aS'low'
p1772
aaa(lp1773
g1767
a(lp1774
S'Or'
p1775
aaa(lp1776
S'MARIEYeah'
p1777
a(lp1778
aa(lp1779
g1777
a(lp1780
S'it'
p1781
aS'was'
p1782
aS'like'
p1783
aS'eightysix'
p1784
aS'percent'
p1785
aaa(lp1786
S'LISAYeah'
p1787
a(lp1788
aa(lp1789
S'KEVIN'
p1790
a(lp1791
S'Which'
p1792
aaa(lp1793
g1790
a(lp1794
S'Of'
p1795
aS'whats'
p1796
aaa(lp1797
S'LISASupposed'
p1798
a(lp1799
S'to'
p1800
aS'be'
p1801
aS'like'
p1802
aS'ninety'
p1803
aS'what'
p1804
aaa(lp1805
S'MARIEA'
p1806
a(lp1807
S'hundred'
p1808
aaa(lp1809
g1806
a(lp1810
S'Um'
p1811
aaa(lp1812
g1806
a(lp1813
S'adults'
p1814
aS'are'
p1815
aS'probably'
p1816
aaa(lp1817
S'LISALike'
p1818
a(lp1819
S'ninetysevens'
p1820
aS'okay'
p1821
ag43
aS'think'
p1822
aaa(lp1823
S'MARIE'
p1824
a(lp1825
S'Adults'
p1826
aS'are'
p1827
aS'supposed'
p1828
aS'to'
p1829
aS'be'
p1830
aS'anywhere'
p1831
aS'from'
p1832
aS'like'
p1833
aS'ninetythree'
p1834
aS'to'
p1835
aS'on'
p1836
aS'up'
p1837
aaa(lp1838
S'LISAX'
p1839
a(lp1840
aa(lp1841
g1839
a(lp1842
S'You'
p1843
aS'gonna'
p1844
aS'go'
p1845
aS'down'
p1846
aaa(lp1847
S'MARIE'
p1848
a(lp1849
S'But'
p1850
aS'anything'
p1851
aaa(lp1852
S'KEVINAnd'
p1853
a(lp1854
S'you'
p1855
aS'ha'
p1856
aaa(lp1857
g1853
a(lp1858
S'Babies'
p1859
aS'higher'
p1860
aS'or'
p1861
aS'lower'
p1862
aaa(lp1863
S'MARIEYeah'
p1864
a(lp1865
aa(lp1866
S'LISAVOX'
p1867
a(lp1868
S'Gonna'
p1869
aS'go'
p1870
aS'on'
p1871
aS'the'
p1872
aS'floor'
p1873
aS'VOX'
p1874
aaa(lp1875
S'MARIEbabies'
p1876
a(lp1877
S'are'
p1878
aS'usually'
p1879
aS'higher'
p1880
aaa(lp1881
g1876
a(lp1882
S'because'
p1883
aS'you'
p1884
aS'know'
p1885
aS'they'
p1886
aaa(lp1887
S'LISAVOX'
p1888
a(lp1889
S'Are'
p1890
aS'you'
p1891
aS'mad'
p1892
aS'at'
p1893
aS'Nina'
p1894
aS'VOX'
p1895
aaa(lp1896
S'MARIEThey'
p1897
a(lp1898
S'havent'
p1899
aS'been'
p1900
aS'around'
p1901
aS'as'
p1902
aS'long'
p1903
aaa(lp1904
S'KEVIN'
p1905
a(lp1906
aa(lp1907
S'LISA'
p1908
a(lp1909
aa(lp1910
S'KEVINSo'
p1911
a(lp1912
S'she'
p1913
aaa(lp1914
g1911
a(lp1915
S'Yeah'
p1916
aaa(lp1917
g1911
a(lp1918
S'so'
p1919
aaa(lp1920
g1911
a(lp1921
S'he'
p1922
aS'was'
p1923
aS'really'
p1924
aS'not'
p1925
aS'doing'
p1926
aS'well'
p1927
aaa(lp1928
S'MARIENo'
p1929
a(lp1930
aa(lp1931
g1929
a(lp1932
S'Nobody'
p1933
aS'should'
p1934
aS'really'
p1935
aS'be'
p1936
aS'that'
p1937
aS'low'
p1938
aaa(lp1939
g1929
a(lp1940
g43
aS'mean'
p1941
aaa(lp1942
g1929
a(lp1943
S'people'
p1944
aS'that'
p1945
aS'are'
p1946
aS'that'
p1947
aS'low'
p1948
aS'theres'
p1949
aaa(lp1950
g1929
a(lp1951
S'they'
p1952
aS'have'
p1953
aS'asthma'
p1954
aS'and'
p1955
aS'stuff'
p1956
aS'like'
p1957
aS'that'
p1958
aaa(lp1959
S'KEVINVOX'
p1960
a(lp1961
S'Hee'
p1962
aS'hee'
p1963
ag1014
aS'hee'
p1964
aS'hee'
p1965
aS'VOX'
p1966
aaa(lp1967
S'LISAX'
p1968
a(lp1969
S'They'
p1970
ag9
aS'like'
p1971
aaa(lp1972
g1968
a(lp1973
S'Yeah'
p1974
aaa(lp1975
g1968
a(lp1976
S'Or'
p1977
aS'emphysema'
p1978
aaa(lp1979
S'KEVINVOX'
p1980
a(lp1981
S'Ha'
p1982
aS'ha'
p1983
aS'ha'
p1984
aS'ha'
p1985
aS'VOX'
p1986
aaa(lp1987
S'MARIE'
p1988
a(lp1989
S'But'
p1990
aS'he'
p1991
aS'was'
p1992
aaa(lp1993
g1988
a(lp1994
S'And'
p1995
aS'his'
p1996
aS'heart'
p1997
aaa(lp1998
S'LISAWhat'
p1999
a(lp2000
S'was'
p2001
aS'his'
p2002
aS'heart'
p2003
aS'rate'
p2004
aaa(lp2005
S'MARIE'
p2006
a(lp2007
S'Two'
p2008
ag622
aS'four'
p2009
aaa(lp2010
S'LISA'
p2011
a(lp2012
S'And'
p2013
aS'its'
p2014
aS'supposed'
p2015
aS'to'
p2016
aS'be'
p2017
aaa(lp2018
S'MARIE'
p2019
a(lp2020
g43
aS'think'
p2021
aS'he'
p2022
aS'said'
p2023
aS'like'
p2024
aS'one'
p2025
aS'sixtyeight'
p2026
aS'or'
p2027
aS'something'
p2028
aaa(lp2029
S'KEVINWell'
p2030
a(lp2031
aa(lp2032
g2030
a(lp2033
S'babies'
p2034
aS'are'
p2035
aS'supposed'
p2036
aS'to'
p2037
aS'have'
p2038
aS'really'
p2039
aS'high'
p2040
aS'heart'
p2041
aS'rates'
p2042
aaa(lp2043
S'LISABut'
p2044
a(lp2045
S'one'
p2046
aS'sixtyeight'
p2047
aS'versus'
p2048
aS'two'
p2049
ag622
aS'four'
p2050
aaa(lp2051
S'KEVINThats'
p2052
a(lp2053
S'still'
p2054
aS'scary'
p2055
aaa(lp2056
S'MARIE'
p2057
a(lp2058
S'And'
p2059
aS'hed'
p2060
aS'just'
p2061
aS'do'
p2062
aaa(lp2063
g2057
a(lp2064
S'he'
p2065
aS'was'
p2066
aS'doing'
p2067
aS'it'
p2068
aaa(lp2069
g2057
a(lp2070
S'when'
p2071
aS'hed'
p2072
aS'get'
p2073
aS'really'
p2074
aS'excited'
p2075
aaa(lp2076
g2057
a(lp2077
S'so'
p2078
aS'thats'
p2079
aS'why'
p2080
aS'they'
p2081
aS'were'
p2082
aS'staying'
p2083
aS'away'
p2084
aS'from'
p2085
aS'him'
p2086
aaa(lp2087
g2057
a(lp2088
S'And'
p2089
aS'uh'
p2090
aaa(lp2091
g2057
a(lp2092
S'we'
p2093
aS'had'
p2094
aS'to'
p2095
aS'hold'
p2096
aS'him'
p2097
aS'down'
p2098
aS'for'
p2099
aS'them'
p2100
aS'to'
p2101
aS'give'
p2102
aS'him'
p2103
ag122
aS'shot'
p2104
aS'in'
p2105
aS'his'
p2106
aS'thigh'
p2107
aaa(lp2108
S'LISA'
p2109
a(lp2110
g696
aS'shot'
p2111
aaa(lp2112
g2109
a(lp2113
S'whyd'
p2114
aS'they'
p2115
aS'give'
p2116
aS'him'
p2117
ag122
aS'shot'
p2118
aaa(lp2119
S'MARIE'
p2120
a(lp2121
S'To'
p2122
aS'make'
p2123
aS'the'
p2124
aS'swelling'
p2125
aS'go'
p2126
aS'down'
p2127
aS'in'
p2128
aS'his'
p2129
aS'throat'
p2130
aaa(lp2131
S'KEVIN'
p2132
a(lp2133
S'Oh'
p2134
aaa(lp2135
g2132
a(lp2136
S'did'
p2137
aS'he'
p2138
aS'get'
p2139
aS'it'
p2140
aS'in'
p2141
aS'his'
p2142
aS'bottom'
p2143
aaa(lp2144
S'MARIE'
p2145
a(lp2146
S'No'
p2147
aaa(lp2148
g2145
a(lp2149
S'right'
p2150
aS'here'
p2151
aS'in'
p2152
aS'his'
p2153
aS'thigh'
p2154
aaa(lp2155
S'KEVIN'
p2156
a(lp2157
S'How'
p2158
aS'is'
p2159
aS'he'
p2160
aS'about'
p2161
aS'shots'
p2162
aaa(lp2163
S'MARIE'
p2164
a(lp2165
S'He'
p2166
aS'cries'
p2167
aaa(lp2168
S'LISAProbably'
p2169
a(lp2170
S'not'
p2171
aS'good'
p2172
aS'anymore'
p2173
aaa(lp2174
S'KEVIN'
p2175
a(lp2176
aa(lp2177
S'LISA'
p2178
a(lp2179
aa(lp2180
S'MARIEI'
p2181
a(lp2182
S'remember'
p2183
aS'the'
p2184
aS'first'
p2185
aS'time'
p2186
ag43
aS'took'
p2187
aS'him'
p2188
aS'for'
p2189
ag122
aS'shot'
p2190
aaa(lp2191
g2181
a(lp2192
S'You'
p2193
aS'know'
p2194
aS'he'
p2195
aS'was'
p2196
ag9
aS'just'
p2197
aS'little'
p2198
ag9
aaa(lp2199
S'LISA'
p2200
a(lp2201
S'He'
p2202
aS'did'
p2203
aS'not'
p2204
aS'care'
p2205
aS'at'
p2206
aS'all'
p2207
aaa(lp2208
g2200
a(lp2209
S'Hes'
p2210
aS'all'
p2211
aaa(lp2212
S'KEVIN'
p2213
a(lp2214
aa(lp2215
S'LISAhappygolucky'
p2216
a(lp2217
aa(lp2218
S'KEVINVOXSING'
p2219
a(lp2220
S'Dee'
p2221
aS'dee'
p2222
aS'ddee'
p2223
aS'SINGVOX'
p2224
aaa(lp2225
S'MARIEHe'
p2226
a(lp2227
S'was'
p2228
aS'all'
p2229
aaa(lp2230
g2226
a(lp2231
S'VOX'
p2232
aS'aah'
p2233
aaa(lp2234
g2226
a(lp2235
S'aah'
p2236
aS'VOX'
p2237
aaa(lp2238
g2226
a(lp2239
S'like'
p2240
aS'that'
p2241
aaa(lp2242
g2226
a(lp2243
S'And'
p2244
aS'then'
p2245
aS'after'
p2246
aS'that'
p2247
aS'it'
p2248
aS'was'
p2249
aS'okay'
p2250
aaa(lp2251
g2226
a(lp2252
S'And'
p2253
aS'then'
p2254
aS'like'
p2255
aaa(lp2256
S'KEVIN'
p2257
a(lp2258
aa(lp2259
g2257
a(lp2260
S'Thats'
p2261
aS'good'
p2262
aaa(lp2263
S'MARIEthe'
p2264
a(lp2265
S'next'
p2266
aS'time'
p2267
ag43
aS'took'
p2268
aS'him'
p2269
aS'hes'
p2270
aS'all'
p2271
aaa(lp2272
g2264
a(lp2273
g43
aS'was'
p2274
aS'all'
p2275
aS'VOX'
p2276
aS'oh'
p2277
aS'my'
p2278
aS'God'
p2279
aS'VOX'
p2280
aaa(lp2281
S'KEVIN'
p2282
a(lp2283
aa(lp2284
S'MARIEAnd'
p2285
a(lp2286
S'then'
p2287
ag43
aS'picked'
p2288
aS'him'
p2289
aS'up'
p2290
aaa(lp2291
S'LISAXX'
p2292
a(lp2293
aa(lp2294
S'MARIEand'
p2295
a(lp2296
S'his'
p2297
aS'legs'
p2298
aS'were'
p2299
aS'bleeding'
p2300
aS'and'
p2301
aS'stuff'
p2302
aaa(lp2303
g2295
a(lp2304
S'and'
p2305
ag43
aS'had'
p2306
aS'blood'
p2307
aS'all'
p2308
aS'on'
p2309
aS'my'
p2310
aS'shirt'
p2311
aaa(lp2312
g2295
a(lp2313
S'and'
p2314
ag43
aS'was'
p2315
aS'all'
p2316
aS'VOX'
p2317
aS'oh'
p2318
aS'my'
p2319
aS'God'
p2320
aS'VOX'
p2321
aaa(lp2322
S'LISABlood'
p2323
a(lp2324
aa(lp2325
S'MARIE'
p2326
a(lp2327
S'Blood'
p2328
aaa(lp2329
g2326
a(lp2330
S'cause'
p2331
aS'he'
p2332
aS'bleeds'
p2333
aaa(lp2334
g2326
a(lp2335
S'After'
p2336
aS'they'
p2337
aS'give'
p2338
aS'him'
p2339
ag122
aS'shot'
p2340
aaa(lp2341
S'KEVINBut'
p2342
a(lp2343
S'dont'
p2344
aS'they'
p2345
aaa(lp2346
g2342
a(lp2347
S'like'
p2348
aS'put'
p2349
ag122
aS'thing'
p2350
aS'on'
p2351
aS'it'
p2352
aS'right'
p2353
aS'after'
p2354
aaa(lp2355
S'LISABut'
p2356
a(lp2357
S'that'
p2358
aS'much'
p2359
aaa(lp2360
S'MARIE'
p2361
a(lp2362
S'No'
p2363
aaa(lp2364
g2361
a(lp2365
S'but'
p2366
aS'it'
p2367
aS'was'
p2368
aS'just'
p2369
aS'coming'
p2370
aS'out'
p2371
aaa(lp2372
g2361
a(lp2373
S'Do'
p2374
aS'you'
p2375
aS'know'
p2376
aS'what'
p2377
ag43
aS'mean'
p2378
aaa(lp2379
g2361
a(lp2380
S'it'
p2381
aS'was'
p2382
aS'like'
p2383
aaa(lp2384
g2361
a(lp2385
S'mm'
p2386
aaa(lp2387
S'KEVINWell'
p2388
a(lp2389
S'they'
p2390
aS'shouldve'
p2391
aS'have'
p2392
aS'put'
p2393
aaa(lp2394
g2388
a(lp2395
g43
aS'mean'
p2396
aS'usually'
p2397
aS'you'
p2398
aS'know'
p2399
aS'like'
p2400
aS'when'
p2401
aS'you'
p2402
aS'like'
p2403
aS'give'
p2404
aS'blood'
p2405
aaa(lp2406
S'MARIEA'
p2407
a(lp2408
S'bandaid'
p2409
aaa(lp2410
S'LISABut'
p2411
a(lp2412
S'it'
p2413
aS'wasnt'
p2414
aS'all'
p2415
aS'over'
p2416
aaa(lp2417
S'KEVINthey'
p2418
a(lp2419
S'use'
p2420
aaa(lp2421
S'LISAit'
p2422
a(lp2423
S'was'
p2424
aS'just'
p2425
aS'like'
p2426
aaa(lp2427
g2422
a(lp2428
g122
aS'little'
p2429
aS'dribble'
p2430
aaa(lp2431
S'MARIEIt'
p2432
a(lp2433
S'had'
p2434
aaa(lp2435
g2432
a(lp2436
S'N_yeah'
p2437
aS'no'
p2438
aaa(lp2439
g2432
a(lp2440
S'it'
p2441
aS'had'
p2442
aS'gotten'
p2443
aS'on'
p2444
aS'my'
p2445
aS'shirt'
p2446
aaa(lp2447
g2432
a(lp2448
S'and'
p2449
ag43
aS'was'
p2450
aS'just'
p2451
aS'all'
p2452
aS'VOX'
p2453
aS'oh'
p2454
aS'my'
p2455
aS'God'
p2456
aaa(lp2457
S'LISAOh'
p2458
a(lp2459
aa(lp2460
g2458
a(lp2461
S'my'
p2462
aS'childs'
p2463
aS'bleeding'
p2464
aS'VOX'
p2465
aaa(lp2466
S'KEVIN'
p2467
a(lp2468
g695
aS'Baby'
p2469
aS'blood'
p2470
ag695
aaa(lp2471
S'LISA'
p2472
a(lp2473
g695
aS'Baby'
p2474
aS'blood'
p2475
ag695
aaa(lp2476
g2472
a(lp2477
S'Watch'
p2478
aS'out'
p2479
aS'for'
p2480
aS'that'
p2481
aS'glass'
p2482
aaa(lp2483
g2472
a(lp2484
S'Hes'
p2485
aS'looking'
p2486
aS'at'
p2487
aS'it'
p2488
aaa(lp2489
S'MARIE'
p2490
a(lp2491
S'Ill'
p2492
aS'trade'
p2493
aS'you'
p2494
aaa(lp2495
S'KEVINIs'
p2496
a(lp2497
S'it'
p2498
aS'mine'
p2499
aaa(lp2500
S'MARIE'
p2501
a(lp2502
S'See'
p2503
aS'Im'
p2504
aS'not'
p2505
aS'supposed'
p2506
aS'to'
p2507
aS'give'
p2508
aS'him'
p2509
aS'juice'
p2510
aS'in'
p2511
ag122
aS'bottle'
p2512
aaa(lp2513
g2501
a(lp2514
S'Hes'
p2515
aS'supposed'
p2516
aS'to'
p2517
aS'drink'
p2518
aS'it'
p2519
aS'out'
p2520
aS'of'
p2521
ag122
aS'cup'
p2522
aaa(lp2523
S'LISA'
p2524
a(lp2525
S'Why'
p2526
aS'not'
p2527
aaa(lp2528
S'KEVIN'
p2529
a(lp2530
S'Oh'
p2531
aS'cause'
p2532
aS'all'
p2533
aS'the'
p2534
aS'air'
p2535
aaa(lp2536
S'MARIEHe'
p2537
a(lp2538
aa(lp2539
g2537
a(lp2540
S'No'
p2541
aaa(lp2542
S'LISANo'
p2543
a(lp2544
S'cause'
p2545
aaa(lp2546
S'MARIE'
p2547
a(lp2548
S'theyre'
p2549
aS'get'
p2550
aS'baby'
p2551
aS'bottle'
p2552
aS'tooth'
p2553
aS'decay'
p2554
aaa(lp2555
S'LISA'
p2556
a(lp2557
aa(lp2558
S'MARIEFrom'
p2559
a(lp2560
S'drinking'
p2561
aaa(lp2562
g2559
a(lp2563
S'um'
p2564
aaa(lp2565
g2559
a(lp2566
S'juice'
p2567
aS'and'
p2568
aS'stuff'
p2569
aS'out'
p2570
aS'of'
p2571
aS'bottles'
p2572
aaa(lp2573
g2559
a(lp2574
S'because'
p2575
aS'the'
p2576
aS'um'
p2577
aaa(lp2578
S'KEVIN'
p2579
a(lp2580
S'The'
p2581
aS'sugar'
p2582
aS'just'
p2583
aS'stays'
p2584
aS'right'
p2585
aS'there'
p2586
aaa(lp2587
S'MARIEMhm'
p2588
a(lp2589
aa(lp2590
S'LISA'
p2591
a(lp2592
S'Explain'
p2593
aS'it'
p2594
aS'Marie'
p2595
aaa(lp2596
S'MARIE'
p2597
a(lp2598
S'Your'
p2599
aS'brother'
p2600
aS'did'
p2601
aaa(lp2602
g2597
a(lp2603
S'so'
p2604
aS'there'
p2605
aS'you'
p2606
aS'go'
p2607
aaa(lp2608
S'KEVIN'
p2609
a(lp2610
aa(lp2611
S'MARIE'
p2612
a(lp2613
aa(lp2614
S'LISAThat'
p2615
a(lp2616
S'doesnt'
p2617
aS'make'
p2618
aS'sense'
p2619
aS'to'
p2620
aS'me'
p2621
aaa(lp2622
g2615
a(lp2623
S'Why'
p2624
aS'sh'
p2625
aaa(lp2626
S'MARIE'
p2627
a(lp2628
S'Because'
p2629
aS'when'
p2630
aS'they'
p2631
aS'just'
p2632
aS'leave'
p2633
aS'it'
p2634
aS'in'
p2635
aS'their'
p2636
aS'mouth'
p2637
aaa(lp2638
g2627
a(lp2639
S'the'
p2640
aS'juice'
p2641
aS'just'
p2642
aaa(lp2643
S'LISA'
p2644
a(lp2645
S'Oh'
p2646
aS'cause'
p2647
aS'they'
p2648
aS'dont'
p2649
aS'swallow'
p2650
aS'it'
p2651
aS'right'
p2652
aS'away'
p2653
aS'you'
p2654
aS'mean'
p2655
aaa(lp2656
g2644
a(lp2657
S'They'
p2658
aS'just'
p2659
ag9
aS'gur'
p2660
ag9
aaa(lp2661
S'MARIEYeah'
p2662
a(lp2663
aa(lp2664
g2662
a(lp2665
S'and'
p2666
aS'in'
p2667
ag122
aS'cup'
p2668
aS'they'
p2669
aaa(lp2670
g2662
a(lp2671
S'you'
p2672
aS'know'
p2673
aS'they'
p2674
aaa(lp2675
S'LISAMm'
p2676
a(lp2677
aa(lp2678
S'MARIEdrink'
p2679
a(lp2680
S'it'
p2681
aS'right'
p2682
aS'away'
p2683
aaa(lp2684
S'KEVIN'
p2685
a(lp2686
S'S'
p2687
aS'is'
p2688
aS'he'
p2689
aS'good'
p2690
aS'at'
p2691
aS'drinking'
p2692
aS'out'
p2693
aS'of'
p2694
aS'cups'
p2695
aaa(lp2696
g2685
a(lp2697
S'Or'
p2698
aaa(lp2699
S'MARIE'
p2700
a(lp2701
g2687
aaa(lp2702
g2700
a(lp2703
S'Sometimes'
p2704
aaa(lp2705
S'KEVIN'
p2706
a(lp2707
aa(lp2708
S'MARIE'
p2709
a(lp2710
S'sometimes'
p2711
aS'hes'
p2712
ag122
aaa(lp2713
S'LISA'
p2714
a(lp2715
S'Well'
p2716
aS'he'
p2717
aS'just'
p2718
aaa(lp2719
g2714
a(lp2720
S'Sometimes'
p2721
aS'hes'
p2722
aS'like'
p2723
aaa(lp2724
g2714
a(lp2725
S'okay'
p2726
aS'Im'
p2727
aS'not'
p2728
aS'getting'
p2729
aS'enough'
p2730
aaa(lp2731
g2714
a(lp2732
S'And'
p2733
aS'he'
p2734
aS'pulls'
p2735
aS'it'
p2736
ag9
aS'you'
p2737
aS'know'
p2738
ag9
aaa(lp2739
g2714
a(lp2740
S'doof'
p2741
aaa(lp2742
S'MARIE'
p2743
a(lp2744
S'And'
p2745
aS'he'
p2746
aS'has'
p2747
aS'it'
p2748
aS'all'
p2749
aS'over'
p2750
aaa(lp2751
S'LISAIts'
p2752
a(lp2753
S'all'
p2754
aS'over'
p2755
aaa(lp2756
S'MARIE'
p2757
a(lp2758
aa(lp2759
S'LISAYeah'
p2760
a(lp2761
aa(lp2762
S'KEVINWell'
p2763
a(lp2764
S'do'
p2765
aS'you'
p2766
aS'ever'
p2767
aS'try'
p2768
aS'those'
p2769
aS'little'
p2770
aS'baby'
p2771
aS'cups'
p2772
aaa(lp2773
S'LISAit'
p2774
a(lp2775
S'gets'
p2776
aS'all'
p2777
aS'wet'
p2778
aaa(lp2779
S'KEVINthat'
p2780
a(lp2781
S'have'
p2782
ag122
aS'lid'
p2783
aS'on'
p2784
aS'it'
p2785
aaa(lp2786
S'LISAYeah'
p2787
a(lp2788
S'hes'
p2789
aS'got'
p2790
aS'one'
p2791
aaa(lp2792
S'KEVINAnd'
p2793
a(lp2794
aa(lp2795
S'MARIEYeah'
p2796
a(lp2797
S'but'
p2798
aS'he'
p2799
aS'just'
p2800
aS'goes'
p2801
aS'like'
p2802
aS'that'
p2803
aaa(lp2804
g2796
a(lp2805
S'And'
p2806
ag9
aS'lah'
p2807
ag9
aaa(lp2808
S'KEVIN'
p2809
a(lp2810
aa(lp2811
S'LISAHe'
p2812
a(lp2813
S'thinks'
p2814
aS'its'
p2815
aS'like'
p2816
ag122
aS'bottle'
p2817
aaa(lp2818
g2812
a(lp2819
S'That'
p2820
aS'he'
p2821
aS'can'
p2822
aS'just'
p2823
aaa(lp2824
S'KEVIN'
p2825
a(lp2826
aa(lp2827
S'MARIEMhm'
p2828
a(lp2829
aa(lp2830
S'KEVIN'
p2831
a(lp2832
aa(lp2833
S'MARIE'
p2834
a(lp2835
S'So'
p2836
aS'we'
p2837
aS'just'
p2838
aaa(lp2839
S'KEVINVOX'
p2840
a(lp2841
S'You'
p2842
aS'dont'
p2843
aS'understand'
p2844
aS'VOX'
p2845
aaa(lp2846
S'MARIE'
p2847
a(lp2848
S'So'
p2849
aS'we'
p2850
aS'just'
p2851
aS'give'
p2852
aS'him'
p2853
aS'the'
p2854
aS'cup'
p2855
aaa(lp2856
g2847
a(lp2857
S'He'
p2858
aS'has'
p2859
ag122
aS'little'
p2860
aS'cup'
p2861
aS'too'
p2862
aaa(lp2863
g2847
a(lp2864
g695
aS'Its'
p2865
aS'really'
p2866
aS'cute'
p2867
ag695
aaa(lp2868
S'KEVIN'
p2869
a(lp2870
S'Did'
p2871
aS'it'
p2872
aS'have'
p2873
aS'two'
p2874
aS'handles'
p2875
aS'or'
p2876
aaa(lp2877
S'LISA'
p2878
a(lp2879
S'Yeah'
p2880
aaa(lp2881
S'MARIEIt'
p2882
a(lp2883
S'just'
p2884
aS'has'
p2885
aS'one'
p2886
aaa(lp2887
g2882
a(lp2888
g43
aS'have'
p2889
aS'one'
p2890
aS'that'
p2891
aS'doesnt'
p2892
aS'have'
p2893
aS'any'
p2894
aS'handles'
p2895
aS'at'
p2896
aS'all'
p2897
aaa(lp2898
S'LISAYeah'
p2899
a(lp2900
aa(lp2901
g2899
a(lp2902
S'Gimme'
p2903
aaa(lp2904
S'MARIE'
p2905
a(lp2906
S'But'
p2907
aS'um'
p2908
aaa(lp2909
g2905
a(lp2910
S'this'
p2911
aS'one'
p2912
aS'we'
p2913
aS'bought'
p2914
aS'him'
p2915
aS'its'
p2916
ag122
aS'Christmas'
p2917
aS'cup'
p2918
aaa(lp2919
S'KEVIN'
p2920
a(lp2921
S'Oh'
p2922
aaa(lp2923
S'MARIE'
p2924
a(lp2925
S'M'
p2926
ag122
aS's'
p2927
aaa(lp2928
S'LISAYou'
p2929
a(lp2930
S'bought'
p2931
aS'him'
p2932
ag122
aS'Christmas'
p2933
aS'cup'
p2934
aaa(lp2935
S'MARIEA'
p2936
a(lp2937
S'snowman'
p2938
aaa(lp2939
g2936
a(lp2940
S'Did'
p2941
aS'you'
p2942
aS'see'
p2943
aS'his'
p2944
aS'ornament'
p2945
aaa(lp2946
g2936
a(lp2947
S'You'
p2948
aS'saw'
p2949
aS'it'
p2950
aaa(lp2951
g2936
a(lp2952
g43
aS'dont'
p2953
aS'know'
p2954
aS'what'
p2955
aS'Michael'
p2956
aS'did'
p2957
aS'with'
p2958
aS'the'
p2959
aS'one'
p2960
aS'from'
p2961
aS'your'
p2962
aS'parents'
p2963
aaa(lp2964
S'LISAFrom'
p2965
a(lp2966
S'his'
p2967
aS'Nina'
p2968
aaa(lp2969
S'MARIE'
p2970
a(lp2971
g43
aS'know'
p2972
aaa(lp2973
S'LISA'
p2974
a(lp2975
aa(lp2976
S'MARIEI'
p2977
a(lp2978
S'was'
p2979
aS'all'
p2980
aS'witch'
p2981
aS'to'
p2982
aS'her'
p2983
aaa(lp2984
g2977
a(lp2985
g43
aS'was'
p2986
aS'all'
p2987
aaa(lp2988
g2977
a(lp2989
S'did'
p2990
aS'you'
p2991
aS'spell'
p2992
aS'his'
p2993
aS'name'
p2994
aaa(lp2995
g2977
a(lp2996
S'and'
p2997
aS'shes'
p2998
aS'all'
p2999
aaa(lp3000
g2977
a(lp3001
S'no'
p3002
aaa(lp3003
g2977
a(lp3004
g43
aS'was'
p3005
aS'all'
p3006
aaa(lp3007
g2977
a(lp3008
S'no'
p3009
aaa(lp3010
g2977
a(lp3011
S'Shes'
p3012
aS'all'
p3013
ag9
aaa(lp3014
S'LISAShe'
p3015
a(lp3016
S'doesnt'
p3017
aS'even'
p3018
aS'catch'
p3019
aS'it'
p3020
aaa(lp3021
S'MARIE'
p3022
a(lp3023
S'So'
p3024
aaa(lp3025
g3022
a(lp3026
S'Well'
p3027
aS'they'
p3028
aS'dont'
p3029
aS'know'
p3030
aaa(lp3031
S'LISAXX'
p3032
a(lp3033
S'XX'
p3034
aaa(lp3035
S'MARIEnobody'
p3036
a(lp3037
S'knows'
p3038
aS'how'
p3039
aS'to'
p3040
aS'spell'
p3041
aS'his'
p3042
aS'name'
p3043
aaa(lp3044
g3036
a(lp3045
S'they'
p3046
aS'always'
p3047
aaa(lp3048
S'LISAI'
p3049
a(lp3050
S'mean'
p3051
aS'the'
p3052
aaa(lp3053
g3049
a(lp3054
S'Thats'
p3055
aS'not'
p3056
aS'his'
p3057
aS'Nina'
p3058
aaa(lp3059
S'KEVINI'
p3060
a(lp3061
S'es'
p3062
aS'es'
p3063
ag122
aS'si'
p3064
aaa(lp3065
g3060
a(lp3066
S'Is'
p3067
aS'there'
p3068
aS'two'
p3069
aS'sis'
p3070
aaa(lp3071
S'MARIENo'
p3072
a(lp3073
aa(lp3074
g3072
a(lp3075
S'theres'
p3076
aS'just'
p3077
aS'one'
p3078
aaa(lp3079
S'LISANo'
p3080
a(lp3081
aa(lp3082
g3080
a(lp3083
S'But'
p3084
aaa(lp3085
g3080
a(lp3086
S'usually'
p3087
aS'its'
p3088
aaa(lp3089
g3080
a(lp3090
g325
aS'es'
p3091
ag122
ag122
aS'si'
p3092
aaa(lp3093
S'MARIEA'
p3094
a(lp3095
g122
aS'si'
p3096
aaa(lp3097
g3094
a(lp3098
S'Theres'
p3099
aS'always'
p3100
aS'two'
p3101
aS'as'
p3102
aS'in'
p3103
aS'Isaac'
p3104
aaa(lp3105
S'KEVIN'
p3106
a(lp3107
S'And'
p3108
aS'you'
p3109
aS'just'
p3110
aS'made'
p3111
aS'it'
p3112
aS'one'
p3113
aaa(lp3114
S'MARIE'
p3115
a(lp3116
S'Mhm'
p3117
aaa(lp3118
S'LISAWell'
p3119
a(lp3120
S'theres'
p3121
aS'two'
p3122
aS'ways'
p3123
aS'of'
p3124
aS'spelling'
p3125
aS'it'
p3126
aaa(lp3127
S'MARIE'
p3128
a(lp3129
S'Yeah'
p3130
aaa(lp3131
g3128
a(lp3132
S'well'
p3133
aS'theres'
p3134
aS'like'
p3135
aaa(lp3136
S'LISAIts'
p3137
a(lp3138
S'not'
p3139
aS'like'
p3140
aS'one'
p3141
aS'w'
p3142
aaa(lp3143
S'KEVINThats'
p3144
a(lp3145
S'the'
p3146
aS'more'
p3147
aS'Semitic'
p3148
aaa(lp3149
S'LISAIts'
p3150
a(lp3151
S'not'
p3152
aS'like'
p3153
aS'his'
p3154
aS'is'
p3155
aS'wrong'
p3156
aS'or'
p3157
aS'something'
p3158
aaa(lp3159
S'MARIEWell'
p3160
a(lp3161
S'theres'
p3162
ag122
aS'lot'
p3163
aS'more'
p3164
aS'you'
p3165
aS'c'
p3166
aaa(lp3167
S'BABY'
p3168
a(lp3169
aa(lp3170
S'LISA'
p3171
a(lp3172
aa(lp3173
S'KEVIN'
p3174
a(lp3175
aa(lp3176
S'LISAOo'
p3177
a(lp3178
aa(lp3179
S'KEVINOo'
p3180
a(lp3181
aa(lp3182
S'MARIEDont'
p3183
a(lp3184
S'do'
p3185
aS'that'
p3186
aS'you'
p3187
aS'guys'
p3188
aaa(lp3189
S'BABY'
p3190
a(lp3191
aa(lp3192
S'LISABut'
p3193
a(lp3194
S'that'
p3195
aS'hurts'
p3196
aaa(lp3197
S'KEVINL'
p3198
a(lp3199
S'Pobrecito'
p3200
ag483
aaa(lp3201
S'MARIEI'
p3202
a(lp3203
S'know'
p3204
aaa(lp3205
g3202
a(lp3206
S'but'
p3207
aS'dont'
p3208
aS'do'
p3209
aS'that'
p3210
aaa(lp3211
g3202
a(lp3212
S'cause'
p3213
aS'you'
p3214
aS'scare'
p3215
aS'him'
p3216
aS'more'
p3217
aaa(lp3218
S'LISAIm'
p3219
a(lp3220
S'sorry'
p3221
aaa(lp3222
S'KEVIN'
p3223
a(lp3224
aa(lp3225
S'LISA'
p3226
a(lp3227
aa(lp3228
g3226
a(lp3229
S'That'
p3230
aS'just'
p3231
aaa(lp3232
S'MARIEHe'
p3233
a(lp3234
S'gets'
p3235
aS'scared'
p3236
aS'more'
p3237
aaa(lp3238
S'LISA'
p3239
a(lp3240
S'Im'
p3241
aS'sorry'
p3242
ag483
aS'jito'
p3243
ag483
aaa(lp3244
S'MARIECause'
p3245
a(lp3246
S'he'
p3247
aS'didnt'
p3248
aaa(lp3249
S'BABY'
p3250
a(lp3251
aa(lp3252
S'KEVINHe'
p3253
a(lp3254
S'didnt'
p3255
aS'know'
p3256
aS'it'
p3257
aS'hurt'
p3258
aaa(lp3259
g3253
a(lp3260
S'until'
p3261
aS'we'
p3262
aS'reacted'
p3263
aaa(lp3264
S'LISAHe'
p3265
a(lp3266
S'knew'
p3267
aS'that'
p3268
aS'hurt'
p3269
aaa(lp3270
S'KEVIN'
p3271
a(lp3272
aa(lp3273
S'MARIE'
p3274
a(lp3275
S'Yeah'
p3276
aaa(lp3277
g3274
a(lp3278
S'but'
p3279
aS'he'
p3280
aS'wouldve'
p3281
aS'just'
p3282
aS'like'
p3283
aS'XX'
p3284
aaa(lp3285
S'LISAI'
p3286
a(lp3287
S'know'
p3288
aaa(lp3289
S'MARIE'
p3290
a(lp3291
S'And'
p3292
aS'he'
p3293
aS'just'
p3294
aaa(lp3295
g3290
a(lp3296
S'You'
p3297
aS'guys'
p3298
aS'like'
p3299
aaa(lp3300
g3290
a(lp3301
S'oh'
p3302
aS'my'
p3303
aS'God'
p3304
aaa(lp3305
S'KEVIN'
p3306
a(lp3307
aa(lp3308
S'MARIE'
p3309
a(lp3310
S'Yeah'
p3311
aaa(lp3312
S'KEVINVOX'
p3313
a(lp3314
S'Whats'
p3315
aS'wrong'
p3316
aS'VOX'
p3317
aaa(lp3318
S'LISACause'
p3319
a(lp3320
S'like'
p3321
aS'that'
p3322
aS'was'
p3323
aS'hard'
p3324
aaa(lp3325
S'KEVIN'
p3326
a(lp3327
aa(lp3328
S'LISAIf'
p3329
a(lp3330
S'he'
p3331
aS'had'
p3332
aS'just'
p3333
aS'gone'
p3334
aaa(lp3335
g3329
a(lp3336
S'XX'
p3337
ag9
aS'XX'
p3338
aS'XXX'
p3339
aaa(lp3340
S'KEVINWH'
p3341
a(lp3342
S'That'
p3343
aS'was'
p3344
aS'loud'
p3345
aS'WH'
p3346
aaa(lp3347
S'LISA'
p3348
a(lp3349
S'Oh'
p3350
aaa(lp3351
S'MARIE'
p3352
a(lp3353
S'Its'
p3354
ag9
aaa(lp3355
S'LISAIt'
p3356
a(lp3357
S'echoes'
p3358
aaa(lp3359
S'MARIEXX'
p3360
a(lp3361
aa(lp3362
S'KEVINIt'
p3363
a(lp3364
S'echoes'
p3365
aS'here'
p3366
aaa(lp3367
S'LISA'
p3368
a(lp3369
S'But'
p3370
aS'its'
p3371
aS'not'
p3372
aS'as'
p3373
aS'bad'
p3374
aS'as'
p3375
aS'it'
p3376
aS'was'
p3377
aaa(lp3378
S'MARIE'
p3379
a(lp3380
aa(lp3381
S'KEVINA'
p3382
a(lp3383
S'very'
p3384
aS'resonant'
p3385
aS'table'
p3386
aaa(lp3387
S'MARIE'
p3388
a(lp3389
S'See'
p3390
aaa(lp3391
S'KEVIN'
p3392
a(lp3393
S'All'
p3394
aS'better'
p3395
aaa(lp3396
S'MARIE'
p3397
a(lp3398
aa(lp3399
g3397
a(lp3400
S'Thats'
p3401
aS'abracadabra'
p3402
aaa(lp3403
S'KEVINFine'
p3404
a(lp3405
aa(lp3406
g3404
a(lp3407
S'ready'
p3408
aS'to'
p3409
aS'drink'
p3410
aS'some'
p3411
aS'more'
p3412
aaa(lp3413
g3404
a(lp3414
S'no'
p3415
aS'problem'
p3416
aaa(lp3417
S'LISAX'
p3418
a(lp3419
S'Golly'
p3420
ag9
aaa(lp3421
S'MARIE'
p3422
a(lp3423
aa(lp3424
S'LISA'
p3425
a(lp3426
aa(lp3427
S'KEVINVOX'
p3428
a(lp3429
S'Gong'
p3430
aS'gong'
p3431
aS'gong'
p3432
aS'gong'
p3433
aS'VOX'
p3434
aaa(lp3435
g3428
a(lp3436
S'you'
p3437
aS'need'
p3438
aS'juice'
p3439
aS'now'
p3440
aaa(lp3441
S'LISA'
p3442
a(lp3443
S'Poor'
p3444
aS'thing'
p3445
aaa(lp3446
g3442
a(lp3447
S'Okay'
p3448
aaa(lp3449
S'MARIEDid'
p3450
a(lp3451
S'they'
p3452
aS'scare'
p3453
aS'you'
p3454
aaa(lp3455
S'LISAit'
p3456
a(lp3457
S'sounded'
p3458
aS'worse'
p3459
aS'than'
p3460
aS'it'
p3461
aS'was'
p3462
aaa(lp3463
g3456
a(lp3464
g43
aS'was'
p3465
aS'like'
p3466
aaa(lp3467
g3456
a(lp3468
S'dang'
p3469
aaa(lp3470
g3456
a(lp3471
S'look'
p3472
aS'for'
p3473
aS'blood'
p3474
aaa(lp3475
S'KEVIN'
p3476
a(lp3477
aa(lp3478
S'MARIE'
p3479
a(lp3480
aa(lp3481
S'LISAHI'
p3482
a(lp3483
S'It'
p3484
aS'didnt'
p3485
aS'it'
p3486
aS'sound'
p3487
aS'loud'
p3488
aS'to'
p3489
aS'you'
p3490
aS'HI'
p3491
aaa(lp3492
S'MARIE'
p3493
a(lp3494
S'Well'
p3495
ag43
aS'th'
p3496
aaa(lp3497
S'LISAYoure'
p3498
a(lp3499
S'used'
p3500
aS'to'
p3501
aS'this'
p3502
aS'already'
p3503
aaa(lp3504
S'MARIEMhm'
p3505
a(lp3506
aa(lp3507
S'KEVIN'
p3508
a(lp3509
aa(lp3510
S'MARIE'
p3511
a(lp3512
S'He'
p3513
aS'crawls'
p3514
aS'un'
p3515
aS'underneath'
p3516
aaa(lp3517
g3511
a(lp3518
S'hits'
p3519
aS'his'
p3520
aS'head'
p3521
aS'on'
p3522
aS'it'
p3523
aaa(lp3524
g3511
a(lp3525
S'and'
p3526
aS'Im'
p3527
aS'like'
p3528
aaa(lp3529
g3511
a(lp3530
S'crawls'
p3531
aS'in'
p3532
aS'between'
p3533
aS'it'
p3534
aaa(lp3535
g3511
a(lp3536
S'And'
p3537
aS'Im'
p3538
aS'like'
p3539
aaa(lp3540
g3511
a(lp3541
S'youre'
p3542
aS'gonna'
p3543
aS'hurt'
p3544
aS'your'
p3545
aS'head'
p3546
aaa(lp3547
g3511
a(lp3548
S'And'
p3549
aS'hes'
p3550
aS'all'
p3551
aaa(lp3552
g3511
a(lp3553
S'VOX'
p3554
aS'huh'
p3555
aaa(lp3556
g3511
a(lp3557
S'Huh'
p3558
aaa(lp3559
g3511
a(lp3560
S'Huh'
p3561
aS'VOX'
p3562
aaa(lp3563
g3511
a(lp3564
g43
aS'say'
p3565
aaa(lp3566
g3511
a(lp3567
S'VOX'
p3568
aS'youre'
p3569
aS'gonna'
p3570
aS'hit'
p3571
aS'your'
p3572
aS'head'
p3573
aS'VOX'
p3574
aaa(lp3575
g3511
a(lp3576
S'VOX'
p3577
aS'Huh'
p3578
aaa(lp3579
g3511
a(lp3580
S'Huh'
p3581
aS'VOX'
p3582
aaa(lp3583
g3511
a(lp3584
S'F'
p3585
aS'Youre'
p3586
aS'gonna'
p3587
aS'hit'
p3588
aS'your'
p3589
aS'head'
p3590
ag3585
aaa(lp3591
S'LISAVOX'
p3592
a(lp3593
S'Bonk'
p3594
aS'VOX'
p3595
aaa(lp3596
S'KEVIN'
p3597
a(lp3598
aa(lp3599
g3597
a(lp3600
S'So'
p3601
aS'hes'
p3602
ag325
aS'es'
p3603
aS'es'
p3604
ag122
aS'si'
p3605
aaa(lp3606
S'MARIEA'
p3607
a(lp3608
S'si'
p3609
aaa(lp3610
S'LISASi'
p3611
a(lp3612
aa(lp3613
S'MARIE'
p3614
a(lp3615
S'Its'
p3616
aS'two'
p3617
aS'ess'
p3618
aaa(lp3619
g3614
a(lp3620
S'And'
p3621
aS'you'
p3622
aS'can'
p3623
aS'spell'
p3624
aS'it'
p3625
aS'with'
p3626
aS'zis'
p3627
aS'too'
p3628
aaa(lp3629
g3614
a(lp3630
S'Ive'
p3631
aS'seen'
p3632
aS'it'
p3633
ag325
aS'zi'
p3634
aS'zi'
p3635
ag122
aS'si'
p3636
aaa(lp3637
g3614
a(lp3638
S'or'
p3639
ag325
aS'zi'
p3640
ag122
ag122
aS'si'
p3641
aaa(lp3642
g3614
a(lp3643
S'thats'
p3644
aS'how'
p3645
aS'they'
p3646
aS'spelled'
p3647
aaa(lp3648
S'KEVINOr'
p3649
a(lp3650
S'how'
p3651
aS'about'
p3652
ag325
aS'ti'
p3653
aS'zi'
p3654
aaa(lp3655
S'LISA'
p3656
a(lp3657
S'Itzaac'
p3658
aaa(lp3659
S'KEVINLike'
p3660
a(lp3661
S'Itzhak'
p3662
aS'Perlman'
p3663
aaa(lp3664
S'LISA'
p3665
a(lp3666
g43
aS'think'
p3667
aS'thats'
p3668
aS'like'
p3669
aS'j'
p3670
aaa(lp3671
S'KEVINThats'
p3672
a(lp3673
S'either'
p3674
aaa(lp3675
S'LISAJewish'
p3676
a(lp3677
aa(lp3678
S'KEVIN'
p3679
a(lp3680
aa(lp3681
S'LISAYeah'
p3682
a(lp3683
aa(lp3684
S'KEVIN'
p3685
a(lp3686
aa(lp3687
S'MARIE'
p3688
a(lp3689
S'Cause'
p3690
aS'in'
p3691
aS'his'
p3692
aS'baby'
p3693
aS'book'
p3694
aS'they'
p3695
aS'have'
p3696
ag122
aS'bunch'
p3697
aS'of'
p3698
aS'ways'
p3699
aS'to'
p3700
aS'spell'
p3701
aS'it'
p3702
aaa(lp3703
g3688
a(lp3704
S'And'
p3705
ag43
aS'just'
p3706
aS'spelled'
p3707
aS'it'
p3708
aS'with'
p3709
aS'two'
p3710
aS'ess'
p3711
aaa(lp3712
g3688
a(lp3713
S'it'
p3714
aS'looked'
p3715
aS'better'
p3716
aaa(lp3717
g3688
a(lp3718
g43
aS'dont'
p3719
aS'know'
p3720
aaa(lp3721
S'LISA'
p3722
a(lp3723
g43
aS'dont'
p3724
aS'know'
p3725
ag43
aaa(lp3726
S'MARIEtwo'
p3727
a(lp3728
S'as'
p3729
aS'in'
p3730
ag122
aS'row'
p3731
aaa(lp3732
g3727
a(lp3733
S'just'
p3734
aS'look'
p3735
aS'ugly'
p3736
aaa(lp3737
S'LISA'
p3738
a(lp3739
S'Yeah'
p3740
aaa(lp3741
S'MARIE'
p3742
a(lp3743
aa(lp3744
S'KEVINKaron'
p3745
a(lp3746
aa(lp3747
S'LISAShouldve'
p3748
a(lp3749
S'called'
p3750
aS'him'
p3751
aS'Isaac'
p3752
aS'Saavedra'
p3753
aaa(lp3754
g3748
a(lp3755
S'And'
p3756
aS'then'
p3757
aaa(lp3758
g3748
a(lp3759
S'just'
p3760
aaa(lp3761
S'KEVIN'
p3762
a(lp3763
aa(lp3764
S'LISAyou'
p3765
a(lp3766
S'know'
p3767
aaa(lp3768
g3765
a(lp3769
S'well'
p3770
ag43
aS'mean'
p3771
aaa(lp3772
g3765
a(lp3773
S'you'
p3774
aS'know'
p3775
aS'cause'
p3776
aS'Saavedra'
p3777
aS'es'
p3778
aaa(lp3779
g3765
a(lp3780
S'its'
p3781
aS'es'
p3782
ag122
ag122
aS'too'
p3783
aaa(lp3784
S'KEVINA'
p3785
a(lp3786
g122
aaa(lp3787
S'LISA'
p3788
a(lp3789
S'So'
p3790
aS'youd'
p3791
aS'have'
p3792
aaa(lp3793
g3788
a(lp3794
S'never'
p3795
aS'mind'
p3796
aaa(lp3797
S'MARIE'
p3798
a(lp3799
g43
aS'get'
p3800
aS'it'
p3801
aaa(lp3802
S'KEVIN'
p3803
a(lp3804
S'That'
p3805
aS'looks'
p3806
aS'strange'
p3807
aaa(lp3808
S'LISAYeah'
p3809
a(lp3810
S'it'
p3811
aS'does'
p3812
aaa(lp3813
S'KEVINSo'
p3814
a(lp3815
S'you'
p3816
aS'have'
p3817
ag122
aS'new'
p3818
aaa(lp3819
S'LISA'
p3820
a(lp3821
S'And'
p3822
aS'Im'
p3823
aS'always'
p3824
aS'like'
p3825
aaa(lp3826
g3820
a(lp3827
S'why'
p3828
aaa(lp3829
S'KEVIN'
p3830
a(lp3831
S'Theres'
p3832
ag122
aS'new'
p3833
aS'mayor'
p3834
aS'here'
p3835
aS'right'
p3836
aaa(lp3837
g3830
a(lp3838
g43
aS'mean'
p3839
aaa(lp3840
S'LISAYeah'
p3841
a(lp3842
aa(lp3843
g3841
a(lp3844
S'its'
p3845
aS'um'
p3846
aaa(lp3847
S'KEVINMartinez'
p3848
a(lp3849
aa(lp3850
S'LISAMartin'
p3851
a(lp3852
S'Chavez'
p3853
aaa(lp3854
S'MARIEChavez'
p3855
a(lp3856
aa(lp3857
S'LISA'
p3858
a(lp3859
S'Kevin'
p3860
aS'doesnt'
p3861
aS'know'
p3862
aaa(lp3863
S'KEVIN'
p3864
a(lp3865
aa(lp3866
S'MARIEMartinez'
p3867
a(lp3868
aa(lp3869
S'KEVIN'
p3870
a(lp3871
aa(lp3872
S'MARIEGarcia'
p3873
a(lp3874
aa(lp3875
S'KEVIN'
p3876
a(lp3877
aa(lp3878
S'LISAVOX'
p3879
a(lp3880
g43
aS'just'
p3881
aS'know'
p3882
aS'hes'
p3883
aS'hispanic'
p3884
aS'VOX'
p3885
aaa(lp3886
S'MARIELucero'
p3887
a(lp3888
aa(lp3889
S'KEVINAnd'
p3890
a(lp3891
S'theres'
p3892
ag122
aS'Martin'
p3893
aS'XX'
p3894
aaa(lp3895
S'MARIE'
p3896
a(lp3897
aa(lp3898
S'KEVIN'
p3899
a(lp3900
S'So'
p3901
aS'hes'
p3902
aS'not'
p3903
aS'quite'
p3904
aS'as'
p3905
aS'crooked'
p3906
aS'as'
p3907
aS'Saavedra'
p3908
aaa(lp3909
S'MARIE'
p3910
a(lp3911
aa(lp3912
S'KEVINor'
p3913
a(lp3914
aa(lp3915
S'LISAWell'
p3916
a(lp3917
S'we'
p3918
aS'dont'
p3919
aS'know'
p3920
aS'yet'
p3921
aaa(lp3922
S'KEVINYoull'
p3923
a(lp3924
S'find'
p3925
aS'out'
p3926
aS'soon'
p3927
aaa(lp3928
S'MARIE'
p3929
a(lp3930
S'Hes'
p3931
aS'kinda'
p3932
ag3142
aaa(lp3933
S'LISA'
p3934
a(lp3935
S'You'
p3936
aS'dont'
p3937
aS'like'
p3938
aS'him'
p3939
aaa(lp3940
S'MARIE'
p3941
a(lp3942
S'Yeah'
p3943
aS'he'
p3944
ag43
aS'li'
p3945
aS'hes'
p3946
aS'kinda'
p3947
aS'like'
p3948
aaa(lp3949
g3941
a(lp3950
S'down'
p3951
aS'to'
p3952
aS'earth'
p3953
ag43
aS'think'
p3954
aaa(lp3955
S'LISAOh'
p3956
a(lp3957
S'you'
p3958
aS'like'
p3959
aS'him'
p3960
aaa(lp3961
g3956
a(lp3962
g43
aS'thought'
p3963
aS'you'
p3964
aS'were'
p3965
aS'gonna'
p3966
aS'say'
p3967
aS'hes'
p3968
aS'kinda'
p3969
aS'weird'
p3970
aaa(lp3971
S'KEVINWheres'
p3972
a(lp3973
S'he'
p3974
aS'from'
p3975
aaa(lp3976
S'LISA'
p3977
a(lp3978
aa(lp3979
S'MARIE'
p3980
a(lp3981
S'Hes'
p3982
aS'from'
p3983
aS'here'
p3984
aaa(lp3985
S'LISA'
p3986
a(lp3987
S'Hes'
p3988
aS'from'
p3989
aS'here'
p3990
aaa(lp3991
S'KEVINOh'
p3992
a(lp3993
aa(lp3994
g3992
a(lp3995
g43
aS'mean'
p3996
aS'like'
p3997
aS'was'
p3998
aS'he'
p3999
aaa(lp4000
S'LISAOh'
p4001
a(lp4002
S'like'
p4003
aaa(lp4004
g4001
a(lp4005
S'what'
p4006
aS'part'
p4007
aS'of'
p4008
aS'town'
p4009
aaa(lp4010
S'KEVINWhat'
p4011
a(lp4012
S'was'
p4013
aS'he'
p4014
aS'affiliated'
p4015
aS'with'
p4016
aaa(lp4017
g4011
a(lp4018
g43
aS'mean'
p4019
aS'you'
p4020
aS'know'
p4021
aS'how'
p4022
aS'Saavedra'
p4023
aS'was'
p4024
aS'with'
p4025
aS'TVI'
p4026
aaa(lp4027
S'LISA'
p4028
a(lp4029
aa(lp4030
g4028
a(lp4031
S'Oh'
p4032
ag43
aS'dont'
p4033
aS'know'
p4034
aaa(lp4035
g4028
a(lp4036
g43
aS'just'
p4037
aS'knew'
p4038
ag43
aS'didnt'
p4039
aS'like'
p4040
aS'the'
p4041
aS'other'
p4042
aS'guy'
p4043
aaa(lp4044
g4028
a(lp4045
S'Who'
p4046
aS'was'
p4047
aaa(lp4048
g4028
a(lp4049
S'Dave'
p4050
aS'Cargo'
p4051
aaa(lp4052
S'KEVIN'
p4053
a(lp4054
S'Ye'
p4055
aaa(lp4056
S'LISAIt'
p4057
a(lp4058
S'was'
p4059
aS'like'
p4060
aaa(lp4061
S'KEVINoh'
p4062
a(lp4063
S'my'
p4064
aaa(lp4065
g4062
a(lp4066
g9
aS'he'
p4067
aS'gets'
p4068
ag122
ag9
aaa(lp4069
g4062
a(lp4070
S'You'
p4071
aS'know'
p4072
aaa(lp4073
S'LISA'
p4074
a(lp4075
S'Yeah'
p4076
aaa(lp4077
S'KEVIN'
p4078
a(lp4079
S'Yeah'
p4080
aS'he'
p4081
aS'was'
p4082
aS'governor'
p4083
aS'for'
p4084
aaa(lp4085
S'LISAXX'
p4086
a(lp4087
aa(lp4088
g4086
a(lp4089
S'Hes'
p4090
aS'annoying'
p4091
aaa(lp4092
S'MARIE'
p4093
a(lp4094
aa(lp4095
S'KEVINFor'
p4096
a(lp4097
S'eons'
p4098
aaa(lp4099
S'MARIEWell'
p4100
a(lp4101
S'hes'
p4102
aS'done'
p4103
aS'okay'
p4104
aS'for'
p4105
aaa(lp4106
g4100
a(lp4107
S'for'
p4108
aS'now'
p4109
aS'that'
p4110
aS'hes'
p4111
aS'been'
p4112
aS'in'
p4113
aS'office'
p4114
aaa(lp4115
g4100
a(lp4116
S'for'
p4117
aS'the'
p4118
aS'time'
p4119
aS'hes'
p4120
aS'been'
p4121
aS'in'
p4122
aS'office'
p4123
aaa(lp4124
S'LISA'
p4125
a(lp4126
S'Yeah'
p4127
aS'he'
p4128
aaa(lp4129
g4125
a(lp4130
S'like'
p4131
aaa(lp4132
S'KEVINSince'
p4133
a(lp4134
S'when'
p4135
aaa(lp4136
g4133
a(lp4137
S'Well'
p4138
aS'its'
p4139
aS'just'
p4140
ag122
aS'month'
p4141
aS'or'
p4142
aS'so'
p4143
aaa(lp4144
g4133
a(lp4145
S'right'
p4146
aaa(lp4147
S'LISAYeah'
p4148
a(lp4149
aa(lp4150
g4148
a(lp4151
S'but'
p4152
aaa(lp4153
S'MARIE'
p4154
a(lp4155
S'Hes'
p4156
aaa(lp4157
S'LISAwell'
p4158
a(lp4159
S'but'
p4160
aS'even'
p4161
aS'before'
p4162
aS'that'
p4163
aaa(lp4164
g4158
a(lp4165
S'he'
p4166
aS'was'
p4167
aS'like'
p4168
aaa(lp4169
S'MARIEHe'
p4170
a(lp4171
S'had'
p4172
aS'like'
p4173
aS'an'
p4174
aS'inaugural'
p4175
aS'ball'
p4176
aaa(lp4177
g4170
a(lp4178
S'and'
p4179
aS'he'
p4180
aaa(lp4181
g4170
a(lp4182
S'And'
p4183
aS'like'
p4184
aS'anybody'
p4185
aS'could'
p4186
aS'go'
p4187
aS'and'
p4188
aaa(lp4189
g4170
a(lp4190
S'and'
p4191
aS'it'
p4192
aS'was'
p4193
aS'just'
p4194
aaa(lp4195
g4170
a(lp4196
S'What'
p4197
aS'was'
p4198
aS'it'
p4199
aaa(lp4200
g4170
a(lp4201
S'His'
p4202
aS'inaugural'
p4203
aS'ball'
p4204
aS'wasnt'
p4205
aS'that'
p4206
aaa(lp4207
g4170
a(lp4208
S'well'
p4209
aS'he'
p4210
aS'had'
p4211
aS'like'
p4212
aS'um'
p4213
aaa(lp4214
g4170
a(lp4215
g122
ag936
aaa(lp4216
g4170
a(lp4217
S'Uh'
p4218
aaa(lp4219
g4170
a(lp4220
S'like'
p4221
ag122
aaa(lp4222
g4170
a(lp4223
S'blue'
p4224
aS'jean'
p4225
aS'ball'
p4226
aaa(lp4227
g4170
a(lp4228
S'or'
p4229
aS'something'
p4230
aS'like'
p4231
aS'that'
p4232
aaa(lp4233
S'KEVIN'
p4234
a(lp4235
aa(lp4236
S'MARIEIt'
p4237
a(lp4238
S'was'
p4239
aS'for'
p4240
aS'his'
p4241
aS'preinaugural'
p4242
aS'ball'
p4243
aaa(lp4244
g4237
a(lp4245
S'or'
p4246
aS'something'
p4247
aS'like'
p4248
aS'that'
p4249
aaa(lp4250
g4237
a(lp4251
S'no'
p4252
aS'but'
p4253
aaa(lp4254
g4237
a(lp4255
S'you'
p4256
aS'just'
p4257
aaa(lp4258
g4237
a(lp4259
S'They'
p4260
aS'just'
p4261
aS'wore'
p4262
aS'jeans'
p4263
aaa(lp4264
S'KEVINThats'
p4265
a(lp4266
S'cool'
p4267
aaa(lp4268
S'MARIEThey'
p4269
a(lp4270
S'just'
p4271
aaa(lp4272
g4269
a(lp4273
S'They'
p4274
aS'wore'
p4275
aS'jeans'
p4276
aaa(lp4277
g4269
a(lp4278
S'and'
p4279
aS'you'
p4280
aS'had'
p4281
aS'to'
p4282
aS'bring'
p4283
aaa(lp4284
S'LISAHe'
p4285
a(lp4286
S'just'
p4287
aaa(lp4288
S'MARIE'
p4289
a(lp4290
S'um'
p4291
aS'canned'
p4292
aaa(lp4293
S'LISA'
p4294
a(lp4295
S'Canned'
p4296
aS'food'
p4297
aS'for'
p4298
aS'like'
p4299
ag122
aS'food'
p4300
aS'drive'
p4301
aS'kind'
p4302
aS'of'
p4303
aS'thing'
p4304
aaa(lp4305
S'MARIEfood'
p4306
a(lp4307
aa(lp4308
S'LISA'
p4309
a(lp4310
S'or'
p4311
aS'whatever'
p4312
aaa(lp4313
S'MARIEIt'
p4314
a(lp4315
S'wasnt'
p4316
aaa(lp4317
S'LISAbut'
p4318
a(lp4319
S'he'
p4320
aS'doesnt'
p4321
aS'seem'
p4322
aS'so'
p4323
aaa(lp4324
g4318
a(lp4325
g43
aS'dont'
p4326
aS'know'
p4327
aaa(lp4328
S'KEVINIt'
p4329
a(lp4330
S'wasnt'
p4331
aS'preachy'
p4332
aS'at'
p4333
aS'all'
p4334
aaa(lp4335
S'LISA'
p4336
a(lp4337
S'hes'
p4338
aS'like'
p4339
aaa(lp4340
S'MARIEHmmm'
p4341
a(lp4342
aa(lp4343
S'LISA'
p4344
a(lp4345
S'hes'
p4346
aS'like'
p4347
aS'for'
p4348
aS'gang'
p4349
aaa(lp4350
g4344
a(lp4351
S'Like'
p4352
aaa(lp4353
g4344
a(lp4354
S'again'
p4355
aaa(lp4356
g4344
a(lp4357
S'Uh'
p4358
aS'like'
p4359
aS'against'
p4360
aS'gangs'
p4361
aS'and'
p4362
aS'stuff'
p4363
aS'like'
p4364
aS'that'
p4365
aS'but'
p4366
aaa(lp4367
g4344
a(lp4368
S'you'
p4369
aS'could'
p4370
aS'see'
p4371
aS'that'
p4372
aS'um'
p4373
aaa(lp4374
g4344
a(lp4375
S'like'
p4376
aS'Cargod'
p4377
aS'just'
p4378
aS'kinda'
p4379
aS'be'
p4380
aS'like'
p4381
aaa(lp4382
g4344
a(lp4383
S'VOX'
p4384
aS'all'
p4385
aS'these'
p4386
aS'lowlifes'
p4387
aS'VOX'
p4388
aaa(lp4389
g4344
a(lp4390
S'You'
p4391
aS'know'
p4392
aS'like'
p4393
aaa(lp4394
S'KEVIN'
p4395
a(lp4396
aa(lp4397
S'LISAI'
p4398
a(lp4399
S'could'
p4400
aS'see'
p4401
aS'him'
p4402
aS'thinking'
p4403
aS'something'
p4404
aS'like'
p4405
aS'that'
p4406
aaa(lp4407
g4398
a(lp4408
S'Where'
p4409
aS'hes'
p4410
aS'just'
p4411
aS'above'
p4412
aS'all'
p4413
aS'those'
p4414
aS'people'
p4415
aaa(lp4416
g4398
a(lp4417
S'and'
p4418
aS'like'
p4419
aS'they'
p4420
aaa(lp4421
g4398
a(lp4422
S'you'
p4423
aS'know'
p4424
aaa(lp4425
g4398
a(lp4426
S'that'
p4427
aS'their'
p4428
aS'problems'
p4429
aaa(lp4430
g4398
a(lp4431
S'you'
p4432
aS'know'
p4433
aaa(lp4434
g4398
a(lp4435
S'its'
p4436
aS'cause'
p4437
aS'theyre'
p4438
aS'just'
p4439
aS'like'
p4440
aS'bad'
p4441
aS'people'
p4442
aS'or'
p4443
aS'something'
p4444
aaa(lp4445
g4398
a(lp4446
S'But'
p4447
ag43
aS'dont'
p4448
aS'see'
p4449
aS'him'
p4450
aaa(lp4451
g4398
a(lp4452
S'like'
p4453
aaa(lp4454
g4398
a(lp4455
S'him'
p4456
aS'being'
p4457
aS'so'
p4458
ag9
aS'XX'
p4459
aaa(lp4460
S'MARIEHes'
p4461
a(lp4462
S'done'
p4463
aaa(lp4464
g4461
a(lp4465
S'Hes'
p4466
aS'done'
p4467
aS'like'
p4468
aS'what'
p4469
aaa(lp4470
g4461
a(lp4471
S'two'
p4472
aS'big'
p4473
aS'food'
p4474
aS'drives'
p4475
aaa(lp4476
g4461
a(lp4477
S'even'
p4478
aS'at'
p4479
aS'his'
p4480
aS'inaugural'
p4481
aS'ball'
p4482
aaa(lp4483
g4461
a(lp4484
S'they'
p4485
aS'had'
p4486
ag122
aS'food'
p4487
aS'drive'
p4488
aaa(lp4489
S'LISAYeah'
p4490
a(lp4491
aa(lp4492
S'KEVIN'
p4493
a(lp4494
g695
aS'Thats'
p4495
aS'cool'
p4496
ag695
aaa(lp4497
g4493
a(lp4498
S'Have'
p4499
aS'gangs'
p4500
aS'gotten'
p4501
aS'worse'
p4502
aaa(lp4503
g4493
a(lp4504
S'Or'
p4505
aaa(lp4506
S'MARIE'
p4507
a(lp4508
aa(lp4509
S'LISA'
p4510
a(lp4511
S'It'
p4512
aS'seems'
p4513
aS'that'
p4514
aS'way'
p4515
aaa(lp4516
S'MARIEYeah'
p4517
a(lp4518
aa(lp4519
g4517
a(lp4520
S'it'
p4521
aS'seems'
p4522
aS'like'
p4523
aaa(lp4524
S'KEVINWas'
p4525
a(lp4526
S'it'
p4527
aS'the'
p4528
aS'LA'
p4529
aS'gangs'
p4530
aS'or'
p4531
aaa(lp4532
S'LISABut'
p4533
a(lp4534
S'then'
p4535
aaa(lp4536
g4533
a(lp4537
g43
aS'dont'
p4538
aS'know'
p4539
aaa(lp4540
S'KEVIN'
p4541
a(lp4542
g43
aS'mean'
p4543
aS'y'
p4544
aS'Crips'
p4545
aS'and'
p4546
aS'Bloods'
p4547
aS'and'
p4548
aS'stuff'
p4549
aaa(lp4550
g4541
a(lp4551
S'do'
p4552
aS'you'
p4553
aS'think'
p4554
aaa(lp4555
S'LISAI'
p4556
a(lp4557
S'dont'
p4558
aaa(lp4559
g4556
a(lp4560
g43
aS'dont'
p4561
aaa(lp4562
S'MARIEI'
p4563
a(lp4564
S'dont'
p4565
aaa(lp4566
S'LISAthink'
p4567
a(lp4568
S'so'
p4569
aaa(lp4570
S'MARIEI'
p4571
a(lp4572
S'dont'
p4573
aS'think'
p4574
aS'theyre'
p4575
aS'so'
p4576
aS'much'
p4577
ag122
aS'problem'
p4578
aaa(lp4579
g4571
a(lp4580
g43
aS'think'
p4581
aS'its'
p4582
aS'just'
p4583
aaa(lp4584
g4571
a(lp4585
g43
aS'dont'
p4586
aS'know'
p4587
aS'if'
p4588
aS'its'
p4589
aS'just'
p4590
aS'the'
p4591
aS'way'
p4592
aS'people'
p4593
aS'are'
p4594
aS'in'
p4595
aS'general'
p4596
aS'now'
p4597
aaa(lp4598
g4571
a(lp4599
g43
aS'mean'
p4600
aaa(lp4601
S'KEVIN'
p4602
a(lp4603
aa(lp4604
S'LISA'
p4605
a(lp4606
S'And'
p4607
ag43
aS'dont'
p4608
aaa(lp4609
S'MARIEF'
p4610
a(lp4611
S'you'
p4612
aS'cant'
p4613
aS'even'
p4614
aS'go'
p4615
aS'up'
p4616
aS'to'
p4617
aS'like'
p4618
ag3585
aaa(lp4619
g4610
a(lp4620
S'just'
p4621
aS'the'
p4622
aS'other'
p4623
aS'day'
p4624
ag43
aS'was'
p4625
aS'watching'
p4626
aS'the'
p4627
aS'TV'
p4628
aaa(lp4629
S'LISAExcuse'
p4630
a(lp4631
S'me'
p4632
aaa(lp4633
S'MARIE'
p4634
a(lp4635
S'and'
p4636
aS'um'
p4637
aaa(lp4638
g4634
a(lp4639
S'this'
p4640
aS'man'
p4641
aS'went'
p4642
aS'to'
p4643
aS'WalMart'
p4644
aaa(lp4645
g4634
a(lp4646
S'And'
p4647
aS'just'
p4648
aS'shot'
p4649
aaa(lp4650
g4634
a(lp4651
S'Like'
p4652
aaa(lp4653
S'LISA'
p4654
a(lp4655
aa(lp4656
S'MARIEyou'
p4657
a(lp4658
S'know'
p4659
aaa(lp4660
g4657
a(lp4661
S'it'
p4662
aS'was'
p4663
aS'in'
p4664
ag122
aS'different'
p4665
aS'state'
p4666
aaa(lp4667
S'KEVINWhere'
p4668
a(lp4669
S'was'
p4670
aS'that'
p4671
ag9
aaa(lp4672
S'LISABut'
p4673
a(lp4674
S'thats'
p4675
aS'not'
p4676
aS'here'
p4677
aaa(lp4678
g4673
a(lp4679
S'There'
p4680
aS'was'
p4681
aaa(lp4682
S'MARIEYeah'
p4683
a(lp4684
S'but'
p4685
aS'still'
p4686
aaa(lp4687
S'KEVINThat'
p4688
a(lp4689
S'was'
p4690
aS'in'
p4691
aS'Oklahoma'
p4692
aaa(lp4693
S'MARIEbut'
p4694
a(lp4695
S'you'
p4696
aS'cant'
p4697
aS'even'
p4698
aS'go'
p4699
aS'to'
p4700
ag122
aS'WalMart'
p4701
aaa(lp4702
S'LISAthere'
p4703
a(lp4704
S'was'
p4705
aS'two'
p4706
aS'days'
p4707
aS'in'
p4708
ag122
aS'row'
p4709
aS'though'
p4710
aaa(lp4711
g4703
a(lp4712
S'cause'
p4713
aS'there'
p4714
aS'was'
p4715
aS'one'
p4716
aS'in'
p4717
aS'Louisiana'
p4718
aaa(lp4719
g4703
a(lp4720
g43
aS'think'
p4721
aS'yesterday'
p4722
aaa(lp4723
g4703
a(lp4724
S'and'
p4725
aS'one'
p4726
aS'the'
p4727
aS'day'
p4728
aS'before'
p4729
aS'that'
p4730
aS'in'
p4731
aS'Kansas'
p4732
aaa(lp4733
S'KEVINAre'
p4734
a(lp4735
S'you'
p4736
aS'sure'
p4737
aaa(lp4738
S'LISA'
p4739
a(lp4740
S'Well'
p4741
aS'Daddy'
p4742
aS'was'
p4743
aS'pretty'
p4744
aS'sure'
p4745
aS'that'
p4746
aS'one'
p4747
aS'was'
p4748
aS'in'
p4749
aS'Kansas'
p4750
aaa(lp4751
S'KEVINAre'
p4752
a(lp4753
S'you'
p4754
aS'certain'
p4755
aaa(lp4756
S'MARIEWell'
p4757
a(lp4758
g43
aS'know'
p4759
aS'there'
p4760
aS'was'
p4761
aS'one'
p4762
aS'that'
p4763
aS'like'
p4764
aaa(lp4765
S'LISAThat'
p4766
a(lp4767
S'means'
p4768
aS'there'
p4769
aS'was'
p4770
aS'two'
p4771
aS'in'
p4772
ag122
aaa(lp4773
g4766
a(lp4774
g43
aS'was'
p4775
aS'like'
p4776
aS'oh'
p4777
aaa(lp4778
S'KEVINMoms'
p4779
a(lp4780
S'not'
p4781
aS'gonna'
p4782
aS'wanna'
p4783
aS'go'
p4784
aS'to'
p4785
aS'WalMart'
p4786
aS'anymore'
p4787
aaa(lp4788
S'LISAYeah'
p4789
a(lp4790
aa(lp4791
g4789
a(lp4792
S'shes'
p4793
aS'gonna'
p4794
aS'freak'
p4795
aaa(lp4796
S'MARIEBut'
p4797
a(lp4798
S'do'
p4799
aS'you'
p4800
aS'know'
p4801
aS'what'
p4802
ag43
aS'mean'
p4803
aaa(lp4804
S'LISAAnd'
p4805
a(lp4806
S'never'
p4807
aS'leave'
p4808
aS'the'
p4809
aS'house'
p4810
aaa(lp4811
S'MARIEyou'
p4812
a(lp4813
S'cant'
p4814
aS'even'
p4815
aS'go'
p4816
aS'to'
p4817
aS'WalMart'
p4818
aS'anymore'
p4819
aaa(lp4820
g4812
a(lp4821
S'You'
p4822
aS'cant'
p4823
aS'even'
p4824
aS'go'
p4825
aS'to'
p4826
aaa(lp4827
S'LISAYeah'
p4828
a(lp4829
aa(lp4830
S'MARIE'
p4831
a(lp4832
S'to'
p4833
aS'the'
p4834
aS'store'
p4835
aaa(lp4836
S'KEVIN'
p4837
a(lp4838
S'Yeah'
p4839
aaa(lp4840
S'MARIEWithout'
p4841
a(lp4842
S'having'
p4843
aS'to'
p4844
aS'worry'
p4845
aS'about'
p4846
aS'it'
p4847
aaa(lp4848
S'LISAThere'
p4849
a(lp4850
S'was'
p4851
aS'one'
p4852
aS'at'
p4853
aS'what'
p4854
ag122
aS'Pistols'
p4855
aaa(lp4856
g4849
a(lp4857
g696
aS'Little'
p4858
aS'Caesars'
p4859
aaa(lp4860
g4849
a(lp4861
S'the'
p4862
aS'day'
p4863
aS'before'
p4864
aS'that'
p4865
aaa(lp4866
S'MARIENo'
p4867
a(lp4868
S'Chucky'
p4869
aS'Cheese'
p4870
aaa(lp4871
S'LISAChucky'
p4872
a(lp4873
S'Cheese'
p4874
aaa(lp4875
S'KEVINChucky'
p4876
a(lp4877
S'Cheese'
p4878
aaa(lp4879
g4876
a(lp4880
S'and'
p4881
aS'that'
p4882
aS'was'
p4883
aS'in'
p4884
aS'Aurora'
p4885
aaa(lp4886
g4876
a(lp4887
S'Thats'
p4888
aS'your'
p4889
aS'moms'
p4890
aS'home'
p4891
aS'town'
p4892
aaa(lp4893
g4876
a(lp4894
S'Right'
p4895
aaa(lp4896
S'MARIE'
p4897
a(lp4898
S'Mhm'
p4899
aaa(lp4900
S'KEVINAurora'
p4901
a(lp4902
aa(lp4903
S'LISAWell'
p4904
a(lp4905
S'shes'
p4906
aS'not'
p4907
aS'from'
p4908
aS'Aurora'
p4909
aaa(lp4910
S'MARIEWell'
p4911
a(lp4912
aa(lp4913
g4911
a(lp4914
g2927
aS'its'
p4915
aS'uh'
p4916
aaa(lp4917
S'LISAshes'
p4918
a(lp4919
S'from'
p4920
aS'Denver'
p4921
aaa(lp4922
S'MARIE'
p4923
a(lp4924
S'But'
p4925
ag2927
aS'its'
p4926
aS'by'
p4927
aS'Denver'
p4928
aaa(lp4929
S'LISAYeah'
p4930
a(lp4931
aa(lp4932
S'MARIEI'
p4933
a(lp4934
S'mean'
p4935
aS'its'
p4936
aS'right'
p4937
aaa(lp4938
S'KEVINI'
p4939
a(lp4940
S'thought'
p4941
aaa(lp4942
S'MARIE'
p4943
a(lp4944
S'The'
p4945
aS'outskirts'
p4946
aaa(lp4947
S'KEVINYeah'
p4948
a(lp4949
S'but'
p4950
aaa(lp4951
g4948
a(lp4952
S'what'
p4953
aS'what'
p4954
aS'whats'
p4955
aS'what'
p4956
aS'town'
p4957
aaa(lp4958
g4948
a(lp4959
g43
aS'is'
p4960
aS'she'
p4961
aS'is'
p4962
aS'she'
p4963
aS'from'
p4964
aS'Denver'
p4965
aS'proper'
p4966
aaa(lp4967
S'LISA'
p4968
a(lp4969
S'Does'
p4970
aaa(lp4971
S'MARIEDenver'
p4972
a(lp4973
aa(lp4974
S'LISA'
p4975
a(lp4976
S'Yeah'
p4977
aaa(lp4978
S'MARIEDenver'
p4979
a(lp4980
aa(lp4981
S'KEVIN'
p4982
a(lp4983
S'Okay'
p4984
aaa(lp4985
S'LISADoes'
p4986
a(lp4987
S'your'
p4988
aS'aunt'
p4989
aS'XX'
p4990
aaa(lp4991
S'MARIEXXX'
p4992
a(lp4993
aa(lp4994
S'KEVINX'
p4995
a(lp4996
S'You'
p4997
aS'used'
p4998
aS'to'
p4999
aS'say'
p5000
ag9
aaa(lp5001
g4995
a(lp5002
S'LISAYour'
p5003
aS'auntie'
p5004
aS'Barbara'
p5005
aS'doesnt'
p5006
aS'live'
p5007
aS'in'
p5008
aS'Aurora'
p5009
aaa(lp5010
S'MARIE'
p5011
a(lp5012
S'But'
p5013
aS'she'
p5014
aS'lives'
p5015
aS'close'
p5016
aS'to'
p5017
aS'it'
p5018
aaa(lp5019
S'LISA'
p5020
a(lp5021
aa(lp5022
S'KEVIN'
p5023
a(lp5024
S'Cause'
p5025
aS'you'
p5026
aS'used'
p5027
aS'to'
p5028
aS'always'
p5029
aS'tell'
p5030
aS'me'
p5031
aaa(lp5032
g5023
a(lp5033
S'they'
p5034
aS'live'
p5035
aS'in'
p5036
aS'this'
p5037
aS'small'
p5038
aS'town'
p5039
aaa(lp5040
g5023
a(lp5041
S'Just'
p5042
aS'outside'
p5043
aS'of'
p5044
aS'Denver'
p5045
aaa(lp5046
g5023
a(lp5047
g43
aS'mean'
p5048
aaa(lp5049
S'LISA'
p5050
a(lp5051
S'Mmmm'
p5052
aaa(lp5053
S'KEVINWhen'
p5054
a(lp5055
S'we'
p5056
aS'were'
p5057
aS'like'
p5058
aaa(lp5059
g5054
a(lp5060
S'in'
p5061
aS'middle'
p5062
ag2927
aaa(lp5063
g5054
a(lp5064
S'When'
p5065
aS'we'
p5066
aS'were'
p5067
aS'in'
p5068
aS'middle'
p5069
aS'school'
p5070
aaa(lp5071
S'LISA'
p5072
a(lp5073
S'No'
p5074
aS'there'
p5075
aS'was'
p5076
ag2927
aaa(lp5077
g5072
a(lp5078
S'What'
p5079
aS'are'
p5080
aS'th'
p5081
aaa(lp5082
g5072
a(lp5083
S'Something'
p5084
aS'with'
p5085
ag122
aS'G'
p5086
aaa(lp5087
S'KEVINXX'
p5088
a(lp5089
aa(lp5090
S'LISAGwendale'
p5091
a(lp5092
aa(lp5093
g5091
a(lp5094
S'No'
p5095
aaa(lp5096
S'KEVIN'
p5097
a(lp5098
g695
ag43
aS'think'
p5099
aS'he'
p5100
aS'wants'
p5101
aS'it'
p5102
aS'back'
p5103
ag695
aaa(lp5104
S'MARIETheres'
p5105
a(lp5106
S'nothing'
p5107
aS'in'
p5108
aS'it'
p5109
aaa(lp5110
S'LISA'
p5111
a(lp5112
S'No'
p5113
aaa(lp5114
g5111
a(lp5115
S'There'
p5116
aaa(lp5117
S'KEVINXX'
p5118
a(lp5119
aa(lp5120
S'LISAWhat'
p5121
a(lp5122
aa(lp5123
g5121
a(lp5124
S'theres'
p5125
aS'one'
p5126
aS'with'
p5127
ag122
ag5086
aaa(lp5128
g5121
a(lp5129
S'Isnt'
p5130
aS'there'
p5131
aS'right'
p5132
aaa(lp5133
g5121
a(lp5134
S'Or'
p5135
aS'what'
p5136
aS'street'
p5137
aS'does'
p5138
aS'your'
p5139
aS'aunt'
p5140
aS'live'
p5141
aS'on'
p5142
aaa(lp5143
S'MARIE'
p5144
a(lp5145
S'Gaylord'
p5146
aaa(lp5147
S'LISA'
p5148
a(lp5149
S'Maybe'
p5150
aS'thats'
p5151
aS'what'
p5152
aS'it'
p5153
aS'was'
p5154
aaa(lp5155
S'KEVIN'
p5156
a(lp5157
aa(lp5158
g5156
a(lp5159
S'Great'
p5160
aS'street'
p5161
aaa(lp5162
S'MARIEFiftyfive'
p5163
a(lp5164
S'fiftyfive'
p5165
aaa(lp5166
g5163
a(lp5167
S'Its'
p5168
aS'just'
p5169
aS'really'
p5170
aS'weird'
p5171
aaa(lp5172
g5163
a(lp5173
S'You'
p5174
aS'just'
p5175
aS'cant'
p5176
aS'do'
p5177
aS'anything'
p5178
aS'anymore'
p5179
aaa(lp5180
g5163
a(lp5181
S'Like'
p5182
ag43
aS'told'
p5183
aS'Michael'
p5184
aaa(lp5185
g5163
a(lp5186
S'you'
p5187
aS'cant'
p5188
aS'even'
p5189
aaa(lp5190
g5163
a(lp5191
S'Michael'
p5192
aaa(lp5193
g5163
a(lp5194
S'they'
p5195
aS'were'
p5196
aS'saying'
p5197
aS'that'
p5198
aaa(lp5199
g5163
a(lp5200
g43
aS'think'
p5201
aS'it'
p5202
aS'was'
p5203
aS'on'
p5204
aS'the'
p5205
aS'news'
p5206
aS'and'
p5207
aS'on'
p5208
aS'the'
p5209
aS'radio'
p5210
aaa(lp5211
g5163
a(lp5212
S'where'
p5213
aS'like'
p5214
aaa(lp5215
g5163
a(lp5216
S'that'
p5217
aS'like'
p5218
aS'there'
p5219
aS'was'
p5220
aS'somebody'
p5221
aS'going'
p5222
aS'around'
p5223
aaa(lp5224
g5163
a(lp5225
S'and'
p5226
ag43
aS'think'
p5227
aS'it'
p5228
aS'was'
p5229
aaa(lp5230
g5163
a(lp5231
g43
aS'think'
p5232
aS'it'
p5233
aaa(lp5234
g5163
a(lp5235
S'Im'
p5236
aS'pretty'
p5237
aS'sure'
p5238
aS'it'
p5239
aS'was'
p5240
aS'here'
p5241
aS'that'
p5242
aaa(lp5243
g5163
a(lp5244
S'if'
p5245
aS'you'
p5246
aS'flash'
p5247
aS'your'
p5248
aS'lights'
p5249
aaa(lp5250
g5163
a(lp5251
S'like'
p5252
aS'they'
p5253
aS'wouldnt'
p5254
aS'have'
p5255
aS'their'
p5256
aS'lights'
p5257
aS'on'
p5258
aaa(lp5259
g5163
a(lp5260
S'or'
p5261
aS'they'
p5262
aS'would'
p5263
aS'have'
p5264
aS'their'
p5265
aS'brights'
p5266
aS'on'
p5267
aaa(lp5268
g5163
a(lp5269
S'and'
p5270
aS'if'
p5271
aS'you'
p5272
aS'flash'
p5273
aS'them'
p5274
aS'they'
p5275
aS'would'
p5276
aaa(lp5277
S'LISA'
p5278
a(lp5279
aa(lp5280
g5278
a(lp5281
S'It'
p5282
aS'was'
p5283
aS'supposed'
p5284
aS'to'
p5285
aS'be'
p5286
ag122
aS'gang'
p5287
aS'initiation'
p5288
aaa(lp5289
g5278
a(lp5290
S'And'
p5291
aaa(lp5292
S'KEVINAnd'
p5293
a(lp5294
S'it'
p5295
aS'was'
p5296
aS'nationwide'
p5297
aaa(lp5298
S'LISA'
p5299
a(lp5300
S'Mmmm'
p5301
aaa(lp5302
S'KEVIN'
p5303
a(lp5304
g43
aS'think'
p5305
aS'that'
p5306
aS'they'
p5307
aS'were'
p5308
aS'saying'
p5309
aS'nationwide'
p5310
aaa(lp5311
S'MARIE'
p5312
a(lp5313
S'And'
p5314
ag43
aS'told'
p5315
aS'Michael'
p5316
aaa(lp5317
S'KEVINX'
p5318
a(lp5319
S'it'
p5320
aS'was'
p5321
aS'just'
p5322
aS'like'
p5323
ag9
aaa(lp5324
S'MARIEGod'
p5325
a(lp5326
aa(lp5327
g5325
a(lp5328
S'you'
p5329
aS'cant'
p5330
aS'even'
p5331
aS'be'
p5332
aS'courteous'
p5333
aaa(lp5334
g5325
a(lp5335
S'and'
p5336
aS'tell'
p5337
aS'somebody'
p5338
aS'else'
p5339
aaa(lp5340
g5325
a(lp5341
S'hey'
p5342
aS'dumbdumb'
p5343
aaa(lp5344
g5325
a(lp5345
S'your'
p5346
aS'your'
p5347
aS'lights'
p5348
aS'arent'
p5349
aS'on'
p5350
aaa(lp5351
S'KEVIN'
p5352
a(lp5353
aa(lp5354
S'LISAWell'
p5355
a(lp5356
g43
aS'know'
p5357
aaa(lp5358
g5355
a(lp5359
g43
aaa(lp5360
S'KEVINX'
p5361
a(lp5362
aa(lp5363
S'MARIEYou'
p5364
a(lp5365
S'know'
p5366
aaa(lp5367
S'LISA'
p5368
a(lp5369
S'And'
p5370
ag43
aS'mean'
p5371
aaa(lp5372
g5368
a(lp5373
g43
aS'never'
p5374
aS'think'
p5375
aaa(lp5376
g5368
a(lp5377
g43
aS'never'
p5378
aS'thought'
p5379
aS'of'
p5380
aS'that'
p5381
aS'really'
p5382
aS'doing'
p5383
aS'it'
p5384
aS'before'
p5385
aaa(lp5386
g5368
a(lp5387
g43
aS'just'
p5388
aaa(lp5389
g5368
a(lp5390
S'you'
p5391
aS'know'
p5392
aaa(lp5393
g5368
a(lp5394
S'spaced'
p5395
aS'it'
p5396
aaa(lp5397
g5368
a(lp5398
S'kinda'
p5399
aS'whatever'
p5400
aaa(lp5401
g5368
a(lp5402
g43
aS'always'
p5403
aS'figured'
p5404
aS'they'
p5405
aS'were'
p5406
aS'broken'
p5407
aaa(lp5408
g5368
a(lp5409
g43
aS'dont'
p5410
aS'know'
p5411
aaa(lp5412
g5368
a(lp5413
S'But'
p5414
aS'after'
p5415
aS'that'
p5416
ag43
aS'was'
p5417
aS'was'
p5418
aS'all'
p5419
aaa(lp5420
S'KEVINDaddy'
p5421
a(lp5422
S'always'
p5423
aS'does'
p5424
aS'that'
p5425
aaa(lp5426
g5421
a(lp5427
S'Oh'
p5428
aS'you'
p5429
aS'do'
p5430
aS'it'
p5431
aS'when'
p5432
aS'their'
p5433
aS'high'
p5434
aS'lights'
p5435
aS'are'
p5436
aS'off'
p5437
aaa(lp5438
g5421
a(lp5439
S'Right'
p5440
aaa(lp5441
g5421
a(lp5442
S'instead'
p5443
aS'of'
p5444
aS'brights'
p5445
aaa(lp5446
S'LISAYeah'
p5447
a(lp5448
aa(lp5449
S'KEVINYeah'
p5450
a(lp5451
aa(lp5452
S'LISA'
p5453
a(lp5454
aa(lp5455
g5453
a(lp5456
S'Or'
p5457
aaa(lp5458
g5453
a(lp5459
S'Either'
p5460
aS'when'
p5461
aS'their'
p5462
aaa(lp5463
g5453
a(lp5464
S'Well'
p5465
aS'if'
p5466
aS'their'
p5467
aS'brights'
p5468
aS'are'
p5469
aS'on'
p5470
aaa(lp5471
g5453
a(lp5472
S'When'
p5473
aS'theyre'
p5474
aS'driving'
p5475
ag9
aS'on'
p5476
aS'the'
p5477
aS'other'
p5478
aS'side'
p5479
ag9
aaa(lp5480
S'MARIEYeah'
p5481
a(lp5482
aa(lp5483
g5481
a(lp5484
S'like'
p5485
aS'if'
p5486
aS'youre'
p5487
aS'approaching'
p5488
aS'them'
p5489
aaa(lp5490
g5481
a(lp5491
S'and'
p5492
aS'their'
p5493
aS'brights'
p5494
aS'are'
p5495
aS'on'
p5496
aaa(lp5497
g5481
a(lp5498
S'you'
p5499
aS'just'
p5500
aS'flick'
p5501
aS'your'
p5502
aS'brights'
p5503
aS'on'
p5504
aaa(lp5505
g5481
a(lp5506
S'and'
p5507
aS'then'
p5508
aS'turn'
p5509
aS'them'
p5510
aS'off'
p5511
aaa(lp5512
g5481
a(lp5513
S'and'
p5514
aS'then'
p5515
aS'theyre'
p5516
aS'like'
p5517
aaa(lp5518
S'LISAOr'
p5519
a(lp5520
S'if'
p5521
aS'their'
p5522
aS'lights'
p5523
aS'arent'
p5524
aS'on'
p5525
aaa(lp5526
S'MARIEoh'
p5527
a(lp5528
aa(lp5529
S'LISAor'
p5530
a(lp5531
S'like'
p5532
aaa(lp5533
g5530
a(lp5534
S'if'
p5535
aS'their'
p5536
aS'just'
p5537
aS'their'
p5538
aS'running'
p5539
aS'lights'
p5540
aS'on'
p5541
aS'or'
p5542
aS'something'
p5543
aaa(lp5544
S'MARIEYeah'
p5545
a(lp5546
aa(lp5547
S'LISA'
p5548
a(lp5549
S'But'
p5550
aS'then'
p5551
aaa(lp5552
g5548
a(lp5553
g43
aS'dont'
p5554
aS'know'
p5555
aaa(lp5556
S'MARIEBut'
p5557
a(lp5558
g43
aS'mean'
p5559
aS'you'
p5560
aS'cant'
p5561
aS'even'
p5562
aS'do'
p5563
aS'that'
p5564
aS'anymore'
p5565
aaa(lp5566
S'LISAThat'
p5567
a(lp5568
S'just'
p5569
aaa(lp5570
S'MARIEDo'
p5571
a(lp5572
S'you'
p5573
aS'know'
p5574
aS'what'
p5575
ag43
aS'mean'
p5576
aaa(lp5577
S'LISAOr'
p5578
a(lp5579
S'that'
p5580
aS'one'
p5581
aS'where'
p5582
aS'that'
p5583
aS'guy'
p5584
aaa(lp5585
S'MARIEWithout'
p5586
a(lp5587
S'running'
p5588
aS'the'
p5589
aS'risk'
p5590
aS'of'
p5591
aS'getting'
p5592
aS'killed'
p5593
aaa(lp5594
S'LISAit'
p5595
a(lp5596
S'was'
p5597
aaa(lp5598
g5595
a(lp5599
S'That'
p5600
aS'one'
p5601
aS'guy'
p5602
aS'was'
p5603
aS'in'
p5604
ag122
aS'um'
p5605
aaa(lp5606
g5595
a(lp5607
S'like'
p5608
ag122
aS'cop'
p5609
aS'car'
p5610
aaa(lp5611
g5595
a(lp5612
S'Remember'
p5613
aS'that'
p5614
aaa(lp5615
g5595
a(lp5616
S'He'
p5617
aS'was'
p5618
aS'pulling'
p5619
aS'people'
p5620
aS'over'
p5621
aaa(lp5622
S'KEVINHmm'
p5623
a(lp5624
aa(lp5625
S'LISA'
p5626
a(lp5627
S'They'
p5628
aS'were'
p5629
aaa(lp5630
S'MARIEOh'
p5631
a(lp5632
S'giving'
p5633
aS'them'
p5634
aS'false'
p5635
aS'tickets'
p5636
aaa(lp5637
S'KEVIN'
p5638
a(lp5639
S'Where'
p5640
aS'was'
p5641
aS'that'
p5642
aaa(lp5643
S'LISANo'
p5644
a(lp5645
aa(lp5646
g5644
a(lp5647
g43
aS'never'
p5648
aS'heard'
p5649
aS'that'
p5650
aaa(lp5651
S'KEVINThat'
p5652
a(lp5653
S'was'
p5654
aS'here'
p5655
aaa(lp5656
S'LISAYeah'
p5657
a(lp5658
aa(lp5659
g5657
a(lp5660
S'there'
p5661
aS'was'
p5662
aaa(lp5663
g5657
a(lp5664
S'This'
p5665
aS'guy'
p5666
aS'he'
p5667
aS'was'
p5668
aaa(lp5669
g5657
a(lp5670
g9
aS'anyway'
p5671
ag9
aaa(lp5672
g5657
a(lp5673
S'he'
p5674
aS'acted'
p5675
aS'like'
p5676
aS'it'
p5677
aS'was'
p5678
aS'an'
p5679
aS'unmarked'
p5680
aS'car'
p5681
aS'or'
p5682
aS'something'
p5683
aaa(lp5684
g5657
a(lp5685
S'and'
p5686
aS'he'
p5687
aS'would'
p5688
aS'pull'
p5689
aaa(lp5690
S'KEVINOh'
p5691
a(lp5692
aa(lp5693
g5691
a(lp5694
S'like'
p5695
ag122
aS'slick'
p5696
aS'top'
p5697
aaa(lp5698
S'LISAand'
p5699
a(lp5700
S'hed'
p5701
aS'put'
p5702
aS'that'
p5703
aS'light'
p5704
aS'on'
p5705
aS'top'
p5706
aaa(lp5707
S'KEVIN'
p5708
a(lp5709
S'Slick'
p5710
aS'top'
p5711
aaa(lp5712
S'LISA'
p5713
a(lp5714
S'No'
p5715
aS'no'
p5716
aS'not'
p5717
aS'slick'
p5718
aS'top'
p5719
aaa(lp5720
g5713
a(lp5721
S'just'
p5722
aS'like'
p5723
aaa(lp5724
g5713
a(lp5725
S'you'
p5726
aS'know'
p5727
aS'like'
p5728
aaa(lp5729
g5713
a(lp5730
S'any'
p5731
aS'oldlooking'
p5732
aS'car'
p5733
aaa(lp5734
g5713
a(lp5735
S'and'
p5736
aS'then'
p5737
aS'they'
p5738
aS'take'
p5739
aS'that'
p5740
aS'wire'
p5741
aaa(lp5742
g5713
a(lp5743
S'and'
p5744
aS'put'
p5745
aS'it'
p5746
aS'on'
p5747
aS'top'
p5748
aS'or'
p5749
aS'whatever'
p5750
aaa(lp5751
g5713
a(lp5752
S'or'
p5753
aS'in'
p5754
aS'their'
p5755
aaa(lp5756
g5713
a(lp5757
S'the'
p5758
aS'front'
p5759
aS'part'
p5760
aaa(lp5761
g5713
a(lp5762
S'Anyways'
p5763
aaa(lp5764
g5713
a(lp5765
S'and'
p5766
aS'um'
p5767
aaa(lp5768
g5713
a(lp5769
S'and'
p5770
aS'would'
p5771
aS'pull'
p5772
aS'people'
p5773
aS'over'
p5774
aaa(lp5775
g5713
a(lp5776
S'And'
p5777
aS'he'
p5778
aS'was'
p5779
aS'wearing'
p5780
aS'like'
p5781
ag122
aaa(lp5782
g5713
a(lp5783
S'like'
p5784
aaa(lp5785
g5713
a(lp5786
S'you'
p5787
aS'know'
p5788
aaa(lp5789
g5713
a(lp5790
S'like'
p5791
aS'an'
p5792
aS'shirt'
p5793
aaa(lp5794
g5713
a(lp5795
S'You'
p5796
aS'can'
p5797
aS'buy'
p5798
aS'em'
p5799
aS'like'
p5800
aaa(lp5801
g5713
a(lp5802
S'Shirts'
p5803
aS'like'
p5804
aaa(lp5805
g5713
a(lp5806
S'you'
p5807
aS'know'
p5808
aaa(lp5809
g5713
a(lp5810
S'for'
p5811
aS'the'
p5812
aS'police'
p5813
aaa(lp5814
g5713
a(lp5815
S'anywhere'
p5816
aaa(lp5817
g5713
a(lp5818
S'And'
p5819
aS'they'
p5820
aS'were'
p5821
aS'doing'
p5822
aS'that'
p5823
aaa(lp5824
S'KEVINW'
p5825
a(lp5826
S'why'
p5827
aS'was'
p5828
aS'he'
p5829
aaa(lp5830
S'LISAAnd'
p5831
a(lp5832
S'pulling'
p5833
aS'people'
p5834
aS'over'
p5835
aaa(lp5836
g5831
a(lp5837
S'They'
p5838
aS'were'
p5839
aS'stealing'
p5840
aS'their'
p5841
aS'cars'
p5842
aaa(lp5843
g5831
a(lp5844
S'There'
p5845
aS'was'
p5846
aS'like'
p5847
aS'people'
p5848
aS'in'
p5849
aS'the'
p5850
aS'back'
p5851
aaa(lp5852
g5831
a(lp5853
g43
aS'think'
p5854
aS'thats'
p5855
aS'what'
p5856
aS'they'
p5857
aS'were'
p5858
aS'doing'
p5859
aS'is'
p5860
aS'stealing'
p5861
aaa(lp5862
S'KEVINOkay'
p5863
a(lp5864
aa(lp5865
g5863
a(lp5866
S'So'
p5867
aS'he'
p5868
aS'would'
p5869
aaa(lp5870
S'LISAThey'
p5871
a(lp5872
S'were'
p5873
aS'carjacking'
p5874
aS'em'
p5875
aaa(lp5876
g5871
a(lp5877
S'Theyd'
p5878
aS'pull'
p5879
aS'them'
p5880
aS'over'
p5881
aaa(lp5882
g5871
a(lp5883
S'And'
p5884
aS'then'
p5885
aS'carjack'
p5886
aS'em'
p5887
aaa(lp5888
g5871
a(lp5889
S'And'
p5890
aS'then'
p5891
aS'like'
p5892
aS'like'
p5893
aaa(lp5894
g5871
a(lp5895
S'and'
p5896
aS'then'
p5897
aS'so'
p5898
aS'they'
p5899
aS'got'
p5900
aS'up'
p5901
aS'on'
p5902
aaa(lp5903
g5871
a(lp5904
S'you'
p5905
aS'know'
p5906
aaa(lp5907
g5871
a(lp5908
S'TV'
p5909
aaa(lp5910
g5871
a(lp5911
S'and'
p5912
aS'were'
p5913
aS'saying'
p5914
aS'all'
p5915
aS'this'
p5916
aS'about'
p5917
aS'them'
p5918
aaa(lp5919
g5871
a(lp5920
S'you'
p5921
aS'know'
p5922
aaa(lp5923
g5871
a(lp5924
S'well'
p5925
aS'dont'
p5926
aS'stop'
p5927
aS'for'
p5928
aS'the'
p5929
aS'police'
p5930
aS'even'
p5931
aaa(lp5932
S'KEVINHow'
p5933
a(lp5934
S'm'
p5935
aaa(lp5936
g5933
a(lp5937
S'How'
p5938
aS'many'
p5939
aaa(lp5940
S'LISAAnd'
p5941
a(lp5942
S'all'
p5943
aaa(lp5944
S'KEVIN'
p5945
a(lp5946
aa(lp5947
S'LISAI'
p5948
a(lp5949
S'was'
p5950
aS'like'
p5951
aaa(lp5952
g5948
a(lp5953
S'oh'
p5954
aS'shoot'
p5955
aaa(lp5956
S'KEVINHow'
p5957
a(lp5958
S'many'
p5959
aaa(lp5960
S'LISA'
p5961
a(lp5962
aa(lp5963
S'KEVINHow'
p5964
a(lp5965
S'many'
p5966
aS'people'
p5967
aS'did'
p5968
aS'they'
p5969
aS'get'
p5970
aS'like'
p5971
aS'that'
p5972
aaa(lp5973
S'LISAI'
p5974
a(lp5975
S'dont'
p5976
aS'know'
p5977
aaa(lp5978
S'KEVINJust'
p5979
a(lp5980
g122
aS'few'
p5981
aS'or'
p5982
aaa(lp5983
S'LISAJust'
p5984
a(lp5985
g122
aS'few'
p5986
aaa(lp5987
g5984
a(lp5988
S'Yeah'
p5989
aaa(lp5990
S'KEVINWere'
p5991
a(lp5992
S'they'
p5993
aS'like'
p5994
aS'doing'
p5995
aS'really'
p5996
aS'fancy'
p5997
aS'cars'
p5998
aS'or'
p5999
aaa(lp6000
S'LISACause'
p6001
a(lp6002
S'as'
p6003
aS'soon'
p6004
aS'as'
p6005
aS'it'
p6006
aS'happened'
p6007
aS'XX'
p6008
aaa(lp6009
S'MARIEDoesnt'
p6010
a(lp6011
S'that'
p6012
aS'sound'
p6013
aS'like'
p6014
aS'something'
p6015
aS'that'
p6016
aS'would'
p6017
aS'happen'
p6018
aS'on'
p6019
aS'like'
p6020
aS'on'
p6021
aS'Chips'
p6022
aaa(lp6023
g6010
a(lp6024
S'or'
p6025
aS'something'
p6026
aaa(lp6027
S'LISA'
p6028
a(lp6029
aa(lp6030
S'KEVIN'
p6031
a(lp6032
aa(lp6033
S'LISAYeah'
p6034
a(lp6035
aa(lp6036
S'KEVINSING'
p6037
a(lp6038
S'Doodoodoodoodoo'
p6039
aS'SING'
p6040
aaa(lp6041
S'LISAIt'
p6042
a(lp6043
S'does'
p6044
aaa(lp6045
S'MARIE'
p6046
a(lp6047
aa(lp6048
S'LISA'
p6049
a(lp6050
aa(lp6051
S'MARIE'
p6052
a(lp6053
aa(lp6054
S'KEVINShow'
p6055
a(lp6056
S'was'
p6057
aS'terrifying'
p6058
aaa(lp6059
g6055
a(lp6060
S'That'
p6061
aS'show'
p6062
aS'was'
p6063
aS'terrifying'
p6064
aaa(lp6065
S'LISA'
p6066
a(lp6067
aa(lp6068
g6066
a(lp6069
S'Oh'
p6070
aS'my'
p6071
aS'God'
p6072
aaa(lp6073
S'KEVIN'
p6074
a(lp6075
aa(lp6076
S'LISAYoure'
p6077
a(lp6078
g122
aS'dork'
p6079
aaa(lp6080
S'MARIEBut'
p6081
a(lp6082
S'do'
p6083
aS'you'
p6084
aS'know'
p6085
aS'what'
p6086
ag43
aS'mean'
p6087
aaa(lp6088
S'LISA'
p6089
a(lp6090
S'Yeah'
p6091
aaa(lp6092
S'MARIEyou'
p6093
a(lp6094
S'cant'
p6095
aS'even'
p6096
aS'do'
p6097
aS'anything'
p6098
aaa(lp6099
S'LISAI'
p6100
a(lp6101
S'know'
p6102
aS'what'
p6103
aS'you'
p6104
aS'mean'
p6105
aaa(lp6106
S'MARIEYou'
p6107
a(lp6108
S'cant'
p6109
aS'do'
p6110
aS'anything'
p6111
aS'anymore'
p6112
aaa(lp6113
S'LISAVOX'
p6114
a(lp6115
S'VOX'
p6116
aaa(lp6117
S'MARIEAll'
p6118
a(lp6119
S'you'
p6120
aS'can'
p6121
aS'do'
p6122
aS'is'
p6123
aS'just'
p6124
aS'stay'
p6125
aS'home'
p6126
aaa(lp6127
S'LISAVOX'
p6128
a(lp6129
S'VOX'
p6130
aaa(lp6131
S'KEVINIssac'
p6132
a(lp6133
aa(lp6134
S'MARIE'
p6135
a(lp6136
S'Just'
p6137
aS'stay'
p6138
aS'home'
p6139
aaa(lp6140
g6135
a(lp6141
S'Thats'
p6142
aS'it'
p6143
aaa(lp6144
S'LISAYou'
p6145
a(lp6146
S'sound'
p6147
aS'like'
p6148
aS'Stephanie'
p6149
aS'now'
p6150
aaa(lp6151
S'MARIE'
p6152
a(lp6153
S'Oh'
p6154
aS'no'
p6155
aaa(lp6156
S'KEVINStephanie'
p6157
a(lp6158
S'talks'
p6159
aS'that'
p6160
aS'way'
p6161
aaa(lp6162
S'LISA'
p6163
a(lp6164
S'Stephanie'
p6165
aaa(lp6166
g6163
a(lp6167
S'Stephanie'
p6168
aS'says'
p6169
aS'its'
p6170
aS'like'
p6171
aaa(lp6172
g6163
a(lp6173
S'what'
p6174
aS'do'
p6175
aS'uh'
p6176
aaa(lp6177
g6163
a(lp6178
g43
aS'can'
p6179
aS'never'
p6180
aS'think'
p6181
aS'of'
p6182
aS'that'
p6183
aS'word'
p6184
aaa(lp6185
g6163
a(lp6186
S'The'
p6187
aS'end'
p6188
aS'of'
p6189
aS'the'
p6190
aS'world'
p6191
aaa(lp6192
S'KEVIN'
p6193
a(lp6194
S'Apocalypse'
p6195
aaa(lp6196
S'LISA'
p6197
a(lp6198
S'No'
p6199
aS'the'
p6200
aS'other'
p6201
aS'one'
p6202
aaa(lp6203
S'KEVIN'
p6204
a(lp6205
S'Revelation'
p6206
aaa(lp6207
S'LISA'
p6208
a(lp6209
S'No'
p6210
aaa(lp6211
S'MARIE'
p6212
a(lp6213
S'The'
p6214
aS'other'
p6215
aS'one'
p6216
aaa(lp6217
S'KEVIN'
p6218
a(lp6219
aa(lp6220
S'MARIEKeep'
p6221
a(lp6222
S'going'
p6223
aaa(lp6224
S'LISALike'
p6225
a(lp6226
aa(lp6227
S'KEVIN'
p6228
a(lp6229
aa(lp6230
S'LISA'
p6231
a(lp6232
g4544
aS'um'
p6233
aaa(lp6234
g6231
a(lp6235
S'bornagain'
p6236
aS'Christians'
p6237
aS'always'
p6238
aS'talk'
p6239
aS'about'
p6240
aaa(lp6241
S'KEVINDoomsday'
p6242
a(lp6243
aa(lp6244
S'LISAForget'
p6245
a(lp6246
S'it'
p6247
aaa(lp6248
S'KEVIN'
p6249
a(lp6250
aa(lp6251
S'LISA'
p6252
a(lp6253
S'Do'
p6254
aS'you'
p6255
aS'know'
p6256
aS'what'
p6257
aS'Im'
p6258
aS'talking'
p6259
aS'about'
p6260
aaa(lp6261
S'MARIENo'
p6262
a(lp6263
aa(lp6264
g6262
a(lp6265
g43
aS'have'
p6266
aS'no'
p6267
aS'idea'
p6268
aS'what'
p6269
aS'youre'
p6270
aS'talking'
p6271
aS'about'
p6272
aaa(lp6273
S'KEVIN'
p6274
a(lp6275
aa(lp6276
S'LISA'
p6277
a(lp6278
S'The'
p6279
aS'one'
p6280
aS'where'
p6281
aS'all'
p6282
aS'the'
p6283
aS'good'
p6284
aaa(lp6285
S'MARIEMm'
p6286
a(lp6287
aa(lp6288
S'LISA'
p6289
a(lp6290
S'The'
p6291
aS'ones'
p6292
aS'that'
p6293
aS'are'
p6294
aS'marked'
p6295
aaa(lp6296
S'KEVINRapture'
p6297
a(lp6298
aa(lp6299
S'LISARapture'
p6300
a(lp6301
aa(lp6302
S'KEVIN'
p6303
a(lp6304
S'She'
p6305
aS'still'
p6306
aS'goes'
p6307
aS'to'
p6308
aS'Calvary'
p6309
aS'Chapel'
p6310
aaa(lp6311
S'LISANo'
p6312
a(lp6313
aa(lp6314
g6312
a(lp6315
S'she'
p6316
aS'doesnt'
p6317
aaa(lp6318
g6312
a(lp6319
S'No'
p6320
aaa(lp6321
g6312
a(lp6322
S'she'
p6323
aS'never'
p6324
aS'went'
p6325
aS'to'
p6326
aS'Calvary'
p6327
aS'Chapel'
p6328
aaa(lp6329
S'MARIEOh'
p6330
a(lp6331
S'my'
p6332
aS'God'
p6333
aaa(lp6334
g6330
a(lp6335
S'Calvary'
p6336
aS'Chapel'
p6337
aaa(lp6338
S'KEVIN'
p6339
a(lp6340
S'What'
p6341
aS'was'
p6342
aS'the'
p6343
aS'one'
p6344
aS'that'
p6345
aS'she'
p6346
aS'used'
p6347
aS'to'
p6348
aS'go'
p6349
aS'to'
p6350
aaa(lp6351
g6339
a(lp6352
g43
aS'thought'
p6353
aS'you'
p6354
aS'said'
p6355
aS'XXXX'
p6356
aaa(lp6357
S'LISA'
p6358
a(lp6359
S'No'
p6360
aS'she'
p6361
aS'went'
p6362
aS'to'
p6363
aS'one'
p6364
aaa(lp6365
g6358
a(lp6366
S'that'
p6367
aS'was'
p6368
aS'right'
p6369
aS'by'
p6370
aS'Manzano'
p6371
aaa(lp6372
g6358
a(lp6373
S'But'
p6374
aaa(lp6375
g6358
a(lp6376
S'it'
p6377
aS'was'
p6378
aS'the'
p6379
aS'same'
p6380
aS'deal'
p6381
aaa(lp6382
g6358
a(lp6383
S'It'
p6384
aS'was'
p6385
aS'just'
p6386
ag122
aS'much'
p6387
ag2927
aS'much'
p6388
aS'smaller'
p6389
aS'church'
p6390
aaa(lp6391
S'MARIE'
p6392
a(lp6393
S'Calvary'
p6394
aS'Chapel'
p6395
ag9
aS'is'
p6396
aS'too'
p6397
aS'much'
p6398
ag9
aaa(lp6399
S'LISAIt'
p6400
a(lp6401
S'was'
p6402
aS'born'
p6403
aS'ag'
p6404
aaa(lp6405
g6400
a(lp6406
S'She'
p6407
aS'was'
p6408
aS'just'
p6409
aS'like'
p6410
aS'supposedly'
p6411
ag122
aS'bornagain'
p6412
aS'Christian'
p6413
aS'XX'
p6414
aaa(lp6415
S'MARIEShe'
p6416
a(lp6417
S'was'
p6418
aaa(lp6419
g6416
a(lp6420
S'or'
p6421
aS'she'
p6422
aS'is'
p6423
aaa(lp6424
S'LISA'
p6425
a(lp6426
S'She'
p6427
aS'hasnt'
p6428
aS'gone'
p6429
aS'forever'
p6430
aaa(lp6431
S'MARIE'
p6432
a(lp6433
S'Well'
p6434
aS'what'
p6435
aS'is'
p6436
aS'her'
p6437
aS'her'
p6438
aS'husband'
p6439
aaa(lp6440
S'LISAOfficially'
p6441
a(lp6442
aa(lp6443
g6441
a(lp6444
S'Her'
p6445
aS'husbands'
p6446
aS'Catholic'
p6447
aaa(lp6448
S'MARIE'
p6449
a(lp6450
S'And'
p6451
aS'what'
p6452
aS'is'
p6453
aS'she'
p6454
aS'officially'
p6455
aaa(lp6456
S'LISA'
p6457
a(lp6458
S'She'
p6459
ag43
aS'dont'
p6460
aS'think'
p6461
aS'shes'
p6462
aS'official'
p6463
aS'anything'
p6464
aaa(lp6465
S'MARIE'
p6466
a(lp6467
S'Shes'
p6468
aS'officially'
p6469
aS'whatever'
p6470
aS'she'
p6471
aS'feels'
p6472
aS'like'
p6473
aaa(lp6474
S'LISAShes'
p6475
a(lp6476
S'not'
p6477
aS'baptized'
p6478
aaa(lp6479
g6475
a(lp6480
S'As'
p6481
aS'anything'
p6482
aaa(lp6483
g6475
a(lp6484
S'She'
p6485
aS'did'
p6486
aS'this'
p6487
aaa(lp6488
g6475
a(lp6489
S'you'
p6490
aS'know'
p6491
aS'like'
p6492
aaa(lp6493
g6475
a(lp6494
S'well'
p6495
aaa(lp6496
g6475
a(lp6497
S'bornagain'
p6498
aS'Christians'
p6499
aS'have'
p6500
aS'this'
p6501
aS'thing'
p6502
aS'where'
p6503
aaa(lp6504
g6475
a(lp6505
S'where'
p6506
aS'they'
p6507
aS'um'
p6508
aaa(lp6509
S'KEVIN'
p6510
a(lp6511
S'What'
p6512
aaa(lp6513
S'LISA'
p6514
a(lp6515
aa(lp6516
S'MARIE'
p6517
a(lp6518
aa(lp6519
S'LISAWhere'
p6520
a(lp6521
S'they'
p6522
aaa(lp6523
g6520
a(lp6524
S'you'
p6525
aS'know'
p6526
aS'like'
p6527
aaa(lp6528
g6520
a(lp6529
S'kinda'
p6530
aaa(lp6531
g6520
a(lp6532
S'theyll'
p6533
aaa(lp6534
g6520
a(lp6535
S'you'
p6536
aS'know'
p6537
aaa(lp6538
g6520
a(lp6539
S'try'
p6540
aS'to'
p6541
aS'like'
p6542
aaa(lp6543
g6520
a(lp6544
S'inspire'
p6545
aS'you'
p6546
aS'and'
p6547
aS'then'
p6548
aaa(lp6549
g6520
a(lp6550
S'youre'
p6551
aS'just'
p6552
aS'supposed'
p6553
aS'to'
p6554
aS'like'
p6555
aaa(lp6556
g6520
a(lp6557
S'proclaim'
p6558
aS'yourself'
p6559
aS'like'
p6560
aaa(lp6561
g6520
a(lp6562
S'that'
p6563
aS'day'
p6564
aaa(lp6565
g6520
a(lp6566
S'Like'
p6567
aaa(lp6568
S'KEVINAnd'
p6569
a(lp6570
S'thats'
p6571
aS'what'
p6572
aS'baptism'
p6573
aS'is'
p6574
aaa(lp6575
S'LISA'
p6576
a(lp6577
S'Well'
p6578
aS'its'
p6579
aS'not'
p6580
aS'supposed'
p6581
aS'to'
p6582
aS'be'
p6583
aS'baptism'
p6584
aS'th'
p6585
aaa(lp6586
g6576
a(lp6587
S'Well'
p6588
aaa(lp6589
g6576
a(lp6590
S'you'
p6591
aS'know'
p6592
aS'they'
p6593
aS'just'
p6594
aaa(lp6595
S'MARIEThey'
p6596
a(lp6597
S'dont'
p6598
aS'believe'
p6599
aS'in'
p6600
aS'baptism'
p6601
aaa(lp6602
g6596
a(lp6603
S'do'
p6604
aS'they'
p6605
aaa(lp6606
S'LISA'
p6607
a(lp6608
S'Well'
p6609
aS'no'
p6610
aaa(lp6611
g6607
a(lp6612
S'Not'
p6613
aS'so'
p6614
aS'of'
p6615
aaa(lp6616
S'KEVINWell'
p6617
a(lp6618
S'Baptists'
p6619
aS'do'
p6620
aaa(lp6621
S'LISANot'
p6622
a(lp6623
S'so'
p6624
aS'officially'
p6625
aaa(lp6626
S'MARIE'
p6627
a(lp6628
S'Cause'
p6629
aS'wasnt'
p6630
aS'it'
p6631
aaa(lp6632
g6627
a(lp6633
S'well'
p6634
aS'who'
p6635
aaa(lp6636
g6627
a(lp6637
S'They'
p6638
aS'dont'
p6639
aaa(lp6640
S'KEVINAnd'
p6641
a(lp6642
S'you'
p6643
aS'dont'
p6644
aS'get'
p6645
ag122
aS'certificate'
p6646
aS'or'
p6647
aS'anything'
p6648
aaa(lp6649
S'MARIEThey'
p6650
a(lp6651
S'dont'
p6652
aaa(lp6653
g6650
a(lp6654
S'They'
p6655
aS'dont'
p6656
aS'like'
p6657
aS'XX'
p6658
aaa(lp6659
S'LISAYou'
p6660
a(lp6661
S'dont'
p6662
aS'get'
p6663
ag122
aS'certificate'
p6664
aaa(lp6665
g6660
a(lp6666
S'its'
p6667
aS'just'
p6668
aS'like'
p6669
aaa(lp6670
g6660
a(lp6671
S'youre'
p6672
aS'gonna'
p6673
aS'change'
p6674
aS'your'
p6675
aS'life'
p6676
aS'kinda'
p6677
aS'thing'
p6678
aaa(lp6679
S'MARIEThey'
p6680
a(lp6681
S'they'
p6682
aaa(lp6683
S'LISAAnd'
p6684
a(lp6685
S'accept'
p6686
aS'God'
p6687
aS'and'
p6688
aaa(lp6689
S'MARIE'
p6690
a(lp6691
S'They'
p6692
aS'like'
p6693
aS'are'
p6694
aS'like'
p6695
aS'totally'
p6696
aaa(lp6697
g6690
a(lp6698
S'Werent'
p6699
aS'you'
p6700
aS'saying'
p6701
aS'that'
p6702
aS'Barbara'
p6703
aS'was'
p6704
aS'saying'
p6705
aS'something'
p6706
aS'about'
p6707
aS'Ash'
p6708
aS'Wednesday'
p6709
aaa(lp6710
S'LISA'
p6711
a(lp6712
S'Yes'
p6713
aaa(lp6714
g6711
a(lp6715
S'Wha'
p6716
aaa(lp6717
S'KEVINWhat'
p6718
a(lp6719
S'did'
p6720
aS'she'
p6721
aS'say'
p6722
aaa(lp6723
S'MARIEIt'
p6724
a(lp6725
S'made'
p6726
aS'me'
p6727
aS'so'
p6728
aS'mad'
p6729
aaa(lp6730
S'LISAShes'
p6731
a(lp6732
g122
aaa(lp6733
g6731
a(lp6734
S'Shes'
p6735
ag122
aS'Pentecostal'
p6736
aaa(lp6737
g6731
a(lp6738
S'Well'
p6739
aaa(lp6740
g6731
a(lp6741
S'she'
p6742
aS'said'
p6743
aS'um'
p6744
aaa(lp6745
g6731
a(lp6746
S'she'
p6747
aS'asked'
p6748
aS'if'
p6749
ag43
aS'had'
p6750
aS'went'
p6751
aS'and'
p6752
aS'got'
p6753
aS'ashes'
p6754
aS'on'
p6755
aS'my'
p6756
aS'forehead'
p6757
aS'yet'
p6758
aaa(lp6759
g6731
a(lp6760
S'And'
p6761
aS'um'
p6762
aaa(lp6763
g6731
a(lp6764
g43
aS'dont'
p6765
aS'remember'
p6766
aS'what'
p6767
aS'she'
p6768
aS'said'
p6769
aaa(lp6770
g6731
a(lp6771
S'Something'
p6772
aS'she'
p6773
aS'just'
p6774
aS'said'
p6775
aaa(lp6776
g6731
a(lp6777
S'VOX'
p6778
aS'well'
p6779
aS'Jesus'
p6780
aS'is'
p6781
aS'in'
p6782
aS'your'
p6783
aS'heart'
p6784
aaa(lp6785
g6731
a(lp6786
S'not'
p6787
aS'on'
p6788
aS'your'
p6789
aS'forehead'
p6790
aS'VOX'
p6791
aaa(lp6792
g6731
a(lp6793
S'Or'
p6794
aS'something'
p6795
aaa(lp6796
S'MARIE'
p6797
a(lp6798
aa(lp6799
g6797
a(lp6800
S'And'
p6801
ag43
aS'was'
p6802
aS'just'
p6803
aS'like'
p6804
aaa(lp6805
S'KEVIN'
p6806
a(lp6807
aa(lp6808
S'LISA'
p6809
a(lp6810
aa(lp6811
g6809
a(lp6812
g43
aS'was'
p6813
aS'just'
p6814
aS'like'
p6815
aaa(lp6816
S'KEVIN'
p6817
a(lp6818
aa(lp6819
S'MARIE'
p6820
a(lp6821
aa(lp6822
S'KEVINYou'
p6823
a(lp6824
S'told'
p6825
aS'me'
p6826
aS'that'
p6827
aaa(lp6828
g6823
a(lp6829
S'but'
p6830
aS'its'
p6831
aS'still'
p6832
aS'stupid'
p6833
aaa(lp6834
g6823
a(lp6835
g43
aS'mean'
p6836
aaa(lp6837
S'LISAIts'
p6838
a(lp6839
S'just'
p6840
aS'like'
p6841
aaa(lp6842
g6838
a(lp6843
S'well'
p6844
aaa(lp6845
g6838
a(lp6846
S'you'
p6847
aS'know'
p6848
aaa(lp6849
g6838
a(lp6850
S'you'
p6851
aS'just'
p6852
aS'proved'
p6853
aS'that'
p6854
aS'you'
p6855
aS'absolutely'
p6856
aS'know'
p6857
aS'nothing'
p6858
aS'about'
p6859
aS'the'
p6860
aS'Catholic'
p6861
aS'religion'
p6862
aaa(lp6863
S'KEVIN'
p6864
a(lp6865
aa(lp6866
S'MARIEXXXX'
p6867
a(lp6868
aa(lp6869
S'LISAYou'
p6870
a(lp6871
S'know'
p6872
aS'what'
p6873
ag43
aS'mean'
p6874
aaa(lp6875
g6870
a(lp6876
S'That'
p6877
aS'was'
p6878
aS'never'
p6879
aS'the'
p6880
aS'point'
p6881
aaa(lp6882
S'MARIE'
p6883
a(lp6884
aa(lp6885
S'KEVIN'
p6886
a(lp6887
aa(lp6888
S'MARIE'
p6889
a(lp6890
aa(lp6891
S'KEVIN'
p6892
a(lp6893
aa(lp6894
S'LISAyou'
p6895
a(lp6896
S'know'
p6897
aaa(lp6898
S'KEVIN'
p6899
a(lp6900
aa(lp6901
S'MARIE'
p6902
a(lp6903
aa(lp6904
S'LISA'
p6905
a(lp6906
S'So'
p6907
aS'whatever'
p6908
aaa(lp6909
g6905
a(lp6910
g43
aS'was'
p6911
aS'just'
p6912
aS'like'
p6913
aaa(lp6914
S'KEVINOh'
p6915
a(lp6916
S'boy'
p6917
aaa(lp6918
S'MARIEOh'
p6919
a(lp6920
aa(lp6921
g6919
a(lp6922
S'it'
p6923
aS'was'
p6924
aS'so'
p6925
aS'funny'
p6926
aS'one'
p6927
aS'day'
p6928
aaa(lp6929
g6919
a(lp6930
S'Um'
p6931
aaa(lp6932
g6919
a(lp6933
S'uh'
p6934
aS'Kent'
p6935
aS'was'
p6936
aS'at'
p6937
aS'the'
p6938
aS'store'
p6939
aaa(lp6940
g6919
a(lp6941
S'And'
p6942
aS'me'
p6943
aS'and'
p6944
aS'Cassie'
p6945
aS'were'
p6946
aS'talking'
p6947
aaa(lp6948
g6919
a(lp6949
S'and'
p6950
ag43
aS'was'
p6951
aS'just'
p6952
aS'like'
p6953
aaa(lp6954
g6919
a(lp6955
S'thats'
p6956
aS'before'
p6957
aS'he'
p6958
aS'fired'
p6959
aS'Barry'
p6960
aaa(lp6961
g6919
a(lp6962
g43
aS'guess'
p6963
aaa(lp6964
S'LISA'
p6965
a(lp6966
S'Hm'
p6967
aaa(lp6968
S'MARIEHe'
p6969
a(lp6970
g4544
aS'thats'
p6971
aS'the'
p6972
aS'day'
p6973
aS'he'
p6974
aS'asked'
p6975
aS'us'
p6976
aS'about'
p6977
aS'Barry'
p6978
aaa(lp6979
S'LISA'
p6980
a(lp6981
S'Asked'
p6982
aS'you'
p6983
aS'about'
p6984
aS'Barry'
p6985
aaa(lp6986
S'MARIEYeah'
p6987
a(lp6988
aa(lp6989
S'LISAXX'
p6990
a(lp6991
aa(lp6992
S'MARIECause'
p6993
a(lp6994
S'that'
p6995
aS'was'
p6996
aS'the'
p6997
aS'day'
p6998
aS'he'
p6999
aS'said'
p7000
aS'he'
p7001
aS'was'
p7002
aS'gonna'
p7003
aS'fire'
p7004
aaa(lp7005
g6993
a(lp7006
S'Well'
p7007
aS'he'
p7008
aS'had'
p7009
aS'told'
p7010
aS'us'
p7011
aS'that'
p7012
aS'he'
p7013
aS'probably'
p7014
aS'was'
p7015
aS'gonna'
p7016
aS'let'
p7017
aS'him'
p7018
aS'go'
p7019
aaa(lp7020
S'LISA'
p7021
a(lp7022
S'Well'
p7023
aS'what'
p7024
aS'happened'
p7025
aaa(lp7026
g7021
a(lp7027
S'Okay'
p7028
ag43
aS'never'
p7029
aaa(lp7030
g7021
a(lp7031
S'Im'
p7032
aaa(lp7033
g7021
a(lp7034
S'Im'
p7035
aS'gonna'
p7036
aS'get'
p7037
aS'you'
p7038
aS'off'
p7039
aS'subject'
p7040
aS'right'
p7041
aS'here'
p7042
aaa(lp7043
g7021
a(lp7044
S'Barry'
p7045
aS'was'
p7046
aS'mister'
p7047
aS'wonderful'
p7048
aS'good'
p7049
aaa(lp7050
g7021
a(lp7051
S'did'
p7052
aS'everything'
p7053
aaa(lp7054
S'MARIEHe'
p7055
a(lp7056
S'never'
p7057
aS'was'
p7058
aaa(lp7059
g7055
a(lp7060
S'He'
p7061
aS'never'
p7062
aS'was'
p7063
aaa(lp7064
S'LISAI'
p7065
a(lp7066
S'thought'
p7067
aS'Kent'
p7068
aS'even'
p7069
aS'said'
p7070
aS'that'
p7071
aS'he'
p7072
aS'was'
p7073
aS'great'
p7074
aaa(lp7075
S'MARIEWell'
p7076
a(lp7077
aa(lp7078
g7076
a(lp7079
S'Kent'
p7080
aS'liked'
p7081
aS'him'
p7082
aS'at'
p7083
aS'first'
p7084
aaa(lp7085
g7076
a(lp7086
S'And'
p7087
aS'then'
p7088
aS'he'
p7089
aS'started'
p7090
aS'messing'
p7091
aS'up'
p7092
aS'the'
p7093
aS'machine'
p7094
aS'and'
p7095
aS'stuff'
p7096
aaa(lp7097
g7076
a(lp7098
S'so'
p7099
aS'Kent'
p7100
aS'was'
p7101
aS'like'
p7102
aaa(lp7103
S'LISAUnhunh'
p7104
a(lp7105
aa(lp7106
S'MARIEyou'
p7107
a(lp7108
S'know'
p7109
aaa(lp7110
S'LISA'
p7111
a(lp7112
S'So'
p7113
aS'he'
p7114
aS'didnt'
p7115
aS'like'
p7116
aS'him'
p7117
aS'ever'
p7118
aS'for'
p7119
aS'very'
p7120
aS'long'
p7121
aaa(lp7122
S'MARIEand'
p7123
a(lp7124
S'then'
p7125
aS'he'
p7126
aS'XX'
p7127
aaa(lp7128
g7123
a(lp7129
S'Unhunh'
p7130
aaa(lp7131
g7123
a(lp7132
S'And'
p7133
aS'then'
p7134
aaa(lp7135
S'LISAOh'
p7136
a(lp7137
aa(lp7138
g7136
a(lp7139
S'okay'
p7140
aaa(lp7141
S'MARIE'
p7142
a(lp7143
S'Pat'
p7144
aS'started'
p7145
aS'not'
p7146
aS'liking'
p7147
aS'him'
p7148
aS'either'
p7149
aaa(lp7150
g7142
a(lp7151
S'And'
p7152
ag43
aS'mean'
p7153
aaa(lp7154
g7142
a(lp7155
S'my'
p7156
aS'mom'
p7157
aS'never'
p7158
aS'liked'
p7159
aS'him'
p7160
aS'so'
p7161
aaa(lp7162
S'LISA'
p7163
a(lp7164
S'Okay'
p7165
aS'anyways'
p7166
aS'so'
p7167
aaa(lp7168
S'MARIE'
p7169
a(lp7170
S'But'
p7171
aS'he'
p7172
aaa(lp7173
g7169
a(lp7174
S'We'
p7175
aS'were'
p7176
aS'sitting'
p7177
aS'there'
p7178
aaa(lp7179
g7169
a(lp7180
S'and'
p7181
aS'you'
p7182
aS'know'
p7183
aS'how'
p7184
aS'like'
p7185
aaa(lp7186
g7169
a(lp7187
S'Kents'
p7188
aS'like'
p7189
ag122
aS'big'
p7190
aS'old'
p7191
aaa(lp7192
g7169
a(lp7193
S'Well'
p7194
aS'he'
p7195
aS'was'
p7196
ag122
aS'big'
p7197
aS'old'
p7198
aS'drug'
p7199
aS'addict'
p7200
aS'and'
p7201
aS'all'
p7202
aS'that'
p7203
aS'stuff'
p7204
aaa(lp7205
g7169
a(lp7206
S'And'
p7207
aaa(lp7208
S'KEVIN'
p7209
a(lp7210
aa(lp7211
g7209
a(lp7212
S'You'
p7213
aS'told'
p7214
aS'me'
p7215
ag122
aS'little'
p7216
aS'bit'
p7217
aS'about'
p7218
aaa(lp7219
S'LISAYeah'
p7220
a(lp7221
aa(lp7222
g7220
a(lp7223
S'he'
p7224
aS'was'
p7225
ag122
aS'big'
p7226
aS'old'
p7227
aS'drug'
p7228
aS'addict'
p7229
aaa(lp7230
S'MARIEYeah'
p7231
a(lp7232
S'he'
p7233
aS'was'
p7234
aaa(lp7235
S'KEVINLike'
p7236
a(lp7237
S'coke'
p7238
aS'or'
p7239
aaa(lp7240
S'MARIEAnd'
p7241
a(lp7242
S'he'
p7243
aaa(lp7244
g7241
a(lp7245
S'Yeah'
p7246
aaa(lp7247
S'LISAYeah'
p7248
a(lp7249
aa(lp7250
g7248
a(lp7251
S'he'
p7252
aS'was'
p7253
ag122
aS'bornagain'
p7254
aS'virgin'
p7255
aaa(lp7256
g7248
a(lp7257
g43
aS'thought'
p7258
aS'that'
p7259
aS'was'
p7260
aS'the'
p7261
aS'most'
p7262
aS'hilarious'
p7263
aS'thing'
p7264
ag43
aS'heard'
p7265
aS'in'
p7266
aS'my'
p7267
aS'entire'
p7268
aS'life'
p7269
aaa(lp7270
S'KEVIN'
p7271
a(lp7272
aa(lp7273
S'MARIEBut'
p7274
a(lp7275
S'he'
p7276
aaa(lp7277
S'LISAAnyways'
p7278
a(lp7279
aa(lp7280
g7278
a(lp7281
S'Im'
p7282
aS'sorry'
p7283
aaa(lp7284
S'KEVIN'
p7285
a(lp7286
aa(lp7287
S'MARIEBut'
p7288
a(lp7289
S'he'
p7290
aS'was'
p7291
aaa(lp7292
g7288
a(lp7293
S'you'
p7294
aS'know'
p7295
aaa(lp7296
g7288
a(lp7297
S'he'
p7298
aS'like'
p7299
aaa(lp7300
g7288
a(lp7301
S'is'
p7302
aS'so'
p7303
aS'like'
p7304
aaa(lp7305
g7288
a(lp7306
S'judgmental'
p7307
aS'on'
p7308
aS'other'
p7309
aS'people'
p7310
aS'now'
p7311
aaa(lp7312
g7288
a(lp7313
S'hes'
p7314
aS'gotten'
p7315
aS'to'
p7316
aS'be'
p7317
aS'like'
p7318
aS'that'
p7319
aS'ever'
p7320
aS'since'
p7321
ag43
aS'think'
p7322
aaa(lp7323
g7288
a(lp7324
S'basically'
p7325
aS'since'
p7326
aS'hes'
p7327
aS'been'
p7328
aS'married'
p7329
aaa(lp7330
g7288
a(lp7331
S'Hes'
p7332
aS'like'
p7333
aS'so'
p7334
aS'judgmental'
p7335
aS'on'
p7336
aS'people'
p7337
aaa(lp7338
g7288
a(lp7339
S'it'
p7340
aS'bugs'
p7341
aS'me'
p7342
aaa(lp7343
S'LISA'
p7344
a(lp7345
S'VOX'
p7346
aS'Like'
p7347
aS'who'
p7348
aS'VOX'
p7349
aaa(lp7350
S'MARIEB'
p7351
a(lp7352
S'just'
p7353
aS'like'
p7354
aaa(lp7355
g7351
a(lp7356
S'people'
p7357
aS'in'
p7358
aS'general'
p7359
aaa(lp7360
g7351
a(lp7361
g43
aS'mean'
p7362
aS'he'
p7363
aS'just'
p7364
aaa(lp7365
g7351
a(lp7366
g43
aS'dont'
p7367
aS'know'
p7368
aS'its'
p7369
aaa(lp7370
g7351
a(lp7371
S'Its'
p7372
aS'weird'
p7373
aaa(lp7374
g7351
a(lp7375
S'Like'
p7376
aaa(lp7377
S'LISA'
p7378
a(lp7379
S'See'
p7380
ag43
aaa(lp7381
S'MARIEyou'
p7382
a(lp7383
S'know'
p7384
aS'how'
p7385
aS'he'
p7386
aS'used'
p7387
aS'to'
p7388
aS'always'
p7389
aS'say'
p7390
aaa(lp7391
g7382
a(lp7392
S'well'
p7393
ag43
aS'would'
p7394
aS'never'
p7395
aS'push'
p7396
aaa(lp7397
g7382
a(lp7398
S'my'
p7399
aS'faith'
p7400
aS'on'
p7401
aS'anybody'
p7402
aaa(lp7403
g7382
a(lp7404
g43
aS'would'
p7405
aS'never'
p7406
aS'p'
p7407
aS'preach'
p7408
aS'to'
p7409
aS'anybody'
p7410
aaa(lp7411
g7382
a(lp7412
S'But'
p7413
aaa(lp7414
g7382
a(lp7415
S'he'
p7416
aS'doesnt'
p7417
aS'let'
p7418
aS'us'
p7419
aS'put'
p7420
aS'anything'
p7421
aS'up'
p7422
aaa(lp7423
g7382
a(lp7424
S'Like'
p7425
aS'as'
p7426
aS'far'
p7427
aS'as'
p7428
aaa(lp7429
g7382
a(lp7430
S'you'
p7431
aS'know'
p7432
aS'like'
p7433
aS'um'
p7434
aaa(lp7435
S'KEVIN'
p7436
a(lp7437
S'Cant'
p7438
aS'put'
p7439
aS'anything'
p7440
aS'Catholic'
p7441
aS'up'
p7442
aaa(lp7443
g7436
a(lp7444
S'Or'
p7445
aS'nothing'
p7446
aS'secular'
p7447
aaa(lp7448
S'MARIEYeah'
p7449
a(lp7450
aa(lp7451
g7449
a(lp7452
S'do'
p7453
aS'you'
p7454
aS'know'
p7455
aS'what'
p7456
ag43
aS'mean'
p7457
aaa(lp7458
g7449
a(lp7459
S'just'
p7460
aS'nothing'
p7461
aaa(lp7462
g7449
a(lp7463
S'were'
p7464
aS'not'
p7465
aS'allowed'
p7466
aS'to'
p7467
aS'put'
p7468
aS'anything'
p7469
aS'up'
p7470
aaa(lp7471
g7449
a(lp7472
S'But'
p7473
aaa(lp7474
g7449
a(lp7475
S'here'
p7476
aS'comes'
p7477
aS'this'
p7478
aS'person'
p7479
aaa(lp7480
g7449
a(lp7481
S'and'
p7482
aaa(lp7483
g7449
a(lp7484
S'And'
p7485
aS'its'
p7486
aS'about'
p7487
aaa(lp7488
g7449
a(lp7489
S'like'
p7490
aS'you'
p7491
aS'know'
p7492
aaa(lp7493
g7449
a(lp7494
S'about'
p7495
aS'his'
p7496
aS'religion'
p7497
aS'or'
p7498
aS'whatever'
p7499
aaa(lp7500
g7449
a(lp7501
S'and'
p7502
aS'he'
p7503
aS'CLAP'
p7504
aS'plasters'
p7505
aS'CLAP'
p7506
aS'it'
p7507
aS'right'
p7508
aS'on'
p7509
aS'the'
p7510
aS'front'
p7511
aS'door'
p7512
aaa(lp7513
g7449
a(lp7514
S'you'
p7515
aS'know'
p7516
aaa(lp7517
g7449
a(lp7518
S'and'
p7519
aS'hes'
p7520
aS'not'
p7521
aS'pushing'
p7522
aS'on'
p7523
aS'his'
p7524
aS'customers'
p7525
aS'and'
p7526
aS'stuff'
p7527
aaa(lp7528
g7449
a(lp7529
S'And'
p7530
aS'we'
p7531
aS'lost'
p7532
ag122
aS'lot'
p7533
aS'of'
p7534
aS'customers'
p7535
aS'because'
p7536
aS'of'
p7537
aS'that'
p7538
aaa(lp7539
g7449
a(lp7540
S'Because'
p7541
aS'they'
p7542
aS'didnt'
p7543
aS'feel'
p7544
aS'like'
p7545
aaa(lp7546
g7449
a(lp7547
S'you'
p7548
aS'know'
p7549
aaa(lp7550
g7449
a(lp7551
S'that'
p7552
aS'was'
p7553
ag122
aS'place'
p7554
aS'for'
p7555
aaa(lp7556
S'KEVINX'
p7557
a(lp7558
S'What'
p7559
ag9
aaa(lp7560
g7557
a(lp7561
S'What'
p7562
aS'was'
p7563
aS'it'
p7564
aaa(lp7565
S'MARIE'
p7566
a(lp7567
g43
aS'forget'
p7568
aaa(lp7569
g7566
a(lp7570
S'it'
p7571
aS'was'
p7572
aS'an'
p7573
aS'announcement'
p7574
aS'of'
p7575
aS'somebody'
p7576
aS'coming'
p7577
aaa(lp7578
g7566
a(lp7579
g122
aS'speaker'
p7580
aS'or'
p7581
aS'somebody'
p7582
aaa(lp7583
S'LISA'
p7584
a(lp7585
S'Oh'
p7586
aaa(lp7587
S'KEVINOh'
p7588
a(lp7589
aa(lp7590
S'LISAI'
p7591
a(lp7592
S'think'
p7593
ag43
aS'remember'
p7594
aS'that'
p7595
aaa(lp7596
S'MARIEAnd'
p7597
a(lp7598
S'he'
p7599
aaa(lp7600
g7597
a(lp7601
S'And'
p7602
aaa(lp7603
g7597
a(lp7604
S'And'
p7605
aS'he'
p7606
aaa(lp7607
g7597
a(lp7608
S'And'
p7609
aS'they'
p7610
aS'were'
p7611
aS'just'
p7612
aS'like'
p7613
aaa(lp7614
g7597
a(lp7615
S'not'
p7616
aS'really'
p7617
aaa(lp7618
S'LISA'
p7619
a(lp7620
S'Well'
p7621
aS'he'
p7622
aS'used'
p7623
aS'to'
p7624
aaa(lp7625
g7619
a(lp7626
S'like'
p7627
aaa(lp7628
g7619
a(lp7629
S'you'
p7630
aS'know'
p7631
aaa(lp7632
S'MARIELeave'
p7633
a(lp7634
S'little'
p7635
aS'prayer'
p7636
aS'cards'
p7637
aS'at'
p7638
aS'number'
p7639
aS'ten'
p7640
aaa(lp7641
S'LISABar'
p7642
a(lp7643
aa(lp7644
g7642
a(lp7645
S'Yeah'
p7646
aaa(lp7647
g7642
a(lp7648
S'Barbara'
p7649
aaa(lp7650
g7642
a(lp7651
S'had'
p7652
aS'this'
p7653
aS'sh'
p7654
aaa(lp7655
g7642
a(lp7656
S'They'
p7657
aS'have'
p7658
aaa(lp7659
g7642
a(lp7660
S'they'
p7661
aS'call'
p7662
aS'em'
p7663
aaa(lp7664
g7642
a(lp7665
S'They'
p7666
aS'call'
p7667
aS'em'
p7668
aS'tracts'
p7669
aaa(lp7670
g7642
a(lp7671
S'And'
p7672
aS'what'
p7673
aS'they'
p7674
aS'are'
p7675
aS'is'
p7676
aS'theyre'
p7677
aS'like'
p7678
aaa(lp7679
g7642
a(lp7680
S'Like'
p7681
aS'theyll'
p7682
aS'have'
p7683
aS'Footprints'
p7684
aS'on'
p7685
aS'it'
p7686
aaa(lp7687
g7642
a(lp7688
S'or'
p7689
aS'um'
p7690
aaa(lp7691
g7642
a(lp7692
g43
aS'cant'
p7693
aS'remember'
p7694
aaa(lp7695
g7642
a(lp7696
S'Just'
p7697
aS'little'
p7698
aS'thing'
p7699
aaa(lp7700
g7642
a(lp7701
S'Little'
p7702
aS'prayers'
p7703
aaa(lp7704
g7642
a(lp7705
S'and'
p7706
aS'stuff'
p7707
aS'like'
p7708
aS'that'
p7709
aaa(lp7710
g7642
a(lp7711
S'and'
p7712
aaa(lp7713
g7642
a(lp7714
S'But'
p7715
aS'she'
p7716
aS'had'
p7717
ag122
aS'little'
p7718
aS'basket'
p7719
aaa(lp7720
g7642
a(lp7721
S'and'
p7722
aS'it'
p7723
aS'said'
p7724
aS'take'
p7725
aS'one'
p7726
aS'or'
p7727
aS'whatever'
p7728
aaa(lp7729
g7642
a(lp7730
S'And'
p7731
aS'um'
p7732
aaa(lp7733
g7642
a(lp7734
S'right'
p7735
aS'by'
p7736
aS'the'
p7737
aS'thing'
p7738
aaa(lp7739
g7642
a(lp7740
S'And'
p7741
aS'shed'
p7742
aS'wear'
p7743
aS'her'
p7744
aS'little'
p7745
aS'pray'
p7746
aS'pin'
p7747
aS'and'
p7748
aaa(lp7749
g7642
a(lp7750
S'and'
p7751
aS'then'
p7752
aS'she'
p7753
aS'put'
p7754
aaa(lp7755
g7642
a(lp7756
S'you'
p7757
aS'know'
p7758
aaa(lp7759
g7642
a(lp7760
S'happy'
p7761
aS'birthday'
p7762
aS'Christmas'
p7763
aS'on'
p7764
aS'the'
p7765
aS'window'
p7766
aaa(lp7767
g7642
a(lp7768
g43
aS'mean'
p7769
aS'happy'
p7770
aS'birthday'
p7771
aS'Christmas'
p7772
aaa(lp7773
S'MARIEXXXX'
p7774
a(lp7775
aa(lp7776
S'LISA'
p7777
a(lp7778
S'happy'
p7779
aS'birthday'
p7780
aS'Jesus'
p7781
aaa(lp7782
S'KEVIN'
p7783
a(lp7784
aa(lp7785
S'MARIEJesus'
p7786
a(lp7787
aa(lp7788
S'LISAXX'
p7789
a(lp7790
S'XX'
p7791
aS'XX'
p7792
aaa(lp7793
S'MARIEshe'
p7794
a(lp7795
S'still'
p7796
aS'did'
p7797
aaa(lp7798
S'LISAI'
p7799
a(lp7800
S'know'
p7801
aaa(lp7802
g7799
a(lp7803
S'its'
p7804
aS'on'
p7805
aS'this'
p7806
aS'year'
p7807
aS'too'
p7808
ag43
aS'saw'
p7809
aaa(lp7810
g7799
a(lp7811
S'But'
p7812
aS'and'
p7813
ag43
aS'got'
p7814
aaa(lp7815
g7799
a(lp7816
S'You'
p7817
aS'know'
p7818
aS'some'
p7819
aS'customers'
p7820
aS'who'
p7821
aaa(lp7822
g7799
a(lp7823
S'its'
p7824
aS'not'
p7825
aS'that'
p7826
aS'they'
p7827
aS'werent'
p7828
aS'Christian'
p7829
aS'at'
p7830
aS'all'
p7831
aaa(lp7832
g7799
a(lp7833
S'You'
p7834
aS'know'
p7835
aaa(lp7836
g7799
a(lp7837
S'it'
p7838
aS'was'
p7839
aS'just'
p7840
aaa(lp7841
g7799
a(lp7842
S'it'
p7843
aS'annoyed'
p7844
aS'them'
p7845
aaa(lp7846
S'KEVIN'
p7847
a(lp7848
S'Well'
p7849
aS'you'
p7850
aS'told'
p7851
aS'me'
p7852
aS'they'
p7853
aS'were'
p7854
aS'gonna'
p7855
ag2927
aaa(lp7856
g7847
a(lp7857
S'they'
p7858
aS'were'
p7859
aS'gonna'
p7860
aaa(lp7861
g7847
a(lp7862
S'turn'
p7863
aS'it'
p7864
aS'into'
p7865
aaa(lp7866
g7847
a(lp7867
S'they'
p7868
aS'were'
p7869
aS'gonna'
p7870
aS'have'
p7871
ag122
aS'religious'
p7872
aS'card'
p7873
aS'section'
p7874
aS'or'
p7875
aS'XX'
p7876
aaa(lp7877
S'LISAThey'
p7878
a(lp7879
S'were'
p7880
aS'going'
p7881
aS'to'
p7882
aaa(lp7883
S'MARIEYeah'
p7884
a(lp7885
aa(lp7886
g7884
a(lp7887
S'They'
p7888
aS'were'
p7889
aaa(lp7890
S'KEVIN'
p7891
a(lp7892
S'That'
p7893
aS'wouldve'
p7894
aS'been'
p7895
aS'wild'
p7896
aaa(lp7897
g7891
a(lp7898
S'That'
p7899
aS'wouldve'
p7900
aS'been'
p7901
aaa(lp7902
g7891
a(lp7903
S'You'
p7904
aS'know'
p7905
aS'youre'
p7906
aaa(lp7907
S'LISAVOX'
p7908
a(lp7909
S'Dry'
p7910
aS'cleaner'
p7911
aS'slash'
p7912
aS'religious'
p7913
aS'card'
p7914
aS'dealer'
p7915
aS'VOX'
p7916
aaa(lp7917
S'KEVIN'
p7918
a(lp7919
S'That'
p7920
aS'was'
p7921
aaa(lp7922
S'MARIE'
p7923
a(lp7924
aa(lp7925
g7923
a(lp7926
S'Yeah'
p7927
aaa(lp7928
S'LISA'
p7929
a(lp7930
aa(lp7931
S'MARIEhe'
p7932
a(lp7933
aa(lp7934
S'KEVINThat'
p7935
a(lp7936
S'wouldve'
p7937
aS'been'
p7938
aS'so'
p7939
aS'strange'
p7940
aaa(lp7941
S'LISA'
p7942
a(lp7943
g43
aS'thought'
p7944
aS'everyone'
p7945
aS'would'
p7946
aS'be'
p7947
aS'like'
p7948
aaa(lp7949
S'KEVIN'
p7950
a(lp7951
S'Well'
p7952
aS'the'
p7953
aaa(lp7954
g7950
a(lp7955
S'And'
p7956
aS'then'
p7957
aS'you'
p7958
aS'could'
p7959
aS'add'
p7960
ag122
aS'drivethrough'
p7961
aaa(lp7962
g7950
a(lp7963
S'you'
p7964
aS'know'
p7965
aS'lets'
p7966
aS'say'
p7967
ag43
aS'need'
p7968
aaa(lp7969
g7950
a(lp7970
S'you'
p7971
aS'know'
p7972
aaa(lp7973
g7950
a(lp7974
S'give'
p7975
aS'me'
p7976
aS'my'
p7977
aS'clothes'
p7978
aS'and'
p7979
aaa(lp7980
g7950
a(lp7981
S'you'
p7982
aS'know'
p7983
aaa(lp7984
S'MARIE'
p7985
a(lp7986
S'Pick'
p7987
aS'up'
p7988
ag122
aS'card'
p7989
aS'on'
p7990
aS'the'
p7991
aS'way'
p7992
aaa(lp7993
S'KEVINTwo'
p7994
a(lp7995
S'baptism'
p7996
aS'cards'
p7997
aS'XX'
p7998
aaa(lp7999
S'MARIEYou'
p8000
a(lp8001
S'know'
p8002
aaa(lp8003
S'LISAAnd'
p8004
a(lp8005
g122
aS'birthday'
p8006
aS'card'
p8007
aS'for'
p8008
aaa(lp8009
S'KEVIN'
p8010
a(lp8011
aa(lp8012
S'LISANo'
p8013
a(lp8014
S'they'
p8015
aS'wouldnt'
p8016
aS'have'
p8017
ag122
aS'baptism'
p8018
aS'card'
p8019
aS'Kevin'
p8020
aaa(lp8021
S'KEVINNo'
p8022
a(lp8023
g43
aS'know'
p8024
aaa(lp8025
g8022
a(lp8026
S'Ive'
p8027
aS'been'
p8028
aS'trying'
p8029
aS'to'
p8030
aS'think'
p8031
aS'what'
p8032
aS'would'
p8033
aS'they'
p8034
aS'have'
p8035
aaa(lp8036
S'LISA'
p8037
a(lp8038
S'Thats'
p8039
aS'like'
p8040
aS'pagan'
p8041
aS'or'
p8042
aaa(lp8043
S'KEVINVOX'
p8044
a(lp8045
S'Jesus'
p8046
aS'loves'
p8047
aS'you'
p8048
aS'VOX'
p8049
aaa(lp8050
S'LISA'
p8051
a(lp8052
aa(lp8053
S'KEVINVOX'
p8054
a(lp8055
S'Smile'
p8056
aaa(lp8057
g8054
a(lp8058
S'Jesus'
p8059
aS'loves'
p8060
aS'you'
p8061
aS'VOX'
p8062
aaa(lp8063
S'MARIE'
p8064
a(lp8065
S'But'
p8066
aS'they'
p8067
aS'have'
p8068
ag122
aS'bunch'
p8069
aS'of'
p8070
aS'um'
p8071
aaa(lp8072
S'LISAHit'
p8073
a(lp8074
S'the'
p8075
aaa(lp8076
g8073
a(lp8077
S'Hit'
p8078
aS'it'
p8079
aS'with'
p8080
aS'him'
p8081
aaa(lp8082
S'MARIE'
p8083
a(lp8084
S'But'
p8085
aS'um'
p8086
aaa(lp8087
S'LISAOh'
p8088
a(lp8089
S'Kevin'
p8090
aaa(lp8091
g8088
a(lp8092
S'no'
p8093
aS'no'
p8094
aS'no'
p8095
aaa(lp8096
S'MARIE'
p8097
a(lp8098
S'You'
p8099
aS'have'
p8100
aS'to'
p8101
aS'go'
p8102
aS'like'
p8103
aS'this'
p8104
aaa(lp8105
S'ENV'
p8106
a(lp8107
aa(lp8108
S'MARIEYeah'
p8109
a(lp8110
aa(lp8111
S'KEVIN'
p8112
a(lp8113
aa(lp8114
S'LISA'
p8115
a(lp8116
S'He'
p8117
aS'just'
p8118
aS'thinks'
p8119
aS'were'
p8120
aS'weird'
p8121
aaa(lp8122
S'MARIE'
p8123
a(lp8124
aa(lp8125
S'LISA'
p8126
a(lp8127
aa(lp8128
S'MARIE'
p8129
a(lp8130
aa(lp8131
S'LISA'
p8132
a(lp8133
S'Kevin'
p8134
aaa(lp8135
g8132
a(lp8136
S'its'
p8137
aS'not'
p8138
aS'an'
p8139
aS'instrument'
p8140
aaa(lp8141
g8132
a(lp8142
S'Dont'
p8143
aaa(lp8144
S'MARIE'
p8145
a(lp8146
S'No'
p8147
aS'uh'
p8148
aaa(lp8149
g8145
a(lp8150
S'hes'
p8151
aS'uh'
p8152
aS'li'
p8153
aaa(lp8154
S'LISAWhats'
p8155
a(lp8156
S'wrong'
p8157
aaa(lp8158
S'KEVINHe'
p8159
a(lp8160
S'sick'
p8161
aS'of'
p8162
aS'that'
p8163
aaa(lp8164
S'LISA'
p8165
a(lp8166
S'Whos'
p8167
aS'this'
p8168
aS'weird'
p8169
aS'person'
p8170
aS'in'
p8171
aS'my'
p8172
aS'house'
p8173
aaa(lp8174
S'MARIEBut'
p8175
a(lp8176
S'anyways'
p8177
aaa(lp8178
g8175
a(lp8179
g43
aS'was'
p8180
aS'talking'
p8181
aS'about'
p8182
aS'his'
p8183
aS'drug'
p8184
aS'problem'
p8185
aaa(lp8186
g8175
a(lp8187
S'Right'
p8188
aaa(lp8189
S'LISAOh'
p8190
a(lp8191
S'Im'
p8192
aS'sorry'
p8193
aaa(lp8194
S'KEVIN'
p8195
a(lp8196
aa(lp8197
S'MARIEX'
p8198
a(lp8199
S'Its'
p8200
aS'how'
p8201
ag9
aS'hes'
p8202
aS'so'
p8203
aS'judgmental'
p8204
aaa(lp8205
S'LISAA'
p8206
a(lp8207
S'long'
p8208
aS'ti'
p8209
aaa(lp8210
S'MARIE'
p8211
a(lp8212
aa(lp8213
S'LISAUh'
p8214
a(lp8215
S'Marie'
p8216
aaa(lp8217
S'MARIEUh'
p8218
a(lp8219
S'excuse'
p8220
aS'me'
p8221
aaa(lp8222
g8218
a(lp8223
S'dont'
p8224
aaa(lp8225
S'LISAXX'
p8226
a(lp8227
aa(lp8228
S'MARIEThats'
p8229
a(lp8230
S'my'
p8231
aS'couch'
p8232
aaa(lp8233
S'KEVIN'
p8234
a(lp8235
aa(lp8236
S'MARIE'
p8237
a(lp8238
aa(lp8239
S'LISA'
p8240
a(lp8241
aa(lp8242
S'MARIE'
p8243
a(lp8244
S'Um'
p8245
aaa(lp8246
S'LISA'
p8247
a(lp8248
aa(lp8249
S'KEVINX'
p8250
a(lp8251
S'Oh'
p8252
aS'my'
p8253
ag9
aS'dad'
p8254
aS'doesnt'
p8255
aS'live'
p8256
aS'here'
p8257
aaa(lp8258
S'LISAIts'
p8259
a(lp8260
S'your'
p8261
aS'chair'
p8262
aaa(lp8263
S'MARIE'
p8264
a(lp8265
S'But'
p8266
aS'um'
p8267
aaa(lp8268
S'LISAShut'
p8269
a(lp8270
S'up'
p8271
aaa(lp8272
S'KEVIN'
p8273
a(lp8274
aa(lp8275
S'MARIE'
p8276
a(lp8277
aa(lp8278
S'ENV'
p8279
a(lp8280
aa(lp8281
S'MARIE'
p8282
a(lp8283
aa(lp8284
S'LISA'
p8285
a(lp8286
S'See'
p8287
ag43
aS'told'
p8288
aS'you'
p8289
aaa(lp8290
S'KEVINVOX'
p8291
a(lp8292
S'Oh'
p8293
aS'VOX'
p8294
aaa(lp8295
S'MARIE'
p8296
a(lp8297
S'But'
p8298
aS'he'
p8299
aS'um'
p8300
aaa(lp8301
g8296
a(lp8302
S'he'
p8303
aS'was'
p8304
aS'like'
p8305
aS'really'
p8306
aS'judgmental'
p8307
aS'and'
p8308
aaa(lp8309
g8296
a(lp8310
S'And'
p8311
aS'we'
p8312
aS'were'
p8313
aS'sitting'
p8314
aS'there'
p8315
aaa(lp8316
S'LISANanananana'
p8317
a(lp8318
aa(lp8319
S'MARIEand'
p8320
a(lp8321
S'he'
p8322
aS'had'
p8323
aS'said'
p8324
aS'something'
p8325
aS'about'
p8326
aaa(lp8327
g8320
a(lp8328
S'something'
p8329
aS'that'
p8330
aS'had'
p8331
aS'to'
p8332
aS'do'
p8333
aS'with'
p8334
aS'the'
p8335
aS'bar'
p8336
aS'next'
p8337
aS'door'
p8338
aS'to'
p8339
aS'number'
p8340
aS'ten'
p8341
aaa(lp8342
S'LISAVOX'
p8343
a(lp8344
S'Boo'
p8345
aS'VOX'
p8346
aaa(lp8347
S'MARIEyou'
p8348
a(lp8349
S'know'
p8350
aaa(lp8351
g8348
a(lp8352
S'people'
p8353
aS'who'
p8354
aS'drink'
p8355
aaa(lp8356
g8348
a(lp8357
S'At'
p8358
aS'one'
p8359
aS'time'
p8360
aS'or'
p8361
aS'another'
p8362
aaa(lp8363
g8348
a(lp8364
S'And'
p8365
ag43
aS'couldnt'
p8366
aS'remember'
p8367
aaa(lp8368
g8348
a(lp8369
S'and'
p8370
aS'so'
p8371
aS'that'
p8372
aS'day'
p8373
aS'me'
p8374
aS'and'
p8375
aS'Cassie'
p8376
aS'were'
p8377
aS'talking'
p8378
aaa(lp8379
g8348
a(lp8380
S'and'
p8381
ag43
aaa(lp8382
g8348
a(lp8383
S'and'
p8384
aS'she'
p8385
aS'like'
p8386
aaa(lp8387
g8348
a(lp8388
S'was'
p8389
aS'like'
p8390
aaa(lp8391
g8348
a(lp8392
S'she'
p8393
aS'was'
p8394
aS'like'
p8395
ag122
aS'little'
p8396
aS'runaround'
p8397
aaa(lp8398
g8348
a(lp8399
S'You'
p8400
aS'know'
p8401
aaa(lp8402
g8348
a(lp8403
S'she'
p8404
aS'used'
p8405
aS'to'
p8406
aS'like'
p8407
aaa(lp8408
S'LISA'
p8409
a(lp8410
S'Was'
p8411
aS'or'
p8412
aS'is'
p8413
aaa(lp8414
S'MARIESh'
p8415
a(lp8416
S'sh'
p8417
aS'she'
p8418
aS'was'
p8419
aaa(lp8420
g8415
a(lp8421
S'Like'
p8422
aS'big'
p8423
aS'time'
p8424
aaa(lp8425
g8415
a(lp8426
S'she'
p8427
aS'used'
p8428
aS'to'
p8429
aS'like'
p8430
aS'go'
p8431
aaa(lp8432
g8415
a(lp8433
S'and'
p8434
aS'just'
p8435
aaa(lp8436
g8415
a(lp8437
S'Like'
p8438
aS'go'
p8439
aS'to'
p8440
aS'Utah'
p8441
aaa(lp8442
g8415
a(lp8443
S'with'
p8444
ag122
aS'bunch'
p8445
aS'of'
p8446
aS'guys'
p8447
aS'and'
p8448
aS'girls'
p8449
aaa(lp8450
S'KEVIN'
p8451
a(lp8452
aa(lp8453
S'MARIEyou'
p8454
a(lp8455
S'know'
p8456
aaa(lp8457
g8454
a(lp8458
S'skip'
p8459
aS'school'
p8460
aS'and'
p8461
aaa(lp8462
g8454
a(lp8463
g43
aS'mean'
p8464
aS'just'
p8465
aaa(lp8466
g8454
a(lp8467
S'you'
p8468
aS'know'
p8469
aaa(lp8470
S'KEVINHow'
p8471
a(lp8472
S'old'
p8473
aS'was'
p8474
aS'she'
p8475
aaa(lp8476
S'MARIE'
p8477
a(lp8478
S'like'
p8479
aaa(lp8480
g8477
a(lp8481
S'be'
p8482
ag122
aS'hippie'
p8483
aS'kind'
p8484
aS'of'
p8485
aS'thing'
p8486
aaa(lp8487
S'LISARight'
p8488
a(lp8489
S'now'
p8490
aS'shes'
p8491
aS'like'
p8492
aS'nineteen'
p8493
aS'or'
p8494
aS'eighteen'
p8495
aaa(lp8496
S'KEVIN'
p8497
a(lp8498
aa(lp8499
S'MARIEShes'
p8500
a(lp8501
S'seventeen'
p8502
aaa(lp8503
S'LISAStill'
p8504
a(lp8505
aa(lp8506
S'MARIE'
p8507
a(lp8508
S'Shes'
p8509
aS'seven'
p8510
aaa(lp8511
g8507
a(lp8512
S'She'
p8513
aS'just'
p8514
aS'turned'
p8515
aS'seventeen'
p8516
aS'in'
p8517
aS'September'
p8518
aaa(lp8519
S'KEVINI'
p8520
a(lp8521
S'assume'
p8522
aS'shes'
p8523
aS'dropped'
p8524
aS'out'
p8525
aS'of'
p8526
aS'school'
p8527
aaa(lp8528
S'MARIEYeah'
p8529
a(lp8530
aa(lp8531
g8529
a(lp8532
S'she'
p8533
aS'has'
p8534
aaa(lp8535
S'LISAI'
p8536
a(lp8537
S'didnt'
p8538
aS'know'
p8539
aS'she'
p8540
aS'was'
p8541
aS'that'
p8542
aS'young'
p8543
aaa(lp8544
g8536
a(lp8545
g9
aaa(lp8546
S'MARIE'
p8547
a(lp8548
S'And'
p8549
aaa(lp8550
g8547
a(lp8551
S'um'
p8552
aaa(lp8553
g8547
a(lp8554
S'she'
p8555
aS'like'
p8556
aaa(lp8557
g8547
a(lp8558
g3142
ag3142
aS'was'
p8559
aS'in'
p8560
ag122
aaa(lp8561
S'LISASo'
p8562
a(lp8563
S'she'
p8564
aS'must'
p8565
aS'have'
p8566
aS'been'
p8567
aS'going'
p8568
aS'to'
p8569
aS'Utah'
p8570
aS'when'
p8571
aS'she'
p8572
aS'was'
p8573
aS'like'
p8574
aS'fifteen'
p8575
aaa(lp8576
g8562
a(lp8577
S'or'
p8578
aS'something'
p8579
aaa(lp8580
S'MARIEYeah'
p8581
a(lp8582
aa(lp8583
S'KEVIN'
p8584
a(lp8585
aa(lp8586
S'MARIECause'
p8587
a(lp8588
S'she'
p8589
aS'was'
p8590
aS'doing'
p8591
aS'all'
p8592
aS'kinds'
p8593
aS'of'
p8594
aS'like'
p8595
aaa(lp8596
S'KEVINThats'
p8597
a(lp8598
S'scary'
p8599
aaa(lp8600
S'LISAOh'
p8601
a(lp8602
S'my'
p8603
aS'God'
p8604
aaa(lp8605
S'KEVINI'
p8606
a(lp8607
S'assume'
p8608
aS'her'
p8609
aS'parents'
p8610
aS'really'
p8611
aS'appreciated'
p8612
aS'that'
p8613
aaa(lp8614
S'MARIEAnd'
p8615
a(lp8616
aa(lp8617
g8615
a(lp8618
S'Well'
p8619
aaa(lp8620
g8615
a(lp8621
S'they'
p8622
aS'were'
p8623
aS'like'
p8624
aaa(lp8625
g8615
a(lp8626
S'her'
p8627
aS'paren'
p8628
aaa(lp8629
g8615
a(lp8630
S'Her'
p8631
aS'moms'
p8632
aS'like'
p8633
aS'an'
p8634
aS'alcoholic'
p8635
aaa(lp8636
g8615
a(lp8637
S'and'
p8638
aS'stuff'
p8639
aS'like'
p8640
aS'that'
p8641
aaa(lp8642
g8615
a(lp8643
S'and'
p8644
aS'her'
p8645
aS'dads'
p8646
aS'like'
p8647
ag122
aS'VOX'
p8648
aS'biker'
p8649
aS'VOX'
p8650
aS'now'
p8651
aaa(lp8652
g8615
a(lp8653
S'and'
p8654
aS'Im'
p8655
aS'like'
p8656
aaa(lp8657
g8615
a(lp8658
S'God'
p8659
aaa(lp8660
g8615
a(lp8661
S'you'
p8662
aS'know'
p8663
aaa(lp8664
S'KEVINOh'
p8665
a(lp8666
aa(lp8667
S'MARIEbut'
p8668
a(lp8669
S'theyre'
p8670
aS'not'
p8671
aS'married'
p8672
aS'anymore'
p8673
aaa(lp8674
g8668
a(lp8675
S'but'
p8676
aS'still'
p8677
aaa(lp8678
g8668
a(lp8679
S'Well'
p8680
aS'we'
p8681
aS'were'
p8682
aS'sitting'
p8683
aS'there'
p8684
aS'talking'
p8685
aaa(lp8686
g8668
a(lp8687
S'and'
p8688
aS'shes'
p8689
aS'been'
p8690
aS'in'
p8691
ag122
aS'center'
p8692
aS'for'
p8693
aS'like'
p8694
aS'rehabilitation'
p8695
aS'and'
p8696
aS'stuff'
p8697
aaa(lp8698
g8668
a(lp8699
S'for'
p8700
aS'drugs'
p8701
aS'and'
p8702
aS'stuff'
p8703
aaa(lp8704
g8668
a(lp8705
S'and'
p8706
aS'we'
p8707
aS'were'
p8708
aS'talking'
p8709
aaa(lp8710
g8668
a(lp8711
S'and'
p8712
ag43
aaa(lp8713
g8668
a(lp8714
S'and'
p8715
ag43
aS'told'
p8716
aS'her'
p8717
aaa(lp8718
g8668
a(lp8719
S'do'
p8720
aS'you'
p8721
aS'get'
p8722
aS'offended'
p8723
aaa(lp8724
g8668
a(lp8725
g43
aS'go'
p8726
aaa(lp8727
g8668
a(lp8728
S'do'
p8729
aS'you'
p8730
aS'think'
p8731
aS'that'
p8732
aS'it'
p8733
aaa(lp8734
g8668
a(lp8735
S'you'
p8736
aS'know'
p8737
ag43
aS'told'
p8738
aS'her'
p8739
aaa(lp8740
g8668
a(lp8741
S'do'
p8742
aS'you'
p8743
aS'think'
p8744
aS'its'
p8745
aS'fair'
p8746
aaa(lp8747
g8668
a(lp8748
S'that'
p8749
aS'when'
p8750
aS'people'
p8751
aS'say'
p8752
aaa(lp8753
g8668
a(lp8754
g4544
aS'you'
p8755
aS'know'
p8756
aS'that'
p8757
aaa(lp8758
g8668
a(lp8759
S'even'
p8760
aaa(lp8761
g8668
a(lp8762
g4544
ag4544
aS'like'
p8763
aaa(lp8764
g8668
a(lp8765
S'you'
p8766
aS'were'
p8767
aS'an'
p8768
aS'alcoholic'
p8769
aaa(lp8770
g8668
a(lp8771
S'They'
p8772
aS'never'
p8773
aS'say'
p8774
aS'you'
p8775
aS'were'
p8776
aaa(lp8777
g8668
a(lp8778
S'Youre'
p8779
aS'always'
p8780
aS'an'
p8781
aS'alcoholic'
p8782
aaa(lp8783
g8668
a(lp8784
S'Youre'
p8785
aS'just'
p8786
ag122
aS'recovered'
p8787
aS'alcoholic'
p8788
aaa(lp8789
g8668
a(lp8790
S'Do'
p8791
aS'you'
p8792
aS'know'
p8793
aS'what'
p8794
ag43
aS'mean'
p8795
aaa(lp8796
g8668
a(lp8797
g122
aS'recovered'
p8798
aS'alcoholic'
p8799
aaa(lp8800
S'LISAMhm'
p8801
a(lp8802
aa(lp8803
S'MARIE'
p8804
a(lp8805
S'But'
p8806
aS'when'
p8807
aaa(lp8808
g8804
a(lp8809
S'when'
p8810
aS'youre'
p8811
ag122
aS'drug'
p8812
aS'addict'
p8813
aaa(lp8814
g8804
a(lp8815
S'and'
p8816
aS'you'
p8817
aS'dont'
p8818
aS'do'
p8819
aS'it'
p8820
aS'anymore'
p8821
aS'they'
p8822
aS'say'
p8823
aaa(lp8824
g8804
a(lp8825
S'oh'
p8826
aaa(lp8827
g8804
a(lp8828
S'youve'
p8829
aS'come'
p8830
aS'clean'
p8831
aaa(lp8832
g8804
a(lp8833
S'Do'
p8834
aS'you'
p8835
aS'know'
p8836
aS'what'
p8837
ag43
aS'mean'
p8838
aaa(lp8839
g8804
a(lp8840
g43
aS'go'
p8841
aaa(lp8842
g8804
a(lp8843
S'that'
p8844
aS'really'
p8845
aS'bugs'
p8846
aS'me'
p8847
aS'and'
p8848
aS'and'
p8849
aaa(lp8850
g8804
a(lp8851
S'and'
p8852
aS'Kent'
p8853
aS'was'
p8854
aS'in'
p8855
aS'the'
p8856
aS'back'
p8857
aaa(lp8858
g8804
a(lp8859
g43
aS'was'
p8860
aS'all'
p8861
aaa(lp8862
g8804
a(lp8863
g43
aS'think'
p8864
ag122
aS'person'
p8865
aS'who'
p8866
aS'was'
p8867
ag122
aS'drug'
p8868
aS'addict'
p8869
aaa(lp8870
g8804
a(lp8871
S'once'
p8872
aS'was'
p8873
ag122
aS'drug'
p8874
aS'addict'
p8875
aaa(lp8876
g8804
a(lp8877
S'Always'
p8878
aS'is'
p8879
ag122
aS'drug'
p8880
aS'addict'
p8881
aaa(lp8882
g8804
a(lp8883
g43
aS'said'
p8884
aaa(lp8885
g8804
a(lp8886
S'theyre'
p8887
aS'just'
p8888
ag122
aS'recovered'
p8889
aS'drug'
p8890
aS'addict'
p8891
aaa(lp8892
g8804
a(lp8893
S'And'
p8894
ag43
aS'was'
p8895
aS'saying'
p8896
aS'it'
p8897
aS'like'
p8898
aS'really'
p8899
aS'loud'
p8900
aaa(lp8901
S'LISALike'
p8902
a(lp8903
S'on'
p8904
aS'purpose'
p8905
aS'though'
p8906
aaa(lp8907
S'MARIE'
p8908
a(lp8909
S'Yes'
p8910
aaa(lp8911
g8908
a(lp8912
S'so'
p8913
aS'that'
p8914
aS'he'
p8915
aS'would'
p8916
aS'hear'
p8917
aS'me'
p8918
aaa(lp8919
S'LISA'
p8920
a(lp8921
S'Oh'
p8922
aaa(lp8923
S'MARIEAnd'
p8924
a(lp8925
g43
aS'was'
p8926
aS'all'
p8927
aaa(lp8928
g8924
a(lp8929
S'because'
p8930
aS'thats'
p8931
aS'not'
p8932
aaa(lp8933
g8924
a(lp8934
S'thats'
p8935
aS'not'
p8936
aS'fair'
p8937
ag43
aS'mean'
p8938
aaa(lp8939
g8924
a(lp8940
S'alcohol'
p8941
aS'is'
p8942
aS'just'
p8943
aaa(lp8944
g8924
a(lp8945
S'is'
p8946
ag122
aS'drug'
p8947
aS'too'
p8948
aaa(lp8949
g8924
a(lp8950
S'and'
p8951
ag43
aS'was'
p8952
aS'just'
p8953
aS'going'
p8954
aS'off'
p8955
aaa(lp8956
g8924
a(lp8957
S'and'
p8958
aS'stuff'
p8959
aS'like'
p8960
aS'that'
p8961
aaa(lp8962
S'KEVIN'
p8963
a(lp8964
aa(lp8965
S'MARIEand'
p8966
a(lp8967
S'she'
p8968
aS'was'
p8969
aaa(lp8970
g8966
a(lp8971
S'like'
p8972
aS'agreeing'
p8973
aS'with'
p8974
aS'me'
p8975
aS'and'
p8976
aaa(lp8977
g8966
a(lp8978
S'and'
p8979
aaa(lp8980
g8966
a(lp8981
S'and'
p8982
aS'then'
p8983
aaa(lp8984
g8966
a(lp8985
g43
aS'was'
p8986
aS'all'
p8987
aaa(lp8988
g8966
a(lp8989
S'just'
p8990
aS'being'
p8991
aS'real'
p8992
aS'like'
p8993
aS'ju'
p8994
aaa(lp8995
S'KEVINVOXL'
p8996
a(lp8997
S'Que'
p8998
aS'hace'
p8999
aS'LVOX'
p9000
aaa(lp9001
S'LISAIs'
p9002
a(lp9003
S'he'
p9004
aS'kicking'
p9005
aS'the'
p9006
aS'presents'
p9007
aaa(lp9008
S'MARIENo'
p9009
a(lp9010
S'Issac'
p9011
aaa(lp9012
S'KEVINHes'
p9013
a(lp9014
S'stepping'
p9015
aS'on'
p9016
aS'em'
p9017
aaa(lp9018
S'MARIE'
p9019
a(lp9020
S'No'
p9021
aaa(lp9022
g9019
a(lp9023
S'You'
p9024
aS'dont'
p9025
aS'do'
p9026
aS'that'
p9027
aaa(lp9028
S'KEVINX'
p9029
a(lp9030
S'That'
p9031
aS'mustve'
p9032
aS'been'
p9033
ag122
aS'XX'
p9034
ag9
aaa(lp9035
g9029
a(lp9036
S'XX'
p9037
ag9
aaa(lp9038
S'MARIE'
p9039
a(lp9040
aa(lp9041
S'LISA'
p9042
a(lp9043
S'Its'
p9044
aS'already'
p9045
aaa(lp9046
g9042
a(lp9047
S'its'
p9048
aS'like'
p9049
aS'coming'
p9050
aS'un'
p9051
aS'wrapped'
p9052
aaa(lp9053
g9042
a(lp9054
S'Isnt'
p9055
aS'it'
p9056
aaa(lp9057
S'MARIE'
p9058
a(lp9059
S'Why'
p9060
aS'dont'
p9061
aS'you'
p9062
aS'sit'
p9063
aS'there'
p9064
aaa(lp9065
S'BABY'
p9066
a(lp9067
aa(lp9068
S'KEVIN'
p9069
a(lp9070
aa(lp9071
S'LISAWe'
p9072
a(lp9073
S'disagree'
p9074
aaa(lp9075
g9072
a(lp9076
S'Oh'
p9077
aS'brother'
p9078
aaa(lp9079
S'MARIE'
p9080
a(lp9081
aa(lp9082
S'KEVIN'
p9083
a(lp9084
aa(lp9085
S'LISA'
p9086
a(lp9087
aa(lp9088
S'MARIEBut'
p9089
a(lp9090
g4544
aaa(lp9091
S'LISA'
p9092
a(lp9093
aa(lp9094
S'MARIEI'
p9095
a(lp9096
S'was'
p9097
aS'just'
p9098
aS'saying'
p9099
aS'like'
p9100
aaa(lp9101
S'KEVIN'
p9102
a(lp9103
aa(lp9104
S'MARIEReally'
p9105
a(lp9106
S'judgmental'
p9107
aaa(lp9108
S'KEVIN'
p9109
a(lp9110
aa(lp9111
S'MARIEDo'
p9112
a(lp9113
S'you'
p9114
aS'know'
p9115
aS'what'
p9116
ag43
aS'mean'
p9117
aaa(lp9118
S'KEVIN'
p9119
a(lp9120
aa(lp9121
S'MARIE'
p9122
a(lp9123
S'Just'
p9124
aS'like'
p9125
aaa(lp9126
S'LISAVOX'
p9127
a(lp9128
S'VOX'
p9129
aaa(lp9130
S'MARIEnot'
p9131
a(lp9132
g5935
aaa(lp9133
g9131
a(lp9134
S'Like'
p9135
aaa(lp9136
g9131
a(lp9137
g43
aS'didnt'
p9138
aS'mean'
p9139
aS'like'
p9140
aS'half'
p9141
aS'the'
p9142
aS'things'
p9143
ag43
aS'said'
p9144
aaa(lp9145
g9131
a(lp9146
S'just'
p9147
aaa(lp9148
g9131
a(lp9149
S'just'
p9150
aS'to'
p9151
aS'like'
p9152
aS'show'
p9153
aS'him'
p9154
aaa(lp9155
g9131
a(lp9156
S'Do'
p9157
aS'you'
p9158
aS'know'
p9159
aS'what'
p9160
ag43
aS'mean'
p9161
aaa(lp9162
g9131
a(lp9163
S'Like'
p9164
ag43
aS'go'
p9165
aaa(lp9166
g9131
a(lp9167
S'God'
p9168
ag43
aS'go'
p9169
aaa(lp9170
g9131
a(lp9171
g43
aS'honestly'
p9172
aS'dont'
p9173
aS'see'
p9174
aS'how'
p9175
aS'somebody'
p9176
aS'could'
p9177
aS'just'
p9178
aS'snort'
p9179
aS'something'
p9180
aS'up'
p9181
aS'their'
p9182
aS'nose'
p9183
aaa(lp9184
g9131
a(lp9185
g43
aS'mean'
p9186
aS'what'
p9187
aS'kind'
p9188
aS'of'
p9189
aS'satisfaction'
p9190
aS'do'
p9191
aS'you'
p9192
aS'get'
p9193
aS'out'
p9194
aS'of'
p9195
aS'that'
p9196
aaa(lp9197
S'KEVIN'
p9198
a(lp9199
aa(lp9200
S'LISA'
p9201
a(lp9202
aa(lp9203
S'MARIEYou'
p9204
a(lp9205
S'know'
p9206
aaa(lp9207
g9204
a(lp9208
S'And'
p9209
ag43
aS'was'
p9210
aS'just'
p9211
aS'all'
p9212
aaa(lp9213
S'KEVIN'
p9214
a(lp9215
aa(lp9216
S'MARIEand'
p9217
a(lp9218
g43
aS'was'
p9219
aS'just'
p9220
aS'like'
p9221
aaa(lp9222
g9217
a(lp9223
S'going'
p9224
aS'on'
p9225
aS'and'
p9226
aaa(lp9227
g9217
a(lp9228
S'and'
p9229
aS'saying'
p9230
aS'stuff'
p9231
aS'like'
p9232
aS'that'
p9233
aaa(lp9234
g9217
a(lp9235
S'And'
p9236
aS'and'
p9237
aaa(lp9238
g9217
a(lp9239
S'an'
p9240
aS'and'
p9241
aS'not'
p9242
aS'that'
p9243
ag43
aS'dont'
p9244
aaa(lp9245
S'LISAWhat'
p9246
a(lp9247
S'did'
p9248
aS'she'
p9249
aS'do'
p9250
aaa(lp9251
g9246
a(lp9252
g43
aS'mean'
p9253
aS'that'
p9254
aS'she'
p9255
aS'was'
p9256
ag122
aaa(lp9257
S'MARIEShe'
p9258
a(lp9259
S'was'
p9260
aS'just'
p9261
aS'like'
p9262
aaa(lp9263
g9258
a(lp9264
g43
aS'know'
p9265
aaa(lp9266
g9258
a(lp9267
S'Isnt'
p9268
aS'that'
p9269
aS'disgust'
p9270
aaa(lp9271
g9258
a(lp9272
S'You'
p9273
aS'know'
p9274
aaa(lp9275
S'LISAWas'
p9276
a(lp9277
S'she'
p9278
aS'alcoholic'
p9279
aaa(lp9280
g9276
a(lp9281
S'Or'
p9282
aaa(lp9283
S'MARIE'
p9284
a(lp9285
g43
aS'dont'
p9286
aS'know'
p9287
aS'really'
p9288
aS'what'
p9289
aS'she'
p9290
aS'was'
p9291
aaa(lp9292
S'BABY'
p9293
a(lp9294
aa(lp9295
S'LISAAw'
p9296
a(lp9297
aa(lp9298
S'MARIEBut'
p9299
a(lp9300
S'she'
p9301
aS'um'
p9302
aaa(lp9303
g9299
a(lp9304
S'but'
p9305
aS'it'
p9306
aS'was'
p9307
aS'just'
p9308
aS'rude'
p9309
aaa(lp9310
g9299
a(lp9311
g43
aS'was'
p9312
aS'just'
p9313
aS'being'
p9314
aS'like'
p9315
aS'really'
p9316
aS'judgmental'
p9317
aaa(lp9318
g9299
a(lp9319
S'like'
p9320
aS'on'
p9321
aS'purpose'
p9322
aaa(lp9323
g9299
a(lp9324
S'Do'
p9325
aS'you'
p9326
aS'know'
p9327
aaa(lp9328
g9299
a(lp9329
S'Cause'
p9330
ag43
aS'would'
p9331
aS'never'
p9332
aS'go'
p9333
aS'up'
p9334
aS'and'
p9335
aS'say'
p9336
aS'something'
p9337
aaa(lp9338
S'KEVIN'
p9339
a(lp9340
aa(lp9341
S'MARIEVOX'
p9342
a(lp9343
S'well'
p9344
ag43
aS'dont'
p9345
aS'see'
p9346
aS'how'
p9347
aS'you'
p9348
aS'can'
p9349
aS'sniff'
p9350
aS'that'
p9351
aS'VOX'
p9352
aaa(lp9353
S'LISAYeah'
p9354
a(lp9355
aa(lp9356
S'MARIEDo'
p9357
a(lp9358
S'you'
p9359
aS'know'
p9360
aS'what'
p9361
ag43
aS'mean'
p9362
aaa(lp9363
S'LISAYeah'
p9364
a(lp9365
aa(lp9366
S'KEVIN'
p9367
a(lp9368
aa(lp9369
S'MARIE'
p9370
a(lp9371
g43
aS'would'
p9372
aS'never'
p9373
aS'say'
p9374
aS'something'
p9375
aS'like'
p9376
aS'that'
p9377
aS'but'
p9378
aaa(lp9379
S'LISAJust'
p9380
a(lp9381
S'to'
p9382
aS'sh'
p9383
aS'kinda'
p9384
aS'show'
p9385
aS'him'
p9386
aS'how'
p9387
aS'it'
p9388
aS'is'
p9389
aaa(lp9390
g9380
a(lp9391
S'like'
p9392
aaa(lp9393
S'MARIE'
p9394
a(lp9395
S'Yeah'
p9396
aaa(lp9397
S'LISAwhat'
p9398
a(lp9399
S'it'
p9400
aS'feels'
p9401
aS'like'
p9402
aaa(lp9403
S'MARIEhow'
p9404
a(lp9405
S'judgment'
p9406
aaa(lp9407
g9404
a(lp9408
S'And'
p9409
ag43
aS'was'
p9410
aS'just'
p9411
aS'going'
p9412
aS'off'
p9413
aS'and'
p9414
aS'off'
p9415
aaa(lp9416
g9404
a(lp9417
S'and'
p9418
aS'you'
p9419
aS'could'
p9420
aS'just'
p9421
aaa(lp9422
S'KEVINDid'
p9423
a(lp9424
S'he'
p9425
aS'react'
p9426
aaa(lp9427
S'MARIE'
p9428
a(lp9429
S'He'
p9430
aS'did'
p9431
aaa(lp9432
g9428
a(lp9433
S'He'
p9434
aS'just'
p9435
aS'did'
p9436
aS'really'
p9437
aS'quiet'
p9438
aaa(lp9439
g9428
a(lp9440
S'And'
p9441
aS'then'
p9442
aS'hes'
p9443
aS'all'
p9444
aaa(lp9445
g9428
a(lp9446
S'uh'
p9447
aS'Marie'
p9448
aS'and'
p9449
aS'Cassie'
p9450
aaa(lp9451
g9428
a(lp9452
S'can'
p9453
ag43
aS'talk'
p9454
aS'to'
p9455
aS'you'
p9456
aS'for'
p9457
ag122
aS'minute'
p9458
aaa(lp9459
g9428
a(lp9460
S'And'
p9461
ag43
aS'was'
p9462
aS'all'
p9463
aaa(lp9464
g9428
a(lp9465
S'VOX'
p9466
aS'oh'
p9467
aS'my'
p9468
aS'God'
p9469
aS'hes'
p9470
aS'gonna'
p9471
aS'fire'
p9472
aS'us'
p9473
aS'VOX'
p9474
aaa(lp9475
S'KEVIN'
p9476
a(lp9477
aa(lp9478
S'LISA'
p9479
a(lp9480
aa(lp9481
S'MARIE'
p9482
a(lp9483
aa(lp9484
S'LISA'
p9485
a(lp9486
S'He'
p9487
aS'wouldnt'
p9488
aS'fire'
p9489
aS'you'
p9490
aaa(lp9491
g9485
a(lp9492
g43
aS'could'
p9493
aS'just'
p9494
aS'see'
p9495
aS'this'
p9496
aaa(lp9497
g9485
a(lp9498
g4544
aS'k'
p9499
aaa(lp9500
g9485
a(lp9501
S'Youre'
p9502
aS'going'
p9503
aS'to'
p9504
aS'unemployment'
p9505
aaa(lp9506
S'KEVINYou'
p9507
a(lp9508
S'could'
p9509
aS'sue'
p9510
aaa(lp9511
S'LISAand'
p9512
a(lp9513
S'the'
p9514
aS'reason'
p9515
aS'for'
p9516
aS'unemployment'
p9517
aaa(lp9518
g9512
a(lp9519
S'uh'
p9520
aS'well'
p9521
ag43
aS'said'
p9522
aS'something'
p9523
aS'about'
p9524
aS'drug'
p9525
aS'addiction'
p9526
aaa(lp9527
g9512
a(lp9528
S'You'
p9529
aS'know'
p9530
aS'what'
p9531
ag43
aS'mean'
p9532
aaa(lp9533
S'KEVIN'
p9534
a(lp9535
aa(lp9536
S'MARIE'
p9537
a(lp9538
aa(lp9539
S'LISA'
p9540
a(lp9541
aa(lp9542
S'MARIEBut'
p9543
a(lp9544
S'you'
p9545
aS'know'
p9546
aaa(lp9547
g9543
a(lp9548
g43
aS'was'
p9549
aS'just'
p9550
aaa(lp9551
g9543
a(lp9552
S'thought'
p9553
aS'he'
p9554
aS'was'
p9555
aaa(lp9556
S'KEVINSue'
p9557
a(lp9558
aa(lp9559
S'MARIEI'
p9560
a(lp9561
S'thought'
p9562
aS'he'
p9563
aS'was'
p9564
aS'gonna'
p9565
aS'preach'
p9566
aS'something'
p9567
aS'like'
p9568
aS'to'
p9569
aS'me'
p9570
aS'like'
p9571
aaa(lp9572
g9560
a(lp9573
S'VOX'
p9574
aS'well'
p9575
ag43
aS'was'
p9576
aS'one'
p9577
aaa(lp9578
g9560
a(lp9579
S'and'
p9580
ag43
aS'dont'
p9581
aS'consider'
p9582
aS'myself'
p9583
aS'VOX'
p9584
aaa(lp9585
g9560
a(lp9586
S'You'
p9587
aS'know'
p9588
ag43
aS'thought'
p9589
aS'he'
p9590
aS'was'
p9591
aS'gonna'
p9592
aS'bring'
p9593
aaa(lp9594
S'LISAAnd'
p9595
a(lp9596
S'he'
p9597
aS'was'
p9598
aS'gonna'
p9599
aS'tell'
p9600
aS'you'
p9601
aS'something'
p9602
aS'about'
p9603
aS'the'
p9604
aS'boiler'
p9605
aaa(lp9606
g9595
a(lp9607
S'Or'
p9608
aS'hell'
p9609
aS'XX'
p9610
ag9
aS'XX'
p9611
aaa(lp9612
S'MARIENo'
p9613
a(lp9614
aa(lp9615
g9613
a(lp9616
S'and'
p9617
aS'he'
p9618
aS'XX'
p9619
aaa(lp9620
S'KEVINHunh'
p9621
a(lp9622
aa(lp9623
S'MARIENo'
p9624
a(lp9625
aa(lp9626
g9624
a(lp9627
S'And'
p9628
aS'he'
p9629
aS'ended'
p9630
aS'up'
p9631
aS'asking'
p9632
aS'us'
p9633
aaa(lp9634
S'LISACause'
p9635
a(lp9636
S'at'
p9637
aS'the'
p9638
aS'store'
p9639
aaa(lp9640
S'MARIE'
p9641
a(lp9642
S'well'
p9643
aaa(lp9644
g9641
a(lp9645
S'what'
p9646
aaa(lp9647
g9641
a(lp9648
S'how'
p9649
aS'would'
p9650
aS'you'
p9651
ag2927
aaa(lp9652
g9641
a(lp9653
S'How'
p9654
aS'would'
p9655
aS'you'
p9656
aS'describe'
p9657
aS'Barry'
p9658
aaa(lp9659
g9641
a(lp9660
S'And'
p9661
aS'his'
p9662
aS'work'
p9663
aaa(lp9664
g9641
a(lp9665
S'And'
p9666
ag43
aS'was'
p9667
aS'like'
p9668
aaa(lp9669
g9641
a(lp9670
S'hes'
p9671
aS'all'
p9672
aaa(lp9673
g9641
a(lp9674
S'and'
p9675
aS'be'
p9676
aS'careful'
p9677
aS'when'
p9678
aS'you'
p9679
aS'answer'
p9680
aS'this'
p9681
aS'question'
p9682
aaa(lp9683
g9641
a(lp9684
S'and'
p9685
aS'Im'
p9686
aS'like'
p9687
aaa(lp9688
g9641
a(lp9689
S'so'
p9690
ag43
aS'was'
p9691
aS'all'
p9692
aaa(lp9693
g9641
a(lp9694
S'VOX'
p9695
aS'well'
p9696
ag43
aS'dont'
p9697
aS'know'
p9698
aS'VOX'
p9699
aaa(lp9700
g9641
a(lp9701
g43
aS'said'
p9702
aaa(lp9703
g9641
a(lp9704
S'because'
p9705
aS'VOX'
p9706
ag43
aS'dont'
p9707
aS'work'
p9708
aS'with'
p9709
aS'him'
p9710
aS'in'
p9711
aS'the'
p9712
aS'morning'
p9713
aS'anymore'
p9714
aS'VOX'
p9715
aaa(lp9716
S'LISA'
p9717
a(lp9718
aa(lp9719
S'MARIE'
p9720
a(lp9721
aa(lp9722
g9720
a(lp9723
g43
aS'was'
p9724
aS'all'
p9725
aaa(lp9726
g9720
a(lp9727
S'but'
p9728
aS'when'
p9729
ag43
aS'did'
p9730
aaa(lp9731
g9720
a(lp9732
S'you'
p9733
aS'know'
p9734
aaa(lp9735
g9720
a(lp9736
g43
aS'didnt'
p9737
aS'think'
p9738
aS'he'
p9739
aS'was'
p9740
ag122
aS'good'
p9741
aS'worker'
p9742
aaa(lp9743
g9720
a(lp9744
S'Hes'
p9745
aS'all'
p9746
aaa(lp9747
g9720
a(lp9748
S'VOX'
p9749
aS'very'
p9750
aS'good'
p9751
aS'answer'
p9752
aaa(lp9753
g9720
a(lp9754
S'Very'
p9755
aS'good'
p9756
aS'answer'
p9757
aS'VOX'
p9758
aaa(lp9759
g9720
a(lp9760
S'But'
p9761
aS'it'
p9762
aS'was'
p9763
aS'just'
p9764
aS'Barry'
p9765
aaa(lp9766
g9720
a(lp9767
S'It'
p9768
aS'just'
p9769
aS'had'
p9770
aaa(lp9771
g9720
a(lp9772
S'You'
p9773
aS'know'
p9774
aaa(lp9775
g9720
a(lp9776
S'and'
p9777
aS'he'
p9778
aaa(lp9779
S'KEVIN'
p9780
a(lp9781
S'Nothing'
p9782
aS'then'
p9783
aS'to'
p9784
aS'do'
p9785
aS'with'
p9786
aS'what'
p9787
aS'you'
p9788
aS'were'
p9789
aaa(lp9790
S'MARIE'
p9791
a(lp9792
S'Not'
p9793
aS'anything'
p9794
aS'to'
p9795
aS'do'
p9796
aS'with'
p9797
aS'what'
p9798
ag43
aS'said'
p9799
aaa(lp9800
g9791
a(lp9801
S'but'
p9802
aS'you'
p9803
aS'could'
p9804
aS'tell'
p9805
aS'that'
p9806
aaa(lp9807
S'LISA'
p9808
a(lp9809
S'Why'
p9810
aS'be'
p9811
aS'careful'
p9812
aaa(lp9813
g9808
a(lp9814
g43
aS'dont'
p9815
aS'understand'
p9816
aS'that'
p9817
aaa(lp9818
S'MARIEBecause'
p9819
a(lp9820
g43
aS'did'
p9821
aaa(lp9822
g9819
a(lp9823
S'He'
p9824
aS'didnt'
p9825
aS'want'
p9826
aS'me'
p9827
aS'to'
p9828
aS'say'
p9829
aaa(lp9830
g9819
a(lp9831
S'VOX'
p9832
aS'well'
p9833
ag43
aS'think'
p9834
aS'Kent'
p9835
aS'hes'
p9836
aS'awful'
p9837
aS'VOX'
p9838
aaa(lp9839
g9819
a(lp9840
S'and'
p9841
aS'nanananana'
p9842
aaa(lp9843
S'LISAWhy'
p9844
a(lp9845
aa(lp9846
S'MARIEYou'
p9847
a(lp9848
S'know'
p9849
aaa(lp9850
g9847
a(lp9851
g43
aS'dont'
p9852
aS'know'
p9853
aaa(lp9854
g9847
a(lp9855
S'just'
p9856
aaa(lp9857
g9847
a(lp9858
S'because'
p9859
aS'that'
p9860
aS'was'
p9861
aS'being'
p9862
aS'judgmental'
p9863
ag43
aS'guess'
p9864
aaa(lp9865
S'LISAX'
p9866
a(lp9867
S'If'
p9868
aS'you'
p9869
aS'do'
p9870
aS'you'
p9871
aS'do'
p9872
ag9
aaa(lp9873
S'KEVINIssac'
p9874
a(lp9875
aa(lp9876
S'LISA'
p9877
a(lp9878
S'Marie'
p9879
aaa(lp9880
S'MARIENo'
p9881
a(lp9882
S'hunh'
p9883
aaa(lp9884
S'LISA'
p9885
a(lp9886
S'Hes'
p9887
aS'gonna'
p9888
aS'get'
p9889
aS'on'
p9890
aS'all'
p9891
aS'the'
p9892
aS'wires'
p9893
aS'and'
p9894
aS'stuff'
p9895
aaa.