(lp0
(lp1
S'LISA'
p2
a(lp3
aa(lp4
S'KEVIN'
p5
a(lp6
S'X'
p7
aS'Hes'
p8
aS'teething'
p9
ag7
aaa(lp10
S'LISA'
p11
a(lp12
aa(lp13
S'MARIE'
p14
a(lp15
S'You'
p16
aS'should'
p17
aS'have'
p18
aS'heard'
p19
aS'him'
p20
aaa(lp21
g14
a(lp22
S'the'
p23
aS'night'
p24
aS'we'
p25
aS'took'
p26
aS'him'
p27
aS'to'
p28
aS'the'
p29
aS'emergency'
p30
aS'room'
p31
aaa(lp32
g14
a(lp33
S'He'
p34
aS'sounded'
p35
aS'worse'
p36
aaa(lp37
S'LISA'
p38
a(lp39
S'I'
p40
aS'pr'
p41
aS'if'
p42
aaa(lp43
g38
a(lp44
g40
aS'know'
p45
aaa(lp46
g38
a(lp47
g40
aS'would'
p48
aS'probablyve'
p49
aS'been'
p50
aS'totally'
p51
aS'freaked'
p52
aS'out'
p53
aaa(lp54
S'KEVIN'
p55
a(lp56
S'Thats'
p57
aS'scary'
p58
aaa(lp59
S'LISA'
p60
a(lp61
S'Maybe'
p62
aS'its'
p63
aS'good'
p64
aS'he'
p65
aS'didnt'
p66
aS'stay'
p67
aS'with'
p68
aS'me'
p69
aaa(lp70
g60
a(lp71
S'Idve'
p72
aS'been'
p73
aS'like'
p74
aS'VOX'
p75
aS'Michael'
p76
aaa(lp77
g60
a(lp78
S'VOX'
p79
aaa(lp80
S'MARIE'
p81
a(lp82
S'Yeah'
p83
aaa(lp84
g81
a(lp85
S'he'
p86
aS'was'
p87
aaa(lp88
S'KEVIN'
p89
a(lp90
S'VOX'
p91
aS'Scary'
p92
aS'VOX'
p93
aaa(lp94
S'MARIE'
p95
a(lp96
S'He'
p97
aS'was'
p98
aS'um'
p99
aaa(lp100
S'LISA'
p101
a(lp102
S'Id'
p103
aS'be'
p104
aS'like'
p105
aS'Mom'
p106
aaa(lp107
g101
a(lp108
S'uh'
p109
aaa(lp110
g101
a(lp111
S'what'
p112
aS'should'
p113
aS'we'
p114
aS'do'
p115
aS'with'
p116
aS'this'
p117
aS'child'
p118
aaa(lp119
S'MARIE'
p120
a(lp121
S'Well'
p122
aS'his'
p123
aS'temperature'
p124
aS'was'
p125
aS'a'
p126
aS'hundred'
p127
aS'and'
p128
aS'four'
p129
aS'point'
p130
aS'five'
p131
aaa(lp132
S'LISA'
p133
a(lp134
S'That'
p135
aS'is'
p136
aS'so'
p137
aS'high'
p138
aaa(lp139
S'KEVIN'
p140
a(lp141
S'Hes'
p142
aS'lucky'
p143
aS'that'
p144
aS'he'
p145
aS'didnt'
p146
aaa(lp147
S'LISA'
p148
a(lp149
S'How'
p150
aS'long'
p151
aS'was'
p152
aS'he'
p153
aS'there'
p154
aaa(lp155
g148
a(lp156
S'That'
p157
aS'high'
p158
aaa(lp159
S'KEVIN'
p160
a(lp161
S'How'
p162
aS'long'
p163
aaa(lp164
g160
a(lp165
S'do'
p166
aS'you'
p167
aS'know'
p168
aaa(lp169
S'MARIE'
p170
a(lp171
S'Uh'
p172
aS'his'
p173
aS'fever'
p174
aaa(lp175
S'KEVIN'
p176
a(lp177
S'Yeah'
p178
aaa(lp179
S'MARIE'
p180
a(lp181
g40
aS'dont'
p182
aS'know'
p183
aaa(lp184
S'KEVIN'
p185
a(lp186
S'Thats'
p187
aS'dangerou'
p188
aaa(lp189
g185
a(lp190
g40
aS'mean'
p191
ag7
aS'its'
p192
ag7
aS'XX'
p193
aaa(lp194
S'MARIE'
p195
a(lp196
S'The'
p197
aS'doctor'
p198
aS'said'
p199
aaa(lp200
S'LISA'
p201
a(lp202
S'Cause'
p203
aS'he'
p204
aS'could'
p205
aS'have'
p206
aaa(lp207
g201
a(lp208
S'brain'
p209
aS'damage'
p210
aaa(lp211
S'MARIE'
p212
a(lp213
S'The'
p214
aS'doctor'
p215
aS'said'
p216
aS'that'
p217
aS'th'
p218
aS'um'
p219
aaa(lp220
g212
a(lp221
S'his'
p222
aS'pediatrician'
p223
aS'cause'
p224
ag40
aS'asked'
p225
aS'him'
p226
aS'about'
p227
aS'it'
p228
aaa(lp229
g212
a(lp230
S'and'
p231
aS'he'
p232
aS'said'
p233
aS'that'
p234
aS'they'
p235
aS'dont'
p236
aS'hospitalize'
p237
aS'until'
p238
aS'they'
p239
aS'go'
p240
aS'up'
p241
aS'to'
p242
aS'like'
p243
ag126
aS'hundred'
p244
aS'and'
p245
aS'seven'
p246
aaa(lp247
g212
a(lp248
S'And'
p249
aS'thats'
p250
aS'where'
p251
aS'its'
p252
aS'fatal'
p253
aaa(lp254
g212
a(lp255
S'And'
p256
ag40
aS'was'
p257
aS'like'
p258
aaa(lp259
g212
a(lp260
S'well'
p261
aaa(lp262
g212
a(lp263
S'you'
p264
aS'know'
p265
aaa(lp266
S'LISA'
p267
a(lp268
S'What'
p269
aS'about'
p270
aS'brain'
p271
aS'damage'
p272
aaa(lp273
g267
a(lp274
S'That'
p275
aS'doesnt'
p276
aS'matter'
p277
aS'or'
p278
aaa(lp279
S'MARIE'
p280
a(lp281
S'Mmm'
p282
aaa(lp283
S'LISA'
p284
a(lp285
S'Excuse'
p286
aS'me'
p287
aS'brain'
p288
aS'damage'
p289
aS'is'
p290
aS'important'
p291
aS'VOX'
p292
aS'to'
p293
aS'me'
p294
aS'VOX'
p295
aaa(lp296
S'MARIE'
p297
a(lp298
S'He'
p299
aS'said'
p300
aS'actually'
p301
aS'fevers'
p302
aS'are'
p303
aaa(lp304
g297
a(lp305
S'How'
p306
aS'did'
p307
aS'he'
p308
aS'explain'
p309
aS'it'
p310
aaa(lp311
g297
a(lp312
S'he'
p313
aS'said'
p314
aS'something'
p315
aS'like'
p316
aaa(lp317
g297
a(lp318
S'fethers'
p319
aaa(lp320
g297
a(lp321
S'Fevers'
p322
aS'are'
p323
aS'like'
p324
aaa(lp325
g297
a(lp326
S'um'
p327
aaa(lp328
g297
a(lp329
S'good'
p330
aS'for'
p331
aS'babies'
p332
aS'like'
p333
aaa(lp334
g297
a(lp335
S'when'
p336
aS'theyre'
p337
aS'i'
p338
aS'b'
p339
aS'getting'
p340
aS'sick'
p341
aaa(lp342
g297
a(lp343
S'because'
p344
aS'they'
p345
aS'help'
p346
aS'the'
p347
aS'immune'
p348
aS'system'
p349
aS'fight'
p350
aS'harder'
p351
aaa(lp352
g297
a(lp353
S'Somehow'
p354
aaa(lp355
S'LISA'
p356
a(lp357
S'Well'
p358
aS'thats'
p359
aS'what'
p360
aS'the'
p361
aaa(lp362
S'MARIE'
p363
a(lp364
g40
aS'dont'
p365
aS'know'
p366
aaa(lp367
S'LISA'
p368
a(lp369
g40
aS'mean'
p370
aS'thats'
p371
aS'what'
p372
aaa(lp373
g368
a(lp374
S'The'
p375
aS'reason'
p376
aS'the'
p377
aS'body'
p378
aS'gets'
p379
aS'that'
p380
aS'hot'
p381
aaa(lp382
g368
a(lp383
S'is'
p384
aS'like'
p385
aS'to'
p386
aS'kill'
p387
aS'the'
p388
aS'germs'
p389
aS'or'
p390
aS'whatever'
p391
ag40
aS'think'
p392
aaa(lp393
g368
a(lp394
S'Isnt'
p395
aS'that'
p396
aS'part'
p397
aS'of'
p398
aS'it'
p399
aaa(lp400
S'MARIE'
p401
a(lp402
S'Yes'
p403
aS'doctor'
p404
aS'Kevin'
p405
aaa(lp406
g401
a(lp407
S'tell'
p408
aS'us'
p409
aaa(lp410
S'KEVIN'
p411
a(lp412
aa(lp413
S'LISA'
p414
a(lp415
S'No'
p416
aS'Im'
p417
aS'pretty'
p418
aaa(lp419
g414
a(lp420
S'Im'
p421
aS'pretty'
p422
aS'sure'
p423
aaa(lp424
g414
a(lp425
S'Im'
p426
aS'pretty'
p427
aS'sure'
p428
aS'thats'
p429
aS'part'
p430
aS'of'
p431
aS'it'
p432
aaa(lp433
g414
a(lp434
S'but'
p435
aS'uh'
p436
aS'its'
p437
aS'just'
p438
aS'that'
p439
aS'you'
p440
aS'have'
p441
aS'to'
p442
aS'watch'
p443
aS'out'
p444
aaa(lp445
g414
a(lp446
S'cause'
p447
aS'then'
p448
aaa(lp449
g414
a(lp450
S'if'
p451
aS'it'
p452
aS'gets'
p453
aS'too'
p454
aS'hot'
p455
aS'its'
p456
aS'bad'
p457
aS'for'
p458
aS'the'
p459
aS'brain'
p460
aaa(lp461
S'MARIE'
p462
a(lp463
S'Its'
p464
aS'like'
p465
ag126
aS'car'
p466
aaa(lp467
g462
a(lp468
S'it'
p469
aS'overheats'
p470
aaa(lp471
S'KEVIN'
p472
a(lp473
aa(lp474
S'MARIE'
p475
a(lp476
S'And'
p477
aS'stalls'
p478
aS'out'
p479
aaa(lp480
S'KEVIN'
p481
a(lp482
S'Maybe'
p483
aaa(lp484
g481
a(lp485
g40
aS'dont'
p486
aaa(lp487
g481
a(lp488
g40
aaa(lp489
S'LISA'
p490
a(lp491
S'VOX'
p492
aS'Are'
p493
aS'you'
p494
aS'gonna'
p495
aS'stall'
p496
aS'out'
p497
aS'L'
p498
aS'jito'
p499
aS'LVOX'
p500
aaa(lp501
S'KEVIN'
p502
a(lp503
S'Im'
p504
aS'not'
p505
aS'VOX'
p506
aS'sure'
p507
aS'VOX'
p508
aaa(lp509
S'LISA'
p510
a(lp511
S'VOX'
p512
aS'Dont'
p513
aS'stall'
p514
aS'out'
p515
aS'on'
p516
aS'us'
p517
aS'VOX'
p518
aaa(lp519
S'KEVIN'
p520
a(lp521
S'Whos'
p522
aS'all'
p523
aS'the'
p524
aS'VOX'
p525
aS'babinos'
p526
aS'VOX'
p527
aaa(lp528
g520
a(lp529
g40
aS'know'
p530
aS'the'
p531
aS'one'
p532
aS'in'
p533
aS'the'
p534
aS'lower'
p535
aS'right'
p536
aaa(lp537
S'LISA'
p538
a(lp539
S'Which'
p540
aS'one'
p541
aaa(lp542
S'MARIE'
p543
a(lp544
S'This'
p545
aS'one'
p546
aS'is'
p547
aS'mine'
p548
aaa(lp549
S'KEVIN'
p550
a(lp551
aa(lp552
g550
a(lp553
g40
aS'recognize'
p554
aS'him'
p555
aS'alr'
p556
aaa(lp557
S'LISA'
p558
a(lp559
S'Issac'
p560
aaa(lp561
S'MARIE'
p562
a(lp563
S'Thats'
p564
aS'the'
p565
aS'one'
p566
aS'thats'
p567
aS'ten'
p568
aS'days'
p569
aS'older'
p570
aS'than'
p571
aS'him'
p572
aaa(lp573
g562
a(lp574
S'thats'
p575
aS'Michaels'
p576
aaa(lp577
g562
a(lp578
S'Those'
p579
aS'are'
p580
aS'Michaels'
p581
aS'nephews'
p582
aaa(lp583
S'LISA'
p584
a(lp585
S'Jose'
p586
aaa(lp587
S'KEVIN'
p588
a(lp589
S'thats'
p590
aS'Jose'
p591
aaa(lp592
S'LISA'
p593
a(lp594
S'Jose'
p595
aS'and'
p596
aS'then'
p597
aaa(lp598
S'MARIE'
p599
a(lp600
S'and'
p601
aS'then'
p602
aS'Ginos'
p603
aS'the'
p604
aS'one'
p605
aS'in'
p606
aS'the'
p607
aS'middle'
p608
aaa(lp609
S'LISA'
p610
a(lp611
S'Gino'
p612
aS'is'
p613
aS'in'
p614
aS'the'
p615
aS'middle'
p616
aaa(lp617
S'MARIE'
p618
a(lp619
S'Thats'
p620
aS'his'
p621
aS'sister'
p622
aaa(lp623
S'KEVIN'
p624
a(lp625
S'Aw'
p626
aS'hes'
p627
ag126
aS'bit'
p628
aS'older'
p629
aaa(lp630
g624
a(lp631
S'Right'
p632
aaa(lp633
S'MARIE'
p634
a(lp635
S'Yeah'
p636
aS'hes'
p637
aS'three'
p638
aaa(lp639
S'KEVIN'
p640
a(lp641
S'He'
p642
aS'doesnt'
p643
aS'look'
p644
aS'that'
p645
aaa(lp646
S'LISA'
p647
a(lp648
S'Hes'
p649
aS'o'
p650
aaa(lp651
g647
a(lp652
S'Hes'
p653
aS'three'
p654
aaa(lp655
g647
a(lp656
S'Is'
p657
aS'he'
p658
aS'talking'
p659
aS'any'
p660
aS'more'
p661
aaa(lp662
g647
a(lp663
S'Is'
p664
aS'he'
p665
aS'talking'
p666
aS'good'
p667
aS'now'
p668
aaa(lp669
S'MARIE'
p670
a(lp671
S'You'
p672
aS'cant'
p673
aS'understan'
p674
aaa(lp675
g670
a(lp676
S'He'
p677
aaa(lp678
g670
a(lp679
S'You'
p680
aS'can'
p681
aS'but'
p682
aaa(lp683
g670
a(lp684
S'then'
p685
aS'you'
p686
aS'cant'
p687
aaa(lp688
g670
a(lp689
S'Sometimes'
p690
aS'some'
p691
aS'of'
p692
aS'the'
p693
aS'things'
p694
aS'he'
p695
aS'says'
p696
aaa(lp697
S'LISA'
p698
a(lp699
S'Does'
p700
aS'he'
p701
aS'talk'
p702
aS'big'
p703
aS'long'
p704
aS'things'
p705
aS'but'
p706
aS'you'
p707
aS'just'
p708
aS'cant'
p709
aS'understand'
p710
aS'em'
p711
aaa(lp712
g698
a(lp713
S'No'
p714
aaa(lp715
g698
a(lp716
S'hes'
p717
aS'okay'
p718
aS'then'
p719
aaa(lp720
S'KEVIN'
p721
a(lp722
S'P'
p723
aS'A'
p724
aS'gestalt'
p725
aS'kid'
p726
ag723
aaa(lp727
S'LISA'
p728
a(lp729
S'VOX'
p730
aS'Hes'
p731
ag126
aS'gestalt'
p732
aS'child'
p733
aS'VOX'
p734
aaa(lp735
S'KEVIN'
p736
a(lp737
aa(lp738
S'MARIE'
p739
a(lp740
aa(lp741
S'LISA'
p742
a(lp743
S'No'
p744
aaa(lp745
g742
a(lp746
S'theres'
p747
aS'two'
p748
aS'different'
p749
aS'wa'
p750
aaa(lp751
S'MARIE'
p752
a(lp753
S'Yeah'
p754
aaa(lp755
g752
a(lp756
S'psychotherapist'
p757
aS'Lisa'
p758
aaa(lp759
S'LISA'
p760
a(lp761
S'No'
p762
aS'no'
p763
aS'no'
p764
aS'no'
p765
aS'no'
p766
aS'no'
p767
aS'n'
p768
aS'no'
p769
aS'no'
p770
ag768
aS'no'
p771
aaa(lp772
S'MARIE'
p773
a(lp774
aa(lp775
S'KEVIN'
p776
a(lp777
aa(lp778
S'LISA'
p779
a(lp780
S'Its'
p781
aS'just'
p782
aS'two'
p783
aS'different'
p784
aS'ways'
p785
aaa(lp786
g779
a(lp787
S'Like'
p788
aaa(lp789
g779
a(lp790
S'kids'
p791
aS'can'
p792
aS'either'
p793
aS'like'
p794
aaa(lp795
g779
a(lp796
S'theyll'
p797
aS'say'
p798
aS'one'
p799
aS'word'
p800
aaa(lp801
g779
a(lp802
S'but'
p803
aS'theyll'
p804
aS'say'
p805
aS'it'
p806
aS'really'
p807
aaa(lp808
g779
a(lp809
S'like'
p810
aS'pretty'
p811
aS'clear'
p812
aaa(lp813
g779
a(lp814
S'and'
p815
aS'thats'
p816
aS'the'
p817
aS'way'
p818
aS'theyre'
p819
aS'th'
p820
aaa(lp821
g779
a(lp822
S'Theyll'
p823
aS'have'
p824
aS'like'
p825
aS'twenty'
p826
aS'words'
p827
aS'or'
p828
aS'whatever'
p829
aaa(lp830
g779
a(lp831
S'and'
p832
aS'theyll'
p833
aS'just'
p834
aS'ask'
p835
aS'for'
p836
aS'one'
p837
aS'thing'
p838
aaa(lp839
g779
a(lp840
S'And'
p841
aS'then'
p842
aS'theres'
p843
aS'other'
p844
aS'kids'
p845
aS'who'
p846
aS'go'
p847
aaa(lp848
g779
a(lp849
S'VOX'
p850
aS'nanananazabada'
p851
aS'VOX'
p852
aaa(lp853
g779
a(lp854
S'And'
p855
aS'therell'
p856
aS'be'
p857
ag126
aS'word'
p858
aS'in'
p859
aS'there'
p860
aS'somewhere'
p861
aaa(lp862
S'KEVIN'
p863
a(lp864
aa(lp865
S'LISA'
p866
a(lp867
S'And'
p868
aS'theres'
p869
ag126
aaa(lp870
S'BABY'
p871
a(lp872
S'COUGHING'
p873
aaa(lp874
S'KEVIN'
p875
a(lp876
S'Oh'
p877
aaa(lp878
S'MARIE'
p879
a(lp880
S'Dont'
p881
aS'freak'
p882
aS'out'
p883
aaa(lp884
S'LISA'
p885
a(lp886
S'Are'
p887
aS'you'
p888
aS'okay'
p889
aaa(lp890
S'KEVIN'
p891
a(lp892
S'Cause'
p893
ag40
aS'tickled'
p894
aS'his'
p895
aS'feet'
p896
aaa(lp897
g891
a(lp898
S'Its'
p899
aS'all'
p900
aS'my'
p901
aS'fault'
p902
aaa(lp903
S'LISA'
p904
a(lp905
S'Give'
p906
aS'him'
p907
ag126
aS'drink'
p908
aaa(lp909
S'MARIE'
p910
a(lp911
g7
aS'Its'
p912
ag7
aS'he'
p913
aS'drinks'
p914
aS'too'
p915
aS'fast'
p916
aaa(lp917
g910
a(lp918
S'It'
p919
aS'just'
p920
aS'went'
p921
aS'down'
p922
aS'the'
p923
aS'wrong'
p924
aS'pipe'
p925
aaa(lp926
S'BABY'
p927
a(lp928
S'COUGHING'
p929
aaa(lp930
S'KEVIN'
p931
a(lp932
S'You'
p933
aS'need'
p934
aS'to'
p935
aS'burp'
p936
aaa(lp937
S'BABY'
p938
a(lp939
aa(lp940
S'KEVIN'
p941
a(lp942
S'It'
p943
aS'wasnt'
p944
aS'that'
p945
aS'bad'
p946
aaa(lp947
S'LISA'
p948
a(lp949
S'VOX'
p950
aS'Oh'
p951
aaa(lp952
g948
a(lp953
S'really'
p954
aS'sorry'
p955
aS'VOX'
p956
aaa(lp957
g948
a(lp958
S'KEVIN'
p959
aaa(lp960
S'LISA'
p961
a(lp962
S'But'
p963
aS'um'
p964
aaa(lp965
g961
a(lp966
S'anyways'
p967
aaa(lp968
g961
a(lp969
S'So'
p970
aS'its'
p971
aS'just'
p972
ag126
aS'd'
p973
aS'like'
p974
ag126
aS'different'
p975
aS'style'
p976
aaa(lp977
S'KEVIN'
p978
a(lp979
g7
ag7
ag126
aS'lot'
p980
aS'of'
p981
aS'air'
p982
ag7
aaa(lp983
S'LISA'
p984
a(lp985
S'VOX'
p986
ag40
aS'sorry'
p987
aS'VOX'
p988
aaa(lp989
S'KEVIN'
p990
a(lp991
S'Theyre'
p992
aS'allowed'
p993
aS'to'
p994
aS'do'
p995
aS'it'
p996
aS'either'
p997
aS'way'
p998
aaa(lp999
S'MARIE'
p1000
a(lp1001
aa(lp1002
S'LISA'
p1003
a(lp1004
S'Theyre'
p1005
aS'allowed'
p1006
aaa(lp1007
S'KEVIN'
p1008
a(lp1009
aa(lp1010
S'LISA'
p1011
a(lp1012
S'VOX'
p1013
aS'No'
p1014
aS'no'
p1015
aS'no'
p1016
aS'no'
p1017
aS'VOX'
p1018
aaa(lp1019
g1011
a(lp1020
S'VOX'
p1021
aS'Which'
p1022
aS'way'
p1023
aS'you'
p1024
aS'gonna'
p1025
aS'do'
p1026
aS'it'
p1027
aS'VOX'
p1028
aaa(lp1029
S'KEVIN'
p1030
a(lp1031
S'Is'
p1032
aS'he'
p1033
ag126
aS'righ'
p1034
aaa(lp1035
g1030
a(lp1036
S'Are'
p1037
aS'you'
p1038
ag126
aS'righty'
p1039
aaa(lp1040
g1030
a(lp1041
S'Youre'
p1042
ag126
aS'righty'
p1043
aaa(lp1044
S'MARIE'
p1045
a(lp1046
S'Its'
p1047
aS'funny'
p1048
aS'cause'
p1049
aaa(lp1050
g1045
a(lp1051
S'h'
p1052
aS'hell'
p1053
aS'be'
p1054
aS'like'
p1055
aaa(lp1056
g1045
a(lp1057
S'hell'
p1058
aS'get'
p1059
aS'up'
p1060
aS'in'
p1061
aS'the'
p1062
aS'morning'
p1063
aaa(lp1064
g1045
a(lp1065
S'hell'
p1066
aS'sit'
p1067
aS'in'
p1068
aS'front'
p1069
aS'of'
p1070
aS'the'
p1071
aS'TV'
p1072
aS'with'
p1073
aS'his'
p1074
aS'bottle'
p1075
aS'in'
p1076
aS'one'
p1077
aS'hand'
p1078
aaa(lp1079
g1045
a(lp1080
S'just'
p1081
aS'watching'
p1082
aS'TV'
p1083
aaa(lp1084
S'KEVIN'
p1085
a(lp1086
aa(lp1087
S'MARIE'
p1088
a(lp1089
S'like'
p1090
aS'half'
p1091
aS'asleep'
p1092
aaa(lp1093
g1088
a(lp1094
S'you'
p1095
aS'know'
p1096
aaa(lp1097
S'KEVIN'
p1098
a(lp1099
aa(lp1100
S'MARIE'
p1101
a(lp1102
S'hes'
p1103
ag126
aaa(lp1104
g1101
a(lp1105
S'and'
p1106
aS'Im'
p1107
aS'like'
p1108
aaa(lp1109
g1101
a(lp1110
S'Go'
p1111
aaa(lp1112
g1101
a(lp1113
S'While'
p1114
aS'ago'
p1115
aS'he'
p1116
aS'was'
p1117
aS'sitting'
p1118
aS'here'
p1119
aaa(lp1120
S'KEVIN'
p1121
a(lp1122
g7
aS'If'
p1123
aS'you'
p1124
aS'lay'
p1125
ag7
aaa(lp1126
S'MARIE'
p1127
a(lp1128
S'and'
p1129
aS'he'
p1130
aS'was'
p1131
aS'watching'
p1132
aS'the'
p1133
aS'football'
p1134
aS'game'
p1135
aaa(lp1136
S'LISA'
p1137
a(lp1138
S'Like'
p1139
aS'his'
p1140
aS'grandpa'
p1141
aaa(lp1142
S'MARIE'
p1143
a(lp1144
S'he'
p1145
aS'was'
p1146
aS'watching'
p1147
aS'the'
p1148
aS'football'
p1149
aS'game'
p1150
aaa(lp1151
S'KEVIN'
p1152
a(lp1153
aa(lp1154
S'MARIE'
p1155
a(lp1156
aa(lp1157
S'LISA'
p1158
a(lp1159
aa(lp1160
S'KEVIN'
p1161
a(lp1162
S'Thats'
p1163
aS'low'
p1164
aaa(lp1165
g1161
a(lp1166
g7
aS'Issac'
p1167
ag7
aaa(lp1168
S'LISA'
p1169
a(lp1170
S'Bottle'
p1171
aS'in'
p1172
aS'one'
p1173
aS'hand'
p1174
aaa(lp1175
g1169
a(lp1176
S'half'
p1177
aS'asleep'
p1178
aaa(lp1179
S'KEVIN'
p1180
a(lp1181
aa(lp1182
S'MARIE'
p1183
a(lp1184
aa(lp1185
S'LISA'
p1186
a(lp1187
S'watching'
p1188
aS'TV'
p1189
aaa(lp1190
S'KEVIN'
p1191
a(lp1192
S'Thats'
p1193
aS'low'
p1194
aaa(lp1195
S'LISA'
p1196
a(lp1197
S'XXX'
p1198
aS'this'
p1199
aS'picture'
p1200
aaa(lp1201
S'MARIE'
p1202
a(lp1203
S'Thanks'
p1204
ag126
aS'lot'
p1205
aaa(lp1206
S'KEVIN'
p1207
a(lp1208
aa(lp1209
S'MARIE'
p1210
a(lp1211
S'you'
p1212
aS'witch'
p1213
aaa(lp1214
S'LISA'
p1215
a(lp1216
aa(lp1217
S'KEVIN'
p1218
a(lp1219
aa(lp1220
S'LISA'
p1221
a(lp1222
S'What'
p1223
aaa(lp1224
S'MARIE'
p1225
a(lp1226
S'You'
p1227
aS'witch'
p1228
aaa(lp1229
S'LISA'
p1230
a(lp1231
S'Its'
p1232
aS'true'
p1233
aaa(lp1234
S'KEVIN'
p1235
a(lp1236
aa(lp1237
S'BABY'
p1238
a(lp1239
aa(lp1240
S'KEVIN'
p1241
a(lp1242
S'VOX'
p1243
aS'Aw'
p1244
aaa(lp1245
S'LISA'
p1246
a(lp1247
g498
aS'Jito'
p1248
ag498
aaa(lp1249
S'KEVIN'
p1250
a(lp1251
S'youre'
p1252
aS'dwibbling'
p1253
aS'VOX'
p1254
aaa(lp1255
S'LISA'
p1256
a(lp1257
S'VOX'
p1258
aS'Dwibbling'
p1259
aS'VOX'
p1260
aaa(lp1261
S'KEVIN'
p1262
a(lp1263
S'VOX'
p1264
aS'Uh'
p1265
aS'dwibbling'
p1266
aS'VOX'
p1267
aaa(lp1268
S'LISA'
p1269
a(lp1270
S'Gross'
p1271
aaa(lp1272
g1269
a(lp1273
S'Um'
p1274
aaa(lp1275
S'KEVIN'
p1276
a(lp1277
S'Oh'
p1278
aaa(lp1279
S'LISA'
p1280
a(lp1281
S'try'
p1282
aS'not'
p1283
aS'to'
p1284
aS'spit'
p1285
aS'all'
p1286
aS'over'
p1287
ag7
aS'here'
p1288
ag7
aaa(lp1289
S'KEVIN'
p1290
a(lp1291
S'Baby'
p1292
aS'slobber'
p1293
aaa(lp1294
g1290
a(lp1295
S'ew'
p1296
aaa(lp1297
S'MARIE'
p1298
a(lp1299
aa(lp1300
S'LISA'
p1301
a(lp1302
aa(lp1303
S'MARIE'
p1304
a(lp1305
S'You'
p1306
ag7
aS'seen'
p1307
aS'it'
p1308
aS'was'
p1309
aS'gross'
p1310
aaa(lp1311
S'KEVIN'
p1312
a(lp1313
g7
aaa(lp1314
S'MARIE'
p1315
a(lp1316
S'Michael'
p1317
aaa(lp1318
g1315
a(lp1319
S'Michaels'
p1320
aS'shirt'
p1321
aS'was'
p1322
aS'all'
p1323
aS'wet'
p1324
aaa(lp1325
g1315
a(lp1326
S'from'
p1327
aS'right'
p1328
aS'here'
p1329
aaa(lp1330
S'KEVIN'
p1331
a(lp1332
aa(lp1333
S'MARIE'
p1334
a(lp1335
S'from'
p1336
aS'him'
p1337
aS'just'
p1338
aS'drooling'
p1339
aaa(lp1340
S'KEVIN'
p1341
a(lp1342
aa(lp1343
S'MARIE'
p1344
a(lp1345
S'It'
p1346
aS'was'
p1347
aS'gross'
p1348
aaa(lp1349
S'KEVIN'
p1350
a(lp1351
aa(lp1352
S'LISA'
p1353
a(lp1354
S'Probably'
p1355
aS'he'
p1356
aS'was'
p1357
aS'opening'
p1358
aaa(lp1359
S'MARIE'
p1360
a(lp1361
S'and'
p1362
aS'we'
p1363
ag7
aS'took'
p1364
aS'him'
p1365
aS'to'
p1366
aS'the'
p1367
ag7
ag7
aaa(lp1368
S'LISA'
p1369
a(lp1370
S'Breathing'
p1371
aS'through'
p1372
aS'his'
p1373
aS'mouth'
p1374
aS'more'
p1375
aaa(lp1376
g1369
a(lp1377
S'cause'
p1378
aS'he'
p1379
aS'couldnt'
p1380
aS'breathe'
p1381
aS'through'
p1382
aS'his'
p1383
aS'nose'
p1384
ag7
aS'at'
p1385
ag7
aaa(lp1386
S'MARIE'
p1387
a(lp1388
S'Mm'
p1389
aaa(lp1390
g1387
a(lp1391
S'And'
p1392
aS'then'
p1393
aS'he'
p1394
aS'couldnt'
p1395
aS'even'
p1396
aS'breathe'
p1397
aaa(lp1398
g1387
a(lp1399
S'he'
p1400
aS'had'
p1401
aaa(lp1402
g1387
a(lp1403
S'um'
p1404
aaa(lp1405
g1387
a(lp1406
S'they'
p1407
aS'had'
p1408
aS'this'
p1409
aS'thing'
p1410
aaa(lp1411
g1387
a(lp1412
S'it'
p1413
aS'was'
p1414
aS'this'
p1415
aS'big'
p1416
aS'old'
p1417
aS'long'
p1418
aS'old'
p1419
aS'tube'
p1420
aaa(lp1421
S'LISA'
p1422
a(lp1423
S'Here'
p1424
aaa(lp1425
S'MARIE'
p1426
a(lp1427
S'and'
p1428
aS'it'
p1429
aS'was'
p1430
aS'funny'
p1431
aS'cause'
p1432
aaa(lp1433
g1426
a(lp1434
S'like'
p1435
aaa(lp1436
g1426
a(lp1437
S'we'
p1438
aS'could'
p1439
aaa(lp1440
S'BABY'
p1441
a(lp1442
aa(lp1443
S'MARIE'
p1444
a(lp1445
S'They'
p1446
aS'put'
p1447
ag126
aS'mist'
p1448
aaa(lp1449
S'LISA'
p1450
a(lp1451
S'Child'
p1452
aaa(lp1453
g1450
a(lp1454
S'youre'
p1455
aS'having'
p1456
aS'problems'
p1457
aaa(lp1458
S'MARIE'
p1459
a(lp1460
S'And'
p1461
aS'you'
p1462
aS'could'
p1463
aS'just'
p1464
aS'see'
p1465
aS'like'
p1466
aS'smoke'
p1467
aaa(lp1468
g1459
a(lp1469
S'you'
p1470
aS'know'
p1471
aaa(lp1472
g1459
a(lp1473
S'like'
p1474
ag126
aS'mist'
p1475
aaa(lp1476
g1459
a(lp1477
S'like'
p1478
ag126
aS'humidifier'
p1479
aaa(lp1480
g1459
a(lp1481
S'coming'
p1482
aS'out'
p1483
aS'and'
p1484
ag40
aS'was'
p1485
aS'like'
p1486
aaa(lp1487
S'KEVIN'
p1488
a(lp1489
S'Mhm'
p1490
aaa(lp1491
S'LISA'
p1492
a(lp1493
S'Mhm'
p1494
aaa(lp1495
S'MARIE'
p1496
a(lp1497
aa(lp1498
g1496
a(lp1499
S'and'
p1500
ag40
aS'was'
p1501
aS'all'
p1502
aaa(lp1503
S'KEVIN'
p1504
a(lp1505
S'Out'
p1506
aS'of'
p1507
aS'his'
p1508
aS'throat'
p1509
aaa(lp1510
g1504
a(lp1511
g40
aS'mean'
p1512
ag7
aS'then'
p1513
aS'whered'
p1514
aS'they'
p1515
aS'put'
p1516
aS'this'
p1517
aS'on'
p1518
ag7
aaa(lp1519
g1504
a(lp1520
S'in'
p1521
aS'where'
p1522
aS'did'
p1523
aS'it'
p1524
aaa(lp1525
S'MARIE'
p1526
a(lp1527
S'No'
p1528
aaa(lp1529
g1526
a(lp1530
S'they'
p1531
aS'stuck'
p1532
aS'it'
p1533
aS'in'
p1534
ag126
aS'tu'
p1535
aaa(lp1536
g1526
a(lp1537
S'It'
p1538
aS'came'
p1539
aS'out'
p1540
aS'of'
p1541
ag126
aS'tube'
p1542
aaa(lp1543
g1526
a(lp1544
S'and'
p1545
ag40
aS'just'
p1546
aS'had'
p1547
aS'to'
p1548
aS'hold'
p1549
aS'it'
p1550
aS'like'
p1551
aaa(lp1552
g1526
a(lp1553
S'around'
p1554
aS'his'
p1555
aS'face'
p1556
aaa(lp1557
S'KEVIN'
p1558
a(lp1559
S'Oh'
p1560
aaa(lp1561
g1558
a(lp1562
S'oh'
p1563
aS'okay'
p1564
aS'okay'
p1565
aaa(lp1566
S'MARIE'
p1567
a(lp1568
S'so'
p1569
aS'that'
p1570
aS'he'
p1571
aS'could'
p1572
aaa(lp1573
S'LISA'
p1574
a(lp1575
S'VOX'
p1576
aS'Come'
p1577
aS'here'
p1578
aS'VOX'
p1579
aaa(lp1580
S'MARIE'
p1581
a(lp1582
S'It'
p1583
aS'was'
p1584
aS'oxygen'
p1585
aaa(lp1586
g1581
a(lp1587
S'but'
p1588
aS'they'
p1589
aS'put'
p1590
ag126
aS'mist'
p1591
aS'in'
p1592
aS'it'
p1593
aaa(lp1594
g1581
a(lp1595
S'so'
p1596
aS'that'
p1597
aS'he'
p1598
aS'could'
p1599
aaa(lp1600
g1581
a(lp1601
S'They'
p1602
aS'didnt'
p1603
aS'want'
p1604
aS'to'
p1605
aS'stick'
p1606
aS'oxygen'
p1607
aS'tube'
p1608
aS'up'
p1609
aS'his'
p1610
aS'nose'
p1611
aaa(lp1612
g1581
a(lp1613
S'or'
p1614
aS'put'
p1615
ag126
aS'mask'
p1616
aS'on'
p1617
aS'him'
p1618
aaa(lp1619
g1581
a(lp1620
S'cause'
p1621
aS'hed'
p1622
aS'take'
p1623
aS'it'
p1624
aS'off'
p1625
aaa(lp1626
S'LISA'
p1627
a(lp1628
S'Mhm'
p1629
aaa(lp1630
S'MARIE'
p1631
a(lp1632
aa(lp1633
g1631
a(lp1634
S'And'
p1635
aS'it'
p1636
aS'was'
p1637
aS'funny'
p1638
aaa(lp1639
g1631
a(lp1640
S'because'
p1641
aS'every'
p1642
aS'time'
p1643
aS'like'
p1644
aS'hed'
p1645
aS'see'
p1646
ag126
aS'person'
p1647
aS'wearing'
p1648
aS'blue'
p1649
aaa(lp1650
g1631
a(lp1651
S'hed'
p1652
aS'be'
p1653
aS'all'
p1654
aaa(lp1655
g1631
a(lp1656
S'and'
p1657
aS'hed'
p1658
aS'start'
p1659
aS'like'
p1660
aaa(lp1661
g1631
a(lp1662
S'not'
p1663
aS'breathing'
p1664
aaa(lp1665
S'KEVIN'
p1666
a(lp1667
aa(lp1668
S'LISA'
p1669
a(lp1670
S'Oh'
p1671
aaa(lp1672
S'MARIE'
p1673
a(lp1674
S'and'
p1675
aS'then'
p1676
aS'hed'
p1677
aS'like'
p1678
aaa(lp1679
g1673
a(lp1680
g7
aS'poor'
p1681
ag7
aaa(lp1682
g1673
a(lp1683
S'And'
p1684
aS'then'
p1685
aS'it'
p1686
aS'would'
p1687
aS'sto'
p1688
aaa(lp1689
g1673
a(lp1690
S'And'
p1691
aS'theyd'
p1692
aS'be'
p1693
aS'all'
p1694
aS'VOX'
p1695
aS'okay'
p1696
aS'okay'
p1697
aS'VOX'
p1698
aaa(lp1699
g1673
a(lp1700
S'and'
p1701
aS'theyd'
p1702
aS'walk'
p1703
aS'out'
p1704
aS'of'
p1705
aS'the'
p1706
aS'room'
p1707
aaa(lp1708
g1673
a(lp1709
S'cause'
p1710
aS'they'
p1711
aS'didnt'
p1712
aS'want'
p1713
aS'to'
p1714
aS'excite'
p1715
aS'him'
p1716
aaa(lp1717
g1673
a(lp1718
S'cause'
p1719
aS'they'
p1720
aS'didnt'
p1721
aS'want'
p1722
aS'him'
p1723
aS'to'
p1724
aS'hyperventilate'
p1725
aaa(lp1726
S'LISA'
p1727
a(lp1728
S'VOX'
p1729
aS'Poor'
p1730
aS'thing'
p1731
aaa(lp1732
g1727
a(lp1733
S'XXX'
p1734
aS'VOX'
p1735
aaa(lp1736
S'KEVIN'
p1737
a(lp1738
g7
aS'Yeah'
p1739
ag7
aS'hes'
p1740
aS'doing'
p1741
aS'better'
p1742
aaa(lp1743
S'MARIE'
p1744
a(lp1745
S'And'
p1746
aS'then'
p1747
aS'the'
p1748
aS'doctor'
p1749
aS'comes'
p1750
aS'in'
p1751
aaa(lp1752
g1744
a(lp1753
S'and'
p1754
aS'he'
p1755
aS'just'
p1756
aS'looks'
p1757
aS'at'
p1758
aS'him'
p1759
aaa(lp1760
g1744
a(lp1761
S'and'
p1762
aS'then'
p1763
aS'they'
p1764
aS'stick'
p1765
aS'this'
p1766
aS'fing'
p1767
aaa(lp1768
g1744
a(lp1769
S'thing'
p1770
aS'on'
p1771
aS'his'
p1772
aS'finger'
p1773
aaa(lp1774
g1744
a(lp1775
S'Its'
p1776
aS'like'
p1777
aS'light'
p1778
aS'sensored'
p1779
aaa(lp1780
g1744
a(lp1781
S'And'
p1782
aS'they'
p1783
aS'have'
p1784
aS'to'
p1785
aS'guard'
p1786
aS'it'
p1787
aS'from'
p1788
aS'the'
p1789
aS'light'
p1790
aaa(lp1791
g1744
a(lp1792
S'and'
p1793
aS'thats'
p1794
aS'what'
p1795
aS'measures'
p1796
aS'his'
p1797
aS'heart'
p1798
aS'rate'
p1799
aaa(lp1800
g1744
a(lp1801
S'And'
p1802
aS'it'
p1803
aS'measures'
p1804
aS'his'
p1805
aS'oxygen'
p1806
aS'percent'
p1807
aaa(lp1808
g1744
a(lp1809
S'how'
p1810
aS'much'
p1811
aS'oxygen'
p1812
aS'hes'
p1813
aS'getting'
p1814
aaa(lp1815
S'KEVIN'
p1816
a(lp1817
S'Wild'
p1818
aaa(lp1819
S'LISA'
p1820
a(lp1821
S'Cool'
p1822
aaa(lp1823
S'MARIE'
p1824
a(lp1825
S'It'
p1826
aS'was'
p1827
aS'weird'
p1828
aaa(lp1829
g1824
a(lp1830
S'And'
p1831
aS'he'
p1832
aS'was'
p1833
aS'all'
p1834
aS'in'
p1835
aaa(lp1836
S'KEVIN'
p1837
a(lp1838
S'Did'
p1839
aS'his'
p1840
aS'oxygen'
p1841
aS'get'
p1842
aS'low'
p1843
aaa(lp1844
g1837
a(lp1845
S'Or'
p1846
aaa(lp1847
S'MARIE'
p1848
a(lp1849
S'Yeah'
p1850
aaa(lp1851
g1848
a(lp1852
S'it'
p1853
aS'was'
p1854
aS'like'
p1855
aS'eightysix'
p1856
aS'percent'
p1857
aaa(lp1858
S'LISA'
p1859
a(lp1860
S'Yeah'
p1861
aaa(lp1862
S'KEVIN'
p1863
a(lp1864
S'Which'
p1865
aaa(lp1866
g1863
a(lp1867
S'Of'
p1868
aS'whats'
p1869
aaa(lp1870
S'LISA'
p1871
a(lp1872
S'Supposed'
p1873
aS'to'
p1874
aS'be'
p1875
aS'like'
p1876
aS'ninety'
p1877
aS'what'
p1878
aaa(lp1879
S'MARIE'
p1880
a(lp1881
g724
aS'hundred'
p1882
aaa(lp1883
g1880
a(lp1884
S'Um'
p1885
aaa(lp1886
g1880
a(lp1887
S'adults'
p1888
aS'are'
p1889
aS'probably'
p1890
aaa(lp1891
S'LISA'
p1892
a(lp1893
S'Like'
p1894
aS'ninetysevens'
p1895
aS'okay'
p1896
ag40
aS'think'
p1897
aaa(lp1898
S'MARIE'
p1899
a(lp1900
S'Adults'
p1901
aS'are'
p1902
aS'supposed'
p1903
aS'to'
p1904
aS'be'
p1905
aS'anywhere'
p1906
aS'from'
p1907
aS'like'
p1908
aS'ninetythree'
p1909
aS'to'
p1910
aS'on'
p1911
aS'up'
p1912
aaa(lp1913
S'LISA'
p1914
a(lp1915
g7
aaa(lp1916
g1914
a(lp1917
S'You'
p1918
aS'gonna'
p1919
aS'go'
p1920
aS'down'
p1921
aaa(lp1922
S'MARIE'
p1923
a(lp1924
S'But'
p1925
aS'anything'
p1926
aaa(lp1927
S'KEVIN'
p1928
a(lp1929
S'And'
p1930
aS'you'
p1931
aS'ha'
p1932
aaa(lp1933
g1928
a(lp1934
S'Babies'
p1935
aS'higher'
p1936
aS'or'
p1937
aS'lower'
p1938
aaa(lp1939
S'MARIE'
p1940
a(lp1941
S'Yeah'
p1942
aaa(lp1943
S'LISA'
p1944
a(lp1945
S'VOX'
p1946
aS'Gonna'
p1947
aS'go'
p1948
aS'on'
p1949
aS'the'
p1950
aS'floor'
p1951
aS'VOX'
p1952
aaa(lp1953
S'MARIE'
p1954
a(lp1955
S'babies'
p1956
aS'are'
p1957
aS'usually'
p1958
aS'higher'
p1959
aaa(lp1960
g1954
a(lp1961
S'because'
p1962
aS'you'
p1963
aS'know'
p1964
aS'they'
p1965
aaa(lp1966
S'LISA'
p1967
a(lp1968
S'VOX'
p1969
aS'Are'
p1970
aS'you'
p1971
aS'mad'
p1972
aS'at'
p1973
aS'Nina'
p1974
aS'VOX'
p1975
aaa(lp1976
S'MARIE'
p1977
a(lp1978
S'They'
p1979
aS'havent'
p1980
aS'been'
p1981
aS'around'
p1982
aS'as'
p1983
aS'long'
p1984
aaa(lp1985
S'KEVIN'
p1986
a(lp1987
aa(lp1988
S'LISA'
p1989
a(lp1990
aa(lp1991
S'KEVIN'
p1992
a(lp1993
S'So'
p1994
aS'she'
p1995
aaa(lp1996
g1992
a(lp1997
S'Yeah'
p1998
aaa(lp1999
g1992
a(lp2000
S'so'
p2001
aaa(lp2002
g1992
a(lp2003
S'he'
p2004
aS'was'
p2005
aS'really'
p2006
aS'not'
p2007
aS'doing'
p2008
aS'well'
p2009
aaa(lp2010
S'MARIE'
p2011
a(lp2012
S'No'
p2013
aaa(lp2014
g2011
a(lp2015
S'Nobody'
p2016
aS'should'
p2017
aS'really'
p2018
aS'be'
p2019
aS'that'
p2020
aS'low'
p2021
aaa(lp2022
g2011
a(lp2023
g40
aS'mean'
p2024
aaa(lp2025
g2011
a(lp2026
S'people'
p2027
aS'that'
p2028
aS'are'
p2029
aS'that'
p2030
aS'low'
p2031
aS'theres'
p2032
aaa(lp2033
g2011
a(lp2034
S'they'
p2035
aS'have'
p2036
aS'asthma'
p2037
aS'and'
p2038
aS'stuff'
p2039
aS'like'
p2040
aS'that'
p2041
aaa(lp2042
S'KEVIN'
p2043
a(lp2044
S'VOX'
p2045
aS'Hee'
p2046
aS'hee'
p2047
ag1052
aS'hee'
p2048
aS'hee'
p2049
aS'VOX'
p2050
aaa(lp2051
S'LISA'
p2052
a(lp2053
g7
aS'They'
p2054
ag7
aS'like'
p2055
aaa(lp2056
g2052
a(lp2057
S'Yeah'
p2058
aaa(lp2059
g2052
a(lp2060
S'Or'
p2061
aS'emphysema'
p2062
aaa(lp2063
S'KEVIN'
p2064
a(lp2065
S'VOX'
p2066
aS'Ha'
p2067
aS'ha'
p2068
aS'ha'
p2069
aS'ha'
p2070
aS'VOX'
p2071
aaa(lp2072
S'MARIE'
p2073
a(lp2074
S'But'
p2075
aS'he'
p2076
aS'was'
p2077
aaa(lp2078
g2073
a(lp2079
S'And'
p2080
aS'his'
p2081
aS'heart'
p2082
aaa(lp2083
S'LISA'
p2084
a(lp2085
S'What'
p2086
aS'was'
p2087
aS'his'
p2088
aS'heart'
p2089
aS'rate'
p2090
aaa(lp2091
S'MARIE'
p2092
a(lp2093
S'Two'
p2094
ag650
aS'four'
p2095
aaa(lp2096
S'LISA'
p2097
a(lp2098
S'And'
p2099
aS'its'
p2100
aS'supposed'
p2101
aS'to'
p2102
aS'be'
p2103
aaa(lp2104
S'MARIE'
p2105
a(lp2106
g40
aS'think'
p2107
aS'he'
p2108
aS'said'
p2109
aS'like'
p2110
aS'one'
p2111
aS'sixtyeight'
p2112
aS'or'
p2113
aS'something'
p2114
aaa(lp2115
S'KEVIN'
p2116
a(lp2117
S'Well'
p2118
aaa(lp2119
g2116
a(lp2120
S'babies'
p2121
aS'are'
p2122
aS'supposed'
p2123
aS'to'
p2124
aS'have'
p2125
aS'really'
p2126
aS'high'
p2127
aS'heart'
p2128
aS'rates'
p2129
aaa(lp2130
S'LISA'
p2131
a(lp2132
S'But'
p2133
aS'one'
p2134
aS'sixtyeight'
p2135
aS'versus'
p2136
aS'two'
p2137
ag650
aS'four'
p2138
aaa(lp2139
S'KEVIN'
p2140
a(lp2141
S'Thats'
p2142
aS'still'
p2143
aS'scary'
p2144
aaa(lp2145
S'MARIE'
p2146
a(lp2147
S'And'
p2148
aS'hed'
p2149
aS'just'
p2150
aS'do'
p2151
aaa(lp2152
g2146
a(lp2153
S'he'
p2154
aS'was'
p2155
aS'doing'
p2156
aS'it'
p2157
aaa(lp2158
g2146
a(lp2159
S'when'
p2160
aS'hed'
p2161
aS'get'
p2162
aS'really'
p2163
aS'excited'
p2164
aaa(lp2165
g2146
a(lp2166
S'so'
p2167
aS'thats'
p2168
aS'why'
p2169
aS'they'
p2170
aS'were'
p2171
aS'staying'
p2172
aS'away'
p2173
aS'from'
p2174
aS'him'
p2175
aaa(lp2176
g2146
a(lp2177
S'And'
p2178
aS'uh'
p2179
aaa(lp2180
g2146
a(lp2181
S'we'
p2182
aS'had'
p2183
aS'to'
p2184
aS'hold'
p2185
aS'him'
p2186
aS'down'
p2187
aS'for'
p2188
aS'them'
p2189
aS'to'
p2190
aS'give'
p2191
aS'him'
p2192
ag126
aS'shot'
p2193
aS'in'
p2194
aS'his'
p2195
aS'thigh'
p2196
aaa(lp2197
S'LISA'
p2198
a(lp2199
g724
aS'shot'
p2200
aaa(lp2201
g2198
a(lp2202
S'whyd'
p2203
aS'they'
p2204
aS'give'
p2205
aS'him'
p2206
ag126
aS'shot'
p2207
aaa(lp2208
S'MARIE'
p2209
a(lp2210
S'To'
p2211
aS'make'
p2212
aS'the'
p2213
aS'swelling'
p2214
aS'go'
p2215
aS'down'
p2216
aS'in'
p2217
aS'his'
p2218
aS'throat'
p2219
aaa(lp2220
S'KEVIN'
p2221
a(lp2222
S'Oh'
p2223
aaa(lp2224
g2221
a(lp2225
S'did'
p2226
aS'he'
p2227
aS'get'
p2228
aS'it'
p2229
aS'in'
p2230
aS'his'
p2231
aS'bottom'
p2232
aaa(lp2233
S'MARIE'
p2234
a(lp2235
S'No'
p2236
aaa(lp2237
g2234
a(lp2238
S'right'
p2239
aS'here'
p2240
aS'in'
p2241
aS'his'
p2242
aS'thigh'
p2243
aaa(lp2244
S'KEVIN'
p2245
a(lp2246
S'How'
p2247
aS'is'
p2248
aS'he'
p2249
aS'about'
p2250
aS'shots'
p2251
aaa(lp2252
S'MARIE'
p2253
a(lp2254
S'He'
p2255
aS'cries'
p2256
aaa(lp2257
S'LISA'
p2258
a(lp2259
S'Probably'
p2260
aS'not'
p2261
aS'good'
p2262
aS'anymore'
p2263
aaa(lp2264
S'KEVIN'
p2265
a(lp2266
aa(lp2267
S'LISA'
p2268
a(lp2269
aa(lp2270
S'MARIE'
p2271
a(lp2272
g40
aS'remember'
p2273
aS'the'
p2274
aS'first'
p2275
aS'time'
p2276
ag40
aS'took'
p2277
aS'him'
p2278
aS'for'
p2279
ag126
aS'shot'
p2280
aaa(lp2281
g2271
a(lp2282
S'You'
p2283
aS'know'
p2284
aS'he'
p2285
aS'was'
p2286
ag7
aS'just'
p2287
aS'little'
p2288
ag7
aaa(lp2289
S'LISA'
p2290
a(lp2291
S'He'
p2292
aS'did'
p2293
aS'not'
p2294
aS'care'
p2295
aS'at'
p2296
aS'all'
p2297
aaa(lp2298
g2290
a(lp2299
S'Hes'
p2300
aS'all'
p2301
aaa(lp2302
S'KEVIN'
p2303
a(lp2304
aa(lp2305
S'LISA'
p2306
a(lp2307
S'happygolucky'
p2308
aaa(lp2309
S'KEVIN'
p2310
a(lp2311
S'VOXSING'
p2312
aS'Dee'
p2313
aS'dee'
p2314
aS'ddee'
p2315
aS'SINGVOX'
p2316
aaa(lp2317
S'MARIE'
p2318
a(lp2319
S'He'
p2320
aS'was'
p2321
aS'all'
p2322
aaa(lp2323
g2318
a(lp2324
S'VOX'
p2325
aS'aah'
p2326
aaa(lp2327
g2318
a(lp2328
S'aah'
p2329
aS'VOX'
p2330
aaa(lp2331
g2318
a(lp2332
S'like'
p2333
aS'that'
p2334
aaa(lp2335
g2318
a(lp2336
S'And'
p2337
aS'then'
p2338
aS'after'
p2339
aS'that'
p2340
aS'it'
p2341
aS'was'
p2342
aS'okay'
p2343
aaa(lp2344
g2318
a(lp2345
S'And'
p2346
aS'then'
p2347
aS'like'
p2348
aaa(lp2349
S'KEVIN'
p2350
a(lp2351
aa(lp2352
g2350
a(lp2353
S'Thats'
p2354
aS'good'
p2355
aaa(lp2356
S'MARIE'
p2357
a(lp2358
S'the'
p2359
aS'next'
p2360
aS'time'
p2361
ag40
aS'took'
p2362
aS'him'
p2363
aS'hes'
p2364
aS'all'
p2365
aaa(lp2366
g2357
a(lp2367
g40
aS'was'
p2368
aS'all'
p2369
aS'VOX'
p2370
aS'oh'
p2371
aS'my'
p2372
aS'God'
p2373
aS'VOX'
p2374
aaa(lp2375
S'KEVIN'
p2376
a(lp2377
aa(lp2378
S'MARIE'
p2379
a(lp2380
S'And'
p2381
aS'then'
p2382
ag40
aS'picked'
p2383
aS'him'
p2384
aS'up'
p2385
aaa(lp2386
S'LISA'
p2387
a(lp2388
S'XX'
p2389
aaa(lp2390
S'MARIE'
p2391
a(lp2392
S'and'
p2393
aS'his'
p2394
aS'legs'
p2395
aS'were'
p2396
aS'bleeding'
p2397
aS'and'
p2398
aS'stuff'
p2399
aaa(lp2400
g2391
a(lp2401
S'and'
p2402
ag40
aS'had'
p2403
aS'blood'
p2404
aS'all'
p2405
aS'on'
p2406
aS'my'
p2407
aS'shirt'
p2408
aaa(lp2409
g2391
a(lp2410
S'and'
p2411
ag40
aS'was'
p2412
aS'all'
p2413
aS'VOX'
p2414
aS'oh'
p2415
aS'my'
p2416
aS'God'
p2417
aS'VOX'
p2418
aaa(lp2419
S'LISA'
p2420
a(lp2421
S'Blood'
p2422
aaa(lp2423
S'MARIE'
p2424
a(lp2425
S'Blood'
p2426
aaa(lp2427
g2424
a(lp2428
S'cause'
p2429
aS'he'
p2430
aS'bleeds'
p2431
aaa(lp2432
g2424
a(lp2433
S'After'
p2434
aS'they'
p2435
aS'give'
p2436
aS'him'
p2437
ag126
aS'shot'
p2438
aaa(lp2439
S'KEVIN'
p2440
a(lp2441
S'But'
p2442
aS'dont'
p2443
aS'they'
p2444
aaa(lp2445
g2440
a(lp2446
S'like'
p2447
aS'put'
p2448
ag126
aS'thing'
p2449
aS'on'
p2450
aS'it'
p2451
aS'right'
p2452
aS'after'
p2453
aaa(lp2454
S'LISA'
p2455
a(lp2456
S'But'
p2457
aS'that'
p2458
aS'much'
p2459
aaa(lp2460
S'MARIE'
p2461
a(lp2462
S'No'
p2463
aaa(lp2464
g2461
a(lp2465
S'but'
p2466
aS'it'
p2467
aS'was'
p2468
aS'just'
p2469
aS'coming'
p2470
aS'out'
p2471
aaa(lp2472
g2461
a(lp2473
S'Do'
p2474
aS'you'
p2475
aS'know'
p2476
aS'what'
p2477
ag40
aS'mean'
p2478
aaa(lp2479
g2461
a(lp2480
S'it'
p2481
aS'was'
p2482
aS'like'
p2483
aaa(lp2484
g2461
a(lp2485
S'mm'
p2486
aaa(lp2487
S'KEVIN'
p2488
a(lp2489
S'Well'
p2490
aS'they'
p2491
aS'shouldve'
p2492
aS'have'
p2493
aS'put'
p2494
aaa(lp2495
g2488
a(lp2496
g40
aS'mean'
p2497
aS'usually'
p2498
aS'you'
p2499
aS'know'
p2500
aS'like'
p2501
aS'when'
p2502
aS'you'
p2503
aS'like'
p2504
aS'give'
p2505
aS'blood'
p2506
aaa(lp2507
S'MARIE'
p2508
a(lp2509
g724
aS'bandaid'
p2510
aaa(lp2511
S'LISA'
p2512
a(lp2513
S'But'
p2514
aS'it'
p2515
aS'wasnt'
p2516
aS'all'
p2517
aS'over'
p2518
aaa(lp2519
S'KEVIN'
p2520
a(lp2521
S'they'
p2522
aS'use'
p2523
aaa(lp2524
S'LISA'
p2525
a(lp2526
S'it'
p2527
aS'was'
p2528
aS'just'
p2529
aS'like'
p2530
aaa(lp2531
g2525
a(lp2532
g126
aS'little'
p2533
aS'dribble'
p2534
aaa(lp2535
S'MARIE'
p2536
a(lp2537
S'It'
p2538
aS'had'
p2539
aaa(lp2540
g2536
a(lp2541
S'N_yeah'
p2542
aS'no'
p2543
aaa(lp2544
g2536
a(lp2545
S'it'
p2546
aS'had'
p2547
aS'gotten'
p2548
aS'on'
p2549
aS'my'
p2550
aS'shirt'
p2551
aaa(lp2552
g2536
a(lp2553
S'and'
p2554
ag40
aS'was'
p2555
aS'just'
p2556
aS'all'
p2557
aS'VOX'
p2558
aS'oh'
p2559
aS'my'
p2560
aS'God'
p2561
aaa(lp2562
S'LISA'
p2563
a(lp2564
S'Oh'
p2565
aaa(lp2566
g2563
a(lp2567
S'my'
p2568
aS'childs'
p2569
aS'bleeding'
p2570
aS'VOX'
p2571
aaa(lp2572
S'KEVIN'
p2573
a(lp2574
g723
aS'Baby'
p2575
aS'blood'
p2576
ag723
aaa(lp2577
S'LISA'
p2578
a(lp2579
g723
aS'Baby'
p2580
aS'blood'
p2581
ag723
aaa(lp2582
g2578
a(lp2583
S'Watch'
p2584
aS'out'
p2585
aS'for'
p2586
aS'that'
p2587
aS'glass'
p2588
aaa(lp2589
g2578
a(lp2590
S'Hes'
p2591
aS'looking'
p2592
aS'at'
p2593
aS'it'
p2594
aaa(lp2595
S'MARIE'
p2596
a(lp2597
S'Ill'
p2598
aS'trade'
p2599
aS'you'
p2600
aaa(lp2601
S'KEVIN'
p2602
a(lp2603
S'Is'
p2604
aS'it'
p2605
aS'mine'
p2606
aaa(lp2607
S'MARIE'
p2608
a(lp2609
S'See'
p2610
aS'Im'
p2611
aS'not'
p2612
aS'supposed'
p2613
aS'to'
p2614
aS'give'
p2615
aS'him'
p2616
aS'juice'
p2617
aS'in'
p2618
ag126
aS'bottle'
p2619
aaa(lp2620
g2608
a(lp2621
S'Hes'
p2622
aS'supposed'
p2623
aS'to'
p2624
aS'drink'
p2625
aS'it'
p2626
aS'out'
p2627
aS'of'
p2628
ag126
aS'cup'
p2629
aaa(lp2630
S'LISA'
p2631
a(lp2632
S'Why'
p2633
aS'not'
p2634
aaa(lp2635
S'KEVIN'
p2636
a(lp2637
S'Oh'
p2638
aS'cause'
p2639
aS'all'
p2640
aS'the'
p2641
aS'air'
p2642
aaa(lp2643
S'MARIE'
p2644
a(lp2645
S'He'
p2646
aaa(lp2647
g2644
a(lp2648
S'No'
p2649
aaa(lp2650
S'LISA'
p2651
a(lp2652
S'No'
p2653
aS'cause'
p2654
aaa(lp2655
S'MARIE'
p2656
a(lp2657
S'theyre'
p2658
aS'get'
p2659
aS'baby'
p2660
aS'bottle'
p2661
aS'tooth'
p2662
aS'decay'
p2663
aaa(lp2664
S'LISA'
p2665
a(lp2666
aa(lp2667
S'MARIE'
p2668
a(lp2669
S'From'
p2670
aS'drinking'
p2671
aaa(lp2672
g2668
a(lp2673
S'um'
p2674
aaa(lp2675
g2668
a(lp2676
S'juice'
p2677
aS'and'
p2678
aS'stuff'
p2679
aS'out'
p2680
aS'of'
p2681
aS'bottles'
p2682
aaa(lp2683
g2668
a(lp2684
S'because'
p2685
aS'the'
p2686
aS'um'
p2687
aaa(lp2688
S'KEVIN'
p2689
a(lp2690
S'The'
p2691
aS'sugar'
p2692
aS'just'
p2693
aS'stays'
p2694
aS'right'
p2695
aS'there'
p2696
aaa(lp2697
S'MARIE'
p2698
a(lp2699
S'Mhm'
p2700
aaa(lp2701
S'LISA'
p2702
a(lp2703
S'Explain'
p2704
aS'it'
p2705
aS'Marie'
p2706
aaa(lp2707
S'MARIE'
p2708
a(lp2709
S'Your'
p2710
aS'brother'
p2711
aS'did'
p2712
aaa(lp2713
g2708
a(lp2714
S'so'
p2715
aS'there'
p2716
aS'you'
p2717
aS'go'
p2718
aaa(lp2719
S'KEVIN'
p2720
a(lp2721
aa(lp2722
S'MARIE'
p2723
a(lp2724
aa(lp2725
S'LISA'
p2726
a(lp2727
S'That'
p2728
aS'doesnt'
p2729
aS'make'
p2730
aS'sense'
p2731
aS'to'
p2732
aS'me'
p2733
aaa(lp2734
g2726
a(lp2735
S'Why'
p2736
aS'sh'
p2737
aaa(lp2738
S'MARIE'
p2739
a(lp2740
S'Because'
p2741
aS'when'
p2742
aS'they'
p2743
aS'just'
p2744
aS'leave'
p2745
aS'it'
p2746
aS'in'
p2747
aS'their'
p2748
aS'mouth'
p2749
aaa(lp2750
g2739
a(lp2751
S'the'
p2752
aS'juice'
p2753
aS'just'
p2754
aaa(lp2755
S'LISA'
p2756
a(lp2757
S'Oh'
p2758
aS'cause'
p2759
aS'they'
p2760
aS'dont'
p2761
aS'swallow'
p2762
aS'it'
p2763
aS'right'
p2764
aS'away'
p2765
aS'you'
p2766
aS'mean'
p2767
aaa(lp2768
g2756
a(lp2769
S'They'
p2770
aS'just'
p2771
ag7
aS'gur'
p2772
ag7
aaa(lp2773
S'MARIE'
p2774
a(lp2775
S'Yeah'
p2776
aaa(lp2777
g2774
a(lp2778
S'and'
p2779
aS'in'
p2780
ag126
aS'cup'
p2781
aS'they'
p2782
aaa(lp2783
g2774
a(lp2784
S'you'
p2785
aS'know'
p2786
aS'they'
p2787
aaa(lp2788
S'LISA'
p2789
a(lp2790
S'Mm'
p2791
aaa(lp2792
S'MARIE'
p2793
a(lp2794
S'drink'
p2795
aS'it'
p2796
aS'right'
p2797
aS'away'
p2798
aaa(lp2799
S'KEVIN'
p2800
a(lp2801
S'S'
p2802
aS'is'
p2803
aS'he'
p2804
aS'good'
p2805
aS'at'
p2806
aS'drinking'
p2807
aS'out'
p2808
aS'of'
p2809
aS'cups'
p2810
aaa(lp2811
g2800
a(lp2812
S'Or'
p2813
aaa(lp2814
S'MARIE'
p2815
a(lp2816
g2802
aaa(lp2817
g2815
a(lp2818
S'Sometimes'
p2819
aaa(lp2820
S'KEVIN'
p2821
a(lp2822
aa(lp2823
S'MARIE'
p2824
a(lp2825
S'sometimes'
p2826
aS'hes'
p2827
ag126
aaa(lp2828
S'LISA'
p2829
a(lp2830
S'Well'
p2831
aS'he'
p2832
aS'just'
p2833
aaa(lp2834
g2829
a(lp2835
S'Sometimes'
p2836
aS'hes'
p2837
aS'like'
p2838
aaa(lp2839
g2829
a(lp2840
S'okay'
p2841
aS'Im'
p2842
aS'not'
p2843
aS'getting'
p2844
aS'enough'
p2845
aaa(lp2846
g2829
a(lp2847
S'And'
p2848
aS'he'
p2849
aS'pulls'
p2850
aS'it'
p2851
ag7
aS'you'
p2852
aS'know'
p2853
ag7
aaa(lp2854
g2829
a(lp2855
S'doof'
p2856
aaa(lp2857
S'MARIE'
p2858
a(lp2859
S'And'
p2860
aS'he'
p2861
aS'has'
p2862
aS'it'
p2863
aS'all'
p2864
aS'over'
p2865
aaa(lp2866
S'LISA'
p2867
a(lp2868
S'Its'
p2869
aS'all'
p2870
aS'over'
p2871
aaa(lp2872
S'MARIE'
p2873
a(lp2874
aa(lp2875
S'LISA'
p2876
a(lp2877
S'Yeah'
p2878
aaa(lp2879
S'KEVIN'
p2880
a(lp2881
S'Well'
p2882
aS'do'
p2883
aS'you'
p2884
aS'ever'
p2885
aS'try'
p2886
aS'those'
p2887
aS'little'
p2888
aS'baby'
p2889
aS'cups'
p2890
aaa(lp2891
S'LISA'
p2892
a(lp2893
S'it'
p2894
aS'gets'
p2895
aS'all'
p2896
aS'wet'
p2897
aaa(lp2898
S'KEVIN'
p2899
a(lp2900
S'that'
p2901
aS'have'
p2902
ag126
aS'lid'
p2903
aS'on'
p2904
aS'it'
p2905
aaa(lp2906
S'LISA'
p2907
a(lp2908
S'Yeah'
p2909
aS'hes'
p2910
aS'got'
p2911
aS'one'
p2912
aaa(lp2913
S'KEVIN'
p2914
a(lp2915
S'And'
p2916
aaa(lp2917
S'MARIE'
p2918
a(lp2919
S'Yeah'
p2920
aS'but'
p2921
aS'he'
p2922
aS'just'
p2923
aS'goes'
p2924
aS'like'
p2925
aS'that'
p2926
aaa(lp2927
g2918
a(lp2928
S'And'
p2929
ag7
aS'lah'
p2930
ag7
aaa(lp2931
S'KEVIN'
p2932
a(lp2933
aa(lp2934
S'LISA'
p2935
a(lp2936
S'He'
p2937
aS'thinks'
p2938
aS'its'
p2939
aS'like'
p2940
ag126
aS'bottle'
p2941
aaa(lp2942
g2935
a(lp2943
S'That'
p2944
aS'he'
p2945
aS'can'
p2946
aS'just'
p2947
aaa(lp2948
S'KEVIN'
p2949
a(lp2950
aa(lp2951
S'MARIE'
p2952
a(lp2953
S'Mhm'
p2954
aaa(lp2955
S'KEVIN'
p2956
a(lp2957
aa(lp2958
S'MARIE'
p2959
a(lp2960
S'So'
p2961
aS'we'
p2962
aS'just'
p2963
aaa(lp2964
S'KEVIN'
p2965
a(lp2966
S'VOX'
p2967
aS'You'
p2968
aS'dont'
p2969
aS'understand'
p2970
aS'VOX'
p2971
aaa(lp2972
S'MARIE'
p2973
a(lp2974
S'So'
p2975
aS'we'
p2976
aS'just'
p2977
aS'give'
p2978
aS'him'
p2979
aS'the'
p2980
aS'cup'
p2981
aaa(lp2982
g2973
a(lp2983
S'He'
p2984
aS'has'
p2985
ag126
aS'little'
p2986
aS'cup'
p2987
aS'too'
p2988
aaa(lp2989
g2973
a(lp2990
g723
aS'Its'
p2991
aS'really'
p2992
aS'cute'
p2993
ag723
aaa(lp2994
S'KEVIN'
p2995
a(lp2996
S'Did'
p2997
aS'it'
p2998
aS'have'
p2999
aS'two'
p3000
aS'handles'
p3001
aS'or'
p3002
aaa(lp3003
S'LISA'
p3004
a(lp3005
S'Yeah'
p3006
aaa(lp3007
S'MARIE'
p3008
a(lp3009
S'It'
p3010
aS'just'
p3011
aS'has'
p3012
aS'one'
p3013
aaa(lp3014
g3008
a(lp3015
g40
aS'have'
p3016
aS'one'
p3017
aS'that'
p3018
aS'doesnt'
p3019
aS'have'
p3020
aS'any'
p3021
aS'handles'
p3022
aS'at'
p3023
aS'all'
p3024
aaa(lp3025
S'LISA'
p3026
a(lp3027
S'Yeah'
p3028
aaa(lp3029
g3026
a(lp3030
S'Gimme'
p3031
aaa(lp3032
S'MARIE'
p3033
a(lp3034
S'But'
p3035
aS'um'
p3036
aaa(lp3037
g3033
a(lp3038
S'this'
p3039
aS'one'
p3040
aS'we'
p3041
aS'bought'
p3042
aS'him'
p3043
aS'its'
p3044
ag126
aS'Christmas'
p3045
aS'cup'
p3046
aaa(lp3047
S'KEVIN'
p3048
a(lp3049
S'Oh'
p3050
aaa(lp3051
S'MARIE'
p3052
a(lp3053
S'M'
p3054
ag126
aS's'
p3055
aaa(lp3056
S'LISA'
p3057
a(lp3058
S'You'
p3059
aS'bought'
p3060
aS'him'
p3061
ag126
aS'Christmas'
p3062
aS'cup'
p3063
aaa(lp3064
S'MARIE'
p3065
a(lp3066
g724
aS'snowman'
p3067
aaa(lp3068
g3065
a(lp3069
S'Did'
p3070
aS'you'
p3071
aS'see'
p3072
aS'his'
p3073
aS'ornament'
p3074
aaa(lp3075
g3065
a(lp3076
S'You'
p3077
aS'saw'
p3078
aS'it'
p3079
aaa(lp3080
g3065
a(lp3081
g40
aS'dont'
p3082
aS'know'
p3083
aS'what'
p3084
aS'Michael'
p3085
aS'did'
p3086
aS'with'
p3087
aS'the'
p3088
aS'one'
p3089
aS'from'
p3090
aS'your'
p3091
aS'parents'
p3092
aaa(lp3093
S'LISA'
p3094
a(lp3095
S'From'
p3096
aS'his'
p3097
aS'Nina'
p3098
aaa(lp3099
S'MARIE'
p3100
a(lp3101
g40
aS'know'
p3102
aaa(lp3103
S'LISA'
p3104
a(lp3105
aa(lp3106
S'MARIE'
p3107
a(lp3108
g40
aS'was'
p3109
aS'all'
p3110
aS'witch'
p3111
aS'to'
p3112
aS'her'
p3113
aaa(lp3114
g3107
a(lp3115
g40
aS'was'
p3116
aS'all'
p3117
aaa(lp3118
g3107
a(lp3119
S'did'
p3120
aS'you'
p3121
aS'spell'
p3122
aS'his'
p3123
aS'name'
p3124
aaa(lp3125
g3107
a(lp3126
S'and'
p3127
aS'shes'
p3128
aS'all'
p3129
aaa(lp3130
g3107
a(lp3131
S'no'
p3132
aaa(lp3133
g3107
a(lp3134
g40
aS'was'
p3135
aS'all'
p3136
aaa(lp3137
g3107
a(lp3138
S'no'
p3139
aaa(lp3140
g3107
a(lp3141
S'Shes'
p3142
aS'all'
p3143
ag7
aaa(lp3144
S'LISA'
p3145
a(lp3146
S'She'
p3147
aS'doesnt'
p3148
aS'even'
p3149
aS'catch'
p3150
aS'it'
p3151
aaa(lp3152
S'MARIE'
p3153
a(lp3154
S'So'
p3155
aaa(lp3156
g3153
a(lp3157
S'Well'
p3158
aS'they'
p3159
aS'dont'
p3160
aS'know'
p3161
aaa(lp3162
S'LISA'
p3163
a(lp3164
S'XX'
p3165
aS'XX'
p3166
aaa(lp3167
S'MARIE'
p3168
a(lp3169
S'nobody'
p3170
aS'knows'
p3171
aS'how'
p3172
aS'to'
p3173
aS'spell'
p3174
aS'his'
p3175
aS'name'
p3176
aaa(lp3177
g3168
a(lp3178
S'they'
p3179
aS'always'
p3180
aaa(lp3181
S'LISA'
p3182
a(lp3183
g40
aS'mean'
p3184
aS'the'
p3185
aaa(lp3186
g3182
a(lp3187
S'Thats'
p3188
aS'not'
p3189
aS'his'
p3190
aS'Nina'
p3191
aaa(lp3192
S'KEVIN'
p3193
a(lp3194
g40
aS'es'
p3195
aS'es'
p3196
ag126
aS'si'
p3197
aaa(lp3198
g3193
a(lp3199
S'Is'
p3200
aS'there'
p3201
aS'two'
p3202
aS'sis'
p3203
aaa(lp3204
S'MARIE'
p3205
a(lp3206
S'No'
p3207
aaa(lp3208
g3205
a(lp3209
S'theres'
p3210
aS'just'
p3211
aS'one'
p3212
aaa(lp3213
S'LISA'
p3214
a(lp3215
S'No'
p3216
aaa(lp3217
g3214
a(lp3218
S'But'
p3219
aaa(lp3220
g3214
a(lp3221
S'usually'
p3222
aS'its'
p3223
aaa(lp3224
g3214
a(lp3225
g338
aS'es'
p3226
ag126
ag126
aS'si'
p3227
aaa(lp3228
S'MARIE'
p3229
a(lp3230
g724
ag126
aS'si'
p3231
aaa(lp3232
g3229
a(lp3233
S'Theres'
p3234
aS'always'
p3235
aS'two'
p3236
aS'as'
p3237
aS'in'
p3238
aS'Isaac'
p3239
aaa(lp3240
S'KEVIN'
p3241
a(lp3242
S'And'
p3243
aS'you'
p3244
aS'just'
p3245
aS'made'
p3246
aS'it'
p3247
aS'one'
p3248
aaa(lp3249
S'MARIE'
p3250
a(lp3251
S'Mhm'
p3252
aaa(lp3253
S'LISA'
p3254
a(lp3255
S'Well'
p3256
aS'theres'
p3257
aS'two'
p3258
aS'ways'
p3259
aS'of'
p3260
aS'spelling'
p3261
aS'it'
p3262
aaa(lp3263
S'MARIE'
p3264
a(lp3265
S'Yeah'
p3266
aaa(lp3267
g3264
a(lp3268
S'well'
p3269
aS'theres'
p3270
aS'like'
p3271
aaa(lp3272
S'LISA'
p3273
a(lp3274
S'Its'
p3275
aS'not'
p3276
aS'like'
p3277
aS'one'
p3278
aS'w'
p3279
aaa(lp3280
S'KEVIN'
p3281
a(lp3282
S'Thats'
p3283
aS'the'
p3284
aS'more'
p3285
aS'Semitic'
p3286
aaa(lp3287
S'LISA'
p3288
a(lp3289
S'Its'
p3290
aS'not'
p3291
aS'like'
p3292
aS'his'
p3293
aS'is'
p3294
aS'wrong'
p3295
aS'or'
p3296
aS'something'
p3297
aaa(lp3298
S'MARIE'
p3299
a(lp3300
S'Well'
p3301
aS'theres'
p3302
ag126
aS'lot'
p3303
aS'more'
p3304
aS'you'
p3305
aS'c'
p3306
aaa(lp3307
S'BABY'
p3308
a(lp3309
aa(lp3310
S'LISA'
p3311
a(lp3312
aa(lp3313
S'KEVIN'
p3314
a(lp3315
aa(lp3316
S'LISA'
p3317
a(lp3318
S'Oo'
p3319
aaa(lp3320
S'KEVIN'
p3321
a(lp3322
S'Oo'
p3323
aaa(lp3324
S'MARIE'
p3325
a(lp3326
S'Dont'
p3327
aS'do'
p3328
aS'that'
p3329
aS'you'
p3330
aS'guys'
p3331
aaa(lp3332
S'BABY'
p3333
a(lp3334
aa(lp3335
S'LISA'
p3336
a(lp3337
S'But'
p3338
aS'that'
p3339
aS'hurts'
p3340
aaa(lp3341
S'KEVIN'
p3342
a(lp3343
g498
aS'Pobrecito'
p3344
ag498
aaa(lp3345
S'MARIE'
p3346
a(lp3347
g40
aS'know'
p3348
aaa(lp3349
g3346
a(lp3350
S'but'
p3351
aS'dont'
p3352
aS'do'
p3353
aS'that'
p3354
aaa(lp3355
g3346
a(lp3356
S'cause'
p3357
aS'you'
p3358
aS'scare'
p3359
aS'him'
p3360
aS'more'
p3361
aaa(lp3362
S'LISA'
p3363
a(lp3364
S'Im'
p3365
aS'sorry'
p3366
aaa(lp3367
S'KEVIN'
p3368
a(lp3369
aa(lp3370
S'LISA'
p3371
a(lp3372
aa(lp3373
g3371
a(lp3374
S'That'
p3375
aS'just'
p3376
aaa(lp3377
S'MARIE'
p3378
a(lp3379
S'He'
p3380
aS'gets'
p3381
aS'scared'
p3382
aS'more'
p3383
aaa(lp3384
S'LISA'
p3385
a(lp3386
S'Im'
p3387
aS'sorry'
p3388
ag498
aS'jito'
p3389
ag498
aaa(lp3390
S'MARIE'
p3391
a(lp3392
S'Cause'
p3393
aS'he'
p3394
aS'didnt'
p3395
aaa(lp3396
S'BABY'
p3397
a(lp3398
aa(lp3399
S'KEVIN'
p3400
a(lp3401
S'He'
p3402
aS'didnt'
p3403
aS'know'
p3404
aS'it'
p3405
aS'hurt'
p3406
aaa(lp3407
g3400
a(lp3408
S'until'
p3409
aS'we'
p3410
aS'reacted'
p3411
aaa(lp3412
S'LISA'
p3413
a(lp3414
S'He'
p3415
aS'knew'
p3416
aS'that'
p3417
aS'hurt'
p3418
aaa(lp3419
S'KEVIN'
p3420
a(lp3421
aa(lp3422
S'MARIE'
p3423
a(lp3424
S'Yeah'
p3425
aaa(lp3426
g3423
a(lp3427
S'but'
p3428
aS'he'
p3429
aS'wouldve'
p3430
aS'just'
p3431
aS'like'
p3432
aS'XX'
p3433
aaa(lp3434
S'LISA'
p3435
a(lp3436
g40
aS'know'
p3437
aaa(lp3438
S'MARIE'
p3439
a(lp3440
S'And'
p3441
aS'he'
p3442
aS'just'
p3443
aaa(lp3444
g3439
a(lp3445
S'You'
p3446
aS'guys'
p3447
aS'like'
p3448
aaa(lp3449
g3439
a(lp3450
S'oh'
p3451
aS'my'
p3452
aS'God'
p3453
aaa(lp3454
S'KEVIN'
p3455
a(lp3456
aa(lp3457
S'MARIE'
p3458
a(lp3459
S'Yeah'
p3460
aaa(lp3461
S'KEVIN'
p3462
a(lp3463
S'VOX'
p3464
aS'Whats'
p3465
aS'wrong'
p3466
aS'VOX'
p3467
aaa(lp3468
S'LISA'
p3469
a(lp3470
S'Cause'
p3471
aS'like'
p3472
aS'that'
p3473
aS'was'
p3474
aS'hard'
p3475
aaa(lp3476
S'KEVIN'
p3477
a(lp3478
aa(lp3479
S'LISA'
p3480
a(lp3481
S'If'
p3482
aS'he'
p3483
aS'had'
p3484
aS'just'
p3485
aS'gone'
p3486
aaa(lp3487
g3480
a(lp3488
S'XX'
p3489
ag7
aS'XX'
p3490
aS'XXX'
p3491
aaa(lp3492
S'KEVIN'
p3493
a(lp3494
S'WH'
p3495
aS'That'
p3496
aS'was'
p3497
aS'loud'
p3498
aS'WH'
p3499
aaa(lp3500
S'LISA'
p3501
a(lp3502
S'Oh'
p3503
aaa(lp3504
S'MARIE'
p3505
a(lp3506
S'Its'
p3507
ag7
aaa(lp3508
S'LISA'
p3509
a(lp3510
S'It'
p3511
aS'echoes'
p3512
aaa(lp3513
S'MARIE'
p3514
a(lp3515
S'XX'
p3516
aaa(lp3517
S'KEVIN'
p3518
a(lp3519
S'It'
p3520
aS'echoes'
p3521
aS'here'
p3522
aaa(lp3523
S'LISA'
p3524
a(lp3525
S'But'
p3526
aS'its'
p3527
aS'not'
p3528
aS'as'
p3529
aS'bad'
p3530
aS'as'
p3531
aS'it'
p3532
aS'was'
p3533
aaa(lp3534
S'MARIE'
p3535
a(lp3536
aa(lp3537
S'KEVIN'
p3538
a(lp3539
g724
aS'very'
p3540
aS'resonant'
p3541
aS'table'
p3542
aaa(lp3543
S'MARIE'
p3544
a(lp3545
S'See'
p3546
aaa(lp3547
S'KEVIN'
p3548
a(lp3549
S'All'
p3550
aS'better'
p3551
aaa(lp3552
S'MARIE'
p3553
a(lp3554
aa(lp3555
g3553
a(lp3556
S'Thats'
p3557
aS'abracadabra'
p3558
aaa(lp3559
S'KEVIN'
p3560
a(lp3561
S'Fine'
p3562
aaa(lp3563
g3560
a(lp3564
S'ready'
p3565
aS'to'
p3566
aS'drink'
p3567
aS'some'
p3568
aS'more'
p3569
aaa(lp3570
g3560
a(lp3571
S'no'
p3572
aS'problem'
p3573
aaa(lp3574
S'LISA'
p3575
a(lp3576
g7
aS'Golly'
p3577
ag7
aaa(lp3578
S'MARIE'
p3579
a(lp3580
aa(lp3581
S'LISA'
p3582
a(lp3583
aa(lp3584
S'KEVIN'
p3585
a(lp3586
S'VOX'
p3587
aS'Gong'
p3588
aS'gong'
p3589
aS'gong'
p3590
aS'gong'
p3591
aS'VOX'
p3592
aaa(lp3593
g3585
a(lp3594
S'you'
p3595
aS'need'
p3596
aS'juice'
p3597
aS'now'
p3598
aaa(lp3599
S'LISA'
p3600
a(lp3601
S'Poor'
p3602
aS'thing'
p3603
aaa(lp3604
g3600
a(lp3605
S'Okay'
p3606
aaa(lp3607
S'MARIE'
p3608
a(lp3609
S'Did'
p3610
aS'they'
p3611
aS'scare'
p3612
aS'you'
p3613
aaa(lp3614
S'LISA'
p3615
a(lp3616
S'it'
p3617
aS'sounded'
p3618
aS'worse'
p3619
aS'than'
p3620
aS'it'
p3621
aS'was'
p3622
aaa(lp3623
g3615
a(lp3624
g40
aS'was'
p3625
aS'like'
p3626
aaa(lp3627
g3615
a(lp3628
S'dang'
p3629
aaa(lp3630
g3615
a(lp3631
S'look'
p3632
aS'for'
p3633
aS'blood'
p3634
aaa(lp3635
S'KEVIN'
p3636
a(lp3637
aa(lp3638
S'MARIE'
p3639
a(lp3640
aa(lp3641
S'LISA'
p3642
a(lp3643
S'HI'
p3644
aS'It'
p3645
aS'didnt'
p3646
aS'it'
p3647
aS'sound'
p3648
aS'loud'
p3649
aS'to'
p3650
aS'you'
p3651
aS'HI'
p3652
aaa(lp3653
S'MARIE'
p3654
a(lp3655
S'Well'
p3656
ag40
aS'th'
p3657
aaa(lp3658
S'LISA'
p3659
a(lp3660
S'Youre'
p3661
aS'used'
p3662
aS'to'
p3663
aS'this'
p3664
aS'already'
p3665
aaa(lp3666
S'MARIE'
p3667
a(lp3668
S'Mhm'
p3669
aaa(lp3670
S'KEVIN'
p3671
a(lp3672
aa(lp3673
S'MARIE'
p3674
a(lp3675
S'He'
p3676
aS'crawls'
p3677
aS'un'
p3678
aS'underneath'
p3679
aaa(lp3680
g3674
a(lp3681
S'hits'
p3682
aS'his'
p3683
aS'head'
p3684
aS'on'
p3685
aS'it'
p3686
aaa(lp3687
g3674
a(lp3688
S'and'
p3689
aS'Im'
p3690
aS'like'
p3691
aaa(lp3692
g3674
a(lp3693
S'crawls'
p3694
aS'in'
p3695
aS'between'
p3696
aS'it'
p3697
aaa(lp3698
g3674
a(lp3699
S'And'
p3700
aS'Im'
p3701
aS'like'
p3702
aaa(lp3703
g3674
a(lp3704
S'youre'
p3705
aS'gonna'
p3706
aS'hurt'
p3707
aS'your'
p3708
aS'head'
p3709
aaa(lp3710
g3674
a(lp3711
S'And'
p3712
aS'hes'
p3713
aS'all'
p3714
aaa(lp3715
g3674
a(lp3716
S'VOX'
p3717
aS'huh'
p3718
aaa(lp3719
g3674
a(lp3720
S'Huh'
p3721
aaa(lp3722
g3674
a(lp3723
S'Huh'
p3724
aS'VOX'
p3725
aaa(lp3726
g3674
a(lp3727
g40
aS'say'
p3728
aaa(lp3729
g3674
a(lp3730
S'VOX'
p3731
aS'youre'
p3732
aS'gonna'
p3733
aS'hit'
p3734
aS'your'
p3735
aS'head'
p3736
aS'VOX'
p3737
aaa(lp3738
g3674
a(lp3739
S'VOX'
p3740
aS'Huh'
p3741
aaa(lp3742
g3674
a(lp3743
S'Huh'
p3744
aS'VOX'
p3745
aaa(lp3746
g3674
a(lp3747
S'F'
p3748
aS'Youre'
p3749
aS'gonna'
p3750
aS'hit'
p3751
aS'your'
p3752
aS'head'
p3753
ag3748
aaa(lp3754
S'LISA'
p3755
a(lp3756
S'VOX'
p3757
aS'Bonk'
p3758
aS'VOX'
p3759
aaa(lp3760
S'KEVIN'
p3761
a(lp3762
aa(lp3763
g3761
a(lp3764
S'So'
p3765
aS'hes'
p3766
ag338
aS'es'
p3767
aS'es'
p3768
ag126
aS'si'
p3769
aaa(lp3770
S'MARIE'
p3771
a(lp3772
g724
aS'si'
p3773
aaa(lp3774
S'LISA'
p3775
a(lp3776
S'Si'
p3777
aaa(lp3778
S'MARIE'
p3779
a(lp3780
S'Its'
p3781
aS'two'
p3782
aS'ess'
p3783
aaa(lp3784
g3779
a(lp3785
S'And'
p3786
aS'you'
p3787
aS'can'
p3788
aS'spell'
p3789
aS'it'
p3790
aS'with'
p3791
aS'zis'
p3792
aS'too'
p3793
aaa(lp3794
g3779
a(lp3795
S'Ive'
p3796
aS'seen'
p3797
aS'it'
p3798
ag338
aS'zi'
p3799
aS'zi'
p3800
ag126
aS'si'
p3801
aaa(lp3802
g3779
a(lp3803
S'or'
p3804
ag338
aS'zi'
p3805
ag126
ag126
aS'si'
p3806
aaa(lp3807
g3779
a(lp3808
S'thats'
p3809
aS'how'
p3810
aS'they'
p3811
aS'spelled'
p3812
aaa(lp3813
S'KEVIN'
p3814
a(lp3815
S'Or'
p3816
aS'how'
p3817
aS'about'
p3818
ag338
aS'ti'
p3819
aS'zi'
p3820
aaa(lp3821
S'LISA'
p3822
a(lp3823
S'Itzaac'
p3824
aaa(lp3825
S'KEVIN'
p3826
a(lp3827
S'Like'
p3828
aS'Itzhak'
p3829
aS'Perlman'
p3830
aaa(lp3831
S'LISA'
p3832
a(lp3833
g40
aS'think'
p3834
aS'thats'
p3835
aS'like'
p3836
aS'j'
p3837
aaa(lp3838
S'KEVIN'
p3839
a(lp3840
S'Thats'
p3841
aS'either'
p3842
aaa(lp3843
S'LISA'
p3844
a(lp3845
S'Jewish'
p3846
aaa(lp3847
S'KEVIN'
p3848
a(lp3849
aa(lp3850
S'LISA'
p3851
a(lp3852
S'Yeah'
p3853
aaa(lp3854
S'KEVIN'
p3855
a(lp3856
aa(lp3857
S'MARIE'
p3858
a(lp3859
S'Cause'
p3860
aS'in'
p3861
aS'his'
p3862
aS'baby'
p3863
aS'book'
p3864
aS'they'
p3865
aS'have'
p3866
ag126
aS'bunch'
p3867
aS'of'
p3868
aS'ways'
p3869
aS'to'
p3870
aS'spell'
p3871
aS'it'
p3872
aaa(lp3873
g3858
a(lp3874
S'And'
p3875
ag40
aS'just'
p3876
aS'spelled'
p3877
aS'it'
p3878
aS'with'
p3879
aS'two'
p3880
aS'ess'
p3881
aaa(lp3882
g3858
a(lp3883
S'it'
p3884
aS'looked'
p3885
aS'better'
p3886
aaa(lp3887
g3858
a(lp3888
g40
aS'dont'
p3889
aS'know'
p3890
aaa(lp3891
S'LISA'
p3892
a(lp3893
g40
aS'dont'
p3894
aS'know'
p3895
ag40
aaa(lp3896
S'MARIE'
p3897
a(lp3898
S'two'
p3899
aS'as'
p3900
aS'in'
p3901
ag126
aS'row'
p3902
aaa(lp3903
g3897
a(lp3904
S'just'
p3905
aS'look'
p3906
aS'ugly'
p3907
aaa(lp3908
S'LISA'
p3909
a(lp3910
S'Yeah'
p3911
aaa(lp3912
S'MARIE'
p3913
a(lp3914
aa(lp3915
S'KEVIN'
p3916
a(lp3917
S'Karon'
p3918
aaa(lp3919
S'LISA'
p3920
a(lp3921
S'Shouldve'
p3922
aS'called'
p3923
aS'him'
p3924
aS'Isaac'
p3925
aS'Saavedra'
p3926
aaa(lp3927
g3920
a(lp3928
S'And'
p3929
aS'then'
p3930
aaa(lp3931
g3920
a(lp3932
S'just'
p3933
aaa(lp3934
S'KEVIN'
p3935
a(lp3936
aa(lp3937
S'LISA'
p3938
a(lp3939
S'you'
p3940
aS'know'
p3941
aaa(lp3942
g3938
a(lp3943
S'well'
p3944
ag40
aS'mean'
p3945
aaa(lp3946
g3938
a(lp3947
S'you'
p3948
aS'know'
p3949
aS'cause'
p3950
aS'Saavedra'
p3951
aS'es'
p3952
aaa(lp3953
g3938
a(lp3954
S'its'
p3955
aS'es'
p3956
ag126
ag126
aS'too'
p3957
aaa(lp3958
S'KEVIN'
p3959
a(lp3960
g724
ag126
aaa(lp3961
S'LISA'
p3962
a(lp3963
S'So'
p3964
aS'youd'
p3965
aS'have'
p3966
aaa(lp3967
g3962
a(lp3968
S'never'
p3969
aS'mind'
p3970
aaa(lp3971
S'MARIE'
p3972
a(lp3973
g40
aS'get'
p3974
aS'it'
p3975
aaa(lp3976
S'KEVIN'
p3977
a(lp3978
S'That'
p3979
aS'looks'
p3980
aS'strange'
p3981
aaa(lp3982
S'LISA'
p3983
a(lp3984
S'Yeah'
p3985
aS'it'
p3986
aS'does'
p3987
aaa(lp3988
S'KEVIN'
p3989
a(lp3990
S'So'
p3991
aS'you'
p3992
aS'have'
p3993
ag126
aS'new'
p3994
aaa(lp3995
S'LISA'
p3996
a(lp3997
S'And'
p3998
aS'Im'
p3999
aS'always'
p4000
aS'like'
p4001
aaa(lp4002
g3996
a(lp4003
S'why'
p4004
aaa(lp4005
S'KEVIN'
p4006
a(lp4007
S'Theres'
p4008
ag126
aS'new'
p4009
aS'mayor'
p4010
aS'here'
p4011
aS'right'
p4012
aaa(lp4013
g4006
a(lp4014
g40
aS'mean'
p4015
aaa(lp4016
S'LISA'
p4017
a(lp4018
S'Yeah'
p4019
aaa(lp4020
g4017
a(lp4021
S'its'
p4022
aS'um'
p4023
aaa(lp4024
S'KEVIN'
p4025
a(lp4026
S'Martinez'
p4027
aaa(lp4028
S'LISA'
p4029
a(lp4030
S'Martin'
p4031
aS'Chavez'
p4032
aaa(lp4033
S'MARIE'
p4034
a(lp4035
S'Chavez'
p4036
aaa(lp4037
S'LISA'
p4038
a(lp4039
S'Kevin'
p4040
aS'doesnt'
p4041
aS'know'
p4042
aaa(lp4043
S'KEVIN'
p4044
a(lp4045
aa(lp4046
S'MARIE'
p4047
a(lp4048
S'Martinez'
p4049
aaa(lp4050
S'KEVIN'
p4051
a(lp4052
aa(lp4053
S'MARIE'
p4054
a(lp4055
S'Garcia'
p4056
aaa(lp4057
S'KEVIN'
p4058
a(lp4059
aa(lp4060
S'LISA'
p4061
a(lp4062
S'VOX'
p4063
ag40
aS'just'
p4064
aS'know'
p4065
aS'hes'
p4066
aS'hispanic'
p4067
aS'VOX'
p4068
aaa(lp4069
S'MARIE'
p4070
a(lp4071
S'Lucero'
p4072
aaa(lp4073
S'KEVIN'
p4074
a(lp4075
S'And'
p4076
aS'theres'
p4077
ag126
aS'Martin'
p4078
aS'XX'
p4079
aaa(lp4080
S'MARIE'
p4081
a(lp4082
aa(lp4083
S'KEVIN'
p4084
a(lp4085
S'So'
p4086
aS'hes'
p4087
aS'not'
p4088
aS'quite'
p4089
aS'as'
p4090
aS'crooked'
p4091
aS'as'
p4092
aS'Saavedra'
p4093
aaa(lp4094
S'MARIE'
p4095
a(lp4096
aa(lp4097
S'KEVIN'
p4098
a(lp4099
S'or'
p4100
aaa(lp4101
S'LISA'
p4102
a(lp4103
S'Well'
p4104
aS'we'
p4105
aS'dont'
p4106
aS'know'
p4107
aS'yet'
p4108
aaa(lp4109
S'KEVIN'
p4110
a(lp4111
S'Youll'
p4112
aS'find'
p4113
aS'out'
p4114
aS'soon'
p4115
aaa(lp4116
S'MARIE'
p4117
a(lp4118
S'Hes'
p4119
aS'kinda'
p4120
ag3279
aaa(lp4121
S'LISA'
p4122
a(lp4123
S'You'
p4124
aS'dont'
p4125
aS'like'
p4126
aS'him'
p4127
aaa(lp4128
S'MARIE'
p4129
a(lp4130
S'Yeah'
p4131
aS'he'
p4132
ag40
aS'li'
p4133
aS'hes'
p4134
aS'kinda'
p4135
aS'like'
p4136
aaa(lp4137
g4129
a(lp4138
S'down'
p4139
aS'to'
p4140
aS'earth'
p4141
ag40
aS'think'
p4142
aaa(lp4143
S'LISA'
p4144
a(lp4145
S'Oh'
p4146
aS'you'
p4147
aS'like'
p4148
aS'him'
p4149
aaa(lp4150
g4144
a(lp4151
g40
aS'thought'
p4152
aS'you'
p4153
aS'were'
p4154
aS'gonna'
p4155
aS'say'
p4156
aS'hes'
p4157
aS'kinda'
p4158
aS'weird'
p4159
aaa(lp4160
S'KEVIN'
p4161
a(lp4162
S'Wheres'
p4163
aS'he'
p4164
aS'from'
p4165
aaa(lp4166
S'LISA'
p4167
a(lp4168
aa(lp4169
S'MARIE'
p4170
a(lp4171
S'Hes'
p4172
aS'from'
p4173
aS'here'
p4174
aaa(lp4175
S'LISA'
p4176
a(lp4177
S'Hes'
p4178
aS'from'
p4179
aS'here'
p4180
aaa(lp4181
S'KEVIN'
p4182
a(lp4183
S'Oh'
p4184
aaa(lp4185
g4182
a(lp4186
g40
aS'mean'
p4187
aS'like'
p4188
aS'was'
p4189
aS'he'
p4190
aaa(lp4191
S'LISA'
p4192
a(lp4193
S'Oh'
p4194
aS'like'
p4195
aaa(lp4196
g4192
a(lp4197
S'what'
p4198
aS'part'
p4199
aS'of'
p4200
aS'town'
p4201
aaa(lp4202
S'KEVIN'
p4203
a(lp4204
S'What'
p4205
aS'was'
p4206
aS'he'
p4207
aS'affiliated'
p4208
aS'with'
p4209
aaa(lp4210
g4203
a(lp4211
g40
aS'mean'
p4212
aS'you'
p4213
aS'know'
p4214
aS'how'
p4215
aS'Saavedra'
p4216
aS'was'
p4217
aS'with'
p4218
aS'TVI'
p4219
aaa(lp4220
S'LISA'
p4221
a(lp4222
aa(lp4223
g4221
a(lp4224
S'Oh'
p4225
ag40
aS'dont'
p4226
aS'know'
p4227
aaa(lp4228
g4221
a(lp4229
g40
aS'just'
p4230
aS'knew'
p4231
ag40
aS'didnt'
p4232
aS'like'
p4233
aS'the'
p4234
aS'other'
p4235
aS'guy'
p4236
aaa(lp4237
g4221
a(lp4238
S'Who'
p4239
aS'was'
p4240
aaa(lp4241
g4221
a(lp4242
S'Dave'
p4243
aS'Cargo'
p4244
aaa(lp4245
S'KEVIN'
p4246
a(lp4247
S'Ye'
p4248
aaa(lp4249
S'LISA'
p4250
a(lp4251
S'It'
p4252
aS'was'
p4253
aS'like'
p4254
aaa(lp4255
S'KEVIN'
p4256
a(lp4257
S'oh'
p4258
aS'my'
p4259
aaa(lp4260
g4256
a(lp4261
g7
aS'he'
p4262
aS'gets'
p4263
ag126
ag7
aaa(lp4264
g4256
a(lp4265
S'You'
p4266
aS'know'
p4267
aaa(lp4268
S'LISA'
p4269
a(lp4270
S'Yeah'
p4271
aaa(lp4272
S'KEVIN'
p4273
a(lp4274
S'Yeah'
p4275
aS'he'
p4276
aS'was'
p4277
aS'governor'
p4278
aS'for'
p4279
aaa(lp4280
S'LISA'
p4281
a(lp4282
S'XX'
p4283
aaa(lp4284
g4281
a(lp4285
S'Hes'
p4286
aS'annoying'
p4287
aaa(lp4288
S'MARIE'
p4289
a(lp4290
aa(lp4291
S'KEVIN'
p4292
a(lp4293
S'For'
p4294
aS'eons'
p4295
aaa(lp4296
S'MARIE'
p4297
a(lp4298
S'Well'
p4299
aS'hes'
p4300
aS'done'
p4301
aS'okay'
p4302
aS'for'
p4303
aaa(lp4304
g4297
a(lp4305
S'for'
p4306
aS'now'
p4307
aS'that'
p4308
aS'hes'
p4309
aS'been'
p4310
aS'in'
p4311
aS'office'
p4312
aaa(lp4313
g4297
a(lp4314
S'for'
p4315
aS'the'
p4316
aS'time'
p4317
aS'hes'
p4318
aS'been'
p4319
aS'in'
p4320
aS'office'
p4321
aaa(lp4322
S'LISA'
p4323
a(lp4324
S'Yeah'
p4325
aS'he'
p4326
aaa(lp4327
g4323
a(lp4328
S'like'
p4329
aaa(lp4330
S'KEVIN'
p4331
a(lp4332
S'Since'
p4333
aS'when'
p4334
aaa(lp4335
g4331
a(lp4336
S'Well'
p4337
aS'its'
p4338
aS'just'
p4339
ag126
aS'month'
p4340
aS'or'
p4341
aS'so'
p4342
aaa(lp4343
g4331
a(lp4344
S'right'
p4345
aaa(lp4346
S'LISA'
p4347
a(lp4348
S'Yeah'
p4349
aaa(lp4350
g4347
a(lp4351
S'but'
p4352
aaa(lp4353
S'MARIE'
p4354
a(lp4355
S'Hes'
p4356
aaa(lp4357
S'LISA'
p4358
a(lp4359
S'well'
p4360
aS'but'
p4361
aS'even'
p4362
aS'before'
p4363
aS'that'
p4364
aaa(lp4365
g4358
a(lp4366
S'he'
p4367
aS'was'
p4368
aS'like'
p4369
aaa(lp4370
S'MARIE'
p4371
a(lp4372
S'He'
p4373
aS'had'
p4374
aS'like'
p4375
aS'an'
p4376
aS'inaugural'
p4377
aS'ball'
p4378
aaa(lp4379
g4371
a(lp4380
S'and'
p4381
aS'he'
p4382
aaa(lp4383
g4371
a(lp4384
S'And'
p4385
aS'like'
p4386
aS'anybody'
p4387
aS'could'
p4388
aS'go'
p4389
aS'and'
p4390
aaa(lp4391
g4371
a(lp4392
S'and'
p4393
aS'it'
p4394
aS'was'
p4395
aS'just'
p4396
aaa(lp4397
g4371
a(lp4398
S'What'
p4399
aS'was'
p4400
aS'it'
p4401
aaa(lp4402
g4371
a(lp4403
S'His'
p4404
aS'inaugural'
p4405
aS'ball'
p4406
aS'wasnt'
p4407
aS'that'
p4408
aaa(lp4409
g4371
a(lp4410
S'well'
p4411
aS'he'
p4412
aS'had'
p4413
aS'like'
p4414
aS'um'
p4415
aaa(lp4416
g4371
a(lp4417
g126
ag973
aaa(lp4418
g4371
a(lp4419
S'Uh'
p4420
aaa(lp4421
g4371
a(lp4422
S'like'
p4423
ag126
aaa(lp4424
g4371
a(lp4425
S'blue'
p4426
aS'jean'
p4427
aS'ball'
p4428
aaa(lp4429
g4371
a(lp4430
S'or'
p4431
aS'something'
p4432
aS'like'
p4433
aS'that'
p4434
aaa(lp4435
S'KEVIN'
p4436
a(lp4437
aa(lp4438
S'MARIE'
p4439
a(lp4440
S'It'
p4441
aS'was'
p4442
aS'for'
p4443
aS'his'
p4444
aS'preinaugural'
p4445
aS'ball'
p4446
aaa(lp4447
g4439
a(lp4448
S'or'
p4449
aS'something'
p4450
aS'like'
p4451
aS'that'
p4452
aaa(lp4453
g4439
a(lp4454
S'no'
p4455
aS'but'
p4456
aaa(lp4457
g4439
a(lp4458
S'you'
p4459
aS'just'
p4460
aaa(lp4461
g4439
a(lp4462
S'They'
p4463
aS'just'
p4464
aS'wore'
p4465
aS'jeans'
p4466
aaa(lp4467
S'KEVIN'
p4468
a(lp4469
S'Thats'
p4470
aS'cool'
p4471
aaa(lp4472
S'MARIE'
p4473
a(lp4474
S'They'
p4475
aS'just'
p4476
aaa(lp4477
g4473
a(lp4478
S'They'
p4479
aS'wore'
p4480
aS'jeans'
p4481
aaa(lp4482
g4473
a(lp4483
S'and'
p4484
aS'you'
p4485
aS'had'
p4486
aS'to'
p4487
aS'bring'
p4488
aaa(lp4489
S'LISA'
p4490
a(lp4491
S'He'
p4492
aS'just'
p4493
aaa(lp4494
S'MARIE'
p4495
a(lp4496
S'um'
p4497
aS'canned'
p4498
aaa(lp4499
S'LISA'
p4500
a(lp4501
S'Canned'
p4502
aS'food'
p4503
aS'for'
p4504
aS'like'
p4505
ag126
aS'food'
p4506
aS'drive'
p4507
aS'kind'
p4508
aS'of'
p4509
aS'thing'
p4510
aaa(lp4511
S'MARIE'
p4512
a(lp4513
S'food'
p4514
aaa(lp4515
S'LISA'
p4516
a(lp4517
S'or'
p4518
aS'whatever'
p4519
aaa(lp4520
S'MARIE'
p4521
a(lp4522
S'It'
p4523
aS'wasnt'
p4524
aaa(lp4525
S'LISA'
p4526
a(lp4527
S'but'
p4528
aS'he'
p4529
aS'doesnt'
p4530
aS'seem'
p4531
aS'so'
p4532
aaa(lp4533
g4526
a(lp4534
g40
aS'dont'
p4535
aS'know'
p4536
aaa(lp4537
S'KEVIN'
p4538
a(lp4539
S'It'
p4540
aS'wasnt'
p4541
aS'preachy'
p4542
aS'at'
p4543
aS'all'
p4544
aaa(lp4545
S'LISA'
p4546
a(lp4547
S'hes'
p4548
aS'like'
p4549
aaa(lp4550
S'MARIE'
p4551
a(lp4552
S'Hmmm'
p4553
aaa(lp4554
S'LISA'
p4555
a(lp4556
S'hes'
p4557
aS'like'
p4558
aS'for'
p4559
aS'gang'
p4560
aaa(lp4561
g4555
a(lp4562
S'Like'
p4563
aaa(lp4564
g4555
a(lp4565
S'again'
p4566
aaa(lp4567
g4555
a(lp4568
S'Uh'
p4569
aS'like'
p4570
aS'against'
p4571
aS'gangs'
p4572
aS'and'
p4573
aS'stuff'
p4574
aS'like'
p4575
aS'that'
p4576
aS'but'
p4577
aaa(lp4578
g4555
a(lp4579
S'you'
p4580
aS'could'
p4581
aS'see'
p4582
aS'that'
p4583
aS'um'
p4584
aaa(lp4585
g4555
a(lp4586
S'like'
p4587
aS'Cargod'
p4588
aS'just'
p4589
aS'kinda'
p4590
aS'be'
p4591
aS'like'
p4592
aaa(lp4593
g4555
a(lp4594
S'VOX'
p4595
aS'all'
p4596
aS'these'
p4597
aS'lowlifes'
p4598
aS'VOX'
p4599
aaa(lp4600
g4555
a(lp4601
S'You'
p4602
aS'know'
p4603
aS'like'
p4604
aaa(lp4605
S'KEVIN'
p4606
a(lp4607
aa(lp4608
S'LISA'
p4609
a(lp4610
g40
aS'could'
p4611
aS'see'
p4612
aS'him'
p4613
aS'thinking'
p4614
aS'something'
p4615
aS'like'
p4616
aS'that'
p4617
aaa(lp4618
g4609
a(lp4619
S'Where'
p4620
aS'hes'
p4621
aS'just'
p4622
aS'above'
p4623
aS'all'
p4624
aS'those'
p4625
aS'people'
p4626
aaa(lp4627
g4609
a(lp4628
S'and'
p4629
aS'like'
p4630
aS'they'
p4631
aaa(lp4632
g4609
a(lp4633
S'you'
p4634
aS'know'
p4635
aaa(lp4636
g4609
a(lp4637
S'that'
p4638
aS'their'
p4639
aS'problems'
p4640
aaa(lp4641
g4609
a(lp4642
S'you'
p4643
aS'know'
p4644
aaa(lp4645
g4609
a(lp4646
S'its'
p4647
aS'cause'
p4648
aS'theyre'
p4649
aS'just'
p4650
aS'like'
p4651
aS'bad'
p4652
aS'people'
p4653
aS'or'
p4654
aS'something'
p4655
aaa(lp4656
g4609
a(lp4657
S'But'
p4658
ag40
aS'dont'
p4659
aS'see'
p4660
aS'him'
p4661
aaa(lp4662
g4609
a(lp4663
S'like'
p4664
aaa(lp4665
g4609
a(lp4666
S'him'
p4667
aS'being'
p4668
aS'so'
p4669
ag7
aS'XX'
p4670
aaa(lp4671
S'MARIE'
p4672
a(lp4673
S'Hes'
p4674
aS'done'
p4675
aaa(lp4676
g4672
a(lp4677
S'Hes'
p4678
aS'done'
p4679
aS'like'
p4680
aS'what'
p4681
aaa(lp4682
g4672
a(lp4683
S'two'
p4684
aS'big'
p4685
aS'food'
p4686
aS'drives'
p4687
aaa(lp4688
g4672
a(lp4689
S'even'
p4690
aS'at'
p4691
aS'his'
p4692
aS'inaugural'
p4693
aS'ball'
p4694
aaa(lp4695
g4672
a(lp4696
S'they'
p4697
aS'had'
p4698
ag126
aS'food'
p4699
aS'drive'
p4700
aaa(lp4701
S'LISA'
p4702
a(lp4703
S'Yeah'
p4704
aaa(lp4705
S'KEVIN'
p4706
a(lp4707
g723
aS'Thats'
p4708
aS'cool'
p4709
ag723
aaa(lp4710
g4706
a(lp4711
S'Have'
p4712
aS'gangs'
p4713
aS'gotten'
p4714
aS'worse'
p4715
aaa(lp4716
g4706
a(lp4717
S'Or'
p4718
aaa(lp4719
S'MARIE'
p4720
a(lp4721
aa(lp4722
S'LISA'
p4723
a(lp4724
S'It'
p4725
aS'seems'
p4726
aS'that'
p4727
aS'way'
p4728
aaa(lp4729
S'MARIE'
p4730
a(lp4731
S'Yeah'
p4732
aaa(lp4733
g4730
a(lp4734
S'it'
p4735
aS'seems'
p4736
aS'like'
p4737
aaa(lp4738
S'KEVIN'
p4739
a(lp4740
S'Was'
p4741
aS'it'
p4742
aS'the'
p4743
aS'LA'
p4744
aS'gangs'
p4745
aS'or'
p4746
aaa(lp4747
S'LISA'
p4748
a(lp4749
S'But'
p4750
aS'then'
p4751
aaa(lp4752
g4748
a(lp4753
g40
aS'dont'
p4754
aS'know'
p4755
aaa(lp4756
S'KEVIN'
p4757
a(lp4758
g40
aS'mean'
p4759
aS'y'
p4760
aS'Crips'
p4761
aS'and'
p4762
aS'Bloods'
p4763
aS'and'
p4764
aS'stuff'
p4765
aaa(lp4766
g4757
a(lp4767
S'do'
p4768
aS'you'
p4769
aS'think'
p4770
aaa(lp4771
S'LISA'
p4772
a(lp4773
g40
aS'dont'
p4774
aaa(lp4775
g4772
a(lp4776
g40
aS'dont'
p4777
aaa(lp4778
S'MARIE'
p4779
a(lp4780
g40
aS'dont'
p4781
aaa(lp4782
S'LISA'
p4783
a(lp4784
S'think'
p4785
aS'so'
p4786
aaa(lp4787
S'MARIE'
p4788
a(lp4789
g40
aS'dont'
p4790
aS'think'
p4791
aS'theyre'
p4792
aS'so'
p4793
aS'much'
p4794
ag126
aS'problem'
p4795
aaa(lp4796
g4788
a(lp4797
g40
aS'think'
p4798
aS'its'
p4799
aS'just'
p4800
aaa(lp4801
g4788
a(lp4802
g40
aS'dont'
p4803
aS'know'
p4804
aS'if'
p4805
aS'its'
p4806
aS'just'
p4807
aS'the'
p4808
aS'way'
p4809
aS'people'
p4810
aS'are'
p4811
aS'in'
p4812
aS'general'
p4813
aS'now'
p4814
aaa(lp4815
g4788
a(lp4816
g40
aS'mean'
p4817
aaa(lp4818
S'KEVIN'
p4819
a(lp4820
aa(lp4821
S'LISA'
p4822
a(lp4823
S'And'
p4824
ag40
aS'dont'
p4825
aaa(lp4826
S'MARIE'
p4827
a(lp4828
g3748
aS'you'
p4829
aS'cant'
p4830
aS'even'
p4831
aS'go'
p4832
aS'up'
p4833
aS'to'
p4834
aS'like'
p4835
ag3748
aaa(lp4836
g4827
a(lp4837
S'just'
p4838
aS'the'
p4839
aS'other'
p4840
aS'day'
p4841
ag40
aS'was'
p4842
aS'watching'
p4843
aS'the'
p4844
aS'TV'
p4845
aaa(lp4846
S'LISA'
p4847
a(lp4848
S'Excuse'
p4849
aS'me'
p4850
aaa(lp4851
S'MARIE'
p4852
a(lp4853
S'and'
p4854
aS'um'
p4855
aaa(lp4856
g4852
a(lp4857
S'this'
p4858
aS'man'
p4859
aS'went'
p4860
aS'to'
p4861
aS'WalMart'
p4862
aaa(lp4863
g4852
a(lp4864
S'And'
p4865
aS'just'
p4866
aS'shot'
p4867
aaa(lp4868
g4852
a(lp4869
S'Like'
p4870
aaa(lp4871
S'LISA'
p4872
a(lp4873
aa(lp4874
S'MARIE'
p4875
a(lp4876
S'you'
p4877
aS'know'
p4878
aaa(lp4879
g4875
a(lp4880
S'it'
p4881
aS'was'
p4882
aS'in'
p4883
ag126
aS'different'
p4884
aS'state'
p4885
aaa(lp4886
S'KEVIN'
p4887
a(lp4888
S'Where'
p4889
aS'was'
p4890
aS'that'
p4891
ag7
aaa(lp4892
S'LISA'
p4893
a(lp4894
S'But'
p4895
aS'thats'
p4896
aS'not'
p4897
aS'here'
p4898
aaa(lp4899
g4893
a(lp4900
S'There'
p4901
aS'was'
p4902
aaa(lp4903
S'MARIE'
p4904
a(lp4905
S'Yeah'
p4906
aS'but'
p4907
aS'still'
p4908
aaa(lp4909
S'KEVIN'
p4910
a(lp4911
S'That'
p4912
aS'was'
p4913
aS'in'
p4914
aS'Oklahoma'
p4915
aaa(lp4916
S'MARIE'
p4917
a(lp4918
S'but'
p4919
aS'you'
p4920
aS'cant'
p4921
aS'even'
p4922
aS'go'
p4923
aS'to'
p4924
ag126
aS'WalMart'
p4925
aaa(lp4926
S'LISA'
p4927
a(lp4928
S'there'
p4929
aS'was'
p4930
aS'two'
p4931
aS'days'
p4932
aS'in'
p4933
ag126
aS'row'
p4934
aS'though'
p4935
aaa(lp4936
g4927
a(lp4937
S'cause'
p4938
aS'there'
p4939
aS'was'
p4940
aS'one'
p4941
aS'in'
p4942
aS'Louisiana'
p4943
aaa(lp4944
g4927
a(lp4945
g40
aS'think'
p4946
aS'yesterday'
p4947
aaa(lp4948
g4927
a(lp4949
S'and'
p4950
aS'one'
p4951
aS'the'
p4952
aS'day'
p4953
aS'before'
p4954
aS'that'
p4955
aS'in'
p4956
aS'Kansas'
p4957
aaa(lp4958
S'KEVIN'
p4959
a(lp4960
S'Are'
p4961
aS'you'
p4962
aS'sure'
p4963
aaa(lp4964
S'LISA'
p4965
a(lp4966
S'Well'
p4967
aS'Daddy'
p4968
aS'was'
p4969
aS'pretty'
p4970
aS'sure'
p4971
aS'that'
p4972
aS'one'
p4973
aS'was'
p4974
aS'in'
p4975
aS'Kansas'
p4976
aaa(lp4977
S'KEVIN'
p4978
a(lp4979
S'Are'
p4980
aS'you'
p4981
aS'certain'
p4982
aaa(lp4983
S'MARIE'
p4984
a(lp4985
S'Well'
p4986
ag40
aS'know'
p4987
aS'there'
p4988
aS'was'
p4989
aS'one'
p4990
aS'that'
p4991
aS'like'
p4992
aaa(lp4993
S'LISA'
p4994
a(lp4995
S'That'
p4996
aS'means'
p4997
aS'there'
p4998
aS'was'
p4999
aS'two'
p5000
aS'in'
p5001
ag126
aaa(lp5002
g4994
a(lp5003
g40
aS'was'
p5004
aS'like'
p5005
aS'oh'
p5006
aaa(lp5007
S'KEVIN'
p5008
a(lp5009
S'Moms'
p5010
aS'not'
p5011
aS'gonna'
p5012
aS'wanna'
p5013
aS'go'
p5014
aS'to'
p5015
aS'WalMart'
p5016
aS'anymore'
p5017
aaa(lp5018
S'LISA'
p5019
a(lp5020
S'Yeah'
p5021
aaa(lp5022
g5019
a(lp5023
S'shes'
p5024
aS'gonna'
p5025
aS'freak'
p5026
aaa(lp5027
S'MARIE'
p5028
a(lp5029
S'But'
p5030
aS'do'
p5031
aS'you'
p5032
aS'know'
p5033
aS'what'
p5034
ag40
aS'mean'
p5035
aaa(lp5036
S'LISA'
p5037
a(lp5038
S'And'
p5039
aS'never'
p5040
aS'leave'
p5041
aS'the'
p5042
aS'house'
p5043
aaa(lp5044
S'MARIE'
p5045
a(lp5046
S'you'
p5047
aS'cant'
p5048
aS'even'
p5049
aS'go'
p5050
aS'to'
p5051
aS'WalMart'
p5052
aS'anymore'
p5053
aaa(lp5054
g5045
a(lp5055
S'You'
p5056
aS'cant'
p5057
aS'even'
p5058
aS'go'
p5059
aS'to'
p5060
aaa(lp5061
S'LISA'
p5062
a(lp5063
S'Yeah'
p5064
aaa(lp5065
S'MARIE'
p5066
a(lp5067
S'to'
p5068
aS'the'
p5069
aS'store'
p5070
aaa(lp5071
S'KEVIN'
p5072
a(lp5073
S'Yeah'
p5074
aaa(lp5075
S'MARIE'
p5076
a(lp5077
S'Without'
p5078
aS'having'
p5079
aS'to'
p5080
aS'worry'
p5081
aS'about'
p5082
aS'it'
p5083
aaa(lp5084
S'LISA'
p5085
a(lp5086
S'There'
p5087
aS'was'
p5088
aS'one'
p5089
aS'at'
p5090
aS'what'
p5091
ag126
aS'Pistols'
p5092
aaa(lp5093
g5085
a(lp5094
g724
aS'Little'
p5095
aS'Caesars'
p5096
aaa(lp5097
g5085
a(lp5098
S'the'
p5099
aS'day'
p5100
aS'before'
p5101
aS'that'
p5102
aaa(lp5103
S'MARIE'
p5104
a(lp5105
S'No'
p5106
aS'Chucky'
p5107
aS'Cheese'
p5108
aaa(lp5109
S'LISA'
p5110
a(lp5111
S'Chucky'
p5112
aS'Cheese'
p5113
aaa(lp5114
S'KEVIN'
p5115
a(lp5116
S'Chucky'
p5117
aS'Cheese'
p5118
aaa(lp5119
g5115
a(lp5120
S'and'
p5121
aS'that'
p5122
aS'was'
p5123
aS'in'
p5124
aS'Aurora'
p5125
aaa(lp5126
g5115
a(lp5127
S'Thats'
p5128
aS'your'
p5129
aS'moms'
p5130
aS'home'
p5131
aS'town'
p5132
aaa(lp5133
g5115
a(lp5134
S'Right'
p5135
aaa(lp5136
S'MARIE'
p5137
a(lp5138
S'Mhm'
p5139
aaa(lp5140
S'KEVIN'
p5141
a(lp5142
S'Aurora'
p5143
aaa(lp5144
S'LISA'
p5145
a(lp5146
S'Well'
p5147
aS'shes'
p5148
aS'not'
p5149
aS'from'
p5150
aS'Aurora'
p5151
aaa(lp5152
S'MARIE'
p5153
a(lp5154
S'Well'
p5155
aaa(lp5156
g5153
a(lp5157
g3055
aS'its'
p5158
aS'uh'
p5159
aaa(lp5160
S'LISA'
p5161
a(lp5162
S'shes'
p5163
aS'from'
p5164
aS'Denver'
p5165
aaa(lp5166
S'MARIE'
p5167
a(lp5168
S'But'
p5169
ag3055
aS'its'
p5170
aS'by'
p5171
aS'Denver'
p5172
aaa(lp5173
S'LISA'
p5174
a(lp5175
S'Yeah'
p5176
aaa(lp5177
S'MARIE'
p5178
a(lp5179
g40
aS'mean'
p5180
aS'its'
p5181
aS'right'
p5182
aaa(lp5183
S'KEVIN'
p5184
a(lp5185
g40
aS'thought'
p5186
aaa(lp5187
S'MARIE'
p5188
a(lp5189
S'The'
p5190
aS'outskirts'
p5191
aaa(lp5192
S'KEVIN'
p5193
a(lp5194
S'Yeah'
p5195
aS'but'
p5196
aaa(lp5197
g5193
a(lp5198
S'what'
p5199
aS'what'
p5200
aS'whats'
p5201
aS'what'
p5202
aS'town'
p5203
aaa(lp5204
g5193
a(lp5205
g40
aS'is'
p5206
aS'she'
p5207
aS'is'
p5208
aS'she'
p5209
aS'from'
p5210
aS'Denver'
p5211
aS'proper'
p5212
aaa(lp5213
S'LISA'
p5214
a(lp5215
S'Does'
p5216
aaa(lp5217
S'MARIE'
p5218
a(lp5219
S'Denver'
p5220
aaa(lp5221
S'LISA'
p5222
a(lp5223
S'Yeah'
p5224
aaa(lp5225
S'MARIE'
p5226
a(lp5227
S'Denver'
p5228
aaa(lp5229
S'KEVIN'
p5230
a(lp5231
S'Okay'
p5232
aaa(lp5233
S'LISA'
p5234
a(lp5235
S'Does'
p5236
aS'your'
p5237
aS'aunt'
p5238
aS'XX'
p5239
aaa(lp5240
S'MARIE'
p5241
a(lp5242
S'XXX'
p5243
aaa(lp5244
S'KEVIN'
p5245
a(lp5246
g7
aS'You'
p5247
aS'used'
p5248
aS'to'
p5249
aS'say'
p5250
ag7
aaa(lp5251
g5245
a(lp5252
S'LISA'
p5253
aS'Your'
p5254
aS'auntie'
p5255
aS'Barbara'
p5256
aS'doesnt'
p5257
aS'live'
p5258
aS'in'
p5259
aS'Aurora'
p5260
aaa(lp5261
S'MARIE'
p5262
a(lp5263
S'But'
p5264
aS'she'
p5265
aS'lives'
p5266
aS'close'
p5267
aS'to'
p5268
aS'it'
p5269
aaa(lp5270
S'LISA'
p5271
a(lp5272
aa(lp5273
S'KEVIN'
p5274
a(lp5275
S'Cause'
p5276
aS'you'
p5277
aS'used'
p5278
aS'to'
p5279
aS'always'
p5280
aS'tell'
p5281
aS'me'
p5282
aaa(lp5283
g5274
a(lp5284
S'they'
p5285
aS'live'
p5286
aS'in'
p5287
aS'this'
p5288
aS'small'
p5289
aS'town'
p5290
aaa(lp5291
g5274
a(lp5292
S'Just'
p5293
aS'outside'
p5294
aS'of'
p5295
aS'Denver'
p5296
aaa(lp5297
g5274
a(lp5298
g40
aS'mean'
p5299
aaa(lp5300
S'LISA'
p5301
a(lp5302
S'Mmmm'
p5303
aaa(lp5304
S'KEVIN'
p5305
a(lp5306
S'When'
p5307
aS'we'
p5308
aS'were'
p5309
aS'like'
p5310
aaa(lp5311
g5305
a(lp5312
S'in'
p5313
aS'middle'
p5314
ag3055
aaa(lp5315
g5305
a(lp5316
S'When'
p5317
aS'we'
p5318
aS'were'
p5319
aS'in'
p5320
aS'middle'
p5321
aS'school'
p5322
aaa(lp5323
S'LISA'
p5324
a(lp5325
S'No'
p5326
aS'there'
p5327
aS'was'
p5328
ag3055
aaa(lp5329
g5324
a(lp5330
S'What'
p5331
aS'are'
p5332
aS'th'
p5333
aaa(lp5334
g5324
a(lp5335
S'Something'
p5336
aS'with'
p5337
ag126
aS'G'
p5338
aaa(lp5339
S'KEVIN'
p5340
a(lp5341
S'XX'
p5342
aaa(lp5343
S'LISA'
p5344
a(lp5345
S'Gwendale'
p5346
aaa(lp5347
g5344
a(lp5348
S'No'
p5349
aaa(lp5350
S'KEVIN'
p5351
a(lp5352
g723
ag40
aS'think'
p5353
aS'he'
p5354
aS'wants'
p5355
aS'it'
p5356
aS'back'
p5357
ag723
aaa(lp5358
S'MARIE'
p5359
a(lp5360
S'Theres'
p5361
aS'nothing'
p5362
aS'in'
p5363
aS'it'
p5364
aaa(lp5365
S'LISA'
p5366
a(lp5367
S'No'
p5368
aaa(lp5369
g5366
a(lp5370
S'There'
p5371
aaa(lp5372
S'KEVIN'
p5373
a(lp5374
S'XX'
p5375
aaa(lp5376
S'LISA'
p5377
a(lp5378
S'What'
p5379
aaa(lp5380
g5377
a(lp5381
S'theres'
p5382
aS'one'
p5383
aS'with'
p5384
ag126
ag5338
aaa(lp5385
g5377
a(lp5386
S'Isnt'
p5387
aS'there'
p5388
aS'right'
p5389
aaa(lp5390
g5377
a(lp5391
S'Or'
p5392
aS'what'
p5393
aS'street'
p5394
aS'does'
p5395
aS'your'
p5396
aS'aunt'
p5397
aS'live'
p5398
aS'on'
p5399
aaa(lp5400
S'MARIE'
p5401
a(lp5402
S'Gaylord'
p5403
aaa(lp5404
S'LISA'
p5405
a(lp5406
S'Maybe'
p5407
aS'thats'
p5408
aS'what'
p5409
aS'it'
p5410
aS'was'
p5411
aaa(lp5412
S'KEVIN'
p5413
a(lp5414
aa(lp5415
g5413
a(lp5416
S'Great'
p5417
aS'street'
p5418
aaa(lp5419
S'MARIE'
p5420
a(lp5421
S'Fiftyfive'
p5422
aS'fiftyfive'
p5423
aaa(lp5424
g5420
a(lp5425
S'Its'
p5426
aS'just'
p5427
aS'really'
p5428
aS'weird'
p5429
aaa(lp5430
g5420
a(lp5431
S'You'
p5432
aS'just'
p5433
aS'cant'
p5434
aS'do'
p5435
aS'anything'
p5436
aS'anymore'
p5437
aaa(lp5438
g5420
a(lp5439
S'Like'
p5440
ag40
aS'told'
p5441
aS'Michael'
p5442
aaa(lp5443
g5420
a(lp5444
S'you'
p5445
aS'cant'
p5446
aS'even'
p5447
aaa(lp5448
g5420
a(lp5449
S'Michael'
p5450
aaa(lp5451
g5420
a(lp5452
S'they'
p5453
aS'were'
p5454
aS'saying'
p5455
aS'that'
p5456
aaa(lp5457
g5420
a(lp5458
g40
aS'think'
p5459
aS'it'
p5460
aS'was'
p5461
aS'on'
p5462
aS'the'
p5463
aS'news'
p5464
aS'and'
p5465
aS'on'
p5466
aS'the'
p5467
aS'radio'
p5468
aaa(lp5469
g5420
a(lp5470
S'where'
p5471
aS'like'
p5472
aaa(lp5473
g5420
a(lp5474
S'that'
p5475
aS'like'
p5476
aS'there'
p5477
aS'was'
p5478
aS'somebody'
p5479
aS'going'
p5480
aS'around'
p5481
aaa(lp5482
g5420
a(lp5483
S'and'
p5484
ag40
aS'think'
p5485
aS'it'
p5486
aS'was'
p5487
aaa(lp5488
g5420
a(lp5489
g40
aS'think'
p5490
aS'it'
p5491
aaa(lp5492
g5420
a(lp5493
S'Im'
p5494
aS'pretty'
p5495
aS'sure'
p5496
aS'it'
p5497
aS'was'
p5498
aS'here'
p5499
aS'that'
p5500
aaa(lp5501
g5420
a(lp5502
S'if'
p5503
aS'you'
p5504
aS'flash'
p5505
aS'your'
p5506
aS'lights'
p5507
aaa(lp5508
g5420
a(lp5509
S'like'
p5510
aS'they'
p5511
aS'wouldnt'
p5512
aS'have'
p5513
aS'their'
p5514
aS'lights'
p5515
aS'on'
p5516
aaa(lp5517
g5420
a(lp5518
S'or'
p5519
aS'they'
p5520
aS'would'
p5521
aS'have'
p5522
aS'their'
p5523
aS'brights'
p5524
aS'on'
p5525
aaa(lp5526
g5420
a(lp5527
S'and'
p5528
aS'if'
p5529
aS'you'
p5530
aS'flash'
p5531
aS'them'
p5532
aS'they'
p5533
aS'would'
p5534
aaa(lp5535
S'LISA'
p5536
a(lp5537
aa(lp5538
g5536
a(lp5539
S'It'
p5540
aS'was'
p5541
aS'supposed'
p5542
aS'to'
p5543
aS'be'
p5544
ag126
aS'gang'
p5545
aS'initiation'
p5546
aaa(lp5547
g5536
a(lp5548
S'And'
p5549
aaa(lp5550
S'KEVIN'
p5551
a(lp5552
S'And'
p5553
aS'it'
p5554
aS'was'
p5555
aS'nationwide'
p5556
aaa(lp5557
S'LISA'
p5558
a(lp5559
S'Mmmm'
p5560
aaa(lp5561
S'KEVIN'
p5562
a(lp5563
g40
aS'think'
p5564
aS'that'
p5565
aS'they'
p5566
aS'were'
p5567
aS'saying'
p5568
aS'nationwide'
p5569
aaa(lp5570
S'MARIE'
p5571
a(lp5572
S'And'
p5573
ag40
aS'told'
p5574
aS'Michael'
p5575
aaa(lp5576
S'KEVIN'
p5577
a(lp5578
g7
aS'it'
p5579
aS'was'
p5580
aS'just'
p5581
aS'like'
p5582
ag7
aaa(lp5583
S'MARIE'
p5584
a(lp5585
S'God'
p5586
aaa(lp5587
g5584
a(lp5588
S'you'
p5589
aS'cant'
p5590
aS'even'
p5591
aS'be'
p5592
aS'courteous'
p5593
aaa(lp5594
g5584
a(lp5595
S'and'
p5596
aS'tell'
p5597
aS'somebody'
p5598
aS'else'
p5599
aaa(lp5600
g5584
a(lp5601
S'hey'
p5602
aS'dumbdumb'
p5603
aaa(lp5604
g5584
a(lp5605
S'your'
p5606
aS'your'
p5607
aS'lights'
p5608
aS'arent'
p5609
aS'on'
p5610
aaa(lp5611
S'KEVIN'
p5612
a(lp5613
aa(lp5614
S'LISA'
p5615
a(lp5616
S'Well'
p5617
ag40
aS'know'
p5618
aaa(lp5619
g5615
a(lp5620
g40
aaa(lp5621
S'KEVIN'
p5622
a(lp5623
g7
aaa(lp5624
S'MARIE'
p5625
a(lp5626
S'You'
p5627
aS'know'
p5628
aaa(lp5629
S'LISA'
p5630
a(lp5631
S'And'
p5632
ag40
aS'mean'
p5633
aaa(lp5634
g5630
a(lp5635
g40
aS'never'
p5636
aS'think'
p5637
aaa(lp5638
g5630
a(lp5639
g40
aS'never'
p5640
aS'thought'
p5641
aS'of'
p5642
aS'that'
p5643
aS'really'
p5644
aS'doing'
p5645
aS'it'
p5646
aS'before'
p5647
aaa(lp5648
g5630
a(lp5649
g40
aS'just'
p5650
aaa(lp5651
g5630
a(lp5652
S'you'
p5653
aS'know'
p5654
aaa(lp5655
g5630
a(lp5656
S'spaced'
p5657
aS'it'
p5658
aaa(lp5659
g5630
a(lp5660
S'kinda'
p5661
aS'whatever'
p5662
aaa(lp5663
g5630
a(lp5664
g40
aS'always'
p5665
aS'figured'
p5666
aS'they'
p5667
aS'were'
p5668
aS'broken'
p5669
aaa(lp5670
g5630
a(lp5671
g40
aS'dont'
p5672
aS'know'
p5673
aaa(lp5674
g5630
a(lp5675
S'But'
p5676
aS'after'
p5677
aS'that'
p5678
ag40
aS'was'
p5679
aS'was'
p5680
aS'all'
p5681
aaa(lp5682
S'KEVIN'
p5683
a(lp5684
S'Daddy'
p5685
aS'always'
p5686
aS'does'
p5687
aS'that'
p5688
aaa(lp5689
g5683
a(lp5690
S'Oh'
p5691
aS'you'
p5692
aS'do'
p5693
aS'it'
p5694
aS'when'
p5695
aS'their'
p5696
aS'high'
p5697
aS'lights'
p5698
aS'are'
p5699
aS'off'
p5700
aaa(lp5701
g5683
a(lp5702
S'Right'
p5703
aaa(lp5704
g5683
a(lp5705
S'instead'
p5706
aS'of'
p5707
aS'brights'
p5708
aaa(lp5709
S'LISA'
p5710
a(lp5711
S'Yeah'
p5712
aaa(lp5713
S'KEVIN'
p5714
a(lp5715
S'Yeah'
p5716
aaa(lp5717
S'LISA'
p5718
a(lp5719
aa(lp5720
g5718
a(lp5721
S'Or'
p5722
aaa(lp5723
g5718
a(lp5724
S'Either'
p5725
aS'when'
p5726
aS'their'
p5727
aaa(lp5728
g5718
a(lp5729
S'Well'
p5730
aS'if'
p5731
aS'their'
p5732
aS'brights'
p5733
aS'are'
p5734
aS'on'
p5735
aaa(lp5736
g5718
a(lp5737
S'When'
p5738
aS'theyre'
p5739
aS'driving'
p5740
ag7
aS'on'
p5741
aS'the'
p5742
aS'other'
p5743
aS'side'
p5744
ag7
aaa(lp5745
S'MARIE'
p5746
a(lp5747
S'Yeah'
p5748
aaa(lp5749
g5746
a(lp5750
S'like'
p5751
aS'if'
p5752
aS'youre'
p5753
aS'approaching'
p5754
aS'them'
p5755
aaa(lp5756
g5746
a(lp5757
S'and'
p5758
aS'their'
p5759
aS'brights'
p5760
aS'are'
p5761
aS'on'
p5762
aaa(lp5763
g5746
a(lp5764
S'you'
p5765
aS'just'
p5766
aS'flick'
p5767
aS'your'
p5768
aS'brights'
p5769
aS'on'
p5770
aaa(lp5771
g5746
a(lp5772
S'and'
p5773
aS'then'
p5774
aS'turn'
p5775
aS'them'
p5776
aS'off'
p5777
aaa(lp5778
g5746
a(lp5779
S'and'
p5780
aS'then'
p5781
aS'theyre'
p5782
aS'like'
p5783
aaa(lp5784
S'LISA'
p5785
a(lp5786
S'Or'
p5787
aS'if'
p5788
aS'their'
p5789
aS'lights'
p5790
aS'arent'
p5791
aS'on'
p5792
aaa(lp5793
S'MARIE'
p5794
a(lp5795
S'oh'
p5796
aaa(lp5797
S'LISA'
p5798
a(lp5799
S'or'
p5800
aS'like'
p5801
aaa(lp5802
g5798
a(lp5803
S'if'
p5804
aS'their'
p5805
aS'just'
p5806
aS'their'
p5807
aS'running'
p5808
aS'lights'
p5809
aS'on'
p5810
aS'or'
p5811
aS'something'
p5812
aaa(lp5813
S'MARIE'
p5814
a(lp5815
S'Yeah'
p5816
aaa(lp5817
S'LISA'
p5818
a(lp5819
S'But'
p5820
aS'then'
p5821
aaa(lp5822
g5818
a(lp5823
g40
aS'dont'
p5824
aS'know'
p5825
aaa(lp5826
S'MARIE'
p5827
a(lp5828
S'But'
p5829
ag40
aS'mean'
p5830
aS'you'
p5831
aS'cant'
p5832
aS'even'
p5833
aS'do'
p5834
aS'that'
p5835
aS'anymore'
p5836
aaa(lp5837
S'LISA'
p5838
a(lp5839
S'That'
p5840
aS'just'
p5841
aaa(lp5842
S'MARIE'
p5843
a(lp5844
S'Do'
p5845
aS'you'
p5846
aS'know'
p5847
aS'what'
p5848
ag40
aS'mean'
p5849
aaa(lp5850
S'LISA'
p5851
a(lp5852
S'Or'
p5853
aS'that'
p5854
aS'one'
p5855
aS'where'
p5856
aS'that'
p5857
aS'guy'
p5858
aaa(lp5859
S'MARIE'
p5860
a(lp5861
S'Without'
p5862
aS'running'
p5863
aS'the'
p5864
aS'risk'
p5865
aS'of'
p5866
aS'getting'
p5867
aS'killed'
p5868
aaa(lp5869
S'LISA'
p5870
a(lp5871
S'it'
p5872
aS'was'
p5873
aaa(lp5874
g5870
a(lp5875
S'That'
p5876
aS'one'
p5877
aS'guy'
p5878
aS'was'
p5879
aS'in'
p5880
ag126
aS'um'
p5881
aaa(lp5882
g5870
a(lp5883
S'like'
p5884
ag126
aS'cop'
p5885
aS'car'
p5886
aaa(lp5887
g5870
a(lp5888
S'Remember'
p5889
aS'that'
p5890
aaa(lp5891
g5870
a(lp5892
S'He'
p5893
aS'was'
p5894
aS'pulling'
p5895
aS'people'
p5896
aS'over'
p5897
aaa(lp5898
S'KEVIN'
p5899
a(lp5900
S'Hmm'
p5901
aaa(lp5902
S'LISA'
p5903
a(lp5904
S'They'
p5905
aS'were'
p5906
aaa(lp5907
S'MARIE'
p5908
a(lp5909
S'Oh'
p5910
aS'giving'
p5911
aS'them'
p5912
aS'false'
p5913
aS'tickets'
p5914
aaa(lp5915
S'KEVIN'
p5916
a(lp5917
S'Where'
p5918
aS'was'
p5919
aS'that'
p5920
aaa(lp5921
S'LISA'
p5922
a(lp5923
S'No'
p5924
aaa(lp5925
g5922
a(lp5926
g40
aS'never'
p5927
aS'heard'
p5928
aS'that'
p5929
aaa(lp5930
S'KEVIN'
p5931
a(lp5932
S'That'
p5933
aS'was'
p5934
aS'here'
p5935
aaa(lp5936
S'LISA'
p5937
a(lp5938
S'Yeah'
p5939
aaa(lp5940
g5937
a(lp5941
S'there'
p5942
aS'was'
p5943
aaa(lp5944
g5937
a(lp5945
S'This'
p5946
aS'guy'
p5947
aS'he'
p5948
aS'was'
p5949
aaa(lp5950
g5937
a(lp5951
g7
aS'anyway'
p5952
ag7
aaa(lp5953
g5937
a(lp5954
S'he'
p5955
aS'acted'
p5956
aS'like'
p5957
aS'it'
p5958
aS'was'
p5959
aS'an'
p5960
aS'unmarked'
p5961
aS'car'
p5962
aS'or'
p5963
aS'something'
p5964
aaa(lp5965
g5937
a(lp5966
S'and'
p5967
aS'he'
p5968
aS'would'
p5969
aS'pull'
p5970
aaa(lp5971
S'KEVIN'
p5972
a(lp5973
S'Oh'
p5974
aaa(lp5975
g5972
a(lp5976
S'like'
p5977
ag126
aS'slick'
p5978
aS'top'
p5979
aaa(lp5980
S'LISA'
p5981
a(lp5982
S'and'
p5983
aS'hed'
p5984
aS'put'
p5985
aS'that'
p5986
aS'light'
p5987
aS'on'
p5988
aS'top'
p5989
aaa(lp5990
S'KEVIN'
p5991
a(lp5992
S'Slick'
p5993
aS'top'
p5994
aaa(lp5995
S'LISA'
p5996
a(lp5997
S'No'
p5998
aS'no'
p5999
aS'not'
p6000
aS'slick'
p6001
aS'top'
p6002
aaa(lp6003
g5996
a(lp6004
S'just'
p6005
aS'like'
p6006
aaa(lp6007
g5996
a(lp6008
S'you'
p6009
aS'know'
p6010
aS'like'
p6011
aaa(lp6012
g5996
a(lp6013
S'any'
p6014
aS'oldlooking'
p6015
aS'car'
p6016
aaa(lp6017
g5996
a(lp6018
S'and'
p6019
aS'then'
p6020
aS'they'
p6021
aS'take'
p6022
aS'that'
p6023
aS'wire'
p6024
aaa(lp6025
g5996
a(lp6026
S'and'
p6027
aS'put'
p6028
aS'it'
p6029
aS'on'
p6030
aS'top'
p6031
aS'or'
p6032
aS'whatever'
p6033
aaa(lp6034
g5996
a(lp6035
S'or'
p6036
aS'in'
p6037
aS'their'
p6038
aaa(lp6039
g5996
a(lp6040
S'the'
p6041
aS'front'
p6042
aS'part'
p6043
aaa(lp6044
g5996
a(lp6045
S'Anyways'
p6046
aaa(lp6047
g5996
a(lp6048
S'and'
p6049
aS'um'
p6050
aaa(lp6051
g5996
a(lp6052
S'and'
p6053
aS'would'
p6054
aS'pull'
p6055
aS'people'
p6056
aS'over'
p6057
aaa(lp6058
g5996
a(lp6059
S'And'
p6060
aS'he'
p6061
aS'was'
p6062
aS'wearing'
p6063
aS'like'
p6064
ag126
aaa(lp6065
g5996
a(lp6066
S'like'
p6067
aaa(lp6068
g5996
a(lp6069
S'you'
p6070
aS'know'
p6071
aaa(lp6072
g5996
a(lp6073
S'like'
p6074
aS'an'
p6075
aS'shirt'
p6076
aaa(lp6077
g5996
a(lp6078
S'You'
p6079
aS'can'
p6080
aS'buy'
p6081
aS'em'
p6082
aS'like'
p6083
aaa(lp6084
g5996
a(lp6085
S'Shirts'
p6086
aS'like'
p6087
aaa(lp6088
g5996
a(lp6089
S'you'
p6090
aS'know'
p6091
aaa(lp6092
g5996
a(lp6093
S'for'
p6094
aS'the'
p6095
aS'police'
p6096
aaa(lp6097
g5996
a(lp6098
S'anywhere'
p6099
aaa(lp6100
g5996
a(lp6101
S'And'
p6102
aS'they'
p6103
aS'were'
p6104
aS'doing'
p6105
aS'that'
p6106
aaa(lp6107
S'KEVIN'
p6108
a(lp6109
S'W'
p6110
aS'why'
p6111
aS'was'
p6112
aS'he'
p6113
aaa(lp6114
S'LISA'
p6115
a(lp6116
S'And'
p6117
aS'pulling'
p6118
aS'people'
p6119
aS'over'
p6120
aaa(lp6121
g6115
a(lp6122
S'They'
p6123
aS'were'
p6124
aS'stealing'
p6125
aS'their'
p6126
aS'cars'
p6127
aaa(lp6128
g6115
a(lp6129
S'There'
p6130
aS'was'
p6131
aS'like'
p6132
aS'people'
p6133
aS'in'
p6134
aS'the'
p6135
aS'back'
p6136
aaa(lp6137
g6115
a(lp6138
g40
aS'think'
p6139
aS'thats'
p6140
aS'what'
p6141
aS'they'
p6142
aS'were'
p6143
aS'doing'
p6144
aS'is'
p6145
aS'stealing'
p6146
aaa(lp6147
S'KEVIN'
p6148
a(lp6149
S'Okay'
p6150
aaa(lp6151
g6148
a(lp6152
S'So'
p6153
aS'he'
p6154
aS'would'
p6155
aaa(lp6156
S'LISA'
p6157
a(lp6158
S'They'
p6159
aS'were'
p6160
aS'carjacking'
p6161
aS'em'
p6162
aaa(lp6163
g6157
a(lp6164
S'Theyd'
p6165
aS'pull'
p6166
aS'them'
p6167
aS'over'
p6168
aaa(lp6169
g6157
a(lp6170
S'And'
p6171
aS'then'
p6172
aS'carjack'
p6173
aS'em'
p6174
aaa(lp6175
g6157
a(lp6176
S'And'
p6177
aS'then'
p6178
aS'like'
p6179
aS'like'
p6180
aaa(lp6181
g6157
a(lp6182
S'and'
p6183
aS'then'
p6184
aS'so'
p6185
aS'they'
p6186
aS'got'
p6187
aS'up'
p6188
aS'on'
p6189
aaa(lp6190
g6157
a(lp6191
S'you'
p6192
aS'know'
p6193
aaa(lp6194
g6157
a(lp6195
S'TV'
p6196
aaa(lp6197
g6157
a(lp6198
S'and'
p6199
aS'were'
p6200
aS'saying'
p6201
aS'all'
p6202
aS'this'
p6203
aS'about'
p6204
aS'them'
p6205
aaa(lp6206
g6157
a(lp6207
S'you'
p6208
aS'know'
p6209
aaa(lp6210
g6157
a(lp6211
S'well'
p6212
aS'dont'
p6213
aS'stop'
p6214
aS'for'
p6215
aS'the'
p6216
aS'police'
p6217
aS'even'
p6218
aaa(lp6219
S'KEVIN'
p6220
a(lp6221
S'How'
p6222
aS'm'
p6223
aaa(lp6224
g6220
a(lp6225
S'How'
p6226
aS'many'
p6227
aaa(lp6228
S'LISA'
p6229
a(lp6230
S'And'
p6231
aS'all'
p6232
aaa(lp6233
S'KEVIN'
p6234
a(lp6235
aa(lp6236
S'LISA'
p6237
a(lp6238
g40
aS'was'
p6239
aS'like'
p6240
aaa(lp6241
g6237
a(lp6242
S'oh'
p6243
aS'shoot'
p6244
aaa(lp6245
S'KEVIN'
p6246
a(lp6247
S'How'
p6248
aS'many'
p6249
aaa(lp6250
S'LISA'
p6251
a(lp6252
aa(lp6253
S'KEVIN'
p6254
a(lp6255
S'How'
p6256
aS'many'
p6257
aS'people'
p6258
aS'did'
p6259
aS'they'
p6260
aS'get'
p6261
aS'like'
p6262
aS'that'
p6263
aaa(lp6264
S'LISA'
p6265
a(lp6266
g40
aS'dont'
p6267
aS'know'
p6268
aaa(lp6269
S'KEVIN'
p6270
a(lp6271
S'Just'
p6272
ag126
aS'few'
p6273
aS'or'
p6274
aaa(lp6275
S'LISA'
p6276
a(lp6277
S'Just'
p6278
ag126
aS'few'
p6279
aaa(lp6280
g6276
a(lp6281
S'Yeah'
p6282
aaa(lp6283
S'KEVIN'
p6284
a(lp6285
S'Were'
p6286
aS'they'
p6287
aS'like'
p6288
aS'doing'
p6289
aS'really'
p6290
aS'fancy'
p6291
aS'cars'
p6292
aS'or'
p6293
aaa(lp6294
S'LISA'
p6295
a(lp6296
S'Cause'
p6297
aS'as'
p6298
aS'soon'
p6299
aS'as'
p6300
aS'it'
p6301
aS'happened'
p6302
aS'XX'
p6303
aaa(lp6304
S'MARIE'
p6305
a(lp6306
S'Doesnt'
p6307
aS'that'
p6308
aS'sound'
p6309
aS'like'
p6310
aS'something'
p6311
aS'that'
p6312
aS'would'
p6313
aS'happen'
p6314
aS'on'
p6315
aS'like'
p6316
aS'on'
p6317
aS'Chips'
p6318
aaa(lp6319
g6305
a(lp6320
S'or'
p6321
aS'something'
p6322
aaa(lp6323
S'LISA'
p6324
a(lp6325
aa(lp6326
S'KEVIN'
p6327
a(lp6328
aa(lp6329
S'LISA'
p6330
a(lp6331
S'Yeah'
p6332
aaa(lp6333
S'KEVIN'
p6334
a(lp6335
S'SING'
p6336
aS'Doodoodoodoodoo'
p6337
aS'SING'
p6338
aaa(lp6339
S'LISA'
p6340
a(lp6341
S'It'
p6342
aS'does'
p6343
aaa(lp6344
S'MARIE'
p6345
a(lp6346
aa(lp6347
S'LISA'
p6348
a(lp6349
aa(lp6350
S'MARIE'
p6351
a(lp6352
aa(lp6353
S'KEVIN'
p6354
a(lp6355
S'Show'
p6356
aS'was'
p6357
aS'terrifying'
p6358
aaa(lp6359
g6354
a(lp6360
S'That'
p6361
aS'show'
p6362
aS'was'
p6363
aS'terrifying'
p6364
aaa(lp6365
S'LISA'
p6366
a(lp6367
aa(lp6368
g6366
a(lp6369
S'Oh'
p6370
aS'my'
p6371
aS'God'
p6372
aaa(lp6373
S'KEVIN'
p6374
a(lp6375
aa(lp6376
S'LISA'
p6377
a(lp6378
S'Youre'
p6379
ag126
aS'dork'
p6380
aaa(lp6381
S'MARIE'
p6382
a(lp6383
S'But'
p6384
aS'do'
p6385
aS'you'
p6386
aS'know'
p6387
aS'what'
p6388
ag40
aS'mean'
p6389
aaa(lp6390
S'LISA'
p6391
a(lp6392
S'Yeah'
p6393
aaa(lp6394
S'MARIE'
p6395
a(lp6396
S'you'
p6397
aS'cant'
p6398
aS'even'
p6399
aS'do'
p6400
aS'anything'
p6401
aaa(lp6402
S'LISA'
p6403
a(lp6404
g40
aS'know'
p6405
aS'what'
p6406
aS'you'
p6407
aS'mean'
p6408
aaa(lp6409
S'MARIE'
p6410
a(lp6411
S'You'
p6412
aS'cant'
p6413
aS'do'
p6414
aS'anything'
p6415
aS'anymore'
p6416
aaa(lp6417
S'LISA'
p6418
a(lp6419
S'VOX'
p6420
aS'VOX'
p6421
aaa(lp6422
S'MARIE'
p6423
a(lp6424
S'All'
p6425
aS'you'
p6426
aS'can'
p6427
aS'do'
p6428
aS'is'
p6429
aS'just'
p6430
aS'stay'
p6431
aS'home'
p6432
aaa(lp6433
S'LISA'
p6434
a(lp6435
S'VOX'
p6436
aS'VOX'
p6437
aaa(lp6438
S'KEVIN'
p6439
a(lp6440
S'Issac'
p6441
aaa(lp6442
S'MARIE'
p6443
a(lp6444
S'Just'
p6445
aS'stay'
p6446
aS'home'
p6447
aaa(lp6448
g6443
a(lp6449
S'Thats'
p6450
aS'it'
p6451
aaa(lp6452
S'LISA'
p6453
a(lp6454
S'You'
p6455
aS'sound'
p6456
aS'like'
p6457
aS'Stephanie'
p6458
aS'now'
p6459
aaa(lp6460
S'MARIE'
p6461
a(lp6462
S'Oh'
p6463
aS'no'
p6464
aaa(lp6465
S'KEVIN'
p6466
a(lp6467
S'Stephanie'
p6468
aS'talks'
p6469
aS'that'
p6470
aS'way'
p6471
aaa(lp6472
S'LISA'
p6473
a(lp6474
S'Stephanie'
p6475
aaa(lp6476
g6473
a(lp6477
S'Stephanie'
p6478
aS'says'
p6479
aS'its'
p6480
aS'like'
p6481
aaa(lp6482
g6473
a(lp6483
S'what'
p6484
aS'do'
p6485
aS'uh'
p6486
aaa(lp6487
g6473
a(lp6488
g40
aS'can'
p6489
aS'never'
p6490
aS'think'
p6491
aS'of'
p6492
aS'that'
p6493
aS'word'
p6494
aaa(lp6495
g6473
a(lp6496
S'The'
p6497
aS'end'
p6498
aS'of'
p6499
aS'the'
p6500
aS'world'
p6501
aaa(lp6502
S'KEVIN'
p6503
a(lp6504
S'Apocalypse'
p6505
aaa(lp6506
S'LISA'
p6507
a(lp6508
S'No'
p6509
aS'the'
p6510
aS'other'
p6511
aS'one'
p6512
aaa(lp6513
S'KEVIN'
p6514
a(lp6515
S'Revelation'
p6516
aaa(lp6517
S'LISA'
p6518
a(lp6519
S'No'
p6520
aaa(lp6521
S'MARIE'
p6522
a(lp6523
S'The'
p6524
aS'other'
p6525
aS'one'
p6526
aaa(lp6527
S'KEVIN'
p6528
a(lp6529
aa(lp6530
S'MARIE'
p6531
a(lp6532
S'Keep'
p6533
aS'going'
p6534
aaa(lp6535
S'LISA'
p6536
a(lp6537
S'Like'
p6538
aaa(lp6539
S'KEVIN'
p6540
a(lp6541
aa(lp6542
S'LISA'
p6543
a(lp6544
g4760
aS'um'
p6545
aaa(lp6546
g6543
a(lp6547
S'bornagain'
p6548
aS'Christians'
p6549
aS'always'
p6550
aS'talk'
p6551
aS'about'
p6552
aaa(lp6553
S'KEVIN'
p6554
a(lp6555
S'Doomsday'
p6556
aaa(lp6557
S'LISA'
p6558
a(lp6559
S'Forget'
p6560
aS'it'
p6561
aaa(lp6562
S'KEVIN'
p6563
a(lp6564
aa(lp6565
S'LISA'
p6566
a(lp6567
S'Do'
p6568
aS'you'
p6569
aS'know'
p6570
aS'what'
p6571
aS'Im'
p6572
aS'talking'
p6573
aS'about'
p6574
aaa(lp6575
S'MARIE'
p6576
a(lp6577
S'No'
p6578
aaa(lp6579
g6576
a(lp6580
g40
aS'have'
p6581
aS'no'
p6582
aS'idea'
p6583
aS'what'
p6584
aS'youre'
p6585
aS'talking'
p6586
aS'about'
p6587
aaa(lp6588
S'KEVIN'
p6589
a(lp6590
aa(lp6591
S'LISA'
p6592
a(lp6593
S'The'
p6594
aS'one'
p6595
aS'where'
p6596
aS'all'
p6597
aS'the'
p6598
aS'good'
p6599
aaa(lp6600
S'MARIE'
p6601
a(lp6602
S'Mm'
p6603
aaa(lp6604
S'LISA'
p6605
a(lp6606
S'The'
p6607
aS'ones'
p6608
aS'that'
p6609
aS'are'
p6610
aS'marked'
p6611
aaa(lp6612
S'KEVIN'
p6613
a(lp6614
S'Rapture'
p6615
aaa(lp6616
S'LISA'
p6617
a(lp6618
S'Rapture'
p6619
aaa(lp6620
S'KEVIN'
p6621
a(lp6622
S'She'
p6623
aS'still'
p6624
aS'goes'
p6625
aS'to'
p6626
aS'Calvary'
p6627
aS'Chapel'
p6628
aaa(lp6629
S'LISA'
p6630
a(lp6631
S'No'
p6632
aaa(lp6633
g6630
a(lp6634
S'she'
p6635
aS'doesnt'
p6636
aaa(lp6637
g6630
a(lp6638
S'No'
p6639
aaa(lp6640
g6630
a(lp6641
S'she'
p6642
aS'never'
p6643
aS'went'
p6644
aS'to'
p6645
aS'Calvary'
p6646
aS'Chapel'
p6647
aaa(lp6648
S'MARIE'
p6649
a(lp6650
S'Oh'
p6651
aS'my'
p6652
aS'God'
p6653
aaa(lp6654
g6649
a(lp6655
S'Calvary'
p6656
aS'Chapel'
p6657
aaa(lp6658
S'KEVIN'
p6659
a(lp6660
S'What'
p6661
aS'was'
p6662
aS'the'
p6663
aS'one'
p6664
aS'that'
p6665
aS'she'
p6666
aS'used'
p6667
aS'to'
p6668
aS'go'
p6669
aS'to'
p6670
aaa(lp6671
g6659
a(lp6672
g40
aS'thought'
p6673
aS'you'
p6674
aS'said'
p6675
aS'XXXX'
p6676
aaa(lp6677
S'LISA'
p6678
a(lp6679
S'No'
p6680
aS'she'
p6681
aS'went'
p6682
aS'to'
p6683
aS'one'
p6684
aaa(lp6685
g6678
a(lp6686
S'that'
p6687
aS'was'
p6688
aS'right'
p6689
aS'by'
p6690
aS'Manzano'
p6691
aaa(lp6692
g6678
a(lp6693
S'But'
p6694
aaa(lp6695
g6678
a(lp6696
S'it'
p6697
aS'was'
p6698
aS'the'
p6699
aS'same'
p6700
aS'deal'
p6701
aaa(lp6702
g6678
a(lp6703
S'It'
p6704
aS'was'
p6705
aS'just'
p6706
ag126
aS'much'
p6707
ag3055
aS'much'
p6708
aS'smaller'
p6709
aS'church'
p6710
aaa(lp6711
S'MARIE'
p6712
a(lp6713
S'Calvary'
p6714
aS'Chapel'
p6715
ag7
aS'is'
p6716
aS'too'
p6717
aS'much'
p6718
ag7
aaa(lp6719
S'LISA'
p6720
a(lp6721
S'It'
p6722
aS'was'
p6723
aS'born'
p6724
aS'ag'
p6725
aaa(lp6726
g6720
a(lp6727
S'She'
p6728
aS'was'
p6729
aS'just'
p6730
aS'like'
p6731
aS'supposedly'
p6732
ag126
aS'bornagain'
p6733
aS'Christian'
p6734
aS'XX'
p6735
aaa(lp6736
S'MARIE'
p6737
a(lp6738
S'She'
p6739
aS'was'
p6740
aaa(lp6741
g6737
a(lp6742
S'or'
p6743
aS'she'
p6744
aS'is'
p6745
aaa(lp6746
S'LISA'
p6747
a(lp6748
S'She'
p6749
aS'hasnt'
p6750
aS'gone'
p6751
aS'forever'
p6752
aaa(lp6753
S'MARIE'
p6754
a(lp6755
S'Well'
p6756
aS'what'
p6757
aS'is'
p6758
aS'her'
p6759
aS'her'
p6760
aS'husband'
p6761
aaa(lp6762
S'LISA'
p6763
a(lp6764
S'Officially'
p6765
aaa(lp6766
g6763
a(lp6767
S'Her'
p6768
aS'husbands'
p6769
aS'Catholic'
p6770
aaa(lp6771
S'MARIE'
p6772
a(lp6773
S'And'
p6774
aS'what'
p6775
aS'is'
p6776
aS'she'
p6777
aS'officially'
p6778
aaa(lp6779
S'LISA'
p6780
a(lp6781
S'She'
p6782
ag40
aS'dont'
p6783
aS'think'
p6784
aS'shes'
p6785
aS'official'
p6786
aS'anything'
p6787
aaa(lp6788
S'MARIE'
p6789
a(lp6790
S'Shes'
p6791
aS'officially'
p6792
aS'whatever'
p6793
aS'she'
p6794
aS'feels'
p6795
aS'like'
p6796
aaa(lp6797
S'LISA'
p6798
a(lp6799
S'Shes'
p6800
aS'not'
p6801
aS'baptized'
p6802
aaa(lp6803
g6798
a(lp6804
S'As'
p6805
aS'anything'
p6806
aaa(lp6807
g6798
a(lp6808
S'She'
p6809
aS'did'
p6810
aS'this'
p6811
aaa(lp6812
g6798
a(lp6813
S'you'
p6814
aS'know'
p6815
aS'like'
p6816
aaa(lp6817
g6798
a(lp6818
S'well'
p6819
aaa(lp6820
g6798
a(lp6821
S'bornagain'
p6822
aS'Christians'
p6823
aS'have'
p6824
aS'this'
p6825
aS'thing'
p6826
aS'where'
p6827
aaa(lp6828
g6798
a(lp6829
S'where'
p6830
aS'they'
p6831
aS'um'
p6832
aaa(lp6833
S'KEVIN'
p6834
a(lp6835
S'What'
p6836
aaa(lp6837
S'LISA'
p6838
a(lp6839
aa(lp6840
S'MARIE'
p6841
a(lp6842
aa(lp6843
S'LISA'
p6844
a(lp6845
S'Where'
p6846
aS'they'
p6847
aaa(lp6848
g6844
a(lp6849
S'you'
p6850
aS'know'
p6851
aS'like'
p6852
aaa(lp6853
g6844
a(lp6854
S'kinda'
p6855
aaa(lp6856
g6844
a(lp6857
S'theyll'
p6858
aaa(lp6859
g6844
a(lp6860
S'you'
p6861
aS'know'
p6862
aaa(lp6863
g6844
a(lp6864
S'try'
p6865
aS'to'
p6866
aS'like'
p6867
aaa(lp6868
g6844
a(lp6869
S'inspire'
p6870
aS'you'
p6871
aS'and'
p6872
aS'then'
p6873
aaa(lp6874
g6844
a(lp6875
S'youre'
p6876
aS'just'
p6877
aS'supposed'
p6878
aS'to'
p6879
aS'like'
p6880
aaa(lp6881
g6844
a(lp6882
S'proclaim'
p6883
aS'yourself'
p6884
aS'like'
p6885
aaa(lp6886
g6844
a(lp6887
S'that'
p6888
aS'day'
p6889
aaa(lp6890
g6844
a(lp6891
S'Like'
p6892
aaa(lp6893
S'KEVIN'
p6894
a(lp6895
S'And'
p6896
aS'thats'
p6897
aS'what'
p6898
aS'baptism'
p6899
aS'is'
p6900
aaa(lp6901
S'LISA'
p6902
a(lp6903
S'Well'
p6904
aS'its'
p6905
aS'not'
p6906
aS'supposed'
p6907
aS'to'
p6908
aS'be'
p6909
aS'baptism'
p6910
aS'th'
p6911
aaa(lp6912
g6902
a(lp6913
S'Well'
p6914
aaa(lp6915
g6902
a(lp6916
S'you'
p6917
aS'know'
p6918
aS'they'
p6919
aS'just'
p6920
aaa(lp6921
S'MARIE'
p6922
a(lp6923
S'They'
p6924
aS'dont'
p6925
aS'believe'
p6926
aS'in'
p6927
aS'baptism'
p6928
aaa(lp6929
g6922
a(lp6930
S'do'
p6931
aS'they'
p6932
aaa(lp6933
S'LISA'
p6934
a(lp6935
S'Well'
p6936
aS'no'
p6937
aaa(lp6938
g6934
a(lp6939
S'Not'
p6940
aS'so'
p6941
aS'of'
p6942
aaa(lp6943
S'KEVIN'
p6944
a(lp6945
S'Well'
p6946
aS'Baptists'
p6947
aS'do'
p6948
aaa(lp6949
S'LISA'
p6950
a(lp6951
S'Not'
p6952
aS'so'
p6953
aS'officially'
p6954
aaa(lp6955
S'MARIE'
p6956
a(lp6957
S'Cause'
p6958
aS'wasnt'
p6959
aS'it'
p6960
aaa(lp6961
g6956
a(lp6962
S'well'
p6963
aS'who'
p6964
aaa(lp6965
g6956
a(lp6966
S'They'
p6967
aS'dont'
p6968
aaa(lp6969
S'KEVIN'
p6970
a(lp6971
S'And'
p6972
aS'you'
p6973
aS'dont'
p6974
aS'get'
p6975
ag126
aS'certificate'
p6976
aS'or'
p6977
aS'anything'
p6978
aaa(lp6979
S'MARIE'
p6980
a(lp6981
S'They'
p6982
aS'dont'
p6983
aaa(lp6984
g6980
a(lp6985
S'They'
p6986
aS'dont'
p6987
aS'like'
p6988
aS'XX'
p6989
aaa(lp6990
S'LISA'
p6991
a(lp6992
S'You'
p6993
aS'dont'
p6994
aS'get'
p6995
ag126
aS'certificate'
p6996
aaa(lp6997
g6991
a(lp6998
S'its'
p6999
aS'just'
p7000
aS'like'
p7001
aaa(lp7002
g6991
a(lp7003
S'youre'
p7004
aS'gonna'
p7005
aS'change'
p7006
aS'your'
p7007
aS'life'
p7008
aS'kinda'
p7009
aS'thing'
p7010
aaa(lp7011
S'MARIE'
p7012
a(lp7013
S'They'
p7014
aS'they'
p7015
aaa(lp7016
S'LISA'
p7017
a(lp7018
S'And'
p7019
aS'accept'
p7020
aS'God'
p7021
aS'and'
p7022
aaa(lp7023
S'MARIE'
p7024
a(lp7025
S'They'
p7026
aS'like'
p7027
aS'are'
p7028
aS'like'
p7029
aS'totally'
p7030
aaa(lp7031
g7024
a(lp7032
S'Werent'
p7033
aS'you'
p7034
aS'saying'
p7035
aS'that'
p7036
aS'Barbara'
p7037
aS'was'
p7038
aS'saying'
p7039
aS'something'
p7040
aS'about'
p7041
aS'Ash'
p7042
aS'Wednesday'
p7043
aaa(lp7044
S'LISA'
p7045
a(lp7046
S'Yes'
p7047
aaa(lp7048
g7045
a(lp7049
S'Wha'
p7050
aaa(lp7051
S'KEVIN'
p7052
a(lp7053
S'What'
p7054
aS'did'
p7055
aS'she'
p7056
aS'say'
p7057
aaa(lp7058
S'MARIE'
p7059
a(lp7060
S'It'
p7061
aS'made'
p7062
aS'me'
p7063
aS'so'
p7064
aS'mad'
p7065
aaa(lp7066
S'LISA'
p7067
a(lp7068
S'Shes'
p7069
ag126
aaa(lp7070
g7067
a(lp7071
S'Shes'
p7072
ag126
aS'Pentecostal'
p7073
aaa(lp7074
g7067
a(lp7075
S'Well'
p7076
aaa(lp7077
g7067
a(lp7078
S'she'
p7079
aS'said'
p7080
aS'um'
p7081
aaa(lp7082
g7067
a(lp7083
S'she'
p7084
aS'asked'
p7085
aS'if'
p7086
ag40
aS'had'
p7087
aS'went'
p7088
aS'and'
p7089
aS'got'
p7090
aS'ashes'
p7091
aS'on'
p7092
aS'my'
p7093
aS'forehead'
p7094
aS'yet'
p7095
aaa(lp7096
g7067
a(lp7097
S'And'
p7098
aS'um'
p7099
aaa(lp7100
g7067
a(lp7101
g40
aS'dont'
p7102
aS'remember'
p7103
aS'what'
p7104
aS'she'
p7105
aS'said'
p7106
aaa(lp7107
g7067
a(lp7108
S'Something'
p7109
aS'she'
p7110
aS'just'
p7111
aS'said'
p7112
aaa(lp7113
g7067
a(lp7114
S'VOX'
p7115
aS'well'
p7116
aS'Jesus'
p7117
aS'is'
p7118
aS'in'
p7119
aS'your'
p7120
aS'heart'
p7121
aaa(lp7122
g7067
a(lp7123
S'not'
p7124
aS'on'
p7125
aS'your'
p7126
aS'forehead'
p7127
aS'VOX'
p7128
aaa(lp7129
g7067
a(lp7130
S'Or'
p7131
aS'something'
p7132
aaa(lp7133
S'MARIE'
p7134
a(lp7135
aa(lp7136
g7134
a(lp7137
S'And'
p7138
ag40
aS'was'
p7139
aS'just'
p7140
aS'like'
p7141
aaa(lp7142
S'KEVIN'
p7143
a(lp7144
aa(lp7145
S'LISA'
p7146
a(lp7147
aa(lp7148
g7146
a(lp7149
g40
aS'was'
p7150
aS'just'
p7151
aS'like'
p7152
aaa(lp7153
S'KEVIN'
p7154
a(lp7155
aa(lp7156
S'MARIE'
p7157
a(lp7158
aa(lp7159
S'KEVIN'
p7160
a(lp7161
S'You'
p7162
aS'told'
p7163
aS'me'
p7164
aS'that'
p7165
aaa(lp7166
g7160
a(lp7167
S'but'
p7168
aS'its'
p7169
aS'still'
p7170
aS'stupid'
p7171
aaa(lp7172
g7160
a(lp7173
g40
aS'mean'
p7174
aaa(lp7175
S'LISA'
p7176
a(lp7177
S'Its'
p7178
aS'just'
p7179
aS'like'
p7180
aaa(lp7181
g7176
a(lp7182
S'well'
p7183
aaa(lp7184
g7176
a(lp7185
S'you'
p7186
aS'know'
p7187
aaa(lp7188
g7176
a(lp7189
S'you'
p7190
aS'just'
p7191
aS'proved'
p7192
aS'that'
p7193
aS'you'
p7194
aS'absolutely'
p7195
aS'know'
p7196
aS'nothing'
p7197
aS'about'
p7198
aS'the'
p7199
aS'Catholic'
p7200
aS'religion'
p7201
aaa(lp7202
S'KEVIN'
p7203
a(lp7204
aa(lp7205
S'MARIE'
p7206
a(lp7207
S'XXXX'
p7208
aaa(lp7209
S'LISA'
p7210
a(lp7211
S'You'
p7212
aS'know'
p7213
aS'what'
p7214
ag40
aS'mean'
p7215
aaa(lp7216
g7210
a(lp7217
S'That'
p7218
aS'was'
p7219
aS'never'
p7220
aS'the'
p7221
aS'point'
p7222
aaa(lp7223
S'MARIE'
p7224
a(lp7225
aa(lp7226
S'KEVIN'
p7227
a(lp7228
aa(lp7229
S'MARIE'
p7230
a(lp7231
aa(lp7232
S'KEVIN'
p7233
a(lp7234
aa(lp7235
S'LISA'
p7236
a(lp7237
S'you'
p7238
aS'know'
p7239
aaa(lp7240
S'KEVIN'
p7241
a(lp7242
aa(lp7243
S'MARIE'
p7244
a(lp7245
aa(lp7246
S'LISA'
p7247
a(lp7248
S'So'
p7249
aS'whatever'
p7250
aaa(lp7251
g7247
a(lp7252
g40
aS'was'
p7253
aS'just'
p7254
aS'like'
p7255
aaa(lp7256
S'KEVIN'
p7257
a(lp7258
S'Oh'
p7259
aS'boy'
p7260
aaa(lp7261
S'MARIE'
p7262
a(lp7263
S'Oh'
p7264
aaa(lp7265
g7262
a(lp7266
S'it'
p7267
aS'was'
p7268
aS'so'
p7269
aS'funny'
p7270
aS'one'
p7271
aS'day'
p7272
aaa(lp7273
g7262
a(lp7274
S'Um'
p7275
aaa(lp7276
g7262
a(lp7277
S'uh'
p7278
aS'Kent'
p7279
aS'was'
p7280
aS'at'
p7281
aS'the'
p7282
aS'store'
p7283
aaa(lp7284
g7262
a(lp7285
S'And'
p7286
aS'me'
p7287
aS'and'
p7288
aS'Cassie'
p7289
aS'were'
p7290
aS'talking'
p7291
aaa(lp7292
g7262
a(lp7293
S'and'
p7294
ag40
aS'was'
p7295
aS'just'
p7296
aS'like'
p7297
aaa(lp7298
g7262
a(lp7299
S'thats'
p7300
aS'before'
p7301
aS'he'
p7302
aS'fired'
p7303
aS'Barry'
p7304
aaa(lp7305
g7262
a(lp7306
g40
aS'guess'
p7307
aaa(lp7308
S'LISA'
p7309
a(lp7310
S'Hm'
p7311
aaa(lp7312
S'MARIE'
p7313
a(lp7314
S'He'
p7315
ag4760
aS'thats'
p7316
aS'the'
p7317
aS'day'
p7318
aS'he'
p7319
aS'asked'
p7320
aS'us'
p7321
aS'about'
p7322
aS'Barry'
p7323
aaa(lp7324
S'LISA'
p7325
a(lp7326
S'Asked'
p7327
aS'you'
p7328
aS'about'
p7329
aS'Barry'
p7330
aaa(lp7331
S'MARIE'
p7332
a(lp7333
S'Yeah'
p7334
aaa(lp7335
S'LISA'
p7336
a(lp7337
S'XX'
p7338
aaa(lp7339
S'MARIE'
p7340
a(lp7341
S'Cause'
p7342
aS'that'
p7343
aS'was'
p7344
aS'the'
p7345
aS'day'
p7346
aS'he'
p7347
aS'said'
p7348
aS'he'
p7349
aS'was'
p7350
aS'gonna'
p7351
aS'fire'
p7352
aaa(lp7353
g7340
a(lp7354
S'Well'
p7355
aS'he'
p7356
aS'had'
p7357
aS'told'
p7358
aS'us'
p7359
aS'that'
p7360
aS'he'
p7361
aS'probably'
p7362
aS'was'
p7363
aS'gonna'
p7364
aS'let'
p7365
aS'him'
p7366
aS'go'
p7367
aaa(lp7368
S'LISA'
p7369
a(lp7370
S'Well'
p7371
aS'what'
p7372
aS'happened'
p7373
aaa(lp7374
g7369
a(lp7375
S'Okay'
p7376
ag40
aS'never'
p7377
aaa(lp7378
g7369
a(lp7379
S'Im'
p7380
aaa(lp7381
g7369
a(lp7382
S'Im'
p7383
aS'gonna'
p7384
aS'get'
p7385
aS'you'
p7386
aS'off'
p7387
aS'subject'
p7388
aS'right'
p7389
aS'here'
p7390
aaa(lp7391
g7369
a(lp7392
S'Barry'
p7393
aS'was'
p7394
aS'mister'
p7395
aS'wonderful'
p7396
aS'good'
p7397
aaa(lp7398
g7369
a(lp7399
S'did'
p7400
aS'everything'
p7401
aaa(lp7402
S'MARIE'
p7403
a(lp7404
S'He'
p7405
aS'never'
p7406
aS'was'
p7407
aaa(lp7408
g7403
a(lp7409
S'He'
p7410
aS'never'
p7411
aS'was'
p7412
aaa(lp7413
S'LISA'
p7414
a(lp7415
g40
aS'thought'
p7416
aS'Kent'
p7417
aS'even'
p7418
aS'said'
p7419
aS'that'
p7420
aS'he'
p7421
aS'was'
p7422
aS'great'
p7423
aaa(lp7424
S'MARIE'
p7425
a(lp7426
S'Well'
p7427
aaa(lp7428
g7425
a(lp7429
S'Kent'
p7430
aS'liked'
p7431
aS'him'
p7432
aS'at'
p7433
aS'first'
p7434
aaa(lp7435
g7425
a(lp7436
S'And'
p7437
aS'then'
p7438
aS'he'
p7439
aS'started'
p7440
aS'messing'
p7441
aS'up'
p7442
aS'the'
p7443
aS'machine'
p7444
aS'and'
p7445
aS'stuff'
p7446
aaa(lp7447
g7425
a(lp7448
S'so'
p7449
aS'Kent'
p7450
aS'was'
p7451
aS'like'
p7452
aaa(lp7453
S'LISA'
p7454
a(lp7455
S'Unhunh'
p7456
aaa(lp7457
S'MARIE'
p7458
a(lp7459
S'you'
p7460
aS'know'
p7461
aaa(lp7462
S'LISA'
p7463
a(lp7464
S'So'
p7465
aS'he'
p7466
aS'didnt'
p7467
aS'like'
p7468
aS'him'
p7469
aS'ever'
p7470
aS'for'
p7471
aS'very'
p7472
aS'long'
p7473
aaa(lp7474
S'MARIE'
p7475
a(lp7476
S'and'
p7477
aS'then'
p7478
aS'he'
p7479
aS'XX'
p7480
aaa(lp7481
g7475
a(lp7482
S'Unhunh'
p7483
aaa(lp7484
g7475
a(lp7485
S'And'
p7486
aS'then'
p7487
aaa(lp7488
S'LISA'
p7489
a(lp7490
S'Oh'
p7491
aaa(lp7492
g7489
a(lp7493
S'okay'
p7494
aaa(lp7495
S'MARIE'
p7496
a(lp7497
S'Pat'
p7498
aS'started'
p7499
aS'not'
p7500
aS'liking'
p7501
aS'him'
p7502
aS'either'
p7503
aaa(lp7504
g7496
a(lp7505
S'And'
p7506
ag40
aS'mean'
p7507
aaa(lp7508
g7496
a(lp7509
S'my'
p7510
aS'mom'
p7511
aS'never'
p7512
aS'liked'
p7513
aS'him'
p7514
aS'so'
p7515
aaa(lp7516
S'LISA'
p7517
a(lp7518
S'Okay'
p7519
aS'anyways'
p7520
aS'so'
p7521
aaa(lp7522
S'MARIE'
p7523
a(lp7524
S'But'
p7525
aS'he'
p7526
aaa(lp7527
g7523
a(lp7528
S'We'
p7529
aS'were'
p7530
aS'sitting'
p7531
aS'there'
p7532
aaa(lp7533
g7523
a(lp7534
S'and'
p7535
aS'you'
p7536
aS'know'
p7537
aS'how'
p7538
aS'like'
p7539
aaa(lp7540
g7523
a(lp7541
S'Kents'
p7542
aS'like'
p7543
ag126
aS'big'
p7544
aS'old'
p7545
aaa(lp7546
g7523
a(lp7547
S'Well'
p7548
aS'he'
p7549
aS'was'
p7550
ag126
aS'big'
p7551
aS'old'
p7552
aS'drug'
p7553
aS'addict'
p7554
aS'and'
p7555
aS'all'
p7556
aS'that'
p7557
aS'stuff'
p7558
aaa(lp7559
g7523
a(lp7560
S'And'
p7561
aaa(lp7562
S'KEVIN'
p7563
a(lp7564
aa(lp7565
g7563
a(lp7566
S'You'
p7567
aS'told'
p7568
aS'me'
p7569
ag126
aS'little'
p7570
aS'bit'
p7571
aS'about'
p7572
aaa(lp7573
S'LISA'
p7574
a(lp7575
S'Yeah'
p7576
aaa(lp7577
g7574
a(lp7578
S'he'
p7579
aS'was'
p7580
ag126
aS'big'
p7581
aS'old'
p7582
aS'drug'
p7583
aS'addict'
p7584
aaa(lp7585
S'MARIE'
p7586
a(lp7587
S'Yeah'
p7588
aS'he'
p7589
aS'was'
p7590
aaa(lp7591
S'KEVIN'
p7592
a(lp7593
S'Like'
p7594
aS'coke'
p7595
aS'or'
p7596
aaa(lp7597
S'MARIE'
p7598
a(lp7599
S'And'
p7600
aS'he'
p7601
aaa(lp7602
g7598
a(lp7603
S'Yeah'
p7604
aaa(lp7605
S'LISA'
p7606
a(lp7607
S'Yeah'
p7608
aaa(lp7609
g7606
a(lp7610
S'he'
p7611
aS'was'
p7612
ag126
aS'bornagain'
p7613
aS'virgin'
p7614
aaa(lp7615
g7606
a(lp7616
g40
aS'thought'
p7617
aS'that'
p7618
aS'was'
p7619
aS'the'
p7620
aS'most'
p7621
aS'hilarious'
p7622
aS'thing'
p7623
ag40
aS'heard'
p7624
aS'in'
p7625
aS'my'
p7626
aS'entire'
p7627
aS'life'
p7628
aaa(lp7629
S'KEVIN'
p7630
a(lp7631
aa(lp7632
S'MARIE'
p7633
a(lp7634
S'But'
p7635
aS'he'
p7636
aaa(lp7637
S'LISA'
p7638
a(lp7639
S'Anyways'
p7640
aaa(lp7641
g7638
a(lp7642
S'Im'
p7643
aS'sorry'
p7644
aaa(lp7645
S'KEVIN'
p7646
a(lp7647
aa(lp7648
S'MARIE'
p7649
a(lp7650
S'But'
p7651
aS'he'
p7652
aS'was'
p7653
aaa(lp7654
g7649
a(lp7655
S'you'
p7656
aS'know'
p7657
aaa(lp7658
g7649
a(lp7659
S'he'
p7660
aS'like'
p7661
aaa(lp7662
g7649
a(lp7663
S'is'
p7664
aS'so'
p7665
aS'like'
p7666
aaa(lp7667
g7649
a(lp7668
S'judgmental'
p7669
aS'on'
p7670
aS'other'
p7671
aS'people'
p7672
aS'now'
p7673
aaa(lp7674
g7649
a(lp7675
S'hes'
p7676
aS'gotten'
p7677
aS'to'
p7678
aS'be'
p7679
aS'like'
p7680
aS'that'
p7681
aS'ever'
p7682
aS'since'
p7683
ag40
aS'think'
p7684
aaa(lp7685
g7649
a(lp7686
S'basically'
p7687
aS'since'
p7688
aS'hes'
p7689
aS'been'
p7690
aS'married'
p7691
aaa(lp7692
g7649
a(lp7693
S'Hes'
p7694
aS'like'
p7695
aS'so'
p7696
aS'judgmental'
p7697
aS'on'
p7698
aS'people'
p7699
aaa(lp7700
g7649
a(lp7701
S'it'
p7702
aS'bugs'
p7703
aS'me'
p7704
aaa(lp7705
S'LISA'
p7706
a(lp7707
S'VOX'
p7708
aS'Like'
p7709
aS'who'
p7710
aS'VOX'
p7711
aaa(lp7712
S'MARIE'
p7713
a(lp7714
S'B'
p7715
aS'just'
p7716
aS'like'
p7717
aaa(lp7718
g7713
a(lp7719
S'people'
p7720
aS'in'
p7721
aS'general'
p7722
aaa(lp7723
g7713
a(lp7724
g40
aS'mean'
p7725
aS'he'
p7726
aS'just'
p7727
aaa(lp7728
g7713
a(lp7729
g40
aS'dont'
p7730
aS'know'
p7731
aS'its'
p7732
aaa(lp7733
g7713
a(lp7734
S'Its'
p7735
aS'weird'
p7736
aaa(lp7737
g7713
a(lp7738
S'Like'
p7739
aaa(lp7740
S'LISA'
p7741
a(lp7742
S'See'
p7743
ag40
aaa(lp7744
S'MARIE'
p7745
a(lp7746
S'you'
p7747
aS'know'
p7748
aS'how'
p7749
aS'he'
p7750
aS'used'
p7751
aS'to'
p7752
aS'always'
p7753
aS'say'
p7754
aaa(lp7755
g7745
a(lp7756
S'well'
p7757
ag40
aS'would'
p7758
aS'never'
p7759
aS'push'
p7760
aaa(lp7761
g7745
a(lp7762
S'my'
p7763
aS'faith'
p7764
aS'on'
p7765
aS'anybody'
p7766
aaa(lp7767
g7745
a(lp7768
g40
aS'would'
p7769
aS'never'
p7770
aS'p'
p7771
aS'preach'
p7772
aS'to'
p7773
aS'anybody'
p7774
aaa(lp7775
g7745
a(lp7776
S'But'
p7777
aaa(lp7778
g7745
a(lp7779
S'he'
p7780
aS'doesnt'
p7781
aS'let'
p7782
aS'us'
p7783
aS'put'
p7784
aS'anything'
p7785
aS'up'
p7786
aaa(lp7787
g7745
a(lp7788
S'Like'
p7789
aS'as'
p7790
aS'far'
p7791
aS'as'
p7792
aaa(lp7793
g7745
a(lp7794
S'you'
p7795
aS'know'
p7796
aS'like'
p7797
aS'um'
p7798
aaa(lp7799
S'KEVIN'
p7800
a(lp7801
S'Cant'
p7802
aS'put'
p7803
aS'anything'
p7804
aS'Catholic'
p7805
aS'up'
p7806
aaa(lp7807
g7800
a(lp7808
S'Or'
p7809
aS'nothing'
p7810
aS'secular'
p7811
aaa(lp7812
S'MARIE'
p7813
a(lp7814
S'Yeah'
p7815
aaa(lp7816
g7813
a(lp7817
S'do'
p7818
aS'you'
p7819
aS'know'
p7820
aS'what'
p7821
ag40
aS'mean'
p7822
aaa(lp7823
g7813
a(lp7824
S'just'
p7825
aS'nothing'
p7826
aaa(lp7827
g7813
a(lp7828
S'were'
p7829
aS'not'
p7830
aS'allowed'
p7831
aS'to'
p7832
aS'put'
p7833
aS'anything'
p7834
aS'up'
p7835
aaa(lp7836
g7813
a(lp7837
S'But'
p7838
aaa(lp7839
g7813
a(lp7840
S'here'
p7841
aS'comes'
p7842
aS'this'
p7843
aS'person'
p7844
aaa(lp7845
g7813
a(lp7846
S'and'
p7847
aaa(lp7848
g7813
a(lp7849
S'And'
p7850
aS'its'
p7851
aS'about'
p7852
aaa(lp7853
g7813
a(lp7854
S'like'
p7855
aS'you'
p7856
aS'know'
p7857
aaa(lp7858
g7813
a(lp7859
S'about'
p7860
aS'his'
p7861
aS'religion'
p7862
aS'or'
p7863
aS'whatever'
p7864
aaa(lp7865
g7813
a(lp7866
S'and'
p7867
aS'he'
p7868
aS'CLAP'
p7869
aS'plasters'
p7870
aS'CLAP'
p7871
aS'it'
p7872
aS'right'
p7873
aS'on'
p7874
aS'the'
p7875
aS'front'
p7876
aS'door'
p7877
aaa(lp7878
g7813
a(lp7879
S'you'
p7880
aS'know'
p7881
aaa(lp7882
g7813
a(lp7883
S'and'
p7884
aS'hes'
p7885
aS'not'
p7886
aS'pushing'
p7887
aS'on'
p7888
aS'his'
p7889
aS'customers'
p7890
aS'and'
p7891
aS'stuff'
p7892
aaa(lp7893
g7813
a(lp7894
S'And'
p7895
aS'we'
p7896
aS'lost'
p7897
ag126
aS'lot'
p7898
aS'of'
p7899
aS'customers'
p7900
aS'because'
p7901
aS'of'
p7902
aS'that'
p7903
aaa(lp7904
g7813
a(lp7905
S'Because'
p7906
aS'they'
p7907
aS'didnt'
p7908
aS'feel'
p7909
aS'like'
p7910
aaa(lp7911
g7813
a(lp7912
S'you'
p7913
aS'know'
p7914
aaa(lp7915
g7813
a(lp7916
S'that'
p7917
aS'was'
p7918
ag126
aS'place'
p7919
aS'for'
p7920
aaa(lp7921
S'KEVIN'
p7922
a(lp7923
g7
aS'What'
p7924
ag7
aaa(lp7925
g7922
a(lp7926
S'What'
p7927
aS'was'
p7928
aS'it'
p7929
aaa(lp7930
S'MARIE'
p7931
a(lp7932
g40
aS'forget'
p7933
aaa(lp7934
g7931
a(lp7935
S'it'
p7936
aS'was'
p7937
aS'an'
p7938
aS'announcement'
p7939
aS'of'
p7940
aS'somebody'
p7941
aS'coming'
p7942
aaa(lp7943
g7931
a(lp7944
g126
aS'speaker'
p7945
aS'or'
p7946
aS'somebody'
p7947
aaa(lp7948
S'LISA'
p7949
a(lp7950
S'Oh'
p7951
aaa(lp7952
S'KEVIN'
p7953
a(lp7954
S'Oh'
p7955
aaa(lp7956
S'LISA'
p7957
a(lp7958
g40
aS'think'
p7959
ag40
aS'remember'
p7960
aS'that'
p7961
aaa(lp7962
S'MARIE'
p7963
a(lp7964
S'And'
p7965
aS'he'
p7966
aaa(lp7967
g7963
a(lp7968
S'And'
p7969
aaa(lp7970
g7963
a(lp7971
S'And'
p7972
aS'he'
p7973
aaa(lp7974
g7963
a(lp7975
S'And'
p7976
aS'they'
p7977
aS'were'
p7978
aS'just'
p7979
aS'like'
p7980
aaa(lp7981
g7963
a(lp7982
S'not'
p7983
aS'really'
p7984
aaa(lp7985
S'LISA'
p7986
a(lp7987
S'Well'
p7988
aS'he'
p7989
aS'used'
p7990
aS'to'
p7991
aaa(lp7992
g7986
a(lp7993
S'like'
p7994
aaa(lp7995
g7986
a(lp7996
S'you'
p7997
aS'know'
p7998
aaa(lp7999
S'MARIE'
p8000
a(lp8001
S'Leave'
p8002
aS'little'
p8003
aS'prayer'
p8004
aS'cards'
p8005
aS'at'
p8006
aS'number'
p8007
aS'ten'
p8008
aaa(lp8009
S'LISA'
p8010
a(lp8011
S'Bar'
p8012
aaa(lp8013
g8010
a(lp8014
S'Yeah'
p8015
aaa(lp8016
g8010
a(lp8017
S'Barbara'
p8018
aaa(lp8019
g8010
a(lp8020
S'had'
p8021
aS'this'
p8022
aS'sh'
p8023
aaa(lp8024
g8010
a(lp8025
S'They'
p8026
aS'have'
p8027
aaa(lp8028
g8010
a(lp8029
S'they'
p8030
aS'call'
p8031
aS'em'
p8032
aaa(lp8033
g8010
a(lp8034
S'They'
p8035
aS'call'
p8036
aS'em'
p8037
aS'tracts'
p8038
aaa(lp8039
g8010
a(lp8040
S'And'
p8041
aS'what'
p8042
aS'they'
p8043
aS'are'
p8044
aS'is'
p8045
aS'theyre'
p8046
aS'like'
p8047
aaa(lp8048
g8010
a(lp8049
S'Like'
p8050
aS'theyll'
p8051
aS'have'
p8052
aS'Footprints'
p8053
aS'on'
p8054
aS'it'
p8055
aaa(lp8056
g8010
a(lp8057
S'or'
p8058
aS'um'
p8059
aaa(lp8060
g8010
a(lp8061
g40
aS'cant'
p8062
aS'remember'
p8063
aaa(lp8064
g8010
a(lp8065
S'Just'
p8066
aS'little'
p8067
aS'thing'
p8068
aaa(lp8069
g8010
a(lp8070
S'Little'
p8071
aS'prayers'
p8072
aaa(lp8073
g8010
a(lp8074
S'and'
p8075
aS'stuff'
p8076
aS'like'
p8077
aS'that'
p8078
aaa(lp8079
g8010
a(lp8080
S'and'
p8081
aaa(lp8082
g8010
a(lp8083
S'But'
p8084
aS'she'
p8085
aS'had'
p8086
ag126
aS'little'
p8087
aS'basket'
p8088
aaa(lp8089
g8010
a(lp8090
S'and'
p8091
aS'it'
p8092
aS'said'
p8093
aS'take'
p8094
aS'one'
p8095
aS'or'
p8096
aS'whatever'
p8097
aaa(lp8098
g8010
a(lp8099
S'And'
p8100
aS'um'
p8101
aaa(lp8102
g8010
a(lp8103
S'right'
p8104
aS'by'
p8105
aS'the'
p8106
aS'thing'
p8107
aaa(lp8108
g8010
a(lp8109
S'And'
p8110
aS'shed'
p8111
aS'wear'
p8112
aS'her'
p8113
aS'little'
p8114
aS'pray'
p8115
aS'pin'
p8116
aS'and'
p8117
aaa(lp8118
g8010
a(lp8119
S'and'
p8120
aS'then'
p8121
aS'she'
p8122
aS'put'
p8123
aaa(lp8124
g8010
a(lp8125
S'you'
p8126
aS'know'
p8127
aaa(lp8128
g8010
a(lp8129
S'happy'
p8130
aS'birthday'
p8131
aS'Christmas'
p8132
aS'on'
p8133
aS'the'
p8134
aS'window'
p8135
aaa(lp8136
g8010
a(lp8137
g40
aS'mean'
p8138
aS'happy'
p8139
aS'birthday'
p8140
aS'Christmas'
p8141
aaa(lp8142
S'MARIE'
p8143
a(lp8144
S'XXXX'
p8145
aaa(lp8146
S'LISA'
p8147
a(lp8148
S'happy'
p8149
aS'birthday'
p8150
aS'Jesus'
p8151
aaa(lp8152
S'KEVIN'
p8153
a(lp8154
aa(lp8155
S'MARIE'
p8156
a(lp8157
S'Jesus'
p8158
aaa(lp8159
S'LISA'
p8160
a(lp8161
S'XX'
p8162
aS'XX'
p8163
aS'XX'
p8164
aaa(lp8165
S'MARIE'
p8166
a(lp8167
S'she'
p8168
aS'still'
p8169
aS'did'
p8170
aaa(lp8171
S'LISA'
p8172
a(lp8173
g40
aS'know'
p8174
aaa(lp8175
g8172
a(lp8176
S'its'
p8177
aS'on'
p8178
aS'this'
p8179
aS'year'
p8180
aS'too'
p8181
ag40
aS'saw'
p8182
aaa(lp8183
g8172
a(lp8184
S'But'
p8185
aS'and'
p8186
ag40
aS'got'
p8187
aaa(lp8188
g8172
a(lp8189
S'You'
p8190
aS'know'
p8191
aS'some'
p8192
aS'customers'
p8193
aS'who'
p8194
aaa(lp8195
g8172
a(lp8196
S'its'
p8197
aS'not'
p8198
aS'that'
p8199
aS'they'
p8200
aS'werent'
p8201
aS'Christian'
p8202
aS'at'
p8203
aS'all'
p8204
aaa(lp8205
g8172
a(lp8206
S'You'
p8207
aS'know'
p8208
aaa(lp8209
g8172
a(lp8210
S'it'
p8211
aS'was'
p8212
aS'just'
p8213
aaa(lp8214
g8172
a(lp8215
S'it'
p8216
aS'annoyed'
p8217
aS'them'
p8218
aaa(lp8219
S'KEVIN'
p8220
a(lp8221
S'Well'
p8222
aS'you'
p8223
aS'told'
p8224
aS'me'
p8225
aS'they'
p8226
aS'were'
p8227
aS'gonna'
p8228
ag3055
aaa(lp8229
g8220
a(lp8230
S'they'
p8231
aS'were'
p8232
aS'gonna'
p8233
aaa(lp8234
g8220
a(lp8235
S'turn'
p8236
aS'it'
p8237
aS'into'
p8238
aaa(lp8239
g8220
a(lp8240
S'they'
p8241
aS'were'
p8242
aS'gonna'
p8243
aS'have'
p8244
ag126
aS'religious'
p8245
aS'card'
p8246
aS'section'
p8247
aS'or'
p8248
aS'XX'
p8249
aaa(lp8250
S'LISA'
p8251
a(lp8252
S'They'
p8253
aS'were'
p8254
aS'going'
p8255
aS'to'
p8256
aaa(lp8257
S'MARIE'
p8258
a(lp8259
S'Yeah'
p8260
aaa(lp8261
g8258
a(lp8262
S'They'
p8263
aS'were'
p8264
aaa(lp8265
S'KEVIN'
p8266
a(lp8267
S'That'
p8268
aS'wouldve'
p8269
aS'been'
p8270
aS'wild'
p8271
aaa(lp8272
g8266
a(lp8273
S'That'
p8274
aS'wouldve'
p8275
aS'been'
p8276
aaa(lp8277
g8266
a(lp8278
S'You'
p8279
aS'know'
p8280
aS'youre'
p8281
aaa(lp8282
S'LISA'
p8283
a(lp8284
S'VOX'
p8285
aS'Dry'
p8286
aS'cleaner'
p8287
aS'slash'
p8288
aS'religious'
p8289
aS'card'
p8290
aS'dealer'
p8291
aS'VOX'
p8292
aaa(lp8293
S'KEVIN'
p8294
a(lp8295
S'That'
p8296
aS'was'
p8297
aaa(lp8298
S'MARIE'
p8299
a(lp8300
aa(lp8301
g8299
a(lp8302
S'Yeah'
p8303
aaa(lp8304
S'LISA'
p8305
a(lp8306
aa(lp8307
S'MARIE'
p8308
a(lp8309
S'he'
p8310
aaa(lp8311
S'KEVIN'
p8312
a(lp8313
S'That'
p8314
aS'wouldve'
p8315
aS'been'
p8316
aS'so'
p8317
aS'strange'
p8318
aaa(lp8319
S'LISA'
p8320
a(lp8321
g40
aS'thought'
p8322
aS'everyone'
p8323
aS'would'
p8324
aS'be'
p8325
aS'like'
p8326
aaa(lp8327
S'KEVIN'
p8328
a(lp8329
S'Well'
p8330
aS'the'
p8331
aaa(lp8332
g8328
a(lp8333
S'And'
p8334
aS'then'
p8335
aS'you'
p8336
aS'could'
p8337
aS'add'
p8338
ag126
aS'drivethrough'
p8339
aaa(lp8340
g8328
a(lp8341
S'you'
p8342
aS'know'
p8343
aS'lets'
p8344
aS'say'
p8345
ag40
aS'need'
p8346
aaa(lp8347
g8328
a(lp8348
S'you'
p8349
aS'know'
p8350
aaa(lp8351
g8328
a(lp8352
S'give'
p8353
aS'me'
p8354
aS'my'
p8355
aS'clothes'
p8356
aS'and'
p8357
aaa(lp8358
g8328
a(lp8359
S'you'
p8360
aS'know'
p8361
aaa(lp8362
S'MARIE'
p8363
a(lp8364
S'Pick'
p8365
aS'up'
p8366
ag126
aS'card'
p8367
aS'on'
p8368
aS'the'
p8369
aS'way'
p8370
aaa(lp8371
S'KEVIN'
p8372
a(lp8373
S'Two'
p8374
aS'baptism'
p8375
aS'cards'
p8376
aS'XX'
p8377
aaa(lp8378
S'MARIE'
p8379
a(lp8380
S'You'
p8381
aS'know'
p8382
aaa(lp8383
S'LISA'
p8384
a(lp8385
S'And'
p8386
ag126
aS'birthday'
p8387
aS'card'
p8388
aS'for'
p8389
aaa(lp8390
S'KEVIN'
p8391
a(lp8392
aa(lp8393
S'LISA'
p8394
a(lp8395
S'No'
p8396
aS'they'
p8397
aS'wouldnt'
p8398
aS'have'
p8399
ag126
aS'baptism'
p8400
aS'card'
p8401
aS'Kevin'
p8402
aaa(lp8403
S'KEVIN'
p8404
a(lp8405
S'No'
p8406
ag40
aS'know'
p8407
aaa(lp8408
g8404
a(lp8409
S'Ive'
p8410
aS'been'
p8411
aS'trying'
p8412
aS'to'
p8413
aS'think'
p8414
aS'what'
p8415
aS'would'
p8416
aS'they'
p8417
aS'have'
p8418
aaa(lp8419
S'LISA'
p8420
a(lp8421
S'Thats'
p8422
aS'like'
p8423
aS'pagan'
p8424
aS'or'
p8425
aaa(lp8426
S'KEVIN'
p8427
a(lp8428
S'VOX'
p8429
aS'Jesus'
p8430
aS'loves'
p8431
aS'you'
p8432
aS'VOX'
p8433
aaa(lp8434
S'LISA'
p8435
a(lp8436
aa(lp8437
S'KEVIN'
p8438
a(lp8439
S'VOX'
p8440
aS'Smile'
p8441
aaa(lp8442
g8438
a(lp8443
S'Jesus'
p8444
aS'loves'
p8445
aS'you'
p8446
aS'VOX'
p8447
aaa(lp8448
S'MARIE'
p8449
a(lp8450
S'But'
p8451
aS'they'
p8452
aS'have'
p8453
ag126
aS'bunch'
p8454
aS'of'
p8455
aS'um'
p8456
aaa(lp8457
S'LISA'
p8458
a(lp8459
S'Hit'
p8460
aS'the'
p8461
aaa(lp8462
g8458
a(lp8463
S'Hit'
p8464
aS'it'
p8465
aS'with'
p8466
aS'him'
p8467
aaa(lp8468
S'MARIE'
p8469
a(lp8470
S'But'
p8471
aS'um'
p8472
aaa(lp8473
S'LISA'
p8474
a(lp8475
S'Oh'
p8476
aS'Kevin'
p8477
aaa(lp8478
g8474
a(lp8479
S'no'
p8480
aS'no'
p8481
aS'no'
p8482
aaa(lp8483
S'MARIE'
p8484
a(lp8485
S'You'
p8486
aS'have'
p8487
aS'to'
p8488
aS'go'
p8489
aS'like'
p8490
aS'this'
p8491
aaa(lp8492
S'ENV'
p8493
a(lp8494
aa(lp8495
S'MARIE'
p8496
a(lp8497
S'Yeah'
p8498
aaa(lp8499
S'KEVIN'
p8500
a(lp8501
aa(lp8502
S'LISA'
p8503
a(lp8504
S'He'
p8505
aS'just'
p8506
aS'thinks'
p8507
aS'were'
p8508
aS'weird'
p8509
aaa(lp8510
S'MARIE'
p8511
a(lp8512
aa(lp8513
S'LISA'
p8514
a(lp8515
aa(lp8516
S'MARIE'
p8517
a(lp8518
aa(lp8519
S'LISA'
p8520
a(lp8521
S'Kevin'
p8522
aaa(lp8523
g8520
a(lp8524
S'its'
p8525
aS'not'
p8526
aS'an'
p8527
aS'instrument'
p8528
aaa(lp8529
g8520
a(lp8530
S'Dont'
p8531
aaa(lp8532
S'MARIE'
p8533
a(lp8534
S'No'
p8535
aS'uh'
p8536
aaa(lp8537
g8533
a(lp8538
S'hes'
p8539
aS'uh'
p8540
aS'li'
p8541
aaa(lp8542
S'LISA'
p8543
a(lp8544
S'Whats'
p8545
aS'wrong'
p8546
aaa(lp8547
S'KEVIN'
p8548
a(lp8549
S'He'
p8550
aS'sick'
p8551
aS'of'
p8552
aS'that'
p8553
aaa(lp8554
S'LISA'
p8555
a(lp8556
S'Whos'
p8557
aS'this'
p8558
aS'weird'
p8559
aS'person'
p8560
aS'in'
p8561
aS'my'
p8562
aS'house'
p8563
aaa(lp8564
S'MARIE'
p8565
a(lp8566
S'But'
p8567
aS'anyways'
p8568
aaa(lp8569
g8565
a(lp8570
g40
aS'was'
p8571
aS'talking'
p8572
aS'about'
p8573
aS'his'
p8574
aS'drug'
p8575
aS'problem'
p8576
aaa(lp8577
g8565
a(lp8578
S'Right'
p8579
aaa(lp8580
S'LISA'
p8581
a(lp8582
S'Oh'
p8583
aS'Im'
p8584
aS'sorry'
p8585
aaa(lp8586
S'KEVIN'
p8587
a(lp8588
aa(lp8589
S'MARIE'
p8590
a(lp8591
g7
aS'Its'
p8592
aS'how'
p8593
ag7
aS'hes'
p8594
aS'so'
p8595
aS'judgmental'
p8596
aaa(lp8597
S'LISA'
p8598
a(lp8599
g724
aS'long'
p8600
aS'ti'
p8601
aaa(lp8602
S'MARIE'
p8603
a(lp8604
aa(lp8605
S'LISA'
p8606
a(lp8607
S'Uh'
p8608
aS'Marie'
p8609
aaa(lp8610
S'MARIE'
p8611
a(lp8612
S'Uh'
p8613
aS'excuse'
p8614
aS'me'
p8615
aaa(lp8616
g8611
a(lp8617
S'dont'
p8618
aaa(lp8619
S'LISA'
p8620
a(lp8621
S'XX'
p8622
aaa(lp8623
S'MARIE'
p8624
a(lp8625
S'Thats'
p8626
aS'my'
p8627
aS'couch'
p8628
aaa(lp8629
S'KEVIN'
p8630
a(lp8631
aa(lp8632
S'MARIE'
p8633
a(lp8634
aa(lp8635
S'LISA'
p8636
a(lp8637
aa(lp8638
S'MARIE'
p8639
a(lp8640
S'Um'
p8641
aaa(lp8642
S'LISA'
p8643
a(lp8644
aa(lp8645
S'KEVIN'
p8646
a(lp8647
g7
aS'Oh'
p8648
aS'my'
p8649
ag7
aS'dad'
p8650
aS'doesnt'
p8651
aS'live'
p8652
aS'here'
p8653
aaa(lp8654
S'LISA'
p8655
a(lp8656
S'Its'
p8657
aS'your'
p8658
aS'chair'
p8659
aaa(lp8660
S'MARIE'
p8661
a(lp8662
S'But'
p8663
aS'um'
p8664
aaa(lp8665
S'LISA'
p8666
a(lp8667
S'Shut'
p8668
aS'up'
p8669
aaa(lp8670
S'KEVIN'
p8671
a(lp8672
aa(lp8673
S'MARIE'
p8674
a(lp8675
aa(lp8676
S'ENV'
p8677
a(lp8678
aa(lp8679
S'MARIE'
p8680
a(lp8681
aa(lp8682
S'LISA'
p8683
a(lp8684
S'See'
p8685
ag40
aS'told'
p8686
aS'you'
p8687
aaa(lp8688
S'KEVIN'
p8689
a(lp8690
S'VOX'
p8691
aS'Oh'
p8692
aS'VOX'
p8693
aaa(lp8694
S'MARIE'
p8695
a(lp8696
S'But'
p8697
aS'he'
p8698
aS'um'
p8699
aaa(lp8700
g8695
a(lp8701
S'he'
p8702
aS'was'
p8703
aS'like'
p8704
aS'really'
p8705
aS'judgmental'
p8706
aS'and'
p8707
aaa(lp8708
g8695
a(lp8709
S'And'
p8710
aS'we'
p8711
aS'were'
p8712
aS'sitting'
p8713
aS'there'
p8714
aaa(lp8715
S'LISA'
p8716
a(lp8717
S'Nanananana'
p8718
aaa(lp8719
S'MARIE'
p8720
a(lp8721
S'and'
p8722
aS'he'
p8723
aS'had'
p8724
aS'said'
p8725
aS'something'
p8726
aS'about'
p8727
aaa(lp8728
g8720
a(lp8729
S'something'
p8730
aS'that'
p8731
aS'had'
p8732
aS'to'
p8733
aS'do'
p8734
aS'with'
p8735
aS'the'
p8736
aS'bar'
p8737
aS'next'
p8738
aS'door'
p8739
aS'to'
p8740
aS'number'
p8741
aS'ten'
p8742
aaa(lp8743
S'LISA'
p8744
a(lp8745
S'VOX'
p8746
aS'Boo'
p8747
aS'VOX'
p8748
aaa(lp8749
S'MARIE'
p8750
a(lp8751
S'you'
p8752
aS'know'
p8753
aaa(lp8754
g8750
a(lp8755
S'people'
p8756
aS'who'
p8757
aS'drink'
p8758
aaa(lp8759
g8750
a(lp8760
S'At'
p8761
aS'one'
p8762
aS'time'
p8763
aS'or'
p8764
aS'another'
p8765
aaa(lp8766
g8750
a(lp8767
S'And'
p8768
ag40
aS'couldnt'
p8769
aS'remember'
p8770
aaa(lp8771
g8750
a(lp8772
S'and'
p8773
aS'so'
p8774
aS'that'
p8775
aS'day'
p8776
aS'me'
p8777
aS'and'
p8778
aS'Cassie'
p8779
aS'were'
p8780
aS'talking'
p8781
aaa(lp8782
g8750
a(lp8783
S'and'
p8784
ag40
aaa(lp8785
g8750
a(lp8786
S'and'
p8787
aS'she'
p8788
aS'like'
p8789
aaa(lp8790
g8750
a(lp8791
S'was'
p8792
aS'like'
p8793
aaa(lp8794
g8750
a(lp8795
S'she'
p8796
aS'was'
p8797
aS'like'
p8798
ag126
aS'little'
p8799
aS'runaround'
p8800
aaa(lp8801
g8750
a(lp8802
S'You'
p8803
aS'know'
p8804
aaa(lp8805
g8750
a(lp8806
S'she'
p8807
aS'used'
p8808
aS'to'
p8809
aS'like'
p8810
aaa(lp8811
S'LISA'
p8812
a(lp8813
S'Was'
p8814
aS'or'
p8815
aS'is'
p8816
aaa(lp8817
S'MARIE'
p8818
a(lp8819
S'Sh'
p8820
aS'sh'
p8821
aS'she'
p8822
aS'was'
p8823
aaa(lp8824
g8818
a(lp8825
S'Like'
p8826
aS'big'
p8827
aS'time'
p8828
aaa(lp8829
g8818
a(lp8830
S'she'
p8831
aS'used'
p8832
aS'to'
p8833
aS'like'
p8834
aS'go'
p8835
aaa(lp8836
g8818
a(lp8837
S'and'
p8838
aS'just'
p8839
aaa(lp8840
g8818
a(lp8841
S'Like'
p8842
aS'go'
p8843
aS'to'
p8844
aS'Utah'
p8845
aaa(lp8846
g8818
a(lp8847
S'with'
p8848
ag126
aS'bunch'
p8849
aS'of'
p8850
aS'guys'
p8851
aS'and'
p8852
aS'girls'
p8853
aaa(lp8854
S'KEVIN'
p8855
a(lp8856
aa(lp8857
S'MARIE'
p8858
a(lp8859
S'you'
p8860
aS'know'
p8861
aaa(lp8862
g8858
a(lp8863
S'skip'
p8864
aS'school'
p8865
aS'and'
p8866
aaa(lp8867
g8858
a(lp8868
g40
aS'mean'
p8869
aS'just'
p8870
aaa(lp8871
g8858
a(lp8872
S'you'
p8873
aS'know'
p8874
aaa(lp8875
S'KEVIN'
p8876
a(lp8877
S'How'
p8878
aS'old'
p8879
aS'was'
p8880
aS'she'
p8881
aaa(lp8882
S'MARIE'
p8883
a(lp8884
S'like'
p8885
aaa(lp8886
g8883
a(lp8887
S'be'
p8888
ag126
aS'hippie'
p8889
aS'kind'
p8890
aS'of'
p8891
aS'thing'
p8892
aaa(lp8893
S'LISA'
p8894
a(lp8895
S'Right'
p8896
aS'now'
p8897
aS'shes'
p8898
aS'like'
p8899
aS'nineteen'
p8900
aS'or'
p8901
aS'eighteen'
p8902
aaa(lp8903
S'KEVIN'
p8904
a(lp8905
aa(lp8906
S'MARIE'
p8907
a(lp8908
S'Shes'
p8909
aS'seventeen'
p8910
aaa(lp8911
S'LISA'
p8912
a(lp8913
S'Still'
p8914
aaa(lp8915
S'MARIE'
p8916
a(lp8917
S'Shes'
p8918
aS'seven'
p8919
aaa(lp8920
g8916
a(lp8921
S'She'
p8922
aS'just'
p8923
aS'turned'
p8924
aS'seventeen'
p8925
aS'in'
p8926
aS'September'
p8927
aaa(lp8928
S'KEVIN'
p8929
a(lp8930
g40
aS'assume'
p8931
aS'shes'
p8932
aS'dropped'
p8933
aS'out'
p8934
aS'of'
p8935
aS'school'
p8936
aaa(lp8937
S'MARIE'
p8938
a(lp8939
S'Yeah'
p8940
aaa(lp8941
g8938
a(lp8942
S'she'
p8943
aS'has'
p8944
aaa(lp8945
S'LISA'
p8946
a(lp8947
g40
aS'didnt'
p8948
aS'know'
p8949
aS'she'
p8950
aS'was'
p8951
aS'that'
p8952
aS'young'
p8953
aaa(lp8954
g8946
a(lp8955
g7
aaa(lp8956
S'MARIE'
p8957
a(lp8958
S'And'
p8959
aaa(lp8960
g8957
a(lp8961
S'um'
p8962
aaa(lp8963
g8957
a(lp8964
S'she'
p8965
aS'like'
p8966
aaa(lp8967
g8957
a(lp8968
g3279
ag3279
aS'was'
p8969
aS'in'
p8970
ag126
aaa(lp8971
S'LISA'
p8972
a(lp8973
S'So'
p8974
aS'she'
p8975
aS'must'
p8976
aS'have'
p8977
aS'been'
p8978
aS'going'
p8979
aS'to'
p8980
aS'Utah'
p8981
aS'when'
p8982
aS'she'
p8983
aS'was'
p8984
aS'like'
p8985
aS'fifteen'
p8986
aaa(lp8987
g8972
a(lp8988
S'or'
p8989
aS'something'
p8990
aaa(lp8991
S'MARIE'
p8992
a(lp8993
S'Yeah'
p8994
aaa(lp8995
S'KEVIN'
p8996
a(lp8997
aa(lp8998
S'MARIE'
p8999
a(lp9000
S'Cause'
p9001
aS'she'
p9002
aS'was'
p9003
aS'doing'
p9004
aS'all'
p9005
aS'kinds'
p9006
aS'of'
p9007
aS'like'
p9008
aaa(lp9009
S'KEVIN'
p9010
a(lp9011
S'Thats'
p9012
aS'scary'
p9013
aaa(lp9014
S'LISA'
p9015
a(lp9016
S'Oh'
p9017
aS'my'
p9018
aS'God'
p9019
aaa(lp9020
S'KEVIN'
p9021
a(lp9022
g40
aS'assume'
p9023
aS'her'
p9024
aS'parents'
p9025
aS'really'
p9026
aS'appreciated'
p9027
aS'that'
p9028
aaa(lp9029
S'MARIE'
p9030
a(lp9031
S'And'
p9032
aaa(lp9033
g9030
a(lp9034
S'Well'
p9035
aaa(lp9036
g9030
a(lp9037
S'they'
p9038
aS'were'
p9039
aS'like'
p9040
aaa(lp9041
g9030
a(lp9042
S'her'
p9043
aS'paren'
p9044
aaa(lp9045
g9030
a(lp9046
S'Her'
p9047
aS'moms'
p9048
aS'like'
p9049
aS'an'
p9050
aS'alcoholic'
p9051
aaa(lp9052
g9030
a(lp9053
S'and'
p9054
aS'stuff'
p9055
aS'like'
p9056
aS'that'
p9057
aaa(lp9058
g9030
a(lp9059
S'and'
p9060
aS'her'
p9061
aS'dads'
p9062
aS'like'
p9063
ag126
aS'VOX'
p9064
aS'biker'
p9065
aS'VOX'
p9066
aS'now'
p9067
aaa(lp9068
g9030
a(lp9069
S'and'
p9070
aS'Im'
p9071
aS'like'
p9072
aaa(lp9073
g9030
a(lp9074
S'God'
p9075
aaa(lp9076
g9030
a(lp9077
S'you'
p9078
aS'know'
p9079
aaa(lp9080
S'KEVIN'
p9081
a(lp9082
S'Oh'
p9083
aaa(lp9084
S'MARIE'
p9085
a(lp9086
S'but'
p9087
aS'theyre'
p9088
aS'not'
p9089
aS'married'
p9090
aS'anymore'
p9091
aaa(lp9092
g9085
a(lp9093
S'but'
p9094
aS'still'
p9095
aaa(lp9096
g9085
a(lp9097
S'Well'
p9098
aS'we'
p9099
aS'were'
p9100
aS'sitting'
p9101
aS'there'
p9102
aS'talking'
p9103
aaa(lp9104
g9085
a(lp9105
S'and'
p9106
aS'shes'
p9107
aS'been'
p9108
aS'in'
p9109
ag126
aS'center'
p9110
aS'for'
p9111
aS'like'
p9112
aS'rehabilitation'
p9113
aS'and'
p9114
aS'stuff'
p9115
aaa(lp9116
g9085
a(lp9117
S'for'
p9118
aS'drugs'
p9119
aS'and'
p9120
aS'stuff'
p9121
aaa(lp9122
g9085
a(lp9123
S'and'
p9124
aS'we'
p9125
aS'were'
p9126
aS'talking'
p9127
aaa(lp9128
g9085
a(lp9129
S'and'
p9130
ag40
aaa(lp9131
g9085
a(lp9132
S'and'
p9133
ag40
aS'told'
p9134
aS'her'
p9135
aaa(lp9136
g9085
a(lp9137
S'do'
p9138
aS'you'
p9139
aS'get'
p9140
aS'offended'
p9141
aaa(lp9142
g9085
a(lp9143
g40
aS'go'
p9144
aaa(lp9145
g9085
a(lp9146
S'do'
p9147
aS'you'
p9148
aS'think'
p9149
aS'that'
p9150
aS'it'
p9151
aaa(lp9152
g9085
a(lp9153
S'you'
p9154
aS'know'
p9155
ag40
aS'told'
p9156
aS'her'
p9157
aaa(lp9158
g9085
a(lp9159
S'do'
p9160
aS'you'
p9161
aS'think'
p9162
aS'its'
p9163
aS'fair'
p9164
aaa(lp9165
g9085
a(lp9166
S'that'
p9167
aS'when'
p9168
aS'people'
p9169
aS'say'
p9170
aaa(lp9171
g9085
a(lp9172
g4760
aS'you'
p9173
aS'know'
p9174
aS'that'
p9175
aaa(lp9176
g9085
a(lp9177
S'even'
p9178
aaa(lp9179
g9085
a(lp9180
g4760
ag4760
aS'like'
p9181
aaa(lp9182
g9085
a(lp9183
S'you'
p9184
aS'were'
p9185
aS'an'
p9186
aS'alcoholic'
p9187
aaa(lp9188
g9085
a(lp9189
S'They'
p9190
aS'never'
p9191
aS'say'
p9192
aS'you'
p9193
aS'were'
p9194
aaa(lp9195
g9085
a(lp9196
S'Youre'
p9197
aS'always'
p9198
aS'an'
p9199
aS'alcoholic'
p9200
aaa(lp9201
g9085
a(lp9202
S'Youre'
p9203
aS'just'
p9204
ag126
aS'recovered'
p9205
aS'alcoholic'
p9206
aaa(lp9207
g9085
a(lp9208
S'Do'
p9209
aS'you'
p9210
aS'know'
p9211
aS'what'
p9212
ag40
aS'mean'
p9213
aaa(lp9214
g9085
a(lp9215
g126
aS'recovered'
p9216
aS'alcoholic'
p9217
aaa(lp9218
S'LISA'
p9219
a(lp9220
S'Mhm'
p9221
aaa(lp9222
S'MARIE'
p9223
a(lp9224
S'But'
p9225
aS'when'
p9226
aaa(lp9227
g9223
a(lp9228
S'when'
p9229
aS'youre'
p9230
ag126
aS'drug'
p9231
aS'addict'
p9232
aaa(lp9233
g9223
a(lp9234
S'and'
p9235
aS'you'
p9236
aS'dont'
p9237
aS'do'
p9238
aS'it'
p9239
aS'anymore'
p9240
aS'they'
p9241
aS'say'
p9242
aaa(lp9243
g9223
a(lp9244
S'oh'
p9245
aaa(lp9246
g9223
a(lp9247
S'youve'
p9248
aS'come'
p9249
aS'clean'
p9250
aaa(lp9251
g9223
a(lp9252
S'Do'
p9253
aS'you'
p9254
aS'know'
p9255
aS'what'
p9256
ag40
aS'mean'
p9257
aaa(lp9258
g9223
a(lp9259
g40
aS'go'
p9260
aaa(lp9261
g9223
a(lp9262
S'that'
p9263
aS'really'
p9264
aS'bugs'
p9265
aS'me'
p9266
aS'and'
p9267
aS'and'
p9268
aaa(lp9269
g9223
a(lp9270
S'and'
p9271
aS'Kent'
p9272
aS'was'
p9273
aS'in'
p9274
aS'the'
p9275
aS'back'
p9276
aaa(lp9277
g9223
a(lp9278
g40
aS'was'
p9279
aS'all'
p9280
aaa(lp9281
g9223
a(lp9282
g40
aS'think'
p9283
ag126
aS'person'
p9284
aS'who'
p9285
aS'was'
p9286
ag126
aS'drug'
p9287
aS'addict'
p9288
aaa(lp9289
g9223
a(lp9290
S'once'
p9291
aS'was'
p9292
ag126
aS'drug'
p9293
aS'addict'
p9294
aaa(lp9295
g9223
a(lp9296
S'Always'
p9297
aS'is'
p9298
ag126
aS'drug'
p9299
aS'addict'
p9300
aaa(lp9301
g9223
a(lp9302
g40
aS'said'
p9303
aaa(lp9304
g9223
a(lp9305
S'theyre'
p9306
aS'just'
p9307
ag126
aS'recovered'
p9308
aS'drug'
p9309
aS'addict'
p9310
aaa(lp9311
g9223
a(lp9312
S'And'
p9313
ag40
aS'was'
p9314
aS'saying'
p9315
aS'it'
p9316
aS'like'
p9317
aS'really'
p9318
aS'loud'
p9319
aaa(lp9320
S'LISA'
p9321
a(lp9322
S'Like'
p9323
aS'on'
p9324
aS'purpose'
p9325
aS'though'
p9326
aaa(lp9327
S'MARIE'
p9328
a(lp9329
S'Yes'
p9330
aaa(lp9331
g9328
a(lp9332
S'so'
p9333
aS'that'
p9334
aS'he'
p9335
aS'would'
p9336
aS'hear'
p9337
aS'me'
p9338
aaa(lp9339
S'LISA'
p9340
a(lp9341
S'Oh'
p9342
aaa(lp9343
S'MARIE'
p9344
a(lp9345
S'And'
p9346
ag40
aS'was'
p9347
aS'all'
p9348
aaa(lp9349
g9344
a(lp9350
S'because'
p9351
aS'thats'
p9352
aS'not'
p9353
aaa(lp9354
g9344
a(lp9355
S'thats'
p9356
aS'not'
p9357
aS'fair'
p9358
ag40
aS'mean'
p9359
aaa(lp9360
g9344
a(lp9361
S'alcohol'
p9362
aS'is'
p9363
aS'just'
p9364
aaa(lp9365
g9344
a(lp9366
S'is'
p9367
ag126
aS'drug'
p9368
aS'too'
p9369
aaa(lp9370
g9344
a(lp9371
S'and'
p9372
ag40
aS'was'
p9373
aS'just'
p9374
aS'going'
p9375
aS'off'
p9376
aaa(lp9377
g9344
a(lp9378
S'and'
p9379
aS'stuff'
p9380
aS'like'
p9381
aS'that'
p9382
aaa(lp9383
S'KEVIN'
p9384
a(lp9385
aa(lp9386
S'MARIE'
p9387
a(lp9388
S'and'
p9389
aS'she'
p9390
aS'was'
p9391
aaa(lp9392
g9387
a(lp9393
S'like'
p9394
aS'agreeing'
p9395
aS'with'
p9396
aS'me'
p9397
aS'and'
p9398
aaa(lp9399
g9387
a(lp9400
S'and'
p9401
aaa(lp9402
g9387
a(lp9403
S'and'
p9404
aS'then'
p9405
aaa(lp9406
g9387
a(lp9407
g40
aS'was'
p9408
aS'all'
p9409
aaa(lp9410
g9387
a(lp9411
S'just'
p9412
aS'being'
p9413
aS'real'
p9414
aS'like'
p9415
aS'ju'
p9416
aaa(lp9417
S'KEVIN'
p9418
a(lp9419
S'VOXL'
p9420
aS'Que'
p9421
aS'hace'
p9422
aS'LVOX'
p9423
aaa(lp9424
S'LISA'
p9425
a(lp9426
S'Is'
p9427
aS'he'
p9428
aS'kicking'
p9429
aS'the'
p9430
aS'presents'
p9431
aaa(lp9432
S'MARIE'
p9433
a(lp9434
S'No'
p9435
aS'Issac'
p9436
aaa(lp9437
S'KEVIN'
p9438
a(lp9439
S'Hes'
p9440
aS'stepping'
p9441
aS'on'
p9442
aS'em'
p9443
aaa(lp9444
S'MARIE'
p9445
a(lp9446
S'No'
p9447
aaa(lp9448
g9445
a(lp9449
S'You'
p9450
aS'dont'
p9451
aS'do'
p9452
aS'that'
p9453
aaa(lp9454
S'KEVIN'
p9455
a(lp9456
g7
aS'That'
p9457
aS'mustve'
p9458
aS'been'
p9459
ag126
aS'XX'
p9460
ag7
aaa(lp9461
g9455
a(lp9462
S'XX'
p9463
ag7
aaa(lp9464
S'MARIE'
p9465
a(lp9466
aa(lp9467
S'LISA'
p9468
a(lp9469
S'Its'
p9470
aS'already'
p9471
aaa(lp9472
g9468
a(lp9473
S'its'
p9474
aS'like'
p9475
aS'coming'
p9476
aS'un'
p9477
aS'wrapped'
p9478
aaa(lp9479
g9468
a(lp9480
S'Isnt'
p9481
aS'it'
p9482
aaa(lp9483
S'MARIE'
p9484
a(lp9485
S'Why'
p9486
aS'dont'
p9487
aS'you'
p9488
aS'sit'
p9489
aS'there'
p9490
aaa(lp9491
S'BABY'
p9492
a(lp9493
aa(lp9494
S'KEVIN'
p9495
a(lp9496
aa(lp9497
S'LISA'
p9498
a(lp9499
S'We'
p9500
aS'disagree'
p9501
aaa(lp9502
g9498
a(lp9503
S'Oh'
p9504
aS'brother'
p9505
aaa(lp9506
S'MARIE'
p9507
a(lp9508
aa(lp9509
S'KEVIN'
p9510
a(lp9511
aa(lp9512
S'LISA'
p9513
a(lp9514
aa(lp9515
S'MARIE'
p9516
a(lp9517
S'But'
p9518
ag4760
aaa(lp9519
S'LISA'
p9520
a(lp9521
aa(lp9522
S'MARIE'
p9523
a(lp9524
g40
aS'was'
p9525
aS'just'
p9526
aS'saying'
p9527
aS'like'
p9528
aaa(lp9529
S'KEVIN'
p9530
a(lp9531
aa(lp9532
S'MARIE'
p9533
a(lp9534
S'Really'
p9535
aS'judgmental'
p9536
aaa(lp9537
S'KEVIN'
p9538
a(lp9539
aa(lp9540
S'MARIE'
p9541
a(lp9542
S'Do'
p9543
aS'you'
p9544
aS'know'
p9545
aS'what'
p9546
ag40
aS'mean'
p9547
aaa(lp9548
S'KEVIN'
p9549
a(lp9550
aa(lp9551
S'MARIE'
p9552
a(lp9553
S'Just'
p9554
aS'like'
p9555
aaa(lp9556
S'LISA'
p9557
a(lp9558
S'VOX'
p9559
aS'VOX'
p9560
aaa(lp9561
S'MARIE'
p9562
a(lp9563
S'not'
p9564
ag6223
aaa(lp9565
g9562
a(lp9566
S'Like'
p9567
aaa(lp9568
g9562
a(lp9569
g40
aS'didnt'
p9570
aS'mean'
p9571
aS'like'
p9572
aS'half'
p9573
aS'the'
p9574
aS'things'
p9575
ag40
aS'said'
p9576
aaa(lp9577
g9562
a(lp9578
S'just'
p9579
aaa(lp9580
g9562
a(lp9581
S'just'
p9582
aS'to'
p9583
aS'like'
p9584
aS'show'
p9585
aS'him'
p9586
aaa(lp9587
g9562
a(lp9588
S'Do'
p9589
aS'you'
p9590
aS'know'
p9591
aS'what'
p9592
ag40
aS'mean'
p9593
aaa(lp9594
g9562
a(lp9595
S'Like'
p9596
ag40
aS'go'
p9597
aaa(lp9598
g9562
a(lp9599
S'God'
p9600
ag40
aS'go'
p9601
aaa(lp9602
g9562
a(lp9603
g40
aS'honestly'
p9604
aS'dont'
p9605
aS'see'
p9606
aS'how'
p9607
aS'somebody'
p9608
aS'could'
p9609
aS'just'
p9610
aS'snort'
p9611
aS'something'
p9612
aS'up'
p9613
aS'their'
p9614
aS'nose'
p9615
aaa(lp9616
g9562
a(lp9617
g40
aS'mean'
p9618
aS'what'
p9619
aS'kind'
p9620
aS'of'
p9621
aS'satisfaction'
p9622
aS'do'
p9623
aS'you'
p9624
aS'get'
p9625
aS'out'
p9626
aS'of'
p9627
aS'that'
p9628
aaa(lp9629
S'KEVIN'
p9630
a(lp9631
aa(lp9632
S'LISA'
p9633
a(lp9634
aa(lp9635
S'MARIE'
p9636
a(lp9637
S'You'
p9638
aS'know'
p9639
aaa(lp9640
g9636
a(lp9641
S'And'
p9642
ag40
aS'was'
p9643
aS'just'
p9644
aS'all'
p9645
aaa(lp9646
S'KEVIN'
p9647
a(lp9648
aa(lp9649
S'MARIE'
p9650
a(lp9651
S'and'
p9652
ag40
aS'was'
p9653
aS'just'
p9654
aS'like'
p9655
aaa(lp9656
g9650
a(lp9657
S'going'
p9658
aS'on'
p9659
aS'and'
p9660
aaa(lp9661
g9650
a(lp9662
S'and'
p9663
aS'saying'
p9664
aS'stuff'
p9665
aS'like'
p9666
aS'that'
p9667
aaa(lp9668
g9650
a(lp9669
S'And'
p9670
aS'and'
p9671
aaa(lp9672
g9650
a(lp9673
S'an'
p9674
aS'and'
p9675
aS'not'
p9676
aS'that'
p9677
ag40
aS'dont'
p9678
aaa(lp9679
S'LISA'
p9680
a(lp9681
S'What'
p9682
aS'did'
p9683
aS'she'
p9684
aS'do'
p9685
aaa(lp9686
g9680
a(lp9687
g40
aS'mean'
p9688
aS'that'
p9689
aS'she'
p9690
aS'was'
p9691
ag126
aaa(lp9692
S'MARIE'
p9693
a(lp9694
S'She'
p9695
aS'was'
p9696
aS'just'
p9697
aS'like'
p9698
aaa(lp9699
g9693
a(lp9700
g40
aS'know'
p9701
aaa(lp9702
g9693
a(lp9703
S'Isnt'
p9704
aS'that'
p9705
aS'disgust'
p9706
aaa(lp9707
g9693
a(lp9708
S'You'
p9709
aS'know'
p9710
aaa(lp9711
S'LISA'
p9712
a(lp9713
S'Was'
p9714
aS'she'
p9715
aS'alcoholic'
p9716
aaa(lp9717
g9712
a(lp9718
S'Or'
p9719
aaa(lp9720
S'MARIE'
p9721
a(lp9722
g40
aS'dont'
p9723
aS'know'
p9724
aS'really'
p9725
aS'what'
p9726
aS'she'
p9727
aS'was'
p9728
aaa(lp9729
S'BABY'
p9730
a(lp9731
aa(lp9732
S'LISA'
p9733
a(lp9734
S'Aw'
p9735
aaa(lp9736
S'MARIE'
p9737
a(lp9738
S'But'
p9739
aS'she'
p9740
aS'um'
p9741
aaa(lp9742
g9737
a(lp9743
S'but'
p9744
aS'it'
p9745
aS'was'
p9746
aS'just'
p9747
aS'rude'
p9748
aaa(lp9749
g9737
a(lp9750
g40
aS'was'
p9751
aS'just'
p9752
aS'being'
p9753
aS'like'
p9754
aS'really'
p9755
aS'judgmental'
p9756
aaa(lp9757
g9737
a(lp9758
S'like'
p9759
aS'on'
p9760
aS'purpose'
p9761
aaa(lp9762
g9737
a(lp9763
S'Do'
p9764
aS'you'
p9765
aS'know'
p9766
aaa(lp9767
g9737
a(lp9768
S'Cause'
p9769
ag40
aS'would'
p9770
aS'never'
p9771
aS'go'
p9772
aS'up'
p9773
aS'and'
p9774
aS'say'
p9775
aS'something'
p9776
aaa(lp9777
S'KEVIN'
p9778
a(lp9779
aa(lp9780
S'MARIE'
p9781
a(lp9782
S'VOX'
p9783
aS'well'
p9784
ag40
aS'dont'
p9785
aS'see'
p9786
aS'how'
p9787
aS'you'
p9788
aS'can'
p9789
aS'sniff'
p9790
aS'that'
p9791
aS'VOX'
p9792
aaa(lp9793
S'LISA'
p9794
a(lp9795
S'Yeah'
p9796
aaa(lp9797
S'MARIE'
p9798
a(lp9799
S'Do'
p9800
aS'you'
p9801
aS'know'
p9802
aS'what'
p9803
ag40
aS'mean'
p9804
aaa(lp9805
S'LISA'
p9806
a(lp9807
S'Yeah'
p9808
aaa(lp9809
S'KEVIN'
p9810
a(lp9811
aa(lp9812
S'MARIE'
p9813
a(lp9814
g40
aS'would'
p9815
aS'never'
p9816
aS'say'
p9817
aS'something'
p9818
aS'like'
p9819
aS'that'
p9820
aS'but'
p9821
aaa(lp9822
S'LISA'
p9823
a(lp9824
S'Just'
p9825
aS'to'
p9826
aS'sh'
p9827
aS'kinda'
p9828
aS'show'
p9829
aS'him'
p9830
aS'how'
p9831
aS'it'
p9832
aS'is'
p9833
aaa(lp9834
g9823
a(lp9835
S'like'
p9836
aaa(lp9837
S'MARIE'
p9838
a(lp9839
S'Yeah'
p9840
aaa(lp9841
S'LISA'
p9842
a(lp9843
S'what'
p9844
aS'it'
p9845
aS'feels'
p9846
aS'like'
p9847
aaa(lp9848
S'MARIE'
p9849
a(lp9850
S'how'
p9851
aS'judgment'
p9852
aaa(lp9853
g9849
a(lp9854
S'And'
p9855
ag40
aS'was'
p9856
aS'just'
p9857
aS'going'
p9858
aS'off'
p9859
aS'and'
p9860
aS'off'
p9861
aaa(lp9862
g9849
a(lp9863
S'and'
p9864
aS'you'
p9865
aS'could'
p9866
aS'just'
p9867
aaa(lp9868
S'KEVIN'
p9869
a(lp9870
S'Did'
p9871
aS'he'
p9872
aS'react'
p9873
aaa(lp9874
S'MARIE'
p9875
a(lp9876
S'He'
p9877
aS'did'
p9878
aaa(lp9879
g9875
a(lp9880
S'He'
p9881
aS'just'
p9882
aS'did'
p9883
aS'really'
p9884
aS'quiet'
p9885
aaa(lp9886
g9875
a(lp9887
S'And'
p9888
aS'then'
p9889
aS'hes'
p9890
aS'all'
p9891
aaa(lp9892
g9875
a(lp9893
S'uh'
p9894
aS'Marie'
p9895
aS'and'
p9896
aS'Cassie'
p9897
aaa(lp9898
g9875
a(lp9899
S'can'
p9900
ag40
aS'talk'
p9901
aS'to'
p9902
aS'you'
p9903
aS'for'
p9904
ag126
aS'minute'
p9905
aaa(lp9906
g9875
a(lp9907
S'And'
p9908
ag40
aS'was'
p9909
aS'all'
p9910
aaa(lp9911
g9875
a(lp9912
S'VOX'
p9913
aS'oh'
p9914
aS'my'
p9915
aS'God'
p9916
aS'hes'
p9917
aS'gonna'
p9918
aS'fire'
p9919
aS'us'
p9920
aS'VOX'
p9921
aaa(lp9922
S'KEVIN'
p9923
a(lp9924
aa(lp9925
S'LISA'
p9926
a(lp9927
aa(lp9928
S'MARIE'
p9929
a(lp9930
aa(lp9931
S'LISA'
p9932
a(lp9933
S'He'
p9934
aS'wouldnt'
p9935
aS'fire'
p9936
aS'you'
p9937
aaa(lp9938
g9932
a(lp9939
g40
aS'could'
p9940
aS'just'
p9941
aS'see'
p9942
aS'this'
p9943
aaa(lp9944
g9932
a(lp9945
g4760
aS'k'
p9946
aaa(lp9947
g9932
a(lp9948
S'Youre'
p9949
aS'going'
p9950
aS'to'
p9951
aS'unemployment'
p9952
aaa(lp9953
S'KEVIN'
p9954
a(lp9955
S'You'
p9956
aS'could'
p9957
aS'sue'
p9958
aaa(lp9959
S'LISA'
p9960
a(lp9961
S'and'
p9962
aS'the'
p9963
aS'reason'
p9964
aS'for'
p9965
aS'unemployment'
p9966
aaa(lp9967
g9960
a(lp9968
S'uh'
p9969
aS'well'
p9970
ag40
aS'said'
p9971
aS'something'
p9972
aS'about'
p9973
aS'drug'
p9974
aS'addiction'
p9975
aaa(lp9976
g9960
a(lp9977
S'You'
p9978
aS'know'
p9979
aS'what'
p9980
ag40
aS'mean'
p9981
aaa(lp9982
S'KEVIN'
p9983
a(lp9984
aa(lp9985
S'MARIE'
p9986
a(lp9987
aa(lp9988
S'LISA'
p9989
a(lp9990
aa(lp9991
S'MARIE'
p9992
a(lp9993
S'But'
p9994
aS'you'
p9995
aS'know'
p9996
aaa(lp9997
g9992
a(lp9998
g40
aS'was'
p9999
aS'just'
p10000
aaa(lp10001
g9992
a(lp10002
S'thought'
p10003
aS'he'
p10004
aS'was'
p10005
aaa(lp10006
S'KEVIN'
p10007
a(lp10008
S'Sue'
p10009
aaa(lp10010
S'MARIE'
p10011
a(lp10012
g40
aS'thought'
p10013
aS'he'
p10014
aS'was'
p10015
aS'gonna'
p10016
aS'preach'
p10017
aS'something'
p10018
aS'like'
p10019
aS'to'
p10020
aS'me'
p10021
aS'like'
p10022
aaa(lp10023
g10011
a(lp10024
S'VOX'
p10025
aS'well'
p10026
ag40
aS'was'
p10027
aS'one'
p10028
aaa(lp10029
g10011
a(lp10030
S'and'
p10031
ag40
aS'dont'
p10032
aS'consider'
p10033
aS'myself'
p10034
aS'VOX'
p10035
aaa(lp10036
g10011
a(lp10037
S'You'
p10038
aS'know'
p10039
ag40
aS'thought'
p10040
aS'he'
p10041
aS'was'
p10042
aS'gonna'
p10043
aS'bring'
p10044
aaa(lp10045
S'LISA'
p10046
a(lp10047
S'And'
p10048
aS'he'
p10049
aS'was'
p10050
aS'gonna'
p10051
aS'tell'
p10052
aS'you'
p10053
aS'something'
p10054
aS'about'
p10055
aS'the'
p10056
aS'boiler'
p10057
aaa(lp10058
g10046
a(lp10059
S'Or'
p10060
aS'hell'
p10061
aS'XX'
p10062
ag7
aS'XX'
p10063
aaa(lp10064
S'MARIE'
p10065
a(lp10066
S'No'
p10067
aaa(lp10068
g10065
a(lp10069
S'and'
p10070
aS'he'
p10071
aS'XX'
p10072
aaa(lp10073
S'KEVIN'
p10074
a(lp10075
S'Hunh'
p10076
aaa(lp10077
S'MARIE'
p10078
a(lp10079
S'No'
p10080
aaa(lp10081
g10078
a(lp10082
S'And'
p10083
aS'he'
p10084
aS'ended'
p10085
aS'up'
p10086
aS'asking'
p10087
aS'us'
p10088
aaa(lp10089
S'LISA'
p10090
a(lp10091
S'Cause'
p10092
aS'at'
p10093
aS'the'
p10094
aS'store'
p10095
aaa(lp10096
S'MARIE'
p10097
a(lp10098
S'well'
p10099
aaa(lp10100
g10097
a(lp10101
S'what'
p10102
aaa(lp10103
g10097
a(lp10104
S'how'
p10105
aS'would'
p10106
aS'you'
p10107
ag3055
aaa(lp10108
g10097
a(lp10109
S'How'
p10110
aS'would'
p10111
aS'you'
p10112
aS'describe'
p10113
aS'Barry'
p10114
aaa(lp10115
g10097
a(lp10116
S'And'
p10117
aS'his'
p10118
aS'work'
p10119
aaa(lp10120
g10097
a(lp10121
S'And'
p10122
ag40
aS'was'
p10123
aS'like'
p10124
aaa(lp10125
g10097
a(lp10126
S'hes'
p10127
aS'all'
p10128
aaa(lp10129
g10097
a(lp10130
S'and'
p10131
aS'be'
p10132
aS'careful'
p10133
aS'when'
p10134
aS'you'
p10135
aS'answer'
p10136
aS'this'
p10137
aS'question'
p10138
aaa(lp10139
g10097
a(lp10140
S'and'
p10141
aS'Im'
p10142
aS'like'
p10143
aaa(lp10144
g10097
a(lp10145
S'so'
p10146
ag40
aS'was'
p10147
aS'all'
p10148
aaa(lp10149
g10097
a(lp10150
S'VOX'
p10151
aS'well'
p10152
ag40
aS'dont'
p10153
aS'know'
p10154
aS'VOX'
p10155
aaa(lp10156
g10097
a(lp10157
g40
aS'said'
p10158
aaa(lp10159
g10097
a(lp10160
S'because'
p10161
aS'VOX'
p10162
ag40
aS'dont'
p10163
aS'work'
p10164
aS'with'
p10165
aS'him'
p10166
aS'in'
p10167
aS'the'
p10168
aS'morning'
p10169
aS'anymore'
p10170
aS'VOX'
p10171
aaa(lp10172
S'LISA'
p10173
a(lp10174
aa(lp10175
S'MARIE'
p10176
a(lp10177
aa(lp10178
g10176
a(lp10179
g40
aS'was'
p10180
aS'all'
p10181
aaa(lp10182
g10176
a(lp10183
S'but'
p10184
aS'when'
p10185
ag40
aS'did'
p10186
aaa(lp10187
g10176
a(lp10188
S'you'
p10189
aS'know'
p10190
aaa(lp10191
g10176
a(lp10192
g40
aS'didnt'
p10193
aS'think'
p10194
aS'he'
p10195
aS'was'
p10196
ag126
aS'good'
p10197
aS'worker'
p10198
aaa(lp10199
g10176
a(lp10200
S'Hes'
p10201
aS'all'
p10202
aaa(lp10203
g10176
a(lp10204
S'VOX'
p10205
aS'very'
p10206
aS'good'
p10207
aS'answer'
p10208
aaa(lp10209
g10176
a(lp10210
S'Very'
p10211
aS'good'
p10212
aS'answer'
p10213
aS'VOX'
p10214
aaa(lp10215
g10176
a(lp10216
S'But'
p10217
aS'it'
p10218
aS'was'
p10219
aS'just'
p10220
aS'Barry'
p10221
aaa(lp10222
g10176
a(lp10223
S'It'
p10224
aS'just'
p10225
aS'had'
p10226
aaa(lp10227
g10176
a(lp10228
S'You'
p10229
aS'know'
p10230
aaa(lp10231
g10176
a(lp10232
S'and'
p10233
aS'he'
p10234
aaa(lp10235
S'KEVIN'
p10236
a(lp10237
S'Nothing'
p10238
aS'then'
p10239
aS'to'
p10240
aS'do'
p10241
aS'with'
p10242
aS'what'
p10243
aS'you'
p10244
aS'were'
p10245
aaa(lp10246
S'MARIE'
p10247
a(lp10248
S'Not'
p10249
aS'anything'
p10250
aS'to'
p10251
aS'do'
p10252
aS'with'
p10253
aS'what'
p10254
ag40
aS'said'
p10255
aaa(lp10256
g10247
a(lp10257
S'but'
p10258
aS'you'
p10259
aS'could'
p10260
aS'tell'
p10261
aS'that'
p10262
aaa(lp10263
S'LISA'
p10264
a(lp10265
S'Why'
p10266
aS'be'
p10267
aS'careful'
p10268
aaa(lp10269
g10264
a(lp10270
g40
aS'dont'
p10271
aS'understand'
p10272
aS'that'
p10273
aaa(lp10274
S'MARIE'
p10275
a(lp10276
S'Because'
p10277
ag40
aS'did'
p10278
aaa(lp10279
g10275
a(lp10280
S'He'
p10281
aS'didnt'
p10282
aS'want'
p10283
aS'me'
p10284
aS'to'
p10285
aS'say'
p10286
aaa(lp10287
g10275
a(lp10288
S'VOX'
p10289
aS'well'
p10290
ag40
aS'think'
p10291
aS'Kent'
p10292
aS'hes'
p10293
aS'awful'
p10294
aS'VOX'
p10295
aaa(lp10296
g10275
a(lp10297
S'and'
p10298
aS'nanananana'
p10299
aaa(lp10300
S'LISA'
p10301
a(lp10302
S'Why'
p10303
aaa(lp10304
S'MARIE'
p10305
a(lp10306
S'You'
p10307
aS'know'
p10308
aaa(lp10309
g10305
a(lp10310
g40
aS'dont'
p10311
aS'know'
p10312
aaa(lp10313
g10305
a(lp10314
S'just'
p10315
aaa(lp10316
g10305
a(lp10317
S'because'
p10318
aS'that'
p10319
aS'was'
p10320
aS'being'
p10321
aS'judgmental'
p10322
ag40
aS'guess'
p10323
aaa(lp10324
S'LISA'
p10325
a(lp10326
g7
aS'If'
p10327
aS'you'
p10328
aS'do'
p10329
aS'you'
p10330
aS'do'
p10331
ag7
aaa(lp10332
S'KEVIN'
p10333
a(lp10334
S'Issac'
p10335
aaa(lp10336
S'LISA'
p10337
a(lp10338
S'Marie'
p10339
aaa(lp10340
S'MARIE'
p10341
a(lp10342
S'No'
p10343
aS'hunh'
p10344
aaa(lp10345
S'LISA'
p10346
a(lp10347
S'Hes'
p10348
aS'gonna'
p10349
aS'get'
p10350
aS'on'
p10351
aS'all'
p10352
aS'the'
p10353
aS'wires'
p10354
aS'and'
p10355
aS'stuff'
p10356
aaa.