(lp0
(lp1
S'PATRICK'
p2
a(lp3
S'Ow'
p4
aaa(lp5
S'CORINNA'
p6
a(lp7
S'Is'
p8
aS'he'
p9
aS'still'
p10
aS'a'
p11
aS'virgin'
p12
aaa(lp13
S'PATRICK'
p14
a(lp15
S'Uh'
p16
aaa(lp17
S'CORINNAJust'
p18
a(lp19
S'out'
p20
aS'of'
p21
aS'curiosity'
p22
aaa(lp23
S'PATRICKhe'
p24
a(lp25
S'bought'
p26
ag11
aS'hooker'
p27
aaa(lp28
S'CORINNA'
p29
a(lp30
aa(lp31
S'PATRICK'
p32
a(lp33
S'But'
p34
aaa(lp35
g32
a(lp36
S'was'
p37
aS'he'
p38
ag11
aS'virgin'
p39
aS'when'
p40
aS'you'
p41
aS'knew'
p42
aS'him'
p43
aaa(lp44
S'CORINNA'
p45
a(lp46
aa(lp47
g45
a(lp48
S'I'
p49
aS'meant'
p50
aaa(lp51
g45
a(lp52
S'has'
p53
aS'he'
p54
aS'ever'
p55
aS'had'
p56
ag11
aS'girl'
p57
aS'where'
p58
aS'he'
p59
aS'didnt'
p60
aS'have'
p61
aS'to'
p62
aS'pay'
p63
aS'her'
p64
aaa(lp65
S'PATRICK'
p66
a(lp67
S'Oh'
p68
aS'oh'
p69
aaa(lp70
g66
a(lp71
S'he'
p72
aS'got'
p73
aaa(lp74
g66
a(lp75
S'like'
p76
aaa(lp77
g66
a(lp78
g49
aS'told'
p79
aS'you'
p80
aS'about'
p81
aS'the'
p82
aS'time'
p83
aS'he'
p84
aS'got'
p85
aS'like'
p86
ag11
aS'blowjob'
p87
aS'at'
p88
aS'the'
p89
aS'lakefront'
p90
aaa(lp91
S'CORINNA'
p92
a(lp93
S'No'
p94
aaa(lp95
g92
a(lp96
S'you'
p97
aS'didnt'
p98
aaa(lp99
S'PATRICKOh'
p100
a(lp101
S'no'
p102
aS'way'
p103
aaa(lp104
g100
a(lp105
S'Um'
p106
aaa(lp107
g100
a(lp108
S'well'
p109
aS'what'
p110
aS'happened'
p111
aS'was'
p112
aaa(lp113
g100
a(lp114
g49
aS'was'
p115
aS'just'
p116
aaa(lp117
g100
a(lp118
S'me'
p119
aS'and'
p120
aS'Janine'
p121
aaa(lp122
g100
a(lp123
S'well'
p124
aS'let'
p125
aS'me'
p126
aS'back'
p127
aS'up'
p128
aS'here'
p129
aaa(lp130
g100
a(lp131
g49
aS'started'
p132
aS'hanging'
p133
aS'out'
p134
aS'with'
p135
aS'Janine'
p136
aaa(lp137
g100
a(lp138
S'Janine'
p139
aS'and'
p140
ag49
aS'got'
p141
aS'smashed'
p142
aaa(lp143
g100
a(lp144
S'and'
p145
aS'we'
p146
aS'like'
p147
aS'made'
p148
aS'out'
p149
aS'at'
p150
aS'the'
p151
aS'lakefront'
p152
aaa(lp153
g100
a(lp154
g49
aS'dont'
p155
aS'need'
p156
aS'the'
p157
aS'details'
p158
aaa(lp159
S'CORINNABy'
p160
a(lp161
S'the'
p162
aS'way'
p163
aaa(lp164
g160
a(lp165
g49
aS'saw'
p166
aS'the'
p167
aS'Janine'
p168
aS'last'
p169
aS'night'
p170
aaa(lp171
S'PATRICK'
p172
a(lp173
S'Oh'
p174
aS'cool'
p175
aaa(lp176
g172
a(lp177
S'hows'
p178
aS'she'
p179
aS'doing'
p180
aaa(lp181
S'CORINNA'
p182
a(lp183
S'Okay'
p184
aaa(lp185
S'PATRICKI'
p186
a(lp187
S'havent'
p188
aS'seen'
p189
aS'her'
p190
aS'in'
p191
aS'half'
p192
ag11
aS'billion'
p193
aS'years'
p194
aaa(lp195
g186
a(lp196
S'so'
p197
aaa(lp198
g186
a(lp199
S'um'
p200
aaa(lp201
g186
a(lp202
S'but'
p203
aS'anyways'
p204
aaa(lp205
g186
a(lp206
S'we'
p207
aS'were'
p208
aS'like'
p209
aS'making'
p210
aS'out'
p211
aS'and'
p212
aS'stuff'
p213
aS'at'
p214
aS'Duncan'
p215
aS'lakefront'
p216
aaa(lp217
g186
a(lp218
S'so'
p219
aS'thats'
p220
aS'what'
p221
aS'we'
p222
aS'regularly'
p223
aaa(lp224
g186
a(lp225
S'PAR'
p226
aS'well'
p227
aS'not'
p228
aS'regularly'
p229
aaa(lp230
g186
a(lp231
S'did'
p232
aS'this'
p233
aS'like'
p234
aS'th'
p235
aS'two'
p236
aS'three'
p237
aS'times'
p238
aaa(lp239
g186
a(lp240
S'something'
p241
aS'like'
p242
aS'that'
p243
aS'PAR'
p244
aaa(lp245
g186
a(lp246
S'So'
p247
aS'after'
p248
aS'Victors'
p249
aaa(lp250
g186
a(lp251
S'after'
p252
aS'Tom'
p253
aS'had'
p254
aS'two'
p255
aS'women'
p256
aaa(lp257
g186
a(lp258
S'like'
p259
aaa(lp260
g186
a(lp261
S'fighting'
p262
aS'over'
p263
aS'who'
p264
aS'hes'
p265
aS'gonna'
p266
aS'go'
p267
aS'home'
p268
aS'with'
p269
aaa(lp270
g186
a(lp271
S'he'
p272
aS'went'
p273
aS'home'
p274
aS'with'
p275
aS'this'
p276
aS'like'
p277
aS'uh'
p278
aaa(lp279
g186
a(lp280
S'one'
p281
aS'other'
p282
aS'girl'
p283
aaa(lp284
g186
a(lp285
S'like'
p286
ag11
aS'heavyset'
p287
aS'girl'
p288
aaa(lp289
g186
a(lp290
S'and'
p291
aaa(lp292
g186
a(lp293
S'me'
p294
aS'and'
p295
aS'Janine'
p296
aS'and'
p297
aS'all'
p298
aS'of'
p299
aS'us'
p300
aS'were'
p301
aS'walking'
p302
aS'down'
p303
aS'the'
p304
aS'hill'
p305
aaa(lp306
g186
a(lp307
S'You'
p308
aS'know'
p309
aaa(lp310
g186
a(lp311
S'going'
p312
aS'down'
p313
aaa(lp314
g186
a(lp315
S'where'
p316
aS'the'
p317
aS'pier'
p318
aS'is'
p319
aaa(lp320
g186
a(lp321
S'Except'
p322
aaa(lp323
g186
a(lp324
S'we'
p325
aS'were'
p326
aS'going'
p327
aS'down'
p328
aS'that'
p329
aS'big'
p330
aS'hill'
p331
aaa(lp332
g186
a(lp333
S'And'
p334
aS'its'
p335
aS'like'
p336
aS'uh'
p337
aaa(lp338
g186
a(lp339
S'me'
p340
aS'and'
p341
aS'Janine'
p342
aS'were'
p343
aS'used'
p344
aS'to'
p345
aS'walking'
p346
aS'down'
p347
aS'that'
p348
aS'steep'
p349
aS'grassy'
p350
aS'part'
p351
aaa(lp352
g186
a(lp353
S'and'
p354
aS'they'
p355
aS'went'
p356
aS'around'
p357
aaa(lp358
g186
a(lp359
S'So'
p360
aS'we'
p361
aS'hurried'
p362
aS'up'
p363
aS'and'
p364
aS'went'
p365
aS'in'
p366
aS'the'
p367
aS'grassy'
p368
aS'part'
p369
aaa(lp370
g186
a(lp371
S'by'
p372
aS'the'
p373
aS'tennis'
p374
aS'courts'
p375
aaa(lp376
g186
a(lp377
S'It'
p378
aS'was'
p379
aS'real'
p380
aS'dark'
p381
aaa(lp382
g186
a(lp383
S'and'
p384
aS'you'
p385
aS'couldnt'
p386
aS'see'
p387
aS'us'
p388
aS'at'
p389
aS'all'
p390
aaa(lp391
g186
a(lp392
S'after'
p393
aS'we'
p394
aS'had'
p395
aS'gotten'
p396
aS'to'
p397
aS'that'
p398
aS'little'
p399
aS'plank'
p400
aaa(lp401
g186
a(lp402
S'So'
p403
aS'we'
p404
aS'like'
p405
aS'hurried'
p406
aS'up'
p407
aS'to'
p408
aS'this'
p409
aS'one'
p410
aS'spot'
p411
aS'we'
p412
aS'always'
p413
aS'went'
p414
aS'to'
p415
aaa(lp416
g186
a(lp417
S'we'
p418
aS'sat'
p419
aS'and'
p420
aS'looked'
p421
aS'around'
p422
aaa(lp423
g186
a(lp424
S'and'
p425
aS'Tom'
p426
aS'and'
p427
aS'them'
p428
aS'were'
p429
aS'yelling'
p430
aS'and'
p431
aS'screaming'
p432
aS'for'
p433
aS'us'
p434
aaa(lp435
g186
a(lp436
S'You'
p437
aS'know'
p438
aS'and'
p439
aS'they'
p440
aaa(lp441
g186
a(lp442
S'started'
p443
aS'making'
p444
aS'out'
p445
aaa(lp446
g186
a(lp447
S'like'
p448
aaa(lp449
g186
a(lp450
g11
aS'hundred'
p451
aS'yards'
p452
aS'away'
p453
aS'from'
p454
aS'us'
p455
aaa(lp456
g186
a(lp457
S'You'
p458
aS'know'
p459
aaa(lp460
g186
a(lp461
S'but'
p462
aS'theres'
p463
aS'trees'
p464
aaa(lp465
g186
a(lp466
S'and'
p467
aS'they'
p468
aS'were'
p469
aS'standing'
p470
aaa(lp471
g186
a(lp472
S'in'
p473
aS'front'
p474
aS'of'
p475
ag11
aS'tree'
p476
aaa(lp477
g186
a(lp478
S'so'
p479
aS'you'
p480
aS'couldnt'
p481
aS'see'
p482
aS'them'
p483
aaa(lp484
g186
a(lp485
S'and'
p486
aS'we'
p487
aS'were'
p488
aS'sitting'
p489
aS'by'
p490
aS'like'
p491
ag11
aS'tree'
p492
aaa(lp493
g186
a(lp494
S'so'
p495
aS'you'
p496
aS'couldnt'
p497
aS'see'
p498
aS'us'
p499
aaa(lp500
g186
a(lp501
S'So'
p502
aS'they'
p503
aS'were'
p504
aS'making'
p505
aS'out'
p506
aaa(lp507
g186
a(lp508
S'and'
p509
aS'were'
p510
aS'sitting'
p511
aS'there'
p512
aS'talking'
p513
aS'and'
p514
aS'stuff'
p515
aS'and'
p516
aS'junk'
p517
aaa(lp518
g186
a(lp519
S'and'
p520
aS'then'
p521
aS'its'
p522
aS'like'
p523
aaa(lp524
g186
a(lp525
S'all'
p526
aS'of'
p527
ag11
aS'sudden'
p528
aS'we'
p529
aS'hear'
p530
aaa(lp531
g186
a(lp532
S'and'
p533
aS'that'
p534
aS'was'
p535
aS'just'
p536
aS'the'
p537
aS'damndest'
p538
aS'noise'
p539
aaa(lp540
g186
a(lp541
S'and'
p542
ag11
aS'very'
p543
aS'distinctive'
p544
aS'noise'
p545
aaa(lp546
S'CORINNA'
p547
a(lp548
aa(lp549
S'PATRICK'
p550
a(lp551
S'so'
p552
aaa(lp553
g550
a(lp554
S'Im'
p555
aS'like'
p556
aaa(lp557
g550
a(lp558
g49
aS'know'
p559
aS'theyre'
p560
aS'not'
p561
aS'doing'
p562
aS'what'
p563
ag49
aS'think'
p564
aS'theyre'
p565
aS'doing'
p566
aaa(lp567
g550
a(lp568
S'and'
p569
aS'were'
p570
aS'looking'
p571
aS'around'
p572
aS'the'
p573
aS'corner'
p574
aaa(lp575
g550
a(lp576
g49
aS'couldnt'
p577
aS'see'
p578
aS'anything'
p579
aaa(lp580
g550
a(lp581
S'And'
p582
aS'then'
p583
aS'all'
p584
aS'of'
p585
ag11
aS'sudden'
p586
aaa(lp587
g550
a(lp588
g49
aS'saw'
p589
aaa(lp590
g550
a(lp591
S'Tom'
p592
ag49
aS'dont'
p593
aS'know'
p594
aaa(lp595
g550
a(lp596
S'took'
p597
ag11
aS'step'
p598
aS'back'
p599
aS'or'
p600
aS'something'
p601
aaa(lp602
g550
a(lp603
S'and'
p604
ag49
aS'could'
p605
aS'see'
p606
aS'Tom'
p607
aaa(lp608
g550
a(lp609
S'Or'
p610
aS'something'
p611
aaa(lp612
g550
a(lp613
g49
aS'dont'
p614
aS'n'
p615
aS'know'
p616
aaa(lp617
g550
a(lp618
S'on'
p619
aS'this'
p620
aS'side'
p621
aS'of'
p622
aS'the'
p623
aS'tree'
p624
aaa(lp625
g550
a(lp626
S'and'
p627
aS'then'
p628
ag49
aS'saw'
p629
ag11
aS'head'
p630
aaa(lp631
g550
a(lp632
S'Or'
p633
ag11
aS'movement'
p634
aS'lower'
p635
aS'than'
p636
aS'what'
p637
ag49
aS'saw'
p638
aS'Tom'
p639
aaa(lp640
g550
a(lp641
S'So'
p642
aS'then'
p643
aS'the'
p644
aS'picture'
p645
aS'became'
p646
aS'clear'
p647
aS'that'
p648
aaa(lp649
g550
a(lp650
S'hes'
p651
aS'getting'
p652
aS'head'
p653
aS'from'
p654
aS'this'
p655
aS'chick'
p656
aS'he'
p657
aS'didnt'
p658
aS'even'
p659
aS'know'
p660
aaa(lp661
S'CORINNA'
p662
a(lp663
aa(lp664
S'PATRICKAnd'
p665
a(lp666
S'that'
p667
aS'was'
p668
aS'kinda'
p669
aS'cool'
p670
aaa(lp671
g665
a(lp672
S'So'
p673
aaa(lp674
g665
a(lp675
g49
aS'dont'
p676
aS'know'
p677
aS'if'
p678
aS'he'
p679
aaa(lp680
S'CORINNASo'
p681
a(lp682
S'did'
p683
aS'he'
p684
aS'do'
p685
aS'her'
p686
aaa(lp687
g681
a(lp688
S'or'
p689
aS'did'
p690
aS'he'
p691
aS'just'
p692
aS'get'
p693
aS'the'
p694
aS'blowjob'
p695
aaa(lp696
S'PATRICKJust'
p697
a(lp698
S'the'
p699
aS'blowjob'
p700
aaa(lp701
g697
a(lp702
S'Its'
p703
aS'like'
p704
aaa(lp705
g697
a(lp706
S'it'
p707
aS'was'
p708
aS'getting'
p709
aS'late'
p710
aS'and'
p711
aS'she'
p712
aS'had'
p713
aS'to'
p714
aS'work'
p715
aS'in'
p716
aS'the'
p717
aS'morning'
p718
aaa(lp719
S'CORINNA'
p720
a(lp721
aa(lp722
S'PATRICK'
p723
a(lp724
S'But'
p725
aaa(lp726
g723
a(lp727
S'and'
p728
aS'thats'
p729
aS'the'
p730
aS'first'
p731
aS'chick'
p732
ag49
aS'ever'
p733
aS'saw'
p734
aS'him'
p735
aS'with'
p736
aS'here'
p737
aS'in'
p738
aS'the'
p739
aS'United'
p740
aS'States'
p741
aS'otherwise'
p742
aaa(lp743
g723
a(lp744
S'Hes'
p745
aS'only'
p746
aS'paid'
p747
aS'for'
p748
aS'it'
p749
aaa(lp750
g723
a(lp751
S'You'
p752
aS'know'
p753
aaa(lp754
S'CORINNA'
p755
a(lp756
S'Did'
p757
aS'he'
p758
aS'pay'
p759
aS'for'
p760
aS'it'
p761
aS'back'
p762
aS'home'
p763
aaa(lp764
g755
a(lp765
S'Or'
p766
aaa(lp767
S'PATRICKYeah'
p768
a(lp769
aa(lp770
g768
a(lp771
S'fifty'
p772
aS'bucks'
p773
aaa(lp774
g768
a(lp775
S'for'
p776
aS'hookers'
p777
aaa(lp778
g768
a(lp779
S'X'
p780
aS'well'
p781
ag780
aaa(lp782
g768
a(lp783
S'its'
p784
aS'kind'
p785
aS'of'
p786
ag11
aS'good'
p787
aS'price'
p788
aaa(lp789
g768
a(lp790
g49
aS'mean'
p791
aaa(lp792
S'CORINNA'
p793
a(lp794
aa(lp795
S'PATRICK'
p796
a(lp797
S'nowadays'
p798
aS'here'
p799
aaa(lp800
g796
a(lp801
S'youd'
p802
aS'have'
p803
aS'to'
p804
aS'like'
p805
aaa(lp806
g796
a(lp807
S'you'
p808
aS'know'
p809
aaa(lp810
g796
a(lp811
S'pay'
p812
aS'fifty'
p813
aS'bucks'
p814
aS'to'
p815
aS'go'
p816
aS'out'
p817
aS'to'
p818
aS'dinner'
p819
aS'and'
p820
ag11
aS'movie'
p821
aaa(lp822
g796
a(lp823
S'and'
p824
aS'then'
p825
aS'you'
p826
aS'have'
p827
aS'to'
p828
aS'be'
p829
aS'real'
p830
aS'nice'
p831
aaa(lp832
g796
a(lp833
S'and'
p834
aS'then'
p835
aS'maybe'
p836
aS'just'
p837
aS'maybe'
p838
aaa(lp839
g796
a(lp840
S'something'
p841
aS'might'
p842
aS'happen'
p843
aaa(lp844
g796
a(lp845
S'if'
p846
aS'she'
p847
aS'likes'
p848
aS'you'
p849
aS'and'
p850
aaa(lp851
g796
a(lp852
S'if'
p853
aS'the'
p854
aS'winds'
p855
aS'blowing'
p856
aS'in'
p857
aS'the'
p858
aS'right'
p859
aS'direction'
p860
aS'and'
p861
aaa(lp862
g796
a(lp863
S'WH'
p864
aS'just'
p865
aS'WH'
p866
aS'no'
p867
aS'one'
p868
aS'tripped'
p869
aS'over'
p870
aS'anything'
p871
aS'earlier'
p872
aS'in'
p873
aS'that'
p874
aS'day'
p875
aaa(lp876
g796
a(lp877
S'and'
p878
aS'well'
p879
aaa(lp880
g796
a(lp881
S'take'
p882
aS'fifty'
p883
aS'bucks'
p884
aaa(lp885
g796
a(lp886
S'go'
p887
aS'get'
p888
ag11
aS'hooker'
p889
aaa(lp890
g796
a(lp891
S'and'
p892
aS'then'
p893
aaa(lp894
g796
a(lp895
S'go'
p896
aS'out'
p897
aS'with'
p898
aS'your'
p899
aS'friends'
p900
aS'and'
p901
aS'have'
p902
aS'some'
p903
aS'fun'
p904
aaa(lp905
S'CORINNA'
p906
a(lp907
S'Or'
p908
aS'you'
p909
aS'could'
p910
aS'always'
p911
aS'go'
p912
aS'down'
p913
aS'to'
p914
aS'that'
p915
aS'one'
p916
aS'strip'
p917
aS'in'
p918
aS'Chicago'
p919
aaa(lp920
S'PATRICK'
p921
a(lp922
S'What'
p923
aS'strip'
p924
aaa(lp925
S'CORINNA'
p926
a(lp927
S'The'
p928
aS'one'
p929
aS'over'
p930
aaa(lp931
g926
a(lp932
S'by'
p933
aS'Crowbar'
p934
aaa(lp935
S'PATRICK'
p936
a(lp937
S'No'
p938
aaa(lp939
S'CORINNA'
p940
a(lp941
S'Its'
p942
aS'like'
p943
aS'by'
p944
aS'the'
p945
aS'bridge'
p946
aaa(lp947
S'PATRICK'
p948
a(lp949
S'Okay'
p950
aS'what'
p951
aaa(lp952
g948
a(lp953
S'whats'
p954
aaa(lp955
g948
a(lp956
S'what'
p957
aS'ah'
p958
aaa(lp959
S'CORINNATheres'
p960
a(lp961
S'like'
p962
ag11
aS'whole'
p963
aS'strip'
p964
aaa(lp965
g960
a(lp966
S'Thats'
p967
aS'like'
p968
aS'that'
p969
aS'whole'
p970
aS'strip'
p971
aS'right'
p972
aS'there'
p973
aaa(lp974
g960
a(lp975
S'Theres'
p976
aS'all'
p977
aS'the'
p978
aaa(lp979
g960
a(lp980
S'the'
p981
aS'classic'
p982
aS'MRC'
p983
aS'type'
p984
aS'of'
p985
aS'prostitutes'
p986
aS'MRC'
p987
aaa(lp988
S'PATRICKReally'
p989
a(lp990
aa(lp991
S'CORINNAYeah'
p992
a(lp993
aa(lp994
S'PATRICKHunh'
p995
a(lp996
aa(lp997
S'CORINNAIts'
p998
a(lp999
S'like'
p1000
aaa(lp1001
g998
a(lp1002
S'if'
p1003
aS'you'
p1004
aS'go'
p1005
aS'in'
p1006
aS'the'
p1007
aS'summertime'
p1008
aaa(lp1009
g998
a(lp1010
g49
aS'm'
p1011
aS'mean'
p1012
aS'its'
p1013
aS'just'
p1014
aS'lined'
p1015
aS'with'
p1016
aS'em'
p1017
aaa(lp1018
S'PATRICKWow'
p1019
a(lp1020
aa(lp1021
g1019
a(lp1022
S'thanks'
p1023
aS'for'
p1024
aS'telling'
p1025
aS'me'
p1026
aaa(lp1027
S'CORINNAJust'
p1028
a(lp1029
S'literally'
p1030
aS'lined'
p1031
aS'with'
p1032
aS'it'
p1033
aaa(lp1034
g1028
a(lp1035
S'lined'
p1036
aS'with'
p1037
aS'em'
p1038
aaa(lp1039
g1028
a(lp1040
S'and'
p1041
aS'its'
p1042
aS'like'
p1043
aaa(lp1044
g1028
a(lp1045
S'all'
p1046
aS'these'
p1047
aS'cars'
p1048
aS'are'
p1049
aS'like'
p1050
aS'pulled'
p1051
aS'over'
p1052
aaa(lp1053
g1028
a(lp1054
S'and'
p1055
aS'theyre'
p1056
aS'like'
p1057
aaa(lp1058
g1028
a(lp1059
S'y'
p1060
aaa(lp1061
g1028
a(lp1062
S'Its'
p1063
aS'like'
p1064
aaa(lp1065
S'PATRICK'
p1066
a(lp1067
S'Wow'
p1068
aaa(lp1069
S'CORINNAIts'
p1070
a(lp1071
aa(lp1072
g1070
a(lp1073
S'You'
p1074
aS'see'
p1075
aS'all'
p1076
aS'these'
p1077
aS'these'
p1078
aS'hookers'
p1079
aaa(lp1080
g1070
a(lp1081
S'and'
p1082
aaa(lp1083
g1070
a(lp1084
S'youre'
p1085
aS'going'
p1086
aaa(lp1087
S'PATRICKX'
p1088
a(lp1089
aa(lp1090
S'CORINNA'
p1091
a(lp1092
S'VOX'
p1093
aS'okay'
p1094
aS'VOX'
p1095
aaa(lp1096
S'PATRICKX'
p1097
a(lp1098
aa(lp1099
S'CORINNAit'
p1100
a(lp1101
S'was'
p1102
aS'like'
p1103
aaa(lp1104
g1100
a(lp1105
S'so'
p1106
aaa(lp1107
g1100
a(lp1108
S'So'
p1109
aS'the'
p1110
aS'one'
p1111
aS'time'
p1112
ag49
aS'went'
p1113
aS'with'
p1114
aS'uh'
p1115
aaa(lp1116
g1100
a(lp1117
S'John'
p1118
aS'and'
p1119
aS'Zeus'
p1120
aaa(lp1121
g1100
a(lp1122
S'to'
p1123
aS'Crowbar'
p1124
aaa(lp1125
g1100
a(lp1126
S'on'
p1127
aS'Fourth'
p1128
aS'of'
p1129
aS'July'
p1130
aS'and'
p1131
aS'theyre'
p1132
aaa(lp1133
g1100
a(lp1134
S'theyre'
p1135
aS'all'
p1136
aS'lined'
p1137
aS'out'
p1138
aaa(lp1139
g1100
a(lp1140
S'theres'
p1141
aS'like'
p1142
aS'maybe'
p1143
aaa(lp1144
g1100
a(lp1145
S'probably'
p1146
aS'about'
p1147
ag11
aS'hundred'
p1148
aS'prostitutes'
p1149
aaa(lp1150
g1100
a(lp1151
S'walking'
p1152
aS'up'
p1153
aS'and'
p1154
aS'down'
p1155
aS'the'
p1156
aS'street'
p1157
aaa(lp1158
g1100
a(lp1159
S'and'
p1160
aaa(lp1161
S'PATRICK'
p1162
a(lp1163
aa(lp1164
S'CORINNA'
p1165
a(lp1166
S'uh'
p1167
aaa(lp1168
g1165
a(lp1169
g49
aS'was'
p1170
aS'like'
p1171
aS'Q'
p1172
aS'well'
p1173
aaa(lp1174
g1165
a(lp1175
S'hey'
p1176
aaa(lp1177
g1165
a(lp1178
S'Zeus'
p1179
ag1172
aaa(lp1180
g1165
a(lp1181
S'It'
p1182
aS'was'
p1183
aS'like'
p1184
aaa(lp1185
g1165
a(lp1186
S'you'
p1187
aS'need'
p1188
ag11
aS'girlfriend'
p1189
aaa(lp1190
S'PATRICK'
p1191
a(lp1192
aa(lp1193
g1191
a(lp1194
S'Cool'
p1195
aaa(lp1196
S'CORINNA'
p1197
a(lp1198
S'VOX'
p1199
aS'He'
p1200
aS'was'
p1201
aS'like'
p1202
aaa(lp1203
g1197
a(lp1204
S'uh'
p1205
aaa(lp1206
g1197
a(lp1207
S'no'
p1208
aS'VOX'
p1209
aaa(lp1210
g1197
a(lp1211
S'So'
p1212
aaa(lp1213
g1197
a(lp1214
S'and'
p1215
aS'then'
p1216
aaa(lp1217
g1197
a(lp1218
S'there'
p1219
aS'was'
p1220
aaa(lp1221
g1197
a(lp1222
S'actually'
p1223
aaa(lp1224
g1197
a(lp1225
S'there'
p1226
aS'was'
p1227
ag11
aS'pr'
p1228
aaa(lp1229
g1197
a(lp1230
g11
aS'Russian'
p1231
aS'prostitute'
p1232
aaa(lp1233
g1197
a(lp1234
S'in'
p1235
aS'Victors'
p1236
aaa(lp1237
g1197
a(lp1238
S'on'
p1239
aS'Wednesday'
p1240
aS'night'
p1241
aaa(lp1242
S'PATRICK'
p1243
a(lp1244
S'Really'
p1245
aaa(lp1246
g1243
a(lp1247
g49
aS'didnt'
p1248
aS'see'
p1249
aS'her'
p1250
aaa(lp1251
S'CORINNA'
p1252
a(lp1253
S'She'
p1254
aS'was'
p1255
aS'j'
p1256
aaa(lp1257
g1252
a(lp1258
S'She'
p1259
aS'was'
p1260
aS'like'
p1261
aS'standing'
p1262
aS'right'
p1263
aS'by'
p1264
aS'us'
p1265
aaa(lp1266
g1252
a(lp1267
S'And'
p1268
aaa(lp1269
g1252
a(lp1270
S'its'
p1271
aS'cause'
p1272
aaa(lp1273
g1252
a(lp1274
S'Mary'
p1275
aS'was'
p1276
aS'like'
p1277
aaa(lp1278
g1252
a(lp1279
S'oh'
p1280
aS'my'
p1281
aS'God'
p1282
aaa(lp1283
g1252
a(lp1284
S'she'
p1285
aS'always'
p1286
aS'dressed'
p1287
aS'like'
p1288
aS'an'
p1289
aS'alien'
p1290
aaa(lp1291
g1252
a(lp1292
S'And'
p1293
aS'then'
p1294
aS'she'
p1295
aS'always'
p1296
aS'looks'
p1297
aS'so'
p1298
aS'goofy'
p1299
aaa(lp1300
g1252
a(lp1301
S'And'
p1302
aaa(lp1303
S'PATRICKNo'
p1304
a(lp1305
aa(lp1306
g1304
a(lp1307
g49
aS'had'
p1308
aS'never'
p1309
aS's'
p1310
aaa(lp1311
g1304
a(lp1312
g49
aS'didnt'
p1313
aS'see'
p1314
aS'her'
p1315
aaa(lp1316
g1304
a(lp1317
S'Where'
p1318
aS'was'
p1319
aS'she'
p1320
aaa(lp1321
S'CORINNA'
p1322
a(lp1323
S'Uh'
p1324
aaa(lp1325
g1322
a(lp1326
S'she'
p1327
aS'was'
p1328
aS'to'
p1329
aS'my'
p1330
aS'right'
p1331
aaa(lp1332
g1322
a(lp1333
S'At'
p1334
aS'the'
p1335
aS'bar'
p1336
aaa(lp1337
g1322
a(lp1338
S'And'
p1339
aS'she'
p1340
aS'had'
p1341
aS'these'
p1342
aS'like'
p1343
aS'spandex'
p1344
aS'pa'
p1345
aaa(lp1346
g1322
a(lp1347
g49
aS'mean'
p1348
aS'she'
p1349
aS'did'
p1350
aS'look'
p1351
aS'like'
p1352
aS'kind'
p1353
aS'of'
p1354
aS'like'
p1355
aS'she'
p1356
aS'had'
p1357
ag11
aS'space'
p1358
aS'outfit'
p1359
aS'on'
p1360
aaa(lp1361
g1322
a(lp1362
S'It'
p1363
aS'was'
p1364
aS'like'
p1365
aS'black'
p1366
aaa(lp1367
g1322
a(lp1368
S'and'
p1369
aS'it'
p1370
aS'was'
p1371
aS'like'
p1372
aS'the'
p1373
aS'skirt'
p1374
aS'flared'
p1375
aS'out'
p1376
aS'and'
p1377
aS'shit'
p1378
aaa(lp1379
g1322
a(lp1380
S'And'
p1381
aS'it'
p1382
aS'was'
p1383
aS'just'
p1384
aaa(lp1385
g1322
a(lp1386
S'she'
p1387
aS'kinda'
p1388
aS'looked'
p1389
aS'like'
p1390
ag11
aS'Judy'
p1391
aS'Jetson'
p1392
aaa(lp1393
g1322
a(lp1394
g49
aS'mean'
p1395
aS'she'
p1396
aS'looked'
p1397
aS'really'
p1398
aS'goofy'
p1399
aaa(lp1400
S'PATRICKNo'
p1401
a(lp1402
aa(lp1403
g1401
a(lp1404
S'You'
p1405
aS'gotta'
p1406
aS'point'
p1407
aS'her'
p1408
aS'out'
p1409
aS'like'
p1410
aS'Wednesday'
p1411
aaa(lp1412
S'CORINNA'
p1413
a(lp1414
S'And'
p1415
aaa(lp1416
g1413
a(lp1417
g49
aS'was'
p1418
aS'like'
p1419
aaa(lp1420
g1413
a(lp1421
S'oh'
p1422
aS'my'
p1423
aS'God'
p1424
aaa(lp1425
g1413
a(lp1426
S'You'
p1427
aS'know'
p1428
aaa(lp1429
g1413
a(lp1430
S'So'
p1431
aaa(lp1432
S'PATRICK'
p1433
a(lp1434
S'Ill'
p1435
aS'bring'
p1436
aS'some'
p1437
aS'extra'
p1438
aS'money'
p1439
aaa(lp1440
g1433
a(lp1441
S'no'
p1442
aaa(lp1443
S'CORINNA'
p1444
a(lp1445
S'Um'
p1446
aaa(lp1447
g1444
a(lp1448
S'Mary'
p1449
aS'said'
p1450
aaa(lp1451
g1444
a(lp1452
S'it'
p1453
aS'was'
p1454
aS'like'
p1455
aaa(lp1456
g1444
a(lp1457
S'shes'
p1458
ag11
aS'prostitute'
p1459
aaa(lp1460
g1444
a(lp1461
S'shes'
p1462
aS'really'
p1463
aS'weird'
p1464
aS'too'
p1465
aaa(lp1466
S'PATRICK'
p1467
a(lp1468
S'Wow'
p1469
aaa(lp1470
g1467
a(lp1471
S'Thats'
p1472
aS'kinda'
p1473
aS'cool'
p1474
aaa(lp1475
S'CORINNA'
p1476
a(lp1477
S'Yeah'
p1478
aS'so'
p1479
aaa(lp1480
g1476
a(lp1481
S'anyway'
p1482
aaa(lp1483
g1476
a(lp1484
S'that'
p1485
aaa(lp1486
g1476
a(lp1487
S'and'
p1488
aS'then'
p1489
aS'um'
p1490
aaa(lp1491
g1476
a(lp1492
S'Ill'
p1493
aS'never'
p1494
aS'forget'
p1495
aS'the'
p1496
aS'one'
p1497
aS'time'
p1498
aS'Rob'
p1499
aS'and'
p1500
ag49
aS'went'
p1501
aS'down'
p1502
aS'to'
p1503
aS'Chica'
p1504
aaa(lp1505
g1476
a(lp1506
g49
aS'went'
p1507
aS'to'
p1508
aS'visit'
p1509
aS'Rob'
p1510
aS'in'
p1511
aS'Chicago'
p1512
aaa(lp1513
g1476
a(lp1514
S'It'
p1515
aS'was'
p1516
ag11
aS'Sunday'
p1517
aS'afternoon'
p1518
aaa(lp1519
g1476
a(lp1520
S'it'
p1521
aS'was'
p1522
aS'like'
p1523
aaa(lp1524
g1476
a(lp1525
S'probably'
p1526
aS'like'
p1527
aS'three'
p1528
aS'or'
p1529
aS'four'
p1530
aS'in'
p1531
aS'the'
p1532
aS'afternoon'
p1533
aaa(lp1534
g1476
a(lp1535
S'We'
p1536
aS'were'
p1537
aS'like'
p1538
aaa(lp1539
g1476
a(lp1540
S'lets'
p1541
aS'take'
p1542
ag11
aS'drive'
p1543
aS'around'
p1544
aS'the'
p1545
aS'city'
p1546
aaa(lp1547
g1476
a(lp1548
S'You'
p1549
aS'know'
p1550
aaa(lp1551
g1476
a(lp1552
S'Just'
p1553
aS'for'
p1554
ag11
aS'Sunday'
p1555
aS'drive'
p1556
aaa(lp1557
g1476
a(lp1558
S'So'
p1559
aS'we'
p1560
aS'were'
p1561
aS'driving'
p1562
aS'around'
p1563
aS'in'
p1564
aS'the'
p1565
aS'city'
p1566
aS'and'
p1567
aaa(lp1568
g1476
a(lp1569
S'all'
p1570
aS'of'
p1571
ag11
aS'sudden'
p1572
aS'we'
p1573
aS'see'
p1574
aS'the'
p1575
aS'classic'
p1576
aS'hooker'
p1577
aaa(lp1578
g1476
a(lp1579
S'Shes'
p1580
aS'got'
p1581
aaa(lp1582
g1476
a(lp1583
S'the'
p1584
aS'fishnet'
p1585
aS'stockings'
p1586
aS'on'
p1587
aaa(lp1588
g1476
a(lp1589
S'obviously'
p1590
aS'shes'
p1591
aS'like'
p1592
ag11
aS'fivedollar'
p1593
aS'hooker'
p1594
aaa(lp1595
S'PATRICKYeah'
p1596
a(lp1597
aa(lp1598
S'CORINNAtrying'
p1599
a(lp1600
S'to'
p1601
aS'get'
p1602
aS'her'
p1603
aS'f'
p1604
aaa(lp1605
g1599
a(lp1606
S'her'
p1607
aS'afternoon'
p1608
aS'fix'
p1609
aaa(lp1610
g1599
a(lp1611
S'So'
p1612
aS'that'
p1613
aS'she'
p1614
aS'can'
p1615
aS'go'
p1616
aS'get'
p1617
aS'drugs'
p1618
aaa(lp1619
g1599
a(lp1620
S'And'
p1621
aS'shes'
p1622
aS'got'
p1623
aS'her'
p1624
aS'skirt'
p1625
aaa(lp1626
g1599
a(lp1627
S'she'
p1628
aS'had'
p1629
ag11
aS'miniskirt'
p1630
aS'on'
p1631
aaa(lp1632
g1599
a(lp1633
S'She'
p1634
aS'had'
p1635
aS'her'
p1636
aS'sk'
p1637
aS'her'
p1638
aS'hand'
p1639
aS'in'
p1640
aS'her'
p1641
ag1310
aaa(lp1642
g1599
a(lp1643
S'Shes'
p1644
aS'like'
p1645
aS'exposing'
p1646
aS'her'
p1647
aS'bush'
p1648
aaa(lp1649
g1599
a(lp1650
S'and'
p1651
aaa(lp1652
g1599
a(lp1653
S'its'
p1654
aS'like'
p1655
aaa(lp1656
g1599
a(lp1657
S'you'
p1658
aS'know'
p1659
aaa(lp1660
g1599
a(lp1661
S'using'
p1662
aS'her'
p1663
aS'tongue'
p1664
aS'and'
p1665
aS'shit'
p1666
aaa(lp1667
g1599
a(lp1668
S'and'
p1669
aS'shes'
p1670
aS'like'
p1671
aS'leaning'
p1672
aaa(lp1673
g1599
a(lp1674
S'SM'
p1675
aS'shes'
p1676
aS'like'
p1677
aS'come'
p1678
aS'here'
p1679
aS'SM'
p1680
aaa(lp1681
g1599
a(lp1682
S'like'
p1683
aS'this'
p1684
aS'to'
p1685
aS'us'
p1686
aaa(lp1687
g1599
a(lp1688
S'and'
p1689
aS'were'
p1690
aS'like'
p1691
aaa(lp1692
g1599
a(lp1693
S'uh'
p1694
aaa(lp1695
g1599
a(lp1696
S'keep'
p1697
aS'driving'
p1698
aaa(lp1699
g1599
a(lp1700
S'We'
p1701
aS'were'
p1702
aS'like'
p1703
aaa(lp1704
g1599
a(lp1705
S'oh'
p1706
aS'that'
p1707
aS'was'
p1708
aS'just'
p1709
aS'nasty'
p1710
aaa(lp1711
g1599
a(lp1712
S'She'
p1713
aS'just'
p1714
aS'looked'
p1715
aS'nasty'
p1716
aaa(lp1717
S'PATRICKXX'
p1718
a(lp1719
aa(lp1720
g1718
a(lp1721
S'Wow'
p1722
aaa(lp1723
g1718
a(lp1724
S'Well'
p1725
aS'you'
p1726
aS'couldve'
p1727
aS'pulled'
p1728
aS'over'
p1729
aS'and'
p1730
aS'said'
p1731
aS'hello'
p1732
aaa(lp1733
g1718
a(lp1734
S'No'
p1735
aS'but'
p1736
aaa(lp1737
g1718
a(lp1738
S'the'
p1739
aS'only'
p1740
aS'hooker'
p1741
ag49
aS'thought'
p1742
ag49
aS'saw'
p1743
aaa(lp1744
g1718
a(lp1745
S'okay'
p1746
aaa(lp1747
g1718
a(lp1748
g49
aS'think'
p1749
ag49
aS'told'
p1750
aS'you'
p1751
aS'about'
p1752
aS'this'
p1753
aaa(lp1754
g1718
a(lp1755
S'When'
p1756
aS'me'
p1757
aS'and'
p1758
aS'Steve'
p1759
aS'Greg'
p1760
aS'and'
p1761
aS'Tom'
p1762
aS'went'
p1763
aS'to'
p1764
aS'like'
p1765
aS'Chicago'
p1766
aaa(lp1767
g1718
a(lp1768
S'Did'
p1769
ag49
aS'tell'
p1770
aS'you'
p1771
aS'about'
p1772
aS'that'
p1773
ag780
aS'one'
p1774
aS'day'
p1775
ag780
aaa(lp1776
S'CORINNAYWN'
p1777
a(lp1778
S'Oh'
p1779
ag49
aS'love'
p1780
aS'that'
p1781
aS'YWN'
p1782
aaa(lp1783
g1777
a(lp1784
S'Yeah'
p1785
aaa(lp1786
S'PATRICK'
p1787
a(lp1788
S'XXX'
p1789
aaa(lp1790
S'CORINNAI'
p1791
a(lp1792
S'remember'
p1793
aS'that'
p1794
aaa(lp1795
S'PATRICKthat'
p1796
a(lp1797
S'hooker'
p1798
aaa(lp1799
S'CORINNA'
p1800
a(lp1801
S'It'
p1802
aS'was'
p1803
aS'like'
p1804
aaa(lp1805
g1800
a(lp1806
S'VOX'
p1807
aS'oh'
p1808
aS'come'
p1809
aS'on'
p1810
aS'guys'
p1811
aaa(lp1812
g1800
a(lp1813
S'Im'
p1814
aS'not'
p1815
ag11
aS'carjacker'
p1816
aS'VOX'
p1817
aaa(lp1818
S'PATRICK'
p1819
a(lp1820
aa(lp1821
g1819
a(lp1822
S'Well'
p1823
aS'yeah'
p1824
aaa(lp1825
g1819
a(lp1826
S'but'
p1827
aaa(lp1828
g1819
a(lp1829
S'no'
p1830
aS'this'
p1831
aS'hooker'
p1832
aS'was'
p1833
aS'kinda'
p1834
aS'interesting'
p1835
aaa(lp1836
g1819
a(lp1837
S'Um'
p1838
aaa(lp1839
g1819
a(lp1840
S'we'
p1841
aS'were'
p1842
aS'pulling'
p1843
aS'near'
p1844
aS'Crowbar'
p1845
aaa(lp1846
g1819
a(lp1847
S'we'
p1848
aS'were'
p1849
aS'looking'
p1850
aS'for'
p1851
aaa(lp1852
g1819
a(lp1853
S'pulling'
p1854
aS'out'
p1855
aaa(lp1856
g1819
a(lp1857
S'uh'
p1858
aaa(lp1859
g1819
a(lp1860
S'we'
p1861
aS'saw'
p1862
aS'this'
p1863
aS'hooker'
p1864
aaa(lp1865
g1819
a(lp1866
S'Across'
p1867
aS'the'
p1868
aS'street'
p1869
aaa(lp1870
g1819
a(lp1871
S'Kinda'
p1872
aS'waving'
p1873
aS'us'
p1874
aS'over'
p1875
aaa(lp1876
g1819
a(lp1877
S'And'
p1878
aS'Im'
p1879
aS'looking'
p1880
aS'at'
p1881
aS'it'
p1882
aaa(lp1883
g1819
a(lp1884
S'and'
p1885
aS'everyones'
p1886
aS'like'
p1887
aS'saying'
p1888
aaa(lp1889
g1819
a(lp1890
S'yeah'
p1891
aaa(lp1892
g1819
a(lp1893
S'pull'
p1894
aS'over'
p1895
aS'pull'
p1896
aS'over'
p1897
aS'pull'
p1898
aS'over'
p1899
aaa(lp1900
g1819
a(lp1901
S'You'
p1902
aS'know'
p1903
aaa(lp1904
g1819
a(lp1905
S'and'
p1906
aS'Im'
p1907
aS'like'
p1908
aaa(lp1909
g1819
a(lp1910
S'okay'
p1911
aaa(lp1912
g1819
a(lp1913
S'this'
p1914
aS'is'
p1915
aS'kinda'
p1916
aS'cool'
p1917
aaa(lp1918
g1819
a(lp1919
S'uh'
p1920
aaa(lp1921
g1819
a(lp1922
S'so'
p1923
aaa(lp1924
g1819
a(lp1925
S'Im'
p1926
aS'thinking'
p1927
aaa(lp1928
g1819
a(lp1929
S'okay'
p1930
aS'just'
p1931
aS'for'
p1932
ag11
aS'joke'
p1933
aaa(lp1934
g1819
a(lp1935
S'we'
p1936
aS'should'
p1937
aS'pull'
p1938
aS'over'
p1939
aS'or'
p1940
aS'say'
p1941
aS'something'
p1942
aaa(lp1943
g1819
a(lp1944
S'But'
p1945
aS'then'
p1946
aaa(lp1947
g1819
a(lp1948
g49
aS'looked'
p1949
aS'over'
p1950
aS'to'
p1951
aS'the'
p1952
aS'right'
p1953
aaa(lp1954
S'CORINNA'
p1955
a(lp1956
aa(lp1957
S'PATRICKand'
p1958
a(lp1959
S'theres'
p1960
aS'this'
p1961
aS'white'
p1962
aS'van'
p1963
aaa(lp1964
g1958
a(lp1965
S'Clean'
p1966
aS'white'
p1967
aS'van'
p1968
aaa(lp1969
g1958
a(lp1970
S'in'
p1971
aS'warehouse'
p1972
aS'district'
p1973
aaa(lp1974
g1958
a(lp1975
S'You'
p1976
aS'know'
p1977
aaa(lp1978
g1958
a(lp1979
S'sitting'
p1980
aS'there'
p1981
aaa(lp1982
g1958
a(lp1983
S'you'
p1984
aS'know'
p1985
aS'across'
p1986
aS'the'
p1987
aS'street'
p1988
aS'from'
p1989
aS'this'
p1990
aS'hooker'
p1991
aaa(lp1992
g1958
a(lp1993
S'And'
p1994
aS'Im'
p1995
aS'like'
p1996
aaa(lp1997
g1958
a(lp1998
S'no'
p1999
aaa(lp2000
g1958
a(lp2001
S'Im'
p2002
aS'not'
p2003
aS'gonna'
p2004
aS'be'
p2005
aS'on'
p2006
aS'Cops'
p2007
aaa(lp2008
g1958
a(lp2009
S'Cause'
p2010
aS'thats'
p2011
aS'what'
p2012
aS'it'
p2013
aS'was'
p2014
aaa(lp2015
g1958
a(lp2016
S'And'
p2017
aS'then'
p2018
aS'she'
p2019
aS'eventually'
p2020
aS'like'
p2021
aaa(lp2022
g1958
a(lp2023
S'we'
p2024
aS'started'
p2025
aS'drive'
p2026
aS'away'
p2027
aaa(lp2028
g1958
a(lp2029
S'and'
p2030
aS'then'
p2031
aS'she'
p2032
aS'started'
p2033
aS'walking'
p2034
aS'towards'
p2035
aS'the'
p2036
aS'white'
p2037
aS'van'
p2038
aaa(lp2039
g1958
a(lp2040
g780
aS'its'
p2041
ag11
aS'front'
p2042
aS'man'
p2043
ag780
aaa(lp2044
g1958
a(lp2045
S'but'
p2046
aaa(lp2047
g1958
a(lp2048
S'thats'
p2049
aS'the'
p2050
aS'only'
p2051
aS'hooker'
p2052
aS'weve'
p2053
aS'seen'
p2054
aaa(lp2055
S'CORINNA'
p2056
a(lp2057
S'Oh'
p2058
aS'no'
p2059
aS'this'
p2060
aS'one'
p2061
aaa(lp2062
g2056
a(lp2063
S'on'
p2064
aaa(lp2065
g2056
a(lp2066
S'that'
p2067
aS'whole'
p2068
aaa(lp2069
g2056
a(lp2070
S'It'
p2071
aS'was'
p2072
aS'like'
p2073
aS'you'
p2074
aS'know'
p2075
aS'when'
p2076
aS'you'
p2077
aS'go'
p2078
aaa(lp2079
g2056
a(lp2080
S'When'
p2081
aS'you'
p2082
aS'turn'
p2083
aS'off'
p2084
aS'the'
p2085
aS'freeway'
p2086
aaa(lp2087
g2056
a(lp2088
S'by'
p2089
aS'that'
p2090
aS'Blockbuster'
p2091
aaa(lp2092
g2056
a(lp2093
S'and'
p2094
aS'you'
p2095
aS'turn'
p2096
aS'left'
p2097
aaa(lp2098
S'PATRICKMhm'
p2099
a(lp2100
aa(lp2101
S'CORINNA'
p2102
a(lp2103
S'Okay'
p2104
aaa(lp2105
g2102
a(lp2106
S'Its'
p2107
aS'like'
p2108
ag1060
aaa(lp2109
g2102
a(lp2110
S'W'
p2111
aaa(lp2112
g2102
a(lp2113
S'And'
p2114
aS'youre'
p2115
aS'going'
p2116
aS'straight'
p2117
aaa(lp2118
g2102
a(lp2119
S'And'
p2120
aS'you'
p2121
aS'go'
p2122
aS'over'
p2123
aS'that'
p2124
aS'bridge'
p2125
aaa(lp2126
g2102
a(lp2127
S'just'
p2128
aS'before'
p2129
aS'you'
p2130
aS'hit'
p2131
aS'the'
p2132
aS'bridge'
p2133
aaa(lp2134
g2102
a(lp2135
S'and'
p2136
aS'on'
p2137
aS'the'
p2138
aS'bridge'
p2139
aaa(lp2140
g2102
a(lp2141
S'until'
p2142
aS'you'
p2143
aS'get'
p2144
aS'to'
p2145
aS'that'
p2146
aS'street'
p2147
aS'that'
p2148
aS'you'
p2149
aS'turn'
p2150
aS'on'
p2151
aS'Crowbar'
p2152
aaa(lp2153
g2102
a(lp2154
S'its'
p2155
aS'all'
p2156
aS'lined'
p2157
aS'with'
p2158
aS'hookers'
p2159
aaa(lp2160
g2102
a(lp2161
S'in'
p2162
aS'the'
p2163
aS'summertime'
p2164
aaa(lp2165
S'PATRICK'
p2166
a(lp2167
S'T_'
p2168
aaa(lp2169
g2166
a(lp2170
S'So'
p2171
aS'why'
p2172
aS'dont'
p2173
aS'they'
p2174
aS'like'
p2175
aS'bust'
p2176
aS'em'
p2177
aaa(lp2178
S'CORINNA'
p2179
a(lp2180
S'No'
p2181
aS'there'
p2182
aS'are'
p2183
aS'cops'
p2184
aS'there'
p2185
aS'that'
p2186
aS'bust'
p2187
aS'em'
p2188
aaa(lp2189
S'PATRICK'
p2190
a(lp2191
S'They'
p2192
aS'just'
p2193
aS'keep'
p2194
aS'going'
p2195
aS'back'
p2196
aS'though'
p2197
aaa(lp2198
S'CORINNAYeah'
p2199
a(lp2200
aa(lp2201
g2199
a(lp2202
S'They'
p2203
aS'just'
p2204
aS'keep'
p2205
aS'going'
p2206
aS'back'
p2207
aaa(lp2208
S'PATRICK'
p2209
a(lp2210
S'Wow'
p2211
aaa(lp2212
S'CORINNAIts'
p2213
a(lp2214
S'like'
p2215
aaa(lp2216
g2213
a(lp2217
S'now'
p2218
aS'its'
p2219
aS'too'
p2220
aS'cold'
p2221
aS'for'
p2222
aS'them'
p2223
aaa(lp2224
g2213
a(lp2225
S'but'
p2226
aaa(lp2227
g2213
a(lp2228
S'uh'
p2229
aaa(lp2230
g2213
a(lp2231
S'otherwise'
p2232
aS'they'
p2233
aaa(lp2234
g2213
a(lp2235
S'theres'
p2236
aS'like'
p2237
aaa(lp2238
g2213
a(lp2239
S'the'
p2240
aS'whole'
p2241
aS'strip'
p2242
aS'is'
p2243
aS'just'
p2244
aS'the'
p2245
aS'classic'
p2246
aS'type'
p2247
aS'of'
p2248
aS'hookers'
p2249
aaa(lp2250
S'PATRICK'
p2251
a(lp2252
aa(lp2253
g2251
a(lp2254
S'Thank'
p2255
aS'you'
p2256
aS'for'
p2257
aS'the'
p2258
aS'information'
p2259
aaa(lp2260
S'CORINNA'
p2261
a(lp2262
S'Youre'
p2263
aS'welcome'
p2264
aaa(lp2265
S'PATRICK'
p2266
a(lp2267
aa(lp2268
g2266
a(lp2269
S'Ill'
p2270
aS'sure'
p2271
aS'remember'
p2272
aS'that'
p2273
aaa(lp2274
g2266
a(lp2275
S'Next'
p2276
aS'time'
p2277
aS'Im'
p2278
aS'like'
p2279
aaa(lp2280
g2266
a(lp2281
S'feeling'
p2282
aS'kinda'
p2283
aS'bored'
p2284
aaa(lp2285
S'CORINNA'
p2286
a(lp2287
S'And'
p2288
aS'once'
p2289
aaa(lp2290
g2286
a(lp2291
S'it'
p2292
aS'was'
p2293
aS'kind'
p2294
aS'of'
p2295
aS'funny'
p2296
aS'cause'
p2297
aS'uh'
p2298
aaa(lp2299
g2286
a(lp2300
S'it'
p2301
aS'was'
p2302
aS'like'
p2303
aaa(lp2304
g2286
a(lp2305
S'all'
p2306
aS'these'
p2307
aS'cops'
p2308
aS'are'
p2309
aS'like'
p2310
aS'there'
p2311
aaa(lp2312
g2286
a(lp2313
S'You'
p2314
aS'know'
p2315
aS'theyre'
p2316
aS'like'
p2317
aS'driving'
p2318
aaa(lp2319
g2286
a(lp2320
S'they'
p2321
aS'dont'
p2322
aS'do'
p2323
aS'anything'
p2324
aaa(lp2325
S'PATRICK'
p2326
a(lp2327
S'Hm'
p2328
aaa(lp2329
S'CORINNA'
p2330
a(lp2331
S'Some'
p2332
aS'of'
p2333
aS'em'
p2334
aaa(lp2335
g2330
a(lp2336
S'You'
p2337
aS'know'
p2338
aS'they'
p2339
aS'just'
p2340
aS'keep'
p2341
aS'driving'
p2342
aaa(lp2343
g2330
a(lp2344
S'you'
p2345
aS'know'
p2346
aS'or'
p2347
aS'theyll'
p2348
aaa(lp2349
g2330
a(lp2350
S'theyll'
p2351
aS'stop'
p2352
aaa(lp2353
g2330
a(lp2354
S'and'
p2355
aS'theyll'
p2356
aS'like'
p2357
aS'talk'
p2358
aS'to'
p2359
aS'the'
p2360
aS'girls'
p2361
aS'or'
p2362
aS'whatever'
p2363
aS'and'
p2364
aaa(lp2365
S'PATRICK'
p2366
a(lp2367
g780
aS'Really'
p2368
ag780
aS'cool'
p2369
aaa(lp2370
S'CORINNA'
p2371
a(lp2372
S'and'
p2373
aS'shit'
p2374
aaa(lp2375
S'PATRICKget'
p2376
a(lp2377
S'lucky'
p2378
aS'on'
p2379
aS'duty'
p2380
aS'XX'
p2381
aaa(lp2382
S'CORINNA'
p2383
a(lp2384
S'Did'
p2385
aS'you'
p2386
aS'hear'
p2387
aS'about'
p2388
aS'that'
p2389
aS'cop'
p2390
aS'in'
p2391
aS'Milwaukee'
p2392
aaa(lp2393
S'PATRICKOh'
p2394
a(lp2395
S'yeah'
p2396
aaa(lp2397
g2394
a(lp2398
g49
aS'loved'
p2399
aS'that'
p2400
aaa(lp2401
g2394
a(lp2402
g49
aS'thought'
p2403
aS'it'
p2404
aS'was'
p2405
aS'funny'
p2406
aaa(lp2407
g2394
a(lp2408
S'That'
p2409
aS'was'
p2410
aS'hilarious'
p2411
aaa(lp2412
g2394
a(lp2413
S'that'
p2414
aS'shit'
p2415
aS'with'
p2416
aS'that'
p2417
aaa(lp2418
g2394
a(lp2419
S'Ah'
p2420
aS'who'
p2421
aS'cares'
p2422
aaa(lp2423
g2394
a(lp2424
g780
aS'its'
p2425
ag780
aS'not'
p2426
aS'me'
p2427
aaa(lp2428
S'CORINNA'
p2429
a(lp2430
aa(lp2431
S'PATRICKDumbass'
p2432
a(lp2433
aa(lp2434
g2432
a(lp2435
S'So'
p2436
aaa(lp2437
g2432
a(lp2438
S'um'
p2439
aaa(lp2440
g2432
a(lp2441
S'like'
p2442
aS'what'
p2443
aS'are'
p2444
aS'we'
p2445
aS'doing'
p2446
aaa(lp2447
g2432
a(lp2448
S'were'
p2449
aS'gonna'
p2450
aS'grab'
p2451
aS'some'
p2452
aS'movies'
p2453
aS'and'
p2454
aaa(lp2455
S'CORINNA'
p2456
a(lp2457
S'Yeah'
p2458
aaa(lp2459
g2456
a(lp2460
g780
aS'looks'
p2461
aS'like'
p2462
ag780
aaa(lp2463
S'PATRICKdrink'
p2464
a(lp2465
aa(lp2466
g2464
a(lp2467
S'cause'
p2468
aS'its'
p2469
aS'still'
p2470
aS'early'
p2471
aaa(lp2472
g2464
a(lp2473
S'Cause'
p2474
aS'youre'
p2475
aS'too'
p2476
aS'sober'
p2477
aS'for'
p2478
aS'me'
p2479
aaa(lp2480
S'CORINNA'
p2481
a(lp2482
S'Well'
p2483
aS'do'
p2484
aS'you'
p2485
aS'wanna'
p2486
aS'grab'
p2487
aS'me'
p2488
ag11
aS'beer'
p2489
aaa(lp2490
S'PATRICK'
p2491
a(lp2492
aa(lp2493
g2491
a(lp2494
g780
aS'Guess'
p2495
ag780
aaa(lp2496
S'CORINNA'
p2497
a(lp2498
S'Please'
p2499
aaa(lp2500
S'PATRICK'
p2501
a(lp2502
aa(lp2503
S'CORINNA'
p2504
a(lp2505
S'Watch'
p2506
aS'out'
p2507
aS'for'
p2508
aS'the'
p2509
aS'lasagna'
p2510
aaa(lp2511
S'PATRICKX'
p2512
a(lp2513
S'No'
p2514
ag49
aS'like'
p2515
aS'that'
p2516
aS'we'
p2517
aS'were'
p2518
aS'dying'
p2519
ag780
aaa(lp2520
S'CORINNAI'
p2521
a(lp2522
S'have'
p2523
aaa(lp2524
g2521
a(lp2525
g49
aS'have'
p2526
aS'lasagna'
p2527
aaa(lp2528
S'PATRICK'
p2529
a(lp2530
S'Did'
p2531
aS'you'
p2532
aS'eat'
p2533
aS'it'
p2534
aaa(lp2535
g2529
a(lp2536
S'or'
p2537
aS'should'
p2538
aS'we'
p2539
ag780
aaa(lp2540
S'CORINNAOr'
p2541
a(lp2542
S'mostaccioli'
p2543
aaa(lp2544
g2541
a(lp2545
S'Im'
p2546
aS'sorry'
p2547
aaa(lp2548
S'PATRICK'
p2549
a(lp2550
S'Okay'
p2551
aS'cool'
p2552
aaa(lp2553
g2549
a(lp2554
g49
aS'was'
p2555
aS'just'
p2556
aS'about'
p2557
aS'to'
p2558
aS'say'
p2559
aaa(lp2560
g2549
a(lp2561
S'did'
p2562
aS'you'
p2563
aS'want'
p2564
aaa(lp2565
S'CORINNAWe'
p2566
a(lp2567
S'can'
p2568
aS'heat'
p2569
aS'it'
p2570
aS'up'
p2571
aaa(lp2572
S'PATRICK'
p2573
a(lp2574
S'Did'
p2575
aS'you'
p2576
aS'wanna'
p2577
aS'get'
p2578
aS'some'
p2579
aS'munchies'
p2580
aaa(lp2581
g2573
a(lp2582
S'thats'
p2583
aS'what'
p2584
ag49
aS'was'
p2585
aS'gonna'
p2586
aS'say'
p2587
aaa(lp2588
S'CORINNAI'
p2589
a(lp2590
S'have'
p2591
aaa(lp2592
g2589
a(lp2593
g49
aS'have'
p2594
aS'pizza'
p2595
aS'too'
p2596
aaa(lp2597
S'PATRICK'
p2598
a(lp2599
aa(lp2600
g2598
a(lp2601
S'Oh'
p2602
aaa(lp2603
g2598
a(lp2604
S'too'
p2605
aS'bad'
p2606
aS'we'
p2607
aS'dont'
p2608
aS'have'
p2609
ag11
aS'lot'
p2610
aS'of'
p2611
aS'money'
p2612
aaa(lp2613
g2598
a(lp2614
g49
aS'feel'
p2615
aS'like'
p2616
aS'VOX'
p2617
aS'something'
p2618
aS'spicy'
p2619
aaa(lp2620
g2598
a(lp2621
S'like'
p2622
aS'Chinese'
p2623
aS'or'
p2624
aS'VOX'
p2625
aaa(lp2626
S'CORINNA'
p2627
a(lp2628
S'Have'
p2629
aS'Wongs'
p2630
aS'Wok'
p2631
aS'near'
p2632
aS'here'
p2633
aaa(lp2634
S'PATRICK'
p2635
a(lp2636
S'Hey'
p2637
aaa(lp2638
g2635
a(lp2639
S'dont'
p2640
aS'knock'
p2641
aS'Wongs'
p2642
aS'Wok'
p2643
aaa(lp2644
S'CORINNA'
p2645
a(lp2646
S'Oh'
p2647
aS'Im'
p2648
aS'not'
p2649
aaa(lp2650
S'PATRICK'
p2651
a(lp2652
aa(lp2653
g2651
a(lp2654
S'Its'
p2655
ag780
aaa(lp2656
S'CORINNAI'
p2657
a(lp2658
g49
aS'eat'
p2659
aS'Wongs'
p2660
aS'Wok'
p2661
aS'all'
p2662
aS'the'
p2663
aS'time'
p2664
aaa(lp2665
S'PATRICKI'
p2666
a(lp2667
S'dont'
p2668
aS'know'
p2669
aaa(lp2670
g2666
a(lp2671
S'Did'
p2672
aS'you'
p2673
aS'wanna'
p2674
aS'do'
p2675
aS'something'
p2676
aS'like'
p2677
aS'that'
p2678
aaa(lp2679
g2666
a(lp2680
S'Or'
p2681
aS'no'
p2682
aaa(lp2683
S'CORINNAYeah'
p2684
a(lp2685
aa(lp2686
g2684
a(lp2687
S'let'
p2688
aS'me'
p2689
aS'just'
p2690
aS'kinda'
p2691
aS'wake'
p2692
aS'up'
p2693
aS'and'
p2694
aS'liven'
p2695
aS'up'
p2696
ag11
aS'little'
p2697
ag780
aS'here'
p2698
ag780
aaa(lp2699
S'PATRICKAnd'
p2700
a(lp2701
S'put'
p2702
aS'on'
p2703
aS'some'
p2704
aS'clothes'
p2705
aaa(lp2706
g2700
a(lp2707
S'WH'
p2708
aS'WH'
p2709
aaa(lp2710
g2700
a(lp2711
S'Well'
p2712
aS'you'
p2713
aS'dont'
p2714
aS'have'
p2715
aS'to'
p2716
aS'put'
p2717
aS'on'
p2718
aS'any'
p2719
aS'clothes'
p2720
aaa(lp2721
S'CORINNABut'
p2722
a(lp2723
S'its'
p2724
aS'like'
p2725
aaa(lp2726
g2722
a(lp2727
g1060
aS'you'
p2728
aS'know'
p2729
aS'its'
p2730
aS'like'
p2731
ag49
aS'have'
p2732
aS'to'
p2733
aaa(lp2734
g2722
a(lp2735
S'also'
p2736
aS'watch'
p2737
aS'Melrose'
p2738
aS'Place'
p2739
aaa(lp2740
S'PATRICK'
p2741
a(lp2742
S'Oh'
p2743
aS'lord'
p2744
aaa(lp2745
g2741
a(lp2746
g49
aS'avoided'
p2747
aaa(lp2748
g2741
a(lp2749
S'How'
p2750
aS'longs'
p2751
aS'that'
p2752
aS'show'
p2753
aS'been'
p2754
aS'on'
p2755
aaa(lp2756
g2741
a(lp2757
S'like'
p2758
aS'four'
p2759
aS'years'
p2760
aaa(lp2761
S'CORINNA'
p2762
a(lp2763
g2111
aaa(lp2764
g2762
a(lp2765
S'three'
p2766
aS'or'
p2767
aS'four'
p2768
aaa(lp2769
S'PATRICK'
p2770
a(lp2771
S'Ive'
p2772
aS'avoided'
p2773
aS'watching'
p2774
aS'that'
p2775
aS'show'
p2776
aaa(lp2777
g2770
a(lp2778
S'for'
p2779
aS'four'
p2780
aS'years'
p2781
aaa(lp2782
S'CORINNA'
p2783
a(lp2784
S'Well'
p2785
ag49
aS'dont'
p2786
aS'care'
p2787
aaa(lp2788
g2783
a(lp2789
S'Its'
p2790
aS'my'
p2791
aS'favorite'
p2792
aS'show'
p2793
aaa(lp2794
g2783
a(lp2795
S'and'
p2796
aS'tonight'
p2797
aS'Billy'
p2798
aS'finds'
p2799
aS'out'
p2800
aS'about'
p2801
aaa(lp2802
g2783
a(lp2803
S'his'
p2804
aS'little'
p2805
aS'bitch'
p2806
aS'wife'
p2807
aS'lied'
p2808
aS'to'
p2809
aS'him'
p2810
aaa(lp2811
g2783
a(lp2812
S'she'
p2813
aS'uh'
p2814
aaa(lp2815
g2783
a(lp2816
S'told'
p2817
aS'him'
p2818
aS'that'
p2819
aS'she'
p2820
aS'was'
p2821
aS'pregnant'
p2822
aaa(lp2823
S'PATRICK'
p2824
a(lp2825
S'Yeah'
p2826
aaa(lp2827
S'CORINNAAnd'
p2828
a(lp2829
S'she'
p2830
aS'exhibited'
p2831
aS'all'
p2832
aS'the'
p2833
aS'classic'
p2834
aS'signs'
p2835
aS'and'
p2836
aS'shit'
p2837
aaa(lp2838
g2828
a(lp2839
S'And'
p2840
aS'they'
p2841
aS'told'
p2842
aS'everyone'
p2843
aaa(lp2844
g2828
a(lp2845
S'Well'
p2846
aaa(lp2847
g2828
a(lp2848
S'it'
p2849
aS'was'
p2850
aaa(lp2851
g2828
a(lp2852
S'turned'
p2853
aS'out'
p2854
aS'that'
p2855
aS'she'
p2856
aS'just'
p2857
aS'wanted'
p2858
aS'it'
p2859
aS'so'
p2860
aS'bad'
p2861
aaa(lp2862
g2828
a(lp2863
S'That'
p2864
aS'uh'
p2865
aaa(lp2866
g2828
a(lp2867
S'that'
p2868
aS'she'
p2869
aS'had'
p2870
aS'signs'
p2871
aS'that'
p2872
aS'she'
p2873
aS'was'
p2874
aS'pregnant'
p2875
aaa(lp2876
g2828
a(lp2877
S'And'
p2878
aaa(lp2879
g2828
a(lp2880
S'so'
p2881
aaa(lp2882
g2828
a(lp2883
S'now'
p2884
aS'shes'
p2885
aS'like'
p2886
aS'uh'
p2887
aaa(lp2888
g2828
a(lp2889
S'hes'
p2890
aS'gonna'
p2891
aS'divorce'
p2892
aS'her'
p2893
ag49
aS'think'
p2894
aaa(lp2895
g2828
a(lp2896
S'Thank'
p2897
aS'God'
p2898
aaa(lp2899
S'PATRICK'
p2900
a(lp2901
S'Man'
p2902
aaa(lp2903
S'CORINNA'
p2904
a(lp2905
S'Cause'
p2906
aS'he'
p2907
aS'belonged'
p2908
aS'with'
p2909
aS'Billy'
p2910
aaa(lp2911
g2904
a(lp2912
S'or'
p2913
ag49
aS'mean'
p2914
aS'Allison'
p2915
aS'anyway'
p2916
aaa(lp2917
S'PATRICK'
p2918
a(lp2919
S'You'
p2920
aS'didnt'
p2921
aS'tell'
p2922
aS'me'
p2923
aS'that'
p2924
aS'the'
p2925
aS'mostaccioli'
p2926
aS'was'
p2927
aS'like'
p2928
aS'right'
p2929
aS'on'
p2930
aS'top'
p2931
aS'of'
p2932
aS'the'
p2933
aS'beer'
p2934
aaa(lp2935
g2918
a(lp2936
g49
aS'got'
p2937
aS'my'
p2938
aS'hand'
p2939
aS'like'
p2940
aS'five'
p2941
aS'inches'
p2942
aS'deep'
p2943
aS'in'
p2944
aS'the'
p2945
aS'damn'
p2946
aS'thing'
p2947
aaa(lp2948
S'CORINNA'
p2949
a(lp2950
aa(lp2951
g2949
a(lp2952
S'Paper'
p2953
aS'towel'
p2954
aaa(lp2955
S'PATRICK'
p2956
a(lp2957
aa(lp2958
S'CORINNA'
p2959
a(lp2960
aa(lp2961
S'PATRICKNo'
p2962
a(lp2963
aa(lp2964
g2962
a(lp2965
g49
aS'wiped'
p2966
aS'it'
p2967
aS'off'
p2968
aS'on'
p2969
aS'my'
p2970
aS'jacket'
p2971
aaa(lp2972
g2962
a(lp2973
S'So'
p2974
aS'um'
p2975
aaa(lp2976
S'CORINNA'
p2977
a(lp2978
aa(lp2979
S'PATRICKNow'
p2980
a(lp2981
S'my'
p2982
aS'dog'
p2983
aS'is'
p2984
aS'gonna'
p2985
aS'lick'
p2986
aS'my'
p2987
aS'coat'
p2988
aaa(lp2989
S'CORINNA'
p2990
a(lp2991
S'Why'
p2992
aS'is'
p2993
aS'my'
p2994
aS'hand'
p2995
aS'so'
p2996
aS'tender'
p2997
aS'today'
p2998
aaa(lp2999
S'PATRICK'
p3000
a(lp3001
g49
aS'dont'
p3002
aS'know'
p3003
aaa(lp3004
S'CORINNAUsually'
p3005
a(lp3006
g49
aS'can'
p3007
aS'open'
p3008
aS'this'
p3009
aaa(lp3010
g3005
a(lp3011
S'Without'
p3012
aS'help'
p3013
aaa(lp3014
S'PATRICK'
p3015
a(lp3016
S'Mm'
p3017
aaa(lp3018
S'CORINNA'
p3019
a(lp3020
S'Shit'
p3021
aaa(lp3022
S'PATRICK'
p3023
a(lp3024
S'One'
p3025
aS'of'
p3026
aS'these'
p3027
aS'days'
p3028
aS'Ill'
p3029
aS'have'
p3030
ag11
aS'really'
p3031
aS'fun'
p3032
aS'drunken'
p3033
aS'New'
p3034
aS'Year'
p3035
aaa(lp3036
S'CORINNA'
p3037
a(lp3038
aa(lp3039
g3037
a(lp3040
S'Well'
p3041
aaa(lp3042
g3037
a(lp3043
S'maybe'
p3044
aS'next'
p3045
aS'year'
p3046
aaa(lp3047
g3037
a(lp3048
S'Because'
p3049
aS'Ill'
p3050
aS'be'
p3051
aaa(lp3052
g3037
a(lp3053
S'its'
p3054
aS'like'
p3055
aaa(lp3056
g3037
a(lp3057
S'theres'
p3058
aS'no'
p3059
aS'way'
p3060
ag49
aS'work'
p3061
aS'in'
p3062
aS'another'
p3063
aaa(lp3064
g3037
a(lp3065
S'its'
p3066
aS'like'
p3067
aaa(lp3068
g3037
a(lp3069
S'Ill'
p3070
aS'be'
p3071
aS'out'
p3072
aS'of'
p3073
aS'bar'
p3074
aS'business'
p3075
aS'by'
p3076
aS'that'
p3077
aS'time'
p3078
aaa(lp3079
g3037
a(lp3080
S'Cause'
p3081
aS'Im'
p3082
aS'not'
p3083
aS'working'
p3084
aS'another'
p3085
aS'fucking'
p3086
aS'New'
p3087
aS'Years'
p3088
aaa(lp3089
S'PATRICK'
p3090
a(lp3091
g49
aS'wouldnt'
p3092
aS'mind'
p3093
aS'going'
p3094
aS'into'
p3095
aS'Chicago'
p3096
aaa(lp3097
S'CORINNA'
p3098
a(lp3099
S'Yeah'
p3100
aaa(lp3101
g3098
a(lp3102
S'thats'
p3103
aS'what'
p3104
ag49
aS'wanna'
p3105
aS'do'
p3106
aaa(lp3107
S'PATRICK'
p3108
a(lp3109
S'Thats'
p3110
aS'gonna'
p3111
aS'be'
p3112
aS'my'
p3113
ag780
aS'plan'
p3114
aaa(lp3115
g3108
a(lp3116
S'oh'
p3117
aaa(lp3118
g3108
a(lp3119
S'um'
p3120
aaa(lp3121
g3108
a(lp3122
S'so'
p3123
aS'far'
p3124
aS'Ive'
p3125
aS'talked'
p3126
aS'to'
p3127
aS'everyone'
p3128
aaa(lp3129
g3108
a(lp3130
S'everyone'
p3131
aS'said'
p3132
aS'yeah'
p3133
aaa(lp3134
g3108
a(lp3135
S'but'
p3136
aaa(lp3137
g3108
a(lp3138
S'who'
p3139
aS'knows'
p3140
aaa(lp3141
g3108
a(lp3142
S'the'
p3143
aS'money'
p3144
aS'might'
p3145
aS'not'
p3146
aS'be'
p3147
aS'there'
p3148
aaa(lp3149
g3108
a(lp3150
S'Were'
p3151
aS'planning'
p3152
aS'to'
p3153
aS'go'
p3154
aS'to'
p3155
aS'New'
p3156
aS'York'
p3157
aS'in'
p3158
aS'nineteen'
p3159
aS'ninetynine'
p3160
aaa(lp3161
S'CORINNA'
p3162
a(lp3163
S'Cool'
p3164
aaa(lp3165
S'PATRICK'
p3166
a(lp3167
S'Two'
p3168
aS'thousand'
p3169
aS'were'
p3170
aS'gonna'
p3171
aS'be'
p3172
aS'in'
p3173
aS'New'
p3174
aS'York'
p3175
aS'somewhere'
p3176
aaa(lp3177
g3166
a(lp3178
S'Youre'
p3179
aS'welcome'
p3180
aS'to'
p3181
aS'come'
p3182
aS'along'
p3183
aaa(lp3184
S'CORINNAThatd'
p3185
a(lp3186
S'be'
p3187
aS'cool'
p3188
aaa(lp3189
S'PATRICK'
p3190
a(lp3191
g49
aS'thought'
p3192
aS'so'
p3193
aaa(lp3194
g3190
a(lp3195
S'Well'
p3196
aS'hopefully'
p3197
ag49
aS'wont'
p3198
aS'be'
p3199
aS'with'
p3200
aS'Natalie'
p3201
aS'by'
p3202
aS'then'
p3203
aS'so'
p3204
aaa(lp3205
g3190
a(lp3206
g780
aS'Whichd'
p3207
aS'be'
p3208
ag780
aaa(lp3209
S'CORINNAGod'
p3210
a(lp3211
g49
aS'hope'
p3212
aS'not'
p3213
aaa(lp3214
S'PATRICKYeah'
p3215
a(lp3216
aa(lp3217
S'CORINNA'
p3218
a(lp3219
S'Thatll'
p3220
aS'ruin'
p3221
aS'everything'
p3222
aaa(lp3223
S'PATRICK'
p3224
a(lp3225
aa(lp3226
g3224
a(lp3227
S'Yeah'
p3228
aaa(lp3229
g3224
a(lp3230
S'my'
p3231
aS'social'
p3232
aS'life'
p3233
aS'is'
p3234
aS'going'
p3235
aS'downhill'
p3236
aaa(lp3237
g3224
a(lp3238
S'Well'
p3239
aS'my'
p3240
aS'social'
p3241
aS'life'
p3242
aS'is'
p3243
aS'naturally'
p3244
aS'going'
p3245
aS'downhill'
p3246
aaa(lp3247
g3224
a(lp3248
S'because'
p3249
aS'everyone'
p3250
ag49
aS'know'
p3251
aS'is'
p3252
aS'getting'
p3253
aS'old'
p3254
aaa(lp3255
S'ENV'
p3256
a(lp3257
aa(lp3258
S'PATRICKwhich'
p3259
a(lp3260
S'really'
p3261
aS'sucks'
p3262
aaa(lp3263
S'CORINNA'
p3264
a(lp3265
S'Shit'
p3266
aaa(lp3267
g3264
a(lp3268
S'Football'
p3269
aaa(lp3270
g3264
a(lp3271
g49
aS'hate'
p3272
aS'football'
p3273
aaa(lp3274
S'PATRICKYeah'
p3275
a(lp3276
aa(lp3277
g3275
a(lp3278
S'same'
p3279
aS'here'
p3280
aaa(lp3281
g3275
a(lp3282
S'Everyones'
p3283
aS'getting'
p3284
aS'old'
p3285
aaa(lp3286
g3275
a(lp3287
S'no'
p3288
aS'one'
p3289
aS'wants'
p3290
aS'to'
p3291
aS'drink'
p3292
aS'anymore'
p3293
aaa(lp3294
g3275
a(lp3295
S'everyones'
p3296
aS'got'
p3297
aS'girlfriends'
p3298
aS'that'
p3299
aS'they'
p3300
aS'care'
p3301
aS'about'
p3302
aaa(lp3303
S'CORINNA'
p3304
a(lp3305
g49
aS'know'
p3306
aaa(lp3307
g3304
a(lp3308
S'its'
p3309
aS'like'
p3310
ag49
aS'dont'
p3311
aS'even'
p3312
aS'hear'
p3313
aS'from'
p3314
aS'Gregg'
p3315
aS'anymore'
p3316
aaa(lp3317
g3304
a(lp3318
S'whats'
p3319
aS'up'
p3320
aS'with'
p3321
aS'that'
p3322
aaa(lp3323
S'PATRICK'
p3324
a(lp3325
g49
aS'dont'
p3326
aS'know'
p3327
aaa(lp3328
g3324
a(lp3329
S'he'
p3330
aaa(lp3331
g3324
a(lp3332
S'Kathys'
p3333
aS'gonna'
p3334
aS'be'
p3335
aS'gone'
p3336
aS'for'
p3337
aS'two'
p3338
aS'weeks'
p3339
aS'so'
p3340
aaa(lp3341
S'CORINNA'
p3342
a(lp3343
S'So'
p3344
aS'all'
p3345
aS'of'
p3346
ag11
aS'sudden'
p3347
aS'he'
p3348
aS'its'
p3349
aS'like'
p3350
aaa(lp3351
g3342
a(lp3352
S'hes'
p3353
aS'gonna'
p3354
aS'spring'
p3355
aS'back'
p3356
aS'into'
p3357
aS'our'
p3358
aS'lives'
p3359
aaa(lp3360
g3342
a(lp3361
S'hoping'
p3362
aaa(lp3363
S'PATRICKProbably'
p3364
a(lp3365
aa(lp3366
S'CORINNAI'
p3367
a(lp3368
S'dont'
p3369
aS'think'
p3370
aS'so'
p3371
aaa(lp3372
S'PATRICK'
p3373
a(lp3374
S'Well'
p3375
aS'ever'
p3376
aS'since'
p3377
aS'he'
p3378
aS'heard'
p3379
aS'that'
p3380
ag49
aS'was'
p3381
aS'having'
p3382
aS'problems'
p3383
aS'with'
p3384
aS'my'
p3385
aS'band'
p3386
aaa(lp3387
g3373
a(lp3388
S'you'
p3389
aS'know'
p3390
aaa(lp3391
g3373
a(lp3392
S'hes'
p3393
aS'been'
p3394
aS'calling'
p3395
aS'me'
p3396
ag11
aS'lot'
p3397
aS'more'
p3398
aaa(lp3399
g3373
a(lp3400
S'weve'
p3401
aS'been'
p3402
aS'hanging'
p3403
aS'out'
p3404
aS'and'
p3405
aS'stuff'
p3406
aaa(lp3407
S'CORINNA'
p3408
a(lp3409
g49
aS'just'
p3410
aS'really'
p3411
aaa(lp3412
g3408
a(lp3413
S'Thats'
p3414
aS'what'
p3415
aS'pisses'
p3416
aS'me'
p3417
aS'off'
p3418
aaa(lp3419
g3408
a(lp3420
S'Cause'
p3421
aS'like'
p3422
aaa(lp3423
g3408
a(lp3424
S'the'
p3425
aS'same'
p3426
aS'thing'
p3427
aS'is'
p3428
aS'going'
p3429
aS'on'
p3430
aS'with'
p3431
aS'uh'
p3432
aaa(lp3433
g3408
a(lp3434
S'with'
p3435
aS'Marlisse'
p3436
aaa(lp3437
g3408
a(lp3438
S'You'
p3439
aS'know'
p3440
aaa(lp3441
g3408
a(lp3442
S'its'
p3443
aaa(lp3444
g3408
a(lp3445
S'it'
p3446
aS'was'
p3447
aS'like'
p3448
aaa(lp3449
g3408
a(lp3450
S'all'
p3451
aS'of'
p3452
ag11
aS'sudden'
p3453
aaa(lp3454
g3408
a(lp3455
S'well'
p3456
aS'here'
p3457
aS'we'
p3458
aS'did'
p3459
aS'all'
p3460
aS'this'
p3461
aS'stuff'
p3462
aaa(lp3463
g3408
a(lp3464
S'and'
p3465
aaa(lp3466
g3408
a(lp3467
S'for'
p3468
aS'about'
p3469
ag11
aS'month'
p3470
aS'now'
p3471
aS'shes'
p3472
aS'had'
p3473
ag11
aS'boyfriend'
p3474
aaa(lp3475
S'PATRICK'
p3476
a(lp3477
S'Mhm'
p3478
aaa(lp3479
S'CORINNAAnd'
p3480
a(lp3481
aa(lp3482
g3480
a(lp3483
g49
aS'call'
p3484
aS'her'
p3485
aaa(lp3486
g3480
a(lp3487
S'shes'
p3488
aS'never'
p3489
aS'home'
p3490
aaa(lp3491
g3480
a(lp3492
S'Its'
p3493
aS'like'
p3494
aaa(lp3495
g3480
a(lp3496
S'uh'
p3497
aaa(lp3498
g3480
a(lp3499
g49
aS'got'
p3500
ag11
aS'hold'
p3501
aS'of'
p3502
aS'her'
p3503
aS'yesterday'
p3504
aaa(lp3505
g3480
a(lp3506
S'actually'
p3507
aaa(lp3508
g3480
a(lp3509
g49
aS'mean'
p3510
ag49
aS'even'
p3511
aS'tried'
p3512
aS'to'
p3513
aS'call'
p3514
aS'her'
p3515
aS'on'
p3516
aS'New'
p3517
aS'Y'
p3518
aaa(lp3519
g3480
a(lp3520
S'on'
p3521
aS'Christmas'
p3522
aaa(lp3523
g3480
a(lp3524
S'And'
p3525
aS'she'
p3526
aS'wasnt'
p3527
aS'there'
p3528
aaa(lp3529
g3480
a(lp3530
S'and'
p3531
aaa(lp3532
g3480
a(lp3533
S'now'
p3534
aS'its'
p3535
aS'like'
p3536
aaa(lp3537
g3480
a(lp3538
S'Im'
p3539
aS'like'
p3540
aaa(lp3541
g3480
a(lp3542
S'uh'
p3543
aaa(lp3544
g3480
a(lp3545
S'where'
p3546
aS'the'
p3547
aS'hell'
p3548
aS'are'
p3549
aS'you'
p3550
aaa(lp3551
g3480
a(lp3552
S'You'
p3553
aS'know'
p3554
aaa(lp3555
g3480
a(lp3556
S'and'
p3557
aaa(lp3558
g3480
a(lp3559
g49
aS'havent'
p3560
aS'seen'
p3561
aS'you'
p3562
aS'in'
p3563
ag11
aS'while'
p3564
aaa(lp3565
S'PATRICKMhm'
p3566
a(lp3567
aa(lp3568
S'CORINNA'
p3569
a(lp3570
S'VOXHI'
p3571
aS'like'
p3572
ag780
aS'Im'
p3573
aS'sorry'
p3574
aS'HIVOX'
p3575
aaa(lp3576
g3569
a(lp3577
S'and'
p3578
aS'then'
p3579
aS'shes'
p3580
aS'going'
p3581
aS'out'
p3582
aS'of'
p3583
aS'town'
p3584
aaa(lp3585
g3569
a(lp3586
S'Florida'
p3587
aS'for'
p3588
aaa(lp3589
g3569
a(lp3590
S'till'
p3591
aS'like'
p3592
aS'school'
p3593
aS'starts'
p3594
aS'now'
p3595
aaa(lp3596
g3569
a(lp3597
S'on'
p3598
aS'the'
p3599
aS'third'
p3600
aaa(lp3601
S'PATRICK'
p3602
a(lp3603
S'Yeah'
p3604
aaa(lp3605
S'CORINNA'
p3606
a(lp3607
S'So'
p3608
aaa(lp3609
S'PATRICK'
p3610
a(lp3611
S'It'
p3612
aS'all'
p3613
aS'sucks'
p3614
aaa(lp3615
S'CORINNAI'
p3616
a(lp3617
S'remember'
p3618
aS'this'
p3619
aS'story'
p3620
aaa(lp3621
S'PATRICK'
p3622
a(lp3623
aa(lp3624
g3622
a(lp3625
S'It'
p3626
aS'all'
p3627
aS'sucks'
p3628
aaa(lp3629
g3622
a(lp3630
S'because'
p3631
aaa(lp3632
g3622
a(lp3633
S'its'
p3634
aS'one'
p3635
aS'thing'
p3636
aS'like'
p3637
aS'for'
p3638
aS'me'
p3639
aS'and'
p3640
aS'you'
p3641
aS'to'
p3642
aS'hang'
p3643
aS'out'
p3644
aaa(lp3645
g3622
a(lp3646
S'and'
p3647
aS'stuff'
p3648
aS'like'
p3649
aS'that'
p3650
aS'at'
p3651
aS'Victors'
p3652
aaa(lp3653
g3622
a(lp3654
S'and'
p3655
aS'whatever'
p3656
aaa(lp3657
g3622
a(lp3658
S'but'
p3659
aaa(lp3660
g3622
a(lp3661
S'were'
p3662
aS'at'
p3663
aS'two'
p3664
aS'to'
p3665
aS'totally'
p3666
aS'different'
p3667
aS'social'
p3668
aS'levels'
p3669
aaa(lp3670
g3622
a(lp3671
g49
aS'mean'
p3672
aS'its'
p3673
aS'easier'
p3674
aS'for'
p3675
aS'women'
p3676
aS'to'
p3677
aS'walk'
p3678
aS'into'
p3679
ag11
aS'bar'
p3680
aaa(lp3681
g3622
a(lp3682
S'not'
p3683
aS'know'
p3684
aS'anyone'
p3685
aaa(lp3686
g3622
a(lp3687
S'and'
p3688
aS'then'
p3689
aS'come'
p3690
aS'out'
p3691
aS'knowing'
p3692
aS'everybody'
p3693
aaa(lp3694
g3622
a(lp3695
S'Its'
p3696
aS'hard'
p3697
aS'for'
p3698
ag11
aS'guy'
p3699
aS'to'
p3700
aaa(lp3701
g3622
a(lp3702
S'because'
p3703
aS'then'
p3704
aS'he'
p3705
aS'comes'
p3706
aS'off'
p3707
aS'like'
p3708
ag11
aS'big'
p3709
aS'huge'
p3710
aS'pervert'
p3711
aaa(lp3712
g3622
a(lp3713
S'So'
p3714
aaa(lp3715
g3622
a(lp3716
S'Id'
p3717
aS'have'
p3718
aS'to'
p3719
aS'be'
p3720
aS'chasing'
p3721
aS'you'
p3722
aS'around'
p3723
aaa(lp3724
g3622
a(lp3725
S'and'
p3726
aS'cramping'
p3727
aS'your'
p3728
aS'style'
p3729
aaa(lp3730
g3622
a(lp3731
S'its'
p3732
aS'just'
p3733
aS'cool'
p3734
aS'that'
p3735
aaa(lp3736
g3622
a(lp3737
S'all'
p3738
aS'the'
p3739
aS'girls'
p3740
aS'go'
p3741
aS'out'
p3742
aaa(lp3743
g3622
a(lp3744
S'and'
p3745
aS'all'
p3746
aS'guys'
p3747
aS'go'
p3748
aS'out'
p3749
aaa(lp3750
g3622
a(lp3751
S'and'
p3752
aS'if'
p3753
aS'youre'
p3754
aS'two'
p3755
aS'social'
p3756
aS'whatever'
p3757
aaa(lp3758
g3622
a(lp3759
S'at'
p3760
aS'the'
p3761
aS'same'
p3762
aS'bouncing'
p3763
aS'around'
p3764
aS'know'
p3765
aS'everybody'
p3766
aS'level'
p3767
aaa(lp3768
g3622
a(lp3769
S'its'
p3770
aS'cool'
p3771
aaa(lp3772
g3622
a(lp3773
S'You'
p3774
aS'know'
p3775
aaa(lp3776
g3622
a(lp3777
S'cause'
p3778
ag49
aS'dont'
p3779
aS'wanna'
p3780
aS'sit'
p3781
aS'here'
p3782
aS'and'
p3783
aS'drag'
p3784
aS'you'
p3785
aS'down'
p3786
aaa(lp3787
g3622
a(lp3788
S'and'
p3789
aS'stuff'
p3790
aS'and'
p3791
aS'junk'
p3792
aaa(lp3793
S'ENV'
p3794
a(lp3795
aa(lp3796
S'PATRICKCool'
p3797
a(lp3798
aa(lp3799
S'CORINNA'
p3800
a(lp3801
S'You'
p3802
aS'remember'
p3803
aS'this'
p3804
aS'story'
p3805
aaa(lp3806
S'PATRICKNo'
p3807
a(lp3808
aa(lp3809
g3807
a(lp3810
S'What'
p3811
aS'is'
p3812
aS'it'
p3813
aaa(lp3814
S'CORINNAThis'
p3815
a(lp3816
aa(lp3817
g3815
a(lp3818
S'This'
p3819
aS'guy'
p3820
aaa(lp3821
g3815
a(lp3822
S'this'
p3823
aS'is'
p3824
ag11
aS'true'
p3825
aS'story'
p3826
aaa(lp3827
g3815
a(lp3828
S'uh'
p3829
aaa(lp3830
g3815
a(lp3831
S'he'
p3832
aS'took'
p3833
ag11
aaa(lp3834
g3815
a(lp3835
g780
aS'Its'
p3836
ag780
aaa(lp3837
g3815
a(lp3838
S'Well'
p3839
aS'it'
p3840
aS'took'
p3841
aS'em'
p3842
aS'like'
p3843
aS'tw'
p3844
aaa(lp3845
g3815
a(lp3846
S'over'
p3847
aS'twenty'
p3848
aS'years'
p3849
aS'to'
p3850
aS'catch'
p3851
aS'this'
p3852
aS'guy'
p3853
aaa(lp3854
g3815
a(lp3855
S'He'
p3856
aS'went'
p3857
aS'and'
p3858
aS'shot'
p3859
aS'his'
p3860
aS'entire'
p3861
aS'family'
p3862
aaa(lp3863
g3815
a(lp3864
S'And'
p3865
aS'then'
p3866
aS'disappeared'
p3867
aaa(lp3868
S'PATRICK'
p3869
a(lp3870
S'Well'
p3871
aaa(lp3872
g3869
a(lp3873
S'So'
p3874
aS'why'
p3875
aS'did'
p3876
aS'he'
p3877
aS'shoot'
p3878
aS'his'
p3879
aS'family'
p3880
aaa(lp3881
S'CORINNA'
p3882
a(lp3883
S'Cause'
p3884
aS'he'
p3885
aS'was'
p3886
aS'afraid'
p3887
aS'that'
p3888
aS'their'
p3889
aS'morality'
p3890
aS'was'
p3891
aS'going'
p3892
aS'downhill'
p3893
aaa(lp3894
S'PATRICK'
p3895
a(lp3896
S'Well'
p3897
aaa(lp3898
g3895
a(lp3899
S'yeah'
p3900
aaa(lp3901
S'CORINNASo'
p3902
a(lp3903
S'he'
p3904
aS'shot'
p3905
aS'his'
p3906
aS'mother'
p3907
aaa(lp3908
g3902
a(lp3909
S'his'
p3910
aS'kids'
p3911
aS'and'
p3912
aS'his'
p3913
aS'wife'
p3914
aaa(lp3915
g3902
a(lp3916
S'Oh'
p3917
aS'and'
p3918
aS'his'
p3919
aS'daughter'
p3920
aaa(lp3921
S'ENV'
p3922
a(lp3923
aa(lp3924
S'PATRICK'
p3925
a(lp3926
aa(lp3927
g3925
a(lp3928
S'Uhoh'
p3929
aaa(lp3930
g3925
a(lp3931
S'MRC'
p3932
aS'then'
p3933
aS'the'
p3934
aS'milkman'
p3935
aS'comes'
p3936
aS'MRC'
p3937
aaa(lp3938
g3925
a(lp3939
S'VOXWH'
p3940
ag49
aS'can'
p3941
aS'kick'
p3942
aS'em'
p3943
aaa(lp3944
g3925
a(lp3945
g49
aS'can'
p3946
aS'kick'
p3947
aS'em'
p3948
aS'WHVOX'
p3949
aaa(lp3950
S'ENV'
p3951
a(lp3952
aa(lp3953
S'PATRICK'
p3954
a(lp3955
aa(lp3956
g3954
a(lp3957
g49
aaa(lp3958
g3954
a(lp3959
S'MRC'
p3960
ag49
aS'dont'
p3961
aS'think'
p3962
aS'its'
p3963
aS'all'
p3964
aS'sick'
p3965
aS'and'
p3966
aS'twisted'
p3967
aS'MRC'
p3968
aaa(lp3969
S'ENV'
p3970
a(lp3971
aa(lp3972
S'CORINNA'
p3973
a(lp3974
S'You'
p3975
aS'know'
p3976
aS'the'
p3977
aS'last'
p3978
aS'time'
p3979
ag49
ag1310
aS'seen'
p3980
aS'gr'
p3981
aaa(lp3982
g3973
a(lp3983
S'it'
p3984
aS'was'
p3985
aS'like'
p3986
aaa(lp3987
g3973
a(lp3988
S'last'
p3989
aS'night'
p3990
ag49
aS'was'
p3991
ag1604
aaa(lp3992
g3973
a(lp3993
S'watching'
p3994
aaa(lp3995
g3973
a(lp3996
S'You'
p3997
aS'know'
p3998
aS'it'
p3999
aS'was'
p4000
aS'like'
p4001
aaa(lp4002
g3973
a(lp4003
g49
aS'was'
p4004
aS'at'
p4005
aS'Victors'
p4006
aaa(lp4007
g3973
a(lp4008
S'and'
p4009
aS'all'
p4010
aS'of'
p4011
ag11
aS'sudden'
p4012
ag49
aS'saw'
p4013
aS'Showgirls'
p4014
aaa(lp4015
S'PATRICKMhm'
p4016
a(lp4017
aa(lp4018
S'CORINNAWas'
p4019
a(lp4020
S'on'
p4021
aaa(lp4022
g4019
a(lp4023
S'or'
p4024
aaa(lp4025
g4019
a(lp4026
S'on'
p4027
aS'videotape'
p4028
aS'now'
p4029
aaa(lp4030
g4019
a(lp4031
S'And'
p4032
aS'ah'
p4033
aaa(lp4034
S'PATRICK'
p4035
a(lp4036
aa(lp4037
S'ENV'
p4038
a(lp4039
aa(lp4040
S'PATRICK'
p4041
a(lp4042
S'VOX'
p4043
aS'Cool'
p4044
aaa(lp4045
g4041
a(lp4046
S'Shoot'
p4047
aS'her'
p4048
aS'VOX'
p4049
aaa(lp4050
g4041
a(lp4051
S'Dont'
p4052
aS'have'
p4053
aS'her'
p4054
aS'look'
p4055
aS'at'
p4056
aS'you'
p4057
aaa(lp4058
S'ENV'
p4059
a(lp4060
aa(lp4061
S'CORINNAThat'
p4062
a(lp4063
S'was'
p4064
aS'the'
p4065
aS'last'
p4066
aS'time'
p4067
ag49
aS'did'
p4068
aS'anything'
p4069
aS'with'
p4070
aS'Gregg'
p4071
aS'though'
p4072
aaa(lp4073
S'PATRICK'
p4074
a(lp4075
S'That'
p4076
aS'was'
p4077
aS'when'
p4078
aaa(lp4079
S'CORINNA'
p4080
a(lp4081
S'Oh'
p4082
aaa(lp4083
g4080
a(lp4084
S'and'
p4085
aS'you'
p4086
aS'know'
p4087
aS'what'
p4088
aS'also'
p4089
aS'hap'
p4090
aaa(lp4091
g4080
a(lp4092
S'is'
p4093
aS'like'
p4094
aS'they'
p4095
aS'wound'
p4096
aS'up'
p4097
aS'not'
p4098
aaa(lp4099
g4080
a(lp4100
S'their'
p4101
aS'bod'
p4102
aaa(lp4103
g4080
a(lp4104
S'Since'
p4105
aS'he'
p4106
aS'like'
p4107
aS'cancelled'
p4108
aS'all'
p4109
aS'this'
p4110
aS'stuff'
p4111
aaa(lp4112
g4080
a(lp4113
S'and'
p4114
aS'like'
p4115
aS'he'
p4116
aS'pulled'
p4117
aaa(lp4118
g4080
a(lp4119
S'He'
p4120
aS'had'
p4121
aS'said'
p4122
aS'its'
p4123
aS'like'
p4124
aaa(lp4125
g4080
a(lp4126
S'you'
p4127
aS'know'
p4128
aaa(lp4129
g4080
a(lp4130
S'Im'
p4131
aS'pulling'
p4132
aS'my'
p4133
aS'kids'
p4134
aS'out'
p4135
aS'of'
p4136
aS'school'
p4137
aaa(lp4138
g4080
a(lp4139
S'Im'
p4140
aS'taking'
p4141
aS'em'
p4142
aS'out'
p4143
aaa(lp4144
g4080
a(lp4145
S'out'
p4146
aS'for'
p4147
ag11
aS'vacation'
p4148
aS'and'
p4149
aS'shit'
p4150
aaa(lp4151
g4080
a(lp4152
S'And'
p4153
aS'all'
p4154
aS'this'
p4155
aS'and'
p4156
aS'that'
p4157
aaa(lp4158
g4080
a(lp4159
S'so'
p4160
aS'no'
p4161
aS'one'
p4162
aS'suspected'
p4163
aS'that'
p4164
aS'the'
p4165
aS'family'
p4166
aS'was'
p4167
aS'dead'
p4168
aaa(lp4169
S'PATRICK'
p4170
a(lp4171
S'For'
p4172
aS'how'
p4173
aS'long'
p4174
aaa(lp4175
S'CORINNA'
p4176
a(lp4177
S'A'
p4178
aS'month'
p4179
aaa(lp4180
g4176
a(lp4181
S'or'
p4182
aS'two'
p4183
aS'months'
p4184
aaa(lp4185
S'PATRICKWow'
p4186
a(lp4187
aa(lp4188
S'CORINNA'
p4189
a(lp4190
S'So'
p4191
aS'they'
p4192
aS'were'
p4193
aS'like'
p4194
aS'laying'
p4195
aS'there'
p4196
aaa(lp4197
g4189
a(lp4198
S'in'
p4199
aS'the'
p4200
aS'house'
p4201
aaa(lp4202
g4189
a(lp4203
S'and'
p4204
aS'all'
p4205
aS'of'
p4206
ag11
aS'sudden'
p4207
aS'its'
p4208
aS'like'
p4209
aS'started'
p4210
aS'stinking'
p4211
aaa(lp4212
g4189
a(lp4213
S'and'
p4214
aS'someone'
p4215
aS'walked'
p4216
aS'in'
p4217
aS'the'
p4218
aS'house'
p4219
aaa(lp4220
g4189
a(lp4221
S'and'
p4222
aS'found'
p4223
aS'all'
p4224
aS'their'
p4225
aS'decomposed'
p4226
aS'bodies'
p4227
aaa(lp4228
g4189
a(lp4229
S'And'
p4230
aS'he'
p4231
aaa(lp4232
g4189
a(lp4233
S'by'
p4234
aS'this'
p4235
aS'time'
p4236
aS'he'
p4237
aS'had'
p4238
aS'disappeared'
p4239
aaa(lp4240
S'ENV'
p4241
a(lp4242
aa(lp4243
S'CORINNA'
p4244
a(lp4245
aa(lp4246
S'PATRICK'
p4247
a(lp4248
S'Cool'
p4249
aaa(lp4250
S'ENV'
p4251
a(lp4252
aa(lp4253
S'PATRICK'
p4254
a(lp4255
S'Cool'
p4256
aaa(lp4257
S'ENV'
p4258
a(lp4259
aa(lp4260
S'PATRICK'
p4261
a(lp4262
S'Cool'
p4263
aaa(lp4264
g4261
a(lp4265
g780
aS'Works'
p4266
aS'for'
p4267
aS'me'
p4268
ag780
aaa(lp4269
S'ENV'
p4270
a(lp4271
aa(lp4272
S'PATRICK'
p4273
a(lp4274
S'Thats'
p4275
aS'rude'
p4276
aaa(lp4277
S'CORINNASo'
p4278
a(lp4279
aa(lp4280
S'PATRICK'
p4281
a(lp4282
S'After'
p4283
aS'twenty'
p4284
aS'years'
p4285
aaa(lp4286
g4281
a(lp4287
S'they'
p4288
aS'could'
p4289
aS'let'
p4290
aS'the'
p4291
aS'guy'
p4292
aS'go'
p4293
aaa(lp4294
S'CORINNA'
p4295
a(lp4296
aa(lp4297
S'PATRICK'
p4298
a(lp4299
S'You'
p4300
aS'know'
p4301
aaa(lp4302
S'CORINNAHe'
p4303
a(lp4304
S'killed'
p4305
aS'his'
p4306
aS'whole'
p4307
aS'fucking'
p4308
aS'family'
p4309
aS'though'
p4310
aaa(lp4311
S'PATRICK'
p4312
a(lp4313
S'Yeah'
p4314
aS'thats'
p4315
aS'twenty'
p4316
aS'years'
p4317
aS'ago'
p4318
aaa(lp4319
g4312
a(lp4320
S'He'
p4321
aS'didnt'
p4322
aS'do'
p4323
aS'it'
p4324
aS'since'
p4325
aaa(lp4326
g4312
a(lp4327
S'At'
p4328
aS'least'
p4329
aS'theyre'
p4330
aS'now'
p4331
aS'moral'
p4332
aaa(lp4333
S'CORINNA'
p4334
a(lp4335
S'Ts'
p4336
aaa(lp4337
S'PATRICK'
p4338
a(lp4339
aa(lp4340
g4338
a(lp4341
S'What'
p4342
aaa(lp4343
S'CORINNA'
p4344
a(lp4345
g49
aS'cant'
p4346
aS'believe'
p4347
aS'your'
p4348
aS'rationale'
p4349
aaa(lp4350
S'PATRICK'
p4351
a(lp4352
aa(lp4353
g4351
a(lp4354
S'You'
p4355
aS'know'
p4356
ag49
aS'was'
p4357
aS'just'
p4358
aS'joking'
p4359
aaa(lp4360
g4351
a(lp4361
g49
aS'would'
p4362
aS'never'
p4363
aaa(lp4364
g4351
a(lp4365
S'like'
p4366
aS'you'
p4367
aS'know'
p4368
aaa(lp4369
g4351
a(lp4370
S'seriously'
p4371
aaa(lp4372
g4351
a(lp4373
S'think'
p4374
aS'about'
p4375
aS'walking'
p4376
aS'up'
p4377
aS'th'
p4378
aS'behind'
p4379
aS'someone'
p4380
aS'with'
p4381
ag11
aS'gun'
p4382
aaa(lp4383
g4351
a(lp4384
S'And'
p4385
aS'like'
p4386
aS'pulling'
p4387
aS'the'
p4388
aS'trigger'
p4389
aaa(lp4390
g4351
a(lp4391
S'and'
p4392
aS'watching'
p4393
aS'your'
p4394
aS'brains'
p4395
aS'splatter'
p4396
aS'all'
p4397
aS'over'
p4398
aS'the'
p4399
aS'nice'
p4400
aS'white'
p4401
aaa(lp4402
g4351
a(lp4403
g49
aS'mean'
p4404
aaa(lp4405
g4351
a(lp4406
g49
aS'mean'
p4407
aaa(lp4408
g4351
a(lp4409
S'all'
p4410
aS'over'
p4411
aS'the'
p4412
aS'wall'
p4413
aaa(lp4414
S'CORINNA'
p4415
a(lp4416
aa(lp4417
S'PATRICK'
p4418
a(lp4419
S'No'
p4420
aS'Im'
p4421
aS'just'
p4422
aS'joking'
p4423
aaa(lp4424
g4418
a(lp4425
S'Just'
p4426
aS'wanted'
p4427
aS'to'
p4428
aS'scare'
p4429
aS'you'
p4430
ag11
aS'little'
p4431
aS'bit'
p4432
aaa(lp4433
g4418
a(lp4434
S'Did'
p4435
aS'you'
p4436
aS'catch'
p4437
aS'the'
p4438
aS'little'
p4439
aS'reference'
p4440
aS'to'
p4441
aS'white'
p4442
aS'wall'
p4443
aaa(lp4444
g4418
a(lp4445
S'You'
p4446
aS'know'
p4447
aS'whitewalls'
p4448
aaa(lp4449
g4418
a(lp4450
S'see'
p4451
aaa(lp4452
S'CORINNA'
p4453
a(lp4454
aa(lp4455
S'PATRICKget'
p4456
a(lp4457
S'it'
p4458
aaa(lp4459
g4456
a(lp4460
S'no'
p4461
aS'Im'
p4462
aS'just'
p4463
aS'joking'
p4464
aaa(lp4465
g4456
a(lp4466
g49
aS'wish'
p4467
ag49
aS'was'
p4468
aS'at'
p4469
aS'Metropolis'
p4470
aS'yesterday'
p4471
aaa(lp4472
g4456
a(lp4473
g49
aS'think'
p4474
aS'it'
p4475
aS'wouldve'
p4476
aS'been'
p4477
aS'cool'
p4478
aaa(lp4479
g4456
a(lp4480
g49
aS'think'
p4481
aS'Gregg'
p4482
aS'and'
p4483
aS'them'
p4484
aS'would'
p4485
aS'have'
p4486
aS'been'
p4487
ag11
aS'little'
p4488
aS'bit'
p4489
aS'more'
p4490
aS'motivated'
p4491
aaa(lp4492
g4456
a(lp4493
S'Than'
p4494
aS'at'
p4495
aS'The'
p4496
aS'Planet'
p4497
aaa(lp4498
g4456
a(lp4499
S'You'
p4500
aS'know'
p4501
aaa(lp4502
g4456
a(lp4503
S'cause'
p4504
aS'theres'
p4505
aS'no'
p4506
aS'food'
p4507
aS'or'
p4508
aS'nothing'
p4509
aaa(lp4510
S'CORINNA'
p4511
a(lp4512
S'We'
p4513
aS'didnt'
p4514
aS'have'
p4515
aS'food'
p4516
aS'either'
p4517
aaa(lp4518
S'PATRICKWell'
p4519
a(lp4520
S'that'
p4521
aS'sucks'
p4522
aaa(lp4523
g4519
a(lp4524
S'New'
p4525
aS'Years'
p4526
aS'are'
p4527
aS'going'
p4528
aS'downhill'
p4529
aS'now'
p4530
aaa(lp4531
S'CORINNA'
p4532
a(lp4533
S'We'
p4534
aS'used'
p4535
aS'to'
p4536
aaa(lp4537
S'PATRICK'
p4538
a(lp4539
g49
aS'think'
p4540
ag49
aS'liked'
p4541
aS'her'
p4542
aS'before'
p4543
aaa(lp4544
S'CORINNA'
p4545
a(lp4546
S'With'
p4547
aS'all'
p4548
aS'her'
p4549
aS'chubby'
p4550
aS'stuff'
p4551
aaa(lp4552
S'PATRICK'
p4553
a(lp4554
aa(lp4555
g4553
a(lp4556
S'Yeah'
p4557
aaa(lp4558
g4553
a(lp4559
g49
aS'dont'
p4560
aS'like'
p4561
aS'em'
p4562
aS'bone'
p4563
aS'thin'
p4564
aaa(lp4565
S'CORINNAI'
p4566
a(lp4567
S'still'
p4568
aS'dont'
p4569
aaa(lp4570
g4566
a(lp4571
g49
aS'think'
p4572
aS'shes'
p4573
aS'ugly'
p4574
aaa(lp4575
S'PATRICK'
p4576
a(lp4577
S'Yeah'
p4578
aaa(lp4579
g4576
a(lp4580
S'still'
p4581
aS'ugly'
p4582
aaa(lp4583
g4576
a(lp4584
S'yeah'
p4585
ag49
aS'know'
p4586
aaa(lp4587
g4576
a(lp4588
S'But'
p4589
aaa(lp4590
g4576
a(lp4591
g49
aS'like'
p4592
aaa(lp4593
g4576
a(lp4594
g49
aS'dont'
p4595
aS'like'
p4596
aS'like'
p4597
aS'super'
p4598
aS'skinny'
p4599
aS'railly'
p4600
aaa(lp4601
g4576
a(lp4602
S'rib'
p4603
aS'poking'
p4604
aS'me'
p4605
aS'in'
p4606
aS'my'
p4607
aS'like'
p4608
aS'whatever'
p4609
aaa(lp4610
g4576
a(lp4611
S'You'
p4612
aS'know'
p4613
aaa(lp4614
g4576
a(lp4615
g49
aS'like'
p4616
aS'it'
p4617
aS'when'
p4618
aS'you'
p4619
aS'can'
p4620
aS'like'
p4621
aS'poke'
p4622
ag11
aS'female'
p4623
aaa(lp4624
g4576
a(lp4625
S'and'
p4626
aS'she'
p4627
aS'jiggles'
p4628
aS'for'
p4629
aS'like'
p4630
aS'two'
p4631
aS'seconds'
p4632
aS'afterwards'
p4633
aaa(lp4634
S'CORINNA'
p4635
a(lp4636
aa(lp4637
S'PATRICKI'
p4638
a(lp4639
S'like'
p4640
aaa(lp4641
g4638
a(lp4642
g49
aS'like'
p4643
aS'that'
p4644
aaa(lp4645
g4638
a(lp4646
g49
aS'like'
p4647
aS'em'
p4648
aS'healthy'
p4649
aaa(lp4650
g4638
a(lp4651
g49
aS'like'
p4652
aS'when'
p4653
aS'we'
p4654
aS'can'
p4655
aS'sit'
p4656
aS'down'
p4657
aS'to'
p4658
aaa(lp4659
S'CORINNARobust'
p4660
a(lp4661
aa(lp4662
S'PATRICKVOX'
p4663
a(lp4664
S'Yeah'
p4665
aS'VOX'
p4666
aaa(lp4667
S'CORINNAWell'
p4668
a(lp4669
S'then'
p4670
ag49
aS'dont'
p4671
aS'understand'
p4672
aS'why'
p4673
aS'you'
p4674
aS'like'
p4675
aS'Rita'
p4676
aaa(lp4677
S'PATRICK'
p4678
a(lp4679
S'Cause'
p4680
aS'shes'
p4681
aS'got'
p4682
aS'like'
p4683
aS'awesome'
p4684
aS'eyes'
p4685
aaa(lp4686
S'CORINNA'
p4687
a(lp4688
S'Oh'
p4689
aaa(lp4690
g4687
a(lp4691
S'But'
p4692
aS'shes'
p4693
aS'like'
p4694
ag11
ag1310
aaa(lp4695
g4687
a(lp4696
S'Shes'
p4697
aS'like'
p4698
ag11
aS'walking'
p4699
aS'skeleton'
p4700
aaa(lp4701
g4687
a(lp4702
S'Man'
p4703
aaa(lp4704
S'PATRICKI'
p4705
a(lp4706
S'agree'
p4707
aaa(lp4708
g4705
a(lp4709
S'but'
p4710
aS'shes'
p4711
aS'got'
p4712
aS'nice'
p4713
aS'eyes'
p4714
aaa(lp4715
g4705
a(lp4716
g49
aS'mean'
p4717
ag49
ag49
ag49
aS'like'
p4718
aS'her'
p4719
aaa(lp4720
g4705
a(lp4721
S'but'
p4722
aS'um'
p4723
aaa(lp4724
g4705
a(lp4725
g49
aS'mean'
p4726
aS'we'
p4727
aS'never'
p4728
aaa(lp4729
g4705
a(lp4730
g49
aS'could'
p4731
aS'never'
p4732
aS'date'
p4733
aS'her'
p4734
aaa(lp4735
g4705
a(lp4736
S'Cause'
p4737
aS'theres'
p4738
ag11
aS'difference'
p4739
aS'for'
p4740
aS'me'
p4741
aaa(lp4742
g4705
a(lp4743
g49
aS'like'
p4744
ag11
aS'lot'
p4745
aS'of'
p4746
aS'people'
p4747
aaa(lp4748
g4705
a(lp4749
S'Like'
p4750
aS'for'
p4751
aS'instance'
p4752
aaa(lp4753
g4705
a(lp4754
S'um'
p4755
aaa(lp4756
g4705
a(lp4757
S'your'
p4758
aS'friend'
p4759
aaa(lp4760
S'CORINNA'
p4761
a(lp4762
S'Oh'
p4763
aS'Beth'
p4764
aaa(lp4765
S'PATRICKX'
p4766
a(lp4767
aa(lp4768
g4766
a(lp4769
S'Yeah'
p4770
aaa(lp4771
g4766
a(lp4772
g49
aS'could'
p4773
aS'date'
p4774
aS'her'
p4775
aaa(lp4776
g4766
a(lp4777
S'Did'
p4778
aS'you'
p4779
aS'just'
p4780
aS'like'
p4781
aS'accidentally'
p4782
aS'tell'
p4783
aS'her'
p4784
aS'what'
p4785
ag49
aS'told'
p4786
aS'you'
p4787
aS'to'
p4788
aS'tell'
p4789
aS'her'
p4790
aaa(lp4791
S'CORINNAYeah'
p4792
a(lp4793
aa(lp4794
S'PATRICKWhatd'
p4795
a(lp4796
S'she'
p4797
aS'say'
p4798
aaa(lp4799
S'CORINNAWell'
p4800
a(lp4801
S'actually'
p4802
aS'she'
p4803
aS'was'
p4804
aS'interested'
p4805
aS'in'
p4806
aS'that'
p4807
aS'guy'
p4808
aS'at'
p4809
aS'the'
p4810
aS'Country'
p4811
aS'Kitchen'
p4812
aaa(lp4813
S'PATRICK'
p4814
a(lp4815
g49
aS'know'
p4816
aaa(lp4817
g4814
a(lp4818
S'That'
p4819
aS'sucks'
p4820
aaa(lp4821
g4814
a(lp4822
S'My'
p4823
aS'hearts'
p4824
aS'broken'
p4825
aaa(lp4826
S'CORINNA'
p4827
a(lp4828
S'Im'
p4829
aS'sorry'
p4830
aaa(lp4831
S'PATRICK'
p4832
a(lp4833
S'Mm'
p4834
aaa(lp4835
g4832
a(lp4836
S'now'
p4837
aS'do'
p4838
aS'you'
p4839
aS'see'
p4840
aS'why'
p4841
ag49
aS'didnt'
p4842
aS'go'
p4843
aaa(lp4844
S'CORINNA'
p4845
a(lp4846
S'Yeah'
p4847
aaa(lp4848
S'PATRICK'
p4849
a(lp4850
aa(lp4851
S'CORINNABut'
p4852
a(lp4853
S'it'
p4854
aS'turned'
p4855
aS'out'
p4856
aS'he'
p4857
aS'didnt'
p4858
aS'even'
p4859
aS'show'
p4860
aS'up'
p4861
ag49
aS'guess'
p4862
aaa(lp4863
S'PATRICK'
p4864
a(lp4865
S'Ahha'
p4866
aaa(lp4867
S'CORINNAX'
p4868
a(lp4869
S'Where'
p4870
ag780
aaa(lp4871
S'PATRICK'
p4872
a(lp4873
S'F'
p4874
aS'Good'
p4875
ag4874
aaa(lp4876
g4872
a(lp4877
g4874
aaa(lp4878
g4872
a(lp4879
S'T'
p4880
aS'you'
p4881
aS'can'
p4882
aS'tell'
p4883
aS'her'
p4884
ag49
aS'said'
p4885
aS'that'
p4886
aS'too'
p4887
aaa(lp4888
S'CORINNA'
p4889
a(lp4890
aa(lp4891
S'PATRICK'
p4892
a(lp4893
S'And'
p4894
aS'its'
p4895
aS'got'
p4896
aS'me'
p4897
aS'on'
p4898
aS'tape'
p4899
aS'saying'
p4900
aS'it'
p4901
aaa(lp4902
g4892
a(lp4903
S'Damn'
p4904
aS'it'
p4905
aaa(lp4906
S'ENV'
p4907
a(lp4908
aa(lp4909
S'PATRICKX'
p4910
a(lp4911
S'Wow'
p4912
ag780
aaa(lp4913
S'ENV'
p4914
a(lp4915
aa(lp4916
S'PATRICKCool'
p4917
a(lp4918
aa(lp4919
S'ENV'
p4920
a(lp4921
aa(lp4922
S'PATRICKTo'
p4923
a(lp4924
S'just'
p4925
aS'burn'
p4926
aS'his'
p4927
aS'house'
p4928
aaa(lp4929
S'ENV'
p4930
a(lp4931
aa(lp4932
S'PATRICKNo'
p4933
a(lp4934
aa(lp4935
S'ENV'
p4936
a(lp4937
aa(lp4938
S'PATRICK'
p4939
a(lp4940
aa(lp4941
g4939
a(lp4942
S'Eighteen'
p4943
aS'years'
p4944
aaa(lp4945
g4939
a(lp4946
S'MRC'
p4947
aS'let'
p4948
aS'the'
p4949
aS'guy'
p4950
aS'go'
p4951
aS'MRC'
p4952
aaa(lp4953
S'ENV'
p4954
a(lp4955
aa(lp4956
S'PATRICK'
p4957
a(lp4958
S'Ooh'
p4959
aaa(lp4960
S'CORINNAThis'
p4961
a(lp4962
S'was'
p4963
aS'the'
p4964
aS'first'
p4965
aS'time'
p4966
aS'that'
p4967
aS'it'
p4968
aS'was'
p4969
aS'done'
p4970
aaa(lp4971
S'ENV'
p4972
a(lp4973
aa(lp4974
S'PATRICKP'
p4975
a(lp4976
S'Wow'
p4977
aS'P'
p4978
aaa(lp4979
S'ENV'
p4980
a(lp4981
aa(lp4982
S'CORINNARecede'
p4983
a(lp4984
aa(lp4985
S'PATRICK'
p4986
a(lp4987
S'Hm'
p4988
aaa(lp4989
S'ENV'
p4990
a(lp4991
aa(lp4992
S'PATRICKWow'
p4993
a(lp4994
aa(lp4995
S'ENV'
p4996
a(lp4997
aa(lp4998
S'PATRICKT'
p4999
a(lp5000
aa(lp5001
g4999
a(lp5002
S'Hm'
p5003
aaa(lp5004
S'CORINNA'
p5005
a(lp5006
S'Why'
p5007
aS'wouldnt'
p5008
aS'you'
p5009
aS'leave'
p5010
aS'the'
p5011
aS'country'
p5012
aaa(lp5013
g5005
a(lp5014
g49
aS'would'
p5015
aS'leave'
p5016
aS'the'
p5017
aS'country'
p5018
aaa(lp5019
S'PATRICKYeah'
p5020
a(lp5021
aa(lp5022
g5020
a(lp5023
S'Id'
p5024
aS'be'
p5025
aS'pissed'
p5026
aS'though'
p5027
aaa(lp5028
g5020
a(lp5029
g49
aS'mean'
p5030
aaa(lp5031
g5020
a(lp5032
S'twenty'
p5033
aS'years'
p5034
aS'to'
p5035
aS'get'
p5036
aS'away'
p5037
aS'with'
p5038
aS'it'
p5039
aaa(lp5040
g5020
a(lp5041
S'all'
p5042
aS'of'
p5043
ag11
aS'sudden'
p5044
aaa(lp5045
g5020
a(lp5046
S'VOX'
p5047
aS'police'
p5048
aS'VOX'
p5049
aaa(lp5050
S'CORINNA'
p5051
a(lp5052
aa(lp5053
S'PATRICK'
p5054
a(lp5055
aa(lp5056
g5054
a(lp5057
g780
aS'Bad'
p5058
ag780
aaa(lp5059
S'CORINNA'
p5060
a(lp5061
g49
aS'dont'
p5062
aS'know'
p5063
aS'why'
p5064
aaa(lp5065
g5060
a(lp5066
S'Its'
p5067
aaa(lp5068
g5060
a(lp5069
S'like'
p5070
aS'why'
p5071
aS'would'
p5072
aS'you'
p5073
aS'wanna'
p5074
aS'stay'
p5075
aS'there'
p5076
aaa(lp5077
g5060
a(lp5078
S'Uh'
p5079
aS'stay'
p5080
aS'in'
p5081
aS'the'
p5082
aS'United'
p5083
aS'States'
p5084
aaa(lp5085
g5060
a(lp5086
S'If'
p5087
ag49
aS'would'
p5088
aaa(lp5089
g5060
a(lp5090
g49
aS'mean'
p5091
aaa(lp5092
g5060
a(lp5093
S'if'
p5094
aS'you'
p5095
aS'could'
p5096
aS'commit'
p5097
aS'the'
p5098
aS'perfect'
p5099
aS'crime'
p5100
aaa(lp5101
g5060
a(lp5102
S'get'
p5103
aS'away'
p5104
aS'with'
p5105
aS'it'
p5106
aaa(lp5107
g5060
a(lp5108
S'would'
p5109
aS'you'
p5110
aS'stay'
p5111
aS'in'
p5112
aS'the'
p5113
aS'country'
p5114
aaa(lp5115
g5060
a(lp5116
S'or'
p5117
aS'would'
p5118
aS'you'
p5119
aS'leave'
p5120
aaa(lp5121
S'PATRICK'
p5122
a(lp5123
S'Itd'
p5124
aS'be'
p5125
aS'kinda'
p5126
aS'hard'
p5127
aS'to'
p5128
aS'like'
p5129
aaa(lp5130
g5122
a(lp5131
S'go'
p5132
aS'to'
p5133
ag11
aS'like'
p5134
aS'another'
p5135
aS'country'
p5136
aS'you'
p5137
aS'know'
p5138
aaa(lp5139
g5122
a(lp5140
S'Espec'
p5141
aaa(lp5142
S'CORINNAWell'
p5143
a(lp5144
g49
aS'mean'
p5145
aaa(lp5146
g5143
a(lp5147
S'he'
p5148
aS'had'
p5149
aS'like'
p5150
aS'twenty'
p5151
aS'thousand'
p5152
aS'dollars'
p5153
aaa(lp5154
g5143
a(lp5155
S'Okay'
p5156
aaa(lp5157
S'PATRICK'
p5158
a(lp5159
S'In'
p5160
aS'nineteen'
p5161
aS'seventy'
p5162
aaa(lp5163
S'CORINNAIn'
p5164
a(lp5165
S'seventy'
p5166
aaa(lp5167
g5164
a(lp5168
S'Thats'
p5169
aS'like'
p5170
aS'so'
p5171
aaa(lp5172
g5164
a(lp5173
S'so'
p5174
aS'its'
p5175
aS'like'
p5176
aaa(lp5177
g5164
a(lp5178
S'all'
p5179
aS'she'
p5180
aS'had'
p5181
aS'to'
p5182
aS'do'
p5183
aaa(lp5184
g5164
a(lp5185
S'he'
p5186
aS'had'
p5187
aS'to'
p5188
aS'do'
p5189
aaa(lp5190
g5164
a(lp5191
S'was'
p5192
aS'like'
p5193
aS'get'
p5194
aS'on'
p5195
ag11
aS'plane'
p5196
aaa(lp5197
g5164
a(lp5198
S'go'
p5199
aS'to'
p5200
aS'England'
p5201
aaa(lp5202
g5164
a(lp5203
S'Get'
p5204
ag11
aS'work'
p5205
aS'permit'
p5206
aS'and'
p5207
aS'shit'
p5208
aaa(lp5209
S'PATRICK'
p5210
a(lp5211
S'Mm'
p5212
aaa(lp5213
g5210
a(lp5214
g780
aS'Had'
p5215
aS'some'
p5216
ag780
aaa(lp5217
S'CORINNAHe'
p5218
a(lp5219
S'had'
p5220
ag11
aS'thirtyday'
p5221
aS'head'
p5222
aS'start'
p5223
aaa(lp5224
S'PATRICK'
p5225
a(lp5226
S'Yeah'
p5227
aaa(lp5228
g5225
a(lp5229
S'thats'
p5230
aS'true'
p5231
aaa(lp5232
g5225
a(lp5233
S'Plus'
p5234
aS'he'
p5235
aS'was'
p5236
aS'already'
p5237
aS'at'
p5238
aS'airport'
p5239
aaa(lp5240
g5225
a(lp5241
g780
aS'Couldve'
p5242
aS'jet'
p5243
aS'somewhere'
p5244
ag780
aaa(lp5245
S'CORINNAYeah'
p5246
a(lp5247
aa(lp5248
S'ENV'
p5249
a(lp5250
aa(lp5251
S'PATRICK'
p5252
a(lp5253
aa(lp5254
S'ENV'
p5255
a(lp5256
aa(lp5257
S'PATRICKP'
p5258
a(lp5259
S'Woah'
p5260
ag4978
aaa(lp5261
S'ENV'
p5262
a(lp5263
aa(lp5264
S'PATRICKI'
p5265
a(lp5266
S'wouldnt'
p5267
aS'carry'
p5268
aS'my'
p5269
aS'own'
p5270
aS'paperwork'
p5271
aaa(lp5272
S'CORINNA'
p5273
a(lp5274
aa(lp5275
S'PATRICK'
p5276
a(lp5277
S'Forget'
p5278
aS'that'
p5279
aaa(lp5280
g5276
a(lp5281
S'Im'
p5282
aS'guilty'
p5283
aaa(lp5284
g5276
a(lp5285
g49
aS'wouldnt'
p5286
aS'carry'
p5287
aS'it'
p5288
aaa(lp5289
S'ENV'
p5290
a(lp5291
aa(lp5292
S'PATRICKT'
p5293
a(lp5294
aa(lp5295
S'ENV'
p5296
a(lp5297
aa(lp5298
S'CORINNAAh'
p5299
a(lp5300
S'jeez'
p5301
aaa(lp5302
g5299
a(lp5303
g49
aS'it'
p5304
aaa(lp5305
S'PATRICK'
p5306
a(lp5307
S'Insanity'
p5308
aaa(lp5309
S'CORINNA'
p5310
a(lp5311
g49
aS'mean'
p5312
aS'its'
p5313
aS'its'
p5314
aaa(lp5315
g5310
a(lp5316
S'kinda'
p5317
aS'reminds'
p5318
aS'me'
p5319
aS'of'
p5320
aS'that'
p5321
aaa(lp5322
g5310
a(lp5323
S'co'
p5324
aaa(lp5325
g5310
a(lp5326
S'Its'
p5327
aS'like'
p5328
aaa(lp5329
g5310
a(lp5330
g49
aS'Im'
p5331
aS'surprised'
p5332
aS'something'
p5333
aS'like'
p5334
aS'him'
p5335
aS'di'
p5336
aaa(lp5337
g5310
a(lp5338
S'you'
p5339
aS'know'
p5340
aS'like'
p5341
aS'uh'
p5342
aS'Dahmer'
p5343
aaa(lp5344
g5310
a(lp5345
S'And'
p5346
aS'whats'
p5347
aS'his'
p5348
aS'name'
p5349
aaa(lp5350
S'PATRICKMm'
p5351
a(lp5352
aa(lp5353
S'CORINNAthat'
p5354
a(lp5355
S'other'
p5356
aS'guy'
p5357
aaa(lp5358
S'PATRICK'
p5359
a(lp5360
S'Mhm'
p5361
aaa(lp5362
S'CORINNA'
p5363
a(lp5364
S'Did'
p5365
aS'happen'
p5366
aS'to'
p5367
aS'him'
p5368
aaa(lp5369
g5363
a(lp5370
S'Cause'
p5371
aS'theyre'
p5372
aS'like'
p5373
aS'weaker'
p5374
aS'type'
p5375
aS'men'
p5376
aaa(lp5377
g5363
a(lp5378
S'You'
p5379
aS'know'
p5380
aS'in'
p5381
aS'prison'
p5382
aS'theyd'
p5383
aS'never'
p5384
aS'survive'
p5385
aaa(lp5386
S'PATRICK'
p5387
a(lp5388
g49
aS'know'
p5389
aaa(lp5390
g5387
a(lp5391
S'Not'
p5392
aS'if'
p5393
aS'you'
p5394
aS'hurt'
p5395
aS'women'
p5396
aaa(lp5397
g5387
a(lp5398
S'Then'
p5399
aS'you'
p5400
aS'become'
p5401
aS'one'
p5402
aaa(lp5403
S'CORINNA'
p5404
a(lp5405
aa(lp5406
S'PATRICK'
p5407
a(lp5408
S'Even'
p5409
aS'though'
p5410
aS'it'
p5411
aS'wouldnt'
p5412
aS'be'
p5413
aS'bad'
p5414
aaa(lp5415
S'CORINNAWell'
p5416
a(lp5417
aa(lp5418
S'PATRICKto'
p5419
a(lp5420
S'have'
p5421
aS'some'
p5422
aS'guy'
p5423
aS'named'
p5424
aS'Bubba'
p5425
aaa(lp5426
g5419
a(lp5427
S'well'
p5428
aaa(lp5429
g5419
a(lp5430
S'we'
p5431
aS'wont'
p5432
aS'go'
p5433
aS'there'
p5434
aaa(lp5435
S'CORINNA'
p5436
a(lp5437
aa(lp5438
g5436
a(lp5439
S'Well'
p5440
aS'that'
p5441
aS'doesnt'
p5442
aaa(lp5443
g5436
a(lp5444
S'Been'
p5445
aS'reading'
p5446
aS'those'
p5447
aS'books'
p5448
aS'is'
p5449
aS'like'
p5450
aaa(lp5451
g5436
a(lp5452
S'oh'
p5453
aS'my'
p5454
aS'God'
p5455
aaa(lp5456
g5436
a(lp5457
S'its'
p5458
aS'like'
p5459
aS'there'
p5460
aaa(lp5461
g5436
a(lp5462
S'theres'
p5463
aS'this'
p5464
aS'one'
p5465
aaa(lp5466
g5436
a(lp5467
S'like'
p5468
aS'they'
p5469
aS'tell'
p5470
aS'like'
p5471
aS'the'
p5472
aS'different'
p5473
aS'guys'
p5474
aS'point'
p5475
aS'of'
p5476
aS'view'
p5477
aS'sometime'
p5478
aaa(lp5479
g5436
a(lp5480
S'And'
p5481
aS'this'
p5482
aS'one'
p5483
aS'guy'
p5484
aaa(lp5485
S'PATRICK'
p5486
a(lp5487
aa(lp5488
S'CORINNA'
p5489
a(lp5490
S'he'
p5491
aS'uh'
p5492
aaa(lp5493
S'PATRICK'
p5494
a(lp5495
aa(lp5496
S'CORINNA'
p5497
a(lp5498
S'there'
p5499
aaa(lp5500
g5497
a(lp5501
S'Well'
p5502
aS'actually'
p5503
aS'they'
p5504
aS'tell'
p5505
aS'like'
p5506
ag11
aS'couple'
p5507
aS'different'
p5508
aS'guys'
p5509
ag615
aS'point'
p5510
aS'of'
p5511
aS'view'
p5512
aaa(lp5513
g5497
a(lp5514
S'and'
p5515
aS'the'
p5516
aS'guys'
p5517
aS'get'
p5518
aS'raped'
p5519
aS'too'
p5520
aaa(lp5521
S'PATRICK'
p5522
a(lp5523
S'Ah'
p5524
aaa(lp5525
S'CORINNAAnd'
p5526
a(lp5527
S'then'
p5528
aS'like'
p5529
aaa(lp5530
g5526
a(lp5531
S'and'
p5532
aS'then'
p5533
aS'theyll'
p5534
aS'like'
p5535
aS'take'
p5536
aS'these'
p5537
aS'butt'
p5538
aS'plugs'
p5539
aaa(lp5540
g5526
a(lp5541
S'or'
p5542
aS'whatever'
p5543
aS'you'
p5544
aS'wanna'
p5545
aS'call'
p5546
aS'em'
p5547
aaa(lp5548
g5526
a(lp5549
S'and'
p5550
aS'theyll'
p5551
aS'shove'
p5552
aS'it'
p5553
aS'up'
p5554
aS'their'
p5555
aS'anus'
p5556
aaa(lp5557
g5526
a(lp5558
S'and'
p5559
aaa(lp5560
g5526
a(lp5561
S'they'
p5562
aS'have'
p5563
aS'to'
p5564
aS'walk'
p5565
aS'around'
p5566
aS'with'
p5567
aS'it'
p5568
aaa(lp5569
S'PATRICK'
p5570
a(lp5571
S'Ah'
p5572
aaa(lp5573
S'CORINNA'
p5574
a(lp5575
S'And'
p5576
aS'then'
p5577
aS'they'
p5578
aS'have'
p5579
aaa(lp5580
g5574
a(lp5581
S'its'
p5582
aS'like'
p5583
aaa(lp5584
g5574
a(lp5585
S'sometimes'
p5586
aS'theyll'
p5587
aS'like'
p5588
aS'stuff'
p5589
aS'this'
p5590
aS'other'
p5591
aS'gag'
p5592
aS'in'
p5593
aS'their'
p5594
aS'mouth'
p5595
aaa(lp5596
g5574
a(lp5597
S'thats'
p5598
aS'the'
p5599
aS'shape'
p5600
aS'of'
p5601
ag11
aS'penis'
p5602
aaa(lp5603
g5574
a(lp5604
S'And'
p5605
aS'like'
p5606
aS'tie'
p5607
aS'it'
p5608
aS'on'
p5609
aS'their'
p5610
aS'face'
p5611
aaa(lp5612
S'PATRICK'
p5613
a(lp5614
aa(lp5615
S'CORINNA'
p5616
a(lp5617
S'And'
p5618
aS'they'
p5619
aS'have'
p5620
aS'to'
p5621
aS'walk'
p5622
aaa(lp5623
g5616
a(lp5624
S'And'
p5625
aS'its'
p5626
aS'like'
p5627
aaa(lp5628
g5616
a(lp5629
S'this'
p5630
aS'one'
p5631
aS'guy'
p5632
aS'was'
p5633
aS't'
p5634
aS'say'
p5635
aS'it'
p5636
aS'was'
p5637
aS'like'
p5638
aaa(lp5639
g5616
a(lp5640
S'they'
p5641
aS'got'
p5642
aS'sent'
p5643
aS'to'
p5644
aS'the'
p5645
aS'village'
p5646
aaa(lp5647
g5616
a(lp5648
S'Which'
p5649
aS'you'
p5650
aS'dont'
p5651
aS'wanna'
p5652
aS'get'
p5653
aS'sent'
p5654
aS'to'
p5655
aS'the'
p5656
aS'village'
p5657
aaa(lp5658
g5616
a(lp5659
S'But'
p5660
aS'they'
p5661
aS'do'
p5662
aaa(lp5663
g5616
a(lp5664
S'And'
p5665
aaa(lp5666
g5616
a(lp5667
S'they'
p5668
aS'go'
p5669
aaa(lp5670
g5616
a(lp5671
S'it'
p5672
aS'was'
p5673
aS'like'
p5674
aS'this'
p5675
aS'one'
p5676
aS'guy'
p5677
aaa(lp5678
g5616
a(lp5679
S'he'
p5680
aS'gets'
p5681
aS'this'
p5682
aS'master'
p5683
aaa(lp5684
g5616
a(lp5685
S'And'
p5686
aaa(lp5687
g5616
a(lp5688
S'he'
p5689
aS'winds'
p5690
aS'up'
p5691
aaa(lp5692
g5616
a(lp5693
S'the'
p5694
aS'master'
p5695
aS'fi'
p5696
aS'falls'
p5697
aS'in'
p5698
aS'love'
p5699
aS'with'
p5700
aS'him'
p5701
aaa(lp5702
g5616
a(lp5703
S'but'
p5704
aS'he'
p5705
aS'was'
p5706
aS'like'
p5707
aaa(lp5708
g5616
a(lp5709
S'like'
p5710
aS'the'
p5711
aS'day'
p5712
aS'before'
p5713
aaa(lp5714
g5616
a(lp5715
S'he'
p5716
aS'makes'
p5717
aS'him'
p5718
aS'walk'
p5719
aS'around'
p5720
aaa(lp5721
g5616
a(lp5722
S'hes'
p5723
aS'like'
p5724
ag11
ag1011
aS'human'
p5725
aS'pony'
p5726
aaa(lp5727
g5616
a(lp5728
S'And'
p5729
aS'they'
p5730
aS'stick'
p5731
aS'the'
p5732
aaa(lp5733
g5616
a(lp5734
S'the'
p5735
aS'thing'
p5736
aS'up'
p5737
aS'his'
p5738
aS'anus'
p5739
aaa(lp5740
g5616
a(lp5741
S'And'
p5742
aS'its'
p5743
aS'got'
p5744
aS'like'
p5745
ag11
aS'horse'
p5746
aS'h'
p5747
aaa(lp5748
S'PATRICKA'
p5749
a(lp5750
S'tail'
p5751
aaa(lp5752
S'CORINNAA'
p5753
a(lp5754
S'tail'
p5755
aaa(lp5756
S'PATRICKYeah'
p5757
a(lp5758
aa(lp5759
S'CORINNA'
p5760
a(lp5761
S'And'
p5762
aaa(lp5763
g5760
a(lp5764
S'he'
p5765
aS'has'
p5766
aS'to'
p5767
aS'run'
p5768
aS'around'
p5769
aS'the'
p5770
aS'city'
p5771
aaa(lp5772
g5760
a(lp5773
S'hes'
p5774
aS'like'
p5775
aS'pulling'
p5776
ag11
aS'cart'
p5777
aS'with'
p5778
aS'these'
p5779
aS'other'
p5780
aS'people'
p5781
aaa(lp5782
g5760
a(lp5783
S'Pulling'
p5784
aS'this'
p5785
aS'cart'
p5786
aS'around'
p5787
aaa(lp5788
g5760
a(lp5789
S'with'
p5790
aS'this'
p5791
aS'thing'
p5792
aS'up'
p5793
aS'his'
p5794
aS'butt'
p5795
aaa(lp5796
S'PATRICKMhm'
p5797
a(lp5798
aa(lp5799
S'CORINNAAnd'
p5800
a(lp5801
aa(lp5802
g5800
a(lp5803
S'it'
p5804
aS'was'
p5805
aS'like'
p5806
aaa(lp5807
g5800
a(lp5808
S'parade'
p5809
aS'around'
p5810
aS'like'
p5811
aS'that'
p5812
aaa(lp5813
S'PATRICKThats'
p5814
a(lp5815
S'cool'
p5816
aaa(lp5817
g5814
a(lp5818
S'Ah'
p5819
aS'oh'
p5820
aaa(lp5821
S'CORINNAAnd'
p5822
a(lp5823
aa(lp5824
g5822
a(lp5825
S'Im'
p5826
aS'just'
p5827
aS'sort'
p5828
aS'of'
p5829
aS'going'
p5830
aaa(lp5831
g5822
a(lp5832
S'VOX'
p5833
aS'ugh'
p5834
aS'VOX'
p5835
aaa(lp5836
S'PATRICKWhy'
p5837
a(lp5838
aa(lp5839
S'CORINNAVOX'
p5840
a(lp5841
S'Ugh'
p5842
aaa(lp5843
g5840
a(lp5844
S'so'
p5845
aS'nasty'
p5846
aS'VOX'
p5847
aaa(lp5848
S'PATRICKWhy'
p5849
a(lp5850
S'is'
p5851
aS'it'
p5852
aS'nasty'
p5853
aaa(lp5854
S'CORINNA'
p5855
a(lp5856
g49
aS'dont'
p5857
aS'know'
p5858
aaa(lp5859
g5855
a(lp5860
S'Its'
p5861
aaa(lp5862
g5855
a(lp5863
g49
aS'was'
p5864
aS'talking'
p5865
aS'to'
p5866
aS'my'
p5867
aS'one'
p5868
aS'friend'
p5869
aS'to'
p5870
aS'uh'
p5871
aaa(lp5872
g5855
a(lp5873
S'her'
p5874
aS'names'
p5875
aS'Leah'
p5876
aaa(lp5877
g5855
a(lp5878
S'And'
p5879
aaa(lp5880
g5855
a(lp5881
S'shes'
p5882
aS'Iranian'
p5883
aaa(lp5884
g5855
a(lp5885
S'Well'
p5886
aS'actually'
p5887
aS'shes'
p5888
aS'quite'
p5889
aS'cool'
p5890
aaa(lp5891
g5855
a(lp5892
S'shes'
p5893
ag1011
aaa(lp5894
g5855
a(lp5895
S'Shes'
p5896
aS'Muslim'
p5897
aaa(lp5898
g5855
a(lp5899
S'Its'
p5900
aS'like'
p5901
aaa(lp5902
g5855
a(lp5903
S'she'
p5904
aS'uh'
p5905
aaa(lp5906
g5855
a(lp5907
S'shes'
p5908
aS'not'
p5909
ag11
aS'virgin'
p5910
aaa(lp5911
g5855
a(lp5912
S'But'
p5913
aaa(lp5914
g5855
a(lp5915
S'uh'
p5916
aaa(lp5917
S'PATRICK'
p5918
a(lp5919
S'Ooh'
p5920
aaa(lp5921
g5918
a(lp5922
S'she'
p5923
aS'could'
p5924
aS'be'
p5925
aS'stoned'
p5926
aaa(lp5927
S'CORINNA'
p5928
a(lp5929
aa(lp5930
S'PATRICK'
p5931
a(lp5932
S'Go'
p5933
aS'ahead'
p5934
aaa(lp5935
S'CORINNA'
p5936
a(lp5937
S'But'
p5938
aaa(lp5939
g5936
a(lp5940
g49
aS'mean'
p5941
aaa(lp5942
g5936
a(lp5943
S'but'
p5944
aS'shes'
p5945
aS'been'
p5946
aS'raised'
p5947
aS'here'
p5948
aaa(lp5949
S'PATRICK'
p5950
a(lp5951
S'Ah'
p5952
aaa(lp5953
g5950
a(lp5954
S'Really'
p5955
aaa(lp5956
g5950
a(lp5957
S'Is'
p5958
aS'she'
p5959
aS'single'
p5960
aaa(lp5961
S'CORINNA'
p5962
a(lp5963
S'Uh'
p5964
aaa(lp5965
g5962
a(lp5966
S'no'
p5967
aaa(lp5968
g5962
a(lp5969
S'shes'
p5970
aS'uh'
p5971
aaa(lp5972
g5962
a(lp5973
S'ac'
p5974
aS'actually'
p5975
aS'her'
p5976
aS'boyfriends'
p5977
aS'coming'
p5978
aS'in'
p5979
aS'from'
p5980
aS'Morocco'
p5981
aaa(lp5982
S'PATRICK'
p5983
a(lp5984
S'Okay'
p5985
aaa(lp5986
g5983
a(lp5987
S'No'
p5988
aaa(lp5989
g5983
a(lp5990
g49
aS'was'
p5991
aS'just'
p5992
aS'joking'
p5993
aS'anyways'
p5994
aS'but'
p5995
aaa(lp5996
S'CORINNABut'
p5997
a(lp5998
aa(lp5999
S'PATRICKCan'
p6000
a(lp6001
g49
aS'see'
p6002
aS'your'
p6003
aS'Marlboro'
p6004
aS'case'
p6005
aS'for'
p6006
ag11
aS'second'
p6007
aaa(lp6008
g6000
a(lp6009
S'Just'
p6010
aS'keep'
p6011
aS'talking'
p6012
aaa(lp6013
S'CORINNA'
p6014
a(lp6015
S'And'
p6016
aS'uh'
p6017
aaa(lp6018
g6014
a(lp6019
S'anyway'
p6020
aaa(lp6021
g6014
a(lp6022
S'she'
p6023
aS'uh'
p6024
aaa(lp6025
g6014
a(lp6026
S'they'
p6027
aS'ran'
p6028
aS'out'
p6029
aS'of'
p6030
aS'Marlboro'
p6031
aS'Lights'
p6032
aS'at'
p6033
aS'work'
p6034
aaa(lp6035
g6014
a(lp6036
S'so'
p6037
ag49
aS'had'
p6038
aS'to'
p6039
aS'go'
p6040
aS'to'
p6041
aS'Marlboros'
p6042
aaa(lp6043
S'PATRICK'
p6044
a(lp6045
S'And'
p6046
aS'then'
p6047
aS'Ill'
p6048
ag5634
aS'show'
p6049
aS'you'
p6050
aS'something'
p6051
aS'about'
p6052
aS'these'
p6053
aaa(lp6054
S'CORINNA'
p6055
a(lp6056
S'Okay'
p6057
aaa(lp6058
g6055
a(lp6059
S'But'
p6060
aS'uh'
p6061
aaa(lp6062
g6055
a(lp6063
S'anyway'
p6064
aaa(lp6065
g6055
a(lp6066
S'we'
p6067
aS'were'
p6068
aS'talking'
p6069
aaa(lp6070
g6055
a(lp6071
S'cause'
p6072
aS'its'
p6073
aS'like'
p6074
ag49
aS'was'
p6075
aS'telling'
p6076
aS'her'
p6077
aaa(lp6078
g6055
a(lp6079
S'we'
p6080
aS'were'
p6081
aS'talking'
p6082
aS'about'
p6083
aS'this'
p6084
aS'these'
p6085
aaa(lp6086
g6055
a(lp6087
g49
aS'was'
p6088
aS'telling'
p6089
aS'her'
p6090
aS'about'
p6091
aS'the'
p6092
aS'books'
p6093
ag49
aS'was'
p6094
aS'reading'
p6095
aaa(lp6096
g6055
a(lp6097
S'and'
p6098
aS'then'
p6099
aS'we'
p6100
aS'got'
p6101
aS'on'
p6102
aS'the'
p6103
aS'subject'
p6104
aS'of'
p6105
aS'anal'
p6106
aS'sex'
p6107
aaa(lp6108
g6055
a(lp6109
S'and'
p6110
ag49
aS'told'
p6111
aS'her'
p6112
ag49
aS'was'
p6113
aS'like'
p6114
aS'well'
p6115
aaa(lp6116
g6055
a(lp6117
g49
aS'remember'
p6118
aS'when'
p6119
aaa(lp6120
g6055
a(lp6121
S'my'
p6122
aS'exboyfriend'
p6123
aS'tried'
p6124
aS'to'
p6125
aS'get'
p6126
aS'me'
p6127
aS'to'
p6128
aS'try'
p6129
aS'it'
p6130
aaa(lp6131
g6055
a(lp6132
S'But'
p6133
ag49
aS'said'
p6134
aaa(lp6135
g6055
a(lp6136
S'Always'
p6137
aS'told'
p6138
aS'him'
p6139
aS'no'
p6140
aaa(lp6141
S'PATRICK'
p6142
a(lp6143
S'Mhm'
p6144
aaa(lp6145
S'CORINNA'
p6146
a(lp6147
S'MRC'
p6148
aS'Things'
p6149
aS'are'
p6150
aS'meant'
p6151
aS'to'
p6152
aS'come'
p6153
aS'out'
p6154
aaa(lp6155
g6146
a(lp6156
S'not'
p6157
aS'go'
p6158
aS'in'
p6159
aS'MRC'
p6160
aaa(lp6161
g6146
a(lp6162
S'in'
p6163
aS'that'
p6164
aS'hole'
p6165
aaa(lp6166
S'PATRICKHm'
p6167
a(lp6168
aa(lp6169
S'CORINNA'
p6170
a(lp6171
aa(lp6172
g6170
a(lp6173
S'She'
p6174
aS'said'
p6175
aS'that'
p6176
aS'she'
p6177
aS'had'
p6178
aS'done'
p6179
aS'it'
p6180
aaa(lp6181
g6170
a(lp6182
S'Like'
p6183
aS'twice'
p6184
aaa(lp6185
g6170
a(lp6186
S'Shes'
p6187
aS'like'
p6188
aaa(lp6189
g6170
a(lp6190
S'oh'
p6191
aS'my'
p6192
aS'God'
p6193
ag49
aS'feel'
p6194
aS'so'
p6195
aS'dirty'
p6196
aS'whenever'
p6197
ag49
aS'do'
p6198
aS'it'
p6199
aaa(lp6200
g6170
a(lp6201
S'and'
p6202
aS'it'
p6203
aS'hurts'
p6204
aS'so'
p6205
aS'fucking'
p6206
aS'bad'
p6207
aaa(lp6208
S'PATRICKMhm'
p6209
a(lp6210
aa(lp6211
S'CORINNA'
p6212
a(lp6213
S'And'
p6214
aaa(lp6215
g6212
a(lp6216
S'that'
p6217
aS'convinced'
p6218
aaa(lp6219
g6212
a(lp6220
S'Im'
p6221
aS'like'
p6222
aaa(lp6223
g6212
a(lp6224
S'VOX'
p6225
aS'okay'
p6226
aS'VOX'
p6227
aaa(lp6228
g6212
a(lp6229
S'shes'
p6230
aS'like'
p6231
aaa(lp6232
g6212
a(lp6233
S'VOX'
p6234
aS'dont'
p6235
aS'do'
p6236
aS'it'
p6237
aS'ever'
p6238
aS'VOX'
p6239
aaa(lp6240
S'PATRICKMm'
p6241
a(lp6242
aa(lp6243
S'CORINNA'
p6244
a(lp6245
S'Cause'
p6246
aS'the'
p6247
aS'one'
p6248
aS'thing'
p6249
aS'thats'
p6250
aS'like'
p6251
aaa(lp6252
g6244
a(lp6253
S'when'
p6254
ag49
aaa(lp6255
g6244
a(lp6256
S'what'
p6257
aaa(lp6258
g6244
a(lp6259
S'When'
p6260
aS'uh'
p6261
aaa(lp6262
g6244
a(lp6263
S'Lamar'
p6264
aS'kept'
p6265
aS'pressuring'
p6266
aS'me'
p6267
aS'to'
p6268
aS'do'
p6269
aS'it'
p6270
aaa(lp6271
g6244
a(lp6272
S'and'
p6273
aS'she'
p6274
aS'said'
p6275
aS'that'
p6276
aS'like'
p6277
aaa(lp6278
g6244
a(lp6279
S'when'
p6280
aS'you'
p6281
aaa(lp6282
g6244
a(lp6283
S'in'
p6284
aS'the'
p6285
aS'Muslim'
p6286
aaa(lp6287
g6244
a(lp6288
S'its'
p6289
aS'like'
p6290
aS'if'
p6291
aS'you'
p6292
aS'do'
p6293
aS'that'
p6294
aaa(lp6295
g6244
a(lp6296
S'you'
p6297
aS'know'
p6298
aaa(lp6299
g6244
a(lp6300
S'its'
p6301
aS'like'
p6302
aaa(lp6303
g6244
a(lp6304
S'in'
p6305
aS'Islam'
p6306
aS'youre'
p6307
aS'cons'
p6308
aS'not'
p6309
aS'considered'
p6310
aS'Muslim'
p6311
aS'anymore'
p6312
aaa(lp6313
S'PATRICK'
p6314
a(lp6315
S'Oh'
p6316
aaa(lp6317
S'CORINNAIf'
p6318
a(lp6319
S'you'
p6320
aS'have'
p6321
aS'anal'
p6322
aS'sex'
p6323
aaa(lp6324
g6318
a(lp6325
S'But'
p6326
ag49
aS'remember'
p6327
aS'like'
p6328
aS'uh'
p6329
aaa(lp6330
g6318
a(lp6331
S'Lamar'
p6332
aS'telling'
p6333
aS'me'
p6334
aS'once'
p6335
aS'that'
p6336
aaa(lp6337
g6318
a(lp6338
S'he'
p6339
aS'had'
p6340
ag11
aS'girlfriend'
p6341
aaa(lp6342
g6318
a(lp6343
S'Back'
p6344
aS'home'
p6345
aaa(lp6346
g6318
a(lp6347
S'And'
p6348
aS'she'
p6349
aS'didnt'
p6350
aS'wanna'
p6351
aS'lose'
p6352
aS'her'
p6353
aS'virginity'
p6354
aaa(lp6355
g6318
a(lp6356
S'They'
p6357
aS'were'
p6358
aS'gonna'
p6359
aS'have'
p6360
aS'sex'
p6361
aaa(lp6362
g6318
a(lp6363
S'so'
p6364
aS'its'
p6365
aS'like'
p6366
aS'instead'
p6367
aaa(lp6368
g6318
a(lp6369
S'they'
p6370
aS'always'
p6371
aS'had'
p6372
aS'anal'
p6373
aS'sex'
p6374
aaa(lp6375
g6318
a(lp6376
S'Instead'
p6377
aaa(lp6378
S'PATRICKWow'
p6379
a(lp6380
aa(lp6381
S'CORINNA'
p6382
a(lp6383
S'And'
p6384
aaa(lp6385
g6382
a(lp6386
S'Im'
p6387
aS'like'
p6388
aaa(lp6389
g6382
a(lp6390
S'VOX'
p6391
aS'ugh'
p6392
aS'VOX'
p6393
aaa(lp6394
S'PATRICK'
p6395
a(lp6396
aa(lp6397
S'CORINNA'
p6398
a(lp6399
S'VOX'
p6400
aS'Ugh'
p6401
aS'VOX'
p6402
aaa(lp6403
S'PATRICK'
p6404
a(lp6405
S'Wow'
p6406
aaa(lp6407
S'CORINNAOkay'
p6408
a(lp6409
S'what'
p6410
aS'are'
p6411
aS'you'
p6412
aS'gonna'
p6413
aS'show'
p6414
aS'me'
p6415
aaa(lp6416
S'PATRICK'
p6417
a(lp6418
aa(lp6419
g6417
a(lp6420
S'This'
p6421
aS'is'
p6422
aS'interesting'
p6423
aaa(lp6424
g6417
a(lp6425
g49
aS'didnt'
p6426
aS'know'
p6427
aS'this'
p6428
aS'until'
p6429
aS'like'
p6430
aaa(lp6431
g6417
a(lp6432
g49
aS'l'
p6433
ag49
aS'listened'
p6434
aS'to'
p6435
aS'Def'
p6436
aS'Comedy'
p6437
aS'Jam'
p6438
aaa(lp6439
g6417
a(lp6440
S'This'
p6441
aS'guy'
p6442
aS'was'
p6443
aS'telling'
p6444
aS'jokes'
p6445
aS'about'
p6446
aS'Marlboros'
p6447
aaa(lp6448
g6417
a(lp6449
S'And'
p6450
aS'how'
p6451
aS'theyre'
p6452
aS'racist'
p6453
aaa(lp6454
g6417
a(lp6455
S'Did'
p6456
aS'you'
p6457
aS'ever'
p6458
aS'hear'
p6459
aS'this'
p6460
aaa(lp6461
S'CORINNANo'
p6462
a(lp6463
aa(lp6464
S'PATRICK'
p6465
a(lp6466
S'Did'
p6467
aS'you'
p6468
aS'ever'
p6469
aS'notice'
p6470
ag11
aS'Marlboro'
p6471
aaa(lp6472
g6465
a(lp6473
S'the'
p6474
aS'sign'
p6475
aaa(lp6476
g6465
a(lp6477
S'That'
p6478
aaa(lp6479
g6465
a(lp6480
S'this'
p6481
aS'thing'
p6482
aS'right'
p6483
aS'here'
p6484
aaa(lp6485
S'CORINNAThe'
p6486
a(lp6487
S'filt'
p6488
aaa(lp6489
S'PATRICKThe'
p6490
a(lp6491
S'whole'
p6492
aS'red'
p6493
aS'thing'
p6494
aaa(lp6495
g6490
a(lp6496
S'The'
p6497
aS'red'
p6498
aS'thing'
p6499
aaa(lp6500
S'CORINNA'
p6501
a(lp6502
S'Okay'
p6503
aaa(lp6504
S'PATRICK'
p6505
a(lp6506
S'Okay'
p6507
aaa(lp6508
g6505
a(lp6509
S'now'
p6510
ag1060
aaa(lp6511
g6505
a(lp6512
S'Are'
p6513
aS'you'
p6514
aS'watching'
p6515
aS'me'
p6516
aaa(lp6517
S'CORINNA'
p6518
a(lp6519
S'Yeah'
p6520
aaa(lp6521
S'PATRICK'
p6522
a(lp6523
S'Its'
p6524
ag11
aS'kay'
p6525
aaa(lp6526
g6522
a(lp6527
S'Theres'
p6528
ag11
aS'kay'
p6529
aaa(lp6530
g6522
a(lp6531
S'Theres'
p6532
ag11
aS'kay'
p6533
aaa(lp6534
g6522
a(lp6535
S'okay'
p6536
aS'you'
p6537
aS'with'
p6538
aS'me'
p6539
aaa(lp6540
S'CORINNAUnhunh'
p6541
a(lp6542
aa(lp6543
S'PATRICK'
p6544
a(lp6545
S'So'
p6546
aaa(lp6547
g6544
a(lp6548
S'heres'
p6549
ag11
aS'kay'
p6550
aaa(lp6551
g6544
a(lp6552
S'heres'
p6553
ag11
aS'kay'
p6554
aaa(lp6555
g6544
a(lp6556
S'heres'
p6557
ag11
aS'kay'
p6558
aaa(lp6559
g6544
a(lp6560
S'Theres'
p6561
aS'no'
p6562
aS'kay'
p6563
aaa(lp6564
g6544
a(lp6565
S'Three'
p6566
aS'kays'
p6567
aaa(lp6568
S'CORINNA'
p6569
a(lp6570
S'Oh'
p6571
aaa(lp6572
S'PATRICK'
p6573
a(lp6574
S'Get'
p6575
aS'it'
p6576
aaa(lp6577
S'CORINNA'
p6578
a(lp6579
S'Never'
p6580
aS'even'
p6581
aS'thought'
p6582
aS'about'
p6583
aS'it'
p6584
aaa(lp6585
S'PATRICKI'
p6586
a(lp6587
S'never'
p6588
aS'did'
p6589
aS'either'
p6590
aaa(lp6591
g6586
a(lp6592
S'Until'
p6593
ag49
aS'looked'
p6594
aS'at'
p6595
aS'this'
p6596
aS'and'
p6597
aS'Im'
p6598
aS'like'
p6599
aaa(lp6600
g6586
a(lp6601
S'VOX'
p6602
aS'well'
p6603
aS'theres'
p6604
aS'room'
p6605
aS'enough'
p6606
aS'to'
p6607
aS'put'
p6608
aS'another'
p6609
aS'kay'
p6610
aS'here'
p6611
aaa(lp6612
g6586
a(lp6613
S'You'
p6614
aS'know'
p6615
aS'VOX'
p6616
aaa(lp6617
g6586
a(lp6618
S'Somewhere'
p6619
aaa(lp6620
g6586
a(lp6621
S'but'
p6622
aS'theres'
p6623
aS'not'
p6624
aaa(lp6625
g6586
a(lp6626
S'Get'
p6627
aS'it'
p6628
aaa(lp6629
S'CORINNA'
p6630
a(lp6631
S'Yeah'
p6632
aaa(lp6633
S'PATRICKTheres'
p6634
a(lp6635
S'no'
p6636
aS'kay'
p6637
aS'anywhere'
p6638
aS'else'
p6639
aaa(lp6640
g6634
a(lp6641
S'Three'
p6642
aS'kays'
p6643
aaa(lp6644
S'CORINNA'
p6645
a(lp6646
g4880
aaa(lp6647
S'PATRICK'
p6648
a(lp6649
aa(lp6650
g6648
a(lp6651
S'But'
p6652
aS'its'
p6653
aaa(lp6654
S'CORINNA'
p6655
a(lp6656
aa(lp6657
S'PATRICKI'
p6658
a(lp6659
S'just'
p6660
aS'thought'
p6661
aS'youd'
p6662
aS'find'
p6663
aS'it'
p6664
aS'interesting'
p6665
aaa(lp6666
g6658
a(lp6667
S'Anyways'
p6668
aS'cool'
p6669
aaa(lp6670
g6658
a(lp6671
S'Okay'
p6672
aaa(lp6673
g6658
a(lp6674
S'What'
p6675
aS'is'
p6676
aS'this'
p6677
aS'guy'
p6678
aS'doing'
p6679
aS'now'
p6680
aaa.