(lp0
(lp1
S'TAMMY'
p2
a(lp3
S'Well'
p4
aS'um'
p5
aaa(lp6
g2
a(lp7
S'I'
p8
aS'wanted'
p9
aS'to'
p10
aS'say'
p11
aS'Im'
p12
aS'really'
p13
aS'happy'
p14
aS'with'
p15
aS'the'
p16
aS'stuff'
p17
ag8
aS'got'
p18
aS'now'
p19
aaa(lp20
S'BRAD'
p21
a(lp22
S'Good'
p23
aaa(lp24
g21
a(lp25
S'Good'
p26
aaa(lp27
S'TAMMY'
p28
a(lp29
S'X'
p30
aS'And'
p31
aS'Im'
p32
ag30
aS'really'
p33
aS'basically'
p34
aS'Im'
p35
aS'back'
p36
aS'for'
p37
aS'a'
p38
aS'tape'
p39
aS'deck'
p40
aaa(lp41
S'BRAD'
p42
a(lp43
S'Oh'
p44
aS'okay'
p45
aaa(lp46
S'TAMMY'
p47
a(lp48
S'So'
p49
aS'um'
p50
aaa(lp51
g47
a(lp52
S'one'
p53
aS'of'
p54
aS'my'
p55
aS'thoughts'
p56
aS'is'
p57
aaa(lp58
g47
a(lp59
S'that'
p60
aS'um'
p61
aaa(lp62
g47
a(lp63
S'well'
p64
aaa(lp65
g47
a(lp66
g8
aS'want'
p67
ag38
aS'tape'
p68
aS'deck'
p69
aS'thats'
p70
aS'gonna'
p71
aS'sound'
p72
aS'about'
p73
aaa(lp74
g47
a(lp75
S'you'
p76
aS'know'
p77
aaa(lp78
g47
a(lp79
S'as'
p80
aS'good'
p81
aS'as'
p82
aS'it'
p83
aS'can'
p84
aaa(lp85
S'BRADOkay'
p86
a(lp87
aa(lp88
S'TAMMYand'
p89
a(lp90
g8
aS'think'
p91
ag8
aS'want'
p92
ag38
aS'tape'
p93
aS'deck'
p94
aS'with'
p95
aS'two'
p96
aaa(lp97
g89
a(lp98
S'places'
p99
aS'for'
p100
aS'two'
p101
aS'tapes'
p102
aaa(lp103
g89
a(lp104
S'so'
p105
ag8
aS'can'
p106
aS'copy'
p107
aaa(lp108
S'BRAD'
p109
a(lp110
S'Okay'
p111
aaa(lp112
S'TAMMY'
p113
a(lp114
S'but'
p115
aS'Ive'
p116
aS'never'
p117
aS'done'
p118
aS'this'
p119
aS'before'
p120
aaa(lp121
g113
a(lp122
g8
ag30
aS'dont'
p123
ag30
aS'know'
p124
aS'much'
p125
aS'about'
p126
aS'tapes'
p127
aaa(lp128
g113
a(lp129
g8
aS'mean'
p130
ag8
aS'h'
p131
aaa(lp132
S'BRADOkay'
p133
a(lp134
aa(lp135
S'TAMMY'
p136
a(lp137
g8
aS'have'
p138
ag38
aS'boombox'
p139
aaa(lp140
g136
a(lp141
S'you'
p142
aS'know'
p143
aS'ordinary'
p144
aS'sort'
p145
aS'of'
p146
aS'thing'
p147
aaa(lp148
S'BRAD'
p149
a(lp150
S'Sure'
p151
aaa(lp152
S'TAMMY'
p153
a(lp154
S'So'
p155
aaa(lp156
g153
a(lp157
g8
aS'wonder'
p158
aS'if'
p159
aS'you'
p160
aS'would'
p161
aS'suggest'
p162
aS'that'
p163
aS'this'
p164
aS'Luxman'
p165
aS'is'
p166
aS'the'
p167
aaa(lp168
g153
a(lp169
S'is'
p170
aS'w'
p171
aS'one'
p172
aS'of'
p173
aS'the'
p174
aS'things'
p175
aS'youd'
p176
aS'wanted'
p177
aS'me'
p178
aS'to'
p179
aS'think'
p180
aS'about'
p181
aaa(lp182
S'BRAD'
p183
a(lp184
aa(lp185
g183
a(lp186
S'Um'
p187
aaa(lp188
g183
a(lp189
S'the'
p190
aS'uh'
p191
aaa(lp192
g183
a(lp193
S'Would'
p194
aS'you'
p195
aaa(lp196
g183
a(lp197
S'you'
p198
aS'would'
p199
aS'want'
p200
aS'the'
p201
aaa(lp202
g183
a(lp203
S'the'
p204
aS'ability'
p205
aaa(lp206
g183
a(lp207
S'uh'
p208
aaa(lp209
g183
a(lp210
S'of'
p211
aS'the'
p212
aS'double'
p213
aS'cassette'
p214
aS'deck'
p215
aaa(lp216
g183
a(lp217
S'just'
p218
aS'purely'
p219
aS'for'
p220
aS'taping'
p221
aS'from'
p222
aS'one'
p223
aS'tape'
p224
aS'to'
p225
aS'the'
p226
aS'other'
p227
aaa(lp228
g183
a(lp229
S'Thats'
p230
aS'its'
p231
aS'main'
p232
aS'purpose'
p233
aaa(lp234
g183
a(lp235
S'In'
p236
aS'fact'
p237
ag8
aS'wouldnt'
p238
aS'know'
p239
aS'what'
p240
aS'other'
p241
aS'purpose'
p242
aS'it'
p243
aS'_would'
p244
aS'have'
p245
aaa(lp246
S'BRADOh'
p247
a(lp248
S'okay'
p249
aaa(lp250
g247
a(lp251
S'The'
p252
aS'other'
p253
aS'benefit'
p254
aS'is'
p255
aaa(lp256
g247
a(lp257
S'is'
p258
aS'if'
p259
aaa(lp260
g247
a(lp261
S'you'
p262
aS'can'
p263
aS'load'
p264
aS'up'
p265
aS'two'
p266
aS'tapes'
p267
aS'in'
p268
aS'it'
p269
aaa(lp270
g247
a(lp271
S'like'
p272
aaa(lp273
g247
a(lp274
S'lets'
p275
aS'say'
p276
aS'two'
p277
aS'ninety'
p278
aS'minute'
p279
aS'tapes'
p280
aS'of'
p281
aS'music'
p282
aaa(lp283
S'TAMMY'
p284
a(lp285
S'Unhunh'
p286
aaa(lp287
g284
a(lp288
g8
aS'see'
p289
aaa(lp290
S'BRAD'
p291
a(lp292
S'And'
p293
aS'you'
p294
aS'can'
p295
aS'set'
p296
ag38
aS'switch'
p297
aS'on'
p298
aS'it'
p299
aaa(lp300
S'TAMMY'
p301
a(lp302
g8
aS'see'
p303
aaa(lp304
S'BRAD'
p305
a(lp306
S'where'
p307
aS'it'
p308
aS'will'
p309
aS'continually'
p310
aS'play'
p311
aaa(lp312
S'TAMMY'
p313
a(lp314
S'Okay'
p315
aaa(lp316
g313
a(lp317
S'Okay'
p318
aaa(lp319
S'BRAD'
p320
a(lp321
S'all'
p322
aS'four'
p323
aS'sides'
p324
aaa(lp325
g320
a(lp326
S'of'
p327
aS'two'
p328
aS'tapes'
p329
aaa(lp330
S'TAMMYI'
p331
a(lp332
S'see'
p333
aaa(lp334
g331
a(lp335
S'Thats'
p336
aS'probably'
p337
aS'not'
p338
aS'gonna'
p339
aS'happen'
p340
aaa(lp341
S'BRAD'
p342
a(lp343
S'Okay'
p344
aaa(lp345
S'TAMMYNo'
p346
a(lp347
aa(lp348
g346
a(lp349
S'Its'
p350
aS'mainly'
p351
aS'for'
p352
aS'copying'
p353
aaa(lp354
S'BRAD'
p355
a(lp356
S'Okay'
p357
aaa(lp358
S'TAMMY'
p359
a(lp360
S'So'
p361
aaa(lp362
S'BRAD'
p363
a(lp364
S'And'
p365
aS'the'
p366
aS'tapes'
p367
aS'youd'
p368
aS'be'
p369
aS'copying'
p370
aaa(lp371
g363
a(lp372
S'uh'
p373
aaa(lp374
g363
a(lp375
S'are'
p376
aS'they'
p377
aS'gonna'
p378
aS'be'
p379
aS'straight'
p380
aS'music'
p381
aaa(lp382
S'TAMMY'
p383
a(lp384
S'Mmostly'
p385
aaa(lp386
S'BRAD'
p387
a(lp388
S'Okay'
p389
aaa(lp390
S'TAMMYYeah'
p391
a(lp392
aa(lp393
S'BRAD'
p394
a(lp395
S'Okay'
p396
aaa(lp397
S'TAMMYYeah'
p398
a(lp399
aa(lp400
S'BRADSo'
p401
a(lp402
S'you'
p403
aS'are'
p404
aS'gonna'
p405
aS'want'
p406
aaa(lp407
g401
a(lp408
S'or'
p409
aS'desire'
p410
ag38
aS'pretty'
p411
aS'decent'
p412
aaa(lp413
g401
a(lp414
S'uh'
p415
aaa(lp416
g401
a(lp417
S'copy'
p418
aS'of'
p419
aS'your'
p420
aS'original'
p421
aS'tape'
p422
aaa(lp423
S'TAMMY'
p424
a(lp425
S'Mhm'
p426
aaa(lp427
g424
a(lp428
S'right'
p429
aaa(lp430
S'BRAD'
p431
a(lp432
S'Okay'
p433
aaa(lp434
g431
a(lp435
S'Um'
p436
aaa(lp437
S'TAMMY'
p438
a(lp439
S'And'
p440
aS'the'
p441
aS'originals'
p442
aS'will'
p443
aS'be'
p444
aS'from'
p445
aS'music'
p446
aS'lovers'
p447
aaa(lp448
g438
a(lp449
S'you'
p450
aS'know'
p451
aaa(lp452
g438
a(lp453
S'who'
p454
aS'probably'
p455
aS'have'
p456
aaa(lp457
g438
a(lp458
S'pretty'
p459
aS'good'
p460
aS'systems'
p461
aaa(lp462
g438
a(lp463
S'Not'
p464
aaa(lp465
S'BRAD'
p466
a(lp467
S'Okay'
p468
aaa(lp469
S'TAMMYIm'
p470
a(lp471
aa(lp472
g470
a(lp473
S'were'
p474
aS'not'
p475
aS'talking'
p476
aS'stratosphere'
p477
aaa(lp478
S'BRAD'
p479
a(lp480
S'Sure'
p481
aaa(lp482
S'TAMMY'
p483
a(lp484
S'P'
p485
aS'But'
p486
ag485
aaa(lp487
S'BRADSure'
p488
a(lp489
aa(lp490
S'TAMMY'
p491
a(lp492
S'Anyway'
p493
aaa(lp494
S'BRADOkay'
p495
a(lp496
aa(lp497
S'TAMMY'
p498
a(lp499
aa(lp500
S'BRAD'
p501
a(lp502
S'Um'
p503
aaa(lp504
g501
a(lp505
S'because'
p506
aS'on'
p507
ag38
aaa(lp508
g501
a(lp509
S'um'
p510
aaa(lp511
g501
a(lp512
g38
aS'tape'
p513
aS'deck'
p514
aS'like'
p515
aS'that'
p516
aaa(lp517
g501
a(lp518
S'you'
p519
aS'realize'
p520
aaa(lp521
g501
a(lp522
S'that'
p523
aS'youre'
p524
aS'not'
p525
aS'gonna'
p526
aS'be'
p527
aS'able'
p528
aS'to'
p529
aS'get'
p530
ag38
aS'copy'
p531
aS'thats'
p532
aaa(lp533
g501
a(lp534
S'you'
p535
aS'know'
p536
aaa(lp537
S'TAMMY'
p538
a(lp539
S'Mhm'
p540
aaa(lp541
S'BRAD'
p542
a(lp543
S'as'
p544
aS'perfect'
p545
aS'as'
p546
aaa(lp547
S'TAMMY'
p548
a(lp549
S'mhm'
p550
aaa(lp551
S'BRAD'
p552
a(lp553
S'the'
p554
aS'original'
p555
aS'source'
p556
aS'was'
p557
aaa(lp558
S'TAMMY'
p559
a(lp560
S'mhm'
p561
aaa(lp562
S'BRAD'
p563
a(lp564
S'or'
p565
aS'even'
p566
aS'as'
p567
aS'that'
p568
aS'tape'
p569
aS'was'
p570
aaa(lp571
S'TAMMY'
p572
a(lp573
S'mhm'
p574
aaa(lp575
S'BRAD'
p576
a(lp577
S'There'
p578
aS'is'
p579
aS'gonna'
p580
aS'be'
p581
aS'some'
p582
aS'loss'
p583
aaa(lp584
S'TAMMY'
p585
a(lp586
S'mhm'
p587
aaa(lp588
S'BRAD'
p589
a(lp590
S'in'
p591
aS'the'
p592
aS'generation'
p593
aS'of'
p594
aS'making'
p595
aS'that'
p596
aS'copy'
p597
aaa(lp598
S'TAMMY'
p599
a(lp600
S'mhm'
p601
aaa(lp602
S'BRAD'
p603
a(lp604
S'And'
p605
aaa(lp606
S'TAMMYIs'
p607
a(lp608
S'there'
p609
ag38
aS'way'
p610
aS'to'
p611
aS'avoid'
p612
aS'that'
p613
aS'loss'
p614
aaa(lp615
g607
a(lp616
g8
aS'mean'
p617
aS'how'
p618
aaa(lp619
S'BRAD'
p620
a(lp621
aa(lp622
S'TAMMY'
p623
a(lp624
g30
aaa(lp625
S'BRAD'
p626
a(lp627
S'Well'
p628
aaa(lp629
g626
a(lp630
S'youre'
p631
aS'youre'
p632
aS'gonna'
p633
aS'have'
p634
aS'that'
p635
aS'loss'
p636
aaa(lp637
g626
a(lp638
S'just'
p639
aS'because'
p640
aS'of'
p641
aS'all'
p642
aS'the'
p643
aS'different'
p644
aS'things'
p645
aS'involved'
p646
aaa(lp647
S'TAMMYRight'
p648
a(lp649
aa(lp650
S'BRAD'
p651
a(lp652
S'f'
p653
aS'from'
p654
aaa(lp655
g651
a(lp656
S'taking'
p657
aS'it'
p658
aS'from'
p659
aS'one'
p660
aS'tape'
p661
aaa(lp662
g651
a(lp663
S'and'
p664
aS'putting'
p665
aS'it'
p666
aS'on'
p667
aS'the'
p668
aS'other'
p669
aS'tape'
p670
aaa(lp671
S'TAMMY'
p672
a(lp673
S'Right'
p674
aaa(lp675
g672
a(lp676
S'Right'
p677
aaa(lp678
S'BRADTheres'
p679
a(lp680
g38
aS'lot'
p681
aS'of'
p682
aS'things'
p683
aS'in'
p684
aS'the'
p685
aS'signal'
p686
aS'path'
p687
aS'there'
p688
aaa(lp689
S'TAMMY'
p690
a(lp691
S'Right'
p692
aaa(lp693
S'BRAD'
p694
a(lp695
aa(lp696
S'TAMMYSo'
p697
a(lp698
S'youre'
p699
aS'youre'
p700
aS'bound'
p701
aS'to'
p702
aS'lose'
p703
aS'something'
p704
aaa(lp705
S'BRAD'
p706
a(lp707
S'Yeah'
p708
aaa(lp709
g706
a(lp710
S'Its'
p711
aS'not'
p712
aS'huge'
p713
aaa(lp714
S'TAMMY'
p715
a(lp716
S'No'
p717
aS'matter'
p718
aS'what'
p719
aaa(lp720
S'BRADyou'
p721
a(lp722
S'know'
p723
aaa(lp724
g721
a(lp725
S'it'
p726
aS'may'
p727
aS'be'
p728
aS'ten'
p729
aS'percent'
p730
aaa(lp731
S'TAMMYOkay'
p732
a(lp733
aa(lp734
S'BRADor'
p735
a(lp736
aa(lp737
g735
a(lp738
S'five'
p739
aS'percent'
p740
aaa(lp741
S'TAMMYRight'
p742
a(lp743
aa(lp744
S'BRADor'
p745
a(lp746
S'something'
p747
aS'like'
p748
aS'that'
p749
aaa(lp750
S'TAMMY'
p751
a(lp752
S'Right'
p753
aaa(lp754
g751
a(lp755
S'Right'
p756
aaa(lp757
S'BRAD'
p758
a(lp759
S'Uh'
p760
aS'which'
p761
aS'is'
p762
ag38
aS'small'
p763
aS'amount'
p764
aaa(lp765
g758
a(lp766
S'and'
p767
aaa(lp768
g758
a(lp769
S'the'
p770
aS'music'
p771
aaa(lp772
g758
a(lp773
S'bring'
p774
aS'across'
p775
aaa(lp776
S'TAMMY'
p777
a(lp778
S'Mhm'
p779
aaa(lp780
g777
a(lp781
S'mhm'
p782
aaa(lp783
g777
a(lp784
S'mhm'
p785
aaa(lp786
g777
a(lp787
S'okay'
p788
aaa(lp789
S'BRADSo'
p790
a(lp791
aa(lp792
S'TAMMYOkay'
p793
a(lp794
aa(lp795
S'BRADI'
p796
a(lp797
S'dont'
p798
aS'see'
p799
ag38
aS'problem'
p800
aS'in'
p801
aS'that'
p802
aaa(lp803
g796
a(lp804
S'Um'
p805
aaa(lp806
g796
a(lp807
S'the'
p808
aS'other'
p809
aS'thing'
p810
ag8
aS'realize'
p811
aS'is'
p812
aaa(lp813
g796
a(lp814
S'uh'
p815
aaa(lp816
g796
a(lp817
S'think'
p818
aS'about'
p819
aS'how'
p820
aS'much'
p821
aS'of'
p822
aS'the'
p823
aS'time'
p824
aS'youre'
p825
aS'gonna'
p826
aS'be'
p827
aS'doing'
p828
aS'that'
p829
aaa(lp830
S'TAMMY'
p831
a(lp832
S'Mhm'
p833
aaa(lp834
S'BRAD'
p835
a(lp836
S'Because'
p837
aS'of'
p838
aaa(lp839
g835
a(lp840
S'You'
p841
aS'are'
p842
aS'paying'
p843
ag38
aS'decent'
p844
aS'premium'
p845
aaa(lp846
g835
a(lp847
S'to'
p848
aS'have'
p849
aS'that'
p850
aS'convenience'
p851
aaa(lp852
S'TAMMY'
p853
a(lp854
S'mhm'
p855
aaa(lp856
g853
a(lp857
S'mhm'
p858
aaa(lp859
g853
a(lp860
S'mhm'
p861
aaa(lp862
g853
a(lp863
S'so'
p864
aS'what'
p865
aS'kind'
p866
aS'of'
p867
aS'price'
p868
aS'difference'
p869
aS'are'
p870
aS'we'
p871
aS'talking'
p872
aS'about'
p873
aaa(lp874
g853
a(lp875
S'Suppose'
p876
ag8
aS'just'
p877
aS'get'
p878
aS'one'
p879
aS'tape'
p880
aaa(lp881
S'BRAD'
p882
a(lp883
S'Oh'
p884
aaa(lp885
g882
a(lp886
S'okay'
p887
aaa(lp888
S'TAMMY'
p889
a(lp890
S'And'
p891
aS'let'
p892
aS'my'
p893
aS'friends'
p894
aS'copy'
p895
aS'tapes'
p896
aS'for'
p897
aS'me'
p898
aS'and'
p899
aaa(lp900
S'BRAD'
p901
a(lp902
S'Okay'
p903
aaa(lp904
S'TAMMY'
p905
a(lp906
S'yeah'
p907
aaa(lp908
S'BRADum'
p909
a(lp910
aa(lp911
S'TAMMYX'
p912
a(lp913
S'Right'
p914
ag30
aaa(lp915
S'BRAD'
p916
a(lp917
S'like'
p918
aS'lets'
p919
aS'say'
p920
aS'there'
p921
aS'would'
p922
aS'be'
p923
aS'about'
p924
aaa(lp925
S'TAMMY'
p926
a(lp927
aa(lp928
S'BRAD'
p929
a(lp930
S'um'
p931
aaa(lp932
g929
a(lp933
S'couple'
p934
aS'different'
p935
aS'steps'
p936
aaa(lp937
g929
a(lp938
S'Okay'
p939
aaa(lp940
S'TAMMYOkay'
p941
a(lp942
aa(lp943
S'BRADone'
p944
a(lp945
S'would'
p946
aS'be'
p947
aaa(lp948
g944
a(lp949
g38
aS'single'
p950
aS'cassette'
p951
aS'deck'
p952
aaa(lp953
S'TAMMY'
p954
a(lp955
aa(lp956
S'BRAD'
p957
a(lp958
S'um'
p959
aaa(lp960
g957
a(lp961
S'that'
p962
aS'would'
p963
aaa(lp964
g957
a(lp965
S'uh'
p966
aaa(lp967
g957
a(lp968
S'play'
p969
aS'the'
p970
aS'tape'
p971
aaa(lp972
g957
a(lp973
S'you'
p974
aS'know'
p975
aaa(lp976
g957
a(lp977
S'and'
p978
aS'after'
p979
aS'side'
p980
aS'As'
p981
aS'done'
p982
aaa(lp983
g957
a(lp984
S'then'
p985
aS'you'
p986
aS'have'
p987
aS'to'
p988
aS'take'
p989
aS'the'
p990
aS'tape'
p991
aS'out'
p992
aS'and'
p993
aS'flip'
p994
aS'it'
p995
aS'over'
p996
aaa(lp997
g957
a(lp998
S'and'
p999
aS'play'
p1000
aS'side'
p1001
aS'B'
p1002
aaa(lp1003
S'TAMMY'
p1004
a(lp1005
S'Okay'
p1006
aaa(lp1007
g1004
a(lp1008
S'Okay'
p1009
aaa(lp1010
S'BRAD'
p1011
a(lp1012
S'Okay'
p1013
aaa(lp1014
S'TAMMYRight'
p1015
a(lp1016
aa(lp1017
S'BRADthat'
p1018
a(lp1019
S'would'
p1020
aS'be'
p1021
aS'your'
p1022
aS'first'
p1023
aS'level'
p1024
aaa(lp1025
S'TAMMY'
p1026
a(lp1027
S'Right'
p1028
aaa(lp1029
S'BRAD'
p1030
a(lp1031
S'And'
p1032
aS'Luxman'
p1033
aS'has'
p1034
ag38
aS'great'
p1035
aS'cassette'
p1036
aS'deck'
p1037
aaa(lp1038
g1030
a(lp1039
S'to'
p1040
aS'fill'
p1041
aS'those'
p1042
aS'needs'
p1043
aaa(lp1044
S'TAMMYOkay'
p1045
a(lp1046
aa(lp1047
S'BRAD'
p1048
a(lp1049
S'And'
p1050
aS'um'
p1051
aaa(lp1052
S'TAMMY'
p1053
a(lp1054
aa(lp1055
S'BRAD'
p1056
a(lp1057
aa(lp1058
g1056
a(lp1059
S'so'
p1060
aS'the'
p1061
aS'qualitys'
p1062
aaa(lp1063
S'TAMMYmhm'
p1064
a(lp1065
aa(lp1066
S'BRAD'
p1067
a(lp1068
S'you'
p1069
aS'know'
p1070
aaa(lp1071
g1067
a(lp1072
S'put'
p1073
aS'into'
p1074
aS'them'
p1075
aaa(lp1076
g1067
a(lp1077
S'Uh'
p1078
aaa(lp1079
S'TAMMY'
p1080
a(lp1081
S'mhm'
p1082
aaa(lp1083
S'BRAD'
p1084
a(lp1085
S'They'
p1086
aS'really'
p1087
aS'put'
p1088
ag38
aS'lot'
p1089
aS'into'
p1090
aS'them'
p1091
aaa(lp1092
g1084
a(lp1093
S'to'
p1094
aS'be'
p1095
aS'able'
p1096
aS'to'
p1097
aS'give'
p1098
aS'that'
p1099
aS'kind'
p1100
aS'of'
p1101
aS'warranty'
p1102
aaa(lp1103
S'TAMMYmhm'
p1104
a(lp1105
aa(lp1106
S'BRAD'
p1107
a(lp1108
S'and'
p1109
aS'um'
p1110
aaa(lp1111
g1107
a(lp1112
S'theyre'
p1113
aS'pretty'
p1114
aS'conservative'
p1115
aS'in'
p1116
aS'their'
p1117
aaa(lp1118
g1107
a(lp1119
S'uh'
p1120
aaa(lp1121
g1107
a(lp1122
S'specifications'
p1123
aaa(lp1124
g1107
a(lp1125
S'where'
p1126
aaa(lp1127
g1107
a(lp1128
S'what'
p1129
aS'they'
p1130
aS'say'
p1131
aS'their'
p1132
aS'cassette'
p1133
aS'decks'
p1134
aS'will'
p1135
aS'do'
p1136
aaa(lp1137
g1107
a(lp1138
S'they'
p1139
aS'will'
p1140
aS'y'
p1141
aS'usually'
p1142
aS'out'
p1143
aS'perform'
p1144
aS'that'
p1145
aaa(lp1146
S'TAMMY'
p1147
a(lp1148
S'Okay'
p1149
aaa(lp1150
S'BRAD'
p1151
a(lp1152
S'And'
p1153
aaa(lp1154
g1151
a(lp1155
S'with'
p1156
aS'the'
p1157
aS'unit'
p1158
aS'you'
p1159
aS'already'
p1160
aS'have'
p1161
aaa(lp1162
g1151
a(lp1163
S'the'
p1164
aS'receiver'
p1165
aaa(lp1166
g1151
a(lp1167
S'that'
p1168
aS'has'
p1169
aS'the'
p1170
aS'full'
p1171
aS'remote'
p1172
aS'control'
p1173
aaa(lp1174
S'TAMMY'
p1175
a(lp1176
S'Right'
p1177
aaa(lp1178
S'BRAD'
p1179
a(lp1180
S'all'
p1181
aS'the'
p1182
aS'units'
p1183
aaa(lp1184
g1179
a(lp1185
S'uh'
p1186
aaa(lp1187
g1179
a(lp1188
S'youre'
p1189
aS'looking'
p1190
aS'at'
p1191
aS'here'
p1192
aaa(lp1193
g1179
a(lp1194
S'will'
p1195
aaa(lp1196
g1179
a(lp1197
S'uh'
p1198
aaa(lp1199
g1179
a(lp1200
S'go'
p1201
aS'along'
p1202
aS'with'
p1203
aS'that'
p1204
aaa(lp1205
S'TAMMY'
p1206
a(lp1207
S'Mhm'
p1208
aaa(lp1209
S'BRAD'
p1210
a(lp1211
S'and'
p1212
aaa(lp1213
g1210
a(lp1214
S'um'
p1215
aaa(lp1216
g1210
a(lp1217
S'as'
p1218
aS'far'
p1219
aS'as'
p1220
aS'the'
p1221
aS'remote'
p1222
aS'control'
p1223
aS'funtions'
p1224
aS'go'
p1225
aaa(lp1226
S'TAMMYright'
p1227
a(lp1228
aa(lp1229
S'BRADWhere'
p1230
a(lp1231
S'the'
p1232
aS'remote'
p1233
aS'control'
p1234
aS'will'
p1235
aS'control'
p1236
aS'the'
p1237
aS'decks'
p1238
aaa(lp1239
S'TAMMY'
p1240
a(lp1241
S'Right'
p1242
aaa(lp1243
g1240
a(lp1244
S'Right'
p1245
aaa(lp1246
g1240
a(lp1247
S'Okay'
p1248
aaa(lp1249
S'BRAD'
p1250
a(lp1251
S'The'
p1252
aS'decks'
p1253
aS'come'
p1254
aS'with'
p1255
aaa(lp1256
S'TAMMY'
p1257
a(lp1258
aa(lp1259
S'BRAD'
p1260
a(lp1261
S'whats'
p1262
aS'called'
p1263
ag38
aS'DIN'
p1264
aS'cable'
p1265
aaa(lp1266
g1260
a(lp1267
S'and'
p1268
aS'that'
p1269
aS'plugs'
p1270
aS'into'
p1271
aS'the'
p1272
aS'unit'
p1273
aS'you'
p1274
aS'have'
p1275
aS'now'
p1276
aaa(lp1277
S'TAMMY'
p1278
a(lp1279
S'Mhm'
p1280
aaa(lp1281
g1278
a(lp1282
S'right'
p1283
aaa(lp1284
S'BRAD'
p1285
a(lp1286
S'okay'
p1287
aS'this'
p1288
aS'is'
p1289
aS'the'
p1290
aS'kay'
p1291
aS'one'
p1292
aS'eleven'
p1293
aaa(lp1294
S'TAMMY'
p1295
a(lp1296
S'Okay'
p1297
aaa(lp1298
S'BRAD'
p1299
a(lp1300
S'This'
p1301
aS'would'
p1302
aS'be'
p1303
aaa(lp1304
g1299
a(lp1305
g8
aS'guess'
p1306
aS'youd'
p1307
aS'say'
p1308
aS'the'
p1309
aS'entry'
p1310
aS'level'
p1311
aaa(lp1312
S'TAMMY'
p1313
a(lp1314
S'Right'
p1315
aaa(lp1316
S'BRAD'
p1317
a(lp1318
S'to'
p1319
aS'integrate'
p1320
aS'into'
p1321
aS'your'
p1322
aS'system'
p1323
aaa(lp1324
S'TAMMY'
p1325
a(lp1326
S'okay'
p1327
aaa(lp1328
S'BRAD'
p1329
a(lp1330
S'Um'
p1331
aaa(lp1332
g1329
a(lp1333
S'this'
p1334
aS'gives'
p1335
aS'you'
p1336
aaa(lp1337
g1329
a(lp1338
g38
aS'lot'
p1339
aS'of'
p1340
aS'pluses'
p1341
aS'that'
p1342
aaa(lp1343
g1329
a(lp1344
S'most'
p1345
aS'peoples'
p1346
aS'basic'
p1347
aS'decks'
p1348
aS'dont'
p1349
aS'have'
p1350
aaa(lp1351
S'TAMMYHm'
p1352
a(lp1353
aa(lp1354
S'BRAD'
p1355
a(lp1356
S'Okay'
p1357
aaa(lp1358
g1355
a(lp1359
S'it'
p1360
aS'has'
p1361
aS'Dolby'
p1362
aaa(lp1363
S'TAMMY'
p1364
a(lp1365
S'Mhm'
p1366
aaa(lp1367
S'BRAD'
p1368
a(lp1369
S'which'
p1370
aS'as'
p1371
aS'you'
p1372
aS'know'
p1373
aaa(lp1374
g1368
a(lp1375
S'thats'
p1376
ag38
aS'circuit'
p1377
aS'to'
p1378
aS'cut'
p1379
aS'the'
p1380
aS'tape'
p1381
aS'hiss'
p1382
aaa(lp1383
g1368
a(lp1384
S'without'
p1385
aS'cutting'
p1386
aS'the'
p1387
aS'high'
p1388
aS'frequencies'
p1389
aaa(lp1390
S'TAMMY'
p1391
a(lp1392
S'right'
p1393
aaa(lp1394
g1391
a(lp1395
S'Right'
p1396
aaa(lp1397
S'BRAD'
p1398
a(lp1399
S'And'
p1400
aS'um'
p1401
aaa(lp1402
g1398
a(lp1403
S'regular'
p1404
aS'Dolby'
p1405
aS'is'
p1406
aS'Dolby'
p1407
ag1002
aaa(lp1408
g1398
a(lp1409
S'Thats'
p1410
aS'like'
p1411
aS'um'
p1412
aaa(lp1413
S'TAMMY'
p1414
a(lp1415
S'Mhm'
p1416
aaa(lp1417
S'BRAD'
p1418
a(lp1419
S'when'
p1420
aS'you'
p1421
aS'buy'
p1422
aS'tapes'
p1423
aS'at'
p1424
aS'the'
p1425
aS'Wherehouse'
p1426
aaa(lp1427
g1418
a(lp1428
S'theyre'
p1429
aS'in'
p1430
aS'Dolby'
p1431
aaa(lp1432
S'TAMMY'
p1433
a(lp1434
S'right'
p1435
aaa(lp1436
S'BRAD'
p1437
a(lp1438
S'Um'
p1439
aaa(lp1440
g1437
a(lp1441
S'in'
p1442
aS'addition'
p1443
aS'to'
p1444
aS'that'
p1445
aS'it'
p1446
aS'gives'
p1447
aS'you'
p1448
aS'Dolby'
p1449
aS'C'
p1450
aaa(lp1451
S'TAMMY'
p1452
a(lp1453
S'Mhm'
p1454
aaa(lp1455
S'BRAD'
p1456
a(lp1457
S'When'
p1458
aS'youre'
p1459
aS'making'
p1460
aS'your'
p1461
aS'own'
p1462
aS'tapes'
p1463
aS'at'
p1464
aS'home'
p1465
aaa(lp1466
g1456
a(lp1467
S'like'
p1468
aS'lets'
p1469
aS'say'
p1470
aS'from'
p1471
aS'the'
p1472
aS'CD'
p1473
aaa(lp1474
S'TAMMY'
p1475
a(lp1476
S'hm'
p1477
aaa(lp1478
g1475
a(lp1479
S'Mhm'
p1480
aaa(lp1481
S'BRAD'
p1482
a(lp1483
S'making'
p1484
ag38
aS'tape'
p1485
aS'to'
p1486
aS'play'
p1487
aS'back'
p1488
aS'on'
p1489
aS'this'
p1490
aS'tape'
p1491
aS'deck'
p1492
aaa(lp1493
S'TAMMY'
p1494
a(lp1495
S'mhm'
p1496
aaa(lp1497
S'BRADyoure'
p1498
a(lp1499
S'gonna'
p1500
aS'wanna'
p1501
aS'record'
p1502
aS'it'
p1503
aS'in'
p1504
aS'Dolby'
p1505
ag1450
aaa(lp1506
S'TAMMYmhm'
p1507
a(lp1508
aa(lp1509
S'BRADThats'
p1510
a(lp1511
S'gonna'
p1512
aS'sound'
p1513
aS'sonically'
p1514
aS'superior'
p1515
aaa(lp1516
S'TAMMY'
p1517
a(lp1518
S'mhm'
p1519
aaa(lp1520
S'BRAD'
p1521
a(lp1522
S'Um'
p1523
aaa(lp1524
g1521
a(lp1525
S'or'
p1526
aS'if'
p1527
aS'friends'
p1528
aS'are'
p1529
aS'recording'
p1530
aS'tapes'
p1531
aS'in'
p1532
aS'Dolby'
p1533
ag1450
aaa(lp1534
g1521
a(lp1535
S'then'
p1536
aS'youll'
p1537
aS'be'
p1538
aS'able'
p1539
aS'to'
p1540
aS'play'
p1541
aS'it'
p1542
aS'back'
p1543
aS'and'
p1544
aS'itll'
p1545
aS'sound'
p1546
aS'right'
p1547
aaa(lp1548
S'TAMMY'
p1549
a(lp1550
S'Hm'
p1551
aaa(lp1552
g1549
a(lp1553
S'Okay'
p1554
aaa(lp1555
S'BRAD'
p1556
a(lp1557
S'Okay'
p1558
aaa(lp1559
g1556
a(lp1560
S'so'
p1561
aS'if'
p1562
aS'somethings'
p1563
aS'recorded'
p1564
aS'in'
p1565
aS'Dolby'
p1566
ag1002
aaa(lp1567
g1556
a(lp1568
S'you'
p1569
aS'wanna'
p1570
aS'play'
p1571
aS'it'
p1572
aS'in'
p1573
aS'Dolby'
p1574
ag1002
aaa(lp1575
g1556
a(lp1576
S'Dolby'
p1577
ag1450
aaa(lp1578
g1556
a(lp1579
S'you'
p1580
aS'wanna'
p1581
aS'play'
p1582
aS'it'
p1583
aS'in'
p1584
aS'Dolby'
p1585
ag1450
aaa(lp1586
g1556
a(lp1587
S'You'
p1588
aS'dont'
p1589
aS'want'
p1590
aS'to'
p1591
aaa(lp1592
S'TAMMY'
p1593
a(lp1594
S'Mhm'
p1595
aaa(lp1596
S'BRAD'
p1597
a(lp1598
S'mix'
p1599
aS'and'
p1600
aS'match'
p1601
aaa(lp1602
g1597
a(lp1603
S'Uh'
p1604
aaa(lp1605
S'TAMMYokay'
p1606
a(lp1607
aa(lp1608
S'BRAD'
p1609
a(lp1610
S'the'
p1611
aaa(lp1612
g1609
a(lp1613
S'It'
p1614
aS'doesnt'
p1615
aS'sound'
p1616
aS'quite'
p1617
aS'right'
p1618
aaa(lp1619
S'TAMMY'
p1620
a(lp1621
S'Nkay'
p1622
aaa(lp1623
S'BRAD'
p1624
a(lp1625
S'So'
p1626
aS'this'
p1627
aS'gives'
p1628
aS'you'
p1629
aS'that'
p1630
aaa(lp1631
S'TAMMYhunh'
p1632
a(lp1633
aa(lp1634
S'BRAD'
p1635
a(lp1636
S'it'
p1637
aS'also'
p1638
aS'gives'
p1639
aS'you'
p1640
aS'whats'
p1641
aS'called'
p1642
aS'HX'
p1643
aS'Pro'
p1644
aaa(lp1645
S'TAMMY'
p1646
a(lp1647
S'Okay'
p1648
aaa(lp1649
g1646
a(lp1650
S'mhm'
p1651
aaa(lp1652
S'BRAD'
p1653
a(lp1654
S'Which'
p1655
aS'is'
p1656
ag38
aS'feature'
p1657
aS'usually'
p1658
aS'only'
p1659
aS'found'
p1660
aS'in'
p1661
aaa(lp1662
g1653
a(lp1663
S'rh'
p1664
aaa(lp1665
g1653
a(lp1666
S'really'
p1667
aS'expensive'
p1668
aS'cassette'
p1669
aS'decks'
p1670
aaa(lp1671
S'TAMMYMm'
p1672
a(lp1673
aa(lp1674
g1672
a(lp1675
S'Hm'
p1676
aaa(lp1677
S'BRAD'
p1678
a(lp1679
S'And'
p1680
aS'that'
p1681
aS'i'
p1682
aS'is'
p1683
aaa(lp1684
g1678
a(lp1685
S'an'
p1686
aS'improvement'
p1687
aS'in'
p1688
aS'the'
p1689
aS'recording'
p1690
aS'section'
p1691
aS'of'
p1692
aS'it'
p1693
aaa(lp1694
S'TAMMYHm'
p1695
a(lp1696
aa(lp1697
S'BRAD'
p1698
a(lp1699
S'and'
p1700
aS'it'
p1701
aS'allows'
p1702
aS'you'
p1703
aS'to'
p1704
aS'record'
p1705
ag38
aS'little'
p1706
aS'bit'
p1707
aaa(lp1708
S'TAMMY'
p1709
a(lp1710
S'Mhm'
p1711
aaa(lp1712
S'BRADum'
p1713
a(lp1714
aa(lp1715
g1713
a(lp1716
S'higher'
p1717
aS'record'
p1718
aS'level'
p1719
aaa(lp1720
g1713
a(lp1721
S'so'
p1722
aS'you'
p1723
aS'hear'
p1724
aS'less'
p1725
aS'tape'
p1726
aS'hiss'
p1727
aaa(lp1728
S'TAMMY'
p1729
a(lp1730
S'mhm'
p1731
aaa(lp1732
g1729
a(lp1733
S'mhm'
p1734
aaa(lp1735
S'BRAD'
p1736
a(lp1737
S'and'
p1738
aS'also'
p1739
aS'has'
p1740
ag38
aS'little'
p1741
aS'bit'
p1742
aS'more'
p1743
aaa(lp1744
g1736
a(lp1745
S'um'
p1746
aaa(lp1747
g1736
a(lp1748
S'high'
p1749
aS'frequency'
p1750
aS'response'
p1751
aaa(lp1752
S'TAMMY'
p1753
a(lp1754
S'Hm'
p1755
aaa(lp1756
g1753
a(lp1757
S'Mhm'
p1758
aaa(lp1759
S'BRADOkay'
p1760
a(lp1761
aa(lp1762
g1760
a(lp1763
S'so'
p1764
aS'this'
p1765
aS'one'
p1766
aS'here'
p1767
aS'youre'
p1768
aS'looking'
p1769
aS'at'
p1770
aS'three'
p1771
aS'hundred'
p1772
aS'eighty'
p1773
aS'dollars'
p1774
aaa(lp1775
S'TAMMYmhm'
p1776
a(lp1777
aa(lp1778
g1776
a(lp1779
S'hm'
p1780
aaa(lp1781
g1776
a(lp1782
S'Mhm'
p1783
aaa(lp1784
S'BRAD'
p1785
a(lp1786
S'Okay'
p1787
aaa(lp1788
g1785
a(lp1789
S'and'
p1790
aS'um'
p1791
aaa(lp1792
g1785
a(lp1793
S'from'
p1794
aS'there'
p1795
aaa(lp1796
g1785
a(lp1797
S'the'
p1798
aS'next'
p1799
aS'step'
p1800
aaa(lp1801
g1785
a(lp1802
S'for'
p1803
aS'what'
p1804
aS'youre'
p1805
aS'looking'
p1806
aS'at'
p1807
aaa(lp1808
g1785
a(lp1809
S'would'
p1810
aS'be'
p1811
aS'the'
p1812
aS'kay'
p1813
aS'one'
p1814
aS'ten'
p1815
aaa(lp1816
g1785
a(lp1817
S'Okay'
p1818
aS'the'
p1819
aS'kay'
p1820
aS'one'
p1821
aS'ten'
p1822
aS'basically'
p1823
aS'has'
p1824
aS'all'
p1825
aS'functions'
p1826
aS'that'
p1827
aS'we'
p1828
aS'just'
p1829
aS'talked'
p1830
aS'about'
p1831
aS'on'
p1832
aS'the'
p1833
aS'on'
p1834
aS'the'
p1835
aS'kay'
p1836
aS'one'
p1837
aS'eleven'
p1838
aaa(lp1839
S'TAMMY'
p1840
a(lp1841
S'Mhm'
p1842
aaa(lp1843
S'BRAD'
p1844
a(lp1845
S'um'
p1846
aaa(lp1847
S'TAMMY'
p1848
a(lp1849
aa(lp1850
S'BRAD'
p1851
a(lp1852
S'with'
p1853
aS'the'
p1854
aS'addition'
p1855
aS'of'
p1856
aaa(lp1857
g1851
a(lp1858
S'the'
p1859
aS'convenience'
p1860
aS'feature'
p1861
aS'of'
p1862
aS'having'
p1863
aS'auto'
p1864
aS'reverse'
p1865
aaa(lp1866
S'TAMMY'
p1867
a(lp1868
S'Yeah'
p1869
aaa(lp1870
S'BRAD'
p1871
a(lp1872
S'And'
p1873
aS'thats'
p1874
aS'nice'
p1875
aaa(lp1876
g1871
a(lp1877
S'just'
p1878
aS'like'
p1879
aS'in'
p1880
aS'the'
p1881
aS'car'
p1882
aaa(lp1883
S'TAMMY'
p1884
a(lp1885
g30
aaa(lp1886
S'BRAD'
p1887
a(lp1888
S'Where'
p1889
aaa(lp1890
S'TAMMYYeah'
p1891
a(lp1892
aa(lp1893
S'BRAD'
p1894
a(lp1895
S'it'
p1896
aS'will'
p1897
aS'play'
p1898
aS'side'
p1899
ag1002
aaa(lp1900
g1894
a(lp1901
S'after'
p1902
aS'side'
p1903
aS'A'
p1904
aS'is'
p1905
aS'finished'
p1906
aaa(lp1907
g1894
a(lp1908
S'automatically'
p1909
aaa(lp1910
S'TAMMY'
p1911
a(lp1912
S'Yeah'
p1913
aaa(lp1914
S'BRAD'
p1915
a(lp1916
S'Where'
p1917
aS'you'
p1918
aS'dont'
p1919
aS'have'
p1920
aS'to'
p1921
aS'get'
p1922
aS'up'
p1923
aS'and'
p1924
aS'flip'
p1925
aS'the'
p1926
aS'tape'
p1927
aaa(lp1928
S'TAMMY'
p1929
a(lp1930
aa(lp1931
g1929
a(lp1932
S'okay'
p1933
aaa(lp1934
S'BRAD'
p1935
a(lp1936
S'The'
p1937
aS'other'
p1938
aS'thing'
p1939
aS'about'
p1940
aS'it'
p1941
aS'is'
p1942
aaa(lp1943
g1935
a(lp1944
S'you'
p1945
aS'can'
p1946
aS'flip'
p1947
aS'the'
p1948
aS'tape'
p1949
aS'over'
p1950
aS'at'
p1951
aS'any'
p1952
aS'point'
p1953
aS'in'
p1954
aS'the'
p1955
aS'middle'
p1956
aaa(lp1957
S'TAMMY'
p1958
a(lp1959
S'Mhm'
p1960
aaa(lp1961
g1958
a(lp1962
S'right'
p1963
aaa(lp1964
S'BRAD'
p1965
a(lp1966
S'Uh'
p1967
aaa(lp1968
g1965
a(lp1969
S'and'
p1970
aaa(lp1971
g1965
a(lp1972
S'the'
p1973
aS'other'
p1974
aS'thing'
p1975
aaa(lp1976
g1965
a(lp1977
g1141
aS'lets'
p1978
aS'say'
p1979
aS'if'
p1980
aS'youre'
p1981
aS'entertaining'
p1982
aaa(lp1983
g1965
a(lp1984
S'you'
p1985
aS'can'
p1986
aS'put'
p1987
aS'in'
p1988
ag38
aS'ninety'
p1989
aS'minute'
p1990
aS'tape'
p1991
aaa(lp1992
S'TAMMY'
p1993
a(lp1994
S'Mhm'
p1995
aaa(lp1996
S'BRAD'
p1997
a(lp1998
S'put'
p1999
aS'it'
p2000
aS'on'
p2001
aS'continuous'
p2002
aS'auto'
p2003
aS'reverse'
p2004
aaa(lp2005
S'TAMMY'
p2006
a(lp2007
S'm'
p2008
aS'mhm'
p2009
aaa(lp2010
S'BRAD'
p2011
a(lp2012
S'have'
p2013
ag38
aS'recording'
p2014
aS'of'
p2015
aS'your'
p2016
aS'favorite'
p2017
aS'songs'
p2018
aaa(lp2019
S'TAMMY'
p2020
a(lp2021
S'right'
p2022
aaa(lp2023
g2020
a(lp2024
S'Mhm'
p2025
aaa(lp2026
S'BRADfor'
p2027
a(lp2028
g38
aS'party'
p2029
aaa(lp2030
S'TAMMYright'
p2031
a(lp2032
aa(lp2033
S'BRADa'
p2034
a(lp2035
S'dinner'
p2036
aS'party'
p2037
aaa(lp2038
g2034
a(lp2039
S'whatever'
p2040
aaa(lp2041
S'TAMMYRight'
p2042
a(lp2043
aa(lp2044
S'BRAD'
p2045
a(lp2046
S'and'
p2047
aaa(lp2048
g2045
a(lp2049
S'play'
p2050
aS'side'
p2051
ag1904
aaa(lp2052
g2045
a(lp2053
S'then'
p2054
aS'side'
p2055
ag1002
aS'then'
p2056
aS'side'
p2057
ag1904
aS'side'
p2058
ag1002
aaa(lp2059
S'TAMMY'
p2060
a(lp2061
S'Yeah'
p2062
aaa(lp2063
g2060
a(lp2064
S'thats'
p2065
aS'good'
p2066
aaa(lp2067
S'BRADitll'
p2068
a(lp2069
S'just'
p2070
aS'go'
p2071
aS'forever'
p2072
aaa(lp2073
S'TAMMYThats'
p2074
a(lp2075
S'good'
p2076
aaa(lp2077
S'BRADOkay'
p2078
a(lp2079
aa(lp2080
S'TAMMYOkay'
p2081
a(lp2082
aa(lp2083
S'BRAD'
p2084
a(lp2085
S'Um'
p2086
aaa(lp2087
S'TAMMY'
p2088
a(lp2089
S'Right'
p2090
aaa(lp2091
S'BRAD'
p2092
a(lp2093
S'so'
p2094
aS'thats'
p2095
aS'what'
p2096
aS'it'
p2097
aS'gives'
p2098
aS'you'
p2099
aS'in'
p2100
aS'the'
p2101
aS'kay'
p2102
aS'one'
p2103
aS'ten'
p2104
aaa(lp2105
S'TAMMY'
p2106
a(lp2107
aa(lp2108
g2106
a(lp2109
S'mhm'
p2110
aaa(lp2111
S'BRAD'
p2112
a(lp2113
S'Now'
p2114
aaa(lp2115
g2112
a(lp2116
S'the'
p2117
aaa(lp2118
g2112
a(lp2119
S'dual'
p2120
aaa(lp2121
g2112
a(lp2122
S'or'
p2123
aS'double'
p2124
aS'cassette'
p2125
aS'deck'
p2126
aaa(lp2127
g2112
a(lp2128
S'that'
p2129
aS'Luxman'
p2130
aS'offers'
p2131
aaa(lp2132
g2112
a(lp2133
S'is'
p2134
aS'basically'
p2135
aaa(lp2136
g2112
a(lp2137
g38
aS'um'
p2138
aaa(lp2139
g2112
a(lp2140
S'double'
p2141
aS'version'
p2142
aS'of'
p2143
aS'the'
p2144
aS'kay'
p2145
aS'one'
p2146
aS'ten'
p2147
aaa(lp2148
S'TAMMYRight'
p2149
a(lp2150
aa(lp2151
S'BRAD'
p2152
a(lp2153
S'And'
p2154
aS'they'
p2155
aS'call'
p2156
aS'it'
p2157
aS'the'
p2158
aS'kay'
p2159
aS'one'
p2160
aS'ten'
p2161
aS'doubleu'
p2162
aaa(lp2163
S'TAMMY'
p2164
a(lp2165
S'Okay'
p2166
aaa(lp2167
S'BRAD'
p2168
a(lp2169
S'And'
p2170
aaa(lp2171
S'TAMMYSo'
p2172
a(lp2173
S'whats'
p2174
aS'the'
p2175
aS'price'
p2176
aS'difference'
p2177
aS'here'
p2178
aaa(lp2179
S'BRAD'
p2180
a(lp2181
S'Oh'
p2182
aS'okay'
p2183
aaa(lp2184
g2180
a(lp2185
S'Im'
p2186
aS'sorry'
p2187
aaa(lp2188
g2180
a(lp2189
S'the'
p2190
aaa(lp2191
S'TAMMYYeah'
p2192
a(lp2193
aa(lp2194
S'BRADthe'
p2195
a(lp2196
S'kay'
p2197
aS'one'
p2198
aS'ten'
p2199
aS'is'
p2200
aS'four'
p2201
aS'hundred'
p2202
aS'eighty'
p2203
aS'dollars'
p2204
aaa(lp2205
S'TAMMY'
p2206
a(lp2207
S'Alright'
p2208
aaa(lp2209
S'BRAD'
p2210
a(lp2211
S'and'
p2212
aS'the'
p2213
aS'kay'
p2214
aS'one'
p2215
aS'ten'
p2216
aS'doubleu'
p2217
aaa(lp2218
g2210
a(lp2219
S'is'
p2220
aS'five'
p2221
aS'hundred'
p2222
aS'eighty'
p2223
aS'dollars'
p2224
aaa(lp2225
S'TAMMYMhm'
p2226
a(lp2227
aa(lp2228
g2226
a(lp2229
S'okay'
p2230
aaa(lp2231
S'BRAD'
p2232
a(lp2233
S'Okay'
p2234
aaa(lp2235
g2232
a(lp2236
g30
aS'So'
p2237
aS'you'
p2238
aS'paid'
p2239
ag30
ag38
aS'hundred'
p2240
aS'dollar'
p2241
aS'premium'
p2242
aS'for'
p2243
aS'auto'
p2244
aS'reverse'
p2245
aaa(lp2246
g2232
a(lp2247
S'then'
p2248
aS'youre'
p2249
aS'paying'
p2250
aS'another'
p2251
aS'hundred'
p2252
aS'dollars'
p2253
aS'to'
p2254
aS'have'
p2255
aaa(lp2256
S'TAMMY'
p2257
a(lp2258
S'Yeah'
p2259
aaa(lp2260
g2257
a(lp2261
S'right'
p2262
aaa(lp2263
S'BRAD'
p2264
a(lp2265
S'double'
p2266
aS'cassette'
p2267
aS'deck'
p2268
aS'thats'
p2269
aS'auto'
p2270
aS'reverse'
p2271
aaa(lp2272
S'TAMMY'
p2273
a(lp2274
S'Okay'
p2275
aaa(lp2276
g2273
a(lp2277
S'Mhm'
p2278
aaa(lp2279
g2273
a(lp2280
S'okay'
p2281
aaa(lp2282
S'BRAD'
p2283
a(lp2284
S'Um'
p2285
aaa(lp2286
g2283
a(lp2287
S'the'
p2288
aS'convenience'
p2289
aS'on'
p2290
aS'this'
p2291
aS'is'
p2292
aS'obvious'
p2293
aaa(lp2294
S'TAMMY'
p2295
a(lp2296
S'Mhm'
p2297
aaa(lp2298
S'BRAD'
p2299
a(lp2300
S'Where'
p2301
aaa(lp2302
g2299
a(lp2303
S'um'
p2304
aaa(lp2305
g2299
a(lp2306
S'they'
p2307
aS'even'
p2308
aS'have'
p2309
aaa(lp2310
S'TAMMY'
p2311
a(lp2312
aa(lp2313
S'BRAD'
p2314
a(lp2315
S'um'
p2316
aaa(lp2317
g2314
a(lp2318
S'you'
p2319
aS'know'
p2320
aaa(lp2321
g2314
a(lp2322
S'buttons'
p2323
aS'set'
p2324
aS'up'
p2325
aS'for'
p2326
aaa(lp2327
S'TAMMY'
p2328
a(lp2329
S'Mhm'
p2330
aaa(lp2331
S'BRAD'
p2332
a(lp2333
S'dubbing'
p2334
aaa(lp2335
g2332
a(lp2336
S'or'
p2337
aS'copying'
p2338
aaa(lp2339
S'TAMMY'
p2340
a(lp2341
S'mhm'
p2342
aaa(lp2343
S'BRADfrom'
p2344
a(lp2345
S'one'
p2346
aS'tape'
p2347
aS'deck'
p2348
aS'to'
p2349
aS'the'
p2350
aS'other'
p2351
aaa(lp2352
S'TAMMY'
p2353
a(lp2354
S'mhm'
p2355
aaa(lp2356
S'BRAD'
p2357
a(lp2358
S'Um'
p2359
aaa(lp2360
g2357
a(lp2361
S'so'
p2362
aS'its'
p2363
aS'really'
p2364
aS'set'
p2365
aS'up'
p2366
aaa(lp2367
g2357
a(lp2368
S'to'
p2369
aS'be'
p2370
aS'just'
p2371
aS'cranking'
p2372
aS'out'
p2373
aaa(lp2374
S'TAMMY'
p2375
a(lp2376
S'hm'
p2377
aaa(lp2378
S'BRAD'
p2379
a(lp2380
S'uh'
p2381
aaa(lp2382
g2379
a(lp2383
S'copies'
p2384
aaa(lp2385
S'TAMMYmhm'
p2386
a(lp2387
aa(lp2388
S'BRAD'
p2389
a(lp2390
S'Now'
p2391
aS'the'
p2392
aS'other'
p2393
aS'thing'
p2394
aS'is'
p2395
aaa(lp2396
g2389
a(lp2397
S'it'
p2398
aS'has'
p2399
ag38
aS'feature'
p2400
aS'where'
p2401
aS'it'
p2402
aS'will'
p2403
aS'do'
p2404
aS'it'
p2405
aS'in'
p2406
aS'half'
p2407
aS'the'
p2408
aS'time'
p2409
aaa(lp2410
S'TAMMY'
p2411
a(lp2412
S'hm'
p2413
aaa(lp2414
S'BRAD'
p2415
a(lp2416
S'Or'
p2417
aS'high'
p2418
aS'speed'
p2419
aS'dubbing'
p2420
aaa(lp2421
S'TAMMY'
p2422
a(lp2423
S'Hm'
p2424
aaa(lp2425
g2422
a(lp2426
S'Hm'
p2427
aaa(lp2428
g2422
a(lp2429
S'Hm'
p2430
aaa(lp2431
g2422
a(lp2432
S'Hm'
p2433
aaa(lp2434
S'BRAD'
p2435
a(lp2436
S'Which'
p2437
aS'is'
p2438
aS'sometimes'
p2439
aS'nice'
p2440
aaa(lp2441
g2435
a(lp2442
S'so'
p2443
aS'it'
p2444
aS'doesnt'
p2445
aS'take'
p2446
aS'the'
p2447
aS'whole'
p2448
aS'period'
p2449
aS'of'
p2450
aS'time'
p2451
aaa(lp2452
S'TAMMYRight'
p2453
a(lp2454
aa(lp2455
S'BRAD'
p2456
a(lp2457
S'To'
p2458
aS'make'
p2459
aS'your'
p2460
aS'copy'
p2461
aaa(lp2462
S'TAMMY'
p2463
a(lp2464
S'Mhm'
p2465
aaa(lp2466
S'BRAD'
p2467
a(lp2468
S'And'
p2469
aS'it'
p2470
aS'will'
p2471
aS'continue'
p2472
aS'making'
p2473
aS'the'
p2474
aS'copy'
p2475
aaa(lp2476
g2467
a(lp2477
S'you'
p2478
aS'know'
p2479
aaa(lp2480
g2467
a(lp2481
S'from'
p2482
aS'side'
p2483
ag1904
aS'then'
p2484
aaa(lp2485
g2467
a(lp2486
S'and'
p2487
aS'itll'
p2488
aS'flip'
p2489
aS'over'
p2490
aaa(lp2491
S'TAMMYRight'
p2492
a(lp2493
aa(lp2494
S'BRADand'
p2495
a(lp2496
S'to'
p2497
aS'side'
p2498
ag1002
aaa(lp2499
g2495
a(lp2500
S'Um'
p2501
aaa(lp2502
g2495
a(lp2503
S'so'
p2504
aS'we'
p2505
aaa(lp2506
g2495
a(lp2507
S'weve'
p2508
aS'talked'
p2509
aS'about'
p2510
aS'it'
p2511
aaa(lp2512
g2495
a(lp2513
S'how'
p2514
aaa(lp2515
g2495
a(lp2516
S'how'
p2517
aS'it'
p2518
aS'has'
p2519
aS'the'
p2520
aS'dubbing'
p2521
aS'speed'
p2522
aS'select'
p2523
aS'buttons'
p2524
aaa(lp2525
S'TAMMY'
p2526
a(lp2527
S'Mhm'
p2528
aaa(lp2529
S'BRADso'
p2530
a(lp2531
S'you'
p2532
aS'can'
p2533
aS'make'
p2534
ag38
aaa(lp2535
g2530
a(lp2536
g38
aS'high'
p2537
aS'speed'
p2538
aS'copy'
p2539
aaa(lp2540
S'TAMMY'
p2541
a(lp2542
S'mhm'
p2543
aaa(lp2544
S'BRAD'
p2545
a(lp2546
S'um'
p2547
aaa(lp2548
g2545
a(lp2549
S'The'
p2550
aS'other'
p2551
aS'thing'
p2552
aS'that'
p2553
aS'sets'
p2554
aS'this'
p2555
aS'apart'
p2556
aaa(lp2557
g2545
a(lp2558
S'from'
p2559
ag38
aS'lot'
p2560
aS'of'
p2561
aS'other'
p2562
aS'dual'
p2563
aS'decks'
p2564
aaa(lp2565
g2545
a(lp2566
S'is'
p2567
aS'it'
p2568
aS'has'
p2569
ag38
aS'separate'
p2570
aS'Dolby'
p2571
aS'button'
p2572
aaa(lp2573
g2545
a(lp2574
S'for'
p2575
aS'each'
p2576
aS'cassette'
p2577
aS'deck'
p2578
aaa(lp2579
S'TAMMY'
p2580
a(lp2581
S'Mhm'
p2582
aaa(lp2583
S'BRAD'
p2584
a(lp2585
S'Ge'
p2586
aaa(lp2587
g2584
a(lp2588
S'uh'
p2589
aS'gesundheit'
p2590
aaa(lp2591
S'TAMMY'
p2592
a(lp2593
S'Thank'
p2594
aS'you'
p2595
aaa(lp2596
g2592
a(lp2597
S'yeah'
p2598
aaa(lp2599
S'BRADUm'
p2600
a(lp2601
aa(lp2602
g2600
a(lp2603
S'where'
p2604
ag38
aS'lot'
p2605
aS'of'
p2606
aS'units'
p2607
aS'will'
p2608
aaa(lp2609
S'TAMMY'
p2610
a(lp2611
S'Hm'
p2612
aaa(lp2613
S'BRAD'
p2614
a(lp2615
S'just'
p2616
aS'have'
p2617
ag38
aS'Dolby'
p2618
aS'setting'
p2619
aaa(lp2620
S'TAMMY'
p2621
a(lp2622
S'Mhm'
p2623
aaa(lp2624
S'BRAD'
p2625
a(lp2626
S'and'
p2627
aS'thats'
p2628
aS'the'
p2629
aS'same'
p2630
aS'for'
p2631
aS'both'
p2632
aS'decks'
p2633
aaa(lp2634
S'TAMMY'
p2635
a(lp2636
g8
aS'see'
p2637
aaa(lp2638
g2635
a(lp2639
g8
aS'see'
p2640
aaa(lp2641
S'BRAD'
p2642
a(lp2643
S'But'
p2644
aS'there'
p2645
aS'may'
p2646
aS'be'
p2647
ag38
aS'situation'
p2648
aaa(lp2649
g2642
a(lp2650
S'where'
p2651
ag38
aS'friend'
p2652
aS'of'
p2653
aS'yours'
p2654
aaa(lp2655
S'TAMMYYeah'
p2656
a(lp2657
aa(lp2658
g2656
a(lp2659
S'Mhm'
p2660
aaa(lp2661
S'BRAD'
p2662
a(lp2663
S'whos'
p2664
ag38
aS'real'
p2665
aS'audiophile'
p2666
aaa(lp2667
g2662
a(lp2668
S'made'
p2669
aS'uh'
p2670
aaa(lp2671
S'TAMMYmhm'
p2672
a(lp2673
aa(lp2674
S'BRADa'
p2675
a(lp2676
S'real'
p2677
aS'premium'
p2678
aS'tape'
p2679
aS'for'
p2680
aS'you'
p2681
aaa(lp2682
S'TAMMYmhm'
p2683
a(lp2684
aa(lp2685
S'BRADrecorded'
p2686
a(lp2687
S'in'
p2688
aS'Dolby'
p2689
ag1450
aaa(lp2690
S'TAMMYmhm'
p2691
a(lp2692
aa(lp2693
S'BRAD'
p2694
a(lp2695
S'Well'
p2696
aaa(lp2697
g2694
a(lp2698
S'you'
p2699
aS'wanna'
p2700
aS'record'
p2701
aS'it'
p2702
aS'in'
p2703
aS'Dolby'
p2704
ag1002
aaa(lp2705
g2694
a(lp2706
S'so'
p2707
aS'you'
p2708
aS'can'
p2709
aS'play'
p2710
aS'it'
p2711
aS'back'
p2712
aS'in'
p2713
aS'your'
p2714
aS'Walkman'
p2715
aaa(lp2716
S'TAMMY'
p2717
a(lp2718
S'Mhm'
p2719
aaa(lp2720
S'BRAD'
p2721
a(lp2722
S'and'
p2723
aS'in'
p2724
aS'your'
p2725
aS'automobiles'
p2726
aS'cassette'
p2727
aS'player'
p2728
aaa(lp2729
S'TAMMY'
p2730
a(lp2731
S'mhm'
p2732
aaa(lp2733
g2730
a(lp2734
S'mhm'
p2735
aaa(lp2736
S'BRAD'
p2737
a(lp2738
S'Uh'
p2739
aaa(lp2740
g2737
a(lp2741
S'in'
p2742
aS'that'
p2743
aS'scenario'
p2744
aaa(lp2745
g2737
a(lp2746
S'youre'
p2747
aS'gonna'
p2748
aS'want'
p2749
aS'to'
p2750
aS'play'
p2751
aS'it'
p2752
aS'back'
p2753
aS'in'
p2754
aS'Dolby'
p2755
ag1450
aaa(lp2756
g2737
a(lp2757
S'but'
p2758
aS'record'
p2759
aS'it'
p2760
aS'in'
p2761
aS'Dolby'
p2762
ag1002
aaa(lp2763
S'TAMMYYeah'
p2764
a(lp2765
aa(lp2766
g2764
a(lp2767
S'Okay'
p2768
aaa(lp2769
S'BRADOkay'
p2770
a(lp2771
aa(lp2772
S'TAMMY'
p2773
a(lp2774
S'Thats'
p2775
ag30
aS'good'
p2776
ag30
aaa(lp2777
S'BRAD'
p2778
a(lp2779
S'So'
p2780
aS'this'
p2781
aS'gives'
p2782
aS'you'
p2783
aS'that'
p2784
aS'convenience'
p2785
aaa(lp2786
S'TAMMY'
p2787
a(lp2788
S'Nkay'
p2789
aaa(lp2790
S'BRAD'
p2791
a(lp2792
S'Now'
p2793
aS'the'
p2794
aS'other'
p2795
aS'thing'
p2796
aS'is'
p2797
aaa(lp2798
g2791
a(lp2799
S'lets'
p2800
aS'say'
p2801
aaa(lp2802
g2791
a(lp2803
S'um'
p2804
aaa(lp2805
g2791
a(lp2806
S'that'
p2807
aS'friend'
p2808
aS'of'
p2809
aS'yours'
p2810
aS'came'
p2811
aS'over'
p2812
aS'for'
p2813
aS'dinner'
p2814
aS'with'
p2815
aS'his'
p2816
aS'prize'
p2817
aS'tape'
p2818
aaa(lp2819
S'TAMMYMhm'
p2820
a(lp2821
aa(lp2822
S'BRAD'
p2823
a(lp2824
S'and'
p2825
aS'you'
p2826
aS'had'
p2827
aS'your'
p2828
aS'prize'
p2829
aS'tape'
p2830
aaa(lp2831
S'TAMMYmhm'
p2832
a(lp2833
aa(lp2834
S'BRADof'
p2835
a(lp2836
S'of'
p2837
aS'something'
p2838
aS'else'
p2839
aaa(lp2840
g2835
a(lp2841
S'you'
p2842
aS'could'
p2843
aS'load'
p2844
aS'them'
p2845
aS'both'
p2846
aS'up'
p2847
aaa(lp2848
S'TAMMYmhm'
p2849
a(lp2850
aa(lp2851
g2849
a(lp2852
S'mhm'
p2853
aaa(lp2854
S'BRAD'
p2855
a(lp2856
S'put'
p2857
aS'it'
p2858
aS'on'
p2859
aS'continuous'
p2860
aaa(lp2861
S'TAMMY'
p2862
a(lp2863
aa(lp2864
S'BRAD'
p2865
a(lp2866
S'um'
p2867
aaa(lp2868
S'TAMMY'
p2869
a(lp2870
S'unhunh'
p2871
aaa(lp2872
S'BRAD'
p2873
a(lp2874
S'auto'
p2875
aS'reverse'
p2876
aaa(lp2877
g2873
a(lp2878
S'and'
p2879
aS'it'
p2880
aS'will'
p2881
aS'play'
p2882
aS'side'
p2883
ag1904
aS'side'
p2884
ag1002
aS'of'
p2885
aS'one'
p2886
aS'tape'
p2887
aaa(lp2888
S'TAMMY'
p2889
a(lp2890
aa(lp2891
S'BRAD'
p2892
a(lp2893
S'go'
p2894
aS'over'
p2895
aS'to'
p2896
aS'the'
p2897
aS'other'
p2898
aS'tape'
p2899
aaa(lp2900
S'TAMMY'
p2901
a(lp2902
S'right'
p2903
aaa(lp2904
S'BRADand'
p2905
a(lp2906
S'play'
p2907
aS'sed'
p2908
aS'ai'
p2909
aaa(lp2910
S'TAMMY'
p2911
a(lp2912
S'Mhm'
p2913
aaa(lp2914
S'BRAD'
p2915
a(lp2916
S'side'
p2917
ag1904
aaa(lp2918
g2915
a(lp2919
S'then'
p2920
aS'side'
p2921
ag1002
aaa(lp2922
g2915
a(lp2923
S'and'
p2924
aS'it'
p2925
aS'continually'
p2926
aS'go'
p2927
aS'forever'
p2928
aaa(lp2929
S'TAMMY'
p2930
a(lp2931
S'right'
p2932
aaa(lp2933
g2930
a(lp2934
S'Okay'
p2935
aaa(lp2936
S'BRAD'
p2937
a(lp2938
S'Um'
p2939
aaa(lp2940
S'TAMMY'
p2941
a(lp2942
S'Hunh'
p2943
aaa(lp2944
S'BRAD'
p2945
a(lp2946
S'which'
p2947
aS'is'
p2948
aS'kinda'
p2949
aS'nice'
p2950
aaa(lp2951
S'TAMMY'
p2952
a(lp2953
S'Wow'
p2954
aaa(lp2955
S'BRAD'
p2956
a(lp2957
S'Now'
p2958
aS'the'
p2959
aS'other'
p2960
aS'thing'
p2961
aS'you'
p2962
aS'can'
p2963
aS'do'
p2964
aS'with'
p2965
aS'this'
p2966
aS'deck'
p2967
aS'is'
p2968
aaa(lp2969
S'TAMMY'
p2970
a(lp2971
S'Yeah'
p2972
aaa(lp2973
S'BRAD'
p2974
a(lp2975
S'in'
p2976
aS'your'
p2977
aS'system'
p2978
aaa(lp2979
g2974
a(lp2980
S'you'
p2981
aS'can'
p2982
aS'make'
p2983
ag38
aS'copy'
p2984
aaa(lp2985
g2974
a(lp2986
S'from'
p2987
aS'tape'
p2988
aS'to'
p2989
aS'tape'
p2990
aaa(lp2991
g2974
a(lp2992
S'while'
p2993
aS'youre'
p2994
aS'listening'
p2995
aS'to'
p2996
aS'something'
p2997
aS'else'
p2998
aaa(lp2999
S'TAMMY'
p3000
a(lp3001
aa(lp3002
S'BRAD'
p3003
a(lp3004
S'nkay'
p3005
aaa(lp3006
S'TAMMY'
p3007
a(lp3008
S'Unhunh'
p3009
aaa(lp3010
S'BRADso'
p3011
a(lp3012
S'you'
p3013
aS'could'
p3014
aS'be'
p3015
aS'listening'
p3016
aS'to'
p3017
aS'your'
p3018
aS'CD'
p3019
aaa(lp3020
S'TAMMYright'
p3021
a(lp3022
aa(lp3023
S'BRADwhile'
p3024
a(lp3025
S'youre'
p3026
aS'making'
p3027
ag38
aS'tape'
p3028
aS'copy'
p3029
aaa(lp3030
S'TAMMYRight'
p3031
a(lp3032
aa(lp3033
g3031
a(lp3034
S'Thats'
p3035
aS'right'
p3036
aaa(lp3037
g3031
a(lp3038
S'Okay'
p3039
aaa(lp3040
S'BRAD'
p3041
a(lp3042
S'Um'
p3043
aaa(lp3044
g3041
a(lp3045
S'the'
p3046
aS'other'
p3047
aS'thing'
p3048
aS'you'
p3049
aS'can'
p3050
aS'do'
p3051
aS'is'
p3052
aaa(lp3053
g3041
a(lp3054
S'um'
p3055
aaa(lp3056
g3041
a(lp3057
S'one'
p3058
aS'can'
p3059
aS'listen'
p3060
aS'to'
p3061
aS'the'
p3062
aS'tuner'
p3063
aaa(lp3064
S'TAMMY'
p3065
a(lp3066
aa(lp3067
S'BRAD'
p3068
a(lp3069
S'so'
p3070
aS'you'
p3071
aS'could'
p3072
aS'put'
p3073
aS'on'
p3074
aS'KDB'
p3075
aaa(lp3076
S'TAMMY'
p3077
a(lp3078
S'Mhm'
p3079
aaa(lp3080
S'BRADor'
p3081
a(lp3082
g8
aaa(lp3083
g3081
a(lp3084
g8
aaa(lp3085
S'TAMMYright'
p3086
a(lp3087
aa(lp3088
S'BRAD'
p3089
a(lp3090
S'r'
p3091
aS'theres'
p3092
aS'one'
p3093
aS'Matt'
p3094
aS'likes'
p3095
aaa(lp3096
g3089
a(lp3097
g8
aS'forget'
p3098
aS'what'
p3099
aS'its'
p3100
aS'called'
p3101
aaa(lp3102
g3089
a(lp3103
S'but'
p3104
aS'anyhow'
p3105
aaa(lp3106
S'TAMMY'
p3107
a(lp3108
S'Right'
p3109
aaa(lp3110
S'BRAD'
p3111
a(lp3112
S'um'
p3113
aaa(lp3114
S'TAMMY'
p3115
a(lp3116
aa(lp3117
S'BRAD'
p3118
a(lp3119
S'or'
p3120
aS'he'
p3121
aS'wants'
p3122
aS'to'
p3123
aS'get'
p3124
aS'KFAC'
p3125
ag8
aS'think'
p3126
aS'it'
p3127
aS'is'
p3128
aaa(lp3129
S'TAMMYYeah'
p3130
a(lp3131
aa(lp3132
S'BRAD'
p3133
a(lp3134
S'Which'
p3135
aS'is'
p3136
aS'kind'
p3137
aS'of'
p3138
aS'tough'
p3139
aaa(lp3140
g3133
a(lp3141
S'Um'
p3142
aaa(lp3143
g3133
a(lp3144
S'so'
p3145
aS'you'
p3146
aS'could'
p3147
aS'be'
p3148
aS'listening'
p3149
aS'to'
p3150
aS'the'
p3151
aS'radio'
p3152
aaa(lp3153
g3133
a(lp3154
S'while'
p3155
aS'taping'
p3156
ag38
aS'CD'
p3157
aaa(lp3158
S'TAMMYMhm'
p3159
a(lp3160
aa(lp3161
S'BRAD'
p3162
a(lp3163
S'You'
p3164
aS'you'
p3165
aS'know'
p3166
aaa(lp3167
S'TAMMYright'
p3168
a(lp3169
aa(lp3170
S'BRADit'
p3171
a(lp3172
S'allows'
p3173
aS'you'
p3174
aS'to'
p3175
aS'do'
p3176
aS'that'
p3177
aaa(lp3178
S'TAMMY'
p3179
a(lp3180
S'Right'
p3181
aaa(lp3182
g3179
a(lp3183
S'Right'
p3184
aaa(lp3185
g3179
a(lp3186
S'Okay'
p3187
aaa(lp3188
S'BRAD'
p3189
a(lp3190
S'Which'
p3191
aaa(lp3192
g3189
a(lp3193
S'you'
p3194
aS'have'
p3195
aS'to'
p3196
aS'pay'
p3197
aS'attention'
p3198
aS'to'
p3199
aS'what'
p3200
aS'youre'
p3201
aS'doing'
p3202
aaa(lp3203
S'TAMMY'
p3204
a(lp3205
S'Okay'
p3206
aaa(lp3207
g3204
a(lp3208
g8
aS'know'
p3209
aaa(lp3210
g3204
a(lp3211
S'Thats'
p3212
aS'right'
p3213
aaa(lp3214
g3204
a(lp3215
S'Yeah'
p3216
aaa(lp3217
S'BRAD'
p3218
a(lp3219
S'yeah'
p3220
aaa(lp3221
g3218
a(lp3222
S'but'
p3223
aS'at'
p3224
aS'least'
p3225
aS'you'
p3226
aS'have'
p3227
aS'that'
p3228
aS'flexibility'
p3229
aaa(lp3230
S'TAMMY'
p3231
a(lp3232
S'Okay'
p3233
aaa(lp3234
S'BRAD'
p3235
a(lp3236
S'And'
p3237
aS'so'
p3238
aS'it'
p3239
aS'sounds'
p3240
aS'like'
p3241
aaa(lp3242
S'TAMMY'
p3243
a(lp3244
aa(lp3245
S'BRADfrom'
p3246
a(lp3247
S'what'
p3248
aS'youve'
p3249
aS'told'
p3250
aS'me'
p3251
aaa(lp3252
g3246
a(lp3253
S'uh'
p3254
aaa(lp3255
g3246
a(lp3256
S'you'
p3257
aS'know'
p3258
aaa(lp3259
g3246
a(lp3260
S'about'
p3261
aS'youre'
p3262
aS'desire'
p3263
aS'to'
p3264
aS'make'
p3265
aaa(lp3266
g3246
a(lp3267
S'good'
p3268
aS'quality'
p3269
aS'copies'
p3270
aS'of'
p3271
aS'tapes'
p3272
aaa(lp3273
S'TAMMY'
p3274
a(lp3275
S'Mhm'
p3276
aaa(lp3277
g3274
a(lp3278
S'mhm'
p3279
aaa(lp3280
S'BRAD'
p3281
a(lp3282
S'this'
p3283
aS'is'
p3284
aS'gonna'
p3285
aS'be'
p3286
aS'the'
p3287
aS'tape'
p3288
aS'deck'
p3289
aaa(lp3290
S'TAMMYmhm'
p3291
a(lp3292
aa(lp3293
S'BRADthat'
p3294
a(lp3295
S'would'
p3296
aS'fit'
p3297
aS'your'
p3298
aS'needs'
p3299
aaa(lp3300
S'TAMMYmhm'
p3301
a(lp3302
aa(lp3303
S'BRAD'
p3304
a(lp3305
S'And'
p3306
aS'integrate'
p3307
aS'well'
p3308
aS'with'
p3309
aS'your'
p3310
aS'system'
p3311
aaa(lp3312
g3304
a(lp3313
S'and'
p3314
aaa(lp3315
S'TAMMY'
p3316
a(lp3317
S'right'
p3318
aaa(lp3319
S'BRADallow'
p3320
a(lp3321
S'the'
p3322
aS'remote'
p3323
aS'to'
p3324
aS'fully'
p3325
aS'control'
p3326
aS'it'
p3327
aaa(lp3328
S'TAMMY'
p3329
a(lp3330
S'Okay'
p3331
aaa(lp3332
g3329
a(lp3333
S'Well'
p3334
aS'what'
p3335
aS'youve'
p3336
aS'said'
p3337
aS'helps'
p3338
aS'me'
p3339
ag38
aS'lot'
p3340
aaa(lp3341
g3329
a(lp3342
g8
aS'actually'
p3343
aS'may'
p3344
aaa(lp3345
g3329
a(lp3346
g8
aS'mean'
p3347
aaa(lp3348
g3329
a(lp3349
g8
aS'dont'
p3350
aS'do'
p3351
aS'this'
p3352
aS'so'
p3353
aS'often'
p3354
aaa(lp3355
g3329
a(lp3356
S'And'
p3357
aS'it'
p3358
aS'may'
p3359
aS'well'
p3360
aS'be'
p3361
aS'that'
p3362
ag8
aaa(lp3363
g3329
a(lp3364
S'Id'
p3365
aS'do'
p3366
aS'better'
p3367
aaa(lp3368
g3329
a(lp3369
S'just'
p3370
aS'going'
p3371
aS'back'
p3372
aS'to'
p3373
aS'one'
p3374
aS'of'
p3375
aS'these'
p3376
aS'others'
p3377
aaa(lp3378
S'BRAD'
p3379
a(lp3380
S'Mhm'
p3381
aaa(lp3382
S'TAMMY'
p3383
a(lp3384
S'Um'
p3385
aaa(lp3386
g3383
a(lp3387
S'in'
p3388
aaa(lp3389
S'BRAD'
p3390
a(lp3391
S'The'
p3392
aS'oth'
p3393
aaa(lp3394
S'TAMMY'
p3395
a(lp3396
S'in'
p3397
aS'fact'
p3398
aaa(lp3399
g3395
a(lp3400
S'Im'
p3401
aaa(lp3402
S'BRADthe'
p3403
a(lp3404
S'oth'
p3405
aaa(lp3406
g3403
a(lp3407
S'the'
p3408
aS'other'
p3409
aS'thing'
p3410
ag8
aS'was'
p3411
aS'gonna'
p3412
aS'say'
p3413
aS'is'
p3414
aaa(lp3415
g3403
a(lp3416
S'is'
p3417
aS'it'
p3418
aaa(lp3419
g3403
a(lp3420
S'do'
p3421
aS'you'
p3422
aS'have'
p3423
aaa(lp3424
g3403
a(lp3425
S'um'
p3426
aaa(lp3427
g3403
a(lp3428
S'if'
p3429
aS'you'
p3430
aS'had'
p3431
aS'some'
p3432
aS'other'
p3433
aS'type'
p3434
aS'of'
p3435
aS'quality'
p3436
aS'cassette'
p3437
aS'deck'
p3438
aaa(lp3439
S'TAMMY'
p3440
a(lp3441
S'Mhm'
p3442
aaa(lp3443
S'BRAD'
p3444
a(lp3445
S'Even'
p3446
aS'if'
p3447
aS'it'
p3448
aS'was'
p3449
ag38
aaa(lp3450
g3444
a(lp3451
S'unf'
p3452
aaa(lp3453
S'TAMMY'
p3454
a(lp3455
S'mhm'
p3456
aaa(lp3457
S'BRAD'
p3458
a(lp3459
S'one'
p3460
aS'in'
p3461
aS'the'
p3462
aS'office'
p3463
aaa(lp3464
g3458
a(lp3465
S'or'
p3466
aS'uh'
p3467
aaa(lp3468
S'TAMMYmhm'
p3469
a(lp3470
aa(lp3471
g3469
a(lp3472
S'yeah'
p3473
aaa(lp3474
S'BRAD'
p3475
a(lp3476
g38
aS'portable'
p3477
aS'or'
p3478
aS'something'
p3479
aS'like'
p3480
aS'that'
p3481
aaa(lp3482
S'TAMMY'
p3483
a(lp3484
S'mhm'
p3485
aaa(lp3486
S'BRAD'
p3487
a(lp3488
g8
aS'could'
p3489
aS'somehow'
p3490
aS'hook'
p3491
aS'it'
p3492
aS'up'
p3493
aS'into'
p3494
aS'your'
p3495
aS'system'
p3496
aaa(lp3497
S'TAMMY'
p3498
a(lp3499
S'mhm'
p3500
aaa(lp3501
S'BRAD'
p3502
a(lp3503
S'So'
p3504
aS'you'
p3505
aS'could'
p3506
aS'tape'
p3507
aS'from'
p3508
aS'it'
p3509
aaa(lp3510
S'TAMMY'
p3511
a(lp3512
S'right'
p3513
aaa(lp3514
g3511
a(lp3515
S'Right'
p3516
aaa(lp3517
S'BRAD'
p3518
a(lp3519
S'to'
p3520
aaa(lp3521
g3518
a(lp3522
S'one'
p3523
aS'of'
p3524
aS'these'
p3525
aaa(lp3526
S'TAMMY'
p3527
a(lp3528
S'Right'
p3529
aaa(lp3530
g3527
a(lp3531
S'okay'
p3532
aaa(lp3533
g3527
a(lp3534
S'thats'
p3535
aS'possible'
p3536
aaa(lp3537
S'BRAD'
p3538
a(lp3539
S'And'
p3540
aaa(lp3541
g3538
a(lp3542
S'the'
p3543
aaa(lp3544
g3538
a(lp3545
S'the'
p3546
aS'prices'
p3547
ag8
aS'gave'
p3548
aS'you'
p3549
aS'were'
p3550
aS'the'
p3551
aaa(lp3552
g3538
a(lp3553
S'uh'
p3554
aaa(lp3555
g3538
a(lp3556
S'Luxman'
p3557
aS'suggested'
p3558
aS'prices'
p3559
aaa(lp3560
S'TAMMYRight'
p3561
a(lp3562
aa(lp3563
S'BRAD'
p3564
a(lp3565
S'since'
p3566
aS'youve'
p3567
aS'bought'
p3568
aS'ouple'
p3569
aS'pieces'
p3570
aS'here'
p3571
aaa(lp3572
S'TAMMYmhm'
p3573
a(lp3574
aa(lp3575
S'BRAD'
p3576
a(lp3577
S'and'
p3578
aS'also'
p3579
aS'been'
p3580
aS'through'
p3581
aS'the'
p3582
aS'fire'
p3583
aaa(lp3584
g3576
a(lp3585
S'Im'
p3586
aS'sure'
p3587
aS'we'
p3588
aS'can'
p3589
aS'work'
p3590
aS'something'
p3591
aS'else'
p3592
aS'out'
p3593
aS'for'
p3594
aS'you'
p3595
aaa(lp3596
S'TAMMY'
p3597
a(lp3598
S'mhm'
p3599
aaa(lp3600
S'BRADI'
p3601
a(lp3602
S'dont'
p3603
aS'know'
p3604
aaa(lp3605
S'TAMMY'
p3606
a(lp3607
S'okay'
p3608
aaa(lp3609
S'BRAD'
p3610
a(lp3611
aa(lp3612
g3610
a(lp3613
g131
aaa(lp3614
g3610
a(lp3615
S'lets'
p3616
aS'see'
p3617
aS'here'
p3618
aaa(lp3619
g3610
a(lp3620
S'um'
p3621
aaa(lp3622
g3610
a(lp3623
S'the'
p3624
aS'kay'
p3625
aS'one'
p3626
aS'eleven'
p3627
aaa(lp3628
g3610
a(lp3629
S'which'
p3630
aS'is'
p3631
aS'the'
p3632
aaa(lp3633
g3610
a(lp3634
S'the'
p3635
aS'basic'
p3636
aS'one'
p3637
aaa(lp3638
S'TAMMYRight'
p3639
a(lp3640
aa(lp3641
S'BRAD'
p3642
a(lp3643
S'but'
p3644
ag131
aaa(lp3645
g3642
a(lp3646
g8
aS'dont'
p3647
aaa(lp3648
g3642
a(lp3649
S'When'
p3650
ag8
aS'say'
p3651
aS'basic'
p3652
aaa(lp3653
g3642
a(lp3654
g8
aS'mean'
p3655
aS'basic'
p3656
aS'in'
p3657
aS'their'
p3658
aS'line'
p3659
aaa(lp3660
S'TAMMYRight'
p3661
a(lp3662
aa(lp3663
S'BRADits'
p3664
a(lp3665
S'still'
p3666
aS'very'
p3667
aS'good'
p3668
aaa(lp3669
S'TAMMYYeah'
p3670
a(lp3671
aa(lp3672
S'BRAD'
p3673
a(lp3674
S'uh'
p3675
aaa(lp3676
g3673
a(lp3677
S'youd'
p3678
aS'be'
p3679
aS'looking'
p3680
aS'at'
p3681
aS'three'
p3682
aS'hundred'
p3683
aS'fortynine'
p3684
aS'dollars'
p3685
aaa(lp3686
S'TAMMY'
p3687
a(lp3688
aa(lp3689
g3687
a(lp3690
S'nkay'
p3691
aaa(lp3692
S'BRAD'
p3693
a(lp3694
S'The'
p3695
aaa(lp3696
g3693
a(lp3697
S'uh'
p3698
aaa(lp3699
g3693
a(lp3700
S'lets'
p3701
aS'see'
p3702
aS'here'
p3703
aaa(lp3704
g3693
a(lp3705
S'the'
p3706
aS'kay'
p3707
aS'one'
p3708
aS'ten'
p3709
aaa(lp3710
S'TAMMYmhm'
p3711
a(lp3712
aa(lp3713
S'BRAD'
p3714
a(lp3715
S'uh'
p3716
aaa(lp3717
g3714
a(lp3718
S'we'
p3719
aS'could'
p3720
aS'do'
p3721
aS'four'
p3722
aS'hundred'
p3723
aS'and'
p3724
aS'fortyfive'
p3725
aaa(lp3726
S'TAMMY'
p3727
a(lp3728
S'right'
p3729
aaa(lp3730
S'BRAD'
p3731
a(lp3732
S'and'
p3733
aS'the'
p3734
aS'kay'
p3735
aS'one'
p3736
aS'ten'
p3737
aS'doubleu'
p3738
aaa(lp3739
g3731
a(lp3740
S'uh'
p3741
aS'we'
p3742
aS'could'
p3743
aS'do'
p3744
aS'five'
p3745
aS'thirty'
p3746
aS'nine'
p3747
aaa(lp3748
S'TAMMY'
p3749
a(lp3750
S'mhm'
p3751
aaa(lp3752
g3749
a(lp3753
S'okay'
p3754
aaa(lp3755
g3749
a(lp3756
S'Well'
p3757
aaa(lp3758
g3749
a(lp3759
S'that'
p3760
aS'looks'
p3761
aS'great'
p3762
aaa(lp3763
S'BRAD'
p3764
a(lp3765
S'And'
p3766
ag8
aS'th'
p3767
aaa(lp3768
g3764
a(lp3769
g8
aS'believe'
p3770
aaa(lp3771
g3764
a(lp3772
S'theres'
p3773
aS'one'
p3774
aS'that'
p3775
aS'we'
p3776
aS'didnt'
p3777
aS'talk'
p3778
aS'about'
p3779
aaa(lp3780
g3764
a(lp3781
S'and'
p3782
aS'thats'
p3783
aS'the'
p3784
aS'kay'
p3785
aS'one'
p3786
aS'twelve'
p3787
aaa(lp3788
S'TAMMY'
p3789
a(lp3790
S'Mhm'
p3791
aaa(lp3792
S'BRAD'
p3793
a(lp3794
S'Okay'
p3795
aaa(lp3796
g3793
a(lp3797
S'and'
p3798
aS'the'
p3799
aS'kay'
p3800
aS'one'
p3801
aS'twelve'
p3802
aS'is'
p3803
aS'basically'
p3804
aS'the'
p3805
aS'audiophiles'
p3806
aS'dream'
p3807
aS'cassette'
p3808
aS'deck'
p3809
aaa(lp3810
S'TAMMY'
p3811
a(lp3812
aa(lp3813
S'BRAD'
p3814
a(lp3815
S'Okay'
p3816
aaa(lp3817
S'TAMMY'
p3818
a(lp3819
S'mhm'
p3820
aaa(lp3821
S'BRADits'
p3822
a(lp3823
g38
aaa(lp3824
g3822
a(lp3825
S'its'
p3826
ag38
aS'single'
p3827
aS'cassette'
p3828
aaa(lp3829
g3822
a(lp3830
S'and'
p3831
aS'its'
p3832
aS'single'
p3833
aS'direction'
p3834
aaa(lp3835
S'TAMMYmhm'
p3836
a(lp3837
aa(lp3838
S'BRAD'
p3839
a(lp3840
S'where'
p3841
aS'it'
p3842
aS'doesnt'
p3843
aS'flip'
p3844
aS'over'
p3845
aS'by'
p3846
aS'itself'
p3847
aaa(lp3848
S'TAMMY'
p3849
a(lp3850
S'right'
p3851
aaa(lp3852
S'BRAD'
p3853
a(lp3854
S'What'
p3855
aS'sets'
p3856
aS'it'
p3857
aS'apart'
p3858
aaa(lp3859
g3853
a(lp3860
S'is'
p3861
aS'it'
p3862
aS'has'
p3863
aS'three'
p3864
aS'discrete'
p3865
aS'heads'
p3866
aaa(lp3867
S'TAMMY'
p3868
a(lp3869
S'hunh'
p3870
aaa(lp3871
S'BRAD'
p3872
a(lp3873
S'Okay'
p3874
aaa(lp3875
g3872
a(lp3876
S'and'
p3877
aS'this'
p3878
aS'will'
p3879
aS'make'
p3880
ag38
aS'superior'
p3881
aS'tape'
p3882
aS'copy'
p3883
aaa(lp3884
S'TAMMYHm'
p3885
a(lp3886
aa(lp3887
S'BRAD'
p3888
a(lp3889
S'um'
p3890
aaa(lp3891
g3888
a(lp3892
S'or'
p3893
ag38
aS'superior'
p3894
aS'tape'
p3895
aS'period'
p3896
aaa(lp3897
g3888
a(lp3898
S'Um'
p3899
aaa(lp3900
S'TAMMY'
p3901
a(lp3902
S'Hm'
p3903
aaa(lp3904
S'BRAD'
p3905
a(lp3906
S'because'
p3907
aS'it'
p3908
aS'has'
p3909
aS'three'
p3910
aS'heads'
p3911
aaa(lp3912
S'TAMMY'
p3913
a(lp3914
S'Hm'
p3915
aaa(lp3916
S'BRAD'
p3917
a(lp3918
S'And'
p3919
aS'what'
p3920
aS'it'
p3921
aS'does'
p3922
aaa(lp3923
g3917
a(lp3924
S'is'
p3925
aS'that'
p3926
aS'it'
p3927
aS'has'
p3928
ag38
aS'separate'
p3929
aS'head'
p3930
aS'for'
p3931
aS'record'
p3932
aaa(lp3933
g3917
a(lp3934
g38
aS'separate'
p3935
aS'head'
p3936
aS'for'
p3937
aS'play'
p3938
aaa(lp3939
S'TAMMY'
p3940
a(lp3941
S'Hm'
p3942
aaa(lp3943
S'BRADWhere'
p3944
a(lp3945
S'most'
p3946
aS'decks'
p3947
aS'have'
p3948
ag38
aS'combination'
p3949
aS'record'
p3950
aS'play'
p3951
aS'head'
p3952
aaa(lp3953
S'TAMMY'
p3954
a(lp3955
S'Unhunh'
p3956
aaa(lp3957
S'BRAD'
p3958
a(lp3959
S'And'
p3960
aaa(lp3961
g3958
a(lp3962
S'um'
p3963
aaa(lp3964
g3958
a(lp3965
S'this'
p3966
aS'also'
p3967
aS'has'
p3968
aS'some'
p3969
aS'adjustments'
p3970
aS'on'
p3971
aS'it'
p3972
aaa(lp3973
g3958
a(lp3974
S'uh'
p3975
aS'such'
p3976
aS'as'
p3977
aS'bias'
p3978
aS'fine'
p3979
aS'trim'
p3980
aaa(lp3981
S'TAMMY'
p3982
a(lp3983
S'Hm'
p3984
aaa(lp3985
S'BRAD'
p3986
a(lp3987
S'uh'
p3988
aaa(lp3989
g3986
a(lp3990
S'which'
p3991
aS'allows'
p3992
aS'you'
p3993
aS'to'
p3994
aaa(lp3995
g3986
a(lp3996
S'tailor'
p3997
aS'the'
p3998
aS'cassette'
p3999
aS'decks'
p4000
aS'electronics'
p4001
aaa(lp4002
g3986
a(lp4003
S'to'
p4004
aS'the'
p4005
aS'specific'
p4006
aS'tape'
p4007
aS'youre'
p4008
aS'using'
p4009
aaa(lp4010
S'TAMMYMhm'
p4011
a(lp4012
aa(lp4013
S'BRAD'
p4014
a(lp4015
S'So'
p4016
aS'obviously'
p4017
aS'you'
p4018
aS'can'
p4019
aS'see'
p4020
aS'theres'
p4021
aaa(lp4022
S'TAMMYright'
p4023
a(lp4024
aa(lp4025
S'BRAD'
p4026
a(lp4027
g38
aS'b'
p4028
aaa(lp4029
g4026
a(lp4030
g38
aS'bit'
p4031
aS'more'
p4032
aS'involved'
p4033
aS'with'
p4034
aS'it'
p4035
aaa(lp4036
S'TAMMY'
p4037
a(lp4038
S'Yeah'
p4039
aaa(lp4040
g4037
a(lp4041
S'Yeah'
p4042
aaa(lp4043
S'BRAD'
p4044
a(lp4045
S'For'
p4046
aS'the'
p4047
aS'purist'
p4048
aaa(lp4049
g4044
a(lp4050
S'this'
p4051
aS'is'
p4052
aS'the'
p4053
aS'way'
p4054
aS'to'
p4055
aS'go'
p4056
aaa(lp4057
g4044
a(lp4058
S'YWN'
p4059
aS'Here'
p4060
aS'youre'
p4061
aS'looking'
p4062
aS'at'
p4063
aS'six'
p4064
aS'hundred'
p4065
aS'dollars'
p4066
aS'YWN'
p4067
aaa(lp4068
S'TAMMY'
p4069
a(lp4070
S'Okay'
p4071
aaa(lp4072
S'BRAD'
p4073
a(lp4074
aa(lp4075
S'TAMMYOkay'
p4076
a(lp4077
aa(lp4078
g4076
a(lp4079
S'Right'
p4080
aaa(lp4081
g4076
a(lp4082
S'Okay'
p4083
aaa(lp4084
g4076
a(lp4085
S'well'
p4086
aS'this'
p4087
aS'is'
p4088
aS'very'
p4089
aS'helpful'
p4090
aaa(lp4091
g4076
a(lp4092
S'Let'
p4093
aS'me'
p4094
aS'ask'
p4095
aS'you'
p4096
aS'one'
p4097
aS'other'
p4098
aS'thing'
p4099
aaa(lp4100
S'BRAD'
p4101
a(lp4102
g30
aaa(lp4103
S'TAMMY'
p4104
a(lp4105
S'Suppose'
p4106
aS'that'
p4107
aaa(lp4108
g4104
a(lp4109
g8
aS'wanna'
p4110
aS'use'
p4111
aS'this'
p4112
aS'tape'
p4113
aS'deck'
p4114
aaa(lp4115
g4104
a(lp4116
S'to'
p4117
aS'record'
p4118
aaa(lp4119
g4104
a(lp4120
S'um'
p4121
aaa(lp4122
g4104
a(lp4123
S'conversation'
p4124
aaa(lp4125
g4104
a(lp4126
S'Like'
p4127
aS'we'
p4128
aS'do'
p4129
aS'in'
p4130
aaa(lp4131
g4104
a(lp4132
g30
aS'in'
p4133
ag30
aS'linguistics'
p4134
aaa(lp4135
g4104
a(lp4136
S'Between'
p4137
aS'Matt'
p4138
aS'and'
p4139
aS'me'
p4140
aaa(lp4141
g4104
a(lp4142
S'or'
p4143
aS'something'
p4144
aS'like'
p4145
aS'that'
p4146
aaa(lp4147
S'BRAD'
p4148
a(lp4149
S'Okay'
p4150
aaa(lp4151
S'TAMMYThen'
p4152
a(lp4153
aa(lp4154
g4152
a(lp4155
S'how'
p4156
aS'does'
p4157
aS'it'
p4158
aS'work'
p4159
aaa(lp4160
g4152
a(lp4161
S'Lets'
p4162
aS'say'
p4163
aS'go'
p4164
aS'back'
p4165
aS'to'
p4166
aS'the'
p4167
aS'kay'
p4168
aS'one'
p4169
aS'ten'
p4170
aaa(lp4171
S'BRAD'
p4172
a(lp4173
S'Uh'
p4174
aaa(lp4175
S'TAMMY'
p4176
a(lp4177
S'Or'
p4178
aS'the'
p4179
aS'one'
p4180
aaa(lp4181
S'BRADtheres'
p4182
a(lp4183
S'one'
p4184
aS'deck'
p4185
aS'here'
p4186
aaa(lp4187
g4182
a(lp4188
g8
aS'think'
p4189
aaa(lp4190
g4182
a(lp4191
S'thats'
p4192
aS'set'
p4193
aS'up'
p4194
aS'for'
p4195
aS'that'
p4196
aaa(lp4197
S'TAMMY'
p4198
a(lp4199
S'or'
p4200
aS'the'
p4201
aS'one'
p4202
aS'el'
p4203
aS'eleven'
p4204
aaa(lp4205
S'BRAD'
p4206
a(lp4207
S'Lets'
p4208
aS'take'
p4209
ag38
aS'look'
p4210
aS'here'
p4211
aaa(lp4212
g4206
a(lp4213
S'The'
p4214
aS'kay'
p4215
aS'one'
p4216
aS'ten'
p4217
aaa(lp4218
S'TAMMY'
p4219
a(lp4220
S'Mhm'
p4221
aaa(lp4222
S'BRAD'
p4223
a(lp4224
S'has'
p4225
aS'provisions'
p4226
aaa(lp4227
g4223
a(lp4228
S'for'
p4229
aS'microphones'
p4230
aaa(lp4231
g4223
a(lp4232
S'on'
p4233
aS'the'
p4234
aS'front'
p4235
aaa(lp4236
S'TAMMYunhunh'
p4237
a(lp4238
aa(lp4239
S'BRAD'
p4240
a(lp4241
S'And'
p4242
aS'its'
p4243
aS'one'
p4244
aS'of'
p4245
aS'the'
p4246
aS'few'
p4247
aS'cassette'
p4248
aS'decks'
p4249
aaa(lp4250
S'TAMMYOkay'
p4251
a(lp4252
aa(lp4253
S'BRADmade'
p4254
a(lp4255
S'for'
p4256
aS'the'
p4257
aS'consumer'
p4258
aS'hi'
p4259
aS'fi'
p4260
aS'market'
p4261
aS'today'
p4262
aaa(lp4263
S'TAMMY'
p4264
a(lp4265
aa(lp4266
S'BRADthat'
p4267
a(lp4268
S'do'
p4269
aS'have'
p4270
aS'that'
p4271
aaa(lp4272
S'TAMMYokay'
p4273
a(lp4274
aa(lp4275
S'BRAD'
p4276
a(lp4277
S'And'
p4278
aS'so'
p4279
aaa(lp4280
g4276
a(lp4281
S'you'
p4282
aS'can'
p4283
aS'plug'
p4284
aS'in'
p4285
aS'one'
p4286
aS'microphone'
p4287
aaa(lp4288
S'TAMMY'
p4289
a(lp4290
S'Yeah'
p4291
aaa(lp4292
S'BRAD'
p4293
a(lp4294
S'uh'
p4295
aaa(lp4296
g4293
a(lp4297
S'where'
p4298
aS'it'
p4299
aS'has'
p4300
ag38
aS'position'
p4301
aaa(lp4302
g4293
a(lp4303
S'uh'
p4304
aaa(lp4305
g4293
a(lp4306
S'thats'
p4307
aS'mono'
p4308
aaa(lp4309
S'TAMMY'
p4310
a(lp4311
S'Mhhunh'
p4312
aaa(lp4313
S'BRAD'
p4314
a(lp4315
S'and'
p4316
aS'it'
p4317
aS'will'
p4318
aS'record'
p4319
aS'it'
p4320
aS'on'
p4321
aS'both'
p4322
aS'tracks'
p4323
aS'of'
p4324
aS'it'
p4325
aaa(lp4326
S'TAMMY'
p4327
a(lp4328
S'Mhm'
p4329
aaa(lp4330
S'BRAD'
p4331
a(lp4332
aa(lp4333
S'TAMMYmhm'
p4334
a(lp4335
aa(lp4336
S'BRADand'
p4337
a(lp4338
S'then'
p4339
aS'if'
p4340
aS'you'
p4341
aS'want'
p4342
aaa(lp4343
S'TAMMYhm'
p4344
a(lp4345
aa(lp4346
S'BRADyou'
p4347
a(lp4348
S'can'
p4349
aS'plug'
p4350
aS'in'
p4351
aS'two'
p4352
aS'mics'
p4353
aaa(lp4354
g4347
a(lp4355
S'and'
p4356
aS'it'
p4357
aS'senses'
p4358
aS'when'
p4359
aS'you'
p4360
aS'plug'
p4361
aS'in'
p4362
aS'the'
p4363
aS'second'
p4364
aS'mic'
p4365
aaa(lp4366
S'TAMMY'
p4367
a(lp4368
S'Hm'
p4369
aaa(lp4370
g4367
a(lp4371
S'okay'
p4372
aaa(lp4373
S'BRADand'
p4374
a(lp4375
S'so'
p4376
aS'itll'
p4377
aS'record'
p4378
aS'in'
p4379
aS'stereo'
p4380
aaa(lp4381
S'TAMMY'
p4382
a(lp4383
aa(lp4384
g4382
a(lp4385
S'Okay'
p4386
aaa(lp4387
S'BRAD'
p4388
a(lp4389
S'And'
p4390
aS'then'
p4391
aS'it'
p4392
aS'has'
p4393
ag38
aS'record'
p4394
aS'level'
p4395
aS'on'
p4396
aS'it'
p4397
aaa(lp4398
S'TAMMYHmhm'
p4399
a(lp4400
aa(lp4401
S'BRAD'
p4402
a(lp4403
S'so'
p4404
aS'you'
p4405
aS'can'
p4406
aS'adjust'
p4407
aS'the'
p4408
aS'record'
p4409
aS'level'
p4410
aaa(lp4411
S'TAMMY'
p4412
a(lp4413
S'mhm'
p4414
aaa(lp4415
S'BRADdependent'
p4416
a(lp4417
S'on'
p4418
aS'how'
p4419
aS'loud'
p4420
aS'youre'
p4421
aS'talking'
p4422
aaa(lp4423
S'TAMMY'
p4424
a(lp4425
S'mhm'
p4426
aaa(lp4427
S'BRAD'
p4428
a(lp4429
S'and'
p4430
aS'then'
p4431
aS'also'
p4432
aS'the'
p4433
aS'type'
p4434
aS'of'
p4435
aS'tape'
p4436
aS'youre'
p4437
aS'using'
p4438
aaa(lp4439
S'TAMMYmhm'
p4440
a(lp4441
aa(lp4442
S'BRAD'
p4443
a(lp4444
S'and'
p4445
aS'the'
p4446
aS'level'
p4447
aS'you'
p4448
aS'want'
p4449
aS'on'
p4450
aS'the'
p4451
aS'tape'
p4452
aaa(lp4453
S'TAMMY'
p4454
a(lp4455
S'hm'
p4456
aaa(lp4457
g4454
a(lp4458
S'Hm'
p4459
aaa(lp4460
S'BRAD'
p4461
a(lp4462
S'Uh'
p4463
aaa(lp4464
g4461
a(lp4465
S'so'
p4466
aS'the'
p4467
aS'kay'
p4468
aS'one'
p4469
aS'ten'
p4470
aS'would'
p4471
aS'be'
p4472
aS'set'
p4473
aS'up'
p4474
aS'for'
p4475
aS'that'
p4476
aaa(lp4477
S'TAMMYHunh'
p4478
a(lp4479
aa(lp4480
S'BRAD'
p4481
a(lp4482
S'Any'
p4483
aS'of'
p4484
aS'the'
p4485
aS'other'
p4486
aaa(lp4487
g4481
a(lp4488
S'um'
p4489
aaa(lp4490
g4481
a(lp4491
S'cassette'
p4492
aS'decks'
p4493
aS'here'
p4494
aaa(lp4495
S'TAMMYMhm'
p4496
a(lp4497
aa(lp4498
S'BRAD'
p4499
a(lp4500
S'the'
p4501
aS'kay'
p4502
aS'one'
p4503
aS'eleven'
p4504
aS'has'
p4505
aS'it'
p4506
aS'too'
p4507
aaa(lp4508
g4499
a(lp4509
g8
aS'Take'
p4510
aaa(lp4511
S'TAMMYhunh'
p4512
a(lp4513
aa(lp4514
S'BRADI'
p4515
a(lp4516
aa(lp4517
g4515
a(lp4518
g8
aS'take'
p4519
aS'it'
p4520
aS'back'
p4521
aaa(lp4522
S'TAMMY'
p4523
a(lp4524
S'Huh'
p4525
aaa(lp4526
S'BRADI'
p4527
a(lp4528
S'didnt'
p4529
aS'think'
p4530
aS'the'
p4531
aS'kay'
p4532
aS'ele'
p4533
aS'lev'
p4534
aS'one'
p4535
aS'eleven'
p4536
aS'did'
p4537
aaa(lp4538
S'TAMMY'
p4539
a(lp4540
S'Unhunh'
p4541
aaa(lp4542
g4539
a(lp4543
S'unhunh'
p4544
aaa(lp4545
S'BRAD'
p4546
a(lp4547
S'Okay'
p4548
aS'its'
p4549
aS'the'
p4550
aaa(lp4551
g4546
a(lp4552
S'its'
p4553
aS'the'
p4554
aS'dual'
p4555
aS'one'
p4556
aS'that'
p4557
aS'doesnt'
p4558
aaa(lp4559
S'TAMMY'
p4560
a(lp4561
S'okay'
p4562
aaa(lp4563
S'BRAD'
p4564
a(lp4565
S'The'
p4566
aS'dual'
p4567
aS'one'
p4568
aS'does'
p4569
aS'not'
p4570
aS'have'
p4571
aS'those'
p4572
aS'provisions'
p4573
aaa(lp4574
g4564
a(lp4575
S'now'
p4576
aS'that'
p4577
aS'doesnt'
p4578
aS'mean'
p4579
aS'that'
p4580
aS'it'
p4581
aS'cannot'
p4582
aS'be'
p4583
aS'done'
p4584
aaa(lp4585
S'TAMMY'
p4586
a(lp4587
S'Right'
p4588
aaa(lp4589
S'BRAD'
p4590
a(lp4591
S'What'
p4592
aS'has'
p4593
aS'to'
p4594
aS'happen'
p4595
aS'then'
p4596
aS'is'
p4597
aaa(lp4598
g4590
a(lp4599
S'uh'
p4600
aaa(lp4601
g4590
a(lp4602
S'one'
p4603
ag38
aaa(lp4604
S'TAMMY'
p4605
a(lp4606
S'Mhm'
p4607
aaa(lp4608
S'BRADa'
p4609
a(lp4610
S'separate'
p4611
aS'outboard'
p4612
aS'piece'
p4613
aaa(lp4614
g4609
a(lp4615
S'called'
p4616
ag38
aS'microphone'
p4617
aS'amp'
p4618
aaa(lp4619
S'TAMMYokay'
p4620
a(lp4621
aa(lp4622
S'BRAD'
p4623
a(lp4624
S'Okay'
p4625
aaa(lp4626
g4623
a(lp4627
S'and'
p4628
aS'so'
p4629
aS'what'
p4630
aS'happens'
p4631
aS'is'
p4632
aaa(lp4633
g4623
a(lp4634
S'your'
p4635
aS'mic'
p4636
aS'runs'
p4637
aS'into'
p4638
aS'it'
p4639
aaa(lp4640
S'TAMMYMhm'
p4641
a(lp4642
aa(lp4643
S'BRAD'
p4644
a(lp4645
S'and'
p4646
aS'then'
p4647
aS'it'
p4648
aS'plugs'
p4649
aS'into'
p4650
aS'your'
p4651
aS'receiver'
p4652
aaa(lp4653
S'TAMMYmhm'
p4654
a(lp4655
aa(lp4656
S'BRADinto'
p4657
a(lp4658
S'one'
p4659
aS'of'
p4660
aS'its'
p4661
aS'inputs'
p4662
aaa(lp4663
S'TAMMY'
p4664
a(lp4665
S'okay'
p4666
aaa(lp4667
S'BRAD'
p4668
a(lp4669
S'And'
p4670
aS'so'
p4671
aS'one'
p4672
aS'of'
p4673
aS'your'
p4674
aS'inputs'
p4675
aS'on'
p4676
aS'your'
p4677
aS'receiver'
p4678
aaa(lp4679
S'TAMMY'
p4680
a(lp4681
aa(lp4682
S'BRAD'
p4683
a(lp4684
S'lets'
p4685
aS'say'
p4686
aS'tape'
p4687
aS'two'
p4688
aaa(lp4689
S'TODDYELL'
p4690
a(lp4691
g30
aS'Paul'
p4692
ag30
aaa(lp4693
S'TAMMYMhm'
p4694
a(lp4695
aa(lp4696
S'BRADwould'
p4697
a(lp4698
S'actually'
p4699
aS'be'
p4700
ag38
aS'microphone'
p4701
aaa(lp4702
S'TODD'
p4703
a(lp4704
S'run'
p4705
aaa(lp4706
g4703
a(lp4707
S'run'
p4708
aaa(lp4709
S'TAMMYmhm'
p4710
a(lp4711
aa(lp4712
S'TODDYeah'
p4713
a(lp4714
aa(lp4715
S'BRAD'
p4716
a(lp4717
S'And'
p4718
aS'so'
p4719
aS'you'
p4720
aS'would'
p4721
aS'hit'
p4722
aS'that'
p4723
aaa(lp4724
S'TODDYeah'
p4725
a(lp4726
aa(lp4727
S'TAMMY'
p4728
a(lp4729
S'mhm'
p4730
aaa(lp4731
S'BRAD'
p4732
a(lp4733
S'and'
p4734
aS'that'
p4735
aS'would'
p4736
aaa(lp4737
g4732
a(lp4738
S'um'
p4739
aaa(lp4740
S'TODD'
p4741
a(lp4742
S'Paul'
p4743
aS'saved'
p4744
aS'my'
p4745
aS'ass'
p4746
aS'YELL'
p4747
aaa(lp4748
S'BRAD'
p4749
a(lp4750
S'go'
p4751
aS'over'
p4752
aaa(lp4753
S'TAMMY'
p4754
a(lp4755
S'mhm'
p4756
aaa(lp4757
S'BRADum'
p4758
a(lp4759
aa(lp4760
S'TAMMY'
p4761
a(lp4762
S'nkay'
p4763
aaa(lp4764
S'BRAD'
p4765
a(lp4766
S'into'
p4767
aS'your'
p4768
aS'tape'
p4769
aS'deck'
p4770
aaa(lp4771
g4765
a(lp4772
S'if'
p4773
aS'you'
p4774
aS'wanted'
p4775
aS'to'
p4776
aS'record'
p4777
ag38
aS'tape'
p4778
aaa(lp4779
S'TAMMY'
p4780
a(lp4781
S'Right'
p4782
aaa(lp4783
g4780
a(lp4784
S'Right'
p4785
aaa(lp4786
g4780
a(lp4787
S'Okay'
p4788
aaa(lp4789
g4780
a(lp4790
S'So'
p4791
aS'um'
p4792
aaa(lp4793
g4780
a(lp4794
g2008
aaa(lp4795
S'BRAD'
p4796
a(lp4797
S'So'
p4798
aS'the'
p4799
aS'kay'
p4800
aS'one'
p4801
aS'ten'
p4802
aaa(lp4803
g4796
a(lp4804
S'which'
p4805
aS'is'
p4806
aS'the'
p4807
aS'single'
p4808
aS'auto'
p4809
aS'reverse'
p4810
aaa(lp4811
S'TAMMY'
p4812
a(lp4813
S'Yeah'
p4814
aaa(lp4815
S'BRADhas'
p4816
a(lp4817
S'the'
p4818
aS'mic'
p4819
aS'provisions'
p4820
aaa(lp4821
S'TAMMYRight'
p4822
a(lp4823
aa(lp4824
S'BRAD'
p4825
a(lp4826
S'has'
p4827
aS'the'
p4828
aS'mic'
p4829
aS'provisions'
p4830
aaa(lp4831
S'TAMMYAnd'
p4832
a(lp4833
S'sos'
p4834
aS'the'
p4835
aS'kay'
p4836
aS'one'
p4837
aaa(lp4838
g4832
a(lp4839
S'Okay'
p4840
aaa(lp4841
g4832
a(lp4842
S'Great'
p4843
aaa(lp4844
g4832
a(lp4845
S'Okay'
p4846
aaa(lp4847
S'BRAD'
p4848
a(lp4849
S'The'
p4850
ag4028
aaa(lp4851
g4848
a(lp4852
S'the'
p4853
aS'benefit'
p4854
aS'of'
p4855
aS'the'
p4856
aS'one'
p4857
aS'ten'
p4858
aaa(lp4859
g4848
a(lp4860
S'The'
p4861
aS'big'
p4862
aS'benefit'
p4863
aS'is'
p4864
aS'the'
p4865
aS'auto'
p4866
aS'reverse'
p4867
aaa(lp4868
S'TAMMY'
p4869
a(lp4870
S'Right'
p4871
aaa(lp4872
S'BRAD'
p4873
a(lp4874
S'Um'
p4875
aaa(lp4876
S'TAMMY'
p4877
a(lp4878
S'Im'
p4879
aS'one'
p4880
aS'of'
p4881
aS'these'
p4882
aS'weird'
p4883
aS'people'
p4884
aS'that'
p4885
aS'has'
p4886
aS'trouble'
p4887
aS'with'
p4888
aS'auto'
p4889
aS'reverse'
p4890
aaa(lp4891
S'BRAD'
p4892
a(lp4893
S'oh'
p4894
aS'yeah'
p4895
aaa(lp4896
S'TAMMYI'
p4897
a(lp4898
S'dont'
p4899
aS'know'
p4900
aS'why'
p4901
aaa(lp4902
g4897
a(lp4903
S'The'
p4904
aS'first'
p4905
aS'time'
p4906
aaa(lp4907
g4897
a(lp4908
g8
aS'mean'
p4909
aaa(lp4910
g4897
a(lp4911
S'this'
p4912
aS'is'
p4913
aS'the'
p4914
aS'first'
p4915
aS'time'
p4916
aS'Ive'
p4917
aS'had'
p4918
aS'it'
p4919
aaa(lp4920
g4897
a(lp4921
S'on'
p4922
aS'my'
p4923
aS'boombox'
p4924
aaa(lp4925
g4897
a(lp4926
S'And'
p4927
aS'for'
p4928
aS'some'
p4929
aS'reason'
p4930
aaa(lp4931
g4897
a(lp4932
S'maybe'
p4933
ag8
aS'just'
p4934
aS'have'
p4935
aS'to'
p4936
aS'learn'
p4937
aaa(lp4938
g4897
a(lp4939
S'when'
p4940
ag8
aS'put'
p4941
aS'the'
p4942
aS'tape'
p4943
aS'in'
p4944
aaa(lp4945
g4897
a(lp4946
g8
aS'never'
p4947
aS'know'
p4948
aS'which'
p4949
aS'direction'
p4950
aS'its'
p4951
aS'gonna'
p4952
aS'go'
p4953
aaa(lp4954
g4897
a(lp4955
S'So'
p4956
ag8
aS'have'
p4957
ag38
aS'hard'
p4958
aS'time'
p4959
aS'finding'
p4960
aaa(lp4961
S'BRADWhat'
p4962
a(lp4963
S'you'
p4964
aS'want'
p4965
aaa(lp4966
S'TAMMYmaking'
p4967
a(lp4968
S'it'
p4969
aS'play'
p4970
aS'what'
p4971
ag8
aS'want'
p4972
aS'it'
p4973
aS'to'
p4974
aS'play'
p4975
aaa(lp4976
S'BRAD'
p4977
a(lp4978
S'Okay'
p4979
aaa(lp4980
g4977
a(lp4981
S'The'
p4982
aS'way'
p4983
aS'it'
p4984
aS'usually'
p4985
aS'works'
p4986
aS'is'
p4987
aaa(lp4988
S'TAMMY'
p4989
a(lp4990
aa(lp4991
S'BRAD'
p4992
a(lp4993
S'um'
p4994
aaa(lp4995
S'TAMMY'
p4996
a(lp4997
aa(lp4998
S'BRADthe'
p4999
a(lp5000
S'side'
p5001
aS'of'
p5002
aS'the'
p5003
aS'tape'
p5004
aS'thats'
p5005
aS'out'
p5006
aaa(lp5007
g4999
a(lp5008
S'Or'
p5009
aS'facing'
p5010
aS'you'
p5011
aaa(lp5012
g4999
a(lp5013
S'that'
p5014
aS'label'
p5015
aS'side'
p5016
aaa(lp5017
S'TAMMY'
p5018
a(lp5019
S'Mhm'
p5020
aaa(lp5021
g5018
a(lp5022
S'mhm'
p5023
aaa(lp5024
S'BRAD'
p5025
a(lp5026
S'corresponds'
p5027
aS'with'
p5028
aS'the'
p5029
aS'arrow'
p5030
aaa(lp5031
g5025
a(lp5032
S'that'
p5033
aS'will'
p5034
aS'point'
p5035
aS'to'
p5036
aS'the'
p5037
aS'right'
p5038
aaa(lp5039
g5025
a(lp5040
S'Theres'
p5041
aS'usually'
p5042
aS'two'
p5043
aS'little'
p5044
aS'arrows'
p5045
aS'that'
p5046
aS'will'
p5047
aS'light'
p5048
aS'up'
p5049
aaa(lp5050
S'TAMMY'
p5051
a(lp5052
S'nkay'
p5053
aaa(lp5054
g5051
a(lp5055
S'Yeah'
p5056
aaa(lp5057
S'BRADtelling'
p5058
a(lp5059
S'you'
p5060
aS'which'
p5061
aS'direction'
p5062
aS'its'
p5063
aS'playing'
p5064
aaa(lp5065
S'TAMMY'
p5066
a(lp5067
S'right'
p5068
aaa(lp5069
g5066
a(lp5070
S'Right'
p5071
aaa(lp5072
S'BRAD'
p5073
a(lp5074
S'Okay'
p5075
aS'the'
p5076
aS'arrow'
p5077
aS'that'
p5078
aS'points'
p5079
aS'to'
p5080
aS'the'
p5081
aS'right'
p5082
aaa(lp5083
S'TAMMY'
p5084
a(lp5085
g8
aS'see'
p5086
aaa(lp5087
S'BRAD'
p5088
a(lp5089
S'is'
p5090
aaa(lp5091
g5088
a(lp5092
S'the'
p5093
aS'label'
p5094
aS'side'
p5095
aS'of'
p5096
aS'the'
p5097
aS'tape'
p5098
aS'thats'
p5099
aS'facing'
p5100
aS'you'
p5101
aaa(lp5102
S'TAMMY'
p5103
a(lp5104
S'Okay'
p5105
aaa(lp5106
S'BRAD'
p5107
a(lp5108
S'That'
p5109
aS'you'
p5110
aS'can'
p5111
aS'see'
p5112
aaa(lp5113
S'TAMMYOkay'
p5114
a(lp5115
aa(lp5116
S'BRAD'
p5117
a(lp5118
S'Okay'
p5119
aS'thats'
p5120
aS'the'
p5121
aS'way'
p5122
aS'it'
p5123
aS'usually'
p5124
aS'works'
p5125
aaa(lp5126
S'TAMMY'
p5127
a(lp5128
S'Okay'
p5129
aaa(lp5130
S'BRAD'
p5131
a(lp5132
S'Now'
p5133
aS'the'
p5134
aS'other'
p5135
aS'thing'
p5136
aS'that'
p5137
aS'throws'
p5138
aS'people'
p5139
aS'off'
p5140
aS'is'
p5141
aaa(lp5142
S'TAMMY'
p5143
a(lp5144
aa(lp5145
S'BRAD'
p5146
a(lp5147
S'fast'
p5148
aS'forward'
p5149
aS'and'
p5150
aS'rewind'
p5151
aaa(lp5152
S'TAMMYMhm'
p5153
a(lp5154
aa(lp5155
S'BRAD'
p5156
a(lp5157
S'will'
p5158
aS'vary'
p5159
aaa(lp5160
g5156
a(lp5161
S'depending'
p5162
aS'on'
p5163
aS'which'
p5164
aS'side'
p5165
aS'of'
p5166
aS'the'
p5167
aS'tape'
p5168
aS'youre'
p5169
aS'on'
p5170
aaa(lp5171
S'TAMMY'
p5172
a(lp5173
S'right'
p5174
aaa(lp5175
g5172
a(lp5176
S'Right'
p5177
aaa(lp5178
g5172
a(lp5179
S'Right'
p5180
aaa(lp5181
S'BRAD'
p5182
a(lp5183
S'Okay'
p5184
aaa(lp5185
g5182
a(lp5186
S'thats'
p5187
aS'what'
p5188
aS'throws'
p5189
aS'people'
p5190
aS'off'
p5191
aaa(lp5192
S'TAMMY'
p5193
a(lp5194
S'Yeah'
p5195
aaa(lp5196
S'BRAD'
p5197
a(lp5198
S'all'
p5199
aS'the'
p5200
aS'time'
p5201
aaa(lp5202
S'TAMMY'
p5203
a(lp5204
S'Yeah'
p5205
aaa(lp5206
g5203
a(lp5207
g8
aS'just'
p5208
aS'um'
p5209
aaa(lp5210
g5203
a(lp5211
S'Ill'
p5212
aaa(lp5213
g5203
a(lp5214
S'Ill'
p5215
aS'work'
p5216
aS'on'
p5217
aS'getting'
p5218
aS'used'
p5219
aS'to'
p5220
aS'that'
p5221
aaa(lp5222
g5203
a(lp5223
S'But'
p5224
ag8
aS'just'
p5225
aS'might'
p5226
aS'go'
p5227
aS'with'
p5228
aS'the'
p5229
aS'single'
p5230
aaa(lp5231
g5203
a(lp5232
S'you'
p5233
aS'know'
p5234
aaa(lp5235
g5203
a(lp5236
S'the'
p5237
aS'one'
p5238
aS'that'
p5239
ag8
aS'have'
p5240
aS'to'
p5241
aS'turn'
p5242
aS'it'
p5243
aS'over'
p5244
aaa(lp5245
S'BRADHI'
p5246
a(lp5247
S'Oh'
p5248
aaa(lp5249
S'TAMMYI'
p5250
a(lp5251
S'mean'
p5252
aaa(lp5253
S'BRAD'
p5254
a(lp5255
S'you'
p5256
aS'know'
p5257
aaa(lp5258
g5254
a(lp5259
S'thats'
p5260
aS'fine'
p5261
aS'HI'
p5262
aaa(lp5263
S'TAMMY'
p5264
a(lp5265
S'you'
p5266
aS'know'
p5267
aaa(lp5268
S'BRADThats'
p5269
a(lp5270
S'fine'
p5271
aaa(lp5272
g5269
a(lp5273
S'Um'
p5274
aaa(lp5275
S'TAMMY'
p5276
a(lp5277
aa(lp5278
S'BRAD'
p5279
a(lp5280
S'Im'
p5281
aS'trying'
p5282
aaa(lp5283
g5279
a(lp5284
g8
aS'mean'
p5285
ag8
aS'had'
p5286
ag38
aS'couple'
p5287
aS'recently'
p5288
aaa(lp5289
g5279
a(lp5290
S'uh'
p5291
aaa(lp5292
g5279
a(lp5293
S'Bodeckers'
p5294
aaa(lp5295
g5279
a(lp5296
S'uh'
p5297
aaa(lp5298
g5279
a(lp5299
S'got'
p5300
aS'the'
p5301
aS'kay'
p5302
aS'one'
p5303
aS'eleven'
p5304
aaa(lp5305
g5279
a(lp5306
S'and'
p5307
aaa(lp5308
g5279
a(lp5309
S'and'
p5310
aS'they'
p5311
aS'love'
p5312
aS'it'
p5313
aaa(lp5314
S'TAMMY'
p5315
a(lp5316
S'Yeah'
p5317
aaa(lp5318
S'BRADThey'
p5319
a(lp5320
S'dont'
p5321
aS'play'
p5322
aS'tapes'
p5323
aS'that'
p5324
aS'much'
p5325
aaa(lp5326
S'TAMMY'
p5327
a(lp5328
S'Yeah'
p5329
aaa(lp5330
g5327
a(lp5331
S'Thats'
p5332
aS'the'
p5333
aS'same'
p5334
aS'with'
p5335
aS'me'
p5336
aaa(lp5337
g5327
a(lp5338
S'too'
p5339
aaa(lp5340
g5327
a(lp5341
S'Yeah'
p5342
aaa(lp5343
g5327
a(lp5344
S'Im'
p5345
aS'really'
p5346
aS'into'
p5347
aS'CDs'
p5348
aS'now'
p5349
aaa(lp5350
S'BRAD'
p5351
a(lp5352
S'Unhunh'
p5353
aaa(lp5354
g5351
a(lp5355
S'yeah'
p5356
aaa(lp5357
S'TAMMYSo'
p5358
a(lp5359
aa(lp5360
S'BRADBut'
p5361
a(lp5362
S'they'
p5363
aS'have'
p5364
ag38
aS'couple'
p5365
aS'of'
p5366
aS'these'
p5367
aS'box'
p5368
aS'sets'
p5369
aS'of'
p5370
aS'uh'
p5371
aaa(lp5372
S'TAMMY'
p5373
a(lp5374
aa(lp5375
g5373
a(lp5376
S'right'
p5377
aaa(lp5378
S'BRADsymphonies'
p5379
a(lp5380
aa(lp5381
S'TAMMYright'
p5382
a(lp5383
aa(lp5384
S'BRAD'
p5385
a(lp5386
S'and'
p5387
aS'then'
p5388
ag8
aS'think'
p5389
aS'they'
p5390
aS'even'
p5391
aS'have'
p5392
ag38
aS'couple'
p5393
aS'books'
p5394
aS'on'
p5395
aS'tape'
p5396
aaa(lp5397
S'TAMMYYeah'
p5398
a(lp5399
aa(lp5400
S'BRAD'
p5401
a(lp5402
S'and'
p5403
aS'for'
p5404
aS'that'
p5405
aS'its'
p5406
aS'perfect'
p5407
aaa(lp5408
S'TAMMY'
p5409
a(lp5410
S'right'
p5411
aaa(lp5412
S'BRADYou'
p5413
a(lp5414
S'know'
p5415
aaa(lp5416
g5413
a(lp5417
S'its'
p5418
aS'probably'
p5419
ag171
aS'more'
p5420
aS'than'
p5421
aS'enough'
p5422
aaa(lp5423
S'TAMMY'
p5424
a(lp5425
S'Right'
p5426
aaa(lp5427
S'BRAD'
p5428
a(lp5429
aa(lp5430
S'TAMMY'
p5431
a(lp5432
S'Right'
p5433
aaa(lp5434
S'BRADUm'
p5435
a(lp5436
aa(lp5437
g5435
a(lp5438
S'Im'
p5439
aS'just'
p5440
aS'trying'
p5441
aS'to'
p5442
aS'look'
p5443
aS'and'
p5444
aS'see'
p5445
aS'what'
p5446
aS'other'
p5447
aS'differences'
p5448
aS'there'
p5449
aS'are'
p5450
aaa(lp5451
S'TAMMY'
p5452
a(lp5453
S'Okay'
p5454
aaa(lp5455
S'BRADI'
p5456
a(lp5457
g8
aS'mean'
p5458
aaa(lp5459
g5456
a(lp5460
g8
aS'really'
p5461
aS'think'
p5462
aS'those'
p5463
aS'are'
p5464
aS'the'
p5465
aaa(lp5466
g5456
a(lp5467
S'thats'
p5468
aS'the'
p5469
aS'big'
p5470
aS'difference'
p5471
aaa(lp5472
S'TAMMY'
p5473
a(lp5474
S'this'
p5475
aS'is'
p5476
aaa(lp5477
g5473
a(lp5478
S'No'
p5479
aaa(lp5480
g5473
a(lp5481
S'this'
p5482
aS'is'
p5483
aS'great'
p5484
aaa(lp5485
S'BRAD'
p5486
a(lp5487
S'Um'
p5488
aaa(lp5489
g5486
a(lp5490
S'SING'
p5491
aS'doo'
p5492
aS'doo'
p5493
aS'SING'
p5494
aaa(lp5495
g5486
a(lp5496
g8
aS'believe'
p5497
aaa(lp5498
g5486
a(lp5499
S'yeah'
p5500
aaa(lp5501
g5486
a(lp5502
g8
aS'think'
p5503
aS'thats'
p5504
aS'the'
p5505
aS'basic'
p5506
aS'difference'
p5507
aaa(lp5508
g5486
a(lp5509
S'is'
p5510
aS'that'
p5511
aS'auto'
p5512
aS'reverse'
p5513
aaa(lp5514
S'TAMMY'
p5515
a(lp5516
aa(lp5517
g5515
a(lp5518
S'Let'
p5519
aS'me'
p5520
aS'ask'
p5521
aS'you'
p5522
aaa(lp5523
g5515
a(lp5524
S'do'
p5525
aS'you'
p5526
aS'sell'
p5527
aS'microphones'
p5528
aaa(lp5529
S'BRAD'
p5530
a(lp5531
aa(lp5532
S'TAMMY'
p5533
a(lp5534
S'Here'
p5535
aaa(lp5536
S'BRAD'
p5537
a(lp5538
S'Uh'
p5539
aaa(lp5540
g5537
a(lp5541
S'we'
p5542
aS'dont'
p5543
aS'really'
p5544
aaa(lp5545
S'JONATHANSING'
p5546
a(lp5547
S'Nya'
p5548
aS'nya'
p5549
aS'nya'
p5550
aS'nya'
p5551
aS'nya'
p5552
aS'nya'
p5553
aaa(lp5554
S'TAMMY'
p5555
a(lp5556
S'Kay'
p5557
aaa(lp5558
S'BRADget'
p5559
a(lp5560
S'into'
p5561
aS'them'
p5562
aaa(lp5563
S'TAMMYNkay'
p5564
a(lp5565
aa(lp5566
S'BRADUm'
p5567
a(lp5568
aa(lp5569
g5567
a(lp5570
S'we'
p5571
aS'are'
p5572
aaa(lp5573
S'JONATHAN'
p5574
a(lp5575
S'Nya'
p5576
aS'nya'
p5577
aS'nya'
p5578
aS'nya'
p5579
aS'nya'
p5580
aS'nya'
p5581
aaa(lp5582
S'BRADum'
p5583
a(lp5584
aa(lp5585
S'JONATHANYou'
p5586
a(lp5587
S'cant'
p5588
aS'get'
p5589
aS'me'
p5590
aS'SING'
p5591
aaa(lp5592
S'BRADconnected'
p5593
a(lp5594
S'with'
p5595
ag38
aS'distributor'
p5596
aS'that'
p5597
aS'does'
p5598
aS'deal'
p5599
aS'with'
p5600
aS'them'
p5601
aaa(lp5602
S'TAMMY'
p5603
a(lp5604
S'Okay'
p5605
aaa(lp5606
S'BRAD'
p5607
a(lp5608
S'And'
p5609
aS'so'
p5610
aS'we'
p5611
aaa(lp5612
g5607
a(lp5613
S'weve'
p5614
aS'gotten'
p5615
aS'them'
p5616
aS'for'
p5617
aS'clients'
p5618
aS'time'
p5619
aS'to'
p5620
aS'time'
p5621
aaa(lp5622
S'JONATHANTry'
p5623
a(lp5624
S'to'
p5625
aS'get'
p5626
aS'me'
p5627
aaa(lp5628
S'TAMMY'
p5629
a(lp5630
S'Okay'
p5631
aaa(lp5632
S'BRAD'
p5633
a(lp5634
S'um'
p5635
aaa(lp5636
g5633
a(lp5637
g8
aS'think'
p5638
aS'we'
p5639
aS'have'
p5640
aS'them'
p5641
aS'available'
p5642
aS'from'
p5643
aS'Sony'
p5644
aaa(lp5645
g5633
a(lp5646
S'And'
p5647
aaa(lp5648
g5633
a(lp5649
S'Id'
p5650
aS'really'
p5651
aS'have'
p5652
aS'to'
p5653
aS'l'
p5654
aS'research'
p5655
aS'that'
p5656
ag38
aS'bit'
p5657
aS'for'
p5658
aS'you'
p5659
aaa(lp5660
S'TAMMY'
p5661
a(lp5662
S'thats'
p5663
aS'okay'
p5664
aaa(lp5665
g5661
a(lp5666
g8
aaa(lp5667
g5661
a(lp5668
g8
aS'can'
p5669
aS'follow'
p5670
aS'through'
p5671
aS'on'
p5672
aS'that'
p5673
aaa(lp5674
g5661
a(lp5675
S'You'
p5676
aS'have'
p5677
aS'any'
p5678
aS'idea'
p5679
aS'how'
p5680
aS'much'
p5681
ag38
aS'good'
p5682
aaa(lp5683
S'BRAD'
p5684
a(lp5685
S'Okay'
p5686
aaa(lp5687
S'TAMMY'
p5688
a(lp5689
S'sort'
p5690
aS'of'
p5691
aS'um'
p5692
aaa(lp5693
g5688
a(lp5694
S'table'
p5695
aS'mic'
p5696
aS'would'
p5697
aS'cost'
p5698
aaa(lp5699
g5688
a(lp5700
S'Um'
p5701
aaa(lp5702
S'BRAD'
p5703
a(lp5704
S'Well'
p5705
aaa(lp5706
g5703
a(lp5707
S'um'
p5708
aaa(lp5709
g5703
a(lp5710
S'you'
p5711
aS'can'
p5712
aS'get'
p5713
aS'one'
p5714
aaa(lp5715
S'TAMMY'
p5716
a(lp5717
aa(lp5718
S'BRAD'
p5719
a(lp5720
g653
aS'ah'
p5721
aS's'
p5722
aaa(lp5723
g5719
a(lp5724
g8
aS'would'
p5725
aS'say'
p5726
aaa(lp5727
g5719
a(lp5728
g8
aS'would'
p5729
aS'expect'
p5730
aS'to'
p5731
aS'pay'
p5732
aaa(lp5733
g5719
a(lp5734
S'maybe'
p5735
ag653
ag653
aS'forty'
p5736
aS'dollars'
p5737
aaa(lp5738
g5719
a(lp5739
S'and'
p5740
aS'up'
p5741
aaa(lp5742
S'TAMMY'
p5743
a(lp5744
S'Okay'
p5745
aaa(lp5746
S'BRADI'
p5747
a(lp5748
S'mean'
p5749
aS'really'
p5750
aaa(lp5751
g5747
a(lp5752
S'the'
p5753
aS'skys'
p5754
aS'the'
p5755
aS'limit'
p5756
aS'with'
p5757
aS'microphones'
p5758
aaa(lp5759
S'TAMMY'
p5760
a(lp5761
S'Right'
p5762
aaa(lp5763
g5760
a(lp5764
S'right'
p5765
aaa(lp5766
S'BRADI'
p5767
a(lp5768
S'mean'
p5769
aS'you'
p5770
aS'can'
p5771
aS'get'
p5772
aaa(lp5773
S'TAMMY'
p5774
a(lp5775
S'Okay'
p5776
aaa(lp5777
S'BRADn'
p5778
a(lp5779
aa(lp5780
g5778
a(lp5781
S'thousand'
p5782
aS'dollar'
p5783
aS'microphones'
p5784
aaa(lp5785
S'TAMMY'
p5786
a(lp5787
aa(lp5788
g5786
a(lp5789
S'Okay'
p5790
aaa(lp5791
S'BRADBut'
p5792
a(lp5793
aa(lp5794
g5792
a(lp5795
S'um'
p5796
aaa(lp5797
g5792
a(lp5798
S'you'
p5799
aS'would'
p5800
aS'proba'
p5801
aaa(lp5802
g5792
a(lp5803
g8
aS'would'
p5804
aS'spend'
p5805
aaa(lp5806
g5792
a(lp5807
S'you'
p5808
aS'know'
p5809
ag8
aS'wouldnt'
p5810
aS'spend'
p5811
aS'nineteen'
p5812
aS'dollars'
p5813
aaa(lp5814
S'TAMMY'
p5815
a(lp5816
S'Mhm'
p5817
aaa(lp5818
g5815
a(lp5819
S'mhm'
p5820
aaa(lp5821
S'BRADId'
p5822
a(lp5823
S'spend'
p5824
aS'forty'
p5825
aS'bucks'
p5826
aaa(lp5827
S'TAMMYyeah'
p5828
a(lp5829
aa(lp5830
g5828
a(lp5831
S'Yeah'
p5832
aaa(lp5833
g5828
a(lp5834
S'Okay'
p5835
aaa(lp5836
S'BRAD'
p5837
a(lp5838
S'and'
p5839
aS'then'
p5840
aaa(lp5841
g5837
a(lp5842
S'maybe'
p5843
ag38
aS'little'
p5844
aS'up'
p5845
aS'above'
p5846
aS'that'
p5847
aaa(lp5848
S'TAMMY'
p5849
a(lp5850
S'Nkay'
p5851
aaa(lp5852
g5849
a(lp5853
S'mhm'
p5854
aaa(lp5855
S'BRAD'
p5856
a(lp5857
S'For'
p5858
aS'what'
p5859
aS'you'
p5860
aS'wanna'
p5861
aS'do'
p5862
aaa(lp5863
g5856
a(lp5864
g8
ag8
aS'dont'
p5865
aS'ever'
p5866
aS'see'
p5867
aS'paying'
p5868
aaa(lp5869
g5856
a(lp5870
S'you'
p5871
aS'know'
p5872
aaa(lp5873
g5856
a(lp5874
g38
aS'couple'
p5875
aS'hundred'
p5876
aS'dollars'
p5877
aaa(lp5878
S'TAMMY'
p5879
a(lp5880
S'mhm'
p5881
aaa(lp5882
S'BRADthat'
p5883
a(lp5884
aa(lp5885
g5883
a(lp5886
S'that'
p5887
aS'would'
p5888
aS'probably'
p5889
aS'be'
p5890
aaa(lp5891
S'TAMMY'
p5892
a(lp5893
S'right'
p5894
aaa(lp5895
S'BRAD'
p5896
a(lp5897
g653
aS'very'
p5898
aS'overkill'
p5899
aaa(lp5900
S'TAMMYOkay'
p5901
a(lp5902
aa(lp5903
S'BRAD'
p5904
a(lp5905
S'So'
p5906
aS'that'
p5907
aS'kind'
p5908
aS'of'
p5909
aS'gives'
p5910
aS'you'
p5911
aS'an'
p5912
aS'idea'
p5913
aaa(lp5914
S'TAMMY'
p5915
a(lp5916
S'Mhm'
p5917
aS'right'
p5918
aaa(lp5919
S'BRAD'
p5920
a(lp5921
aa(lp5922
S'TAMMYOkay'
p5923
a(lp5924
aa(lp5925
S'BRADUm'
p5926
a(lp5927
aa(lp5928
g5926
a(lp5929
S'theres'
p5930
ag38
aS'place'
p5931
aS'to'
p5932
aS'look'
p5933
aaa(lp5934
g5926
a(lp5935
S'um'
p5936
aaa(lp5937
g5926
a(lp5938
S'called'
p5939
aS'Sound'
p5940
aS'Advice'
p5941
aaa(lp5942
S'TAMMY'
p5943
a(lp5944
S'Yeah'
p5945
aaa(lp5946
g5943
a(lp5947
S'Alright'
p5948
aaa(lp5949
S'BRAD'
p5950
a(lp5951
S'Okay'
p5952
aaa(lp5953
g5950
a(lp5954
S'theres'
p5955
ag38
aS'guy'
p5956
aS'there'
p5957
aS'named'
p5958
aS'Wayne'
p5959
aaa(lp5960
S'TAMMY'
p5961
a(lp5962
S'Yeah'
p5963
aaa(lp5964
g5961
a(lp5965
S'Okay'
p5966
aaa(lp5967
S'BRAD'
p5968
a(lp5969
S'Hes'
p5970
aS'uh'
p5971
aaa(lp5972
S'TAMMY'
p5973
a(lp5974
S'thats'
p5975
ag38
aS'good'
p5976
aS'idea'
p5977
aaa(lp5978
S'BRADone'
p5979
a(lp5980
S'of'
p5981
aS'the'
p5982
aS'principals'
p5983
aS'there'
p5984
aaa(lp5985
g5979
a(lp5986
S'Wayne'
p5987
aaa(lp5988
S'TAMMY'
p5989
a(lp5990
S'Okay'
p5991
aaa(lp5992
S'BRADI'
p5993
a(lp5994
S'think'
p5995
aS'his'
p5996
aS'name'
p5997
aS'is'
p5998
aS'Shaybeck'
p5999
aaa(lp6000
S'TAMMY'
p6001
a(lp6002
S'Alright'
p6003
aaa(lp6004
S'BRAD'
p6005
a(lp6006
S'Saybeck'
p6007
aS'Shaybeck'
p6008
aaa(lp6009
g6005
a(lp6010
S'something'
p6011
aS'like'
p6012
aS'that'
p6013
aaa(lp6014
g6005
a(lp6015
S'And'
p6016
aS'hes'
p6017
ag38
aS'really'
p6018
aS'knowledgeable'
p6019
aS'guy'
p6020
aaa(lp6021
S'TAMMYOkay'
p6022
a(lp6023
aa(lp6024
S'BRADhes'
p6025
a(lp6026
S'been'
p6027
aS'in'
p6028
aS'the'
p6029
aS'business'
p6030
aS'for'
p6031
ag38
aS'long'
p6032
aS'time'
p6033
aaa(lp6034
S'TAMMYgreat'
p6035
a(lp6036
aa(lp6037
S'BRAD'
p6038
a(lp6039
S'uh'
p6040
aaa(lp6041
g6038
a(lp6042
S'and'
p6043
aS'theyre'
p6044
aS'good'
p6045
aS'guys'
p6046
aS'there'
p6047
aaa(lp6048
S'TAMMY'
p6049
a(lp6050
S'Okay'
p6051
aaa(lp6052
S'BRAD'
p6053
a(lp6054
S'So'
p6055
aS'that'
p6056
aS'would'
p6057
aS'be'
p6058
aaa(lp6059
g6053
a(lp6060
g38
ag38
aS'place'
p6061
aS'to'
p6062
aS'look'
p6063
aS'at'
p6064
ag38
aS'mic'
p6065
aaa(lp6066
S'TAMMY'
p6067
a(lp6068
S'okay'
p6069
aaa(lp6070
g6067
a(lp6071
S'thatd'
p6072
aS'be'
p6073
aS'great'
p6074
aaa(lp6075
g6067
a(lp6076
S'Yeah'
p6077
aaa(lp6078
g6067
a(lp6079
S'Um'
p6080
aaa(lp6081
g6067
a(lp6082
S'if'
p6083
aS'we'
p6084
aS'needed'
p6085
aS'to'
p6086
aS'd'
p6087
aS'get'
p6088
ag38
aS'price'
p6089
aS'on'
p6090
ag38
aS'tape'
p6091
ag3091
aS'recorder'
p6092
aaa(lp6093
g6067
a(lp6094
S'that'
p6095
aS'we'
p6096
aS'lost'
p6097
aaa(lp6098
g6067
a(lp6099
S'See'
p6100
aS'what'
p6101
aS'we'
p6102
aS'lost'
p6103
aS'was'
p6104
ag38
aS'tape'
p6105
aS'recorder'
p6106
aaa(lp6107
g6067
a(lp6108
S'not'
p6109
ag38
aS'tape'
p6110
aS'deck'
p6111
aaa(lp6112
S'BRADOkay'
p6113
a(lp6114
aa(lp6115
S'TAMMYIt'
p6116
a(lp6117
S'was'
p6118
ag38
aS'fancy'
p6119
aS'Uher'
p6120
aaa(lp6121
g6116
a(lp6122
S'That'
p6123
aS'name'
p6124
aS'rings'
p6125
ag38
aS'bell'
p6126
aaa(lp6127
S'BRADAre'
p6128
a(lp6129
g1141
aaa(lp6130
g6128
a(lp6131
S'Oh'
p6132
aS'really'
p6133
aaa(lp6134
g6128
a(lp6135
S'It'
p6136
aS'was'
p6137
aaa(lp6138
S'TAMMYYeah'
p6139
a(lp6140
aa(lp6141
S'BRADOh'
p6142
a(lp6143
S'gosh'
p6144
aaa(lp6145
S'TAMMYRight'
p6146
a(lp6147
aa(lp6148
S'BRADTh'
p6149
a(lp6150
S'thats'
p6151
aaa(lp6152
S'TAMMY'
p6153
a(lp6154
aa(lp6155
S'BRADlike'
p6156
a(lp6157
aa(lp6158
S'TAMMYBut'
p6159
a(lp6160
aa(lp6161
S'BRAD'
p6162
a(lp6163
S'considered'
p6164
aaa(lp6165
g6162
a(lp6166
g8
aS'mean'
p6167
aS'theres'
p6168
ag38
aS'lot'
p6169
aS'of'
p6170
aS'different'
p6171
aS'models'
p6172
aS'of'
p6173
aS'Uhers'
p6174
aaa(lp6175
S'TAMMYMhm'
p6176
a(lp6177
aa(lp6178
S'BRAD'
p6179
a(lp6180
S'but'
p6181
aS'uh'
p6182
aaa(lp6183
g6179
a(lp6184
S'theyve'
p6185
aS'always'
p6186
aS'been'
p6187
aS'considered'
p6188
aaa(lp6189
g6179
a(lp6190
S'probably'
p6191
aS'one'
p6192
aS'of'
p6193
aS'the'
p6194
aS'finest'
p6195
aS'portable'
p6196
aS'cassette'
p6197
aS'recorders'
p6198
aaa(lp6199
S'TAMMY'
p6200
a(lp6201
S'mhm'
p6202
aaa(lp6203
g6200
a(lp6204
S'mhm'
p6205
aaa(lp6206
g6200
a(lp6207
S'yeah'
p6208
aaa(lp6209
g6200
a(lp6210
S'Right'
p6211
aaa(lp6212
S'BRAD'
p6213
a(lp6214
S'uh'
p6215
ag171
aaa(lp6216
g6213
a(lp6217
S'our'
p6218
aS'blue'
p6219
aS'book'
p6220
aS'usually'
p6221
aS'shows'
p6222
aS'the'
p6223
aS'Uhers'
p6224
aaa(lp6225
S'TAMMY'
p6226
a(lp6227
S'Yeah'
p6228
aaa(lp6229
S'BRADOur'
p6230
a(lp6231
S'older'
p6232
aS'Uhers'
p6233
aaa(lp6234
S'TAMMY'
p6235
a(lp6236
S'Okay'
p6237
aaa(lp6238
S'BRAD'
p6239
a(lp6240
S'So'
p6241
ag8
aS'could'
p6242
aS'show'
p6243
aS'you'
p6244
aS'what'
p6245
aS'the'
p6246
aS'blue'
p6247
aS'book'
p6248
aS'price'
p6249
aS'was'
p6250
aaa(lp6251
S'TAMMY'
p6252
a(lp6253
S'Then'
p6254
aS'if'
p6255
ag8
aaa(lp6256
g6252
a(lp6257
S'Nkay'
p6258
aaa(lp6259
S'BRAD'
p6260
a(lp6261
S'its'
p6262
aS'gonna'
p6263
aS'be'
p6264
aS'hard'
p6265
aS'to'
p6266
ag6087
aaa(lp6267
S'TAMMY'
p6268
a(lp6269
S'Okay'
p6270
aaa(lp6271
S'BRADI'
p6272
a(lp6273
S'dont'
p6274
aS'know'
p6275
aS'Uhers'
p6276
aS'that'
p6277
aS'well'
p6278
aaa(lp6279
g6272
a(lp6280
S'its'
p6281
aS'gonna'
p6282
aS'be'
p6283
aS'hard'
p6284
aS'to'
p6285
aS'determine'
p6286
aaa(lp6287
S'TAMMY'
p6288
a(lp6289
S'Mhm'
p6290
aaa(lp6291
S'BRAD'
p6292
a(lp6293
S'what'
p6294
aS'would'
p6295
aS'be'
p6296
ag38
aS'comparable'
p6297
aS'replacement'
p6298
aS'today'
p6299
aaa(lp6300
S'TAMMY'
p6301
a(lp6302
g8
aS'know'
p6303
aaa(lp6304
g6301
a(lp6305
S'Right'
p6306
aaa(lp6307
g6301
a(lp6308
S'Yeah'
p6309
aaa(lp6310
S'BRAD'
p6311
a(lp6312
S'And'
p6313
aS'that'
p6314
aS'would'
p6315
aS'be'
p6316
aS'something'
p6317
aS'you'
p6318
aS'may'
p6319
aS'wanna'
p6320
aS'run'
p6321
aS'by'
p6322
aS'Wayne'
p6323
aaa(lp6324
S'TAMMY'
p6325
a(lp6326
S'Okay'
p6327
aaa(lp6328
g6325
a(lp6329
S'Great'
p6330
aaa(lp6331
g6325
a(lp6332
S'Nkay'
p6333
aaa(lp6334
g6325
a(lp6335
S'You'
p6336
aS'dont'
p6337
aS'sell'
p6338
aS'that'
p6339
aS'kind'
p6340
aS'of'
p6341
aS'thing'
p6342
aS'here'
p6343
aaa(lp6344
g6325
a(lp6345
S'Right'
p6346
aaa(lp6347
g6325
a(lp6348
S'Cause'
p6349
aS'this'
p6350
aS'is'
p6351
aS'an'
p6352
aS'audio'
p6353
aaa(lp6354
S'BRAD'
p6355
a(lp6356
S'Thats'
p6357
aS'right'
p6358
aaa(lp6359
S'TAMMY'
p6360
a(lp6361
S'place'
p6362
aaa(lp6363
S'BRADwell'
p6364
a(lp6365
g8
aS'mean'
p6366
aaa(lp6367
S'TAMMYOkay'
p6368
a(lp6369
aa(lp6370
S'BRAD'
p6371
a(lp6372
S'to'
p6373
aS'tell'
p6374
aS'you'
p6375
aS'the'
p6376
aS'truth'
p6377
aaa(lp6378
g6371
a(lp6379
S'th'
p6380
aS'sometimes'
p6381
aS'we'
p6382
aS'do'
p6383
aS'get'
p6384
aS'them'
p6385
aS'for'
p6386
aS'people'
p6387
aaa(lp6388
S'TAMMY'
p6389
a(lp6390
S'Mhm'
p6391
aaa(lp6392
g6389
a(lp6393
S'okay'
p6394
aaa(lp6395
S'BRADThrough'
p6396
a(lp6397
S'the'
p6398
aS'distributors'
p6399
aS'we'
p6400
aS'deal'
p6401
aS'with'
p6402
aaa(lp6403
S'TAMMY'
p6404
a(lp6405
S'Yeah'
p6406
aaa(lp6407
S'BRAD'
p6408
a(lp6409
S'But'
p6410
aS'uh'
p6411
aaa(lp6412
S'TAMMY'
p6413
a(lp6414
S'Yeah'
p6415
aaa(lp6416
g6413
a(lp6417
S'Okay'
p6418
aaa(lp6419
S'BRAD'
p6420
a(lp6421
S'overall'
p6422
aaa(lp6423
S'TAMMY'
p6424
a(lp6425
S'Well'
p6426
aaa(lp6427
S'BRADusually'
p6428
a(lp6429
S'we'
p6430
aS'dont'
p6431
aaa(lp6432
S'TAMMY'
p6433
a(lp6434
S'this'
p6435
aS'is'
p6436
aS'great'
p6437
aaa(lp6438
g6433
a(lp6439
S'Yeah'
p6440
aaa(lp6441
g6433
a(lp6442
S'What'
p6443
ag8
aS'think'
p6444
aS'Ill'
p6445
aS'do'
p6446
aS'is'
p6447
aS'um'
p6448
aaa(lp6449
g6433
a(lp6450
S'take'
p6451
aS'these'
p6452
aS'ideas'
p6453
aS'back'
p6454
aS'to'
p6455
aS'Matt'
p6456
aaa(lp6457
S'BRAD'
p6458
a(lp6459
S'Okay'
p6460
aaa(lp6461
S'TAMMYand'
p6462
a(lp6463
S'Ill'
p6464
aS'be'
p6465
aS'back'
p6466
aaa(lp6467
S'BRAD'
p6468
a(lp6469
S'Sleep'
p6470
aS'on'
p6471
aS'it'
p6472
aaa(lp6473
S'TAMMY'
p6474
a(lp6475
S'then'
p6476
aS'yeah'
p6477
aaa(lp6478
S'BRAD'
p6479
a(lp6480
S'yeah'
p6481
aaa(lp6482
S'TAMMY'
p6483
a(lp6484
S'Yeah'
p6485
aaa(lp6486
g6483
a(lp6487
g8
aS'need'
p6488
aS'to'
p6489
aS'think'
p6490
aS'about'
p6491
aS'what'
p6492
aS'you'
p6493
aS'told'
p6494
aS'me'
p6495
aaa(lp6496
S'BRADh'
p6497
a(lp6498
aa(lp6499
S'TAMMYBut'
p6500
a(lp6501
S'this'
p6502
aS'is'
p6503
aS'very'
p6504
aS'helpful'
p6505
aS'for'
p6506
aS'me'
p6507
aaa(lp6508
S'BRAD'
p6509
a(lp6510
S'okay'
p6511
aaa(lp6512
S'TAMMYI'
p6513
a(lp6514
S'really'
p6515
aS'appreciate'
p6516
aS'it'
p6517
aaa(lp6518
S'BRADjust'
p6519
a(lp6520
S'for'
p6521
aS'your'
p6522
aS'knowledge'
p6523
aaa(lp6524
g6519
a(lp6525
S'um'
p6526
aaa(lp6527
S'TAMMY'
p6528
a(lp6529
aa(lp6530
S'BRADthe'
p6531
a(lp6532
S'kay'
p6533
aS'one'
p6534
aS'ten'
p6535
aaa(lp6536
g6531
a(lp6537
S'and'
p6538
aS'the'
p6539
aS'kay'
p6540
ag6087
aS'one'
p6541
aS'ten'
p6542
aS'doubleu'
p6543
aaa(lp6544
S'TAMMY'
p6545
a(lp6546
S'Mhm'
p6547
aaa(lp6548
S'BRAD'
p6549
a(lp6550
S'thats'
p6551
aS'the'
p6552
aS'auto'
p6553
aS'rev'
p6554
aaa(lp6555
g6549
a(lp6556
S'single'
p6557
aS'auto'
p6558
aS'reverse'
p6559
aaa(lp6560
S'TAMMY'
p6561
a(lp6562
S'right'
p6563
aaa(lp6564
S'BRADand'
p6565
a(lp6566
S'double'
p6567
aS'auto'
p6568
aS'reverse'
p6569
aaa(lp6570
g6565
a(lp6571
S'we'
p6572
aS'have'
p6573
aS'in'
p6574
aS'stock'
p6575
aaa(lp6576
S'TAMMY'
p6577
a(lp6578
S'Okay'
p6579
aaa(lp6580
S'BRAD'
p6581
a(lp6582
S'The'
p6583
aS'kay'
p6584
aS'one'
p6585
aS'eleven'
p6586
aaa(lp6587
S'TAMMY'
p6588
a(lp6589
S'Hm'
p6590
aaa(lp6591
S'BRAD'
p6592
a(lp6593
S'um'
p6594
aaa(lp6595
g6592
a(lp6596
g8
aS'dont'
p6597
aS'believe'
p6598
ag8
aS'have'
p6599
aS'in'
p6600
aS'stock'
p6601
aaa(lp6602
g6592
a(lp6603
S'but'
p6604
aS'were'
p6605
aS'gonna'
p6606
aS'be'
p6607
aS'placing'
p6608
ag38
aS'Luxman'
p6609
aS'order'
p6610
aS'soon'
p6611
aaa(lp6612
g6592
a(lp6613
S'And'
p6614
aaa(lp6615
g6592
a(lp6616
S'since'
p6617
aS'they'
p6618
aS'ship'
p6619
aS'out'
p6620
aS'of'
p6621
aS'Torrance'
p6622
aaa(lp6623
S'TAMMY'
p6624
a(lp6625
S'Mhm'
p6626
aaa(lp6627
S'BRAD'
p6628
a(lp6629
S'um'
p6630
aaa(lp6631
g6628
a(lp6632
S'you'
p6633
aS'know'
p6634
aaa(lp6635
g6628
a(lp6636
S'lead'
p6637
aS'time'
p6638
aS'isnt'
p6639
aS'too'
p6640
aS'bad'
p6641
aS'on'
p6642
aS'it'
p6643
aaa(lp6644
g6628
a(lp6645
S'but'
p6646
aS'just'
p6647
aS'know'
p6648
aS'that'
p6649
aaa(lp6650
S'TAMMY'
p6651
a(lp6652
S'mhm'
p6653
aaa(lp6654
S'BRAD'
p6655
a(lp6656
S'you'
p6657
aS'couldnt'
p6658
aS'call'
p6659
aS'me'
p6660
aS'up'
p6661
aS'and'
p6662
aS'then'
p6663
aS'listen'
p6664
aS'to'
p6665
ag38
aS'tape'
p6666
aS'that'
p6667
aS'night'
p6668
aaa(lp6669
S'TAMMY'
p6670
a(lp6671
S'right'
p6672
aaa(lp6673
g6670
a(lp6674
S'Okay'
p6675
aaa(lp6676
g6670
a(lp6677
S'Thats'
p6678
aS'fine'
p6679
aaa(lp6680
S'BRADOkay'
p6681
a(lp6682
aa(lp6683
S'TAMMY'
p6684
a(lp6685
S'Okay'
p6686
aaa(lp6687
g6684
a(lp6688
S'Um'
p6689
aaa(lp6690
g6684
a(lp6691
S'but'
p6692
aaa(lp6693
g6684
a(lp6694
S'were'
p6695
aS'talking'
p6696
aS'like'
p6697
aS'maybe'
p6698
ag38
aS'week'
p6699
aS'or'
p6700
aS'something'
p6701
aaa(lp6702
S'BRAD'
p6703
a(lp6704
S'Oh'
p6705
aaa(lp6706
g6703
a(lp6707
S'Yeah'
p6708
aaa(lp6709
S'TAMMYOkay'
p6710
a(lp6711
aa(lp6712
S'BRADYeah'
p6713
a(lp6714
aa(lp6715
S'TAMMYNo'
p6716
a(lp6717
S'problem'
p6718
aaa(lp6719
S'BRADIf'
p6720
a(lp6721
S'that'
p6722
aaa(lp6723
S'TAMMYI'
p6724
a(lp6725
S'mean'
p6726
aS'listen'
p6727
aaa(lp6728
S'BRAD'
p6729
a(lp6730
S'If'
p6731
aS'that'
p6732
aaa(lp6733
S'TAMMY'
p6734
a(lp6735
aa(lp6736
g6734
a(lp6737
S'Im'
p6738
aS'not'
p6739
aS'that'
p6740
aS'uh'
p6741
aaa(lp6742
S'BRAD'
p6743
a(lp6744
S'Okay'
p6745
aaa(lp6746
S'TAMMY'
p6747
a(lp6748
S'th'
p6749
aS'SM'
p6750
aS'the'
p6751
aS'timing'
p6752
aS'isnt'
p6753
aS'that'
p6754
aS'tight'
p6755
aaa(lp6756
g6747
a(lp6757
S'Ive'
p6758
aS'waited'
p6759
ag38
aS'long'
p6760
aS'time'
p6761
aaa(lp6762
S'BRADOkay'
p6763
a(lp6764
aa(lp6765
S'TAMMYfor'
p6766
a(lp6767
g38
aS'lot'
p6768
aS'of'
p6769
aS'stuff'
p6770
aaa(lp6771
g6766
a(lp6772
S'so'
p6773
aS'SM'
p6774
aaa(lp6775
g6766
a(lp6776
S'no'
p6777
aaa(lp6778
S'BRAD'
p6779
a(lp6780
S'Okay'
p6781
aaa(lp6782
S'TAMMYIts'
p6783
a(lp6784
S'not'
p6785
ag38
aS'big'
p6786
aS'problem'
p6787
aaa(lp6788
g6783
a(lp6789
S'But'
p6790
ag8
aS'appreciate'
p6791
aS'your'
p6792
aS'letting'
p6793
aS'me'
p6794
aS'know'
p6795
aS'about'
p6796
aS'that'
p6797
aaa(lp6798
S'BRAD'
p6799
a(lp6800
S'okay'
p6801
aaa(lp6802
g6799
a(lp6803
S'Okay'
p6804
aaa(lp6805
g6799
a(lp6806
S'Um'
p6807
aaa(lp6808
S'TAMMY'
p6809
a(lp6810
S'Okay'
p6811
aaa(lp6812
S'BRAD'
p6813
a(lp6814
S'Pete'
p6815
aS'had'
p6816
aS'told'
p6817
aS'me'
p6818
aS'Matt'
p6819
aS'came'
p6820
aS'by'
p6821
aaa(lp6822
g6813
a(lp6823
S'and'
p6824
aS'picked'
p6825
aS'up'
p6826
aS'some'
p6827
aS'literature'
p6828
aS'on'
p6829
aaa(lp6830
g6813
a(lp6831
g8
aS'th'
p6832
aS'guess'
p6833
aS'the'
p6834
ag5654
ag5654
aaa(lp6835
g6813
a(lp6836
g5722
aS'the'
p6837
aS'little'
p6838
aS'speakers'
p6839
aaa(lp6840
g6813
a(lp6841
g1141
aS'we'
p6842
aS'were'
p6843
aS'talking'
p6844
aS'about'
p6845
aaa(lp6846
S'TAMMY'
p6847
a(lp6848
S'right'
p6849
aaa(lp6850
S'BRADI'
p6851
a(lp6852
S'dont'
p6853
aaa(lp6854
g6851
a(lp6855
g8
aS'dont'
p6856
aaa(lp6857
S'TAMMY'
p6858
a(lp6859
S'Okay'
p6860
aaa(lp6861
S'BRADI'
p6862
a(lp6863
S'dont'
p6864
aS'know'
p6865
aS'if'
p6866
aS'he'
p6867
aS'actually'
p6868
aS'got'
p6869
aS'the'
p6870
aS'exact'
p6871
aS'one'
p6872
ag8
aS'recommended'
p6873
aaa(lp6874
g6862
a(lp6875
S'or'
p6876
aS'not'
p6877
aaa(lp6878
S'TAMMY'
p6879
a(lp6880
S'Yeah'
p6881
aaa(lp6882
S'BRADand'
p6883
a(lp6884
S'then'
p6885
aaa(lp6886
g6883
a(lp6887
S'uh'
p6888
aaa(lp6889
g6883
a(lp6890
S'there'
p6891
aS'was'
p6892
aS'an'
p6893
aS'article'
p6894
aS'on'
p6895
aS'uh'
p6896
aaa(lp6897
g6883
a(lp6898
S'FM'
p6899
aS'antennas'
p6900
aaa(lp6901
g6883
a(lp6902
g8
aS'had'
p6903
aS'recommended'
p6904
aS'to'
p6905
aS'him'
p6906
aaa(lp6907
S'TAMMY'
p6908
a(lp6909
S'Mhm'
p6910
aaa(lp6911
S'BRADAnd'
p6912
a(lp6913
S'Pete'
p6914
aS'made'
p6915
ag38
aS'copy'
p6916
aS'of'
p6917
aS'it'
p6918
aS'for'
p6919
aS'him'
p6920
aaa(lp6921
S'TAMMY'
p6922
a(lp6923
S'Yeah'
p6924
aaa(lp6925
g6922
a(lp6926
S'Okay'
p6927
aaa(lp6928
S'BRADOkay'
p6929
a(lp6930
aa(lp6931
S'TAMMYThats'
p6932
a(lp6933
S'great'
p6934
aaa(lp6935
S'BRAD'
p6936
a(lp6937
aa(lp6938
S'TAMMYYeah'
p6939
a(lp6940
aa(lp6941
g6939
a(lp6942
S'That'
p6943
aS'was'
p6944
aS'really'
p6945
aS'helpful'
p6946
aaa(lp6947
S'BRADSo'
p6948
a(lp6949
aa(lp6950
g6948
a(lp6951
S'Do'
p6952
aS'you'
p6953
aaa(lp6954
S'TAMMY'
p6955
a(lp6956
aa(lp6957
S'BRAD'
p6958
a(lp6959
S'had'
p6960
aS'you'
p6961
aS'heard'
p6962
aS'anything'
p6963
aaa(lp6964
g6958
a(lp6965
S'ha'
p6966
aS'has'
p6967
aS'he'
p6968
aS'read'
p6969
aS'that'
p6970
aS'and'
p6971
aS'hes'
p6972
aS'thinking'
p6973
aaa(lp6974
S'TAMMY'
p6975
a(lp6976
aa(lp6977
g6975
a(lp6978
S'Right'
p6979
aaa(lp6980
S'BRADthinking'
p6981
a(lp6982
aa(lp6983
S'TAMMYYeah'
p6984
a(lp6985
aa(lp6986
S'BRADOkay'
p6987
a(lp6988
S'good'
p6989
aaa(lp6990
S'TAMMYThat'
p6991
a(lp6992
S'was'
p6993
aS'part'
p6994
aS'of'
p6995
aS'what'
p6996
aS'we'
p6997
aS'had'
p6998
aS'to'
p6999
aS'That'
p7000
aS'was'
p7001
aS'part'
p7002
aS'of'
p7003
aS'what'
p7004
aS'we'
p7005
aS'had'
p7006
aS'to'
p7007
aS'put'
p7008
aS'in'
p7009
aS'the'
p7010
aS'specs'
p7011
aaa(lp7012
g6991
a(lp7013
S'We'
p7014
aS'needed'
p7015
aS'to'
p7016
aS'know'
p7017
aS'the'
p7018
aS'size'
p7019
aaa(lp7020
g6991
a(lp7021
S'and'
p7022
aS'this'
p7023
aS'whole'
p7024
aS'antenna'
p7025
aS'question'
p7026
aaa(lp7027
g6991
a(lp7028
S'whether'
p7029
aS'you'
p7030
aS'could'
p7031
aS'put'
p7032
aS'an'
p7033
aS'antenna'
p7034
aaa(lp7035
g6991
a(lp7036
S'you'
p7037
aS'talked'
p7038
aS'about'
p7039
aS'this'
p7040
aS'with'
p7041
aS'him'
p7042
aaa(lp7043
S'BRAD'
p7044
a(lp7045
S'Okay'
p7046
aaa(lp7047
S'TAMMYun'
p7048
a(lp7049
aa(lp7050
g7048
a(lp7051
S'under'
p7052
aS'the'
p7053
aS'roof'
p7054
aS'and'
p7055
aS'everyth'
p7056
aaa(lp7057
S'BRADYes'
p7058
a(lp7059
aa(lp7060
S'TAMMY'
p7061
a(lp7062
S'cause'
p7063
aS'you'
p7064
aS'know'
p7065
aaa(lp7066
g7061
a(lp7067
S'You'
p7068
aS'cant'
p7069
aS'have'
p7070
aS'that'
p7071
aS'stuff'
p7072
aS'showing'
p7073
aaa(lp7074
S'BRADThats'
p7075
a(lp7076
S'right'
p7077
aaa(lp7078
S'TAMMY'
p7079
a(lp7080
aa(lp7081
S'BRAD'
p7082
a(lp7083
S'Thats'
p7084
aS'right'
p7085
aaa(lp7086
S'TAMMYNot'
p7087
a(lp7088
S'where'
p7089
aS'we'
p7090
aS'are'
p7091
aaa(lp7092
S'BRADYeah'
p7093
a(lp7094
aa(lp7095
S'TAMMY'
p7096
a(lp7097
S'Yeah'
p7098
aaa(lp7099
S'BRADUh'
p7100
a(lp7101
aa(lp7102
S'TAMMYOkay'
p7103
a(lp7104
aa(lp7105
S'BRADhows'
p7106
a(lp7107
S'the'
p7108
aS'house'
p7109
aS'moving'
p7110
aS'along'
p7111
aaa(lp7112
S'TAMMY'
p7113
a(lp7114
aa(lp7115
g7113
a(lp7116
S'Coming'
p7117
aS'along'
p7118
aaa(lp7119
g7113
a(lp7120
S'Were'
p7121
aS'gonna'
p7122
aS'be'
p7123
aaa(lp7124
g7113
a(lp7125
S'putting'
p7126
aS'the'
p7127
aS'uh'
p7128
aaa(lp7129
g7113
a(lp7130
S'specs'
p7131
aS'out'
p7132
aS'for'
p7133
aS'bids'
p7134
aaa(lp7135
S'BRADGreat'
p7136
a(lp7137
aa(lp7138
S'TAMMYWithin'
p7139
a(lp7140
S'the'
p7141
aS'month'
p7142
aaa(lp7143
g7139
a(lp7144
S'So'
p7145
aaa(lp7146
S'BRADGreat'
p7147
a(lp7148
aa(lp7149
S'TAMMYyeah'
p7150
a(lp7151
aa(lp7152
S'BRAD'
p7153
a(lp7154
S'Thats'
p7155
aS'progress'
p7156
aaa(lp7157
S'TAMMY'
p7158
a(lp7159
S'So'
p7160
aaa(lp7161
g7158
a(lp7162
S'thats'
p7163
aaa(lp7164
S'BRADisnt'
p7165
a(lp7166
S'it'
p7167
aaa(lp7168
S'TAMMYIts'
p7169
a(lp7170
S'progress'
p7171
aaa(lp7172
S'BRAD'
p7173
a(lp7174
aa(lp7175
S'TAMMYYeah'
p7176
a(lp7177
aa(lp7178
g7176
a(lp7179
S'Were'
p7180
aS'going'
p7181
aS'as'
p7182
aS'fast'
p7183
aS'as'
p7184
aS'we'
p7185
aS'can'
p7186
aaa(lp7187
g7176
a(lp7188
S'Were'
p7189
aS'gonna'
p7190
aS'have'
p7191
aaa(lp7192
g7176
a(lp7193
S'like'
p7194
aaa(lp7195
g7176
a(lp7196
S'four'
p7197
aS'weeks'
p7198
aS'we'
p7199
aS'just'
p7200
aS'have'
p7201
aS'to'
p7202
aS'wait'
p7203
aaa(lp7204
g7176
a(lp7205
S'While'
p7206
aS'the'
p7207
aS'bidding'
p7208
aaa(lp7209
S'BRAD'
p7210
a(lp7211
S'Exactly'
p7212
aaa(lp7213
S'TAMMY'
p7214
a(lp7215
S'And'
p7216
aS'um'
p7217
aaa(lp7218
g7214
a(lp7219
S'but'
p7220
ag30
aaa(lp7221
S'BRAD'
p7222
a(lp7223
S'Well'
p7224
aaa(lp7225
g7222
a(lp7226
S'then'
p7227
aS'if'
p7228
aaa(lp7229
g7222
a(lp7230
S'then'
p7231
aS'if'
p7232
aS'you'
p7233
aS'sit'
p7234
aS'up'
p7235
aS'at'
p7236
aS'night'
p7237
aS'thinking'
p7238
aaa(lp7239
S'TAMMY'
p7240
a(lp7241
S'Then'
p7242
aaa(lp7243
S'BRAD'
p7244
a(lp7245
S'should'
p7246
aS'we'
p7247
aS'go'
p7248
aS'for'
p7249
aS'him'
p7250
aaa(lp7251
S'TAMMY'
p7252
a(lp7253
g8
aS'know'
p7254
aS'it'
p7255
aaa(lp7256
S'BRADor'
p7257
a(lp7258
S'should'
p7259
aS'we'
p7260
aS'go'
p7261
aS'for'
p7262
aS'him'
p7263
aaa(lp7264
S'TAMMY'
p7265
a(lp7266
S'Its'
p7267
aS'just'
p7268
aS'what'
p7269
ag8
aS'was'
p7270
aS'telling'
p7271
aS'Jeff'
p7272
aaa(lp7273
g7265
a(lp7274
g8
aS'said'
p7275
aS'we'
p7276
aS'got'
p7277
aS'all'
p7278
aS'these'
p7279
aS'places'
p7280
aS'in'
p7281
aS'the'
p7282
aS'specs'
p7283
aaa(lp7284
g7265
a(lp7285
S'where'
p7286
aS'were'
p7287
aaa(lp7288
g7265
a(lp7289
S'were'
p7290
aS'having'
p7291
aS'to'
p7292
aS'say'
p7293
aaa(lp7294
g7265
a(lp7295
S'you'
p7296
aS'know'
p7297
aaa(lp7298
g7265
a(lp7299
S'K'
p7300
aaa(lp7301
g7265
a(lp7302
S'Figure'
p7303
aS'this'
p7304
aS'one'
p7305
aS'separately'
p7306
aaa(lp7307
g7265
a(lp7308
S'cause'
p7309
aS'we'
p7310
aS'may'
p7311
aS'have'
p7312
aS'to'
p7313
aS'axe'
p7314
aS'it'
p7315
aaa(lp7316
g7265
a(lp7317
S'You'
p7318
aS'know'
p7319
aaa(lp7320
g7265
a(lp7321
S'And'
p7322
aS'were'
p7323
aS'just'
p7324
aaa(lp7325
g7265
a(lp7326
S'biting'
p7327
aS'our'
p7328
aS'nails'
p7329
aaa(lp7330
g7265
a(lp7331
S'cause'
p7332
aS'we'
p7333
aS'dont'
p7334
aS'know'
p7335
aaa(lp7336
g7265
a(lp7337
S'what'
p7338
aS'th'
p7339
aS'the'
p7340
aS'bottom'
p7341
aS'line'
p7342
aS'is'
p7343
aS'gonna'
p7344
aS'be'
p7345
aaa(lp7346
S'BRAD'
p7347
a(lp7348
S'Sure'
p7349
aaa(lp7350
g7347
a(lp7351
S'Th'
p7352
aaa(lp7353
g7347
a(lp7354
S'Yeah'
p7355
aaa(lp7356
S'TAMMYP'
p7357
a(lp7358
S'So'
p7359
ag485
aaa(lp7360
g7357
a(lp7361
S'maybe'
p7362
aS'uh'
p7363
aaa(lp7364
g7357
a(lp7365
S'anyway'
p7366
aaa(lp7367
S'BRAD'
p7368
a(lp7369
S'Some'
p7370
aS'parts'
p7371
aS'of'
p7372
aS'it'
p7373
aS'will'
p7374
aS'really'
p7375
aS'surprise'
p7376
aS'you'
p7377
aaa(lp7378
S'TAMMY'
p7379
a(lp7380
S'BR'
p7381
aS'Yeah'
p7382
aS'BR'
p7383
aaa(lp7384
S'BRADand'
p7385
a(lp7386
S'some'
p7387
aS'parts'
p7388
aS'will'
p7389
aaa(lp7390
g7385
a(lp7391
S'be'
p7392
ag38
aS'lot'
p7393
aS'less'
p7394
aS'than'
p7395
aS'you'
p7396
aS'thought'
p7397
aaa(lp7398
S'TAMMY'
p7399
a(lp7400
S'Yeah'
p7401
aaa(lp7402
g7399
a(lp7403
S'Like'
p7404
aS'windows'
p7405
aS'arent'
p7406
aS'as'
p7407
aS'expensive'
p7408
aS'as'
p7409
ag8
aS'thought'
p7410
aaa(lp7411
g7399
a(lp7412
S'So'
p7413
aaa(lp7414
g7399
a(lp7415
S'its'
p7416
aaa(lp7417
S'BRADOh'
p7418
a(lp7419
aa(lp7420
S'TAMMYThats'
p7421
a(lp7422
S'how'
p7423
aS'its'
p7424
aS'going'
p7425
aaa(lp7426
S'BRADWell'
p7427
a(lp7428
S'thats'
p7429
aS'good'
p7430
aaa(lp7431
S'TAMMY'
p7432
a(lp7433
S'Yeah'
p7434
aaa(lp7435
S'BRAD'
p7436
a(lp7437
S'Well'
p7438
aS'you'
p7439
aS'have'
p7440
aS'to'
p7441
aS'do'
p7442
aaa(lp7443
g7436
a(lp7444
S'double'
p7445
aS'glazed'
p7446
aS'up'
p7447
aS'there'
p7448
aS'now'
p7449
aaa(lp7450
S'TAMMY'
p7451
a(lp7452
S'Yeah'
p7453
aaa(lp7454
g7451
a(lp7455
S'Thats'
p7456
aS'true'
p7457
aaa(lp7458
S'BRAD'
p7459
a(lp7460
aa(lp7461
S'TAMMY'
p7462
a(lp7463
S'Right'
p7464
aaa(lp7465
g7462
a(lp7466
S'Yeah'
p7467
aaa(lp7468
S'BRAD'
p7469
a(lp7470
S'Um'
p7471
aaa(lp7472
g7469
a(lp7473
S'which'
p7474
aS'some'
p7475
aS't'
p7476
aaa(lp7477
g7469
a(lp7478
S'which'
p7479
aS'adds'
p7480
ag38
aS'bit'
p7481
aaa(lp7482
S'TAMMY'
p7483
a(lp7484
S'Yeah'
p7485
aaa(lp7486
S'BRADTo'
p7487
a(lp7488
S'the'
p7489
aS'cost'
p7490
ag30
aS'goes'
p7491
aS'up'
p7492
ag30
aaa(lp7493
S'TAMMY'
p7494
a(lp7495
S'Well'
p7496
aaa(lp7497
g7494
a(lp7498
S'well'
p7499
aS'keep'
p7500
aS'you'
p7501
aS'posted'
p7502
aS'on'
p7503
aaa(lp7504
S'BRAD'
p7505
a(lp7506
S'Okay'
p7507
aaa(lp7508
S'TAMMYhow'
p7509
a(lp7510
S'its'
p7511
aS'all'
p7512
aS'going'
p7513
aaa(lp7514
S'BRAD'
p7515
a(lp7516
S'Just'
p7517
aS'let'
p7518
aS'me'
p7519
aS'know'
p7520
aaa(lp7521
S'TAMMYand'
p7522
a(lp7523
S'Ill'
p7524
aS'certainly'
p7525
aS'let'
p7526
aS'you'
p7527
aS'know'
p7528
aS'about'
p7529
aS'this'
p7530
aS'thing'
p7531
aaa(lp7532
g7522
a(lp7533
S'um'
p7534
aaa(lp7535
g7522
a(lp7536
S'Ill'
p7537
aS'be'
p7538
aS'calling'
p7539
aS'you'
p7540
aS'back'
p7541
aaa(lp7542
S'BRADOkay'
p7543
a(lp7544
aa(lp7545
S'TAMMY'
p7546
a(lp7547
S'Within'
p7548
ag38
aS'few'
p7549
aS'days'
p7550
aaa(lp7551
S'BRAD'
p7552
a(lp7553
S'And'
p7554
ag8
aaa(lp7555
g7552
a(lp7556
g8
aS'think'
p7557
ag8
aS'had'
p7558
aS'given'
p7559
aS'you'
p7560
aS'some'
p7561
aS'literature'
p7562
aS'before'
p7563
aaa(lp7564
S'TAMMY'
p7565
a(lp7566
S'Yeah'
p7567
aaa(lp7568
S'BRADOn'
p7569
a(lp7570
S'that'
p7571
aaa(lp7572
g7569
a(lp7573
S'And'
p7574
aS'it'
p7575
aS'shows'
p7576
aS'those'
p7577
aS'cassette'
p7578
aS'decks'
p7579
aS'in'
p7580
aS'there'
p7581
aaa(lp7582
S'TAMMY'
p7583
a(lp7584
S'Okay'
p7585
aaa(lp7586
S'BRADIf'
p7587
a(lp7588
S'you'
p7589
aS'need'
p7590
ag30
aS'an'
p7591
ag30
aS'additional'
p7592
aS'piece'
p7593
aaa(lp7594
S'TAMMYThats'
p7595
a(lp7596
S'right'
p7597
aaa(lp7598
S'BRADI'
p7599
a(lp7600
S'can'
p7601
aaa(lp7602
g7599
a(lp7603
g8
ag8
aS'can'
p7604
aS'get'
p7605
aS'you'
p7606
aS'one'
p7607
aaa(lp7608
S'TAMMY'
p7609
a(lp7610
g131
aS'no'
p7611
aS'youre'
p7612
aaa(lp7613
g7609
a(lp7614
g8
aS'think'
p7615
aS'youre'
p7616
aS'right'
p7617
aaa(lp7618
S'BRAD'
p7619
a(lp7620
S'Okay'
p7621
aaa(lp7622
S'TAMMY'
p7623
a(lp7624
S'Yeah'
p7625
aS'thats'
p7626
aS'what'
p7627
ag8
aS'had'
p7628
aS'looked'
p7629
aS'at'
p7630
aaa(lp7631
g7623
a(lp7632
S'So'
p7633
aaa(lp7634
g7623
a(lp7635
g8
aS'think'
p7636
aaa(lp7637
g7623
a(lp7638
S'is'
p7639
ag171
aaa(lp7640
g7623
a(lp7641
S'no'
p7642
aaa(lp7643
g7623
a(lp7644
S'You'
p7645
aS'dont'
p7646
aS'have'
p7647
aS'the'
p7648
aaa(lp7649
S'BRADI'
p7650
a(lp7651
S'have'
p7652
aS'the'
p7653
ag6087
aS'the'
p7654
aaa(lp7655
S'TAMMYone'
p7656
a(lp7657
aa(lp7658
S'BRADthe'
p7659
a(lp7660
S'double'
p7661
aS'one'
p7662
aS'here'
p7663
aaa(lp7664
S'TAMMY'
p7665
a(lp7666
S'right'
p7667
aaa(lp7668
g7665
a(lp7669
S'Right'
p7670
aaa(lp7671
S'BRAD'
p7672
a(lp7673
S'And'
p7674
ag8
aS'have'
p7675
aS'the'
p7676
aaa(lp7677
S'TAMMYThats'
p7678
a(lp7679
S'what'
p7680
ag8
aS'saw'
p7681
aaa(lp7682
S'BRADthe'
p7683
a(lp7684
S'real'
p7685
aS'high'
p7686
aS'end'
p7687
aaa(lp7688
g7683
a(lp7689
S'um'
p7690
aaa(lp7691
S'TAMMYMhm'
p7692
a(lp7693
aa(lp7694
S'BRAD'
p7695
a(lp7696
S'single'
p7697
aS'one'
p7698
aaa(lp7699
S'TAMMY'
p7700
a(lp7701
S'yeah'
p7702
aaa(lp7703
g7700
a(lp7704
S'Okay'
p7705
aaa(lp7706
S'BRAD'
p7707
a(lp7708
aa(lp7709
S'TAMMYAlright'
p7710
a(lp7711
aa(lp7712
S'BRAD'
p7713
a(lp7714
S'The'
p7715
aS'other'
p7716
ag7476
aaa(lp7717
g7713
a(lp7718
S'the'
p7719
aS'other'
p7720
aaa(lp7721
g7713
a(lp7722
S'the'
p7723
aS'single'
p7724
aS'auto'
p7725
aS'reverse'
p7726
aaa(lp7727
g7713
a(lp7728
g8
aS'have'
p7729
aS'in'
p7730
aS'stock'
p7731
aaa(lp7732
g7713
a(lp7733
g8
aS'just'
p7734
aS'dont'
p7735
aS'have'
p7736
aS'on'
p7737
aS'display'
p7738
aaa(lp7739
S'TAMMY'
p7740
a(lp7741
S'Yeah'
p7742
aaa(lp7743
g7740
a(lp7744
S'Thats'
p7745
aS'alright'
p7746
aaa(lp7747
g7740
a(lp7748
S'Yeah'
p7749
aaa(lp7750
S'BRAD'
p7751
a(lp7752
S'Okay'
p7753
aaa(lp7754
S'TAMMY'
p7755
a(lp7756
S'Okay'
p7757
aaa(lp7758
g7755
a(lp7759
S'Good'
p7760
aaa(lp7761
g7755
a(lp7762
S'Thanks'
p7763
aS'so'
p7764
aS'much'
p7765
aaa(lp7766
S'BRAD'
p7767
a(lp7768
S'Well'
p7769
aS'that'
p7770
aS'gives'
p7771
aS'you'
p7772
aS'an'
p7773
aS'idea'
p7774
aaa(lp7775
S'TAMMYAlright'
p7776
a(lp7777
aa(lp7778
g7776
a(lp7779
S'Good'
p7780
aaa(lp7781
S'BRAD'
p7782
a(lp7783
S'Okay'
p7784
aS'good'
p7785
aaa(lp7786
S'TAMMYI'
p7787
a(lp7788
S'kept'
p7789
aS'you'
p7790
aS'five'
p7791
aS'minutes'
p7792
aaa(lp7793
g7787
a(lp7794
S'but'
p7795
ag8
aS'bet'
p7796
aaa(lp7797
S'BRAD'
p7798
a(lp7799
S'Oh'
p7800
aaa(lp7801
S'TAMMY'
p7802
a(lp7803
g8
aS'bet'
p7804
aS'its'
p7805
aS'been'
p7806
aS'worse'
p7807
aS'than'
p7808
aS'that'
p7809
aS'before'
p7810
aaa(lp7811
S'BRAD'
p7812
a(lp7813
S'Its'
p7814
aaa(lp7815
g7812
a(lp7816
S'its'
p7817
aaa(lp7818
g7812
a(lp7819
S'Oh'
p7820
aaa(lp7821
g7812
a(lp7822
S'This'
p7823
aS'is'
p7824
aS'nothing'
p7825
aaa(lp7826
S'TAMMY'
p7827
a(lp7828
aa(lp7829
S'BRAD'
p7830
a(lp7831
S'Yeah'
p7832
aaa(lp7833
g7830
a(lp7834
S'This'
p7835
aS'is'
p7836
aS'nothing'
p7837
aaa(lp7838
g7830
a(lp7839
S'This'
p7840
aS'is'
p7841
ag38
aS'joy'
p7842
aaa(lp7843
S'TAMMY'
p7844
a(lp7845
S'Hunh'
p7846
aaa(lp7847
S'BRADTo'
p7848
a(lp7849
S'tell'
p7850
aS'you'
p7851
aS'the'
p7852
aS'truth'
p7853
aaa(lp7854
S'TAMMY'
p7855
a(lp7856
S'Good'
p7857
aaa(lp7858
g7855
a(lp7859
S'Good'
p7860
aaa(lp7861
S'BRAD'
p7862
a(lp7863
aa(lp7864
S'TAMMY'
p7865
a(lp7866
aa(lp7867
g7865
a(lp7868
S'Well'
p7869
ag8
aS'think'
p7870
aS'youve'
p7871
aS'got'
p7872
aS'another'
p7873
aS'sale'
p7874
aaa(lp7875
S'BRAD'
p7876
a(lp7877
S'Okay'
p7878
aaa(lp7879
S'TAMMY'
p7880
a(lp7881
S'So'
p7882
aaa(lp7883
S'BRADOkay'
p7884
a(lp7885
aa(lp7886
g7884
a(lp7887
S'Well'
p7888
aaa(lp7889
S'TAMMY'
p7890
a(lp7891
S'just'
p7892
aS'have'
p7893
aS'to'
p7894
aS'talk'
p7895
aS'to'
p7896
aS'Matt'
p7897
aaa(lp7898
S'BRAD'
p7899
a(lp7900
S'thank'
p7901
aS'you'
p7902
aaa(lp7903
S'TAMMY'
p7904
a(lp7905
S'Yeah'
p7906
aaa.