(lp0
(lp1
S'ENV'
p2
a(lp3
aa(lp4
S'KARENHi'
p5
a(lp6
S'sweetie'
p7
aaa(lp8
S'SCOTT'
p9
a(lp10
S'Hey'
p11
aaa(lp12
S'KARENX'
p13
a(lp14
S'Sweetie'
p15
aS'frumptions'
p16
aS'X'
p17
aaa(lp18
g13
a(lp19
S'This'
p20
aS'is'
p21
aS'kinda'
p22
aS'open'
p23
aaa(lp24
S'SCOTT'
p25
a(lp26
S'Yep'
p27
aaa(lp28
g25
a(lp29
S'How'
p30
aS'was'
p31
aS'work'
p32
aaa(lp33
S'ENV'
p34
a(lp35
aa(lp36
S'KARENIm'
p37
a(lp38
S'so'
p39
aS'tired'
p40
aaa(lp41
S'SCOTT'
p42
a(lp43
S'Tired'
p44
aaa(lp45
S'KARENIt'
p46
a(lp47
S'was'
p48
aaa(lp49
g46
a(lp50
S'It'
p51
aS'was'
p52
aS'okay'
p53
aaa(lp54
g46
a(lp55
S'I'
p56
aS'left'
p57
aS'my'
p58
aS'bag'
p59
aS'there'
p60
aaa(lp61
g46
a(lp62
S'VOX'
p63
ag56
aS'left'
p64
aS'my'
p65
aS'bag'
p66
aaa(lp67
g46
a(lp68
S'and'
p69
aS'all'
p70
aS'my'
p71
aS'money'
p72
aaa(lp73
g46
a(lp74
S'and'
p75
aS'all'
p76
aS'my'
p77
aS'things'
p78
aS'VOX'
p79
aaa(lp80
S'SCOTT'
p81
a(lp82
S'Now'
p83
aS'the'
p84
aS'ghostsll'
p85
aS'get'
p86
aS'it'
p87
aaa(lp88
S'KARENThey'
p89
a(lp90
S'ca'
p91
aaa(lp92
g89
a(lp93
S'Ghostsll'
p94
aS'get'
p95
aS'it'
p96
aaa(lp97
g89
a(lp98
S'thats'
p99
aS'okay'
p100
aaa(lp101
g89
a(lp102
S'Um'
p103
aaa(lp104
g89
a(lp105
S'ten'
p106
aS'thirty'
p107
aaa(lp108
g89
a(lp109
S'there'
p110
aS'were'
p111
aS'probably'
p112
aS'thirty'
p113
aS'people'
p114
aS'in'
p115
aS'the'
p116
aS'store'
p117
aaa(lp118
S'SCOTT'
p119
a(lp120
S'Good'
p121
aS'grief'
p122
aaa(lp123
S'KARENWere'
p124
a(lp125
S'like'
p126
aaa(lp127
g124
a(lp128
S'VOX'
p129
aS'okay'
p130
aaa(lp131
g124
a(lp132
S'its'
p133
aS'time'
p134
aS'to'
p135
aS'go'
p136
aS'out'
p137
aS'now'
p138
aaa(lp139
g124
a(lp140
S'Were'
p141
aS'closed'
p142
aaa(lp143
g124
a(lp144
S'Were'
p145
aS'closed'
p146
aaa(lp147
g124
a(lp148
S'We'
p149
aS'are'
p150
aS'closed'
p151
aS'now'
p152
aaa(lp153
g124
a(lp154
S'Please'
p155
aS'leave'
p156
aS'VOX'
p157
aaa(lp158
S'SCOTT'
p159
a(lp160
S'Turn'
p161
aS'on'
p162
aS'the'
p163
aS'fire'
p164
aS'alarm'
p165
aaa(lp166
S'KARENI'
p167
a(lp168
aa(lp169
g167
a(lp170
S'Turn'
p171
aS'on'
p172
aS'the'
p173
aS'fire'
p174
aS'alarm'
p175
aaa(lp176
g167
a(lp177
S'that'
p178
aS'would'
p179
aS'do'
p180
aS'it'
p181
aaa(lp182
g167
a(lp183
S'These'
p184
aS'kids'
p185
aS'were'
p186
aS'came'
p187
aS'in'
p188
aaa(lp189
g167
a(lp190
S'and'
p191
aaa(lp192
g167
a(lp193
g56
aS'was'
p194
aS'like'
p195
aaa(lp196
g167
a(lp197
S'w'
p198
aS'were'
p199
aS'closing'
p200
aaa(lp201
g167
a(lp202
S'In'
p203
aS'a'
p204
aS'few'
p205
aS'minutes'
p206
aaa(lp207
g167
a(lp208
S'they'
p209
aS'said'
p210
aaa(lp211
g167
a(lp212
S'well'
p213
aS'well'
p214
aaa(lp215
g167
a(lp216
S'Well'
p217
aS'wait'
p218
aS'until'
p219
aS'you'
p220
aS'kick'
p221
aS'us'
p222
aS'out'
p223
aaa(lp224
g167
a(lp225
S'Cause'
p226
aS'they'
p227
aS'didnt'
p228
aS'really'
p229
aS'want'
p230
aS'to'
p231
aS'buy'
p232
aS'anything'
p233
aaa(lp234
g167
a(lp235
S'they'
p236
aS'just'
p237
aS'wanted'
p238
aS'to'
p239
aS'look'
p240
aaa(lp241
S'SCOTTMhm'
p242
a(lp243
aa(lp244
S'KAREN'
p245
a(lp246
S'And'
p247
ag56
aS'said'
p248
aaa(lp249
g245
a(lp250
S'okay'
p251
aaa(lp252
g245
a(lp253
S'were'
p254
aS'closed'
p255
aaa(lp256
g245
a(lp257
S'Out'
p258
aaa(lp259
g245
a(lp260
S'And'
p261
aaa(lp262
g245
a(lp263
S'so'
p264
ag56
aS'was'
p265
aS'moving'
p266
aS'them'
p267
aaa(lp268
g245
a(lp269
S'like'
p270
aS'making'
p271
aS'them'
p272
aS'go'
p273
aS'out'
p274
aaa(lp275
S'SCOTTMhm'
p276
a(lp277
aa(lp278
S'KARENand'
p279
a(lp280
S'they'
p281
aS'were'
p282
aS'trying'
p283
aS'to'
p284
aS'be'
p285
aS'cute'
p286
aaa(lp287
g279
a(lp288
S'and'
p289
aS'say'
p290
aS'sweet'
p291
aS'things'
p292
aaa(lp293
g279
a(lp294
S'and'
p295
aaa(lp296
g279
a(lp297
S'To'
p298
aS'stay'
p299
aS'in'
p300
aaa(lp301
S'SCOTT'
p302
a(lp303
S'Yeah'
p304
aaa(lp305
g302
a(lp306
S'lots'
p307
aS'of'
p308
aS'student'
p309
aS'types'
p310
aaa(lp311
S'KAREN'
p312
a(lp313
S'Yeah'
p314
aaa(lp315
g312
a(lp316
S'there'
p317
aS'are'
p318
ag204
aS'lot'
p319
aaa(lp320
g312
a(lp321
S'but'
p322
aS'there'
p323
aS'are'
p324
aS'mostly'
p325
aS'families'
p326
aaa(lp327
g312
a(lp328
g17
aS'so'
p329
aS'in'
p330
aS'terms'
p331
aS'of'
p332
aS'being'
p333
aS'uh'
p334
ag17
aaa(lp335
S'SCOTTMhm'
p336
a(lp337
aa(lp338
S'KAREN'
p339
a(lp340
S'umm'
p341
aaa(lp342
g339
a(lp343
S'and'
p344
aS'so'
p345
aaa(lp346
g339
a(lp347
S'kids'
p348
aS'said'
p349
aS'well'
p350
aaa(lp351
g339
a(lp352
S'are'
p353
aS'there'
p354
aS'any'
p355
aS'oth'
p356
aaa(lp357
g339
a(lp358
S'What'
p359
aS'times'
p360
aS'it'
p361
aaa(lp362
g339
a(lp363
S'eleven'
p364
aaa(lp365
g339
a(lp366
g56
aS'said'
p367
aaa(lp368
g339
a(lp369
S'no'
p370
aS'its'
p371
aS'ten'
p372
aS'thirty'
p373
aaa(lp374
g339
a(lp375
S'its'
p376
aS'past'
p377
aS'our'
p378
aS'closing'
p379
aS'time'
p380
aS'actually'
p381
aaa(lp382
g339
a(lp383
S'And'
p384
aaa(lp385
g339
a(lp386
S'they'
p387
aS'said'
p388
aaa(lp389
g339
a(lp390
S'well'
p391
aS'are'
p392
aS'there'
p393
aS'any'
p394
aS'other'
p395
aaa(lp396
g339
a(lp397
S'That'
p398
aS'what'
p399
aS'are'
p400
aS'the'
p401
aS'other'
p402
aS'bookstores'
p403
aS'open'
p404
aS'in'
p405
aS'town'
p406
aaa(lp407
g339
a(lp408
S'Now'
p409
aaa(lp410
g339
a(lp411
S'Im'
p412
aS'like'
p413
aaa(lp414
g339
a(lp415
S'come'
p416
aS'on'
p417
aaa(lp418
g339
a(lp419
S'Its'
p420
aS'ten'
p421
aS'thirty'
p422
aaa(lp423
g339
a(lp424
S'This'
p425
aS'is'
p426
aS'the'
p427
aS'latest'
p428
aS'thing'
p429
aS'open'
p430
aS'besides'
p431
aS'ice'
p432
aS'cream'
p433
aS'stores'
p434
aS'and'
p435
aS'bars'
p436
aaa(lp437
S'SCOTTMhm'
p438
a(lp439
aa(lp440
S'KAREN'
p441
a(lp442
S'And'
p443
aaa(lp444
g441
a(lp445
S'some'
p446
aS'other'
p447
aS'guy'
p448
aS'came'
p449
aS'in'
p450
aaa(lp451
g441
a(lp452
g56
aS'felt'
p453
aS'kinda'
p454
aS'bad'
p455
aaa(lp456
g441
a(lp457
S'but'
p458
aaa(lp459
g441
a(lp460
g56
aS'guess'
p461
aS'Im'
p462
aS'glad'
p463
ag56
aS'said'
p464
aS'what'
p465
ag56
aS'said'
p466
aaa(lp467
g441
a(lp468
S'theres'
p469
aS'some'
p470
aS'guy'
p471
aS'came'
p472
aS'in'
p473
aS'who'
p474
aaa(lp475
g441
a(lp476
S'N'
p477
aS'he'
p478
aS'looked'
p479
aS'like'
p480
ag204
aS'student'
p481
aaa(lp482
g441
a(lp483
S'sort'
p484
aS'of'
p485
ag204
aS'student'
p486
aS'type'
p487
aS'but'
p488
aaa(lp489
g441
a(lp490
S'ver'
p491
aS'nicely'
p492
aS'kept'
p493
aaa(lp494
g441
a(lp495
S'Friendly'
p496
aS'looking'
p497
aaa(lp498
g441
a(lp499
S'And'
p500
aS'basically'
p501
aS'needed'
p502
ag204
aS'place'
p503
aS'to'
p504
aS'stay'
p505
aS'because'
p506
aaa(lp507
g441
a(lp508
S'he'
p509
aS'ended'
p510
aS'up'
p511
aS'in'
p512
aS'town'
p513
aS'with'
p514
aS'twenty'
p515
aS'dollars'
p516
aaa(lp517
g441
a(lp518
S'And'
p519
aaa(lp520
g441
a(lp521
g56
aS'mean'
p522
aaa(lp523
g441
a(lp524
S'couldnt'
p525
aS'get'
p526
aS'to'
p527
aS'Amherst'
p528
aaa(lp529
g441
a(lp530
S'cause'
p531
aS'of'
p532
aS'no'
p533
aS'car'
p534
aaa(lp535
g441
a(lp536
S'and'
p537
aS'no'
p538
aS'buses'
p539
aaa(lp540
g441
a(lp541
S'and'
p542
aaa(lp543
g441
a(lp544
S'no'
p545
aS'hotels'
p546
aS'that'
p547
aS'were'
p548
aS'open'
p549
aS'and'
p550
aaa(lp551
S'SCOTTYou'
p552
a(lp553
S'mean'
p554
aS'buses'
p555
aS'werent'
p556
aS'running'
p557
aS'then'
p558
aaa(lp559
S'KAREN'
p560
a(lp561
S'et'
p562
aS'cetera'
p563
aaa(lp564
S'SCOTTHmm'
p565
a(lp566
aa(lp567
S'KARENand'
p568
a(lp569
S'he'
p570
aS'wanted'
p571
aS'to'
p572
aS'know'
p573
aS'if'
p574
ag56
aS'knew'
p575
aS'anyone'
p576
aS'who'
p577
aS'would'
p578
aS'put'
p579
aS'him'
p580
aS'up'
p581
aaa(lp582
g568
a(lp583
S'And'
p584
aaa(lp585
g568
a(lp586
g56
aS'referred'
p587
aS'him'
p588
aS'down'
p589
aS'to'
p590
aS'Paul'
p591
aaa(lp592
g568
a(lp593
S'Cause'
p594
ag56
aS'just'
p595
aaa(lp596
g568
a(lp597
S'and'
p598
aS'then'
p599
aaa(lp600
g568
a(lp601
g56
aS'felt'
p602
aS'like'
p603
aaa(lp604
g568
a(lp605
S'oh'
p606
ag56
aS'wanted'
p607
aS'to'
p608
aaa(lp609
S'SCOTTMhm'
p610
a(lp611
aa(lp612
S'KARENbut'
p613
a(lp614
S'at'
p615
aS'the'
p616
aS'same'
p617
aS'time'
p618
ag56
aS'thought'
p619
aaa(lp620
g613
a(lp621
S'well'
p622
aS'thats'
p623
ag204
ag17
aS'better'
p624
aS'thing'
p625
aS'and'
p626
aS'should'
p627
aS'we'
p628
ag17
aS'talk'
p629
aS'to'
p630
aS'John'
p631
aS'about'
p632
aaa(lp633
S'SCOTT'
p634
a(lp635
S'Mhm'
p636
aaa(lp637
S'KAREN'
p638
a(lp639
S'And'
p640
ag56
aS'also'
p641
aS'just'
p642
aS'wasnt'
p643
aS'quite'
p644
aS'comfortable'
p645
aaa(lp646
S'SCOTT'
p647
a(lp648
S'Mhm'
p649
aaa(lp650
S'KARENBut'
p651
a(lp652
S'at'
p653
aS'the'
p654
aS'same'
p655
aS'time'
p656
aaa(lp657
g651
a(lp658
g56
aS'would'
p659
aS'have'
p660
aS'been'
p661
aS'comfortable'
p662
ag56
aS'think'
p663
aaa(lp664
g651
a(lp665
S'So'
p666
aaa(lp667
g651
a(lp668
g56
aS'dont'
p669
aS'know'
p670
aaa(lp671
g651
a(lp672
S'L'
p673
aS'Je'
p674
aS'ne'
p675
aS'sais'
p676
aS'pas'
p677
ag673
aaa(lp678
g651
a(lp679
S'Oh'
p680
aS'the'
p681
aS'other'
p682
aS'thing'
p683
ag56
aS'found'
p684
aS'out'
p685
aaa(lp686
g651
a(lp687
g56
aS'h'
p688
aS'was'
p689
aS'returning'
p690
aS'the'
p691
aS'book'
p692
aS'on'
p693
aS'uh'
p694
aaa(lp695
g651
a(lp696
S'cohousing'
p697
aaa(lp698
S'SCOTT'
p699
a(lp700
S'Uhuh'
p701
aaa(lp702
S'KAREN'
p703
a(lp704
S'And'
p705
aS'um'
p706
aaa(lp707
g703
a(lp708
S'Paul'
p709
aaa(lp710
g703
a(lp711
S'And'
p712
aaa(lp713
g703
a(lp714
S'well'
p715
aaa(lp716
g703
a(lp717
S'first'
p718
aS'Paul'
p719
aS'said'
p720
aaa(lp721
g703
a(lp722
S'oh'
p723
ag56
aS'have'
p724
aS'this'
p725
aS'friend'
p726
aS'named'
p727
aS'Sarah'
p728
aS'in'
p729
aS'Hart'
p730
aS'in'
p731
aS'Hartford'
p732
aaa(lp733
g703
a(lp734
S'and'
p735
aS'she'
p736
aS'has'
p737
aS'this'
p738
aS'place'
p739
aS'that'
p740
aS'deals'
p741
aS'with'
p742
aS'coop'
p743
aaa(lp744
g703
a(lp745
S'whats'
p746
aS'it'
p747
aaa(lp748
g703
a(lp749
S'coop'
p750
aS'initiatives'
p751
aaa(lp752
S'SCOTT'
p753
a(lp754
S'Mhm'
p755
aaa(lp756
S'KARENAnd'
p757
a(lp758
S'um'
p759
aaa(lp760
g757
a(lp761
S'they'
p762
aS's'
p763
aaa(lp764
g757
a(lp765
S'Oo'
p766
aaa(lp767
g757
a(lp768
S'Im'
p769
aS'sore'
p770
aaa(lp771
g757
a(lp772
S'Oo'
p773
aaa(lp774
g757
a(lp775
S'She'
p776
aS'deals'
p777
ag204
aS'lot'
p778
aS'with'
p779
aS'alternative'
p780
aS'kinda'
p781
aS'housing'
p782
aaa(lp783
g757
a(lp784
S'and'
p785
aS'cohousing'
p786
aaa(lp787
g757
a(lp788
S'and'
p789
aS'housing'
p790
aS'for'
p791
aS'the'
p792
aS'sake'
p793
aS'of'
p794
aS'people'
p795
aS'and'
p796
aS'stuff'
p797
aaa(lp798
S'SCOTT'
p799
a(lp800
S'Mhm'
p801
aaa(lp802
S'KAREN'
p803
a(lp804
S'So'
p805
aS'we'
p806
aS'were'
p807
aS'talking'
p808
aS'about'
p809
aS'that'
p810
aaa(lp811
g803
a(lp812
S'and'
p813
aS'then'
p814
aS'while'
p815
aS'we'
p816
aS'were'
p817
aS'talking'
p818
aS'about'
p819
aS'that'
p820
aaa(lp821
g803
a(lp822
S'um'
p823
aaa(lp824
g803
a(lp825
g204
aS'lady'
p826
aS'came'
p827
aS'to'
p828
aS'buy'
p829
aS'something'
p830
aaa(lp831
g803
a(lp832
S'and'
p833
aaa(lp834
g803
a(lp835
S'she'
p836
ag763
aS'gave'
p837
aS'me'
p838
aS'the'
p839
aS'name'
p840
aS'of'
p841
aS'this'
p842
aS'other'
p843
aaa(lp844
g803
a(lp845
S'This'
p846
aS'Amherst'
p847
aS'architect'
p848
aaa(lp849
g803
a(lp850
S'who'
p851
ag763
aaa(lp852
g803
a(lp853
S'started'
p854
aS'two'
p855
aS'cohousing'
p856
aS'developments'
p857
aaa(lp858
g803
a(lp859
S'in'
p860
aS'this'
p861
aS'area'
p862
aaa(lp863
S'SCOTT'
p864
a(lp865
S'Hm'
p866
aaa(lp867
S'KAREN'
p868
a(lp869
aa(lp870
g868
a(lp871
S'It'
p872
aS'was'
p873
aS'just'
p874
aS'so'
p875
aS'funny'
p876
aS'to'
p877
aaa(lp878
g868
a(lp879
S'and'
p880
aaa(lp881
g868
a(lp882
S'Jen'
p883
aS'and'
p884
ag56
aS'put'
p885
ag204
aS'note'
p886
aS'in'
p887
aS'the'
p888
aS'log'
p889
aaa(lp890
S'SCOTTMhm'
p891
a(lp892
aa(lp893
S'KARENin'
p894
a(lp895
S'the'
p896
aS'book'
p897
aS'checkout'
p898
aS'thing'
p899
aaa(lp900
S'SCOTT'
p901
a(lp902
S'Mhm'
p903
aaa(lp904
S'KAREN'
p905
a(lp906
S'By'
p907
aS'my'
p908
aS'the'
p909
aaa(lp910
g905
a(lp911
S'So'
p912
ag56
aS'wrote'
p913
aS'down'
p914
aS'the'
p915
aS'name'
p916
aS'of'
p917
aS'the'
p918
aS'book'
p919
aS'to'
p920
aS'check'
p921
aS'it'
p922
aS'out'
p923
aaa(lp924
g905
a(lp925
S'and'
p926
aS'she'
p927
aS'put'
p928
ag204
aS'note'
p929
aS'said'
p930
aaa(lp931
g905
a(lp932
S'oh'
p933
aS'neat'
p934
aaa(lp935
g905
a(lp936
S'Ive'
p937
aS'got'
p938
ag204
aS'friend'
p939
aS'whos'
p940
aS'in'
p941
ag204
aS'cohousing'
p942
aS'place'
p943
aaa(lp944
g905
a(lp945
S'in'
p946
aS'Denver'
p947
aaa(lp948
g905
a(lp949
S'In'
p950
aS'like'
p951
aS'Colo'
p952
ag763
aaa(lp953
g905
a(lp954
g56
aS'think'
p955
aS'it'
p956
aS'was'
p957
aS'in'
p958
aS'Denver'
p959
aaa(lp960
S'SCOTTUhuh'
p961
a(lp962
aa(lp963
S'KAREN'
p964
a(lp965
S'P'
p966
ag966
aaa(lp967
g964
a(lp968
S'So'
p969
aS'it'
p970
aS'was'
p971
aS'pretty'
p972
aS'wild'
p973
aaa(lp974
S'SCOTT'
p975
a(lp976
S'Uhuh'
p977
aaa(lp978
S'KAREN'
p979
a(lp980
g56
aS'have'
p981
aS'to'
p982
aS'pee'
p983
aaa(lp984
S'SCOTT'
p985
a(lp986
S'Okay'
p987
aaa(lp988
S'KAREN'
p989
a(lp990
S'Oh'
p991
aaa(lp992
g989
a(lp993
g966
aS'XX'
p994
aS'my'
p995
aS'shoes'
p996
aS'first'
p997
aaa(lp998
g989
a(lp999
S'Im'
p1000
aS'so'
p1001
aS'tired'
p1002
aaa(lp1003
g989
a(lp1004
S'So'
p1005
aS'so'
p1006
aS'so'
p1007
aS'tired'
p1008
ag966
aaa(lp1009
g989
a(lp1010
g56
aS'didnt'
p1011
aS'buy'
p1012
aS'any'
p1013
aS'books'
p1014
aaa(lp1015
g989
a(lp1016
g56
aS'couldnt'
p1017
aS'decide'
p1018
aS'what'
p1019
ag56
aS'wanted'
p1020
aaa(lp1021
g989
a(lp1022
S'and'
p1023
aS'then'
p1024
aaa(lp1025
g989
a(lp1026
S'things'
p1027
aS'just'
p1028
aS'got'
p1029
aS'too'
p1030
aS'harried'
p1031
aS'and'
p1032
ag56
aaa(lp1033
g989
a(lp1034
S'just'
p1035
aS'didnt'
p1036
aS'think'
p1037
aS'it'
p1038
aS'was'
p1039
aS'the'
p1040
aS'right'
p1041
aS'time'
p1042
aS'to'
p1043
aS'buy'
p1044
ag204
aS'book'
p1045
aaa(lp1046
S'SCOTT'
p1047
a(lp1048
S'Mm'
p1049
aaa(lp1050
S'KAREN'
p1051
a(lp1052
aa(lp1053
S'SCOTT'
p1054
a(lp1055
S'We'
p1056
aS'got'
p1057
aS'more'
p1058
aS'stuff'
p1059
aS'for'
p1060
aS'your'
p1061
aS'dad'
p1062
aaa(lp1063
S'KAREN'
p1064
a(lp1065
S'What'
p1066
aS'kinda'
p1067
aS'stuff'
p1068
aaa(lp1069
S'SCOTT'
p1070
a(lp1071
S'Umm'
p1072
aaa(lp1073
g1070
a(lp1074
S'computer'
p1075
aS'access'
p1076
aS'places'
p1077
aaa(lp1078
S'KAREN'
p1079
a(lp1080
S'Like'
p1081
aS'places'
p1082
aS'you'
p1083
aS'could'
p1084
aS'plug'
p1085
aS'into'
p1086
aaa(lp1087
S'SCOTTXX'
p1088
a(lp1089
S'XX'
p1090
aaa(lp1091
g1088
a(lp1092
S'Plug'
p1093
aS'in'
p1094
aS'to'
p1095
aS'get'
p1096
aS'email'
p1097
aS'and'
p1098
aS'stuff'
p1099
aaa(lp1100
S'KARENX'
p1101
a(lp1102
S'or'
p1103
ag17
aaa(lp1104
g1101
a(lp1105
S'VOX'
p1106
aS'Aw'
p1107
aS'VOX'
p1108
aaa(lp1109
S'SCOTT'
p1110
a(lp1111
S'And'
p1112
ag56
aS'also'
p1113
aaa(lp1114
g1110
a(lp1115
S'fiddled'
p1116
aS'around'
p1117
aS'and'
p1118
aaa(lp1119
g1110
a(lp1120
S'figured'
p1121
aS'out'
p1122
aS'how'
p1123
ag56
aS'can'
p1124
aS'get'
p1125
aS'things'
p1126
aS'to'
p1127
aS'print'
p1128
aS'out'
p1129
aS'two'
p1130
aS'on'
p1131
ag204
aS'page'
p1132
aaa(lp1133
S'KARENOo'
p1134
a(lp1135
aa(lp1136
S'SCOTT'
p1137
a(lp1138
S'S'
p1139
aS'take'
p1140
aS'up'
p1141
aS'less'
p1142
aS'paper'
p1143
aaa(lp1144
S'KAREN'
p1145
a(lp1146
S'Unhunh'
p1147
aaa(lp1148
S'SCOTT'
p1149
a(lp1150
S'You'
p1151
aS'need'
p1152
ag204
aS'magnifying'
p1153
aS'glass'
p1154
aaa(lp1155
g1149
a(lp1156
S'but'
p1157
aaa(lp1158
S'KAREN'
p1159
a(lp1160
S'No'
p1161
ag56
aS'think'
p1162
aS'its'
p1163
aS'okay'
p1164
aaa(lp1165
S'SCOTT'
p1166
a(lp1167
S'In'
p1168
aS'better'
p1169
aS'light'
p1170
aaa(lp1171
S'KAREN'
p1172
a(lp1173
S'Yeah'
p1174
aS'we'
p1175
aS'have'
p1176
aS'to'
p1177
aS'get'
p1178
ag204
aS'light'
p1179
aaa(lp1180
g1172
a(lp1181
S'Y'
p1182
aaa(lp1183
g1172
a(lp1184
S'Oo'
p1185
ag56
aS'have'
p1186
aS'to'
p1187
aS'go'
p1188
aS'to'
p1189
aS'the'
p1190
aS'bathroom'
p1191
aS'really'
p1192
aS'bad'
p1193
aaa(lp1194
g1172
a(lp1195
S'Here'
p1196
aaa(lp1197
S'SCOTTOkay'
p1198
a(lp1199
aa(lp1200
S'KAREN'
p1201
a(lp1202
S'Take'
p1203
aS'this'
p1204
aS'back'
p1205
aaa(lp1206
g1201
a(lp1207
g56
aS'gotta'
p1208
aS'take'
p1209
aS'my'
p1210
aS'sock'
p1211
aS'off'
p1212
aaa(lp1213
g1201
a(lp1214
S'Be'
p1215
aS'right'
p1216
aS'back'
p1217
aaa(lp1218
S'SCOTTYes'
p1219
a(lp1220
S'lighting'
p1221
aS'is'
p1222
aS'an'
p1223
aS'issue'
p1224
aaa(lp1225
g1219
a(lp1226
S'that'
p1227
aS'needs'
p1228
aS'to'
p1229
aS'be'
p1230
aS'addressed'
p1231
aS'in'
p1232
aS'this'
p1233
aS'house'
p1234
aaa(lp1235
S'KAREN'
p1236
a(lp1237
aa(lp1238
g1236
a(lp1239
S'So'
p1240
aaa(lp1241
g1236
a(lp1242
S'it'
p1243
aS'seems'
p1244
aS'like'
p1245
ag204
aS'fairly'
p1246
aS'basic'
p1247
aS'one'
p1248
aaa(lp1249
g1236
a(lp1250
S'That'
p1251
aS'we'
p1252
aS'could'
p1253
aS'address'
p1254
aS'fairly'
p1255
aS'easily'
p1256
aaa(lp1257
g1236
a(lp1258
g56
aS'was'
p1259
aS'thinking'
p1260
aS'we'
p1261
aS'should'
p1262
aS'walk'
p1263
aS'down'
p1264
aS'sometime'
p1265
aS'to'
p1266
ag688
aaa(lp1267
g1236
a(lp1268
S'to'
p1269
aS'the'
p1270
aS'umm'
p1271
aaa(lp1272
g1236
a(lp1273
S'eeya'
p1274
aS'eeya'
p1275
aS'eeya'
p1276
aaa(lp1277
g1236
a(lp1278
S'to'
p1279
aS'the'
p1280
aS'lighting'
p1281
aS'place'
p1282
aaa(lp1283
g1236
a(lp1284
S'down'
p1285
aS'by'
p1286
aaa(lp1287
S'SCOTTMhm'
p1288
a(lp1289
aa(lp1290
g1288
a(lp1291
S'why'
p1292
aS'dont'
p1293
aS'you'
p1294
aS'just'
p1295
aS'go'
p1296
aaa(lp1297
S'KAREN'
p1298
a(lp1299
S'Well'
p1300
aS'because'
p1301
ag56
aS'wanna'
p1302
aaa(lp1303
g1298
a(lp1304
g56
aS'wanna'
p1305
aS'do'
p1306
aS'things'
p1307
aS'orderly'
p1308
aaa(lp1309
S'SCOTT'
p1310
a(lp1311
aa(lp1312
S'KAREN'
p1313
a(lp1314
S'Sorry'
p1315
aaa(lp1316
S'SCOTT'
p1317
a(lp1318
aa(lp1319
S'KAREN'
p1320
a(lp1321
S'Scott'
p1322
aaa(lp1323
S'SCOTTMhm'
p1324
a(lp1325
aa(lp1326
S'KAREN'
p1327
a(lp1328
g56
aS'used'
p1329
aS'the'
p1330
aS'rest'
p1331
aS'of'
p1332
aS'the'
p1333
aS'orange'
p1334
aS'juice'
p1335
aaa(lp1336
g1327
a(lp1337
S'but'
p1338
ag56
aS'put'
p1339
aS'the'
p1340
aS'container'
p1341
aS'back'
p1342
aaa(lp1343
g1327
a(lp1344
S'in'
p1345
aS'the'
p1346
aS'fridge'
p1347
aaa(lp1348
g1327
a(lp1349
S'So'
p1350
aS'that'
p1351
aS'we'
p1352
aS'dont'
p1353
aS'have'
p1354
aS'to'
p1355
aS'wash'
p1356
aS'it'
p1357
aaa(lp1358
g1327
a(lp1359
S'you'
p1360
aS'can'
p1361
aS'just'
p1362
aS'make'
p1363
aS'more'
p1364
aS'orange'
p1365
aS'juice'
p1366
aS'tomorrow'
p1367
aaa(lp1368
S'SCOTT'
p1369
a(lp1370
S'Okay'
p1371
aaa(lp1372
g1369
a(lp1373
S'So'
p1374
aS'far'
p1375
aaa(lp1376
g1369
a(lp1377
S'the'
p1378
aS'cheapest'
p1379
aS'place'
p1380
ag56
aS'found'
p1381
aS'in'
p1382
aS'here'
p1383
aS'is'
p1384
aaa(lp1385
g1369
a(lp1386
S'in'
p1387
aS'Portland'
p1388
aS'Oregon'
p1389
aaa(lp1390
S'KAREN'
p1391
a(lp1392
S'How'
p1393
aS'much'
p1394
aS'is'
p1395
aS'it'
p1396
aaa(lp1397
S'SCOTT'
p1398
a(lp1399
g17
aS'Its'
p1400
aS'like'
p1401
aS'six'
p1402
ag17
aS'dollars'
p1403
ag204
aS'month'
p1404
aaa(lp1405
S'KAREN'
p1406
a(lp1407
S'Thats'
p1408
aS'okay'
p1409
aaa(lp1410
S'SCOTT'
p1411
a(lp1412
S'Mm'
p1413
aaa(lp1414
S'KARENSee'
p1415
a(lp1416
S'the'
p1417
aS'thing'
p1418
aS'is'
p1419
aaa(lp1420
g1415
a(lp1421
S'this'
p1422
aS'light'
p1423
aaa(lp1424
g1415
a(lp1425
S'its'
p1426
aS'cute'
p1427
aS'there'
p1428
aaa(lp1429
S'SCOTTMhm'
p1430
a(lp1431
aa(lp1432
S'KARENIts'
p1433
a(lp1434
S'not'
p1435
aS'particularly'
p1436
aS'practical'
p1437
aS'there'
p1438
aaa(lp1439
g1433
a(lp1440
g56
aS'mean'
p1441
aS'light'
p1442
aS'does'
p1443
aS'come'
p1444
aS'through'
p1445
aS'there'
p1446
aaa(lp1447
g1433
a(lp1448
S'but'
p1449
aS'if'
p1450
aS'youre'
p1451
aS'gonna'
p1452
aS'sit'
p1453
aS'there'
p1454
aS'and'
p1455
aS'read'
p1456
aaa(lp1457
g1433
a(lp1458
S'you'
p1459
aS'need'
p1460
aS'light'
p1461
aaa(lp1462
g1433
a(lp1463
S'Next'
p1464
aS'to'
p1465
aS'it'
p1466
aaa(lp1467
S'SCOTT'
p1468
a(lp1469
S'Well'
p1470
aS'would'
p1471
aS'it'
p1472
aS'work'
p1473
aS'to'
p1474
aS'put'
p1475
aS'it'
p1476
aS'on'
p1477
aS'the'
p1478
aS'other'
p1479
aS'end'
p1480
aaa(lp1481
S'KAREN'
p1482
a(lp1483
S'It'
p1484
aS'wouldnt'
p1485
aS'be'
p1486
aS'as'
p1487
aaa(lp1488
S'SCOTTIt'
p1489
a(lp1490
S'wouldnt'
p1491
aS'be'
p1492
aS'as'
p1493
aS'aesthetically'
p1494
aS'pleasing'
p1495
aaa(lp1496
S'KARENMhm'
p1497
a(lp1498
aa(lp1499
g1497
a(lp1500
g966
aS'Right'
p1501
ag966
aaa(lp1502
g1497
a(lp1503
S'That'
p1504
aS'radiator'
p1505
aS'tilts'
p1506
aaa(lp1507
S'SCOTT'
p1508
a(lp1509
S'Mhm'
p1510
aaa(lp1511
S'KAREN'
p1512
a(lp1513
S'Hm'
p1514
aaa(lp1515
S'SCOTT'
p1516
a(lp1517
aa(lp1518
S'KAREN'
p1519
a(lp1520
S'So'
p1521
ag56
aS'got'
p1522
aS'to'
p1523
aS'look'
p1524
aS'at'
p1525
aS'the'
p1526
aS'copy'
p1527
aaa(lp1528
g1519
a(lp1529
S'of'
p1530
aS'umm'
p1531
aaa(lp1532
g1519
a(lp1533
S'its'
p1534
aS'Dantes'
p1535
aS'Inferno'
p1536
aaa(lp1537
S'SCOTT'
p1538
a(lp1539
S'Mhm'
p1540
aaa(lp1541
S'KAREN'
p1542
a(lp1543
aa(lp1544
g1542
a(lp1545
S'Its'
p1546
ag204
aS'new'
p1547
aS'translation'
p1548
aaa(lp1549
g1542
a(lp1550
S'with'
p1551
aS'twenty'
p1552
aS'different'
p1553
aS'contemporary'
p1554
aS'American'
p1555
aS'poets'
p1556
aaa(lp1557
g1542
a(lp1558
S'Got'
p1559
aS'different'
p1560
aS'cantos'
p1561
aaa(lp1562
S'SCOTT'
p1563
a(lp1564
S'Mhm'
p1565
aaa(lp1566
S'KARENAnd'
p1567
a(lp1568
S'translated'
p1569
aS'them'
p1570
aaa(lp1571
g1567
a(lp1572
S'And'
p1573
aS'so'
p1574
aS'its'
p1575
aS'neat'
p1576
aaa(lp1577
g1567
a(lp1578
S'Cause'
p1579
aS'theres'
p1580
aS'these'
p1581
aS'poets'
p1582
aS'that'
p1583
ag56
aS'like'
p1584
aaa(lp1585
g1567
a(lp1586
S'And'
p1587
aS'theyve'
p1588
aS'done'
p1589
aS'translations'
p1590
aaa(lp1591
S'SCOTT'
p1592
a(lp1593
S'Mhm'
p1594
aaa(lp1595
S'KAREN'
p1596
a(lp1597
S'Of'
p1598
aS'these'
p1599
aS'different'
p1600
aaa(lp1601
g1596
a(lp1602
S'Of'
p1603
aS'the'
p1604
aS'different'
p1605
aS'cantos'
p1606
aS'or'
p1607
aaa(lp1608
g1596
a(lp1609
S'cantos'
p1610
aS'or'
p1611
aaa(lp1612
g1596
a(lp1613
S'whatever'
p1614
aS'toes'
p1615
aaa(lp1616
g1596
a(lp1617
S'And'
p1618
aS'um'
p1619
aaa(lp1620
g1596
a(lp1621
S'they'
p1622
aaa(lp1623
g1596
a(lp1624
S'well'
p1625
aS'its'
p1626
aS'expensive'
p1627
aaa(lp1628
g1596
a(lp1629
S'its'
p1630
aS'expensive'
p1631
aS'but'
p1632
aS'its'
p1633
aS'hard'
p1634
aS'cover'
p1635
aaa(lp1636
g1596
a(lp1637
S'And'
p1638
aS'its'
p1639
aS'nice'
p1640
aaa(lp1641
g1596
a(lp1642
S'And'
p1643
aS'it'
p1644
aS'matches'
p1645
aS'kind'
p1646
aS'of'
p1647
aS'this'
p1648
aaa(lp1649
g1596
a(lp1650
S'bath'
p1651
aS'book'
p1652
aaa(lp1653
g1596
a(lp1654
S'this'
p1655
aS'scented'
p1656
aS'bath'
p1657
aS'book'
p1658
aaa(lp1659
g1596
a(lp1660
S'that'
p1661
ag56
aS'wanna'
p1662
aS'get'
p1663
aaa(lp1664
S'SCOTT'
p1665
a(lp1666
S'Mhm'
p1667
aaa(lp1668
S'KARENAnd'
p1669
a(lp1670
g56
aS'wasnt'
p1671
aS'pla'
p1672
aaa(lp1673
g1669
a(lp1674
g56
aS'dont'
p1675
aS'really'
p1676
aS'need'
p1677
aS'it'
p1678
aaa(lp1679
g1669
a(lp1680
S'the'
p1681
aS'Divine'
p1682
aaa(lp1683
g1669
a(lp1684
g56
aS'dont'
p1685
aS'need'
p1686
aS'either'
p1687
aS'one'
p1688
aaa(lp1689
g1669
a(lp1690
g56
aS'wasnt'
p1691
aS'urgently'
p1692
aS'planning'
p1693
aS'on'
p1694
aS'getting'
p1695
aS'the'
p1696
aS'Divine'
p1697
aS'Comed'
p1698
aaa(lp1699
g1669
a(lp1700
S'The'
p1701
aaa(lp1702
g1669
a(lp1703
S'The'
p1704
aS'Inferno'
p1705
aS'one'
p1706
aaa(lp1707
g1669
a(lp1708
S'But'
p1709
aaa(lp1710
g1669
a(lp1711
S'the'
p1712
aS'way'
p1713
aS'they'
p1714
aS'look'
p1715
aS'together'
p1716
aS'is'
p1717
aS'very'
p1718
aS'nice'
p1719
aaa(lp1720
g1669
a(lp1721
S'Those'
p1722
aS'two'
p1723
aS'books'
p1724
aS'together'
p1725
aaa(lp1726
g1669
a(lp1727
S'So'
p1728
ag56
aS'was'
p1729
aS'thinking'
p1730
aS'its'
p1731
aS'sort'
p1732
aS'of'
p1733
aS'an'
p1734
aS'aesthetic'
p1735
aS'thing'
p1736
aaa(lp1737
g1669
a(lp1738
S'That'
p1739
aS'it'
p1740
aS'would'
p1741
aS'be'
p1742
aS'nice'
p1743
aS'to'
p1744
aS'get'
p1745
aS'them'
p1746
aS'together'
p1747
aaa(lp1748
g1669
a(lp1749
g17
aS'At'
p1750
ag204
aS'time'
p1751
ag17
aaa(lp1752
g1669
a(lp1753
S'Im'
p1754
aS'gonna'
p1755
aS'have'
p1756
ag204
aS'little'
p1757
aS'vacation'
p1758
aaa(lp1759
g1669
a(lp1760
S'so'
p1761
ag56
aS'can'
p1762
aS'sit'
p1763
aS'in'
p1764
aS'the'
p1765
aS'bath'
p1766
aS'and'
p1767
aaa(lp1768
g1669
a(lp1769
S'have'
p1770
aS'my'
p1771
aS'scented'
p1772
aS'bath'
p1773
aaa(lp1774
g1669
a(lp1775
S'And'
p1776
aS'then'
p1777
ag56
aS'could'
p1778
aS'read'
p1779
aaa(lp1780
S'SCOTT'
p1781
a(lp1782
S'Mhm'
p1783
aaa(lp1784
S'KAREN'
p1785
a(lp1786
S'far'
p1787
aS'out'
p1788
aaa(lp1789
g1785
a(lp1790
S'it'
p1791
aS'seems'
p1792
aS'like'
p1793
aS'theres'
p1794
aaa(lp1795
g1785
a(lp1796
S'Danielle'
p1797
aS'said'
p1798
aS'we'
p1799
aS'need'
p1800
aS'to'
p1801
aaa(lp1802
g1785
a(lp1803
S'the'
p1804
aS'Alexandra'
p1805
aS'Stoddard'
p1806
aS'book'
p1807
aS'back'
p1808
aaa(lp1809
S'SCOTT'
p1810
a(lp1811
S'YWN'
p1812
aS'Uhuh'
p1813
aS'YWN'
p1814
aaa(lp1815
S'KARENThey'
p1816
a(lp1817
S'returned'
p1818
aaa(lp1819
g1816
a(lp1820
g56
aS'think'
p1821
aS'they'
p1822
aS'returned'
p1823
aS'the'
p1824
aS'one'
p1825
aaa(lp1826
g1816
a(lp1827
S'The'
p1828
aS'Creating'
p1829
ag204
aS'Beautiful'
p1830
aS'Home'
p1831
aS'one'
p1832
aaa(lp1833
g1816
a(lp1834
S'The'
p1835
aS'one'
p1836
aS'that'
p1837
ag56
aS'had'
p1838
aS'that'
p1839
aS'had'
p1840
aS'the'
p1841
aaa(lp1842
g1816
a(lp1843
S'the'
p1844
aS'blue'
p1845
aS'and'
p1846
aS'red'
p1847
aS'writing'
p1848
aaa(lp1849
S'SCOTTOh'
p1850
a(lp1851
aa(lp1852
g1850
a(lp1853
S'uhuh'
p1854
aaa(lp1855
S'KARENIts'
p1856
a(lp1857
S'not'
p1858
aS'there'
p1859
aaa(lp1860
g1856
a(lp1861
S'its'
p1862
aS'not'
p1863
aS'in'
p1864
aS'our'
p1865
aS'inventory'
p1866
aS'anymore'
p1867
aaa(lp1868
g1856
a(lp1869
S'Maybe'
p1870
aS'it'
p1871
aS'means'
p1872
aS'that'
p1873
aaa(lp1874
S'SCOTTUhoh'
p1875
a(lp1876
aa(lp1877
S'KAREN'
p1878
a(lp1879
S'Maybe'
p1880
aS'the'
p1881
aS'paperbacks'
p1882
aS'going'
p1883
aS'out'
p1884
aaa(lp1885
g1878
a(lp1886
S'And'
p1887
aS'so'
p1888
aS'they'
p1889
aS'wanted'
p1890
aS'to'
p1891
aS'give'
p1892
aS'the'
p1893
aS'hard'
p1894
aS'ba'
p1895
aS'cover'
p1896
aS'back'
p1897
aaa(lp1898
g1878
a(lp1899
g56
aS'dont'
p1900
aS'know'
p1901
aaa(lp1902
g1878
a(lp1903
g56
aS'was'
p1904
aS'very'
p1905
aS'disturbed'
p1906
aaa(lp1907
S'SCOTT'
p1908
a(lp1909
S'Uhoh'
p1910
aaa(lp1911
S'KAREN'
p1912
a(lp1913
g56
aS'can'
p1914
aS'always'
p1915
aS'order'
p1916
aS'another'
p1917
aS'one'
p1918
aS'if'
p1919
ag56
aS'need'
p1920
aS'to'
p1921
aaa(lp1922
S'SCOTT'
p1923
a(lp1924
aa(lp1925
S'ENV'
p1926
a(lp1927
aa(lp1928
S'SCOTT'
p1929
a(lp1930
aa(lp1931
S'KARENIs'
p1932
a(lp1933
S'that'
p1934
ag204
aS'program'
p1935
aS'youre'
p1936
aS'reading'
p1937
aaa(lp1938
S'SCOTT'
p1939
a(lp1940
S'Hm'
p1941
aaa(lp1942
g1939
a(lp1943
S'Hmmm'
p1944
aaa(lp1945
S'KAREN'
p1946
a(lp1947
g17
aS'Guess'
p1948
aS'its'
p1949
ag204
ag17
aaa(lp1950
S'SCOTTIt'
p1951
a(lp1952
S'was'
p1953
aS'just'
p1954
ag204
aS'list'
p1955
aS'of'
p1956
aS'uh'
p1957
aaa(lp1958
g1951
a(lp1959
S'places'
p1960
aS'that'
p1961
aS'offer'
p1962
aS'emails'
p1963
aS'for'
p1964
aS'service'
p1965
aaa(lp1966
g1951
a(lp1967
S'and'
p1968
aS'different'
p1969
aS'things'
p1970
aaa(lp1971
S'KARENOh'
p1972
a(lp1973
S'well'
p1974
aS'thats'
p1975
aS'good'
p1976
aaa(lp1977
g1972
a(lp1978
S'Oh'
p1979
aaa(lp1980
g1972
a(lp1981
g17
aS'you'
p1982
aS'know'
p1983
aS'maybe'
p1984
aS'if'
p1985
ag17
aS'we'
p1986
aS'could'
p1987
aS'turn'
p1988
aS'the'
p1989
aS'spider'
p1990
aS'plant'
p1991
aS'around'
p1992
aaa(lp1993
S'SCOTT'
p1994
a(lp1995
S'Which'
p1996
aS'one'
p1997
aaa(lp1998
S'KAREN'
p1999
a(lp2000
S'The'
p2001
aS'one'
p2002
aS'that'
p2003
aS'just'
p2004
aS'looks'
p2005
aS'kinda'
p2006
aS'decrepit'
p2007
aaa(lp2008
S'SCOTT'
p2009
a(lp2010
S'That'
p2011
aS'one'
p2012
aaa(lp2013
S'KAREN'
p2014
a(lp2015
S'Yeah'
p2016
aaa(lp2017
S'SCOTT'
p2018
a(lp2019
S'Maybe'
p2020
aS'we'
p2021
aS'could'
p2022
aaa(lp2023
g2018
a(lp2024
g56
aS'think'
p2025
aS'it'
p2026
aaa(lp2027
g2018
a(lp2028
S'would'
p2029
aS'probably'
p2030
aS'do'
p2031
aS'better'
p2032
aaa(lp2033
g2018
a(lp2034
S'if'
p2035
aS'it'
p2036
aS'got'
p2037
aS'its'
p2038
aS'babies'
p2039
aS'trimmed'
p2040
aS'off'
p2041
aaa(lp2042
S'KARENPX'
p2043
a(lp2044
g56
aS'mean'
p2045
aS'can'
p2046
aS'it'
p2047
aS'wait'
p2048
aS'XP'
p2049
aaa(lp2050
g2043
a(lp2051
g56
aS'think'
p2052
aS'we'
p2053
aS'thought'
p2054
aS'about'
p2055
aS'doing'
p2056
aS'that'
p2057
aS'in'
p2058
aS'the'
p2059
aS'springtime'
p2060
aaa(lp2061
g2043
a(lp2062
S'then'
p2063
ag56
aS'thought'
p2064
aS'wed'
p2065
aS'replant'
p2066
aS'them'
p2067
aaa(lp2068
S'SCOTT'
p2069
a(lp2070
S'Yeah'
p2071
aaa(lp2072
g2069
a(lp2073
S'but'
p2074
ag56
aS'think'
p2075
aS'theres'
p2076
aS'more'
p2077
aS'babies'
p2078
aS'than'
p2079
aS'we'
p2080
aS'need'
p2081
aaa(lp2082
S'KARENWould'
p2083
a(lp2084
aa(lp2085
g2083
a(lp2086
S'Yeah'
p2087
aaa(lp2088
g2083
a(lp2089
S'And'
p2090
aS'weve'
p2091
aS'got'
p2092
aS'three'
p2093
aS'new'
p2094
aS'babies'
p2095
aS'that'
p2096
ag56
aS'could'
p2097
aS'replant'
p2098
aaa(lp2099
g2083
a(lp2100
S'but'
p2101
ag56
aS'havent'
p2102
aaa(lp2103
g2083
a(lp2104
S'already'
p2105
aaa(lp2106
S'SCOTTUnhunh'
p2107
a(lp2108
aa(lp2109
g2107
a(lp2110
S'And'
p2111
aS'that'
p2112
aaa(lp2113
g2107
a(lp2114
S'Yeah'
p2115
aS'the'
p2116
aaa(lp2117
S'KAREN'
p2118
a(lp2119
aa(lp2120
S'SCOTTThe'
p2121
a(lp2122
S'other'
p2123
aS'plant'
p2124
aS'over'
p2125
aS'there'
p2126
aS'is'
p2127
aaa(lp2128
g2121
a(lp2129
S'has'
p2130
aS'lots'
p2131
aS'of'
p2132
aS'babies'
p2133
aaa(lp2134
S'KAREN'
p2135
a(lp2136
aa(lp2137
g2135
a(lp2138
S'Oh'
p2139
aaa(lp2140
g2135
a(lp2141
g56
aS'looked'
p2142
aS'at'
p2143
aS'Orlando'
p2144
aS'today'
p2145
aaa(lp2146
S'SCOTT'
p2147
a(lp2148
S'The'
p2149
aS'book'
p2150
aaa(lp2151
S'KAREN'
p2152
a(lp2153
S'Yeah'
p2154
aaa(lp2155
g2152
a(lp2156
S'Do'
p2157
aS'you'
p2158
aS'think'
p2159
aS'you'
p2160
aS'want'
p2161
aS'to'
p2162
aS'read'
p2163
aS'that'
p2164
aS'together'
p2165
aaa(lp2166
g2152
a(lp2167
S'That'
p2168
aS'interest'
p2169
aS'you'
p2170
aS'at'
p2171
aS'all'
p2172
aaa(lp2173
S'SCOTT'
p2174
a(lp2175
S'Unhunh'
p2176
aaa(lp2177
S'KAREN'
p2178
a(lp2179
S'Cause'
p2180
aS'if'
p2181
aS'it'
p2182
aaa(lp2183
g2178
a(lp2184
S'If'
p2185
aS'it'
p2186
aS'really'
p2187
aS'wouldnt'
p2188
aaa(lp2189
g2178
a(lp2190
S'if'
p2191
aS'youre'
p2192
aS'just'
p2193
aS'saying'
p2194
aS'that'
p2195
aS'to'
p2196
aS'make'
p2197
aS'me'
p2198
aS'happy'
p2199
aaa(lp2200
g2178
a(lp2201
S'then'
p2202
aaa(lp2203
S'SCOTTNo'
p2204
a(lp2205
aa(lp2206
g2204
a(lp2207
g56
aS'thi'
p2208
aaa(lp2209
S'KARENI'
p2210
a(lp2211
S'didnt'
p2212
aS'n'
p2213
aS'yeah'
p2214
aaa(lp2215
S'SCOTTIm'
p2216
a(lp2217
aa(lp2218
g2216
a(lp2219
g56
aS'think'
p2220
aS'it'
p2221
aS'probably'
p2222
aS'would'
p2223
aaa(lp2224
S'KAREN'
p2225
a(lp2226
S'It'
p2227
aS'seemed'
p2228
aS'like'
p2229
aS'it'
p2230
aS'would'
p2231
aS'be'
p2232
aS'fun'
p2233
aS'to'
p2234
aS'read'
p2235
aS'out'
p2236
aS'loud'
p2237
aaa(lp2238
g2225
a(lp2239
S'And'
p2240
ag56
aS'dont'
p2241
aS'wanna'
p2242
aS'start'
p2243
aS'it'
p2244
aS'if'
p2245
aS'were'
p2246
aS'going'
p2247
aS'to'
p2248
aS'read'
p2249
aS'it'
p2250
aS'together'
p2251
aaa(lp2252
g2225
a(lp2253
g56
aS'dont'
p2254
aS'want'
p2255
aS'to'
p2256
aS'start'
p2257
aS'it'
p2258
ag17
aS'on'
p2259
aS'my'
p2260
aS'own'
p2261
ag17
aaa(lp2262
S'SCOTTYWNX'
p2263
a(lp2264
g56
aS'wonder'
p2265
aS'if'
p2266
aS'XYWN'
p2267
aS'if'
p2268
aS'it'
p2269
aS'would'
p2270
aS'be'
p2271
aaa(lp2272
g2263
a(lp2273
S'any'
p2274
aS'less'
p2275
aS'abstract'
p2276
aS'than'
p2277
aS'the'
p2278
aaa(lp2279
S'KAREN'
p2280
a(lp2281
S'Yeah'
p2282
aS'theres'
p2283
ag204
aS'lot'
p2284
aS'more'
p2285
aS'conversa'
p2286
aaa(lp2287
S'SCOTTMore'
p2288
a(lp2289
aa(lp2290
S'KARENTheres'
p2291
a(lp2292
g204
aS'lot'
p2293
aS'more'
p2294
aS'in'
p2295
aS'the'
p2296
aS'book'
p2297
aaa(lp2298
g2291
a(lp2299
S'Like'
p2300
aS'the'
p2301
aS'part'
p2302
aS'where'
p2303
aS'she'
p2304
aS'falls'
p2305
aS'on'
p2306
aS'the'
p2307
aS'ground'
p2308
aaa(lp2309
S'SCOTTCould'
p2310
a(lp2311
S'be'
p2312
aS'easier'
p2313
aS'to'
p2314
aS'follow'
p2315
aaa(lp2316
S'KAREN'
p2317
a(lp2318
S'and'
p2319
aS'says'
p2320
aaa(lp2321
g2317
a(lp2322
S'VOX'
p2323
ag56
aS'am'
p2324
aS'natures'
p2325
aS'bride'
p2326
aS'VOX'
p2327
aaa(lp2328
S'SCOTT'
p2329
a(lp2330
S'Unhunh'
p2331
aaa(lp2332
S'KAREN'
p2333
a(lp2334
S'she'
p2335
aS'also'
p2336
aS'says'
p2337
aS'several'
p2338
aS'other'
p2339
aS'things'
p2340
aaa(lp2341
g2333
a(lp2342
S'And'
p2343
aS'theres'
p2344
aS'also'
p2345
aS'commentary'
p2346
aS'from'
p2347
aS'the'
p2348
aS'narrator'
p2349
aaa(lp2350
S'SCOTTUnhunh'
p2351
a(lp2352
aa(lp2353
S'KARENAfter'
p2354
a(lp2355
S'that'
p2356
aaa(lp2357
S'SCOTT'
p2358
a(lp2359
S'Unhunh'
p2360
aaa(lp2361
S'KARENSo'
p2362
a(lp2363
g56
aS'kinda'
p2364
aS'like'
p2365
aS'the'
p2366
aS'movie'
p2367
aS'better'
p2368
aS'that'
p2369
aS'way'
p2370
aaa(lp2371
g2362
a(lp2372
S'Cause'
p2373
aS'its'
p2374
aaa(lp2375
g2362
a(lp2376
S'gets'
p2377
aS'the'
p2378
aS'point'
p2379
aS'across'
p2380
aaa(lp2381
S'SCOTTUnhunh'
p2382
a(lp2383
aa(lp2384
S'KAREN'
p2385
a(lp2386
S'Simply'
p2387
aaa(lp2388
g2385
a(lp2389
S'So'
p2390
aaa(lp2391
g2385
a(lp2392
S'yeah'
p2393
aaa(lp2394
g2385
a(lp2395
S'theres'
p2396
aS'more'
p2397
aS'in'
p2398
aS'it'
p2399
aaa(lp2400
S'SCOTT'
p2401
a(lp2402
S'Your'
p2403
aS'basic'
p2404
aS'account'
p2405
aS'from'
p2406
aS'Near'
p2407
aS'Net'
p2408
aS'is'
p2409
aS'two'
p2410
aS'hundred'
p2411
aS'and'
p2412
aS'fifty'
p2413
aS'dollars'
p2414
ag204
aS'month'
p2415
aaa(lp2416
S'KAREN'
p2417
a(lp2418
aa(lp2419
g2417
a(lp2420
S'VOX'
p2421
aS'Thats'
p2422
ag204
aS'lot'
p2423
aS'VOX'
p2424
aaa(lp2425
S'SCOTT'
p2426
a(lp2427
S'Thats'
p2428
aS'who'
p2429
aS'Smith'
p2430
aS'connects'
p2431
aS'to'
p2432
aaa(lp2433
S'KARENWell'
p2434
a(lp2435
S'if'
p2436
aS'youre'
p2437
aS'Smith'
p2438
aS'its'
p2439
aS'one'
p2440
aS'thing'
p2441
aaa(lp2442
S'SCOTTUse'
p2443
a(lp2444
S'the'
p2445
aS'Internet'
p2446
aaa(lp2447
S'KARENif'
p2448
a(lp2449
S'youre'
p2450
aS'dad'
p2451
aS'its'
p2452
aS'another'
p2453
aaa(lp2454
S'SCOTTActually'
p2455
a(lp2456
S'its'
p2457
aS'the'
p2458
aS'five'
p2459
aS'colleges'
p2460
aaa(lp2461
S'KAREN'
p2462
a(lp2463
S'Oh'
p2464
aaa(lp2465
S'SCOTTOh'
p2466
a(lp2467
aa(lp2468
S'KARENI'
p2469
a(lp2470
S'wanted'
p2471
aS'to'
p2472
aS'call'
p2473
aS'Jenny'
p2474
aaa(lp2475
S'SCOTTbut'
p2476
a(lp2477
S'it'
p2478
aS'XX'
p2479
aaa(lp2480
S'KAREN'
p2481
a(lp2482
g56
aS'do'
p2483
aS'want'
p2484
aS'to'
p2485
aS'call'
p2486
aS'Jen'
p2487
aaa(lp2488
S'SCOTT'
p2489
a(lp2490
S'Well'
p2491
aS'you'
p2492
aS'can'
p2493
aS'call'
p2494
aS'Jenny'
p2495
aaa(lp2496
S'KAREN'
p2497
a(lp2498
S'Im'
p2499
aS'tired'
p2500
aaa(lp2501
S'SCOTT'
p2502
a(lp2503
S'Mm'
p2504
aaa(lp2505
S'KAREN'
p2506
a(lp2507
S'Maybe'
p2508
aS'Ill'
p2509
aS'call'
p2510
aS'Jenny'
p2511
aS'anyway'
p2512
aaa(lp2513
g2506
a(lp2514
S'Jenny'
p2515
aS'anyway'
p2516
aaa(lp2517
g2506
a(lp2518
S'Jennyany'
p2519
aaa(lp2520
g2506
a(lp2521
S'Jennyany'
p2522
aaa(lp2523
S'SCOTT'
p2524
a(lp2525
S'Jenny'
p2526
aS'Garret'
p2527
aaa(lp2528
S'KAREN'
p2529
a(lp2530
S'Cause'
p2531
ag56
aS'wanted'
p2532
aS'to'
p2533
aS'ask'
p2534
aS'her'
p2535
aS'about'
p2536
aS'the'
p2537
aaa(lp2538
S'SCOTTHm'
p2539
a(lp2540
aa(lp2541
S'KAREN'
p2542
a(lp2543
S'magazines'
p2544
aS'shes'
p2545
aS'had'
p2546
aaa(lp2547
g2542
a(lp2548
S'Did'
p2549
ag56
aS'tell'
p2550
aS'you'
p2551
aS'that'
p2552
aS'the'
p2553
aS'woman'
p2554
aS'who'
p2555
aS'does'
p2556
aaa(lp2557
g2542
a(lp2558
S'This'
p2559
aS'book'
p2560
aS'here'
p2561
aaa(lp2562
g2542
a(lp2563
g673
aS'Monsieur'
p2564
ag673
aaa(lp2565
S'SCOTT'
p2566
a(lp2567
S'Unhunh'
p2568
aaa(lp2569
S'KARENThis'
p2570
a(lp2571
S'book'
p2572
aS'here'
p2573
aaa(lp2574
g2570
a(lp2575
S'Okay'
p2576
aS'she'
p2577
aS'did'
p2578
aS'the'
p2579
aS'art'
p2580
aS'here'
p2581
aaa(lp2582
g2570
a(lp2583
S'And'
p2584
aS'other'
p2585
aS'art'
p2586
aaa(lp2587
g2570
a(lp2588
S'Uh'
p2589
aS'it'
p2590
aS'said'
p2591
aS'in'
p2592
aS'here'
p2593
aaa(lp2594
g2570
a(lp2595
S'that'
p2596
aS'she'
p2597
aS'does'
p2598
aS'clip'
p2599
aS'art'
p2600
aaa(lp2601
g2570
a(lp2602
S'For'
p2603
aS'different'
p2604
aS'kinds'
p2605
aS'of'
p2606
aS'liturgical'
p2607
aS'things'
p2608
aaa(lp2609
g2570
a(lp2610
S'And'
p2611
ag56
aS'found'
p2612
aS'theres'
p2613
aS'two'
p2614
aS'books'
p2615
aaa(lp2616
g2570
a(lp2617
S'listed'
p2618
aaa(lp2619
g2570
a(lp2620
S'under'
p2621
aS'her'
p2622
aS'name'
p2623
aaa(lp2624
g2570
a(lp2625
S'besides'
p2626
aS'this'
p2627
aS'one'
p2628
aaa(lp2629
g2570
a(lp2630
S'But'
p2631
aS'they'
p2632
aS'are'
p2633
aS'clip'
p2634
aS'art'
p2635
aS'books'
p2636
aaa(lp2637
S'SCOTT'
p2638
a(lp2639
S'Mhm'
p2640
aaa(lp2641
S'KAREN'
p2642
a(lp2643
S'One'
p2644
aS'is'
p2645
aS'for'
p2646
aS'VOX'
p2647
aS'feasts'
p2648
aS'and'
p2649
aS'celebrations'
p2650
aS'VOX'
p2651
aaa(lp2652
g2642
a(lp2653
S'And'
p2654
aS'one'
p2655
aS'is'
p2656
aS'for'
p2657
aS'something'
p2658
aaa(lp2659
g2642
a(lp2660
S'Theyre'
p2661
aS'like'
p2662
aS'that'
p2663
aaa(lp2664
g2642
a(lp2665
S'They'
p2666
aS'have'
p2667
aS'neat'
p2668
aS'titles'
p2669
aaa(lp2670
S'SCOTT'
p2671
a(lp2672
S'You'
p2673
aS'just'
p2674
aS'need'
p2675
aS'to'
p2676
aS'get'
p2677
aS'yourself'
p2678
ag204
aS'clip'
p2679
aS'art'
p2680
aS'book'
p2681
aS'and'
p2682
ag204
aS'scanner'
p2683
aaa(lp2684
S'KAREN'
p2685
a(lp2686
S'And'
p2687
ag204
aS'scanner'
p2688
aaa(lp2689
g2685
a(lp2690
S'What'
p2691
aS'would'
p2692
ag56
aS'do'
p2693
aS'with'
p2694
ag204
aS'scanner'
p2695
aaa(lp2696
S'SCOTT'
p2697
a(lp2698
S'And'
p2699
aS'then'
p2700
aS'youd'
p2701
aS'like'
p2702
aS'load'
p2703
aS'em'
p2704
aS'into'
p2705
aS'your'
p2706
aS'computer'
p2707
aS'and'
p2708
aS'make'
p2709
aS'your'
p2710
aS'things'
p2711
aS'with'
p2712
aS'them'
p2713
aaa(lp2714
S'KARENVOX'
p2715
a(lp2716
S'Aw'
p2717
aS'yeah'
p2718
aS'VOX'
p2719
aaa(lp2720
g2715
a(lp2721
S'then'
p2722
ag56
aS'wouldnt'
p2723
aS'need'
p2724
ag204
aS'Xerox'
p2725
aS'machine'
p2726
aaa(lp2727
g2715
a(lp2728
S'and'
p2729
aS'tape'
p2730
aS'and'
p2731
aS'glue'
p2732
aS'and'
p2733
aS'stuff'
p2734
aaa(lp2735
S'SCOTT'
p2736
a(lp2737
S'Yeah'
p2738
aaa(lp2739
g2736
a(lp2740
S'See'
p2741
aS'then'
p2742
aS'you'
p2743
aS'could'
p2744
aaa(lp2745
S'KAREN'
p2746
a(lp2747
aa(lp2748
S'SCOTTYou'
p2749
a(lp2750
S'could'
p2751
aS'scan'
p2752
aS'them'
p2753
aaa(lp2754
g2749
a(lp2755
S'and'
p2756
aS'then'
p2757
aS'you'
p2758
aS'could'
p2759
aaa(lp2760
g2749
a(lp2761
S'make'
p2762
aS'them'
p2763
aS'different'
p2764
aS'colors'
p2765
aaa(lp2766
g2749
a(lp2767
S'and'
p2768
aS'sizes'
p2769
aaa(lp2770
g2749
a(lp2771
S'and'
p2772
aS'things'
p2773
aS'like'
p2774
aS'that'
p2775
aaa(lp2776
g2749
a(lp2777
S'And'
p2778
aS'you'
p2779
aS'could'
p2780
aS'do'
p2781
aS'neat'
p2782
aS'things'
p2783
aS'with'
p2784
aS'them'
p2785
aaa(lp2786
S'KAREN'
p2787
a(lp2788
S'YWN'
p2789
aS'Different'
p2790
aS'colors'
p2791
aS'and'
p2792
aS'sizes'
p2793
aaa(lp2794
g2787
a(lp2795
S'Id'
p2796
aS'need'
p2797
ag204
aS'color'
p2798
aS'YWN'
p2799
aS'printer'
p2800
aaa(lp2801
S'SCOTT'
p2802
a(lp2803
S'Yeah'
p2804
aaa(lp2805
S'KAREN'
p2806
a(lp2807
S'Yeah'
p2808
aaa(lp2809
g2806
a(lp2810
g17
aS'Little'
p2811
aS'minor'
p2812
ag17
aaa(lp2813
g2806
a(lp2814
S'How'
p2815
aS'much'
p2816
aS'is'
p2817
ag204
aS'color'
p2818
aS'printer'
p2819
aaa(lp2820
S'SCOTT'
p2821
a(lp2822
S'Umm'
p2823
aaa(lp2824
g2821
a(lp2825
S'you'
p2826
aS'can'
p2827
aS'get'
p2828
ag204
aS'color'
p2829
aS'version'
p2830
aS'of'
p2831
aS'the'
p2832
aS'printer'
p2833
ag56
aS'have'
p2834
aS'for'
p2835
aaa(lp2836
g2821
a(lp2837
S'gosh'
p2838
aaa(lp2839
g2821
a(lp2840
g56
aS'dont'
p2841
aS'know'
p2842
aaa(lp2843
g2821
a(lp2844
S'five'
p2845
aS'hundred'
p2846
aS'dollars'
p2847
aaa(lp2848
S'KAREN'
p2849
a(lp2850
S'Would'
p2851
aS'it'
p2852
aS'be'
p2853
aS'good'
p2854
aaa(lp2855
S'SCOTT'
p2856
a(lp2857
S'Its'
p2858
aS'reasonable'
p2859
aaa(lp2860
S'KAREN'
p2861
a(lp2862
S'Look'
p2863
aS'at'
p2864
aS'this'
p2865
aaa(lp2866
g2861
a(lp2867
S'When'
p2868
aS'does'
p2869
aS'this'
p2870
aS'go'
p2871
aS'to'
p2872
aaa(lp2873
g2861
a(lp2874
S'We'
p2875
aS'have'
p2876
aS'to'
p2877
aS'go'
p2878
aS'far'
p2879
aS'away'
p2880
aS'away'
p2881
aS'though'
p2882
aaa(lp2883
g2861
a(lp2884
S'Three'
p2885
aS'hundred'
p2886
aS'ninetynine'
p2887
aaa(lp2888
g2861
a(lp2889
S'gracefully'
p2890
aS'styled'
p2891
aaa(lp2892
g2861
a(lp2893
S'Queen'
p2894
aS'Anne'
p2895
aS'wing'
p2896
aS'recliner'
p2897
aaa(lp2898
g2861
a(lp2899
S'with'
p2900
aS'cherry'
p2901
aS'finish'
p2902
aS'legs'
p2903
aaa(lp2904
S'SCOTT'
p2905
a(lp2906
aa(lp2907
S'KARENDo'
p2908
a(lp2909
S'you'
p2910
aS'wanna'
p2911
aS'Queen'
p2912
aS'Anne'
p2913
aS'wing'
p2914
aS'recliner'
p2915
aaa(lp2916
S'SCOTT'
p2917
a(lp2918
S'Hmmm'
p2919
aaa(lp2920
S'KARENWhy'
p2921
a(lp2922
S'not'
p2923
aaa(lp2924
S'SCOTTI'
p2925
a(lp2926
S'already'
p2927
aS'looked'
p2928
aS'at'
p2929
aS'those'
p2930
aaa(lp2931
S'KAREN'
p2932
a(lp2933
S'You'
p2934
aS'didnt'
p2935
aS'like'
p2936
aS'them'
p2937
aaa(lp2938
S'SCOTT'
p2939
a(lp2940
S'Not'
p2941
aS'really'
p2942
aaa(lp2943
S'KAREN'
p2944
a(lp2945
S'You'
p2946
aS'get'
p2947
aS'them'
p2948
aS'in'
p2949
aS'different'
p2950
aS'colors'
p2951
aS'Scott'
p2952
aaa(lp2953
g2944
a(lp2954
S'you'
p2955
aS'dont'
p2956
aS'have'
p2957
aS'to'
p2958
aS'get'
p2959
aS'the'
p2960
aS'high'
p2961
aS'aqua'
p2962
aaa(lp2963
g2944
a(lp2964
S'And'
p2965
ag56
aS'could'
p2966
aS'probably'
p2967
aS'get'
p2968
aaa(lp2969
g2944
a(lp2970
S'F'
p2971
aS'Reclining'
p2972
aS'love'
p2973
aS'seat'
p2974
ag2971
aaa(lp2975
g2944
a(lp2976
g2971
aS'Reclining'
p2977
aS'sofa'
p2978
ag2971
aaa(lp2979
g2944
a(lp2980
S'Since'
p2981
aS'when'
p2982
aS'have'
p2983
aS'they'
p2984
aS'started'
p2985
aS'that'
p2986
aaa(lp2987
S'SCOTT'
p2988
a(lp2989
S'Dont'
p2990
aS'you'
p2991
aS'remember'
p2992
aaa(lp2993
g2988
a(lp2994
S'we'
p2995
aS'looked'
p2996
aS'through'
p2997
aS'like'
p2998
aS'Sears'
p2999
aS'catalogues'
p3000
aaa(lp3001
g2988
a(lp3002
S'and'
p3003
aS'stuff'
p3004
aS'like'
p3005
aS'that'
p3006
aaa(lp3007
g2988
a(lp3008
S'and'
p3009
aS'there'
p3010
aS'was'
p3011
aS'these'
p3012
aaa(lp3013
S'KAREN'
p3014
a(lp3015
S'Oh'
p3016
aS'yeah'
p3017
aaa(lp3018
S'SCOTTreally'
p3019
a(lp3020
S'amazing'
p3021
aS'complete'
p3022
aS'things'
p3023
aaa(lp3024
g3019
a(lp3025
S'you'
p3026
aS'know'
p3027
aaa(lp3028
g3019
a(lp3029
S'with'
p3030
aS'builtin'
p3031
aS'tables'
p3032
aaa(lp3033
g3019
a(lp3034
S'and'
p3035
aS'storage'
p3036
aaa(lp3037
S'KARENWith'
p3038
a(lp3039
S'refrigerators'
p3040
aaa(lp3041
S'SCOTTand'
p3042
a(lp3043
S'refrigerators'
p3044
aaa(lp3045
g3042
a(lp3046
S'and'
p3047
aS'coffeemakers'
p3048
aaa(lp3049
g3042
a(lp3050
S'and'
p3051
aaa(lp3052
g3042
a(lp3053
S'and'
p3054
aaa(lp3055
g3042
a(lp3056
S'all'
p3057
aS'that'
p3058
aS'sorta'
p3059
aS'stuff'
p3060
aaa(lp3061
S'KARENYWN'
p3062
a(lp3063
S'Oh'
p3064
aaa(lp3065
g3062
a(lp3066
S'Im'
p3067
aS'tired'
p3068
aS'YWN'
p3069
aaa(lp3070
S'SCOTTYou'
p3071
a(lp3072
S'know'
p3073
ag204
aS'sofa'
p3074
aS'with'
p3075
ag204
aS'builtin'
p3076
aS'entertainment'
p3077
aS'center'
p3078
aaa(lp3079
S'KAREN'
p3080
a(lp3081
S'Thats'
p3082
aS'amazing'
p3083
aaa(lp3084
g3080
a(lp3085
S'Can'
p3086
aS'we'
p3087
aS'throw'
p3088
aS'this'
p3089
aS'away'
p3090
aaa(lp3091
S'SCOTT'
p3092
a(lp3093
S'Mhm'
p3094
aaa(lp3095
S'KAREN'
p3096
a(lp3097
S'You'
p3098
aS'sure'
p3099
aS'you'
p3100
aS'dont'
p3101
aS'wanna'
p3102
aS'get'
p3103
ag204
aS'huge'
p3104
aS'big'
p3105
aS'bed'
p3106
aaa(lp3107
g3096
a(lp3108
g673
aS'Monsieur'
p3109
ag673
aaa(lp3110
S'SCOTT'
p3111
a(lp3112
S'Mm'
p3113
aS'Im'
p3114
aS'sure'
p3115
aaa(lp3116
g3111
a(lp3117
g56
aS'am'
p3118
aS'happy'
p3119
aS'with'
p3120
aS'ours'
p3121
aaa(lp3122
S'KAREN'
p3123
a(lp3124
S'Youre'
p3125
aS'sure'
p3126
aS'youre'
p3127
aS'happy'
p3128
aS'with'
p3129
aS'ours'
p3130
aaa(lp3131
S'SCOTT'
p3132
a(lp3133
S'Mhm'
p3134
aaa(lp3135
S'KAREN'
p3136
a(lp3137
S'Thats'
p3138
aS'good'
p3139
aS'to'
p3140
aS'hear'
p3141
aaa(lp3142
S'SCOTT'
p3143
a(lp3144
S'What'
p3145
aS'time'
p3146
aS'did'
p3147
aS'you'
p3148
aS'come'
p3149
aS'home'
p3150
aaa(lp3151
S'KAREN'
p3152
a(lp3153
S'Eleven'
p3154
aS'oclock'
p3155
aaa(lp3156
S'SCOTT'
p3157
a(lp3158
S'Mhm'
p3159
aaa(lp3160
g3157
a(lp3161
S'What'
p3162
aS'time'
p3163
aS'is'
p3164
aS'it'
p3165
aS'now'
p3166
aaa(lp3167
S'KAREN'
p3168
a(lp3169
S'After'
p3170
aS'eleven'
p3171
aS'oclock'
p3172
aaa(lp3173
S'SCOTT'
p3174
a(lp3175
S'Mm'
p3176
ag17
aS'back'
p3177
ag17
aaa(lp3178
S'KARENCause'
p3179
a(lp3180
S'its'
p3181
aS'been'
p3182
ag204
aS'while'
p3183
aS'since'
p3184
ag56
aS'came'
p3185
aS'home'
p3186
aaa(lp3187
g3179
a(lp3188
S'Mm'
p3189
aaa(lp3190
g3179
a(lp3191
S'So'
p3192
aS'Im'
p3193
aS'gonna'
p3194
aS'be'
p3195
aS'rich'
p3196
aS'this'
p3197
aS'week'
p3198
aaa(lp3199
g3179
a(lp3200
S'Its'
p3201
aS'like'
p3202
aS'eleven'
p3203
aS'twentyfive'
p3204
aaa(lp3205
S'SCOTT'
p3206
a(lp3207
aa(lp3208
S'KAREN'
p3209
a(lp3210
S'VOX'
p3211
aS'Aeya'
p3212
aaa(lp3213
g3209
a(lp3214
S'Still'
p3215
aS'too'
p3216
aS'many'
p3217
aS'books'
p3218
aaa(lp3219
g3209
a(lp3220
S'What'
p3221
aS'to'
p3222
aS'do'
p3223
aaa(lp3224
g3209
a(lp3225
S'What'
p3226
aS'to'
p3227
aS'do'
p3228
aS'VOX'
p3229
aaa(lp3230
g3209
a(lp3231
S'Scott'
p3232
aaa(lp3233
g3209
a(lp3234
S'we'
p3235
aS'were'
p3236
aS'going'
p3237
aS'to'
p3238
aS'read'
p3239
aS'this'
p3240
aS'accompaniment'
p3241
aS'book'
p3242
aaa(lp3243
g3209
a(lp3244
S'Remember'
p3245
aaa(lp3246
S'SCOTT'
p3247
a(lp3248
S'Which'
p3249
aS'one'
p3250
aS'is'
p3251
aS'that'
p3252
aaa(lp3253
g3247
a(lp3254
S'Oh'
p3255
aaa(lp3256
S'KARENThe'
p3257
a(lp3258
S'one'
p3259
aS'from'
p3260
aaa(lp3261
g3257
a(lp3262
S'mm'
p3263
aaa(lp3264
S'SCOTTX'
p3265
a(lp3266
S'Chu'
p3267
ag17
aaa(lp3268
g3265
a(lp3269
S'uh'
p3270
aaa(lp3271
S'KARENX'
p3272
a(lp3273
S'Chu'
p3274
ag17
aaa(lp3275
g3272
a(lp3276
S'XXX'
p3277
ag17
aS'Chu'
p3278
ag17
aaa(lp3279
S'SCOTTYeah'
p3280
a(lp3281
aa(lp3282
S'KAREN'
p3283
a(lp3284
S'Its'
p3285
aS'kinda'
p3286
aS'neat'
p3287
aaa(lp3288
g3283
a(lp3289
S'cause'
p3290
aS'its'
p3291
aS'got'
p3292
aS'little'
p3293
aS'articles'
p3294
aS'by'
p3295
aS'different'
p3296
aS'people'
p3297
aaa(lp3298
g3283
a(lp3299
S'Its'
p3300
aS'another'
p3301
aS'one'
p3302
aS'that'
p3303
aS'doesnt'
p3304
aS'take'
p3305
aS't'
p3306
ag204
aS'great'
p3307
aS'deal'
p3308
aS'of'
p3309
aS'attention'
p3310
aaa(lp3311
g3283
a(lp3312
S'My'
p3313
aS'very'
p3314
aS'own'
p3315
aS'Smith'
p3316
aS'Alumni'
p3317
ag17
aS'Quarterly'
p3318
ag17
aaa(lp3319
g3283
a(lp3320
S'Alumnee'
p3321
aaa(lp3322
g3283
a(lp3323
S'Alumni'
p3324
aaa(lp3325
S'SCOTTMm'
p3326
a(lp3327
aa(lp3328
S'KARENAlumnee'
p3329
a(lp3330
aa(lp3331
S'SCOTT'
p3332
a(lp3333
g56
aS're'
p3334
aaa(lp3335
g3332
a(lp3336
g56
aS'remember'
p3337
aS'when'
p3338
aS'we'
p3339
aS'graduated'
p3340
aS'and'
p3341
aaa(lp3342
g3332
a(lp3343
S'we'
p3344
aS'got'
p3345
aS'full'
p3346
aS'explanation'
p3347
aS'of'
p3348
aS'all'
p3349
aS'the'
p3350
aS'variations'
p3351
aS'on'
p3352
aS'that'
p3353
aaa(lp3354
S'KAREN'
p3355
a(lp3356
aa(lp3357
S'SCOTT'
p3358
a(lp3359
S'They'
p3360
aS'started'
p3361
aS'off'
p3362
aS'by'
p3363
aS'saying'
p3364
aS'that'
p3365
aS'alum'
p3366
aS'is'
p3367
aaa(lp3368
g3358
a(lp3369
g204
aS'chemical'
p3370
aaa(lp3371
S'KAREN'
p3372
a(lp3373
S'It'
p3374
aS'is'
p3375
aaa(lp3376
S'SCOTTNot'
p3377
a(lp3378
g204
aS'graduate'
p3379
aaa(lp3380
S'KAREN'
p3381
a(lp3382
S'Alum'
p3383
aaa(lp3384
S'SCOTT'
p3385
a(lp3386
S'Alum'
p3387
aaa(lp3388
S'KAREN'
p3389
a(lp3390
S'Alum'
p3391
aaa(lp3392
g3389
a(lp3393
S'Alum'
p3394
aaa(lp3395
g3389
a(lp3396
S'VOX'
p3397
aS'Alum'
p3398
aS'VOX'
p3399
aaa(lp3400
g3389
a(lp3401
S'So'
p3402
aaa(lp3403
g3389
a(lp3404
S'A'
p3405
aS'Color'
p3406
aS'in'
p3407
aS'Your'
p3408
aS'Garden'
p3409
aS'book'
p3410
aaa(lp3411
g3389
a(lp3412
S'Oo'
p3413
aaa(lp3414
g3389
a(lp3415
S'See'
p3416
aS'what'
p3417
aS'her'
p3418
aS'name'
p3419
aS'was'
p3420
aaa(lp3421
g3389
a(lp3422
S'Who'
p3423
aS'wrote'
p3424
aS'it'
p3425
aaa(lp3426
S'SCOTT'
p3427
a(lp3428
S'Who'
p3429
aaa(lp3430
S'KAREN'
p3431
a(lp3432
S'The'
p3433
aS'person'
p3434
aS'who'
p3435
aS'wrote'
p3436
aS'it'
p3437
aaa(lp3438
S'SCOTT'
p3439
a(lp3440
S'Is'
p3441
aS'who'
p3442
aaa(lp3443
S'KAREN'
p3444
a(lp3445
S'Penelope'
p3446
aS'Hobhouse'
p3447
aaa(lp3448
S'SCOTT'
p3449
a(lp3450
S'You'
p3451
aS'should'
p3452
aS'come'
p3453
aS'over'
p3454
aS'here'
p3455
aaa(lp3456
g3449
a(lp3457
S'Where'
p3458
aS'its'
p3459
aS'lighter'
p3460
aaa(lp3461
g3449
a(lp3462
S'Mhm'
p3463
aaa(lp3464
g3449
a(lp3465
S'Its'
p3466
ag17
aS'lighty'
p3467
ag17
aaa(lp3468
S'KARENThen'
p3469
a(lp3470
S'we'
p3471
aS'would'
p3472
aS'have'
p3473
aS'to'
p3474
aS'move'
p3475
aaa(lp3476
g3469
a(lp3477
S'To'
p3478
aS'do'
p3479
aS'that'
p3480
aaa(lp3481
g3469
a(lp3482
g56
aS'should'
p3483
aS'have'
p3484
aS'more'
p3485
aS'water'
p3486
ag56
aS'think'
p3487
aaa(lp3488
g3469
a(lp3489
g56
aS'actually'
p3490
aS'would'
p3491
aS'have'
p3492
aS'to'
p3493
aS'move'
p3494
aS'for'
p3495
aS'that'
p3496
aS'too'
p3497
aaa(lp3498
S'SCOTTMhm'
p3499
a(lp3500
aa(lp3501
S'KARENVOX'
p3502
a(lp3503
S'Oh'
p3504
aaa(lp3505
g3502
a(lp3506
S'my'
p3507
aS'life'
p3508
aS'is'
p3509
aS'so'
p3510
aS'hard'
p3511
aS'VOX'
p3512
aaa(lp3513
S'SCOTT'
p3514
a(lp3515
aa(lp3516
S'KAREN'
p3517
a(lp3518
S'You'
p3519
aS'finished'
p3520
aS'the'
p3521
aS'spinach'
p3522
aaa(lp3523
S'SCOTT'
p3524
a(lp3525
S'Mm'
p3526
aaa(lp3527
g3524
a(lp3528
S'Oh'
p3529
aaa(lp3530
g3524
a(lp3531
S'XX'
p3532
aaa(lp3533
S'KAREN'
p3534
a(lp3535
aa(lp3536
g3534
a(lp3537
S'Scott'
p3538
aaa(lp3539
S'SCOTT'
p3540
a(lp3541
S'Mhm'
p3542
aaa(lp3543
S'KARENVOX'
p3544
a(lp3545
S'There'
p3546
aS'was'
p3547
ag204
aS'very'
p3548
aS'small'
p3549
aS'tiny'
p3550
aS'screamy'
p3551
aS'skwa'
p3552
aS'squishy'
p3553
aS'VOX'
p3554
aaa(lp3555
g3544
a(lp3556
S'In'
p3557
aS'the'
p3558
aS'store'
p3559
aS'today'
p3560
aaa(lp3561
S'SCOTTScreamy'
p3562
a(lp3563
S'skw'
p3564
ag763
aaa(lp3565
S'KARENWell'
p3566
a(lp3567
g56
aS'heard'
p3568
aS'it'
p3569
aaa(lp3570
S'SCOTTOo'
p3571
a(lp3572
aa(lp3573
S'KAREN'
p3574
a(lp3575
g56
ag56
aS'just'
p3576
aS'heard'
p3577
aS'it'
p3578
aaa(lp3579
g3574
a(lp3580
g56
aS'couldnt'
p3581
aS'see'
p3582
aS'it'
p3583
aaa(lp3584
S'SCOTT'
p3585
a(lp3586
S'Mm'
p3587
aaa(lp3588
S'KAREN'
p3589
a(lp3590
g17
aS'Its'
p3591
aS'like'
p3592
ag17
aS'its'
p3593
aS'parents'
p3594
aS'were'
p3595
aS'hustling'
p3596
aS'it'
p3597
aS'out'
p3598
aS'the'
p3599
aS'door'
p3600
aaa(lp3601
g3589
a(lp3602
S'That'
p3603
aS'would'
p3604
aS'be'
p3605
aS'water'
p3606
aaa(lp3607
g3589
a(lp3608
S'Do'
p3609
aS'you'
p3610
aS'wish'
p3611
aS'for'
p3612
aS'my'
p3613
aS'water'
p3614
aaa(lp3615
S'SCOTT'
p3616
a(lp3617
S'No'
p3618
aaa(lp3619
S'KAREN'
p3620
a(lp3621
S'And'
p3622
aS'Emma'
p3623
aaa(lp3624
g3620
a(lp3625
S'Maxines'
p3626
aS'little'
p3627
aS'girl'
p3628
aaa(lp3629
S'SCOTT'
p3630
a(lp3631
S'Unhunh'
p3632
aaa(lp3633
S'KAREN'
p3634
a(lp3635
S'Shes'
p3636
aaa(lp3637
g3634
a(lp3638
S'She'
p3639
aS'said'
p3640
aS'things'
p3641
aS'to'
p3642
aS'me'
p3643
aS'today'
p3644
aaa(lp3645
g3634
a(lp3646
S'She'
p3647
aS'looked'
p3648
aS'at'
p3649
aS'me'
p3650
aaa(lp3651
g3634
a(lp3652
S'she'
p3653
aS'smiled'
p3654
aS'at'
p3655
aS'me'
p3656
aaa(lp3657
g3634
a(lp3658
S'and'
p3659
aS'she'
p3660
aS'talked'
p3661
aS'to'
p3662
aS'me'
p3663
aaa(lp3664
S'SCOTT'
p3665
a(lp3666
S'Wow'
p3667
aaa(lp3668
S'KAREN'
p3669
a(lp3670
S'Those'
p3671
aS'are'
p3672
aS'all'
p3673
aS'three'
p3674
aS'new'
p3675
aS'things'
p3676
aaa(lp3677
g3669
a(lp3678
S'Cause'
p3679
aS'usually'
p3680
aS'she'
p3681
aS'goes'
p3682
aS'like'
p3683
aS'this'
p3684
aaa(lp3685
g3669
a(lp3686
S'Whenever'
p3687
aS'she'
p3688
aS'sees'
p3689
aS'someone'
p3690
aS'she'
p3691
aS'doesnt'
p3692
aS'wanna'
p3693
aS'look'
p3694
aS'at'
p3695
aaa(lp3696
S'SCOTTOh'
p3697
a(lp3698
aa(lp3699
g3697
a(lp3700
g17
aS'Or'
p3701
aS'one'
p3702
ag17
aS'she'
p3703
aS'doesnt'
p3704
aS'know'
p3705
aaa(lp3706
S'KAREN'
p3707
a(lp3708
S'Right'
p3709
aaa(lp3710
g3707
a(lp3711
S'M'
p3712
aaa(lp3713
g3707
a(lp3714
S'She'
p3715
ag17
aS'everyone'
p3716
aS'there'
p3717
aS'except'
p3718
aS'her'
p3719
aS'mom'
p3720
aaa(lp3721
g3707
a(lp3722
S'So'
p3723
aS'her'
p3724
aS'dad'
p3725
aS'brought'
p3726
aS'her'
p3727
aS'in'
p3728
aaa(lp3729
S'SCOTT'
p3730
a(lp3731
aa(lp3732
S'KARENShe'
p3733
a(lp3734
S'came'
p3735
aS'behind'
p3736
aS'the'
p3737
aS'counter'
p3738
aaa(lp3739
g3733
a(lp3740
S'She'
p3741
aS'said'
p3742
aS'VOX'
p3743
aS'mom'
p3744
aS'Im'
p3745
aS'gonna'
p3746
aS'sit'
p3747
aS'here'
p3748
aS'mom'
p3749
aS'okay'
p3750
aS'VOX'
p3751
aaa(lp3752
g3733
a(lp3753
S'Maxine'
p3754
aS'said'
p3755
aS'okay'
p3756
aaa(lp3757
g3733
a(lp3758
S'VOX'
p3759
aS'Im'
p3760
aS'gonna'
p3761
aS'help'
p3762
aS'you'
p3763
aS'mom'
p3764
aS'okay'
p3765
aS'VOX'
p3766
aaa(lp3767
g3733
a(lp3768
S'This'
p3769
aS'kids'
p3770
aS'like'
p3771
aS'two'
p3772
aS'and'
p3773
ag204
aS'half'
p3774
aaa(lp3775
g3733
a(lp3776
S'And'
p3777
aS'she'
p3778
aS'sang'
p3779
aS'all'
p3780
aS'her'
p3781
aS'ABCs'
p3782
aaa(lp3783
g3733
a(lp3784
S'shes'
p3785
aaa(lp3786
g3733
a(lp3787
S'Maxine'
p3788
aS'said'
p3789
aS'they'
p3790
aS'took'
p3791
aS'her'
p3792
aS'to'
p3793
aS'the'
p3794
aS'fair'
p3795
aS'yesterday'
p3796
aaa(lp3797
g3733
a(lp3798
S'and'
p3799
aS'she'
p3800
aS'won'
p3801
aS'some'
p3802
aS'prize'
p3803
aaa(lp3804
g3733
a(lp3805
S'that'
p3806
aaa(lp3807
g3733
a(lp3808
S'these'
p3809
aS'older'
p3810
aS'kids'
p3811
aS'couldnt'
p3812
aS'win'
p3813
aaa(lp3814
g3733
a(lp3815
g17
aS'Shes'
p3816
ag17
ag204
aS'very'
p3817
aS'bright'
p3818
aS'kid'
p3819
aaa(lp3820
S'SCOTTXXX'
p3821
a(lp3822
aa(lp3823
S'KAREN'
p3824
a(lp3825
S'And'
p3826
aS'um'
p3827
aaa(lp3828
g3824
a(lp3829
S'but'
p3830
aaa(lp3831
g3824
a(lp3832
g56
aS'asked'
p3833
aS'Maxine'
p3834
aS'if'
p3835
aS'she'
p3836
aS'was'
p3837
aaa(lp3838
g3824
a(lp3839
S'like'
p3840
aS'uh'
p3841
aS'did'
p3842
aS'she'
p3843
aS'like'
p3844
aS'having'
p3845
aS'kids'
p3846
aaa(lp3847
g3824
a(lp3848
S'and'
p3849
aS'she'
p3850
aS'said'
p3851
aS'oh'
p3852
aS'yeah'
p3853
aaa(lp3854
g3824
a(lp3855
S'She'
p3856
aS'wouldnt'
p3857
aS'give'
p3858
aS'them'
p3859
aS'up'
p3860
aS'for'
p3861
aS'the'
p3862
aS'world'
p3863
aaa(lp3864
S'SCOTT'
p3865
a(lp3866
S'Mhm'
p3867
aaa(lp3868
S'KARENAnd'
p3869
a(lp3870
S'she'
p3871
aS'said'
p3872
aaa(lp3873
g3869
a(lp3874
S'she'
p3875
aS'wasnt'
p3876
aS'planned'
p3877
aaa(lp3878
g3869
a(lp3879
S'but'
p3880
aaa(lp3881
g3869
a(lp3882
S'now'
p3883
aaa(lp3884
g3869
a(lp3885
S'she'
p3886
aS'just'
p3887
aS'thinks'
p3888
aS'shes'
p3889
aS'great'
p3890
aaa(lp3891
S'SCOTT'
p3892
a(lp3893
S'Mhm'
p3894
aaa(lp3895
S'KAREN'
p3896
a(lp3897
S'And'
p3898
aS'she'
p3899
aS'said'
p3900
aaa(lp3901
g3896
a(lp3902
S'after'
p3903
aS'Emma'
p3904
aS'started'
p3905
aS'saying'
p3906
aS'her'
p3907
aS'ABCs'
p3908
aaa(lp3909
g3896
a(lp3910
S'and'
p3911
ag56
aS'said'
p3912
aaa(lp3913
g3896
a(lp3914
S'wow'
p3915
aaa(lp3916
g3896
a(lp3917
S'its'
p3918
aS'amazing'
p3919
aaa(lp3920
g3896
a(lp3921
S'that'
p3922
aS'youre'
p3923
aS'not'
p3924
aS'even'
p3925
aS'three'
p3926
aaa(lp3927
g3896
a(lp3928
S'and'
p3929
aS'you'
p3930
aS'can'
p3931
aS'do'
p3932
aS'your'
p3933
aS'ABCs'
p3934
aaa(lp3935
g3896
a(lp3936
S'And'
p3937
aS'Maxine'
p3938
aaa(lp3939
g3896
a(lp3940
S'and'
p3941
aS'like'
p3942
aaa(lp3943
g3896
a(lp3944
g56
aS'smiled'
p3945
aS'at'
p3946
aS'Maxine'
p3947
aS'and'
p3948
aS'said'
p3949
aaa(lp3950
g3896
a(lp3951
g56
aS'said'
p3952
aaa(lp3953
g3896
a(lp3954
S'whats'
p3955
aS'my'
p3956
aS'name'
p3957
aaa(lp3958
g3896
a(lp3959
S'And'
p3960
aS'shed'
p3961
aS'say'
p3962
aaa(lp3963
g3896
a(lp3964
S'VOX'
p3965
aS'neat'
p3966
aS'VOX'
p3967
aaa(lp3968
S'SCOTT'
p3969
a(lp3970
S'Mhm'
p3971
aaa(lp3972
S'KARENVOX'
p3973
a(lp3974
S'XX'
p3975
aS'VOX'
p3976
aaa(lp3977
S'SCOTT'
p3978
a(lp3979
S'Excuse'
p3980
aS'me'
p3981
aaa(lp3982
S'KAREN'
p3983
a(lp3984
S'This'
p3985
aS'is'
p3986
aS'very'
p3987
aS'amazing'
p3988
aaa(lp3989
S'SCOTT'
p3990
a(lp3991
aa(lp3992
S'KARENWell'
p3993
a(lp3994
S'um'
p3995
aaa(lp3996
g3993
a(lp3997
S'we'
p3998
aS'got'
p3999
ag204
aS'new'
p4000
aS'coloring'
p4001
aaa(lp4002
g3993
a(lp4003
S'PAR'
p4004
ag3405
aS'new'
p4005
aS'coloring'
p4006
aS'book'
p4007
aS'PAR'
p4008
aaa(lp4009
g3993
a(lp4010
g204
aS'new'
p4011
aS'Christmas'
p4012
aS'book'
p4013
aS'in'
p4014
aaa(lp4015
S'SCOTT'
p4016
a(lp4017
S'Unhunh'
p4018
aaa(lp4019
S'KARENAt'
p4020
a(lp4021
S'the'
p4022
aS'store'
p4023
aaa(lp4024
g4020
a(lp4025
S'its'
p4026
aS'Christmas'
p4027
aS'songs'
p4028
aaa(lp4029
S'SCOTT'
p4030
a(lp4031
S'Mhm'
p4032
aaa(lp4033
S'KAREN'
p4034
a(lp4035
S'And'
p4036
aS'theres'
p4037
aS'lots'
p4038
aS'of'
p4039
aS'them'
p4040
aS'VOX'
p4041
aS'Scott'
p4042
aaa(lp4043
g4034
a(lp4044
S'Lots'
p4045
aS'of'
p4046
aS'Christmas'
p4047
aS'songs'
p4048
aaa(lp4049
g4034
a(lp4050
S'in'
p4051
aS'all'
p4052
aS'different'
p4053
aS'languages'
p4054
aaa(lp4055
g4034
a(lp4056
S'and'
p4057
aS'then'
p4058
aS'theyre'
p4059
aS'translated'
p4060
aS'into'
p4061
aS'English'
p4062
aaa(lp4063
g4034
a(lp4064
S'And'
p4065
aS'it'
p4066
aS'tells'
p4067
aS'about'
p4068
aS'them'
p4069
aaa(lp4070
g4034
a(lp4071
S'And'
p4072
ag56
aS'think'
p4073
aS'we'
p4074
aS'should'
p4075
aS'get'
p4076
aS'it'
p4077
aaa(lp4078
g4034
a(lp4079
S'what'
p4080
aS'do'
p4081
aS'you'
p4082
aS'think'
p4083
aaa(lp4084
S'SCOTT'
p4085
a(lp4086
g56
aS'dont'
p4087
aS'know'
p4088
aaa(lp4089
g4085
a(lp4090
g56
aS'havent'
p4091
aS'seen'
p4092
aS'it'
p4093
aaa(lp4094
S'KARENWell'
p4095
a(lp4096
S'the'
p4097
aS'covers'
p4098
aS'not'
p4099
aS'very'
p4100
aS'pretty'
p4101
aaa(lp4102
S'SCOTTWell'
p4103
a(lp4104
S'Ill'
p4105
aS'have'
p4106
aS'to'
p4107
aS'go'
p4108
aS'see'
p4109
aS'it'
p4110
aaa(lp4111
S'KARENbut'
p4112
a(lp4113
S'the'
p4114
aS'inside'
p4115
aS'is'
p4116
ag204
aaa(lp4117
S'SCOTTWell'
p4118
a(lp4119
g56
aS'have'
p4120
aS'to'
p4121
aS'see'
p4122
aS'the'
p4123
aS'inside'
p4124
aS'too'
p4125
aaa(lp4126
S'KARENWell'
p4127
a(lp4128
S'youd'
p4129
aS'better'
p4130
aS'come'
p4131
aS'tomorrow'
p4132
aaa(lp4133
S'SCOTT'
p4134
a(lp4135
S'Okay'
p4136
aaa(lp4137
S'KARENYou'
p4138
a(lp4139
S'should'
p4140
aS'start'
p4141
aS'writing'
p4142
aS'Christmas'
p4143
aS'songs'
p4144
aS'now'
p4145
aaa(lp4146
S'SCOTTIll'
p4147
a(lp4148
S'come'
p4149
aS'visit'
p4150
aS'you'
p4151
aS'tomorrow'
p4152
aS'at'
p4153
aS'work'
p4154
aaa(lp4155
S'KARENYes'
p4156
a(lp4157
aa(lp4158
g4156
a(lp4159
S'That'
p4160
aS'would'
p4161
aS'be'
p4162
aS'nice'
p4163
aaa(lp4164
S'SCOTT'
p4165
a(lp4166
aa.