(lp0
(lp1
S'LAURA'
p2
a(lp3
S'Look'
p4
aS'at'
p5
aS'this'
p6
aaa(lp7
g2
a(lp8
S'Isnt'
p9
aS'this'
p10
aS'pretty'
p11
aaa(lp12
S'LISBETH'
p13
a(lp14
S'X'
p15
aaa(lp16
g13
a(lp17
g15
aS'Lime'
p18
aS'cream'
p19
ag15
aaa(lp20
S'DONWhat'
p21
a(lp22
S'is'
p23
aS'that'
p24
aaa(lp25
S'LAURAMary'
p26
a(lp27
S'always'
p28
aS'wears'
p29
aS'them'
p30
aaa(lp31
S'XWok'
p32
a(lp33
S'wok'
p34
aS'wok'
p35
aS'wok'
p36
aS'wok'
p37
aaa(lp38
S'LAURAShe'
p39
a(lp40
S'brought'
p41
aS'some'
p42
aaa(lp43
S'XWok'
p44
a(lp45
S'wok'
p46
aaa(lp47
S'LAURA'
p48
a(lp49
S'I'
p50
aS'always'
p51
aS'comment'
p52
aS'on'
p53
aS'them'
p54
aaa(lp55
S'LISBETHYou'
p56
a(lp57
S'have'
p58
aS'to'
p59
aS'be'
p60
aS'nice'
p61
aS'to'
p62
aS'me'
p63
aaa(lp64
S'LAURAShe'
p65
a(lp66
S'brought'
p67
aS'some'
p68
aaa(lp69
S'DONX'
p70
a(lp71
S'Aw'
p72
ag15
aaa(lp73
g70
a(lp74
S'thats'
p75
aS'a'
p76
aS'cute'
p77
ag15
aS'garden'
p78
ag15
aaa(lp79
S'JENNVOX'
p80
a(lp81
S'VOX'
p82
aaa(lp83
S'LISBETHSharing'
p84
a(lp85
S'my'
p86
aS'candy'
p87
aaa(lp88
S'JENN'
p89
a(lp90
S'VOX'
p91
aS'VOX'
p92
aaa(lp93
S'LEANNEX'
p94
a(lp95
S'Neat'
p96
aS'container'
p97
ag15
aS'for'
p98
aS'them'
p99
aaa(lp100
S'BILLNot'
p101
a(lp102
S'cute'
p103
aS'at'
p104
aS'all'
p105
aaa(lp106
g101
a(lp107
S'very'
p108
aS'elegant'
p109
aaa(lp110
S'LISBETHYes'
p111
a(lp112
S'you'
p113
aS'are'
p114
aaa(lp115
S'JENNI'
p116
a(lp117
S'am'
p118
aaa(lp119
g116
a(lp120
g50
aS'am'
p121
aS'HI'
p122
aS'not'
p123
aS'HI'
p124
aS'mean'
p125
aS'to'
p126
aS'you'
p127
aS'all'
p128
aS'the'
p129
aS'time'
p130
aaa(lp131
S'BILL'
p132
a(lp133
S'Look'
p134
aS'how'
p135
aS'mean'
p136
aS'youre'
p137
aS'being'
p138
aaa(lp139
S'JENN'
p140
a(lp141
S'HI'
p142
aS'Well'
p143
aS'look'
p144
aS'how'
p145
aS'mean'
p146
aS'shes'
p147
aS'being'
p148
aS'HI'
p149
aaa(lp150
S'RICHARDJenn'
p151
a(lp152
S'youre'
p153
aS'cruel'
p154
aaa(lp155
S'LAURALook'
p156
a(lp157
aa(lp158
S'DONOh'
p159
a(lp160
S'thats'
p161
aS'wonderful'
p162
aaa(lp163
S'BILL'
p164
a(lp165
aa(lp166
g164
a(lp167
S'Guilt'
p168
aaa(lp169
S'MARYLooks'
p170
a(lp171
S'uh'
p172
aaa(lp173
S'BILLLisbeth'
p174
a(lp175
aa(lp176
S'LEANNEMom'
p177
a(lp178
S'it'
p179
aS'looks'
p180
aS'so'
p181
aS'good'
p182
aaa(lp183
S'MARYSo'
p184
a(lp185
S'good'
p186
aaa(lp187
S'DONIt'
p188
a(lp189
S'looks'
p190
aS'lovely'
p191
aaa(lp192
S'JENN'
p193
a(lp194
S'You'
p195
aS'know'
p196
aaa(lp197
g193
a(lp198
S'this'
p199
aS'family'
p200
aS'works'
p201
aS'on'
p202
aS'guilt'
p203
aaa(lp204
g193
a(lp205
S'The'
p206
aS'engine'
p207
aS'of'
p208
aS'this'
p209
aS'family'
p210
aaa(lp211
g193
a(lp212
S'is'
p213
ag76
aS'little'
p214
aS'guilt'
p215
aS'motor'
p216
aaa(lp217
g193
a(lp218
S'That'
p219
aS'goes'
p220
aS'vroom'
p221
aS'vroom'
p222
aS'vroom'
p223
aaa(lp224
S'DON'
p225
a(lp226
aa(lp227
S'LAURAI'
p228
a(lp229
S'dont'
p230
aS'agree'
p231
aS'with'
p232
aS'you'
p233
aaa(lp234
S'JENNI'
p235
a(lp236
S'totally'
p237
aS'agree'
p238
aaa(lp239
S'BILLRight'
p240
a(lp241
aa(lp242
S'JENNI'
p243
a(lp244
S'dont'
p245
aaa(lp246
g243
a(lp247
S'And'
p248
aaa(lp249
S'BILLWere'
p250
a(lp251
S'making'
p252
aS'you'
p253
aS'feel'
p254
aS'guilty'
p255
aaa(lp256
S'MARY'
p257
a(lp258
g50
aS'totally'
p259
aS'agree'
p260
aaa(lp261
S'BILLbut'
p262
a(lp263
S'what'
p264
aaa(lp265
S'LEANNE'
p266
a(lp267
S'You'
p268
aS'totally'
p269
aS'agree'
p270
aS'with'
p271
aS'yourself'
p272
aaa(lp273
S'BILLwhat'
p274
a(lp275
S'are'
p276
aS'we'
p277
aaa(lp278
S'LAURAX'
p279
a(lp280
S'Totally'
p281
aS'agree'
p282
ag15
aaa(lp283
S'BILL'
p284
a(lp285
aa(lp286
S'LAURA'
p287
a(lp288
aa(lp289
S'LEANNEJennifer'
p290
a(lp291
aa(lp292
g290
a(lp293
S'youre'
p294
aS'agreeing'
p295
aS'with'
p296
aS'yourself'
p297
aaa(lp298
S'JENNYes'
p299
a(lp300
aa(lp301
S'BILLI'
p302
a(lp303
S'agree'
p304
aaa(lp305
g302
a(lp306
S'She'
p307
aS'totally'
p308
aS'agreed'
p309
aS'with'
p310
aS'herself'
p311
aaa(lp312
S'MANY'
p313
a(lp314
aa(lp315
S'DONI'
p316
a(lp317
S'totally'
p318
aS'agree'
p319
aS'with'
p320
aS'me'
p321
aaa(lp322
S'LEANNE'
p323
a(lp324
aa(lp325
S'MANY'
p326
a(lp327
aa(lp328
S'DONBoy'
p329
a(lp330
S'if'
p331
aS'that'
p332
aS'isnt'
p333
aS'conceit'
p334
aaa(lp335
g329
a(lp336
S'nothing'
p337
aS'is'
p338
aaa(lp339
S'LISBETHX'
p340
a(lp341
S'Thats'
p342
aS'why'
p343
aS'its'
p344
ag15
aS'not'
p345
aS'believable'
p346
aaa(lp347
S'DON'
p348
a(lp349
aa(lp350
S'LEANNE'
p351
a(lp352
aa(lp353
S'XXXX'
p354
a(lp355
aa(lp356
S'BILL'
p357
a(lp358
aa(lp359
S'JENN'
p360
a(lp361
g50
aS'totally'
p362
aS'agree'
p363
aaa(lp364
S'DONSuch'
p365
a(lp366
g76
aS'great'
p367
aS'statement'
p368
aaa(lp369
S'LEANNE'
p370
a(lp371
aa(lp372
S'LISBETHFill'
p373
a(lp374
S'in'
p375
aS'the'
p376
aS'box'
p377
aaa(lp378
g373
a(lp379
S'Its'
p380
aS'like'
p381
aS'giving'
p382
aS'yourself'
p383
ag76
aS'survey'
p384
aaa(lp385
S'DONXXX'
p386
a(lp387
aa(lp388
S'MANY'
p389
a(lp390
aa(lp391
S'DON'
p392
a(lp393
S'Right'
p394
aaa(lp395
S'LISBETHAgree'
p396
a(lp397
S'with'
p398
aS'yours'
p399
aaa(lp400
S'DON'
p401
a(lp402
aa(lp403
S'LISBETH'
p404
a(lp405
aa(lp406
S'DON'
p407
a(lp408
S'Do'
p409
aS'you'
p410
aS'think'
p411
aS'youre'
p412
ag76
aS'wonderful'
p413
aS'person'
p414
aaa(lp415
S'LEANNE'
p416
a(lp417
aa(lp418
S'DONYes'
p419
a(lp420
aa(lp421
g419
a(lp422
S'Check'
p423
aaa(lp424
S'BILL'
p425
a(lp426
aa(lp427
S'DON'
p428
a(lp429
aa(lp430
S'LEANNE'
p431
a(lp432
aa(lp433
S'BILLI'
p434
a(lp435
S'totally'
p436
aS'agree'
p437
aS'with'
p438
aS'myself'
p439
aaa(lp440
S'DON'
p441
a(lp442
S'Yeah'
p443
aaa(lp444
g441
a(lp445
S'Do'
p446
aS'you'
p447
aS'think'
p448
aS'other'
p449
aS'people'
p450
aS'are'
p451
aS'miserable'
p452
aaa(lp453
S'LEANNE'
p454
a(lp455
aa(lp456
S'BILLMhm'
p457
a(lp458
aa(lp459
S'DONYes'
p460
a(lp461
aa(lp462
g460
a(lp463
S'Check'
p464
aaa(lp465
S'MANY'
p466
a(lp467
aa(lp468
S'DONDo'
p469
a(lp470
S'you'
p471
aS'agree'
p472
aS'with'
p473
aS'me'
p474
aaa(lp475
S'LEANNE'
p476
a(lp477
aa(lp478
S'DONYes'
p479
a(lp480
aa(lp481
g479
a(lp482
S'Check'
p483
aaa(lp484
S'MARY'
p485
a(lp486
aa(lp487
S'BILL'
p488
a(lp489
aa(lp490
S'JENNShut'
p491
a(lp492
S'up'
p493
aaa(lp494
S'DON'
p495
a(lp496
aa(lp497
S'LEANNE'
p498
a(lp499
aa(lp500
S'MARY'
p501
a(lp502
aa(lp503
S'DON'
p504
a(lp505
aa(lp506
S'MARY'
p507
a(lp508
aa(lp509
S'LEANNE'
p510
a(lp511
aa(lp512
S'DONX'
p513
a(lp514
aa(lp515
S'BILL'
p516
a(lp517
S'SING'
p518
aS'We'
p519
aS'three'
p520
aaa(lp521
g516
a(lp522
S'were'
p523
aS'all'
p524
aS'alone'
p525
aaa(lp526
S'DON'
p527
a(lp528
aa(lp529
S'BILL'
p530
a(lp531
S'living'
p532
aS'in'
p533
aS'misery'
p534
aaa(lp535
S'DONSING'
p536
a(lp537
S'Living'
p538
aS'sery'
p539
aaa(lp540
S'JENNTheres'
p541
a(lp542
aa(lp543
g541
a(lp544
S'There'
p545
aS'is'
p546
ag76
aS'fine'
p547
aS'line'
p548
aaa(lp549
S'BILLmy'
p550
a(lp551
S'echo'
p552
aaa(lp553
S'DONmy'
p554
a(lp555
S'echo'
p556
aaa(lp557
S'BILLmy'
p558
a(lp559
S'shadow'
p560
aaa(lp561
S'DONmy'
p562
a(lp563
S'shadow'
p564
aaa(lp565
S'MARY'
p566
a(lp567
aa(lp568
S'BILLand'
p569
a(lp570
S'me'
p571
aS'SING'
p572
aaa(lp573
S'DONand'
p574
a(lp575
S'me'
p576
aS'SING'
p577
aaa(lp578
S'MANY'
p579
a(lp580
aa(lp581
S'JENNThere'
p582
a(lp583
S'is'
p584
ag76
aS'fine'
p585
aS'line'
p586
aS'though'
p587
aaa(lp588
g582
a(lp589
S'between'
p590
aS'guilt'
p591
aS'and'
p592
aS'responsibility'
p593
aaa(lp594
S'MARY'
p595
a(lp596
aa(lp597
S'JENNLike'
p598
a(lp599
S'youre'
p600
aS'feeling'
p601
ag76
aS'responsibility'
p602
aS'towards'
p603
aS'people'
p604
aaa(lp605
S'DON'
p606
a(lp607
S'Ah'
p608
aaa(lp609
g606
a(lp610
S'Mm'
p611
aaa(lp612
S'JENNAnd'
p613
a(lp614
S'the'
p615
aS'feeling'
p616
aS'of'
p617
aS'guilt'
p618
aaa(lp619
g613
a(lp620
S'to'
p621
aS'make'
p622
aS'yourself'
p623
aS'do'
p624
aS'things'
p625
aaa(lp626
S'DONMhm'
p627
a(lp628
aa(lp629
S'BILLRight'
p630
a(lp631
aa(lp632
S'JENNAnd'
p633
a(lp634
g50
aS'think'
p635
aS'that'
p636
aS'line'
p637
aaa(lp638
g633
a(lp639
S'is'
p640
aS'really'
p641
aS'fuzzy'
p642
aS'but'
p643
ag50
aS'think'
p644
aaa(lp645
g633
a(lp646
S'often'
p647
aaa(lp648
S'DON'
p649
a(lp650
S'Talk'
p651
aS'to'
p652
aS'me'
p653
aaa(lp654
S'JENNThe'
p655
a(lp656
S'guilt'
p657
aS'strings'
p658
aS'are'
p659
aS'tugged'
p660
aS'very'
p661
aS'hard'
p662
aaa(lp663
S'LEANNEThat'
p664
a(lp665
S'is'
p666
aS'the'
p667
aS'biggest'
p668
aS'crock'
p669
aS'of'
p670
aS'shit'
p671
ag50
aS'have'
p672
aS'ever'
p673
aS'heard'
p674
aaa(lp675
S'JENNNo'
p676
a(lp677
S'its'
p678
aS'not'
p679
aaa(lp680
S'BILLVOX'
p681
a(lp682
S'Often'
p683
aS'VOX'
p684
aaa(lp685
S'JENN'
p686
a(lp687
S'You'
p688
aS'and'
p689
ag50
aS'have'
p690
aS'had'
p691
ag76
aS'talk'
p692
aS'about'
p693
aS'this'
p694
aS'before'
p695
aaa(lp696
S'BILLYoure'
p697
a(lp698
S'not'
p699
aS'an'
p700
aS'orphan'
p701
aaa(lp702
S'LEANNE'
p703
a(lp704
S'No'
p705
aaa(lp706
g703
a(lp707
S'Well'
p708
ag50
aS'happen'
p709
aS'to'
p710
aS'think'
p711
aS'yes'
p712
aaa(lp713
S'DONNow'
p714
a(lp715
S'tell'
p716
aS'me'
p717
aaa(lp718
S'LEANNEthat'
p719
a(lp720
S'guilt'
p721
aS'is'
p722
ag76
aS'very'
p723
aS'massive'
p724
aS'part'
p725
aS'of'
p726
aS'this'
p727
aS'family'
p728
aaa(lp729
S'DONJenn'
p730
a(lp731
S'w'
p732
aaa(lp733
g730
a(lp734
S'What'
p735
aS'happened'
p736
aS'XXX'
p737
aaa(lp738
S'RICHARD'
p739
a(lp740
S'PX'
p741
aS'Guilt'
p742
aS'for'
p743
aS'XP'
p744
aaa(lp745
S'LEANNEGuilt'
p746
a(lp747
aa(lp748
g746
a(lp749
S'no'
p750
aaa(lp751
g746
a(lp752
S'shes'
p753
aS'right'
p754
aS'to'
p755
ag76
aS'certain'
p756
aS'extent'
p757
aaa(lp758
S'BILL'
p759
a(lp760
S'Bullshit'
p761
aaa(lp762
S'LEANNEThis'
p763
a(lp764
S'family'
p765
aaa(lp766
g763
a(lp767
S'is'
p768
aaa(lp769
S'DON'
p770
a(lp771
aa(lp772
S'LEANNE'
p773
a(lp774
aa(lp775
g773
a(lp776
S'To'
p777
ag76
aS'certain'
p778
aS'extent'
p779
aaa(lp780
S'LAURAHow'
p781
a(lp782
S'do'
p783
aS'you'
p784
aaa(lp785
S'LEANNEI'
p786
a(lp787
S'qualified'
p788
aaa(lp789
S'BILLBullshit'
p790
a(lp791
aa(lp792
S'LEANNE'
p793
a(lp794
S'HI'
p795
aS'We'
p796
aS'HI'
p797
aS'believe'
p798
aS'in'
p799
aS'guilt'
p800
aaa(lp801
S'BILLBullshit'
p802
a(lp803
aa(lp804
S'LEANNE'
p805
a(lp806
S'You'
p807
aS'dont'
p808
aS'think'
p809
aS'this'
p810
aS'family'
p811
aS'uses'
p812
aS'guilt'
p813
aaa(lp814
S'LAURAWell'
p815
a(lp816
g50
aaa(lp817
S'BILL'
p818
a(lp819
S'The'
p820
aS'trouble'
p821
aS'is'
p822
aaa(lp823
g818
a(lp824
g76
aS'little'
p825
aS'guilt'
p826
aS'goes'
p827
ag76
aS'long'
p828
aS'way'
p829
aaa(lp830
S'DONLong'
p831
a(lp832
S'way'
p833
aaa(lp834
S'LEANNEEspecially'
p835
a(lp836
S'if'
p837
aS'youre'
p838
aS'Jewish'
p839
aaa(lp840
S'JENN'
p841
a(lp842
S'Yeah'
p843
aaa(lp844
S'LAURADo'
p845
a(lp846
S'you'
p847
aS'think'
p848
aaa(lp849
S'BILLAnd'
p850
a(lp851
S'you'
p852
aS'guys'
p853
aS'feel'
p854
ag76
aS'little'
p855
aS'bit'
p856
aS'guilty'
p857
aaa(lp858
g850
a(lp859
S'about'
p860
aS'the'
p861
aS'way'
p862
aS'youve'
p863
aS'treated'
p864
aS'us'
p865
aS'all'
p866
aS'these'
p867
aS'years'
p868
aS'of'
p869
aS'life'
p870
aaa(lp871
S'LEANNEOh'
p872
a(lp873
S'what'
p874
ag76
aS'crock'
p875
aaa(lp876
S'LAURA'
p877
a(lp878
aa(lp879
S'DON'
p880
a(lp881
aa(lp882
S'LAURA'
p883
a(lp884
S'Now'
p885
aS'guilt'
p886
aS'works'
p887
aS'two'
p888
aS'ways'
p889
aaa(lp890
S'LEANNEThats'
p891
a(lp892
S'bullshit'
p893
aaa(lp894
S'LISBETH'
p895
a(lp896
S'Now'
p897
aS'Ive'
p898
aS'been'
p899
aS'looking'
p900
aS'for'
p901
aS'the'
p902
aS'May'
p903
aS'seventeenth'
p904
aS'New'
p905
aS'Yorker'
p906
aaa(lp907
S'LEANNEOh'
p908
a(lp909
S'please'
p910
aaa(lp911
g908
a(lp912
S'Mother'
p913
aaa(lp914
g908
a(lp915
S'Ive'
p916
aS'learned'
p917
aaa(lp918
S'RICHARDHm'
p919
a(lp920
aa(lp921
S'LEANNE'
p922
a(lp923
aa(lp924
S'LAURA'
p925
a(lp926
aa(lp927
S'LEANNEShes'
p928
a(lp929
S'like'
p930
aaa(lp931
g928
a(lp932
S'out'
p933
aS'there'
p934
aaa(lp935
g928
a(lp936
S'Youre'
p937
aaa(lp938
S'BILLLiz'
p939
a(lp940
aa(lp941
S'LEANNELiz'
p942
a(lp943
aa(lp944
S'BILLAre'
p945
a(lp946
S'you'
p947
aS'in'
p948
aS'this'
p949
aS'conversation'
p950
aS'or'
p951
aS'not'
p952
aaa(lp953
S'LEANNEYoure'
p954
a(lp955
S'L'
p956
aS'outre'
p957
aS'mer'
p958
ag956
aaa(lp959
S'LISBETHI'
p960
a(lp961
S'hear'
p962
aS'it'
p963
aaa(lp964
S'LEANNE'
p965
a(lp966
aa(lp967
S'LAURA'
p968
a(lp969
aa(lp970
S'LISBETHI'
p971
a(lp972
S'hear'
p973
aS'it'
p974
aaa(lp975
S'LEANNE'
p976
a(lp977
aa(lp978
S'BILLHunh'
p979
a(lp980
aa(lp981
g979
a(lp982
S'You'
p983
aS'hear'
p984
aS'it'
p985
aaa(lp986
S'LEANNE'
p987
a(lp988
S'Youre'
p989
ag15
aS'uh'
p990
aS'duh'
p991
ag15
aaa(lp992
S'BILLOh'
p993
a(lp994
g50
aS'think'
p995
aaa(lp996
S'LEANNEMom'
p997
a(lp998
aa(lp999
S'DON'
p1000
a(lp1001
S'Uh'
p1002
aaa(lp1003
S'LAURAWait'
p1004
a(lp1005
aa(lp1006
g1004
a(lp1007
S'My'
p1008
aS'gla'
p1009
aaa(lp1010
g1004
a(lp1011
g50
aS'have'
p1012
aS'm'
p1013
aaa(lp1014
g1004
a(lp1015
g50
aS'have'
p1016
aaa(lp1017
g1004
a(lp1018
g50
aS'just'
p1019
aS'go'
p1020
aS'without'
p1021
aS'glasses'
p1022
aS'on'
p1023
aaa(lp1024
S'LEANNE'
p1025
a(lp1026
aa(lp1027
g1025
a(lp1028
g50
aS'need'
p1029
aS'XX'
p1030
aaa(lp1031
S'LEANNE'
p1032
a(lp1033
S'Mom'
p1034
aaa(lp1035
S'LAURA'
p1036
a(lp1037
S'What'
p1038
aaa(lp1039
S'LEANNEHeres'
p1040
a(lp1041
S'the'
p1042
aS'deal'
p1043
aaa(lp1044
g1040
a(lp1045
S'You'
p1046
aS'guilt'
p1047
aS'me'
p1048
aaa(lp1049
g1040
a(lp1050
S'and'
p1051
aS'in'
p1052
aS'response'
p1053
aaa(lp1054
g1040
a(lp1055
g50
aS'guilt'
p1056
aS'you'
p1057
aS'straight'
p1058
aS'back'
p1059
aaa(lp1060
S'LAURAT'
p1061
a(lp1062
aa(lp1063
g1061
a(lp1064
S'In'
p1065
aS'response'
p1066
aaa(lp1067
S'LISBETH'
p1068
a(lp1069
S'To'
p1070
aS'guilt'
p1071
aaa(lp1072
g1068
a(lp1073
S'Thats'
p1074
aS'now'
p1075
ag76
aS'verb'
p1076
aaa(lp1077
g1068
a(lp1078
S'Thats'
p1079
aS'like'
p1080
aS'Tara'
p1081
aS'said'
p1082
aS'today'
p1083
aaa(lp1084
S'BILLIts'
p1085
a(lp1086
g76
aS'new'
p1087
aS'verb'
p1088
aaa(lp1089
S'DONXX'
p1090
a(lp1091
aa(lp1092
g1090
a(lp1093
S'To'
p1094
aS'beguilt'
p1095
aaa(lp1096
g1090
a(lp1097
S'to'
p1098
aaa(lp1099
S'LISBETHto'
p1100
a(lp1101
g732
aaa(lp1102
S'LEANNE'
p1103
a(lp1104
aa(lp1105
S'LISBETHUh'
p1106
a(lp1107
aa(lp1108
S'LAURA'
p1109
a(lp1110
g15
aS'Got'
p1111
ag15
aaa(lp1112
S'LISBETHIll'
p1113
a(lp1114
S'water'
p1115
aS'you'
p1116
aaa(lp1117
S'LAURASaid'
p1118
a(lp1119
aa(lp1120
g1118
a(lp1121
S'Ill'
p1122
aS'water'
p1123
aS'you'
p1124
aaa(lp1125
S'LISBETHIll'
p1126
a(lp1127
S'water'
p1128
aS'you'
p1129
aaa(lp1130
S'LEANNE'
p1131
a(lp1132
S'Cause'
p1133
aaa(lp1134
g1131
a(lp1135
S'shes'
p1136
aS'gonna'
p1137
ag15
aS'sprout'
p1138
aS'you'
p1139
aS'know'
p1140
ag15
aaa(lp1141
g1131
a(lp1142
S'But'
p1143
aaa(lp1144
g1131
a(lp1145
S'like'
p1146
aS'sometimes'
p1147
aaa(lp1148
g1131
a(lp1149
S'what'
p1150
aS'Ill'
p1151
aS'say'
p1152
aS'to'
p1153
aS'you'
p1154
aS'is'
p1155
aaa(lp1156
g1131
a(lp1157
S'youll'
p1158
aS'youll'
p1159
aS'start'
p1160
aS'guilting'
p1161
aS'me'
p1162
aaa(lp1163
g1131
a(lp1164
S'And'
p1165
aS'what'
p1166
aS'Ill'
p1167
aS'do'
p1168
aS'in'
p1169
aS'response'
p1170
aaa(lp1171
g1131
a(lp1172
S'is'
p1173
aS'Ill'
p1174
aS'say'
p1175
aS'Mom'
p1176
aaa(lp1177
g1131
a(lp1178
S'youre'
p1179
aS'guilting'
p1180
aS'me'
p1181
aaa(lp1182
g1131
a(lp1183
S'Whereupon'
p1184
aS'you'
p1185
aS'immediately'
p1186
aaa(lp1187
S'LISBETHGilting'
p1188
a(lp1189
aa(lp1190
g1188
a(lp1191
S'Thats'
p1192
aS'putting'
p1193
ag76
aS'little'
p1194
aS'coat'
p1195
aS'of'
p1196
aS'gold'
p1197
aS'on'
p1198
aS'top'
p1199
aS'isnt'
p1200
aS'it'
p1201
aaa(lp1202
S'BILLGold'
p1203
a(lp1204
aa(lp1205
g1203
a(lp1206
S'Yeah'
p1207
aS'thats'
p1208
aS'right'
p1209
aaa(lp1210
g1203
a(lp1211
S'Thats'
p1212
aS'right'
p1213
aaa(lp1214
S'DONCorrect'
p1215
a(lp1216
aa(lp1217
S'LEANNEThats'
p1218
a(lp1219
S'gilting'
p1220
aaa(lp1221
g1218
a(lp1222
S'not'
p1223
aS'guilting'
p1224
aaa(lp1225
S'DONVOX'
p1226
a(lp1227
S'VOX'
p1228
aaa(lp1229
S'LISBETHExcuse'
p1230
a(lp1231
S'me'
p1232
aaa(lp1233
S'LEANNE'
p1234
a(lp1235
S'Liz'
p1236
aaa(lp1237
g1234
a(lp1238
S'Sort'
p1239
aS'of'
p1240
aS'like'
p1241
aS'airplane'
p1242
aS'and'
p1243
aaa(lp1244
g1234
a(lp1245
S'whats'
p1246
aaa(lp1247
g1234
a(lp1248
S'oh'
p1249
aS'plane'
p1250
aS'and'
p1251
aS'plain'
p1252
aaa(lp1253
g1234
a(lp1254
S'Thats'
p1255
aS'it'
p1256
aaa(lp1257
g1234
a(lp1258
S'Um'
p1259
aaa(lp1260
g1234
a(lp1261
S'Mom'
p1262
aaa(lp1263
S'LAURAYes'
p1264
a(lp1265
aa(lp1266
S'LEANNEOh'
p1267
a(lp1268
S'and'
p1269
aS'plain'
p1270
aaa(lp1271
g1267
a(lp1272
S'and'
p1273
aS'plane'
p1274
aaa(lp1275
S'LISBETHOh'
p1276
a(lp1277
aa(lp1278
g1276
a(lp1279
S'maybe'
p1280
aS'this'
p1281
aS'is'
p1282
aS'it'
p1283
aaa(lp1284
S'LEANNEUm'
p1285
a(lp1286
aa(lp1287
g1285
a(lp1288
g15
aS'that'
p1289
aS'thought'
p1290
ag15
aaa(lp1291
g1285
a(lp1292
S'whereupon'
p1293
aaa(lp1294
g1285
a(lp1295
S'you'
p1296
aaa(lp1297
g1285
a(lp1298
S'like'
p1299
aaa(lp1300
g1285
a(lp1301
S'develop'
p1302
aS'guilt'
p1303
aaa(lp1304
S'LAURA'
p1305
a(lp1306
S'Well'
p1307
ag50
aS'think'
p1308
aS'what'
p1309
aS'Jennifer'
p1310
aS'said'
p1311
aS'is'
p1312
aS'correct'
p1313
aaa(lp1314
g1305
a(lp1315
S'How'
p1316
aS'do'
p1317
aS'you'
p1318
aS'separate'
p1319
aS'responsibility'
p1320
aS'from'
p1321
aS'guilt'
p1322
aaa(lp1323
S'BILL'
p1324
a(lp1325
S'Well'
p1326
aS'if'
p1327
aS'you'
p1328
aS'have'
p1329
aS'no'
p1330
aS'feeling'
p1331
aS'of'
p1332
aS'responsibility'
p1333
aaa(lp1334
g1324
a(lp1335
S'no'
p1336
aS'amount'
p1337
aS'of'
p1338
aS'guilt'
p1339
aS'will'
p1340
aS'appear'
p1341
aS'in'
p1342
aS'your'
p1343
aS'head'
p1344
aaa(lp1345
S'LEANNEExactly'
p1346
a(lp1347
aa(lp1348
S'LISBETH'
p1349
a(lp1350
S'Guilt'
p1351
aaa(lp1352
g1349
a(lp1353
S'in'
p1354
aS'in'
p1355
aS'fact'
p1356
aaa(lp1357
g1349
a(lp1358
S'the'
p1359
aS'distinction'
p1360
aS'between'
p1361
aS'guilt'
p1362
aS'and'
p1363
aS'responsibility'
p1364
aS'is'
p1365
aaa(lp1366
g1349
a(lp1367
S'you'
p1368
aS'must'
p1369
aS'feel'
p1370
aS'that'
p1371
aS'you'
p1372
aS'have'
p1373
aS'responsibility'
p1374
aaa(lp1375
g1349
a(lp1376
S'that'
p1377
aS'you'
p1378
aS'have'
p1379
aS'failed'
p1380
aaa(lp1381
S'BILLIn'
p1382
a(lp1383
S'order'
p1384
aS'to'
p1385
aS'feel'
p1386
aS'guilt'
p1387
aaa(lp1388
S'LISBETHthen'
p1389
a(lp1390
S'you'
p1391
aS'have'
p1392
aaa(lp1393
S'XX'
p1394
a(lp1395
g50
aS'agree'
p1396
ag15
aaa(lp1397
S'BILLIts'
p1398
a(lp1399
g76
aS'little'
p1400
aS'bit'
p1401
aS'like'
p1402
aS'sin'
p1403
aS'and'
p1404
aS'confession'
p1405
aaa(lp1406
S'LISBETHguilt'
p1407
a(lp1408
aa(lp1409
S'LEANNEYou'
p1410
a(lp1411
S'have'
p1412
aS'guilt'
p1413
aaa(lp1414
S'JENNNo'
p1415
a(lp1416
S'but'
p1417
aS'then'
p1418
aaa(lp1419
g1415
a(lp1420
S'somebody'
p1421
aaa(lp1422
g1415
a(lp1423
S'but'
p1424
aaa(lp1425
g1415
a(lp1426
S'but'
p1427
aS'thats'
p1428
aaa(lp1429
S'BILLMhm'
p1430
a(lp1431
aa(lp1432
S'LAURAMhm'
p1433
a(lp1434
aa(lp1435
S'LISBETHCant'
p1436
a(lp1437
S'have'
p1438
aS'one'
p1439
aS'without'
p1440
aS'the'
p1441
aS'other'
p1442
aaa(lp1443
S'JENNthats'
p1444
a(lp1445
S'exactly'
p1446
aaa(lp1447
g1444
a(lp1448
S'thats'
p1449
aS'exactly'
p1450
aS'right'
p1451
aaa(lp1452
S'LEANNEThis'
p1453
a(lp1454
S'thing'
p1455
aS'is'
p1456
aS'leaking'
p1457
aaa(lp1458
S'JENNThere'
p1459
a(lp1460
S'can'
p1461
aS'be'
p1462
aS'somebody'
p1463
aS'who'
p1464
aS'makes'
p1465
aS'you'
p1466
aS'feel'
p1467
aS'like'
p1468
aS'you'
p1469
aS'have'
p1470
ag76
aS'responsibility'
p1471
aaa(lp1472
S'LEANNELiz'
p1473
a(lp1474
aa(lp1475
g1473
a(lp1476
S'this'
p1477
aS'is'
p1478
ag15
aS'moving'
p1479
ag15
aaa(lp1480
S'JENN'
p1481
a(lp1482
S'In'
p1483
ag76
aS'case'
p1484
aaa(lp1485
g1481
a(lp1486
S'when'
p1487
aS'that'
p1488
aS'is'
p1489
aS'not'
p1490
aS'necessarily'
p1491
aS'clear'
p1492
aaa(lp1493
S'LISBETHF'
p1494
a(lp1495
S'Ah'
p1496
aS'F'
p1497
aaa(lp1498
g1494
a(lp1499
S'So'
p1500
aS'guilt'
p1501
aS'is'
p1502
aS'not'
p1503
aS'the'
p1504
aS'issue'
p1505
aaa(lp1506
S'LAURAAh'
p1507
a(lp1508
aa(lp1509
S'LISBETHthe'
p1510
a(lp1511
S'issue'
p1512
aS'is'
p1513
ag76
aS'denial'
p1514
aS'of'
p1515
aS'responsibility'
p1516
aaa(lp1517
S'JENNNo'
p1518
a(lp1519
S'no'
p1520
aS'no'
p1521
aaa(lp1522
g1518
a(lp1523
S'no'
p1524
aaa(lp1525
g1518
a(lp1526
S'you'
p1527
aS'totally'
p1528
aS'turned'
p1529
aS'what'
p1530
ag50
aS'said'
p1531
aS'around'
p1532
aaa(lp1533
S'LISBETHP'
p1534
a(lp1535
S'XXX'
p1536
ag15
aS'where'
p1537
ag50
aS'set'
p1538
aS'those'
p1539
aS'XP'
p1540
aaa(lp1541
S'JENNTheres'
p1542
a(lp1543
S'an'
p1544
aS'ac'
p1545
aaa(lp1546
S'RICHARD'
p1547
a(lp1548
aa(lp1549
S'JENNagent'
p1550
a(lp1551
S'there'
p1552
aaa(lp1553
g1550
a(lp1554
S'who'
p1555
aS'is'
p1556
aS'making'
p1557
aS'you'
p1558
aS'feel'
p1559
aS'responsible'
p1560
aaa(lp1561
g1550
a(lp1562
S'for'
p1563
aS'something'
p1564
aS'that'
p1565
aS'you'
p1566
aS'are'
p1567
aS'not'
p1568
aS'responsible'
p1569
aS'for'
p1570
aaa(lp1571
S'BILLX'
p1572
a(lp1573
S'Well'
p1574
aS'how'
p1575
aS'could'
p1576
ag15
aaa(lp1577
S'LAURAThen'
p1578
a(lp1579
S'you'
p1580
aS'dont'
p1581
aaa(lp1582
S'LISBETH'
p1583
a(lp1584
S'Responsibility'
p1585
aS'is'
p1586
aS'not'
p1587
aaa(lp1588
S'LEANNEXXX'
p1589
a(lp1590
S'to'
p1591
aS'how'
p1592
aS'you'
p1593
aS'know'
p1594
aS'youre'
p1595
aS'responsible'
p1596
aaa(lp1597
S'LISBETH'
p1598
a(lp1599
aa(lp1600
g1598
a(lp1601
S'is'
p1602
aS'not'
p1603
aS'an'
p1604
aS'objective'
p1605
aS'phenomena'
p1606
aaa(lp1607
g1598
a(lp1608
S'Jennifer'
p1609
aaa(lp1610
S'JENNIt'
p1611
a(lp1612
S'is'
p1613
aS'often'
p1614
aS'when'
p1615
aS'they'
p1616
aS'have'
p1617
aS'been'
p1618
aS'defined'
p1619
aaa(lp1620
S'LISBETHUnless'
p1621
a(lp1622
S'youve'
p1623
aS'signed'
p1624
ag76
aS'contract'
p1625
aaa(lp1626
S'JENN'
p1627
a(lp1628
S'No'
p1629
aS'when'
p1630
aS'there'
p1631
aS'have'
p1632
aS'been'
p1633
aS'defined'
p1634
aS'responsibility'
p1635
aaa(lp1636
S'BILL'
p1637
a(lp1638
S'Right'
p1639
aaa(lp1640
g1637
a(lp1641
S'For'
p1642
aS'exam'
p1643
aaa(lp1644
S'LISBETHOkay'
p1645
a(lp1646
aa(lp1647
g1645
a(lp1648
S'In'
p1649
aS'most'
p1650
aS'human'
p1651
aS'relationships'
p1652
aaa(lp1653
g1645
a(lp1654
S'there'
p1655
aS'are'
p1656
aS'no'
p1657
aaa(lp1658
g1645
a(lp1659
S'defined'
p1660
aaa(lp1661
g1645
a(lp1662
S'written'
p1663
aS'in'
p1664
aS'in'
p1665
aS'in'
p1666
aaa(lp1667
S'JENNMonogamy'
p1668
a(lp1669
S'is'
p1670
ag76
aS'good'
p1671
aS'example'
p1672
aaa(lp1673
S'RICHARD'
p1674
a(lp1675
aa(lp1676
S'JENNIn'
p1677
a(lp1678
S'uh'
p1679
aaa(lp1680
S'BILLWhat'
p1681
a(lp1682
S'what'
p1683
aS'what'
p1684
aS'are'
p1685
aS'we'
p1686
aS'talking'
p1687
aS'about'
p1688
aS'now'
p1689
aaa(lp1690
S'RICHARD'
p1691
a(lp1692
aa(lp1693
S'JENNNo'
p1694
a(lp1695
aa(lp1696
S'BILLMonogamy'
p1697
a(lp1698
aa(lp1699
S'JENNIm'
p1700
a(lp1701
S'just'
p1702
aS'talking'
p1703
aS'about'
p1704
aaa(lp1705
S'BILLWhy'
p1706
a(lp1707
aa(lp1708
S'JENNIm'
p1709
a(lp1710
S'trying'
p1711
aS'to'
p1712
aS'think'
p1713
aS'about'
p1714
aS'family'
p1715
aaa(lp1716
S'LAURA'
p1717
a(lp1718
aa(lp1719
S'BILLTrying'
p1720
a(lp1721
S'to'
p1722
aS'make'
p1723
aS'me'
p1724
aS'feel'
p1725
aS'guilty'
p1726
aaa(lp1727
S'JENNsituations'
p1728
a(lp1729
aa(lp1730
S'RICHARD'
p1731
a(lp1732
aa(lp1733
S'LAURA'
p1734
a(lp1735
aa(lp1736
S'BILL'
p1737
a(lp1738
aa(lp1739
S'JENNIm'
p1740
a(lp1741
S'tro'
p1742
aS'talking'
p1743
aS'about'
p1744
aS'family'
p1745
aS'situations'
p1746
aaa(lp1747
S'LEANNE'
p1748
a(lp1749
aa(lp1750
S'JENNIm'
p1751
a(lp1752
S'talking'
p1753
aS'about'
p1754
aS'like'
p1755
aS'set'
p1756
aaa(lp1757
g1751
a(lp1758
S'Cleaning'
p1759
aS'up'
p1760
aS'after'
p1761
aS'yourself'
p1762
aaa(lp1763
g1751
a(lp1764
S'Or'
p1765
aS'doing'
p1766
aS'things'
p1767
aaa(lp1768
g1751
a(lp1769
S'that'
p1770
aS'you'
p1771
aS'have'
p1772
aS'clearly'
p1773
aS'defined'
p1774
aaa(lp1775
g1751
a(lp1776
S'as'
p1777
aS'rules'
p1778
aS'in'
p1779
aS'this'
p1780
aS'house'
p1781
aaa(lp1782
S'LISBETHThat'
p1783
a(lp1784
S'is'
p1785
aS'correct'
p1786
aaa(lp1787
S'JENNas'
p1788
a(lp1789
S'your'
p1790
aS'responsibility'
p1791
aaa(lp1792
S'LISBETHVOX'
p1793
a(lp1794
S'Oh'
p1795
aS'excuse'
p1796
aS'me'
p1797
aS'VOX'
p1798
aaa(lp1799
S'LAURA'
p1800
a(lp1801
S'Is'
p1802
aS'that'
p1803
aS'bad'
p1804
aaa(lp1805
S'JENNAs'
p1806
a(lp1807
aa(lp1808
S'LISBETHWhose'
p1809
a(lp1810
S'responsibility'
p1811
aaa(lp1812
S'JENNAs'
p1813
a(lp1814
aa(lp1815
g1813
a(lp1816
S'No'
p1817
aS'no'
p1818
aaa(lp1819
g1813
a(lp1820
S'As'
p1821
aS'your'
p1822
aaa(lp1823
g1813
a(lp1824
S'our'
p1825
aaa(lp1826
S'RICHARDWait'
p1827
a(lp1828
g50
aS'want'
p1829
aS'to'
p1830
aS'go'
p1831
aS'back'
p1832
aS'to'
p1833
aS'this'
p1834
aS'monogamy'
p1835
aS'thing'
p1836
aaa(lp1837
S'JENNThe'
p1838
a(lp1839
S'individual'
p1840
aS'person'
p1841
aaa(lp1842
S'LAURA'
p1843
a(lp1844
aa(lp1845
S'RICHARDWhat'
p1846
a(lp1847
S'is'
p1848
aaa(lp1849
S'BILL'
p1850
a(lp1851
aa(lp1852
S'RICHARDWhat'
p1853
a(lp1854
S'is'
p1855
aS'that'
p1856
aaa(lp1857
S'LEANNE'
p1858
a(lp1859
aa(lp1860
S'MANY'
p1861
a(lp1862
aa(lp1863
S'JENNNo'
p1864
a(lp1865
aa(lp1866
g1864
a(lp1867
S'Im'
p1868
aS'just'
p1869
aS'trying'
p1870
aaa(lp1871
g1864
a(lp1872
g50
aS'was'
p1873
aS'just'
p1874
aS'trying'
p1875
aS'to'
p1876
aS'think'
p1877
aS'of'
p1878
aS'examples'
p1879
aaa(lp1880
g1864
a(lp1881
S'of'
p1882
aS'what'
p1883
aS'are'
p1884
aS'assumed'
p1885
aaa(lp1886
S'LEANNE'
p1887
a(lp1888
aa(lp1889
S'JENNbut'
p1890
a(lp1891
S'never'
p1892
aaa(lp1893
g1890
a(lp1894
S'assumed'
p1895
aaa(lp1896
g1890
a(lp1897
S'but'
p1898
aS'never'
p1899
aS'delineated'
p1900
aaa(lp1901
S'LEANNEGood'
p1902
a(lp1903
S'question'
p1904
aaa(lp1905
S'LISBETHAnd'
p1906
a(lp1907
S'therefore'
p1908
aaa(lp1909
g1906
a(lp1910
S'if'
p1911
aS'its'
p1912
aS'assumed'
p1913
aS'and'
p1914
aS'not'
p1915
aS'delineated'
p1916
aaa(lp1917
g1906
a(lp1918
S'does'
p1919
aS'responsibility'
p1920
aS'exist'
p1921
aS'or'
p1922
aS'not'
p1923
aaa(lp1924
S'JENN'
p1925
a(lp1926
S'It'
p1927
aS'does'
p1928
aaa(lp1929
S'LISBETH'
p1930
a(lp1931
S'Ah'
p1932
aaa(lp1933
g1930
a(lp1934
S'Good'
p1935
aaa(lp1936
g1930
a(lp1937
S'So'
p1938
aS'we'
p1939
aS'have'
p1940
aaa(lp1941
S'LAURAWait'
p1942
a(lp1943
S'wait'
p1944
aaa(lp1945
g1942
a(lp1946
S'Im'
p1947
aS'losing'
p1948
aaa(lp1949
S'LISBETHExcept'
p1950
a(lp1951
aa(lp1952
S'LAURAI'
p1953
a(lp1954
aa(lp1955
S'RICHARD'
p1956
a(lp1957
aa(lp1958
S'LEANNEResponsibility'
p1959
a(lp1960
aa(lp1961
S'LAURAAssumed'
p1962
a(lp1963
aa(lp1964
S'RICHARDYou'
p1965
a(lp1966
S'lost'
p1967
aS'half'
p1968
aS'of'
p1969
aS'us'
p1970
aS'back'
p1971
aS'XXX'
p1972
aaa(lp1973
S'MARY'
p1974
a(lp1975
aa(lp1976
S'LEANNEResponsibility'
p1977
a(lp1978
S'can'
p1979
aS'be'
p1980
aS'either'
p1981
aS'assumed'
p1982
aS'or'
p1983
aS'asked'
p1984
aaa(lp1985
g1977
a(lp1986
S'like'
p1987
aaa(lp1988
S'LAURAOr'
p1989
a(lp1990
S'explicit'
p1991
aaa(lp1992
S'LEANNEcertain'
p1993
a(lp1994
aa(lp1995
S'LISBETHThere'
p1996
a(lp1997
S'seem'
p1998
aS'to'
p1999
aS'be'
p2000
aS'three'
p2001
aS'categories'
p2002
aaa(lp2003
g1996
a(lp2004
S'Theres'
p2005
aS'no'
p2006
aS'responsibility'
p2007
aaa(lp2008
S'LEANNE'
p2009
a(lp2010
S'Assumed'
p2011
aS'XXX'
p2012
aaa(lp2013
S'LISBETHthere'
p2014
a(lp2015
S'is'
p2016
aS'responsibility'
p2017
aaa(lp2018
g2014
a(lp2019
S'but'
p2020
aS'its'
p2021
aS'inarticulate'
p2022
aaa(lp2023
g2014
a(lp2024
S'Or'
p2025
aS'its'
p2026
aS'articulate'
p2027
aaa(lp2028
S'JENNThats'
p2029
a(lp2030
S'right'
p2031
aaa(lp2032
S'LISBETHTwo'
p2033
a(lp2034
S'categories'
p2035
aaa(lp2036
g2033
a(lp2037
S'Okay'
p2038
aaa(lp2039
S'JENNRight'
p2040
a(lp2041
aa(lp2042
S'LISBETHSo'
p2043
a(lp2044
S'now'
p2045
aS'we'
p2046
aS'got'
p2047
aaa(lp2048
g2043
a(lp2049
S'were'
p2050
aS'all'
p2051
aS'together'
p2052
aS'now'
p2053
aaa(lp2054
S'JENNAnd'
p2055
a(lp2056
S'so'
p2057
aS'when'
p2058
aaa(lp2059
g2055
a(lp2060
S'When'
p2061
aS'there'
p2062
aS'is'
p2063
aaa(lp2064
S'LEANNESo'
p2065
a(lp2066
S'wait'
p2067
aaa(lp2068
g2065
a(lp2069
S'can'
p2070
aS'you'
p2071
aS'have'
p2072
aS'guilt'
p2073
aS'for'
p2074
aS'all'
p2075
aS'three'
p2076
aS'forms'
p2077
aS'of'
p2078
aS'responsibility'
p2079
aaa(lp2080
S'LISBETHShould'
p2081
a(lp2082
g50
aS'get'
p2083
ag76
aS'blackboard'
p2084
aaa(lp2085
S'RICHARDNo'
p2086
a(lp2087
aa(lp2088
S'LAURA'
p2089
a(lp2090
aa(lp2091
S'JENNNo'
p2092
a(lp2093
aa(lp2094
g2092
a(lp2095
S'and'
p2096
aS'Im'
p2097
aS'saying'
p2098
aaa(lp2099
g2092
a(lp2100
S'and'
p2101
aS'she'
p2102
aS'said'
p2103
aS'that'
p2104
aaa(lp2105
S'RICHARDIm'
p2106
a(lp2107
S'still'
p2108
aS'confused'
p2109
aaa(lp2110
S'JENNshes'
p2111
a(lp2112
S'saying'
p2113
aaa(lp2114
S'LAURA'
p2115
a(lp2116
aa(lp2117
S'JENNWere'
p2118
a(lp2119
S'not'
p2120
aS'talking'
p2121
aS'about'
p2122
aS'guilt'
p2123
aaa(lp2124
S'LEANNEHes'
p2125
a(lp2126
S'still'
p2127
aS'confused'
p2128
aS'about'
p2129
aS'monogamy'
p2130
aaa(lp2131
S'RICHARDIm'
p2132
a(lp2133
S'sorry'
p2134
aaa(lp2135
g2132
a(lp2136
S'Im'
p2137
aS'dumb'
p2138
aaa(lp2139
S'LAURA'
p2140
a(lp2141
aa(lp2142
S'MARY'
p2143
a(lp2144
aa(lp2145
S'DONX'
p2146
a(lp2147
S'Im'
p2148
aS'sorry'
p2149
ag15
aaa(lp2150
S'JENNWere'
p2151
a(lp2152
S'were'
p2153
aS'not'
p2154
aS'talking'
p2155
aS'about'
p2156
aaa(lp2157
g2151
a(lp2158
S'She'
p2159
aS'says'
p2160
aaa(lp2161
g2151
a(lp2162
S'g'
p2163
aS'oh'
p2164
aaa(lp2165
g2151
a(lp2166
S'were'
p2167
aS'not'
p2168
aS'talking'
p2169
aS'about'
p2170
aS'guilt'
p2171
aaa(lp2172
g2151
a(lp2173
S'were'
p2174
aS'talking'
p2175
aS'about'
p2176
aS'responsibility'
p2177
aaa(lp2178
g2151
a(lp2179
S'and'
p2180
aS'denial'
p2181
aS'of'
p2182
aS'responsibility'
p2183
aaa(lp2184
g2151
a(lp2185
S'and'
p2186
ag50
aS'said'
p2187
aS'no'
p2188
aaa(lp2189
g2151
a(lp2190
S'Were'
p2191
aS'talking'
p2192
aS'about'
p2193
aS'somebody'
p2194
aS'who'
p2195
aS'makes'
p2196
aS'you'
p2197
aS'feel'
p2198
aS'responsible'
p2199
aaa(lp2200
g2151
a(lp2201
S'for'
p2202
aS'something'
p2203
aS'that'
p2204
aS'is'
p2205
aS'not'
p2206
aS'necessarily'
p2207
aS'always'
p2208
aS'going'
p2209
aS'on'
p2210
aaa(lp2211
S'LISBETHAnd'
p2212
a(lp2213
g50
aS'said'
p2214
aS'to'
p2215
aS'her'
p2216
aaa(lp2217
g2212
a(lp2218
S'how'
p2219
aS'do'
p2220
aS'you'
p2221
aS'know'
p2222
aaa(lp2223
S'LAURAWhat'
p2224
a(lp2225
S'was'
p2226
aS'this'
p2227
aS'about'
p2228
aaa(lp2229
S'LISBETH'
p2230
a(lp2231
S'what'
p2232
aS'your'
p2233
aS'respons'
p2234
aaa(lp2235
g2230
a(lp2236
S'Her'
p2237
aS'statement'
p2238
aS'about'
p2239
aaa(lp2240
g2230
a(lp2241
S'well'
p2242
aS'walk'
p2243
aS'back'
p2244
aS'and'
p2245
aaa(lp2246
S'JENNWell'
p2247
a(lp2248
g50
aS'came'
p2249
aS'over'
p2250
aS'here'
p2251
aaa(lp2252
S'LAURA'
p2253
a(lp2254
aa(lp2255
S'JENNand'
p2256
a(lp2257
S'she'
p2258
aaa(lp2259
g2256
a(lp2260
g50
aS'said'
p2261
aaa(lp2262
g2256
a(lp2263
g50
aS'looked'
p2264
aS'at'
p2265
aS'her'
p2266
aS'chocolate'
p2267
aaa(lp2268
S'LISBETHX'
p2269
a(lp2270
g50
aS'admit'
p2271
aaa(lp2272
g2269
a(lp2273
g50
aS'was'
p2274
aS'making'
p2275
ag15
aS'XXX'
p2276
aaa(lp2277
S'LEANNE'
p2278
a(lp2279
S'We'
p2280
aS'have'
p2281
aS'to'
p2282
aS'go'
p2283
aS'back'
p2284
aS'to'
p2285
aS'where'
p2286
aS'they'
p2287
aS'were'
p2288
aaa(lp2289
S'JENN'
p2290
a(lp2291
g50
aS'looked'
p2292
aS'at'
p2293
aS'her'
p2294
aS'chocolate'
p2295
aaa(lp2296
S'LEANNEYou'
p2297
a(lp2298
S'cant'
p2299
aS'just'
p2300
aaa(lp2301
S'LAURAX'
p2302
a(lp2303
S'Back'
p2304
aS'to'
p2305
aS'the'
p2306
aS'setting'
p2307
ag15
aaa(lp2308
S'LISBETHX'
p2309
a(lp2310
g50
aS'bought'
p2311
aS'that'
p2312
aS'chocolate'
p2313
ag15
aaa(lp2314
S'JENNVOXAF'
p2315
a(lp2316
g50
aS'looked'
p2317
aS'at'
p2318
aS'her'
p2319
aS'chocolate'
p2320
aS'FA'
p2321
aaa(lp2322
S'LEANNEX'
p2323
a(lp2324
S'XX'
p2325
aaa(lp2326
S'JENNI'
p2327
a(lp2328
S'said'
p2329
aS'mm'
p2330
aaa(lp2331
g2327
a(lp2332
S'and'
p2333
aS'you'
p2334
aS'said'
p2335
aaa(lp2336
g2327
a(lp2337
S'you'
p2338
aS'cant'
p2339
aS'have'
p2340
aS'any'
p2341
aS'of'
p2342
aS'my'
p2343
aS'chocolate'
p2344
aaa(lp2345
S'LAURA'
p2346
a(lp2347
aa(lp2348
S'JENN'
p2349
a(lp2350
S'youve'
p2351
aS'got'
p2352
aS'to'
p2353
aS'be'
p2354
aS'nicer'
p2355
aS'to'
p2356
aS'me'
p2357
aaa(lp2358
g2349
a(lp2359
S'if'
p2360
aS'you'
p2361
aS'want'
p2362
aS'some'
p2363
aS'of'
p2364
aS'my'
p2365
aS'chocolate'
p2366
aS'VOX'
p2367
aaa(lp2368
S'LAURA'
p2369
a(lp2370
aa(lp2371
S'BILL'
p2372
a(lp2373
aa(lp2374
S'JENNAnd'
p2375
a(lp2376
S'then'
p2377
ag50
aS'said'
p2378
aaa(lp2379
g2375
a(lp2380
S'HI'
p2381
aS'what'
p2382
aaa(lp2383
g2375
a(lp2384
S'And'
p2385
ag50
aS'said'
p2386
aaa(lp2387
g2375
a(lp2388
S'what'
p2389
aS'am'
p2390
ag50
aS'not'
p2391
aS'nice'
p2392
aS'to'
p2393
aS'you'
p2394
aS'HI'
p2395
aS'about'
p2396
aaa(lp2397
S'LAURAThat'
p2398
a(lp2399
aa(lp2400
g2398
a(lp2401
S'Thats'
p2402
ag76
aaa(lp2403
S'DON'
p2404
a(lp2405
S'Did'
p2406
aS'sh'
p2407
aaa(lp2408
S'LAURAThats'
p2409
a(lp2410
g76
aS'statement'
p2411
aS'of'
p2412
aS'guilt'
p2413
aaa(lp2414
S'LEANNEA'
p2415
a(lp2416
S'way'
p2417
aS'to'
p2418
aS'XX'
p2419
ag15
ag15
aaa(lp2420
S'LAURAX'
p2421
a(lp2422
S'Responsibility'
p2423
ag15
aaa(lp2424
S'JENNThey'
p2425
a(lp2426
aa(lp2427
S'DON'
p2428
a(lp2429
aa(lp2430
S'LEANNEF'
p2431
a(lp2432
S'Dad'
p2433
aS'but'
p2434
aS'wait'
p2435
ag76
aS'second'
p2436
ag1497
aaa(lp2437
S'JENNI'
p2438
a(lp2439
aa(lp2440
S'DONYeah'
p2441
a(lp2442
aa(lp2443
S'JENNHIF'
p2444
a(lp2445
S'Well'
p2446
aS'thank'
p2447
aS'you'
p2448
aS'FHI'
p2449
aaa(lp2450
S'BILLNo'
p2451
a(lp2452
S'that'
p2453
aaa(lp2454
g2451
a(lp2455
S'youre'
p2456
aS'quite'
p2457
aS'right'
p2458
aS'Jennifer'
p2459
aaa(lp2460
S'JENN'
p2461
a(lp2462
aa(lp2463
g2461
a(lp2464
S'POUND'
p2465
aS'Kerchunk'
p2466
aS'POUND'
p2467
aaa(lp2468
S'DON'
p2469
a(lp2470
aa(lp2471
S'LAURA'
p2472
a(lp2473
aa(lp2474
S'BILLQuite'
p2475
a(lp2476
S'right'
p2477
aaa(lp2478
g2475
a(lp2479
S'its'
p2480
aS'like'
p2481
aS'when'
p2482
aS'my'
p2483
aS'father'
p2484
aS'used'
p2485
aS'to'
p2486
aS'say'
p2487
aaa(lp2488
S'LEANNE'
p2489
a(lp2490
aa(lp2491
S'BILL'
p2492
a(lp2493
S'youll'
p2494
aS'be'
p2495
aS'sorry'
p2496
aS'when'
p2497
aS'Im'
p2498
aS'dead'
p2499
aS'and'
p2500
aS'gone'
p2501
aaa(lp2502
S'JENN'
p2503
a(lp2504
S'Exactly'
p2505
aaa(lp2506
S'DONX'
p2507
a(lp2508
S'Please'
p2509
ag15
aaa(lp2510
S'LISBETHBut'
p2511
a(lp2512
S'do'
p2513
aS'you'
p2514
aS'n'
p2515
aS'dont'
p2516
aS'think'
p2517
aS'she'
p2518
aS'has'
p2519
ag76
aS'responsibility'
p2520
aS'to'
p2521
aS'be'
p2522
aS'good'
p2523
aS'to'
p2524
aS'me'
p2525
aaa(lp2526
S'JENNFuck'
p2527
a(lp2528
S'you'
p2529
aaa(lp2530
g2527
a(lp2531
S'But'
p2532
aaa(lp2533
S'BILL'
p2534
a(lp2535
S'No'
p2536
aaa(lp2537
S'LEANNEWait'
p2538
a(lp2539
g76
aS'minute'
p2540
aS'wait'
p2541
aS'wait'
p2542
aS'wait'
p2543
aaa(lp2544
S'BILLthe'
p2545
a(lp2546
S'implication'
p2547
aS'is'
p2548
aS'shes'
p2549
aS'not'
p2550
aaa(lp2551
S'LAURAOh'
p2552
a(lp2553
S'no'
p2554
aS'no'
p2555
aaa(lp2556
S'LEANNEWait'
p2557
a(lp2558
S'wait'
p2559
aS'wait'
p2560
aaa(lp2561
g2557
a(lp2562
S'whoa'
p2563
aS'whoa'
p2564
aS'whoa'
p2565
aaa(lp2566
g2557
a(lp2567
S'Wait'
p2568
ag76
aS'second'
p2569
aaa(lp2570
g2557
a(lp2571
S'Apropos'
p2572
aS'something'
p2573
aS'Jennifer'
p2574
aS'said'
p2575
aS'in'
p2576
aS'May'
p2577
aaa(lp2578
S'LISBETH'
p2579
a(lp2580
aa(lp2581
S'BILL'
p2582
a(lp2583
aa(lp2584
g2582
a(lp2585
S'The'
p2586
aS'implication'
p2587
aS'is'
p2588
aS'that'
p2589
aaa(lp2590
g2582
a(lp2591
S'shes'
p2592
aS'not'
p2593
aS'good'
p2594
aS'to'
p2595
aS'you'
p2596
aaa(lp2597
S'LISBETHThats'
p2598
a(lp2599
S'right'
p2600
aaa(lp2601
S'BILLbut'
p2602
a(lp2603
S'not'
p2604
aS'everybody'
p2605
aS'has'
p2606
aS'agreed'
p2607
aS'with'
p2608
aS'that'
p2609
aS'implication'
p2610
aaa(lp2611
S'LEANNEWait'
p2612
a(lp2613
S'Lisbeth'
p2614
aaa(lp2615
S'LISBETHyou'
p2616
a(lp2617
S'didnt'
p2618
aaa(lp2619
S'LEANNELisbeth'
p2620
a(lp2621
aa(lp2622
S'LISBETHYeah'
p2623
a(lp2624
S'but'
p2625
aS'you'
p2626
aS'were'
p2627
aS'not'
p2628
aS'in'
p2629
aS'the'
p2630
aS's'
p2631
aaa(lp2632
g2623
a(lp2633
S'in'
p2634
aS'the'
p2635
aaa(lp2636
S'JENN'
p2637
a(lp2638
aa(lp2639
S'LISBETHin'
p2640
a(lp2641
aa(lp2642
g2640
a(lp2643
S'Christmas'
p2644
aS'tree'
p2645
aS'shop'
p2646
aaa(lp2647
S'JENN'
p2648
a(lp2649
aa(lp2650
S'LEANNEWait'
p2651
a(lp2652
S'wait'
p2653
aS'wait'
p2654
aS'wait'
p2655
aS'wait'
p2656
aaa(lp2657
S'JENN'
p2658
a(lp2659
aa(lp2660
S'LISBETH'
p2661
a(lp2662
S'when'
p2663
aS'she'
p2664
aS'carried'
p2665
aS'on'
p2666
aaa(lp2667
S'DON'
p2668
a(lp2669
aa(lp2670
S'LEANNEWait'
p2671
a(lp2672
aa(lp2673
g2671
a(lp2674
S'no'
p2675
aS'Jenn'
p2676
aaa(lp2677
g2671
a(lp2678
S'sit'
p2679
aaa(lp2680
g2671
a(lp2681
S'XXXX'
p2682
ag15
aS'on'
p2683
aS'her'
p2684
aaa(lp2685
S'LISBETHabout'
p2686
a(lp2687
S'my'
p2688
aS'behavior'
p2689
aaa(lp2690
g2686
a(lp2691
S'at'
p2692
aS'the'
p2693
aS'checkout'
p2694
aS'counter'
p2695
aaa(lp2696
S'LEANNELisbeth'
p2697
a(lp2698
aa(lp2699
g2697
a(lp2700
S'apropos'
p2701
aS'something'
p2702
aS'Jennifer'
p2703
aS'said'
p2704
aS'in'
p2705
aaa(lp2706
S'BILLOh'
p2707
a(lp2708
aa(lp2709
g2707
a(lp2710
S'wait'
p2711
ag76
aS'min'
p2712
aaa(lp2713
g2707
a(lp2714
S'what'
p2715
aS'did'
p2716
aS'you'
p2717
aS'do'
p2718
aS'at'
p2719
aS'the'
p2720
aS'checkout'
p2721
aS'counter'
p2722
aaa(lp2723
S'LEANNEHi'
p2724
a(lp2725
S'Whoa'
p2726
aS'HI'
p2727
aaa(lp2728
g2724
a(lp2729
S'apropos'
p2730
aS'something'
p2731
aS'Jennifer'
p2732
aS'said'
p2733
aS'in'
p2734
aS'May'
p2735
aaa(lp2736
S'LAURAWell'
p2737
a(lp2738
S'wait'
p2739
aaa(lp2740
g2737
a(lp2741
S'You'
p2742
aS'know'
p2743
aS'Liz'
p2744
aaa(lp2745
S'DONMa'
p2746
a(lp2747
aa(lp2748
g2746
a(lp2749
S'we'
p2750
aS'have'
p2751
aS'to'
p2752
aS'hear'
p2753
aS'this'
p2754
aaa(lp2755
S'LEANNEHIF'
p2756
a(lp2757
S'Wait'
p2758
aS'wait'
p2759
ag15
ag50
aS'FHI'
p2760
aaa(lp2761
S'JENNXX'
p2762
a(lp2763
aa(lp2764
S'BILLF'
p2765
a(lp2766
S'Will'
p2767
aS'you'
p2768
aS'let'
p2769
aS'Leanne'
p2770
aS'finish'
p2771
ag1497
aaa(lp2772
S'JENNDid'
p2773
a(lp2774
g50
aS'XXX'
p2775
aaa(lp2776
S'LEANNEWait'
p2777
a(lp2778
aa(lp2779
g2777
a(lp2780
S'HI'
p2781
aS'time'
p2782
aS'HI'
p2783
aaa(lp2784
g2777
a(lp2785
S'HI'
p2786
aS'Can'
p2787
ag50
aS'say'
p2788
aS'something'
p2789
aS'HI'
p2790
aaa(lp2791
g2777
a(lp2792
S'Jennifer'
p2793
aS'and'
p2794
ag50
aS'and'
p2795
aS'Dana'
p2796
aS'had'
p2797
ag76
aS'huge'
p2798
aS'argument'
p2799
aS'in'
p2800
aS'May'
p2801
aaa(lp2802
g2777
a(lp2803
S'which'
p2804
aS'created'
p2805
ag76
aS'rift'
p2806
aS'for'
p2807
aS'about'
p2808
ag76
aS'day'
p2809
aaa(lp2810
g2777
a(lp2811
S'Which'
p2812
aS'was'
p2813
aS'b'
p2814
aS'concerning'
p2815
aS'you'
p2816
aS'and'
p2817
aS'grandma'
p2818
aaa(lp2819
S'JENN'
p2820
a(lp2821
S'No'
p2822
aS'not'
p2823
aS'in'
p2824
aS'May'
p2825
aaa(lp2826
g2820
a(lp2827
S'because'
p2828
ag50
aS'wasnt'
p2829
aS'here'
p2830
aS'in'
p2831
aS'May'
p2832
aaa(lp2833
S'LISBETHOh'
p2834
a(lp2835
aa(lp2836
g2834
a(lp2837
S'lets'
p2838
aS'not'
p2839
aS'start'
p2840
aaa(lp2841
S'LAURA'
p2842
a(lp2843
S'Mhm'
p2844
aaa(lp2845
S'LISBETHLets'
p2846
a(lp2847
S'not'
p2848
aS'start'
p2849
aaa(lp2850
S'JENN'
p2851
a(lp2852
S'What'
p2853
aaa(lp2854
g2851
a(lp2855
S'what'
p2856
aS'about'
p2857
aS'the'
p2858
aS'checkout'
p2859
aS'counter'
p2860
aS'then'
p2861
aaa(lp2862
S'LEANNEHI'
p2863
a(lp2864
S'But'
p2865
aS'thats'
p2866
aS'responsibility'
p2867
aS'HI'
p2868
aaa(lp2869
S'JENNYou'
p2870
a(lp2871
S'were'
p2872
aS'about'
p2873
aS'to'
p2874
aaa(lp2875
g2870
a(lp2876
S'you'
p2877
aS'were'
p2878
aS'about'
p2879
aS'to'
p2880
aS'correct'
p2881
aS'my'
p2882
aS'mother'
p2883
aaa(lp2884
S'LEANNESo'
p2885
a(lp2886
aa(lp2887
g2885
a(lp2888
S'so'
p2889
aaa(lp2890
S'JENNon'
p2891
a(lp2892
S'something'
p2893
aS'about'
p2894
aS'the'
p2895
aS'checkout'
p2896
aaa(lp2897
S'LAURAWell'
p2898
a(lp2899
g50
aaa(lp2900
g2898
a(lp2901
g50
aS'think'
p2902
aS'there'
p2903
aS'is'
p2904
ag76
aaa(lp2905
g2898
a(lp2906
S'Uh'
p2907
aS'you'
p2908
aS'see'
p2909
aaa(lp2910
S'DONWhat'
p2911
a(lp2912
S'happened'
p2913
aS'at'
p2914
aS'the'
p2915
aS'checkout'
p2916
aS'counter'
p2917
aaa(lp2918
S'BILLWhat'
p2919
a(lp2920
S'hap'
p2921
aaa(lp2922
g2919
a(lp2923
S'We'
p2924
aS'wanna'
p2925
aS'know'
p2926
aaa(lp2927
S'JENNMom'
p2928
a(lp2929
S'says'
p2930
ag50
aS'pounced'
p2931
aS'on'
p2932
aS'her'
p2933
aaa(lp2934
S'LEANNE'
p2935
a(lp2936
aa(lp2937
S'RICHARD'
p2938
a(lp2939
aa(lp2940
S'JENNAnd'
p2941
a(lp2942
S'all'
p2943
ag50
aS'did'
p2944
aaa(lp2945
g2941
a(lp2946
S'this'
p2947
aS'is'
p2948
aS'what'
p2949
ag50
aS'did'
p2950
aaa(lp2951
S'LAURAI'
p2952
a(lp2953
S'dont'
p2954
aS'know'
p2955
aS'what'
p2956
aS'happened'
p2957
aaa(lp2958
S'JENNI'
p2959
a(lp2960
S'went'
p2961
aS'Mom'
p2962
aaa(lp2963
S'LISBETH'
p2964
a(lp2965
S'Calm'
p2966
aS'down'
p2967
aaa(lp2968
g2964
a(lp2969
S'And'
p2970
aS'then'
p2971
aaa(lp2972
S'JENNNo'
p2973
a(lp2974
aa(lp2975
g2973
a(lp2976
g50
aS'didnt'
p2977
aS'say'
p2978
aS'it'
p2979
aS'loud'
p2980
aaa(lp2981
g2973
a(lp2982
g50
aS'just'
p2983
aS'went'
p2984
aS'like'
p2985
aS'this'
p2986
aaa(lp2987
g2973
a(lp2988
g50
aS'said'
p2989
aaa(lp2990
S'LISBETHY'
p2991
a(lp2992
aa(lp2993
g2991
a(lp2994
S'sh'
p2995
aS'VOX'
p2996
aS'such'
p2997
ag76
aS'lie'
p2998
aS'VOX'
p2999
aaa(lp3000
S'LEANNE'
p3001
a(lp3002
aa(lp3003
S'LAURA'
p3004
a(lp3005
aa(lp3006
S'JENN'
p3007
a(lp3008
S'Did'
p3009
ag50
aS'pounce'
p3010
aaa(lp3011
S'LISBETHYou'
p3012
a(lp3013
S'said'
p3014
aaa(lp3015
g3012
a(lp3016
S'Such'
p3017
ag76
aaa(lp3018
S'LAURA'
p3019
a(lp3020
g50
aS'was'
p3021
aaa(lp3022
g3019
a(lp3023
g50
aS'didnt'
p3024
aS'see'
p3025
aS'what'
p3026
aS'happened'
p3027
aS'in'
p3028
aS'the'
p3029
aS'checkout'
p3030
aS'counter'
p3031
aaa(lp3032
S'LEANNEHI'
p3033
a(lp3034
S'What'
p3035
aS'HI'
p3036
aaa(lp3037
S'JENNHI'
p3038
a(lp3039
g50
aS'do'
p3040
aS'not'
p3041
aS'HI'
p3042
aS'pounce'
p3043
aS'on'
p3044
aS'you'
p3045
aaa(lp3046
S'LAURAI'
p3047
a(lp3048
S'was'
p3049
aS'gonna'
p3050
aS'offer'
p3051
aS'an'
p3052
aS'opinion'
p3053
aS'about'
p3054
aS'the'
p3055
aS'd'
p3056
aaa(lp3057
g3047
a(lp3058
S'the'
p3059
ag3056
aaa(lp3060
g3047
a(lp3061
S'the'
p3062
aS'disagreement'
p3063
aS'there'
p3064
aaa(lp3065
g3047
a(lp3066
S'About'
p3067
aS'the'
p3068
aS'uh'
p3069
aaa(lp3070
S'BILLWhat'
p3071
a(lp3072
S'was'
p3073
aS'she'
p3074
aS'doing'
p3075
aS'there'
p3076
aS'why'
p3077
aS'you'
p3078
aaa(lp3079
S'LAURAthe'
p3080
a(lp3081
S'trust'
p3082
aaa(lp3083
S'JENNThe'
p3084
a(lp3085
S'trust'
p3086
aS'involved'
p3087
aaa(lp3088
g3084
a(lp3089
S'Do'
p3090
aS'you'
p3091
aS'think'
p3092
aS'thats'
p3093
aS'true'
p3094
ag15
aS'any'
p3095
ag15
aaa(lp3096
S'LAURAYeah'
p3097
a(lp3098
aa(lp3099
g3097
a(lp3100
S'Yeah'
p3101
ag50
aS'do'
p3102
aS'think'
p3103
aS'thats'
p3104
aS'true'
p3105
aaa(lp3106
S'LISBETHBut'
p3107
a(lp3108
S'it'
p3109
aS'was'
p3110
aS'not'
p3111
aS'about'
p3112
aS'Jennifer'
p3113
aaa(lp3114
g3107
a(lp3115
S'it'
p3116
aS'was'
p3117
aS'about'
p3118
aS'the'
p3119
aS'lady'
p3120
aaa(lp3121
S'LAURARight'
p3122
a(lp3123
aa(lp3124
g3122
a(lp3125
S'But'
p3126
ag50
aaa(lp3127
g3122
a(lp3128
g50
aS'happened'
p3129
aS'to'
p3130
aS'agree'
p3131
aS'with'
p3132
aS'Jennifer'
p3133
aaa(lp3134
g3122
a(lp3135
S'Because'
p3136
aS'it'
p3137
aS'reminds'
p3138
aS'me'
p3139
aS'of'
p3140
aS'all'
p3141
aS'these'
p3142
aS'old'
p3143
aS'people'
p3144
aS'in'
p3145
aS'the'
p3146
aS'supermarket'
p3147
aaa(lp3148
g3122
a(lp3149
S'who'
p3150
aS'are'
p3151
aS'standing'
p3152
aS'there'
p3153
aS'going'
p3154
aaa(lp3155
g3122
a(lp3156
S'are'
p3157
aS'you'
p3158
aS'sure'
p3159
aS'thats'
p3160
aS'twenty'
p3161
aS'one'
p3162
aS'cents'
p3163
aaa(lp3164
g3122
a(lp3165
S'or'
p3166
aS'twenty'
p3167
aS'two'
p3168
aS'cents'
p3169
aaa(lp3170
g3122
a(lp3171
S'Its'
p3172
aS'programmed'
p3173
aS'into'
p3174
aS'the'
p3175
aS'computer'
p3176
aaa(lp3177
S'LISBETHI'
p3178
a(lp3179
aa(lp3180
S'DON'
p3181
a(lp3182
aa(lp3183
S'LISBETHMRC'
p3184
a(lp3185
S'the'
p3186
aS'lady'
p3187
aS'specifically'
p3188
aS'said'
p3189
aaa(lp3190
g3184
a(lp3191
S'to'
p3192
aS'hold'
p3193
aS'off'
p3194
aS'with'
p3195
aS'putting'
p3196
aS'things'
p3197
aS'on'
p3198
aS'the'
p3199
aS'counter'
p3200
aS'MRC'
p3201
aaa(lp3202
S'JENNMom'
p3203
a(lp3204
S'was'
p3205
aS'getting'
p3206
ag76
aS'h'
p3207
aaa(lp3208
g3203
a(lp3209
S'was'
p3210
aS'starting'
p3211
aS'to'
p3212
aS'hyperventilate'
p3213
aaa(lp3214
S'RICHARD'
p3215
a(lp3216
aa(lp3217
S'JENNat'
p3218
a(lp3219
S'the'
p3220
aS'checkout'
p3221
ag15
aS'counter'
p3222
ag15
aaa(lp3223
S'LAURA'
p3224
a(lp3225
aa(lp3226
S'LISBETHThere'
p3227
a(lp3228
S'were'
p3229
aS'so'
p3230
aS'many'
p3231
aS'objects'
p3232
aS'going'
p3233
aS'on'
p3234
aS'the'
p3235
aS'counter'
p3236
aaa(lp3237
S'JENNVOX'
p3238
a(lp3239
S'It'
p3240
aS'was'
p3241
aS'making'
p3242
aS'her'
p3243
aS'crazy'
p3244
aS'VOX'
p3245
aaa(lp3246
S'DON'
p3247
a(lp3248
aa(lp3249
S'JENN'
p3250
a(lp3251
S'Just'
p3252
aS'so'
p3253
aS'many'
p3254
aS'objects'
p3255
aaa(lp3256
S'LEANNE'
p3257
a(lp3258
aa(lp3259
S'BILL'
p3260
a(lp3261
aa(lp3262
S'LISBETHAnd'
p3263
a(lp3264
S'it'
p3265
aS'was'
p3266
aS'not'
p3267
aS'clear'
p3268
aaa(lp3269
S'DON'
p3270
a(lp3271
aa(lp3272
S'LEANNE'
p3273
a(lp3274
aa(lp3275
S'LISBETH'
p3276
a(lp3277
S'for'
p3278
ag76
aS'little'
p3279
aaa(lp3280
S'LEANNE'
p3281
a(lp3282
aa(lp3283
S'LISBETHfew'
p3284
a(lp3285
S'minutes'
p3286
aS'there'
p3287
aaa(lp3288
g3284
a(lp3289
S'what'
p3290
aS'was'
p3291
aS'already'
p3292
aS'rung'
p3293
aS'in'
p3294
aaa(lp3295
g3284
a(lp3296
S'MRC'
p3297
aS'and'
p3298
aS'what'
p3299
aS'was'
p3300
aS'not'
p3301
aS'rung'
p3302
aS'in'
p3303
aS'MRC'
p3304
aaa(lp3305
g3284
a(lp3306
S'And'
p3307
ag50
aS'did'
p3308
aS'not'
p3309
aS'want'
p3310
aS'the'
p3311
aS'lady'
p3312
aS'to'
p3313
aS'get'
p3314
aS'confused'
p3315
aaa(lp3316
g3284
a(lp3317
S'and'
p3318
aS'ring'
p3319
aS'in'
p3320
aS'items'
p3321
aS'more'
p3322
aS'than'
p3323
aS'once'
p3324
aaa(lp3325
S'JENNSo'
p3326
a(lp3327
S'she'
p3328
aaa(lp3329
S'LISBETHAnd'
p3330
a(lp3331
S'she'
p3332
aS'specifically'
p3333
aS'said'
p3334
aaa(lp3335
g3330
a(lp3336
S'not'
p3337
aS'to'
p3338
aS'put'
p3339
aS'everything'
p3340
aS'on'
p3341
aS'the'
p3342
aS'counter'
p3343
aaa(lp3344
S'LAURAOkay'
p3345
a(lp3346
aa(lp3347
g3345
a(lp3348
S'Well'
p3349
aS'then'
p3350
aaa(lp3351
g3345
a(lp3352
g50
aS'didnt'
p3353
aaa(lp3354
g3345
a(lp3355
g50
aS'didnt'
p3356
aS'know'
p3357
aS'that'
p3358
aaa(lp3359
S'BILLYeah'
p3360
a(lp3361
aa(lp3362
g3360
a(lp3363
S'and'
p3364
aS'so'
p3365
aS'what'
p3366
aS'happened'
p3367
aaa(lp3368
S'LISBETH'
p3369
a(lp3370
S'Starts'
p3371
aS'putting'
p3372
aS'everything'
p3373
aS'on'
p3374
aS'the'
p3375
aS'counter'
p3376
aaa(lp3377
S'JENNNo'
p3378
a(lp3379
aa(lp3380
g3378
a(lp3381
g50
ag732
aaa(lp3382
g3378
a(lp3383
S'Acts'
p3384
aS'like'
p3385
aS'Im'
p3386
ag76
aS'child'
p3387
aaa(lp3388
g3378
a(lp3389
S'like'
p3390
aS'Im'
p3391
aS'just'
p3392
aS'throwing'
p3393
aS'things'
p3394
aS'on'
p3395
aaa(lp3396
g3378
a(lp3397
g50
aS'was'
p3398
aS'not'
p3399
aaa(lp3400
S'LISBETHNo'
p3401
a(lp3402
aa(lp3403
S'JENNThere'
p3404
a(lp3405
S'was'
p3406
aS'an'
p3407
aS'order'
p3408
aS'to'
p3409
aS'how'
p3410
ag50
aS'was'
p3411
aS'doing'
p3412
aS'it'
p3413
aaa(lp3414
S'RICHARD'
p3415
a(lp3416
aa(lp3417
S'BILLIt'
p3418
a(lp3419
S'was'
p3420
aS'yeah'
p3421
aaa(lp3422
g3418
a(lp3423
S'One'
p3424
aS'at'
p3425
ag76
aS'time'
p3426
aaa(lp3427
S'LEANNEYeah'
p3428
a(lp3429
S'but'
p3430
aS'Jennifer'
p3431
aaa(lp3432
g3428
a(lp3433
S'As'
p3434
aaa(lp3435
g3428
a(lp3436
S'One'
p3437
aS'persons'
p3438
aS'order'
p3439
aS'is'
p3440
aS'another'
p3441
aS'persons'
p3442
aS'mess'
p3443
aaa(lp3444
S'JENNNo'
p3445
a(lp3446
aa(lp3447
S'LAURA'
p3448
a(lp3449
aa(lp3450
S'LISBETH'
p3451
a(lp3452
aa(lp3453
S'LEANNEEspecially'
p3454
a(lp3455
S'if'
p3456
aS'you'
p3457
aS'look'
p3458
aS'in'
p3459
aS'my'
p3460
aS'bedroom'
p3461
aaa(lp3462
S'LAURA'
p3463
a(lp3464
aa(lp3465
S'JENNMom'
p3466
a(lp3467
S'was'
p3468
aS'starting'
p3469
aS'to'
p3470
aS'hyperventilate'
p3471
aaa(lp3472
g3466
a(lp3473
S'about'
p3474
aS'something'
p3475
aS'that'
p3476
aS'did'
p3477
aS'not'
p3478
aS'require'
p3479
ag76
aS'breakdown'
p3480
aaa(lp3481
g3466
a(lp3482
S'and'
p3483
ag50
aS'was'
p3484
aS'trying'
p3485
aS'to'
p3486
aS'pat'
p3487
aS'her'
p3488
aS'on'
p3489
aS'the'
p3490
aS'shoulder'
p3491
aaa(lp3492
S'XTs'
p3493
a(lp3494
aa(lp3495
S'LEANNE'
p3496
a(lp3497
aa(lp3498
S'LISBETHIt'
p3499
a(lp3500
S'looks'
p3501
ag76
aS'bit'
p3502
aaa(lp3503
g3499
a(lp3504
S'And'
p3505
ag50
aS'said'
p3506
aS'to'
p3507
aS'her'
p3508
aS'in'
p3509
aS'the'
p3510
aS'car'
p3511
aaa(lp3512
S'JENNand'
p3513
a(lp3514
S'say'
p3515
aS'it'
p3516
aS'was'
p3517
aS'okay'
p3518
aaa(lp3519
S'LISBETHthat'
p3520
a(lp3521
S'this'
p3522
aS'language'
p3523
aaa(lp3524
g3520
a(lp3525
S'MRC'
p3526
aS'just'
p3527
aS'makes'
p3528
aS'me'
p3529
aS'angry'
p3530
aS'MRC'
p3531
aaa(lp3532
g3520
a(lp3533
S'This'
p3534
aS'exaggerated'
p3535
aS'language'
p3536
aaa(lp3537
S'JENNX'
p3538
a(lp3539
aa(lp3540
S'XTs'
p3541
a(lp3542
aa(lp3543
S'RICHARD'
p3544
a(lp3545
S'What'
p3546
aS'does'
p3547
aS'this'
p3548
aS'have'
p3549
aS'to'
p3550
aS'do'
p3551
aS'with'
p3552
aS'guilt'
p3553
aaa(lp3554
S'LISBETH'
p3555
a(lp3556
aa(lp3557
S'LAURA'
p3558
a(lp3559
aa(lp3560
S'BILL'
p3561
a(lp3562
S'Right'
p3563
aaa(lp3564
S'DON'
p3565
a(lp3566
aa(lp3567
S'BILL'
p3568
a(lp3569
aa(lp3570
g3568
a(lp3571
S'Right'
p3572
aaa(lp3573
S'DONI'
p3574
a(lp3575
S'dont'
p3576
aS'know'
p3577
aS'Rich'
p3578
aaa(lp3579
S'LEANNEOr'
p3580
a(lp3581
S'monogamy'
p3582
aaa(lp3583
S'BILLWhat'
p3584
a(lp3585
S'does'
p3586
aS'it'
p3587
aS'have'
p3588
aS'to'
p3589
aS'do'
p3590
aS'with'
p3591
aS'monogamy'
p3592
aaa(lp3593
g3584
a(lp3594
S'Thats'
p3595
aS'what'
p3596
ag50
aS'wanna'
p3597
aS'know'
p3598
aaa(lp3599
S'LEANNEHI'
p3600
a(lp3601
S'Yeah'
p3602
aaa(lp3603
g3600
a(lp3604
g50
aS'wanna'
p3605
aS'come'
p3606
aS'back'
p3607
aS'to'
p3608
aS'HI'
p3609
aS'the'
p3610
aS'monogamy'
p3611
aS'thing'
p3612
aS'Jenn'
p3613
aaa(lp3614
S'DON'
p3615
a(lp3616
aa(lp3617
S'BILL'
p3618
a(lp3619
aa(lp3620
S'LAURA'
p3621
a(lp3622
aa(lp3623
S'JENN'
p3624
a(lp3625
S'That'
p3626
aS'was'
p3627
ag76
aS'slip'
p3628
aaa(lp3629
S'DON'
p3630
a(lp3631
S'A'
p3632
aS'slip'
p3633
aaa(lp3634
S'BILL'
p3635
a(lp3636
aa(lp3637
S'X'
p3638
a(lp3639
aa(lp3640
S'MARY'
p3641
a(lp3642
S'Where'
p3643
aS'did'
p3644
aS'that'
p3645
aS'language'
p3646
aS'of'
p3647
aS'exaggeration'
p3648
aS'come'
p3649
aS'from'
p3650
aaa(lp3651
S'DONUh'
p3652
a(lp3653
aa(lp3654
S'BILLYou'
p3655
a(lp3656
S'know'
p3657
aS'what'
p3658
aaa(lp3659
g3655
a(lp3660
S'theres'
p3661
aS'two'
p3662
aS'sides'
p3663
aS'to'
p3664
aS'this'
p3665
aaa(lp3666
S'MARYas'
p3667
a(lp3668
g76
aS'joke'
p3669
aaa(lp3670
S'LISBETHUh'
p3671
a(lp3672
aa(lp3673
S'MARYCause'
p3674
a(lp3675
S'its'
p3676
aS'my'
p3677
aS'disease'
p3678
aaa(lp3679
g3674
a(lp3680
S'And'
p3681
aaa(lp3682
g3674
a(lp3683
S'Mimi'
p3684
aS'Fogarty'
p3685
aS'is'
p3686
aS'like'
p3687
aS'the'
p3688
aS'biggest'
p3689
aS'perpetrator'
p3690
aS'of'
p3691
aS'it'
p3692
aaa(lp3693
S'BILLMimi'
p3694
a(lp3695
S'Fogarty'
p3696
aaa(lp3697
S'LISBETHYou'
p3698
a(lp3699
S'dont'
p3700
aS'exaggerate'
p3701
aaa(lp3702
S'BILLOh'
p3703
a(lp3704
aa(lp3705
S'MARY'
p3706
a(lp3707
S'She'
p3708
ag3056
aaa(lp3709
S'BILLOh'
p3710
a(lp3711
aa(lp3712
S'LISBETHYoure'
p3713
a(lp3714
S'very'
p3715
aS'cautious'
p3716
aaa(lp3717
g3713
a(lp3718
S'It'
p3719
aS'seems'
p3720
aS'to'
p3721
aS'me'
p3722
aaa(lp3723
S'MARYBut'
p3724
a(lp3725
S'sometimes'
p3726
ag50
aS'do'
p3727
aaa(lp3728
g3724
a(lp3729
S'cause'
p3730
aS'when'
p3731
aS'Im'
p3732
aS'around'
p3733
aS'other'
p3734
aS'people'
p3735
aaa(lp3736
g3724
a(lp3737
g50
aS'tend'
p3738
aS'to'
p3739
aS'talk'
p3740
aS'like'
p3741
aS'them'
p3742
aaa(lp3743
S'BILLWell'
p3744
a(lp3745
aa(lp3746
S'MARY'
p3747
a(lp3748
S'just'
p3749
aS'like'
p3750
aaa(lp3751
g3747
a(lp3752
S'just'
p3753
aS'little'
p3754
aS'jokey'
p3755
aS'things'
p3756
aaa(lp3757
g3747
a(lp3758
S'just'
p3759
aS'like'
p3760
aaa(lp3761
S'LISBETH'
p3762
a(lp3763
S'Yeah'
p3764
aS'but'
p3765
aS'thats'
p3766
aS'just'
p3767
aaa(lp3768
S'MARYwith'
p3769
a(lp3770
S'numbers'
p3771
aS'and'
p3772
aS'stuff'
p3773
aaa(lp3774
S'BILLJennifer'
p3775
a(lp3776
aa(lp3777
S'LISBETHThats'
p3778
a(lp3779
S'how'
p3780
aS'you'
p3781
aS'make'
p3782
aS'humor'
p3783
aaa(lp3784
g3778
a(lp3785
S'Thats'
p3786
aS'how'
p3787
aS'you'
p3788
aS'make'
p3789
aS'humor'
p3790
aaa(lp3791
S'MARYYeah'
p3792
a(lp3793
aa(lp3794
g3792
a(lp3795
S'thats'
p3796
aS'just'
p3797
aS'humor'
p3798
aaa(lp3799
S'BILLJennifer'
p3800
a(lp3801
S'and'
p3802
aS'Lisbeth'
p3803
aS'are'
p3804
aS'hyper'
p3805
aS'uh'
p3806
aS'sensitive'
p3807
aaa(lp3808
S'MARYLike'
p3809
a(lp3810
g50
aS'told'
p3811
aS'you'
p3812
aS'twenty'
p3813
aS'times'
p3814
aaa(lp3815
S'BILLto'
p3816
a(lp3817
S'one'
p3818
aS'anothers'
p3819
aS'language'
p3820
aaa(lp3821
g3816
a(lp3822
S'So'
p3823
aaa(lp3824
g3816
a(lp3825
S'if'
p3826
aS'Jennifer'
p3827
aS'says'
p3828
aaa(lp3829
S'MARYXXX'
p3830
a(lp3831
aa(lp3832
S'BILL'
p3833
a(lp3834
S'uh'
p3835
aS'Mom'
p3836
aaa(lp3837
g3833
a(lp3838
S'Lisbeth'
p3839
aS'hears'
p3840
aaa(lp3841
g3833
a(lp3842
g76
aS'lot'
p3843
aS'more'
p3844
aS'into'
p3845
aS'it'
p3846
aS'than'
p3847
aS'Mom'
p3848
aaa(lp3849
S'MARYRight'
p3850
a(lp3851
aa(lp3852
S'BILL'
p3853
a(lp3854
S'And'
p3855
aS'if'
p3856
ag1013
aS'Lisbeth'
p3857
aS'says'
p3858
aaa(lp3859
S'MARY'
p3860
a(lp3861
S'Jennifer'
p3862
aaa(lp3863
S'BILLJennifer'
p3864
a(lp3865
aa(lp3866
g3864
a(lp3867
S'Jennifer'
p3868
aS'hears'
p3869
aS'uh'
p3870
aS'paragraphs'
p3871
aaa(lp3872
S'MARYYeah'
p3873
a(lp3874
aa(lp3875
g3873
a(lp3876
S'Sure'
p3877
aaa(lp3878
S'BILL'
p3879
a(lp3880
S'So'
p3881
aS'theres'
p3882
ag76
aS'long'
p3883
aS'history'
p3884
aS'here'
p3885
aaa(lp3886
S'LEANNE'
p3887
a(lp3888
S'Ninetenths'
p3889
aS'of'
p3890
aS'that'
p3891
aS'paragraph'
p3892
aS'is'
p3893
aS'guilt'
p3894
aaa(lp3895
S'LAURAWell'
p3896
a(lp3897
S'that'
p3898
aaa(lp3899
g3896
a(lp3900
S'Thats'
p3901
aS'like'
p3902
aS'Leannes'
p3903
aaa(lp3904
S'BILLAnd'
p3905
a(lp3906
S'then'
p3907
aaa(lp3908
S'LEANNE'
p3909
a(lp3910
S'XX'
p3911
aS'XX'
p3912
aaa(lp3913
S'JENNWell'
p3914
a(lp3915
S'have'
p3916
aS'very'
p3917
aS'short'
p3918
aS'sentences'
p3919
aaa(lp3920
S'LEANNEXXXXXX'
p3921
a(lp3922
aa(lp3923
S'LAURAThe'
p3924
a(lp3925
S'button'
p3926
aS'that'
p3927
aS'you'
p3928
aS'gave'
p3929
aS'me'
p3930
aaa(lp3931
g3924
a(lp3932
S'Dont'
p3933
aS'look'
p3934
aS'at'
p3935
aS'me'
p3936
aS'in'
p3937
aS'that'
p3938
aS'tone'
p3939
aS'of'
p3940
aS'voice'
p3941
aaa(lp3942
S'JENNWell'
p3943
a(lp3944
S'write'
p3945
aS'very'
p3946
aS'short'
p3947
aS'letters'
p3948
aS'to'
p3949
aS'one'
p3950
aS'another'
p3951
aaa(lp3952
S'MARYDid'
p3953
a(lp3954
S'you'
p3955
aS'have'
p3956
aS'that'
p3957
aS'with'
p3958
aS'your'
p3959
aS'mother'
p3960
aS'though'
p3961
aaa(lp3962
S'BILLRight'
p3963
a(lp3964
aa(lp3965
S'LAURA'
p3966
a(lp3967
aa(lp3968
S'LEANNEX'
p3969
a(lp3970
S'The'
p3971
aS'other'
p3972
aS'times'
p3973
ag15
aaa(lp3974
S'MARYWell'
p3975
a(lp3976
S'thats'
p3977
ag76
aS'possibility'
p3978
aaa(lp3979
S'JENNNo'
p3980
a(lp3981
aa(lp3982
g3980
a(lp3983
S'She'
p3984
aS'didnt'
p3985
aS'talk'
p3986
aS'to'
p3987
aS'her'
p3988
aS'mom'
p3989
aaa(lp3990
S'LEANNE'
p3991
a(lp3992
S'What'
p3993
aS'Ma'
p3994
aaa(lp3995
g3991
a(lp3996
S'what'
p3997
aS'were'
p3998
aS'you'
p3999
aS'saying'
p4000
aS'about'
p4001
aS'me'
p4002
aS'and'
p4003
aS'you'
p4004
aaa(lp4005
S'LAURA'
p4006
a(lp4007
S'That'
p4008
aS'button'
p4009
aS'you'
p4010
aS'gave'
p4011
aS'me'
p4012
aaa(lp4013
S'MARYWith'
p4014
a(lp4015
S'this'
p4016
aS'like'
p4017
aaa(lp4018
S'LAURAdont'
p4019
a(lp4020
S'look'
p4021
aS'at'
p4022
aS'me'
p4023
aS'in'
p4024
aS'that'
p4025
aS'tone'
p4026
aS'of'
p4027
aS'voice'
p4028
aaa(lp4029
S'MARYThe'
p4030
a(lp4031
S'tone'
p4032
aS'of'
p4033
aS'the'
p4034
aS'voi'
p4035
aaa(lp4036
g4030
a(lp4037
S'Yeah'
p4038
aS'like'
p4039
aaa(lp4040
S'XXX'
p4041
a(lp4042
aa(lp4043
S'MARYI'
p4044
a(lp4045
S'dont'
p4046
aS'PX'
p4047
aS'really'
p4048
aS'think'
p4049
aS'XP'
p4050
aaa(lp4051
S'LEANNE'
p4052
a(lp4053
S'Its'
p4054
aS'true'
p4055
aaa(lp4056
g4052
a(lp4057
S'No'
p4058
aaa(lp4059
S'MARY'
p4060
a(lp4061
S'It'
p4062
aS'came'
p4063
aS'with'
p4064
aS'the'
p4065
aS'valley'
p4066
aS'girls'
p4067
ag50
aS'think'
p4068
aaa(lp4069
S'LEANNEEverythings'
p4070
a(lp4071
S'ripe'
p4072
aS'with'
p4073
aS'with'
p4074
aaa(lp4075
g4070
a(lp4076
S'hidden'
p4077
aS'meaning'
p4078
aaa(lp4079
S'MARY'
p4080
a(lp4081
S'PX'
p4082
aS'Where'
p4083
aS'it'
p4084
aS'started'
p4085
aS'XP'
p4086
aaa(lp4087
S'LEANNE'
p4088
a(lp4089
S'Start'
p4090
aS'what'
p4091
aaa(lp4092
S'MARY'
p4093
a(lp4094
S'That'
p4095
aS'way'
p4096
aS'of'
p4097
aS'j'
p4098
aS'speaking'
p4099
aaa(lp4100
g4093
a(lp4101
S'Just'
p4102
aS'like'
p4103
aaa(lp4104
g4093
a(lp4105
S'VOX'
p4106
aS'Mom'
p4107
aS'VOX'
p4108
aaa(lp4109
S'LAURA'
p4110
a(lp4111
aa(lp4112
S'MARYlike'
p4113
a(lp4114
g50
aS'dont'
p4115
aS'feel'
p4116
aS'like'
p4117
aaa(lp4118
g4113
a(lp4119
S'people'
p4120
aS'say'
p4121
aS'that'
p4122
aS'and'
p4123
ag50
ag15
aaa(lp4124
S'LEANNEJews'
p4125
a(lp4126
S'said'
p4127
aS'that'
p4128
aS'in'
p4129
aS'the'
p4130
aS'nineteenth'
p4131
aS'century'
p4132
aaa(lp4133
S'LAURA'
p4134
a(lp4135
aa(lp4136
S'MARY'
p4137
a(lp4138
S'Ah'
p4139
aaa(lp4140
g4137
a(lp4141
S'just'
p4142
aS'expressing'
p4143
aS'my'
p4144
aaa(lp4145
S'RICHARDWhat'
p4146
a(lp4147
S'time'
p4148
aS'is'
p4149
aS'it'
p4150
aaa(lp4151
S'LEANNESING'
p4152
a(lp4153
S'In'
p4154
aS'the'
p4155
aS'evening'
p4156
aS'SING'
p4157
aaa(lp4158
S'MARYPX'
p4159
a(lp4160
S'Annoying'
p4161
aS'it'
p4162
aS'just'
p4163
aS'XP'
p4164
aaa(lp4165
S'LAURAExpressing'
p4166
a(lp4167
S'what'
p4168
aaa(lp4169
S'DONOh'
p4170
a(lp4171
S'about'
p4172
aS'half'
p4173
aS'an'
p4174
aS'hour'
p4175
aS'since'
p4176
aS'you'
p4177
aS'last'
p4178
aS'asked'
p4179
aaa(lp4180
S'LEANNERichard'
p4181
a(lp4182
aa(lp4183
S'X'
p4184
a(lp4185
g15
aS'This'
p4186
aS'is'
p4187
aS'hot'
p4188
ag15
aaa(lp4189
S'DONTen'
p4190
a(lp4191
S'twenty'
p4192
aS'five'
p4193
aaa(lp4194
S'LAURATen'
p4195
a(lp4196
S'thirty'
p4197
aaa(lp4198
S'LEANNE'
p4199
a(lp4200
S'If'
p4201
aS'youre'
p4202
aS'bored'
p4203
aaa(lp4204
g4199
a(lp4205
S'do'
p4206
aS'something'
p4207
aaa(lp4208
S'RICHARD'
p4209
a(lp4210
S'Im'
p4211
aS'gonna'
p4212
aS'go'
p4213
aS'to'
p4214
aS'sleep'
p4215
aS'in'
p4216
ag76
aS'few'
p4217
aS'minutes'
p4218
aaa.