(lp0
(lp1
S'FOSTER'
p2
a(lp3
S'So'
p4
aS'Erasmus'
p5
aS'laid'
p6
aS'the'
p7
aS'the'
p8
aaa(lp9
g2
a(lp10
S'laid'
p11
aS'the'
p12
aS'egg'
p13
aaa(lp14
g2
a(lp15
S'which'
p16
aS'Luther'
p17
aS'hatched'
p18
aaa(lp19
g2
a(lp20
S'And'
p21
aS'um'
p22
aaa(lp23
g2
a(lp24
S'when'
p25
aS'you'
p26
aS'come'
p27
aS'then'
p28
aaa(lp29
g2
a(lp30
S'to'
p31
aaa(lp32
g2
a(lp33
S'uh'
p34
aaa(lp35
g2
a(lp36
S'however'
p37
aS'this'
p38
aS'debate'
p39
aaa(lp40
g2
a(lp41
S'This'
p42
aS'freedom'
p43
aS'of'
p44
aS'the'
p45
aS'will'
p46
aaa(lp47
g2
a(lp48
S'Um'
p49
aaa(lp50
g2
a(lp51
S'I'
p52
aS'think'
p53
aS'uh'
p54
aaa(lp55
g2
a(lp56
S'let'
p57
aS'me'
p58
aS'read'
p59
aS'you'
p60
aS'a'
p61
aS'page'
p62
aS'from'
p63
aS'Brendler'
p64
aaa(lp65
g2
a(lp66
S'Because'
p67
aS'it'
p68
aS'sets'
p69
aS'the'
p70
aS'sa'
p71
aS'stage'
p72
aS'very'
p73
aS'nicely'
p74
aaa(lp75
g2
a(lp76
S'This'
p77
aS'is'
p78
aS'in'
p79
aS'the'
p80
aS'Luther'
p81
aS'book'
p82
aS'some'
p83
aS'of'
p84
aS'you'
p85
aS'are'
p86
aS'reading'
p87
aaa(lp88
g2
a(lp89
S'and'
p90
aS'um'
p91
aaa(lp92
g2
a(lp93
S'if'
p94
aS'you'
p95
aaa(lp96
g2
a(lp97
S'this'
p98
aS'evening'
p99
aS'when'
p100
aS'you'
p101
aS'go'
p102
aS'home'
p103
aaa(lp104
g2
a(lp105
S'if'
p106
aS'you'
p107
aS'wanna'
p108
aS'meditate'
p109
aS'it'
p110
aS'on'
p111
aS'more'
p112
aaa(lp113
g2
a(lp114
S'on'
p115
aS'on'
p116
aS'it'
p117
aS'more'
p118
aaa(lp119
g2
a(lp120
S'its'
p121
aS'on'
p122
aS'page'
p123
aS'three'
p124
aS'eleven'
p125
aaa(lp126
g2
a(lp127
S'Its'
p128
aS'on'
p129
aS'page'
p130
aS'three'
p131
aS'eleven'
p132
aaa(lp133
g2
a(lp134
S'But'
p135
aaa(lp136
g2
a(lp137
S'let'
p138
aS'me'
p139
aS'just'
p140
aS'read'
p141
aS'you'
p142
aS'the'
p143
aaa(lp144
g2
a(lp145
S'cause'
p146
aS'this'
p147
aS'gives'
p148
aS'us'
p149
aS'the'
p150
aS'setting'
p151
aS'very'
p152
aS'nicely'
p153
aaa(lp154
g2
a(lp155
S'and'
p156
aS'then'
p157
aS'we'
p158
aS'can'
p159
aS'uh'
p160
aaa(lp161
g2
a(lp162
S'READ'
p163
aS'Erasmus'
p164
aS'entitled'
p165
aS'his'
p166
aS'antiLuther'
p167
aS'pamphlet'
p168
aaa(lp169
g2
a(lp170
S'diatribe'
p171
aS'concerning'
p172
aS'free'
p173
aS'will'
p174
aaa(lp175
g2
a(lp176
S'Once'
p177
aS'again'
p178
aaa(lp179
g2
a(lp180
S'the'
p181
aS'first'
p182
aS'and'
p183
aS'fundamental'
p184
aS'questions'
p185
aaa(lp186
g2
a(lp187
S'disputed'
p188
aS'in'
p189
aS'fifteen'
p190
aS'sixteen'
p191
aaa(lp192
g2
a(lp193
S'and'
p194
aS'fifteen'
p195
aS'seventeen'
p196
aaa(lp197
g2
a(lp198
S'and'
p199
aS'again'
p200
aS'in'
p201
aS'Heidelberg'
p202
aaa(lp203
g2
a(lp204
S'in'
p205
aS'April'
p206
aS'of'
p207
aS'fifteen'
p208
aS'eighteen'
p209
aaa(lp210
g2
a(lp211
S'with'
p212
aS'which'
p213
aS'Luther'
p214
aS'had'
p215
aS'opened'
p216
aS'the'
p217
aS'assault'
p218
aS'on'
p219
aS'scholastic'
p220
aS'theology'
p221
aaa(lp222
g2
a(lp223
S'were'
p224
aS'debated'
p225
aaa(lp226
g2
a(lp227
S'Luther'
p228
aS'was'
p229
aS'glad'
p230
aS'to'
p231
aS'take'
p232
aS'up'
p233
aS'the'
p234
aS'theme'
p235
aS'of'
p236
aS'this'
p237
aS'debate'
p238
aS'READ'
p239
aaa(lp240
g2
a(lp241
S'And'
p242
aS'this'
p243
aS'is'
p244
aS'what'
p245
aS'Luther'
p246
aS'writes'
p247
aS'to'
p248
aS'Erasmus'
p249
aaa(lp250
g2
a(lp251
S'READ'
p252
aS'You'
p253
aS'alone'
p254
aaa(lp255
g2
a(lp256
S'Among'
p257
aS'all'
p258
aS'the'
p259
aS'others'
p260
aaa(lp261
g2
a(lp262
S'have'
p263
aS'recognized'
p264
aS'the'
p265
aS'key'
p266
aS'question'
p267
aaa(lp268
g2
a(lp269
S'And'
p270
aS'you'
p271
aS'do'
p272
aS'not'
p273
aS'bore'
p274
aS'me'
p275
aaa(lp276
g2
a(lp277
S'With'
p278
aS'the'
p279
aS'Papacy'
p280
aaa(lp281
g2
a(lp282
S'purgatory'
p283
aaa(lp284
g2
a(lp285
S'indulgences'
p286
aaa(lp287
g2
a(lp288
S'and'
p289
aS'similar'
p290
aS'nonsense'
p291
aaa(lp292
g2
a(lp293
S'You'
p294
aaa(lp295
g2
a(lp296
S'and'
p297
aS'you'
p298
aS'alone'
p299
aaa(lp300
g2
a(lp301
S'have'
p302
aS'identified'
p303
aS'that'
p304
aS'on'
p305
aS'which'
p306
aS'all'
p307
aS'else'
p308
aS'hinges'
p309
aaa(lp310
g2
a(lp311
S'And'
p312
aS'you'
p313
aS'have'
p314
aS'put'
p315
aS'the'
p316
aS'razor'
p317
aS'to'
p318
aS'the'
p319
aS'throat'
p320
aaa(lp321
g2
a(lp322
S'And'
p323
aS'for'
p324
aS'that'
p325
ag52
aS'thank'
p326
aS'you'
p327
aS'heartily'
p328
aaa(lp329
g2
a(lp330
S'Um'
p331
aaa(lp332
g2
a(lp333
S'thus'
p334
aS'Luther'
p335
aS'evalu'
p336
aS'uh'
p337
aS'evaluated'
p338
aS'the'
p339
aS'subject'
p340
aaa(lp341
g2
a(lp342
S'And'
p343
aS'Erasmus'
p344
aS'commented'
p345
aS'on'
p346
aS'the'
p347
aS'significance'
p348
aS'of'
p349
aS'their'
p350
aS'engagement'
p351
aaa(lp352
g2
a(lp353
S'in'
p354
aS'battle'
p355
aaa(lp356
g2
a(lp357
S'in'
p358
aS'his'
p359
aS'own'
p360
aS'style'
p361
aS'READ'
p362
aaa(lp363
g2
a(lp364
S'And'
p365
aS'he'
p366
aS'wrote'
p367
aS'to'
p368
aS'Luther'
p369
aaa(lp370
g2
a(lp371
S'READ'
p372
aS'Perhaps'
p373
aS'an'
p374
aS'Erasmus'
p375
aS'who'
p376
aS'writes'
p377
aS'against'
p378
aS'you'
p379
aaa(lp380
g2
a(lp381
S'will'
p382
aS'do'
p383
aS'more'
p384
aS'for'
p385
aS'the'
p386
aS'Gospel'
p387
aaa(lp388
g2
a(lp389
S'than'
p390
aS'certain'
p391
aS'dunderheads'
p392
aS'who'
p393
aS'support'
p394
aS'you'
p395
aS'READ'
p396
aaa(lp397
g2
a(lp398
S'And'
p399
aS'then'
p400
aaa(lp401
g2
a(lp402
S'READ'
p403
aS'humanistic'
p404
aS'thinking'
p405
aaa(lp406
g2
a(lp407
S'will'
p408
aS'never'
p409
aS'consent'
p410
aS'READ'
p411
aaa(lp412
g2
a(lp413
S'this'
p414
aS'is'
p415
aS'Brendler'
p416
aS'now'
p417
aaa(lp418
g2
a(lp419
S'obs'
p420
aaa(lp421
g2
a(lp422
S'uh'
p423
aS'on'
p424
aS'this'
p425
aS'uh'
p426
aaa(lp427
g2
a(lp428
S'but'
p429
aS'this'
p430
aS'sets'
p431
aS'the'
p432
aS'stage'
p433
aS'for'
p434
aS'what'
p435
aS'were'
p436
aS'gonna'
p437
aS'talk'
p438
aS'about'
p439
aaa(lp440
g2
a(lp441
S'READ'
p442
aS'humanistic'
p443
aS'thinking'
p444
aS'will'
p445
aS'never'
p446
aS'consent'
p447
aaa(lp448
g2
a(lp449
S'to'
p450
aS'the'
p451
aS'doctrine'
p452
aS'of'
p453
aS'original'
p454
aS'sin'
p455
aS'READ'
p456
aaa(lp457
g2
a(lp458
S'Pico'
p459
aS'de'
p460
aS'la'
p461
aS'Mirandela'
p462
aS'would'
p463
aS'not'
p464
aS'have'
p465
aS'consented'
p466
aS'to'
p467
aS'the'
p468
aS'doctrine'
p469
aS'of'
p470
aS'original'
p471
aS'sin'
p472
aaa(lp473
g2
a(lp474
S'The'
p475
aS'author'
p476
aS'of'
p477
aS'uh'
p478
aaa(lp479
g2
a(lp480
S'what'
p481
aS'is'
p482
aS'it'
p483
aaa(lp484
g2
a(lp485
S'Houseman'
p486
ag52
aS'think'
p487
aaa(lp488
g2
a(lp489
S'of'
p490
aS'Invictus'
p491
aaa(lp492
g2
a(lp493
S'Q'
p494
ag52
aS'am'
p495
aS'the'
p496
aS'master'
p497
aS'of'
p498
aS'my'
p499
aS'fate'
p500
aaa(lp501
g2
a(lp502
g52
aS'am'
p503
aS'the'
p504
aS'captain'
p505
aS'of'
p506
aS'my'
p507
aS'soul'
p508
ag494
aaa(lp509
g2
a(lp510
S'acknowledge'
p511
aS'original'
p512
aS'sin'
p513
aaa(lp514
g2
a(lp515
S'READ'
p516
aS'Is'
p517
aS'based'
p518
aS'READ'
p519
aS'uh'
p520
aaa(lp521
g2
a(lp522
S'alright'
p523
aaa(lp524
g2
a(lp525
S'what'
p526
aS'is'
p527
aS'it'
p528
aaa(lp529
g2
a(lp530
S'its'
p531
aS'READ'
p532
aS'based'
p533
aaa(lp534
g2
a(lp535
S'as'
p536
aS'it'
p537
aS'is'
p538
aaa(lp539
g2
a(lp540
S'on'
p541
aS'the'
p542
aS'concept'
p543
aaa(lp544
g2
a(lp545
S'that'
p546
aS'human'
p547
aS'nature'
p548
aS'is'
p549
aS'totally'
p550
aS'depraved'
p551
aaa(lp552
g2
a(lp553
S'and'
p554
aS'of'
p555
aS'itself'
p556
aS'not'
p557
aS'capable'
p558
aS'of'
p559
aS'any'
p560
aS'good'
p561
aS'will'
p562
aaa(lp563
g2
a(lp564
S'And'
p565
aS'that'
p566
aS'apart'
p567
aS'from'
p568
aS'grace'
p569
aS'alone'
p570
aaa(lp571
g2
a(lp572
S'free'
p573
aS'will'
p574
aS'is'
p575
aS'nothing'
p576
aaa(lp577
g2
a(lp578
S'can'
p579
aS'do'
p580
aS'nothing'
p581
aaa(lp582
g2
a(lp583
S'does'
p584
aS'nothing'
p585
aaa(lp586
g2
a(lp587
S'except'
p588
aS'depraved'
p589
aS'deeds'
p590
aaa(lp591
g2
a(lp592
S'Even'
p593
aS'though'
p594
aS'these'
p595
aS'pronouncements'
p596
aS'are'
p597
aS'Biblically'
p598
aS'based'
p599
aaa(lp600
g2
a(lp601
S'and'
p602
aS'may'
p603
aS'be'
p604
aS'acceptable'
p605
aS'within'
p606
aS'an'
p607
aS'exclusively'
p608
aS'theological'
p609
aS'system'
p610
aaa(lp611
g2
a(lp612
S'reconcilable'
p613
aS'with'
p614
aS'the'
p615
aS'dignity'
p616
aS'of'
p617
aS'man'
p618
aaa(lp619
g2
a(lp620
S'dignity'
p621
aS'of'
p622
aS'man'
p623
aaa(lp624
g2
a(lp625
S'Catholic'
p626
aaa(lp627
g2
a(lp628
S'and'
p629
aS'semipelagianism'
p630
aaa(lp631
g2
a(lp632
S'with'
p633
aS'all'
p634
aS'of'
p635
aS'its'
p636
aS'emphasis'
p637
aS'on'
p638
aS'on'
p639
aS'the'
p640
aS'role'
p641
aS'of'
p642
aS'prevenient'
p643
aS'grace'
p644
aaa(lp645
g2
a(lp646
S'finally'
p647
aS'views'
p648
aaa(lp649
g2
a(lp650
S'free'
p651
aS'will'
p652
aaa(lp653
g2
a(lp654
S'as'
p655
aS'the'
p656
aS'decisive'
p657
aS'factor'
p658
aS'in'
p659
aS'attaining'
p660
aS'salvation'
p661
aaa(lp662
g2
a(lp663
S'Thereby'
p664
aS'conceptualizing'
p665
aS'free'
p666
aS'will'
p667
aaa(lp668
g2
a(lp669
S'as'
p670
aS'similar'
p671
aS'to'
p672
ag61
aS'healthy'
p673
aS'man'
p674
aaa(lp675
g2
a(lp676
S'healthy'
p677
aS'human'
p678
aS'understanding'
p679
aaa(lp680
g2
a(lp681
S'for'
p682
aS'how'
p683
aS'can'
p684
ag61
aS'person'
p685
aaa(lp686
g2
a(lp687
S'be'
p688
aS'responsible'
p689
aS'for'
p690
aS'his'
p691
aS'deeds'
p692
aaa(lp693
g2
a(lp694
S'if'
p695
aS'he'
p696
aS'possesses'
p697
aS'no'
p698
aS'free'
p699
aS'will'
p700
aS'READ'
p701
aaa(lp702
g2
a(lp703
S'This'
p704
aS'is'
p705
aS'what'
p706
aS'Erasmus'
p707
aS'asked'
p708
aaa(lp709
g2
a(lp710
S'READ'
p711
aS'How'
p712
aS'can'
p713
aS'he'
p714
aS'decide'
p715
aS'between'
p716
aS'good'
p717
aS'and'
p718
aS'evil'
p719
aaa(lp720
g2
a(lp721
S'So'
p722
aS'reasoned'
p723
aS'Erasmus'
p724
aaa(lp725
g2
a(lp726
S'Such'
p727
aS'arguments'
p728
aaa(lp729
g2
a(lp730
S'long'
p731
aS'known'
p732
aS'to'
p733
aS'Luther'
p734
aaa(lp735
g2
a(lp736
S'and'
p737
aS'many'
p738
aS'times'
p739
aS'presented'
p740
aS'to'
p741
aS'him'
p742
aaa(lp743
g2
a(lp744
S'impressed'
p745
aS'him'
p746
aS'not'
p747
aS'in'
p748
aS'the'
p749
aS'least'
p750
aaa(lp751
g2
a(lp752
S'God'
p753
aS'alone'
p754
aS'is'
p755
aS'salvation'
p756
aaa(lp757
g2
a(lp758
S'God'
p759
aS'alone'
p760
aS'measures'
p761
aS'guilt'
p762
aaa(lp763
g2
a(lp764
S'He'
p765
aS'alone'
p766
aS'condemns'
p767
aaa(lp768
g2
a(lp769
S'He'
p770
aS'alone'
p771
aS'grants'
p772
aS'grace'
p773
aaa(lp774
g2
a(lp775
S'Justifies'
p776
aS'and'
p777
aS'saves'
p778
aaa(lp779
g2
a(lp780
S'When'
p781
aS'he'
p782
aS'will'
p783
aaa(lp784
g2
a(lp785
S'and'
p786
aS'whom'
p787
aS'he'
p788
aS'will'
p789
aaa(lp790
g2
a(lp791
S'Man'
p792
aS'can'
p793
aS'do'
p794
aS'nothing'
p795
aS'against'
p796
aS'the'
p797
aS'divine'
p798
aS'prerogative'
p799
aaa(lp800
g2
a(lp801
S'Man'
p802
aS'can'
p803
aS'only'
p804
aS'accept'
p805
aS'the'
p806
aS'divine'
p807
aS'judgment'
p808
aaa(lp809
g2
a(lp810
S'This'
p811
aS'is'
p812
aS'in'
p813
aS'fact'
p814
aS'best'
p815
aaa(lp816
g2
a(lp817
S'And'
p818
aS'if'
p819
aS'by'
p820
aaa(lp821
g2
a(lp822
S'And'
p823
aaa(lp824
g2
a(lp825
S'and'
p826
aS'it'
p827
aS'is'
p828
aS'by'
p829
aS'the'
p830
aS'divine'
p831
aS'prerogative'
p832
aaa(lp833
g2
a(lp834
S'that'
p835
aS'man'
p836
aS'will'
p837
aaa(lp838
g2
a(lp839
S'uh'
p840
aaa(lp841
g2
a(lp842
S'that'
p843
aS'man'
p844
aS'is'
p845
aS'well'
p846
aS'provided'
p847
aS'for'
p848
aaa(lp849
g2
a(lp850
S'For'
p851
aS'God'
p852
aS'alone'
p853
aS'is'
p854
aS'infallible'
p855
aaa(lp856
g2
a(lp857
S'and'
p858
aS'his'
p859
aS'being'
p860
aS'is'
p861
aS'grace'
p862
aS'and'
p863
aS'mercy'
p864
aaa(lp865
g2
a(lp866
S'This'
p867
aS'concept'
p868
aaa(lp869
g2
a(lp870
S'that'
p871
aS'man'
p872
aS'is'
p873
aS'divinely'
p874
aS'elected'
p875
aS'to'
p876
aS'salvation'
p877
aaa(lp878
g2
a(lp879
S'or'
p880
aS'to'
p881
aS'damnation'
p882
aaa(lp883
g2
a(lp884
S'is'
p885
aS'the'
p886
aS'center'
p887
aS'of'
p888
aS'the'
p889
aS'predestination'
p890
aS'dogma'
p891
aaa(lp892
g2
a(lp893
S'That'
p894
aS'later'
p895
aaa(lp896
g2
a(lp897
S'the'
p898
aS'Geneva'
p899
aS'reformer'
p900
aS'Calvin'
p901
aaa(lp902
g2
a(lp903
S'made'
p904
aS'the'
p905
aS'center'
p906
aS'of'
p907
aS'his'
p908
aS'teaching'
p909
aaa(lp910
g2
a(lp911
S'And'
p912
aS'that'
p913
aS'subsequently'
p914
aaa(lp915
g2
a(lp916
S'under'
p917
aS'other'
p918
aS'historical'
p919
aS'preconditions'
p920
aS'and'
p921
aS'circumstances'
p922
aaa(lp923
g2
a(lp924
S'could'
p925
aS'be'
p926
aS'linked'
p927
aS'closely'
p928
aS'with'
p929
ag61
aS'prosperous'
p930
aS'middle'
p931
aS'class'
p932
aaa(lp933
g2
a(lp934
S'in'
p935
aS'the'
p936
aS'Netherlands'
p937
aaa(lp938
g2
a(lp939
S'and'
p940
aS'in'
p941
aS'England'
p942
aS'READ'
p943
aaa(lp944
g2
a(lp945
S'Um'
p946
aaa(lp947
g2
a(lp948
S'uh'
p949
aaa(lp950
g2
a(lp951
S'skip'
p952
aS'this'
p953
aS'paragraph'
p954
aaa(lp955
g2
a(lp956
S'this'
p957
aS'is'
p958
aS'the'
p959
aS'paragraph'
p960
aS'though'
p961
aaa(lp962
g2
a(lp963
S'Right'
p964
aS'here'
p965
aaa(lp966
g2
a(lp967
S'The'
p968
aS'next'
p969
aS'one'
p970
aaa(lp971
g2
a(lp972
S'P'
p973
aS'on'
p974
aS'page'
p975
aS'three'
p976
aS'twelve'
p977
aaa(lp978
g2
a(lp979
S'When'
p980
aS'you'
p981
aaa(lp982
g2
a(lp983
S'when'
p984
aS'you'
p985
aS'read'
p986
aaa(lp987
g2
a(lp988
S'if'
p989
aS'you'
p990
aS'wanna'
p991
aS'read'
p992
aS'it'
p993
aS'later'
p994
aaa(lp995
g2
a(lp996
S'READ'
p997
aS'Therefore'
p998
aaa(lp999
g2
a(lp1000
S'Luther'
p1001
aS'did'
p1002
aS'not'
p1003
aS'accept'
p1004
aS'rational'
p1005
aS'arguments'
p1006
aS'against'
p1007
aS'predestination'
p1008
aS'doctrine'
p1009
aaa(lp1010
g2
a(lp1011
S'Such'
p1012
aS'arguments'
p1013
aaa(lp1014
g2
a(lp1015
S'on'
p1016
aS'the'
p1017
aS'contrary'
p1018
aaa(lp1019
g2
a(lp1020
S'necessarily'
p1021
aS'appeared'
p1022
aS'to'
p1023
aS'Luther'
p1024
aaa(lp1025
g2
a(lp1026
S'given'
p1027
aS'his'
p1028
aS'theological'
p1029
aS'orientation'
p1030
aaa(lp1031
g2
a(lp1032
S'as'
p1033
aS'suspicious'
p1034
aaa(lp1035
g2
a(lp1036
S'From'
p1037
aS'the'
p1038
aS'very'
p1039
aS'start'
p1040
aaa(lp1041
g2
a(lp1042
S'Because'
p1043
aS'they'
p1044
aS'originated'
p1045
aS'from'
p1046
aS'human'
p1047
aS'nature'
p1048
aaa(lp1049
g2
a(lp1050
S'Which'
p1051
aS'exalted'
p1052
aS'itself'
p1053
aS'against'
p1054
aS'God'
p1055
aaa(lp1056
g2
a(lp1057
S'The'
p1058
aS'whore'
p1059
aS'reason'
p1060
aaa(lp1061
g2
a(lp1062
S'Prefers'
p1063
aS'to'
p1064
aS'submit'
p1065
aS'to'
p1066
aS'the'
p1067
aS'Devil'
p1068
aaa(lp1069
g2
a(lp1070
S'Adjusts'
p1071
aS'to'
p1072
aS'all'
p1073
aS'situations'
p1074
aaa(lp1075
g2
a(lp1076
S'And'
p1077
aS'proves'
p1078
aS'everything'
p1079
aaa(lp1080
g2
a(lp1081
S'that'
p1082
aS'is'
p1083
aS'demanded'
p1084
aS'of'
p1085
aS'her'
p1086
aaa(lp1087
g2
a(lp1088
S'Human'
p1089
aS'nature'
p1090
aaa(lp1091
g2
a(lp1092
S'MRC'
p1093
aS'does'
p1094
aS'not'
p1095
aS'possess'
p1096
aS'free'
p1097
aS'will'
p1098
aS'MRC'
p1099
aaa(lp1100
g2
a(lp1101
S'It'
p1102
aS'is'
p1103
aS'like'
p1104
ag61
aS'horse'
p1105
aaa(lp1106
g2
a(lp1107
S'Ridden'
p1108
aS'by'
p1109
aS'God'
p1110
aS'or'
p1111
aS'the'
p1112
aS'Devil'
p1113
aaa(lp1114
g2
a(lp1115
S'The'
p1116
aS'rider'
p1117
aS'possesses'
p1118
aS'the'
p1119
aS'will'
p1120
aaa(lp1121
g2
a(lp1122
S'The'
p1123
aS'horse'
p1124
aS'obeys'
p1125
aS'READ'
p1126
aaa(lp1127
g2
a(lp1128
S'Well'
p1129
aS'thats'
p1130
aS'as'
p1131
aS'clear'
p1132
aS'as'
p1133
aS'you'
p1134
aS'can'
p1135
aS'get'
p1136
aS'it'
p1137
aaa(lp1138
g2
a(lp1139
S'Human'
p1140
aS'nature'
p1141
aS'is'
p1142
aS'like'
p1143
ag61
aS'horse'
p1144
aaa(lp1145
g2
a(lp1146
S'Ridden'
p1147
aS'by'
p1148
aS'God'
p1149
aS'or'
p1150
aS'the'
p1151
aS'Devil'
p1152
aaa(lp1153
g2
a(lp1154
S'The'
p1155
aS'rider'
p1156
aS'possesses'
p1157
aS'free'
p1158
aS'will'
p1159
aaa(lp1160
g2
a(lp1161
S'The'
p1162
aS'horse'
p1163
aS'obeys'
p1164
aaa(lp1165
g2
a(lp1166
S'Alright'
p1167
aS'that'
p1168
aaa(lp1169
g2
a(lp1170
S'th_now'
p1171
aS'the'
p1172
aS'debate'
p1173
aS'is'
p1174
aS'joined'
p1175
aS'you'
p1176
aS'see'
p1177
aaa(lp1178
g2
a(lp1179
S'And'
p1180
aS'as'
p1181
aS'you'
p1182
aS'come'
p1183
aaa(lp1184
g2
a(lp1185
S'as'
p1186
aS'Erasmus'
p1187
aS'comes'
p1188
aS'to'
p1189
aS'this'
p1190
aaa(lp1191
g2
a(lp1192
S'hes'
p1193
aS'going'
p1194
aS'to'
p1195
aS'say'
p1196
aaa(lp1197
g2
a(lp1198
S'well'
p1199
aS'lets'
p1200
aS'look'
p1201
aS'at'
p1202
aS'the'
p1203
aS'Scriptures'
p1204
aaa(lp1205
g2
a(lp1206
S'Now'
p1207
aaa(lp1208
g2
a(lp1209
S'number'
p1210
aS'one'
p1211
aaa(lp1212
g2
a(lp1213
S'we'
p1214
aS'have'
p1215
aS'to'
p1216
aS'admit'
p1217
aS'first'
p1218
aaa(lp1219
g2
a(lp1220
S'v'
p1221
aS'first'
p1222
aS'off'
p1223
aaa(lp1224
g2
a(lp1225
S'that'
p1226
aS'there'
p1227
aS'seem'
p1228
aS'to'
p1229
aS'be'
p1230
aS'passages'
p1231
aaa(lp1232
g2
a(lp1233
S'there'
p1234
aS'are'
p1235
aS'passages'
p1236
aS'in'
p1237
aS'the'
p1238
aS'Scriptures'
p1239
aaa(lp1240
g2
a(lp1241
S'are'
p1242
aS'there'
p1243
aS'not'
p1244
aaa(lp1245
g2
a(lp1246
S'Many'
p1247
aaa(lp1248
g2
a(lp1249
S'Which'
p1250
aS'seem'
p1251
aS'to'
p1252
aS'teach'
p1253
aaa(lp1254
g2
a(lp1255
S'that'
p1256
aS'man'
p1257
aS'is'
p1258
aS'responsible'
p1259
aS'for'
p1260
aS'his'
p1261
aS'deeds'
p1262
aaa(lp1263
g2
a(lp1264
S'and'
p1265
aS'that'
p1266
aS'he'
p1267
aS'may'
p1268
aS'act'
p1269
aaa(lp1270
g2
a(lp1271
S'and'
p1272
aS'has'
p1273
ag61
aS'free'
p1274
aS'will'
p1275
aS'to'
p1276
aS'respond'
p1277
aS'to'
p1278
aS'the'
p1279
aS'invitation'
p1280
aS'of'
p1281
aS'God'
p1282
aaa(lp1283
g2
a(lp1284
S'Isnt'
p1285
aS'that'
p1286
aS'clear'
p1287
aS'in'
p1288
aS'the'
p1289
aS'Scriptures'
p1290
aaa(lp1291
g2
a(lp1292
S'Whosoever'
p1293
aS'will'
p1294
aS'may'
p1295
aS'come'
p1296
aaa(lp1297
g2
a(lp1298
S'Um'
p1299
aaa(lp1300
g2
a(lp1301
S'Jesus'
p1302
aS'turned'
p1303
aS'to'
p1304
aS'his'
p1305
aS'disciples'
p1306
aaa(lp1307
g2
a(lp1308
S'you'
p1309
aS'remember'
p1310
aaa(lp1311
g2
a(lp1312
S'when'
p1313
aS'some'
p1314
aS'deserted'
p1315
aS'him'
p1316
aaa(lp1317
g2
a(lp1318
S'and'
p1319
aS'seemed'
p1320
aaa(lp1321
g2
a(lp1322
S'because'
p1323
aS'they'
p1324
aS'were'
p1325
aS'disappointed'
p1326
aS'in'
p1327
aS'some'
p1328
aS'of'
p1329
aS'his'
p1330
aS'sayings'
p1331
aaa(lp1332
g2
a(lp1333
S'and'
p1334
aS'they'
p1335
aS'were'
p1336
aS'offended'
p1337
aS'by'
p1338
aS'some'
p1339
aS'of'
p1340
aS'the'
p1341
aS'things'
p1342
aS'he'
p1343
aS'said'
p1344
aaa(lp1345
g2
a(lp1346
S'and'
p1347
aS'they'
p1348
aS'walked'
p1349
aS'no'
p1350
aS'longer'
p1351
aS'with'
p1352
aS'him'
p1353
aS'it'
p1354
aS'said'
p1355
aaa(lp1356
g2
a(lp1357
S'And'
p1358
aS'then'
p1359
aS'he'
p1360
aS'turned'
p1361
aS'to'
p1362
aS'those'
p1363
aS'who'
p1364
aS'remained'
p1365
aaa(lp1366
g2
a(lp1367
S'and'
p1368
aS'he'
p1369
aS'said'
p1370
aaa(lp1371
g2
a(lp1372
g494
aS'Will'
p1373
aS'ye'
p1374
aS'also'
p1375
aS'go'
p1376
aS'away'
p1377
ag494
aaa(lp1378
g2
a(lp1379
S'They'
p1380
aS'had'
p1381
ag61
aS'choice'
p1382
aaa(lp1383
g2
a(lp1384
S'Didnt'
p1385
aS'they'
p1386
aaa(lp1387
g2
a(lp1388
S'Will'
p1389
aS'you'
p1390
aS'go'
p1391
aS'away'
p1392
aaa(lp1393
g2
a(lp1394
S'What'
p1395
aS'do'
p1396
aS'you'
p1397
aS'will'
p1398
aaa(lp1399
g2
a(lp1400
S'And'
p1401
aS'the'
p1402
aS'will'
p1403
aaa(lp1404
g2
a(lp1405
S'apparently'
p1406
aS'was'
p1407
aaa(lp1408
g2
a(lp1409
S're'
p1410
aS'resided'
p1411
aS'in'
p1412
aS'in'
p1413
aS'these'
p1414
aS'disciples'
p1415
aaa(lp1416
g2
a(lp1417
S'And'
p1418
aS'so'
p1419
aS'Erasmus'
p1420
aS'is'
p1421
aS'going'
p1422
aS'to'
p1423
aS'say'
p1424
aaa(lp1425
g2
a(lp1426
S'so'
p1427
aS'obviously'
p1428
aaa(lp1429
g2
a(lp1430
S'in'
p1431
aS'Scripture'
p1432
aS'we'
p1433
aS'have'
p1434
aS'paradox'
p1435
aaa(lp1436
g2
a(lp1437
S'We'
p1438
aS'have'
p1439
aS'clear'
p1440
aS'passages'
p1441
aS'of'
p1442
aS'Scripture'
p1443
aaa(lp1444
g2
a(lp1445
S'which'
p1446
aS'seem'
p1447
aS'to'
p1448
aS'indicate'
p1449
aS'that'
p1450
aS'man'
p1451
aS'POUND'
p1452
aS'has'
p1453
ag61
aS'free'
p1454
aS'will'
p1455
aaa(lp1456
g2
a(lp1457
S'and'
p1458
aS'that'
p1459
aS'he'
p1460
aS'can'
p1461
aS'exercise'
p1462
aS'POUND'
p1463
aS'that'
p1464
aS'will'
p1465
aaa(lp1466
g2
a(lp1467
S'to'
p1468
aS'follow'
p1469
aaa(lp1470
g2
a(lp1471
S'or'
p1472
aS'not'
p1473
aS'to'
p1474
aS'follow'
p1475
aaa(lp1476
g2
a(lp1477
S'To'
p1478
aS'respond'
p1479
aS'or'
p1480
aS'not'
p1481
aS'to'
p1482
aS'respond'
p1483
aaa(lp1484
g2
a(lp1485
S'On'
p1486
aS'the'
p1487
aS'other'
p1488
aS'hand'
p1489
aaa(lp1490
g2
a(lp1491
S'we'
p1492
aS'have'
p1493
aS'passages'
p1494
aS'of'
p1495
aS'Scripture'
p1496
aaa(lp1497
g2
a(lp1498
S'which'
p1499
aS'seem'
p1500
aS'to'
p1501
aS'indicate'
p1502
aaa(lp1503
g2
a(lp1504
S'that'
p1505
aS'the'
p1506
aS'will'
p1507
aS'is'
p1508
aS'not'
p1509
aS'free'
p1510
aaa(lp1511
g2
a(lp1512
S'and'
p1513
aS'that'
p1514
aS'the'
p1515
aaa(lp1516
g2
a(lp1517
S'and'
p1518
aS'that'
p1519
aS'man'
p1520
aS'i'
p1521
aS'th'
p1522
aS'is'
p1523
aaa(lp1524
g2
a(lp1525
S'man'
p1526
aS'is'
p1527
aS'predestined'
p1528
aS'by'
p1529
ag61
aS'an'
p1530
aS'omnipotent'
p1531
aS'sovereign'
p1532
aS'will'
p1533
aS'of'
p1534
aS'God'
p1535
aaa(lp1536
g2
a(lp1537
S'We'
p1538
aS'have'
p1539
aS'to'
p1540
aS'take'
p1541
aS'both'
p1542
aS'these'
p1543
aS'pass'
p1544
aaa(lp1545
g2
a(lp1546
S'So'
p1547
aS'its'
p1548
aS'not'
p1549
ag61
aS'question'
p1550
aS'of'
p1551
aS'the'
p1552
aS'Scriptural'
p1553
aS'authority'
p1554
aaa(lp1555
g2
a(lp1556
S'We'
p1557
aS'both'
p1558
aS'accept'
p1559
aS'the'
p1560
aS'scriptural'
p1561
aS'authority'
p1562
aaa(lp1563
g2
a(lp1564
S'And'
p1565
aS'Erasmus'
p1566
aS'in'
p1567
aS'his'
p1568
aS'writings'
p1569
aaa(lp1570
g2
a(lp1571
S'and'
p1572
aS'in'
p1573
aS'his'
p1574
aS'pamphlet'
p1575
aS'the'
p1576
aS'Liber'
p1577
aS'Arbetrio'
p1578
aaa(lp1579
g2
a(lp1580
S'in'
p1581
aS'his'
p1582
aS'pamphlet'
p1583
aS'the'
p1584
aS'Liber'
p1585
aS'Arbetrio'
p1586
aaa(lp1587
g2
a(lp1588
S'says'
p1589
aS'to'
p1590
aS'Luther'
p1591
aaa(lp1592
g2
a(lp1593
S'qu'
p1594
aS'because'
p1595
aS'it'
p1596
aS'is'
p1597
aS'addressed'
p1598
aS'to'
p1599
aS'Luther'
p1600
aS'you'
p1601
aS'see'
p1602
aaa(lp1603
g2
a(lp1604
S'he'
p1605
aS'says'
p1606
aS'to'
p1607
aS'Luther'
p1608
aaa(lp1609
g2
a(lp1610
S'uh'
p1611
aaa(lp1612
g2
a(lp1613
g52
aS'will'
p1614
aS'not'
p1615
aS'church'
p1616
aaa(lp1617
g2
a(lp1618
g52
aS'will'
p1619
aS'not'
p1620
aS'question'
p1621
aaa(lp1622
g2
a(lp1623
S'or'
p1624
ag52
aS'not'
p1625
aaa(lp1626
g2
a(lp1627
g52
aS'will'
p1628
aS'not'
p1629
aS'quote'
p1630
aaa(lp1631
g2
a(lp1632
g52
aS'will'
p1633
aS'not'
p1634
aS'quote'
p1635
aS'the'
p1636
aS'Church'
p1637
aS'Fathers'
p1638
aS'to'
p1639
aS'you'
p1640
aaa(lp1641
g2
a(lp1642
S'because'
p1643
ag52
aS'understand'
p1644
aS'you'
p1645
aS'accept'
p1646
aS'no'
p1647
aS'Church'
p1648
aS'Father'
p1649
aS'authority'
p1650
aaa(lp1651
g2
a(lp1652
S'if'
p1653
aS'it'
p1654
aS'is'
p1655
aS'in'
p1656
aS'disagreement'
p1657
aS'with'
p1658
aS'your'
p1659
aS'opinion'
p1660
aaa(lp1661
g2
a(lp1662
S'So'
p1663
ag52
aS'will'
p1664
aS'quote'
p1665
aS'the'
p1666
aS'only'
p1667
aS'authority'
p1668
aS'that'
p1669
aS'you'
p1670
aS'recognize'
p1671
aaa(lp1672
g2
a(lp1673
S'The'
p1674
aS'Holy'
p1675
aS'Scriptures'
p1676
aaa(lp1677
g2
a(lp1678
S'And'
p1679
aS'so'
p1680
aaa(lp1681
g2
a(lp1682
S'uh'
p1683
aaa(lp1684
g2
a(lp1685
S'exclusively'
p1686
aS'Erasmus'
p1687
aS'will'
p1688
aS'appeal'
p1689
aS'to'
p1690
aS'the'
p1691
aS'Scriptures'
p1692
aaa(lp1693
g2
a(lp1694
S'as'
p1695
aS'his'
p1696
aS'basis'
p1697
aaa(lp1698
g2
a(lp1699
S'When'
p1700
aS'God'
p1701
aS'created'
p1702
aS'Adam'
p1703
aS'and'
p1704
aS'Eve'
p1705
aS'in'
p1706
aS'the'
p1707
aS'garden'
p1708
aaa(lp1709
g2
a(lp1710
S'he'
p1711
aS'placed'
p1712
aS'them'
p1713
aS'in'
p1714
aS'the'
p1715
aS'garden'
p1716
aaa(lp1717
g2
a(lp1718
S'and'
p1719
aS'he'
p1720
aS'said'
p1721
aS'you'
p1722
aS'have'
p1723
ag61
aS'choice'
p1724
aaa(lp1725
g2
a(lp1726
S'Uh'
p1727
aaa(lp1728
g2
a(lp1729
S'you'
p1730
aS'have'
p1731
ag61
aS'choice'
p1732
aaa(lp1733
g2
a(lp1734
S'Do'
p1735
aS'not'
p1736
aS'eat'
p1737
aS'of'
p1738
aS'the'
p1739
aS'fruit'
p1740
aS'of'
p1741
aS'the'
p1742
aS'knowledge'
p1743
aS'of'
p1744
aS'the'
p1745
aS'good'
p1746
aaa(lp1747
g2
a(lp1748
S'of'
p1749
aS'the'
p1750
aS'tree'
p1751
aS'of'
p1752
aS'good'
p1753
aS'and'
p1754
aS'evil'
p1755
aaa(lp1756
g2
a(lp1757
S'for'
p1758
aS'on'
p1759
aS'the'
p1760
aS'day'
p1761
aS'ye'
p1762
aS'eat'
p1763
aS'thereof'
p1764
aaa(lp1765
g2
a(lp1766
S'ye'
p1767
aS'shall'
p1768
aS'surely'
p1769
aS'die'
p1770
aaa(lp1771
g2
a(lp1772
S'Now'
p1773
aaa(lp1774
g2
a(lp1775
S'do'
p1776
aS'not'
p1777
aS'do'
p1778
aS'that'
p1779
aaa(lp1780
g2
a(lp1781
S'and'
p1782
aS'obviously'
p1783
aS'God'
p1784
aS'must'
p1785
aS'have'
p1786
aS'given'
p1787
aaa(lp1788
g2
a(lp1789
S'the'
p1790
aS'first'
p1791
aS'created'
p1792
aS'pair'
p1793
aaa(lp1794
g2
a(lp1795
g61
aS'choice'
p1796
aaa(lp1797
g2
a(lp1798
S'Because'
p1799
aS'the'
p1800
aS'whole'
p1801
aS'system'
p1802
aS'of'
p1803
aS'reward'
p1804
aS'or'
p1805
aS'punishment'
p1806
aaa(lp1807
g2
a(lp1808
S'is'
p1809
aS'based'
p1810
aS'upon'
p1811
aS'the'
p1812
aS'decision'
p1813
aS'which'
p1814
aS'is'
p1815
aS'these'
p1816
aS'individuals'
p1817
aS'made'
p1818
aaa(lp1819
g2
a(lp1820
S'Or'
p1821
aaa(lp1822
g2
a(lp1823
S'when'
p1824
aS'Cain'
p1825
aS'slew'
p1826
aS'Abel'
p1827
aaa(lp1828
g2
a(lp1829
S'Um'
p1830
aaa(lp1831
g2
a(lp1832
S'if'
p1833
aS'you'
p1834
aS'do'
p1835
aS'well'
p1836
aaa(lp1837
g2
a(lp1838
S'Shall'
p1839
aS'you'
p1840
aS'not'
p1841
aS'be'
p1842
aS's'
p1843
aS'sustained'
p1844
aaa(lp1845
g2
a(lp1846
S'But'
p1847
aS'if'
p1848
aS'you'
p1849
aS'do'
p1850
aS'evil'
p1851
aaa(lp1852
g2
a(lp1853
S'Sin'
p1854
aS'crouches'
p1855
aS'at'
p1856
aS'the'
p1857
aS'door'
p1858
aaa(lp1859
g2
a(lp1860
S'If'
p1861
aS'you'
p1862
aS'do'
p1863
aS'well'
p1864
aaa(lp1865
g2
a(lp1866
S'Apparently'
p1867
aaa(lp1868
g2
a(lp1869
S'from'
p1870
aS'this'
p1871
aaa(lp1872
g2
a(lp1873
S'Cain'
p1874
aS'had'
p1875
aS'the'
p1876
aS'ability'
p1877
aaa(lp1878
g2
a(lp1879
S'even'
p1880
aS'after'
p1881
aS'the'
p1882
aS'mur'
p1883
aaa(lp1884
g2
a(lp1885
S'even'
p1886
aS'after'
p1887
aS'the'
p1888
aS'murder'
p1889
aS'of'
p1890
aS'Abel'
p1891
aaa(lp1892
g2
a(lp1893
S'he'
p1894
aS'had'
p1895
aS'the'
p1896
aS'ability'
p1897
aaa(lp1898
g2
a(lp1899
S'to'
p1900
aS'make'
p1901
ag61
aS'positive'
p1902
aS'choice'
p1903
aaa(lp1904
g2
a(lp1905
S'According'
p1906
aS'to'
p1907
aS'Erasmus'
p1908
aaa(lp1909
g2
a(lp1910
S'Thats'
p1911
aS'going'
p1912
aS'to'
p1913
aS'be'
p1914
aS'his'
p1915
aS'position'
p1916
aaa(lp1917
g2
a(lp1918
S'Well'
p1919
aS'Luther'
p1920
aaa(lp1921
g2
a(lp1922
S'um'
p1923
aaa(lp1924
g2
a(lp1925
S'Ill'
p1926
aS'g'
p1927
aS'Ill'
p1928
aS'Ill'
p1929
aS'tell'
p1930
aS'say'
p1931
aS'some'
p1932
aS'of'
p1933
aS'the'
p1934
aS'things'
p1935
aS'that'
p1936
aS'he'
p1937
aS'he'
p1938
aS'picked'
p1939
aS'first'
p1940
aaa(lp1941
g2
a(lp1942
S'Erasmus'
p1943
aS'picked'
p1944
aS'first'
p1945
aaa(lp1946
g2
a(lp1947
S'and'
p1948
aS'um'
p1949
aaa(lp1950
g2
a(lp1951
S'hes'
p1952
aS'gonna'
p1953
aS'go'
p1954
aS'all'
p1955
aS'through'
p1956
aS'the'
p1957
aS'Scriptures'
p1958
aaa(lp1959
g2
a(lp1960
S'and'
p1961
aS'hes'
p1962
aS'gonna'
p1963
aS'take'
p1964
aS'passages'
p1965
aS'like'
p1966
aS'this'
p1967
aaa(lp1968
g2
a(lp1969
S'um'
p1970
aaa(lp1971
g2
a(lp1972
S'return'
p1973
aS'return'
p1974
aS'the'
p1975
aS'prophets'
p1976
aS'said'
p1977
aaa(lp1978
g2
a(lp1979
S'did'
p1980
aS'they'
p1981
aS'not'
p1982
aS'to'
p1983
aS'ancient'
p1984
aS'Israel'
p1985
aaa(lp1986
g2
a(lp1987
S'Return'
p1988
aS'to'
p1989
aS'the'
p1990
aS'God'
p1991
aS'of'
p1992
aS'the'
p1993
aS'covenant'
p1994
aaa(lp1995
g2
a(lp1996
S'return'
p1997
aS'Hosea'
p1998
aS'pleads'
p1999
aS'with'
p2000
aS'Gomer'
p2001
aaa(lp2002
g2
a(lp2003
S'please'
p2004
aS'come'
p2005
aS'back'
p2006
aS't_you'
p2007
aS'see'
p2008
aaa(lp2009
g2
a(lp2010
S'And'
p2011
aS'uh'
p2012
aaa(lp2013
g2
a(lp2014
S'this'
p2015
aS'is'
p2016
aS'the'
p2017
aS'symbol'
p2018
aS'of'
p2019
aS'Israel'
p2020
aaa(lp2021
g2
a(lp2022
S'come'
p2023
aS'back'
p2024
aS'to'
p2025
aS'the'
p2026
aS'Lord'
p2027
aaa(lp2028
g2
a(lp2029
S'come'
p2030
aS'back'
p2031
aS'to'
p2032
aS'the'
p2033
aS'the'
p2034
aS'husband'
p2035
aS'of'
p2036
aS'the'
p2037
aS'covenant'
p2038
aaa(lp2039
g2
a(lp2040
S'come'
p2041
aS'back'
p2042
aS'to'
p2043
aS'the'
p2044
aS'one'
p2045
aS'who'
p2046
aS'called'
p2047
aS'you'
p2048
aS'and'
p2049
aS'summoned'
p2050
aS'you'
p2051
aaa(lp2052
g2
a(lp2053
S'its'
p2054
aS'the'
p2055
aaa(lp2056
g2
a(lp2057
S'Erasmus'
p2058
aS'says'
p2059
aS'the'
p2060
aS'whole'
p2061
aS'premise'
p2062
aS'is'
p2063
aaa(lp2064
g2
a(lp2065
S'that'
p2066
aS'you'
p2067
aS'have'
p2068
ag61
aS'an'
p2069
aS'ability'
p2070
aaa(lp2071
g2
a(lp2072
S'to'
p2073
aS'return'
p2074
aaa(lp2075
g2
a(lp2076
S'That'
p2077
aS'you'
p2078
aS'can'
p2079
aS'make'
p2080
aS'up'
p2081
aS'your'
p2082
aS'mind'
p2083
aaa(lp2084
g2
a(lp2085
S'to'
p2086
aS'change'
p2087
aS'the'
p2088
aS'course'
p2089
aS'that'
p2090
aS'youre'
p2091
aS'now'
p2092
aS'taking'
p2093
aaa(lp2094
g2
a(lp2095
S'And'
p2096
aS'that'
p2097
aS'you'
p2098
aS'can'
p2099
aS'go'
p2100
aS'this'
p2101
aS'way'
p2102
aaa(lp2103
g2
a(lp2104
S'or'
p2105
aS'you'
p2106
aS'can'
p2107
aS'go'
p2108
aS'that'
p2109
aS'way'
p2110
aaa(lp2111
g2
a(lp2112
S'And'
p2113
aS'uh'
p2114
aaa(lp2115
g2
a(lp2116
S'then'
p2117
aS'there'
p2118
aS'are'
p2119
aS'other'
p2120
aS'arguments'
p2121
aS'which'
p2122
aS'are'
p2123
aaa(lp2124
g2
a(lp2125
S'uh'
p2126
aaa(lp2127
g2
a(lp2128
S'heres'
p2129
aS'uh'
p2130
aaa(lp2131
g2
a(lp2132
S'heres'
p2133
aS'one'
p2134
aS'on'
p2135
aS'um'
p2136
aaa(lp2137
g2
a(lp2138
S'Ill'
p2139
aS'read'
p2140
aS'an'
p2141
aS'excerpt'
p2142
aaa(lp2143
g2
a(lp2144
S'in'
p2145
aS'this'
p2146
aS'uh'
p2147
aaa(lp2148
g2
a(lp2149
S'in'
p2150
aS'this'
p2151
aS'little'
p2152
aS'book'
p2153
aaa(lp2154
g2
a(lp2155
S'this'
p2156
aS'is'
p2157
aS'the'
p2158
aS'um'
p2159
aaa(lp2160
g2
a(lp2161
S'the'
p2162
aS'actual'
p2163
aS'uh'
p2164
aaa(lp2165
g2
a(lp2166
S'wr'
p2167
aS'writings'
p2168
aS'of'
p2169
aS'the'
p2170
ag1843
aS'f'
p2171
aS'freedom'
p2172
aS'of'
p2173
aS'the'
p2174
aS'will'
p2175
aaa(lp2176
g2
a(lp2177
S'heres'
p2178
aS'he'
p2179
aS'he'
p2180
aS'uses'
p2181
aS'Ecclesiastes'
p2182
aaa(lp2183
g2
a(lp2184
S'God'
p2185
aaa(lp2186
g2
a(lp2187
S'and'
p2188
aS'this'
p2189
aS'is'
p2190
ag61
aS'quote'
p2191
aaa(lp2192
g2
a(lp2193
S'from'
p2194
aS'the'
p2195
aS'b'
p2196
aaa(lp2197
g2
a(lp2198
S'from'
p2199
aS'the'
p2200
aS'book'
p2201
aaa(lp2202
g2
a(lp2203
S'READ'
p2204
aS'God'
p2205
aS'made'
p2206
aS'man'
p2207
aS'from'
p2208
aS'the'
p2209
aS'beginning'
p2210
aaa(lp2211
g2
a(lp2212
S'and'
p2213
aS'left'
p2214
aS'him'
p2215
aS'in'
p2216
aS'the'
p2217
aS'hand'
p2218
aS'of'
p2219
aS'his'
p2220
aS'own'
p2221
aS'counsel'
p2222
aaa(lp2223
g2
a(lp2224
S'He'
p2225
aS'added'
p2226
aS'his'
p2227
aS'commandments'
p2228
aaa(lp2229
g2
a(lp2230
S'and'
p2231
aS'precepts'
p2232
aaa(lp2233
g2
a(lp2234
S'If'
p2235
aS'thou'
p2236
aS'would'
p2237
aS'keep'
p2238
aS'the'
p2239
aS'commandments'
p2240
aaa(lp2241
g2
a(lp2242
S'and'
p2243
aS'perform'
p2244
aS'acceptable'
p2245
aS'fidelity'
p2246
aS'forever'
p2247
aaa(lp2248
g2
a(lp2249
S'they'
p2250
aS'shall'
p2251
aS'preserve'
p2252
aS'thee'
p2253
aaa(lp2254
g2
a(lp2255
S'He'
p2256
aS'hath'
p2257
aS'set'
p2258
aS'w'
p2259
aaa(lp2260
g2
a(lp2261
S'he'
p2262
aS'hath'
p2263
aS'set'
p2264
aS'water'
p2265
aS'and'
p2266
aS'fire'
p2267
aS'before'
p2268
aS'thee'
p2269
aaa(lp2270
g2
a(lp2271
S'Stretch'
p2272
aS'forth'
p2273
aS'thy'
p2274
aS'hand'
p2275
aaa(lp2276
g2
a(lp2277
S'to'
p2278
aS'which'
p2279
aS'thou'
p2280
aS'wilt'
p2281
aaa(lp2282
g2
a(lp2283
S'Before'
p2284
aS'man'
p2285
aS'is'
p2286
aS'life'
p2287
aS'and'
p2288
aS'death'
p2289
aaa(lp2290
g2
a(lp2291
S'Good'
p2292
aS'and'
p2293
aS'evil'
p2294
aaa(lp2295
g2
a(lp2296
S'That'
p2297
aS'which'
p2298
aS'he'
p2299
aS'shall'
p2300
aS'choose'
p2301
aaa(lp2302
g2
a(lp2303
S'shall'
p2304
aS'be'
p2305
aS'given'
p2306
aS'him'
p2307
aS'READ'
p2308
aaa(lp2309
g2
a(lp2310
S'Choose'
p2311
aaa(lp2312
g2
a(lp2313
S'So'
p2314
aS'Erasmuss'
p2315
aS'argument'
p2316
aS'is'
p2317
aaa(lp2318
g2
a(lp2319
S'you'
p2320
aS'have'
p2321
ag61
aS'right'
p2322
aS'to'
p2323
aS'choose'
p2324
aaa(lp2325
g2
a(lp2326
S'You'
p2327
aS'can'
p2328
aS'choose'
p2329
aaa(lp2330
g2
a(lp2331
S'And'
p2332
aS'therefore'
p2333
aS'if'
p2334
aS'you'
p2335
aS'can'
p2336
aS'choose'
p2337
aaa(lp2338
g2
a(lp2339
S'this'
p2340
aS'presupposes'
p2341
aS'that'
p2342
aS'you'
p2343
aS'have'
p2344
ag61
aS'free'
p2345
aS'will'
p2346
aaa(lp2347
g2
a(lp2348
S'In'
p2349
aS'any'
p2350
aS'rate'
p2351
aaa(lp2352
g2
a(lp2353
S'if'
p2354
aS'man'
p2355
aS'is'
p2356
aaa(lp2357
g2
a(lp2358
S'uh'
p2359
aaa(lp2360
g2
a(lp2361
S'if'
p2362
aS'there'
p2363
aS'is'
p2364
ag61
aS'necessity'
p2365
aS'in'
p2366
aS'mans'
p2367
aS'action'
p2368
aaa(lp2369
g2
a(lp2370
S'If'
p2371
aS'he'
p2372
aS'is'
p2373
aS'predetermined'
p2374
aS'to'
p2375
aS'sin'
p2376
aaa(lp2377
g2
a(lp2378
S'If'
p2379
aS'if'
p2380
aS'God'
p2381
aS'has'
p2382
aS'already'
p2383
aS'determined'
p2384
aaa(lp2385
g2
a(lp2386
S'that'
p2387
aS'this'
p2388
aS'person'
p2389
aS'commits'
p2390
aS'these'
p2391
aS'acts'
p2392
aaa(lp2393
g2
a(lp2394
S'Then'
p2395
aS'there'
p2396
aS'can'
p2397
aS'be'
p2398
aS'no'
p2399
aS'responsibility'
p2400
aS'on'
p2401
aS'the'
p2402
aS'part'
p2403
aS'of'
p2404
aS'the'
p2405
aS'actor'
p2406
aaa(lp2407
g2
a(lp2408
S'On'
p2409
aS'the'
p2410
aS'part'
p2411
aS'of'
p2412
aS'the'
p2413
aS'perpetrator'
p2414
aaa(lp2415
g2
a(lp2416
S'Because'
p2417
aS'how'
p2418
aS'can'
p2419
ag61
aS'person'
p2420
aS'be'
p2421
aS'held'
p2422
aS'responsible'
p2423
aS'for'
p2424
aS'deeds'
p2425
aaa(lp2426
g2
a(lp2427
S'which'
p2428
aS'he'
p2429
aS'does'
p2430
aaa(lp2431
g2
a(lp2432
S'if'
p2433
aS'he'
p2434
aS'mself'
p2435
aS'did'
p2436
aS'not'
p2437
aS'will'
p2438
aS'those'
p2439
aaa(lp2440
g2
a(lp2441
S'the'
p2442
ag2171
aaa(lp2443
g2
a(lp2444
S'if'
p2445
aaa(lp2446
g2
a(lp2447
S'in'
p2448
aS'other'
p2449
aS'words'
p2450
aaa(lp2451
g2
a(lp2452
S'he'
p2453
aS'may'
p2454
aS'will'
p2455
aS'those'
p2456
aS'deeds'
p2457
aaa(lp2458
g2
a(lp2459
S'but'
p2460
aS'those'
p2461
aaa(lp2462
g2
a(lp2463
S'th'
p2464
aS'those'
p2465
aS'deeds'
p2466
aS'were'
p2467
aS'imposed'
p2468
aS'upon'
p2469
aS'his'
p2470
aS'will'
p2471
aS'by'
p2472
ag61
aS'transcendent'
p2473
aS'force'
p2474
aaa(lp2475
g2
a(lp2476
S'If'
p2477
aS'that'
p2478
aS'is'
p2479
aS'the'
p2480
aS'case'
p2481
aaa(lp2482
g2
a(lp2483
S'then'
p2484
aS'there'
p2485
aS'is'
p2486
aS'really'
p2487
aS'no'
p2488
aS'freedom'
p2489
aS'of'
p2490
aS'the'
p2491
aS'will'
p2492
aaa(lp2493
g2
a(lp2494
S'And'
p2495
aS'if'
p2496
aS'uh'
p2497
aaa(lp2498
g2
a(lp2499
S'in'
p2500
aS'that'
p2501
aS'case'
p2502
aaa(lp2503
g2
a(lp2504
S'therefore'
p2505
aaa(lp2506
g2
a(lp2507
g61
aS'person'
p2508
aS'cannot'
p2509
aS'be'
p2510
aS'responsible'
p2511
aS'for'
p2512
aS'his'
p2513
aS'deeds'
p2514
aaa(lp2515
g2
a(lp2516
S'if'
p2517
aS'the'
p2518
aS'deeds'
p2519
aS'which'
p2520
aS'he'
p2521
aS'commits'
p2522
aaa(lp2523
g2
a(lp2524
S'have'
p2525
aS'already'
p2526
aS'been'
p2527
aS'eternally'
p2528
aS'foreordained'
p2529
aaa(lp2530
g2
a(lp2531
S'This'
p2532
aS'is'
p2533
aS'uh'
p2534
aaa(lp2535
g2
a(lp2536
S'this'
p2537
aS'is'
p2538
aS'going'
p2539
aS'to'
p2540
aS'be'
p2541
aS'then'
p2542
aS'Erasmuss'
p2543
aS'argument'
p2544
aaa(lp2545
g2
a(lp2546
S'ag'
p2547
aS'on'
p2548
aS'this'
p2549
aS'qu'
p2550
aS'on'
p2551
aS'this'
p2552
aS'question'
p2553
aS'of'
p2554
aS'the'
p2555
aS'freedom'
p2556
aS'of'
p2557
aS'the'
p2558
aS'will'
p2559
aaa(lp2560
g2
a(lp2561
S'But'
p2562
aS'uh'
p2563
aaa(lp2564
g2
a(lp2565
S'uh'
p2566
aaa(lp2567
g2
a(lp2568
S'well'
p2569
aS'look'
p2570
aS'at'
p2571
aS'another'
p2572
aS'couple'
p2573
aS'p'
p2574
aS'uh'
p2575
aS'of'
p2576
aS'his'
p2577
aS'passages'
p2578
aaa(lp2579
g2
a(lp2580
S'If'
p2581
aaa(lp2582
g2
a(lp2583
S'here'
p2584
aS'it'
p2585
aS'is'
p2586
aaa(lp2587
g2
a(lp2588
S'READ'
p2589
aS'If'
p2590
aS'the'
p2591
aS'will'
p2592
aS'were'
p2593
aS'not'
p2594
aS'free'
p2595
aaa(lp2596
g2
a(lp2597
S'sin'
p2598
aS'could'
p2599
aS'not'
p2600
aS'be'
p2601
aS'attributed'
p2602
aS'to'
p2603
aS'man'
p2604
aaa(lp2605
g2
a(lp2606
S'It'
p2607
aS'ceases'
p2608
aS'to'
p2609
aS'be'
p2610
aS'sin'
p2611
aaa(lp2612
g2
a(lp2613
S'If'
p2614
aS'it'
p2615
aS'is'
p2616
aS'not'
p2617
aS'voluntary'
p2618
aaa(lp2619
g2
a(lp2620
S'Free'
p2621
aS'will'
p2622
aS'is'
p2623
aS'not'
p2624
aS'extinct'
p2625
aaa(lp2626
g2
a(lp2627
S'Though'
p2628
aS'it'
p2629
aS'has'
p2630
aS'contracted'
p2631
ag61
aS'paralysis'
p2632
aS'READ'
p2633
aaa(lp2634
g2
a(lp2635
S'How'
p2636
aS'is'
p2637
aS'it'
p2638
aS'paralyzed'
p2639
aaa(lp2640
g2
a(lp2641
S'Well'
p2642
aS'its'
p2643
aS'paralyzed'
p2644
aS'by'
p2645
aS'the'
p2646
aS'fall'
p2647
aaa(lp2648
g2
a(lp2649
S'See'
p2650
aS'we'
p2651
aS'all'
p2652
aS'participate'
p2653
aS'in'
p2654
aS'the'
p2655
aS'Adamic'
p2656
aS'nature'
p2657
aaa(lp2658
g2
a(lp2659
S'And'
p2660
aS'this'
p2661
aS'Adamic'
p2662
aS'nature'
p2663
aaa(lp2664
g2
a(lp2665
S'uh'
p2666
aaa(lp2667
g2
a(lp2668
S'when'
p2669
aS'Adam'
p2670
aaa(lp2671
g2
a(lp2672
S'in'
p2673
aS'Adam'
p2674
aaa(lp2675
g2
a(lp2676
S'remember'
p2677
aS'the'
p2678
aS'New'
p2679
aS'Eng'
p2680
aS'New'
p2681
aS'England'
p2682
aS'primer'
p2683
aaa(lp2684
g2
a(lp2685
g494
aS'in'
p2686
aS'Adams'
p2687
aS'fall'
p2688
aaa(lp2689
g2
a(lp2690
S'we'
p2691
aS'sinned'
p2692
aS'all'
p2693
ag494
aaa(lp2694
g2
a(lp2695
S'So'
p2696
aaa(lp2697
g2
a(lp2698
S'this'
p2699
aS'Adamic'
p2700
aS'nature'
p2701
aS'has'
p2702
aS'been'
p2703
aaa(lp2704
g2
a(lp2705
S'has'
p2706
aS'been'
p2707
aS'passed'
p2708
aS'on'
p2709
aS'to'
p2710
aS'all'
p2711
aS'generations'
p2712
aS'of'
p2713
aS'humans'
p2714
aaa(lp2715
g2
a(lp2716
S'And'
p2717
aS'so'
p2718
aS'therefore'
p2719
aS'while'
p2720
aS'we'
p2721
aaa(lp2722
g2
a(lp2723
S'we'
p2724
aS'have'
p2725
ag61
aS'free'
p2726
aS'will'
p2727
aaa(lp2728
g2
a(lp2729
S'it'
p2730
aS'is'
p2731
aaa(lp2732
g2
a(lp2733
S'it'
p2734
aS'is'
p2735
aS'paralyzed'
p2736
aaa(lp2737
g2
a(lp2738
S'Its'
p2739
aS'not'
p2740
aS'the'
p2741
aS'will'
p2742
aS'that'
p2743
aS'was'
p2744
aS'there'
p2745
aaa(lp2746
g2
a(lp2747
S'Its'
p2748
aS'not'
p2749
aS'the'
p2750
aS'will'
p2751
aaa(lp2752
g2
a(lp2753
S'that'
p2754
aS'uh'
p2755
aaa(lp2756
g2
a(lp2757
S'that'
p2758
aS'Adam'
p2759
aS'had'
p2760
aaa(lp2761
g2
a(lp2762
S'Because'
p2763
aS'it'
p2764
aS'no'
p2765
aS'longer'
p2766
aS'has'
p2767
aS'the'
p2768
aS'freedom'
p2769
aS'that'
p2770
aS'Adam'
p2771
aS'had'
p2772
aaa(lp2773
g2
a(lp2774
S'It'
p2775
aS'is'
p2776
aS'cursed'
p2777
aS'by'
p2778
aS'sin'
p2779
aaa(lp2780
g2
a(lp2781
S'It'
p2782
aS'is'
p2783
aS'under'
p2784
aS'the'
p2785
aS'curse'
p2786
aS'of'
p2787
aS'sin'
p2788
aaa(lp2789
g2
a(lp2790
S'So'
p2791
aS'the'
p2792
aS'human'
p2793
aS'will'
p2794
aaa(lp2795
g2
a(lp2796
S'somehow'
p2797
aaa(lp2798
g2
a(lp2799
S'is'
p2800
aS'paralyzed'
p2801
aaa(lp2802
g2
a(lp2803
S'Uh'
p2804
aS'Erasmus'
p2805
aS'admits'
p2806
aS'that'
p2807
aaa(lp2808
g2
a(lp2809
S'And'
p2810
aS'then'
p2811
aaa(lp2812
g2
a(lp2813
S'Erasmus'
p2814
aS'will'
p2815
aS'say'
p2816
aaa(lp2817
g2
a(lp2818
S'that'
p2819
aS'um'
p2820
aaa(lp2821
g2
a(lp2822
S'God'
p2823
aS'then'
p2824
aS'enables'
p2825
aaa(lp2826
g2
a(lp2827
S'What'
p2828
aS'God'
p2829
aS'does'
p2830
aaa(lp2831
g2
a(lp2832
S'and'
p2833
aS'this'
p2834
aS'will'
p2835
aS'be'
p2836
aS'the'
p2837
aS'C'
p2838
aS'really'
p2839
aS'the'
p2840
aS'modern'
p2841
aS'Catholic'
p2842
aS'view'
p2843
aaa(lp2844
g2
a(lp2845
S'That'
p2846
aS'God'
p2847
aS'will'
p2848
aS'provide'
p2849
ag61
aS'prevenient'
p2850
aS'grace'
p2851
aaa(lp2852
g2
a(lp2853
S'A'
p2854
aS'prevenient'
p2855
aS'grace'
p2856
aaa(lp2857
g2
a(lp2858
S'That'
p2859
aS'is'
p2860
aS'in'
p2861
aS'other'
p2862
aS'words'
p2863
aaa(lp2864
g2
a(lp2865
S'even'
p2866
aS'though'
p2867
ag52
aS'am'
p2868
aS'unwilling'
p2869
aS'to'
p2870
aS'accept'
p2871
aS'the'
p2872
aS'gift'
p2873
aS'of'
p2874
aS'salvation'
p2875
aaa(lp2876
g2
a(lp2877
S'you'
p2878
aS'see'
p2879
aaa(lp2880
g2
a(lp2881
S'that'
p2882
aS'um'
p2883
aaa(lp2884
g2
a(lp2885
S'that'
p2886
aS'God'
p2887
aS'will'
p2888
aS'give'
p2889
aS'me'
p2890
ag61
aS'prevenient'
p2891
aS'grace'
p2892
aaa(lp2893
g2
a(lp2894
S'which'
p2895
aS'will'
p2896
aS'enable'
p2897
aS'me'
p2898
aaa(lp2899
g2
a(lp2900
S'to'
p2901
aS'move'
p2902
aS'toward'
p2903
aS'this'
p2904
aS'salvation'
p2905
aaa(lp2906
g2
a(lp2907
S'And'
p2908
aS'if'
p2909
ag52
aS'then'
p2910
aS'respond'
p2911
aaa(lp2912
g2
a(lp2913
S'positively'
p2914
aaa(lp2915
g2
a(lp2916
S'To'
p2917
aS'the'
p2918
aS'gift'
p2919
aS'of'
p2920
aS'God'
p2921
aaa(lp2922
g2
a(lp2923
S'then'
p2924
aS'God'
p2925
aS'will'
p2926
aS'extend'
p2927
aS'the'
p2928
aS'exemplary'
p2929
aS'grace'
p2930
aS'to'
p2931
aS'me'
p2932
aaa(lp2933
g2
a(lp2934
S'which'
p2935
aS'enables'
p2936
aS'me'
p2937
aS'to'
p2938
aS'acquire'
p2939
aS'salvation'
p2940
aaa(lp2941
g2
a(lp2942
S'So'
p2943
aS'prevenient'
p2944
aS'grace'
p2945
aaa(lp2946
g2
a(lp2947
S'will'
p2948
aS'put'
p2949
aS'you'
p2950
aS'on'
p2951
aS'the'
p2952
aS'path'
p2953
aaa(lp2954
g2
a(lp2955
S'If'
p2956
aS'you'
p2957
aS'respond'
p2958
aS'on'
p2959
aS'the'
p2960
aS'path'
p2961
aaa(lp2962
g2
a(lp2963
S'then'
p2964
aS'God'
p2965
aS'extends'
p2966
aS'the'
p2967
aS'exemplary'
p2968
aS'grace'
p2969
aaa(lp2970
g2
a(lp2971
S'which'
p2972
aS'will'
p2973
aS'lead'
p2974
aS'you'
p2975
aS'home'
p2976
aaa(lp2977
g2
a(lp2978
S'He'
p2979
aS'uses'
p2980
ag61
aS'little'
p2981
aS'story'
p2982
aaa(lp2983
g2
a(lp2984
g2854
aS'little'
p2985
aS'uh'
p2986
aS'uh'
p2987
aS'allegory'
p2988
aaa(lp2989
g2
a(lp2990
S'Or'
p2991
aS'figure'
p2992
ag52
aS'guess'
p2993
aaa(lp2994
g2
a(lp2995
S'theres'
p2996
ag61
aS'tot'
p2997
aaa(lp2998
g2
a(lp2999
g61
aS'toddler'
p3000
aaa(lp3001
g2
a(lp3002
S'Uh'
p3003
aaa(lp3004
g2
a(lp3005
S'but'
p3006
aS'hes'
p3007
aS'got'
p3008
aS'to'
p3009
aS'be'
p3010
aS'big'
p3011
aS'enough'
p3012
aS'to'
p3013
aS'appreciate'
p3014
aS'apples'
p3015
aaa(lp3016
g2
a(lp3017
S'Okay'
p3018
aaa(lp3019
g2
a(lp3020
S'Because'
p3021
aaa(lp3022
g2
a(lp3023
S'his'
p3024
aaa(lp3025
g2
a(lp3026
S'alright'
p3027
aaa(lp3028
g2
a(lp3029
S'because'
p3030
aS'thats'
p3031
aS'the'
p3032
aaa(lp3033
g2
a(lp3034
S'thats'
p3035
aS'part'
p3036
aS'of'
p3037
aS'the'
p3038
aS'story'
p3039
aaa(lp3040
g2
a(lp3041
S'There'
p3042
ag61
aS'nice'
p3043
aS'shiny'
p3044
aS'apple'
p3045
aaa(lp3046
g2
a(lp3047
S'Over'
p3048
aS'here'
p3049
aaa(lp3050
g2
a(lp3051
S'Over'
p3052
aS'here'
p3053
aaa(lp3054
g2
a(lp3055
S'you'
p3056
aS'see'
p3057
aaa(lp3058
g2
a(lp3059
S'And'
p3060
aS'this'
p3061
aS'little'
p3062
aS'tot'
p3063
aaa(lp3064
g2
a(lp3065
S'he'
p3066
aS'sees'
p3067
aS'the'
p3068
aS'apple'
p3069
aaa(lp3070
g2
a(lp3071
S'And'
p3072
aS'he'
p3073
aS'uh'
p3074
aaa(lp3075
g2
a(lp3076
S'he'
p3077
aS'needs'
p3078
aaa(lp3079
g2
a(lp3080
S'he'
p3081
aS'wants'
p3082
aS'to'
p3083
aS'get'
p3084
aS'to'
p3085
aS'this'
p3086
aS'apple'
p3087
aaa(lp3088
g2
a(lp3089
S'Um'
p3090
aaa(lp3091
g2
a(lp3092
S'so'
p3093
aS'he'
p3094
aS'starts'
p3095
aS'in'
p3096
aS'the'
p3097
aS'direction'
p3098
aS'of'
p3099
aS'the'
p3100
aS'apple'
p3101
aaa(lp3102
g2
a(lp3103
S'But'
p3104
aS'hes'
p3105
aS'very'
p3106
aS'unsteady'
p3107
aaa(lp3108
g2
a(lp3109
S'He'
p3110
aS'wavers'
p3111
aaa(lp3112
g2
a(lp3113
S'You'
p3114
aS'see'
p3115
aaa(lp3116
g2
a(lp3117
S'and'
p3118
aS'hes'
p3119
aS'not'
p3120
aaa(lp3121
g2
a(lp3122
S'so'
p3123
aaa(lp3124
g2
a(lp3125
S'what'
p3126
aS'is'
p3127
aS'the'
p3128
aS'prevenient'
p3129
aS'grace'
p3130
aaa(lp3131
g2
a(lp3132
S'The'
p3133
aS'prevenient'
p3134
aS'grace'
p3135
aS'is'
p3136
aS'the'
p3137
aS'adult'
p3138
aaa(lp3139
g2
a(lp3140
S'which'
p3141
aS'doesnt'
p3142
aS'take'
p3143
aS'him'
p3144
aS'to'
p3145
aS'the'
p3146
aS'apple'
p3147
aaa(lp3148
g2
a(lp3149
S'doesnt'
p3150
aS'lift'
p3151
aS'him'
p3152
aS'up'
p3153
aS'and'
p3154
aS'put'
p3155
aS'him'
p3156
aS'next'
p3157
aS'to'
p3158
aS'the'
p3159
aS'apple'
p3160
aaa(lp3161
g2
a(lp3162
g2196
aS'but'
p3163
aS'goes'
p3164
aS'along'
p3165
aS'with'
p3166
aS'him'
p3167
aaa(lp3168
g2
a(lp3169
S'just'
p3170
aS'guiding'
p3171
aS'him'
p3172
aaa(lp3173
g2
a(lp3174
S'making'
p3175
aS'sure'
p3176
aS'that'
p3177
aS'he'
p3178
aS'he'
p3179
aS'doesnt'
p3180
aS'fall'
p3181
aaa(lp3182
g2
a(lp3183
S'he'
p3184
aS'just'
p3185
aaa(lp3186
g2
a(lp3187
S'he'
p3188
aS'lets'
p3189
aS'him'
p3190
aS'get'
p3191
aS'there'
p3192
aaa(lp3193
g2
a(lp3194
S'But'
p3195
aS'he'
p3196
aS'just'
p3197
aS'more'
p3198
aS'or'
p3199
aS'less'
p3200
aaa(lp3201
g2
a(lp3202
S'supports'
p3203
aS'or'
p3204
aS'sustains'
p3205
aS'the'
p3206
aS'little'
p3207
aS'tot'
p3208
aaa(lp3209
g2
a(lp3210
S'in'
p3211
aS'his'
p3212
aS'motion'
p3213
aS'toward'
p3214
aS'the'
p3215
aS'apple'
p3216
aaa(lp3217
g2
a(lp3218
S'So'
p3219
aS'the'
p3220
aS'little'
p3221
aS'tot'
p3222
aS'you'
p3223
aS'see'
p3224
aaa(lp3225
g2
a(lp3226
S'Has'
p3227
aS'decided'
p3228
aS'he'
p3229
aS'wants'
p3230
aS'the'
p3231
aS'apple'
p3232
aaa(lp3233
g2
a(lp3234
S'Once'
p3235
aS'he'
p3236
aS'sees'
p3237
aS'it'
p3238
aaa(lp3239
g2
a(lp3240
S'uh'
p3241
aaa(lp3242
g2
a(lp3243
S'then'
p3244
aS'he'
p3245
aaa(lp3246
g2
a(lp3247
S'he'
p3248
aS'moves'
p3249
aS'toward'
p3250
aS'it'
p3251
aaa(lp3252
g2
a(lp3253
S'Prevenient'
p3254
aS'grace'
p3255
aS'assists'
p3256
aS'him'
p3257
aS'toward'
p3258
aS'that'
p3259
aS'apple'
p3260
aaa(lp3261
g2
a(lp3262
S'It'
p3263
aS'doesnt'
p3264
aaa(lp3265
g2
a(lp3266
S'as'
p3267
ag52
aS'said'
p3268
aaa(lp3269
g2
a(lp3270
S'it'
p3271
aS'doesnt'
p3272
aS'carry'
p3273
aS'him'
p3274
aS'there'
p3275
aaa(lp3276
g2
a(lp3277
S'it'
p3278
aS'doesnt'
p3279
aS'go'
p3280
aS'get'
p3281
aS'the'
p3282
aS'apple'
p3283
aS'and'
p3284
aS'bring'
p3285
aS'it'
p3286
aS'to'
p3287
aS'him'
p3288
aaa(lp3289
g2
a(lp3290
S'he'
p3291
aS'must'
p3292
aS'go'
p3293
aS'to'
p3294
aS'the'
p3295
aS'apple'
p3296
aaa(lp3297
g2
a(lp3298
S'But'
p3299
aS'he'
p3300
aS'goes'
p3301
aS'sustained'
p3302
aS'by'
p3303
aS'this'
p3304
aS'prevenient'
p3305
aS'grace'
p3306
aaa(lp3307
g2
a(lp3308
S'And'
p3309
aS'then'
p3310
aaa(lp3311
g2
a(lp3312
S'if'
p3313
aS'he'
p3314
aaa(lp3315
g2
a(lp3316
S'if'
p3317
aS'he'
p3318
aS'half'
p3319
aS'way'
p3320
aS'to'
p3321
aS'the'
p3322
aS'apple'
p3323
aaa(lp3324
g2
a(lp3325
S'if'
p3326
aS'he'
p3327
aS'decides'
p3328
aS'he'
p3329
aS'doesnt'
p3330
aS'want'
p3331
aS'it'
p3332
aaa(lp3333
g2
a(lp3334
S'if'
p3335
aS'he'
p3336
aS'if'
p3337
aS'he'
p3338
aS'sees'
p3339
aS'something'
p3340
aS'he'
p3341
aS'th'
p3342
aS'considers'
p3343
aS'more'
p3344
aS'attractive'
p3345
aaa(lp3346
g2
a(lp3347
S'and'
p3348
aS'he'
p3349
aS'goes'
p3350
aS'off'
p3351
aS'on'
p3352
ag61
aS'tangent'
p3353
aaa(lp3354
g2
a(lp3355
S'or'
p3356
aS'goes'
p3357
aS'off'
p3358
aS'in'
p3359
ag61
aS'different'
p3360
aS'direction'
p3361
aaa(lp3362
g2
a(lp3363
S'then'
p3364
aS'you'
p3365
aS'see'
p3366
aaa(lp3367
g2
a(lp3368
S'then'
p3369
aS'his'
p3370
aS'will'
p3371
aS'has'
p3372
aS'decided'
p3373
aS'that'
p3374
aS'he'
p3375
aS'does'
p3376
aS'not'
p3377
aS'want'
p3378
aS'to'
p3379
aS'cooperate'
p3380
aaa(lp3381
g2
a(lp3382
S'With'
p3383
aS'prevenient'
p3384
aS'grace'
p3385
aaa(lp3386
g2
a(lp3387
S'Luther'
p3388
aS'hated'
p3389
aS'that'
p3390
aS'word'
p3391
aS'cooperation'
p3392
aaa(lp3393
g2
a(lp3394
S'W'
p3395
aS'particularly'
p3396
aS'in'
p3397
aS'connection'
p3398
aS'with'
p3399
aS'grace'
p3400
aaa(lp3401
g2
a(lp3402
S'Now'
p3403
aS'Luthers'
p3404
aS'position'
p3405
aS'is'
p3406
aaa(lp3407
g2
a(lp3408
S'we'
p3409
aS'are'
p3410
aS'dead'
p3411
aS'in'
p3412
aS'trespasses'
p3413
aS'and'
p3414
aS'sin'
p3415
aaa(lp3416
g2
a(lp3417
S'You'
p3418
aS'see'
p3419
aaa(lp3420
g2
a(lp3421
S'There'
p3422
aS'is'
p3423
aS'that'
p3424
aS'can'
p3425
aS'come'
p3426
aS'to'
p3427
aS'us'
p3428
aaa(lp3429
g2
a(lp3430
S'you'
p3431
aS'see'
p3432
aS'now'
p3433
aS'Luther'
p3434
aS'came'
p3435
aS'to'
p3436
aS'his'
p3437
aS'reformation'
p3438
aS'remember'
p3439
aaa(lp3440
g2
a(lp3441
S'with'
p3442
aS'this'
p3443
aS'fear'
p3444
aS'of'
p3445
aS'the'
p3446
aS'righteousness'
p3447
aS'of'
p3448
aS'God'
p3449
aaa(lp3450
g2
a(lp3451
S'The'
p3452
aS'righteousness'
p3453
aS'of'
p3454
aS'God'
p3455
aaa(lp3456
g2
a(lp3457
S'And'
p3458
aS'Luther'
p3459
aS'all'
p3460
aS'through'
p3461
aS'his'
p3462
aS'monastic'
p3463
aS'life'
p3464
aaa(lp3465
g2
a(lp3466
S'up'
p3467
aS'until'
p3468
aS'around'
p3469
aS'fifteen'
p3470
aS'fifteen'
p3471
aaa(lp3472
g2
a(lp3473
S'is'
p3474
aS'probably'
p3475
aS'when'
p3476
aS'he'
p3477
aS'made'
p3478
aS'that'
p3479
aS'tower'
p3480
aS'discovery'
p3481
aaa(lp3482
g2
a(lp3483
S'That'
p3484
aS'socalled'
p3485
aS'L'
p3486
aS'Turmerlebnis'
p3487
ag3486
aaa(lp3488
g2
a(lp3489
S'The'
p3490
aS'tower'
p3491
aS'experience'
p3492
aaa(lp3493
g2
a(lp3494
S'Where'
p3495
aS'reading'
p3496
aS'in'
p3497
aS'Romans'
p3498
aS'one'
p3499
aS'seventeen'
p3500
aaa(lp3501
g2
a(lp3502
S'he'
p3503
aS'read'
p3504
aaa(lp3505
g2
a(lp3506
S'you'
p3507
aS'know'
p3508
aaa(lp3509
g2
a(lp3510
S'the'
p3511
aS'j'
p3512
aS'the'
p3513
aS'just'
p3514
aS'shall'
p3515
aS'live'
p3516
aS'by'
p3517
aS'faith'
p3518
aaa(lp3519
g2
a(lp3520
S'well'
p3521
aaa(lp3522
g2
a(lp3523
S'you'
p3524
aS'have'
p3525
aS'to'
p3526
aS'take'
p3527
aS'rea'
p3528
aS'really'
p3529
aS'read'
p3530
aS'Romans'
p3531
aS'one'
p3532
aS'sixteen'
p3533
aS'first'
p3534
aaa(lp3535
g2
a(lp3536
S'Um'
p3537
aaa(lp3538
g2
a(lp3539
S'READ'
p3540
ag52
aS'am'
p3541
aS'not'
p3542
aS'ashamed'
p3543
aS'of'
p3544
aS'the'
p3545
aS'Gospel'
p3546
aS'of'
p3547
aS'Jesus'
p3548
aS'Christ'
p3549
aaa(lp3550
g2
a(lp3551
S'For'
p3552
aS'it'
p3553
aS'is'
p3554
aS'the'
p3555
aS'power'
p3556
aS'of'
p3557
aS'God'
p3558
aS'onto'
p3559
aS'salvation'
p3560
aaa(lp3561
g2
a(lp3562
S'To'
p3563
aS'everyone'
p3564
aS'that'
p3565
aS'believeth'
p3566
aaa(lp3567
g2
a(lp3568
S'to'
p3569
aS'the'
p3570
aS'Jew'
p3571
aS'first'
p3572
aaa(lp3573
g2
a(lp3574
S'and'
p3575
aS'also'
p3576
aS'to'
p3577
aS'the'
p3578
aS'Greek'
p3579
aaa(lp3580
g2
a(lp3581
S'For'
p3582
aS'therein'
p3583
aS'READ'
p3584
aaa(lp3585
g2
a(lp3586
S'therein'
p3587
aaa(lp3588
g2
a(lp3589
S'it'
p3590
aS'can'
p3591
aS'only'
p3592
aS'refer'
p3593
aS'grammatically'
p3594
aS'to'
p3595
aS'Gospel'
p3596
aaa(lp3597
g2
a(lp3598
S'you'
p3599
aS'see'
p3600
aaa(lp3601
g2
a(lp3602
S'READ'
p3603
ag52
aS'am'
p3604
aS'not'
p3605
aS'ashamed'
p3606
aS'of'
p3607
aS'the'
p3608
aS'Gospel'
p3609
aaa(lp3610
g2
a(lp3611
S'For'
p3612
aS'therein'
p3613
aaa(lp3614
g2
a(lp3615
S'Is'
p3616
aS'the'
p3617
aS'righteousness'
p3618
aS'of'
p3619
aS'God'
p3620
aS'revealed'
p3621
aaa(lp3622
g2
a(lp3623
S'As'
p3624
aS'it'
p3625
aS'is'
p3626
aS'written'
p3627
aaa(lp3628
g2
a(lp3629
S'MRC'
p3630
aS'The'
p3631
aS'just'
p3632
aS'shall'
p3633
aS'live'
p3634
aS'by'
p3635
aS'faith'
p3636
aS'MRCREAD'
p3637
aaa(lp3638
g2
a(lp3639
S'And'
p3640
aaa(lp3641
g2
a(lp3642
S'when'
p3643
aS'he'
p3644
aS'discovered'
p3645
aS'this'
p3646
aaa(lp3647
g2
a(lp3648
S'he'
p3649
aS'had'
p3650
aS'read'
p3651
aS'this'
p3652
ag61
aS'hundred'
p3653
aS'times'
p3654
aaa(lp3655
g2
a(lp3656
S'But'
p3657
aS'this'
p3658
aS'one'
p3659
aS'time'
p3660
aS'when'
p3661
aS'he'
p3662
aS'read'
p3663
aS'it'
p3664
aaa(lp3665
g2
a(lp3666
S'he'
p3667
aS'said'
p3668
aaa(lp3669
g2
a(lp3670
S'suddenly'
p3671
aS'it'
p3672
aS'dawned'
p3673
aS'on'
p3674
aS'him'
p3675
aaa(lp3676
g2
a(lp3677
S'What'
p3678
aS'this'
p3679
aS'meant'
p3680
aaa(lp3681
g2
a(lp3682
g494
aS'And'
p3683
aS'this'
p3684
aS'place'
p3685
aS'in'
p3686
aS'Paul'
p3687
ag494
aaa(lp3688
g2
a(lp3689
S'Luther'
p3690
aS'said'
p3691
aaa(lp3692
g2
a(lp3693
g494
aS'Became'
p3694
aS'for'
p3695
aS'me'
p3696
aaa(lp3697
g2
a(lp3698
S'the'
p3699
aS'gate'
p3700
aS'of'
p3701
aS'paradise'
p3702
ag494
aaa(lp3703
g2
a(lp3704
g3486
aS'Es'
p3705
aS'ging'
p3706
aS'mir'
p3707
aS'ein'
p3708
aS'Licht'
p3709
aS'auf'
p3710
ag3486
aaa(lp3711
g2
a(lp3712
S'The'
p3713
aS'light'
p3714
aS'broke'
p3715
aS'in'
p3716
aS'on'
p3717
aS'me'
p3718
aaa(lp3719
g2
a(lp3720
S'And'
p3721
aS'what'
p3722
aS'was'
p3723
aS'this'
p3724
aS'light'
p3725
aaa(lp3726
g2
a(lp3727
S'That'
p3728
aS'the'
p3729
aS'righteousness'
p3730
aS'of'
p3731
aS'God'
p3732
aaa(lp3733
g2
a(lp3734
S'is'
p3735
aS'passive'
p3736
aS'righteousness'
p3737
aaa(lp3738
g2
a(lp3739
S'Its'
p3740
aS'not'
p3741
aS'the'
p3742
aS'righteousness'
p3743
aaa(lp3744
g2
a(lp3745
S'you'
p3746
aS'see'
p3747
aaa(lp3748
g2
a(lp3749
S'Luther'
p3750
aS'said'
p3751
aaa(lp3752
g2
a(lp3753
g494
ag52
aS'hated'
p3754
aS'that'
p3755
aS'that'
p3756
aS'phrase'
p3757
aS'righteousness'
p3758
aS'of'
p3759
aS'God'
p3760
aaa(lp3761
g2
a(lp3762
S'What'
p3763
aS'does'
p3764
aS'righteousness'
p3765
aS'of'
p3766
aS'God'
p3767
aS'mean'
p3768
aaa(lp3769
g2
a(lp3770
S'Righteousness'
p3771
aS'of'
p3772
aS'God'
p3773
aS'means'
p3774
aaa(lp3775
g2
a(lp3776
S'God'
p3777
aS'is'
p3778
aS'holy'
p3779
aaa(lp3780
g2
a(lp3781
S'And'
p3782
aS'Im'
p3783
ag61
aS'sinner'
p3784
aaa(lp3785
g2
a(lp3786
S'And'
p3787
ag52
aS'can'
p3788
aS'never'
p3789
aS'stand'
p3790
aS'in'
p3791
aS'his'
p3792
aS'presence'
p3793
aaa(lp3794
g2
a(lp3795
S'And'
p3796
aS'the'
p3797
aS'gulf'
p3798
aS'between'
p3799
aS'us'
p3800
aS'can'
p3801
aS'never'
p3802
aS'be'
p3803
aS'bridged'
p3804
aaa(lp3805
g2
a(lp3806
S'and'
p3807
aS'hes'
p3808
aS'gonna'
p3809
aS'cast'
p3810
aS'me'
p3811
aS'into'
p3812
aS'Hell'
p3813
aaa(lp3814
g2
a(lp3815
S'because'
p3816
aS'of'
p3817
aS'my'
p3818
aS'sin'
p3819
aaa(lp3820
g2
a(lp3821
S'What'
p3822
aS'shall'
p3823
ag52
aS'do'
p3824
aS'to'
p3825
aS'earn'
p3826
aS'the'
p3827
aS'righteousness'
p3828
aS'of'
p3829
aS'God'
p3830
ag494
aaa(lp3831
g2
a(lp3832
S'So'
p3833
aS'you'
p3834
aS'see'
p3835
aS'he'
p3836
aS'was'
p3837
aS'constantly'
p3838
aS'preoccupied'
p3839
aS'with'
p3840
aS'this'
p3841
aS'thought'
p3842
aaa(lp3843
g2
a(lp3844
S'of'
p3845
aS'somehow'
p3846
aaa(lp3847
g2
a(lp3848
S'satisfying'
p3849
aS'the'
p3850
aS'righteousness'
p3851
aS'of'
p3852
aS'God'
p3853
aaa(lp3854
g2
a(lp3855
S'Through'
p3856
aS'some'
p3857
aS'work'
p3858
aaa(lp3859
g2
a(lp3860
S'Through'
p3861
aS'some'
p3862
aS'indulgence'
p3863
aaa(lp3864
g2
a(lp3865
S'Through'
p3866
aS'some'
p3867
aS'prayer'
p3868
aaa(lp3869
g2
a(lp3870
S'S_through'
p3871
aS'through'
p3872
aS'through'
p3873
aS'renunciation'
p3874
aaa(lp3875
g2
a(lp3876
S'Through'
p3877
aS'fasting'
p3878
aaa(lp3879
g2
a(lp3880
S'Through'
p3881
aS'vigils'
p3882
aaa(lp3883
g2
a(lp3884
S'You'
p3885
aS'know'
p3886
aaa(lp3887
g2
a(lp3888
S'he'
p3889
aS'says'
p3890
aaa(lp3891
g2
a(lp3892
S'if'
p3893
ag61
aS'monk'
p3894
aaa(lp3895
g2
a(lp3896
S'if'
p3897
ag61
aS'm'
p3898
ag3898
aaa(lp3899
g2
a(lp3900
g494
aS'if'
p3901
aS'ever'
p3902
ag61
aS'monk'
p3903
aS'couldve'
p3904
aS'gained'
p3905
aS'heaven'
p3906
aS'through'
p3907
aS'his'
p3908
aS'monkery'
p3909
aaa(lp3910
g2
a(lp3911
S'it'
p3912
aS'would'
p3913
aS'have'
p3914
aS'been'
p3915
ag52
aaa(lp3916
g2
a(lp3917
S'You'
p3918
aS'see'
p3919
aaa(lp3920
S'MANY'
p3921
a(lp3922
aa(lp3923
S'FOSTER'
p3924
a(lp3925
g52
aS'mean'
p3926
aaa(lp3927
g3924
a(lp3928
g52
aS'mean'
p3929
aaa(lp3930
g3924
a(lp3931
S'if'
p3932
aS'ever'
p3933
ag61
aS'monk'
p3934
aaa(lp3935
g3924
a(lp3936
S'couldve'
p3937
aS'gained'
p3938
aS'heaven'
p3939
aS'through'
p3940
aS'his'
p3941
aS'monkery'
p3942
aaa(lp3943
g3924
a(lp3944
S'it'
p3945
aS'wouldve'
p3946
aS'been'
p3947
ag52
aaa(lp3948
S'AUD'
p3949
a(lp3950
aa(lp3951
S'FOSTER'
p3952
a(lp3953
S'Because'
p3954
aS'he'
p3955
aS'd'
p3956
aS'he'
p3957
aS'did'
p3958
aS'everything'
p3959
aaa(lp3960
g3952
a(lp3961
S'that'
p3962
aS'he'
p3963
aS'thought'
p3964
aS'would'
p3965
aaa(lp3966
g3952
a(lp3967
S'would'
p3968
aS'make'
p3969
aS'God'
p3970
aS'respond'
p3971
aS'sympathetically'
p3972
aS'to'
p3973
aS'him'
p3974
aaa(lp3975
g3952
a(lp3976
S'And'
p3977
aS'and'
p3978
aS'pacify'
p3979
aS'this'
p3980
aS'righteousness'
p3981
aaa(lp3982
g3952
a(lp3983
S'And'
p3984
aS'he'
p3985
aS'was'
p3986
aS'always'
p3987
aS'miserable'
p3988
aaa(lp3989
g3952
a(lp3990
S'And'
p3991
aS'then'
p3992
aS'he'
p3993
aS'discovered'
p3994
aaa(lp3995
g3952
a(lp3996
S'its'
p3997
aS'nothing'
p3998
aS'that'
p3999
ag52
aS'do'
p4000
aaa(lp4001
g3952
a(lp4002
S'Its'
p4003
aS'what'
p4004
ag52
aS'accept'
p4005
aS'in'
p4006
aS'faith'
p4007
aaa(lp4008
g3952
a(lp4009
S'Namely'
p4010
aaa(lp4011
g3952
a(lp4012
S'the'
p4013
aS'sacrifice'
p4014
aS'of'
p4015
aS'Christ'
p4016
aaa(lp4017
g3952
a(lp4018
S'the'
p4019
aS'vicarious'
p4020
aS'sacrifice'
p4021
aS'of'
p4022
aS'Christ'
p4023
aaa(lp4024
g3952
a(lp4025
S'for'
p4026
aS'my'
p4027
aS'sin'
p4028
aS'on'
p4029
aS'the'
p4030
aS'cross'
p4031
aaa(lp4032
g3952
a(lp4033
g52
aS'reach'
p4034
aS'out'
p4035
aaa(lp4036
g3952
a(lp4037
g52
aS'accept'
p4038
aS'that'
p4039
aaa(lp4040
g3952
a(lp4041
S'as'
p4042
aS'my'
p4043
aaa(lp4044
g3952
a(lp4045
S'and'
p4046
aS'and'
p4047
aS'then'
p4048
aS'the'
p4049
aS'righteousness'
p4050
aS'of'
p4051
aS'God'
p4052
aaa(lp4053
g3952
a(lp4054
S'is'
p4055
aS'imputed'
p4056
aS'to'
p4057
aS'me'
p4058
aaa(lp4059
g3952
a(lp4060
S'Its'
p4061
aS'given'
p4062
aS'to'
p4063
aS'me'
p4064
aaa(lp4065
g3952
a(lp4066
S'The'
p4067
aS'MRC'
p4068
aS'the'
p4069
aS'just'
p4070
aS'shall'
p4071
aS'live'
p4072
aS'by'
p4073
aS'faith'
p4074
aS'MRC'
p4075
aaa(lp4076
g3952
a(lp4077
S'And'
p4078
aS'so'
p4079
aaa(lp4080
g3952
a(lp4081
S'this'
p4082
aS'life'
p4083
aS'in'
p4084
aS'God'
p4085
aS'comes'
p4086
aS'to'
p4087
aS'you'
p4088
aS'not'
p4089
aaa(lp4090
g3952
a(lp4091
S'ot'
p4092
aaa(lp4093
g3952
a(lp4094
S'its'
p4095
aS'not'
p4096
aS'God'
p4097
aaa(lp4098
g3952
a(lp4099
S'th'
p4100
aS'this'
p4101
ag3486
aS'deus'
p4102
aS'absconditus'
p4103
ag3486
aaa(lp4104
g3952
a(lp4105
S'this'
p4106
aS'concealed'
p4107
aS'God'
p4108
aaa(lp4109
g3952
a(lp4110
S'this'
p4111
aS'angry'
p4112
aS'God'
p4113
aaa(lp4114
g3952
a(lp4115
S'this'
p4116
aS'God'
p4117
aS'whos'
p4118
aS'waiting'
p4119
aS'to'
p4120
aS'throw'
p4121
aS'you'
p4122
aS'into'
p4123
aS'Hell'
p4124
aS'at'
p4125
aS'any'
p4126
aS'minute'
p4127
aaa(lp4128
g3952
a(lp4129
S'that'
p4130
aS'that'
p4131
aS'was'
p4132
aS'the'
p4133
aS'image'
p4134
aS'that'
p4135
aS'Luther'
p4136
aS'had'
p4137
aaa(lp4138
g3952
a(lp4139
S'And'
p4140
aS'now'
p4141
aS'you'
p4142
aS'see'
p4143
aaa(lp4144
g3952
a(lp4145
S'and'
p4146
aS'and'
p4147
aS'and'
p4148
aS'works'
p4149
aS'were'
p4150
aS'associated'
p4151
aS'with'
p4152
aS'this'
p4153
aaa(lp4154
g3952
a(lp4155
S'His'
p4156
aS'works'
p4157
aaa(lp4158
g3952
a(lp4159
S'What'
p4160
aS'do'
p4161
ag52
aS'have'
p4162
aS'to'
p4163
aS'do'
p4164
aaa(lp4165
g3952
a(lp4166
S'what'
p4167
aS'do'
p4168
ag52
aS'have'
p4169
aS'to'
p4170
aS'do'
p4171
aS'to'
p4172
aS'placate'
p4173
aS'him'
p4174
aaa(lp4175
g3952
a(lp4176
S'What'
p4177
aS'do'
p4178
ag52
aS'have'
p4179
aS'to'
p4180
aS'do'
p4181
aS'to'
p4182
aS'please'
p4183
aS'him'
p4184
aaa(lp4185
g3952
a(lp4186
S'And'
p4187
aS'now'
p4188
aS'you'
p4189
aS'see'
p4190
aS'the'
p4191
aS'breakthrough'
p4192
aS'comes'
p4193
aaa(lp4194
g3952
a(lp4195
S'So'
p4196
aaa(lp4197
g3952
a(lp4198
S'Luther'
p4199
aaa(lp4200
g3952
a(lp4201
S'from'
p4202
aS'his'
p4203
aS'point'
p4204
aS'of'
p4205
aS'view'
p4206
aaa(lp4207
g3952
a(lp4208
S'you'
p4209
aS'see'
p4210
aaa(lp4211
g3952
a(lp4212
S'hes'
p4213
aS'coming'
p4214
aS'at'
p4215
aS'it'
p4216
aS'from'
p4217
aS'an'
p4218
aS'angle'
p4219
aS'of'
p4220
ag61
aS'of'
p4221
aS'an'
p4222
aS'Augustinian'
p4223
aS'monk'
p4224
aaa(lp4225
g3952
a(lp4226
S'Hes'
p4227
aS'coming'
p4228
aS'at'
p4229
aS'it'
p4230
aS'from'
p4231
aS'that'
p4232
aaa(lp4233
g3952
a(lp4234
S'With'
p4235
aS'this'
p4236
aS'travail'
p4237
aS'of'
p4238
aS'soul'
p4239
aaa(lp4240
g3952
a(lp4241
S'This'
p4242
aS'agony'
p4243
aS'and'
p4244
aS'anguish'
p4245
aS'of'
p4246
aS'looking'
p4247
aS'for'
p4248
aS'this'
p4249
aS'God'
p4250
aaa(lp4251
g3952
a(lp4252
S'So'
p4253
aaa(lp4254
g3952
a(lp4255
S'he'
p4256
aS'is'
p4257
aaa(lp4258
g3952
a(lp4259
S'after'
p4260
aS'this'
p4261
aS'discovery'
p4262
aaa(lp4263
g3952
a(lp4264
S'anything'
p4265
aS'in'
p4266
aS'theology'
p4267
aaa(lp4268
g3952
a(lp4269
S'human'
p4270
aS'effort'
p4271
aaa(lp4272
g3952
a(lp4273
S'or'
p4274
aS'human'
p4275
aS'work'
p4276
aaa(lp4277
g3952
a(lp4278
S'sufficient'
p4279
aS'to'
p4280
aS'please'
p4281
aS'God'
p4282
aaa(lp4283
g3952
a(lp4284
S'or'
p4285
aS'to'
p4286
aS'placate'
p4287
aS'God'
p4288
aaa(lp4289
g3952
a(lp4290
S'No'
p4291
aaa(lp4292
g3952
a(lp4293
S'There'
p4294
aS'is'
p4295
aS'nothing'
p4296
aS'you'
p4297
aS'can'
p4298
aS'do'
p4299
aS'to'
p4300
aS'please'
p4301
aS'God'
p4302
aaa(lp4303
g3952
a(lp4304
S'God'
p4305
aS'loves'
p4306
aS'you'
p4307
aaa(lp4308
g3952
a(lp4309
S'he'
p4310
aS'gives'
p4311
aS'you'
p4312
aS'his'
p4313
aS'grace'
p4314
aaa(lp4315
g3952
a(lp4316
S'out'
p4317
aS'of'
p4318
aS'his'
p4319
aS'grace'
p4320
aaa(lp4321
g3952
a(lp4322
S'and'
p4323
aS'nothing'
p4324
aS'from'
p4325
aS'your'
p4326
aS'merit'
p4327
aaa(lp4328
g3952
a(lp4329
S'So'
p4330
aS'the'
p4331
aS'human'
p4332
aS'will'
p4333
aS'cannot'
p4334
aaa(lp4335
g3952
a(lp4336
S'you'
p4337
aS'cannot'
p4338
aS'decide'
p4339
aS'to'
p4340
aS'accept'
p4341
aS'God'
p4342
aaa(lp4343
g3952
a(lp4344
S'and'
p4345
aS'his'
p4346
aS'grace'
p4347
aaa(lp4348
g3952
a(lp4349
S'Even'
p4350
aS'the'
p4351
aS'gift'
p4352
aS'of'
p4353
aS'faith'
p4354
aaa(lp4355
g3952
a(lp4356
S'Its'
p4357
aS'interesting'
p4358
aS'in'
p4359
aS'um'
p4360
aaa(lp4361
g3952
a(lp4362
S'in'
p4363
aS'Bonifas'
p4364
aaa(lp4365
g3952
a(lp4366
S'in'
p4367
aS'his'
p4368
aS'book'
p4369
aS'uh'
p4370
aaa(lp4371
g3952
a(lp4372
S'now'
p4373
aS'hes'
p4374
ag61
aS'French'
p4375
aS'Huguenot'
p4376
aaa(lp4377
g3952
a(lp4378
S'So'
p4379
aS'you'
p4380
aS'would'
p4381
aS'expect'
p4382
aS'it'
p4383
aaa(lp4384
g3952
a(lp4385
S'But'
p4386
aS'its'
p4387
aS'still'
p4388
aaa(lp4389
g3952
a(lp4390
S'it'
p4391
aS'comes'
p4392
aS'in'
p4393
aS'an'
p4394
aS'interesting'
p4395
aS'scene'
p4396
aaa(lp4397
g3952
a(lp4398
S'Where'
p4399
aS'hes'
p4400
aS'in'
p4401
aS'one'
p4402
aS'of'
p4403
aS'the'
p4404
aS'camps'
p4405
aaa(lp4406
g3952
a(lp4407
S'Its'
p4408
aS'in'
p4409
aS'the'
p4410
aS'second'
p4411
aS'world'
p4412
aS'war'
p4413
aaa(lp4414
g3952
a(lp4415
S'hes'
p4416
aS'in'
p4417
aS'the'
p4418
aS'concentration'
p4419
aS'camp'
p4420
aS'in'
p4421
aS'Germany'
p4422
aaa(lp4423
g3952
a(lp4424
S'and'
p4425
aS'its'
p4426
aS'very'
p4427
aaa(lp4428
g3952
a(lp4429
g2196
aS'its'
p4430
ag61
aS'beautifully'
p4431
aS'written'
p4432
aS'book'
p4433
aaa(lp4434
g3952
a(lp4435
S'And'
p4436
aS'and'
p4437
aS'he'
p4438
aaa(lp4439
g3952
a(lp4440
S'uh'
p4441
aaa(lp4442
g3952
a(lp4443
S'hes'
p4444
aS'in'
p4445
aS'this'
p4446
aS'scene'
p4447
aaa(lp4448
g3952
a(lp4449
S'in'
p4450
aS'this'
p4451
aS'camp'
p4452
aaa(lp4453
g3952
a(lp4454
S'and'
p4455
aaa(lp4456
g3952
a(lp4457
S'you'
p4458
aS'know'
p4459
aaa(lp4460
g3952
a(lp4461
S'you'
p4462
aS'just'
p4463
aS'wanna'
p4464
aS'give'
p4465
aS'up'
p4466
aaa(lp4467
g3952
a(lp4468
S'a_I'
p4469
aS'mean'
p4470
aaa(lp4471
g3952
a(lp4472
S'_every'
p4473
aS'day'
p4474
aS'is'
p4475
aaa(lp4476
g3952
a(lp4477
S'youre'
p4478
aS'hanging'
p4479
aS'onto'
p4480
aS'life'
p4481
aS'by'
p4482
aS'your'
p4483
aS'fingernails'
p4484
aaa(lp4485
g3952
a(lp4486
S'And'
p4487
aS'um'
p4488
aaa(lp4489
g3952
a(lp4490
S'he'
p4491
aS'said'
p4492
aaa(lp4493
g3952
a(lp4494
S'every'
p4495
aS'day'
p4496
aaa(lp4497
g3952
a(lp4498
S'we'
p4499
aS'just'
p4500
aS'lived'
p4501
aS'for'
p4502
aS'one'
p4503
aS'day'
p4504
aaa(lp4505
g3952
a(lp4506
S'We'
p4507
aS'lived'
p4508
aS'one'
p4509
aS'day'
p4510
aS'at'
p4511
ag61
aS'time'
p4512
aaa(lp4513
g3952
a(lp4514
S'And'
p4515
aS'then'
p4516
aS'he'
p4517
aS'said'
p4518
aS'it'
p4519
aS'dawned'
p4520
aS'on'
p4521
aS'me'
p4522
aaa(lp4523
g3952
a(lp4524
S'that'
p4525
aS'um'
p4526
aaa(lp4527
g3952
a(lp4528
g52
ag52
aS'prayed'
p4529
aaa(lp4530
g3952
a(lp4531
g52
aS'lifted'
p4532
aS'up'
p4533
aS'my'
p4534
aS'voice'
p4535
aS'to'
p4536
aS'the'
p4537
aS'Lord'
p4538
aaa(lp4539
g3952
a(lp4540
S'we'
p4541
aS'prayed'
p4542
aS'together'
p4543
aaa(lp4544
g3952
a(lp4545
S'and'
p4546
ag52
aS'prayed'
p4547
aaa(lp4548
g3952
a(lp4549
S'and'
p4550
aaa(lp4551
g3952
a(lp4552
S'and'
p4553
aS'he'
p4554
aS'said'
p4555
aS'then'
p4556
aS'it'
p4557
aS'came'
p4558
aS'to'
p4559
aS'me'
p4560
aaa(lp4561
g3952
a(lp4562
S'That'
p4563
aS'what'
p4564
aS'sustains'
p4565
aS'me'
p4566
aS'in'
p4567
aS'this'
p4568
aS'situation'
p4569
aaa(lp4570
g3952
a(lp4571
S'in'
p4572
aS'this'
p4573
aS'concentration'
p4574
aS'camp'
p4575
aaa(lp4576
g3952
a(lp4577
S'what'
p4578
aS'sustains'
p4579
aS'me'
p4580
aaa(lp4581
g3952
a(lp4582
S'is'
p4583
aS'my'
p4584
aaa(lp4585
g3952
a(lp4586
S'MRC'
p4587
aS'my'
p4588
aS'deep'
p4589
aS'faith'
p4590
aS'in'
p4591
aS'God'
p4592
aS'MRC'
p4593
aaa(lp4594
g3952
a(lp4595
g973
aS'And'
p4596
aS'then'
p4597
aS'he'
p4598
aS'said'
p4599
aaa(lp4600
g3952
a(lp4601
S'and'
p4602
aS'then'
p4603
aS'it'
p4604
aS'dawned'
p4605
aS'on'
p4606
aS'me'
p4607
aaa(lp4608
g3952
a(lp4609
S'that'
p4610
aS'this'
p4611
aS'deep'
p4612
aS'faith'
p4613
aaa(lp4614
g3952
a(lp4615
S'which'
p4616
ag52
aS'have'
p4617
aS'in'
p4618
aS'God'
p4619
aaa(lp4620
g3952
a(lp4621
S'is'
p4622
aS'not'
p4623
aS'my'
p4624
aS'creation'
p4625
aaa(lp4626
g3952
a(lp4627
S'Well'
p4628
aS'thats'
p4629
aS'interesting'
p4630
aaa(lp4631
g3952
a(lp4632
S'isnt'
p4633
aS'it'
p4634
aaa(lp4635
g3952
a(lp4636
S'This'
p4637
aS'faith'
p4638
aS'was'
p4639
aS'given'
p4640
aS'me'
p4641
aaa(lp4642
g3952
a(lp4643
g52
aS'did'
p4644
aS'not'
p4645
aS'create'
p4646
aS'it'
p4647
aaa(lp4648
g3952
a(lp4649
g52
aS'did'
p4650
aS'not'
p4651
aS'conjure'
p4652
aS'it'
p4653
aS'up'
p4654
aaa(lp4655
g3952
a(lp4656
S'it'
p4657
aS'came'
p4658
aS'to'
p4659
aS'me'
p4660
aaa(lp4661
g3952
a(lp4662
S'It'
p4663
aS'was'
p4664
aS'given'
p4665
aS'to'
p4666
aS'me'
p4667
aaa(lp4668
g3952
a(lp4669
S'Thats'
p4670
aS'the'
p4671
aS'testimony'
p4672
aS'of'
p4673
ag61
aS'Huguenot'
p4674
aaa(lp4675
g3952
a(lp4676
S'Inmate'
p4677
aS'in'
p4678
ag61
aS'concentration'
p4679
aS'camp'
p4680
ag973
aaa(lp4681
g3952
a(lp4682
S'Well'
p4683
aS'lets'
p4684
aS'take'
p4685
ag61
aS'break'
p4686
aaa.