(lp0
(lp1
S'PHIL'
p2
a(lp3
S'But'
p4
aaa(lp5
g2
a(lp6
S'X'
p7
aS'But'
p8
ag7
aS'anyways'
p9
aaa(lp10
g2
a(lp11
S'back'
p12
aS'to'
p13
aS'the'
p14
aS'the'
p15
aS'first'
p16
aS'thing'
p17
aaa(lp18
S'BRAD'
p19
a(lp20
S'Okay'
p21
aaa(lp22
S'PHIL'
p23
a(lp24
S'what'
p25
aS'we'
p26
aS'were'
p27
aS'talking'
p28
aS'about'
p29
aS'was'
p30
aaa(lp31
S'BRAD'
p32
a(lp33
S'Yeah'
p34
aaa(lp35
S'PHIL'
p36
a(lp37
aa(lp38
S'BRAD'
p39
a(lp40
S'Ive'
p41
aS'gotta'
p42
aS'pick'
p43
aS'up'
p44
aS'Pat'
p45
aaa(lp46
S'PHIL'
p47
a(lp48
aa(lp49
S'BRAD'
p50
a(lp51
S'I'
p52
aS'l'
p53
aaa(lp54
g50
a(lp55
g52
aS'dropped'
p56
aS'her'
p57
aS'off'
p58
aS'at'
p59
aS'the'
p60
aS'bookkeeper'
p61
aaa(lp62
S'PHIL'
p63
a(lp64
S'WRITING'
p65
aaa(lp66
S'BRAD'
p67
a(lp68
S'Uh'
p69
aaa(lp70
S'PHIL'
p71
a(lp72
S'Uh'
p73
ag52
aS'would'
p74
aS'prefer'
p75
aS'that'
p76
aS'WRITING'
p77
aaa(lp78
g71
a(lp79
S'that'
p80
aS'you'
p81
aS'were'
p82
aS'there'
p83
aS'on'
p84
aS'one'
p85
aS'hand'
p86
aaa(lp87
g71
a(lp88
S'because'
p89
ag52
aS'think'
p90
aS'that'
p91
aS'it'
p92
aS'would'
p93
aS'be'
p94
aS'most'
p95
aS'expedient'
p96
aaa(lp97
g71
a(lp98
S'But'
p99
ag52
aS'think'
p100
aaa(lp101
g71
a(lp102
S'what'
p103
aS'was'
p104
aS'felt'
p105
aaa(lp106
g71
a(lp107
S'was'
p108
aS'that'
p109
aS'at'
p110
aS'this'
p111
aS'point'
p112
aaa(lp113
g71
a(lp114
S'rather'
p115
aS'than'
p116
aS'ha'
p117
aaa(lp118
g71
a(lp119
S'than'
p120
aS'create'
p121
aaa(lp122
g71
a(lp123
g52
aS'dont'
p124
aS'really'
p125
aS'f'
p126
aS'find'
p127
aS'it'
p128
aS'to'
p129
aS'be'
p130
aaa(lp131
g71
a(lp132
S'you'
p133
aS'know'
p134
aaa(lp135
g71
a(lp136
S'a'
p137
aS'confrontation'
p138
aaa(lp139
g71
a(lp140
S'by'
p141
aS'any'
p142
aS'means'
p143
aaa(lp144
g71
a(lp145
S'but'
p146
aaa(lp147
S'BRAD'
p148
a(lp149
S'Mhm'
p150
aaa(lp151
S'PHIL'
p152
a(lp153
g52
aS'just'
p154
aS'think'
p155
aaa(lp156
g152
a(lp157
S'they'
p158
aS'wanna'
p159
aS'be'
p160
aS'able'
p161
aS'to'
p162
aS'just'
p163
aS'kind'
p164
aS'of'
p165
aS'figure'
p166
aS'out'
p167
aaa(lp168
g152
a(lp169
g52
aS'think'
p170
aS'our'
p171
aS'board'
p172
aS'eh'
p173
aaa(lp174
g152
a(lp175
S'quite'
p176
aS'frankly'
p177
aS'we'
p178
aS'have'
p179
aS'more'
p180
aS'problems'
p181
aS'to'
p182
aS'resolve'
p183
aS'interior'
p184
aaa(lp185
g152
a(lp186
S'than'
p187
aS'we'
p188
aS'do'
p189
aS'outside'
p190
aS'of'
p191
aS'it'
p192
aaa(lp193
S'BRAD'
p194
a(lp195
S'Hm'
p196
aaa(lp197
S'PHIL'
p198
a(lp199
g52
aS'think'
p200
aS'most'
p201
aS'of'
p202
aS'it'
p203
aS'is'
p204
aS'just'
p205
aS'attitudes'
p206
aaa(lp207
S'BRAD'
p208
a(lp209
S'Hm'
p210
aaa(lp211
S'PHIL'
p212
a(lp213
g52
aS'think'
p214
aaa(lp215
g212
a(lp216
S'you'
p217
aS'know'
p218
aaa(lp219
g212
a(lp220
S'like'
p221
ag52
aS'said'
p222
aaa(lp223
g212
a(lp224
S'what'
p225
aS'we'
p226
aS'need'
p227
aS'to'
p228
aS'do'
p229
aaa(lp230
g212
a(lp231
S'is'
p232
aS'this'
p233
aS'board'
p234
aS'has'
p235
aS'to'
p236
aS'realize'
p237
aaa(lp238
g212
a(lp239
S'in'
p240
aS'my'
p241
aS'opinion'
p242
aS'that'
p243
aaa(lp244
g212
a(lp245
S'that'
p246
aS'they'
p247
aS'have'
p248
aS'to'
p249
aS'come'
p250
aS'to'
p251
aS'grips'
p252
aS'with'
p253
aaa(lp254
g212
a(lp255
S'the'
p256
aS'fact'
p257
aS'that'
p258
aS'they'
p259
aS'are'
p260
aS'responsible'
p261
aaa(lp262
g212
a(lp263
S'for'
p264
aS'basically'
p265
aS'what'
p266
aS'theyve'
p267
aS'created'
p268
aaa(lp269
S'BRAD'
p270
a(lp271
S'Mhm'
p272
aaa(lp273
S'PHIL'
p274
a(lp275
S'Okay'
p276
aaa(lp277
g274
a(lp278
S'You'
p279
aS'know'
p280
aaa(lp281
S'BRAD'
p282
a(lp283
S'Mhm'
p284
aaa(lp285
S'PHIL'
p286
a(lp287
S'You'
p288
aS'cant'
p289
aS'th'
p290
aS'penalize'
p291
aS'somebody'
p292
aS'for'
p293
aS'm'
p294
aaa(lp295
S'BRAD'
p296
a(lp297
S'And'
p298
aS'the'
p299
aS'Vetters'
p300
aS'are'
p301
aS'somewhat'
p302
aS'responsible'
p303
aaa(lp304
S'PHIL'
p305
a(lp306
S'Thats'
p307
aS'right'
p308
aaa(lp309
S'BRAD'
p310
a(lp311
S'and'
p312
aS'thats'
p313
aS'uh'
p314
aaa(lp315
S'PHIL'
p316
a(lp317
g7
aS'Mhm'
p318
ag7
aaa(lp319
S'BRAD'
p320
a(lp321
S'well'
p322
aS'it'
p323
aS'was'
p324
aS'far'
p325
aS'beyond'
p326
aS'our'
p327
aS'control'
p328
aaa(lp329
S'PHIL'
p330
a(lp331
S'Well'
p332
aaa(lp333
g330
a(lp334
S'and'
p335
aS'the'
p336
aS'thing'
p337
aS'is'
p338
ag52
aS'mean'
p339
aaa(lp340
S'BRAD'
p341
a(lp342
S'That'
p343
aS'uh'
p344
aaa(lp345
S'PHIL'
p346
a(lp347
S'were'
p348
aS'were'
p349
ag137
aS'different'
p350
aS'board'
p351
aaa(lp352
g346
a(lp353
S'We'
p354
aS'are'
p355
aS'not'
p356
aS'the'
p357
aS'same'
p358
aaa(lp359
S'BRAD'
p360
a(lp361
S'Yeah'
p362
aaa(lp363
S'PHIL'
p364
a(lp365
S'And'
p366
aS'we'
p367
aS'have'
p368
aS'to'
p369
aS'do'
p370
aS'that'
p371
aaa(lp372
S'BRAD'
p373
a(lp374
S'Thats'
p375
aS'right'
p376
aaa(lp377
S'PHIL'
p378
a(lp379
S'but'
p380
aS'we'
p381
aS'have'
p382
aS'to'
p383
aS'realize'
p384
aS'that'
p385
aS'theres'
p386
aaa(lp387
g378
a(lp388
S'the'
p389
aS'faults'
p390
aS'here'
p391
aaa(lp392
g378
a(lp393
S'we'
p394
aS'have'
p395
aS'to'
p396
aS'claim'
p397
aS'responsibilities'
p398
aaa(lp399
g378
a(lp400
g52
aS'mean'
p401
aaa(lp402
S'BRAD'
p403
a(lp404
S'Mhm'
p405
aaa(lp406
S'PHIL'
p407
a(lp408
g52
aS'think'
p409
aS'there'
p410
aS'was'
p411
aaa(lp412
g407
a(lp413
S'theres'
p414
aS'manners'
p415
aS'of'
p416
aS'of'
p417
aS'speaking'
p418
aS'that'
p419
ag52
aS'was'
p420
aS'very'
p421
aS'outspoken'
p422
aS'about'
p423
aaa(lp424
g407
a(lp425
S'at'
p426
aS'this'
p427
aS'meeting'
p428
aaa(lp429
g407
a(lp430
S'you'
p431
aS'know'
p432
aaa(lp433
g407
a(lp434
S'w'
p435
aS'that'
p436
ag52
aS'talked'
p437
aS'to'
p438
aS'uh'
p439
aS'Bill'
p440
aS'and'
p441
aS'Carmela'
p442
aS'and'
p443
aS'Nancy'
p444
aS'about'
p445
aaa(lp446
g407
a(lp447
S'you'
p448
aS'know'
p449
aaa(lp450
g407
a(lp451
S'and'
p452
aS'they'
p453
aaa(lp454
g407
a(lp455
g7
aaa(lp456
g407
a(lp457
S'we'
p458
aS'did'
p459
aaa(lp460
g407
a(lp461
S'they'
p462
aS'asked'
p463
aS'me'
p464
aS'to'
p465
aS'meet'
p466
aS'with'
p467
aS'them'
p468
aS'about'
p469
aS'Teresas'
p470
aS'thing'
p471
aaa(lp472
S'BRAD'
p473
a(lp474
S'Mhm'
p475
aaa(lp476
S'PHIL'
p477
a(lp478
aa(lp479
g477
a(lp480
S'that'
p481
ag52
aS'find'
p482
aS'v'
p483
aS'really'
p484
aaa(lp485
g477
a(lp486
S'nothing'
p487
aaa(lp488
g477
a(lp489
S'to'
p490
aS'be'
p491
aS'honest'
p492
aaa(lp493
g477
a(lp494
S'nothing'
p495
aS'of'
p496
aS'any'
p497
aS'validity'
p498
aaa(lp499
S'BRAD'
p500
a(lp501
S'Well'
p502
ag52
aaa(lp503
g500
a(lp504
S'you'
p505
aS'know'
p506
aaa(lp507
S'PHIL'
p508
a(lp509
S'Okay'
p510
aaa(lp511
S'BRAD'
p512
a(lp513
g52
aS'have'
p514
aS'spoken'
p515
aS'twice'
p516
aS'with'
p517
aS'Teresa'
p518
aaa(lp519
S'PHIL'
p520
a(lp521
S'Did'
p522
aS'you'
p523
aaa(lp524
g520
a(lp525
S'Unhunh'
p526
aaa(lp527
S'BRAD'
p528
a(lp529
S'Yeah'
p530
aaa(lp531
S'PHIL'
p532
a(lp533
aa(lp534
S'BRAD'
p535
a(lp536
S'And'
p537
ag52
aS'told'
p538
aS'her'
p539
aS'exactly'
p540
aaa(lp541
g535
a(lp542
S'well'
p543
aaa(lp544
g535
a(lp545
S'i'
p546
aS't'
p547
ag52
aS'simply'
p548
aS'told'
p549
aS'her'
p550
aS'what'
p551
aaa(lp552
g535
a(lp553
S'what'
p554
ag52
aS'know'
p555
aS'to'
p556
aS'have'
p557
aS'happ'
p558
aaa(lp559
g535
a(lp560
S'and'
p561
ag52
aaa(lp562
g535
a(lp563
S'its'
p564
aaa(lp565
g535
a(lp566
S'to'
p567
aS'me'
p568
aS'its'
p569
aS'n'
p570
aS'just'
p571
aS'ludicrous'
p572
aaa(lp573
g535
a(lp574
S'and'
p575
ag52
aaa(lp576
g535
a(lp577
S'anyway'
p578
aaa(lp579
g535
a(lp580
S'we'
p581
aaa(lp582
g535
a(lp583
g435
aS'we'
p584
aS'went'
p585
aS'through'
p586
aS'the'
p587
aS'whole'
p588
aS'thing'
p589
aaa(lp590
g535
a(lp591
S'and'
p592
aaa(lp593
g535
a(lp594
S'uh'
p595
aaa(lp596
g535
a(lp597
S'and'
p598
aS'and'
p599
ag52
aS'also'
p600
aS'said'
p601
aaa(lp602
g535
a(lp603
S'that'
p604
aS'it'
p605
aS'would'
p606
aS'probably'
p607
aaa(lp608
g535
a(lp609
S'be'
p610
aS'brought'
p611
aS'up'
p612
aaa(lp613
g535
a(lp614
S'at'
p615
aS'board'
p616
aS'retreat'
p617
aaa(lp618
g535
a(lp619
S'or'
p620
aaa(lp621
g535
a(lp622
S'D_I'
p623
aS'dont'
p624
aS'know'
p625
aaa(lp626
g535
a(lp627
S'Uh'
p628
aaa(lp629
S'PHIL'
p630
a(lp631
S'Well'
p632
ag52
aaa(lp633
g630
a(lp634
S'Im'
p635
aS'gonna'
p636
aS'write'
p637
ag137
aS'letter'
p638
aS'to'
p639
aS'Teresa'
p640
aaa(lp641
S'BRAD'
p642
a(lp643
S'Uh'
p644
aaa(lp645
S'PHIL'
p646
a(lp647
S'just'
p648
aS'to'
p649
aS'tell'
p650
aS'her'
p651
aS'that'
p652
ag53
aaa(lp653
g646
a(lp654
S'you'
p655
aS'know'
p656
aaa(lp657
g646
a(lp658
S'd'
p659
aS'Thank'
p660
aS'you'
p661
aS'for'
p662
aS'your'
p663
ag53
aaa(lp664
g646
a(lp665
S'you'
p666
aS'know'
p667
aaa(lp668
g646
a(lp669
S'y'
p670
aS'what'
p671
aS'youve'
p672
aS'done'
p673
aS'for'
p674
aS'the'
p675
aS'board'
p676
aS'and'
p677
aS'so'
p678
aS'forth'
p679
aaa(lp680
S'BRAD'
p681
a(lp682
S'Mhm'
p683
aaa(lp684
S'PHIL'
p685
a(lp686
S'and'
p687
aS'just'
p688
aS'say'
p689
aaa(lp690
g685
a(lp691
S'you'
p692
aS'know'
p693
aaa(lp694
g685
a(lp695
S'Im'
p696
aS'hoping'
p697
aaa(lp698
g685
a(lp699
S'we'
p700
aS'are'
p701
aS'gonna'
p702
aS'address'
p703
aS'this'
p704
aS'letter'
p705
aS'of'
p706
aS'concerns'
p707
aS'that'
p708
aS'youve'
p709
aS'given'
p710
aS'us'
p711
aaa(lp712
S'BRAD'
p713
a(lp714
S'Mhm'
p715
aaa(lp716
S'PHIL'
p717
a(lp718
S'Um'
p719
aaa(lp720
g717
a(lp721
S'shes'
p722
aS'asked'
p723
aS'that'
p724
aaa(lp725
g717
a(lp726
S'you'
p727
aS'know'
p728
aaa(lp729
g717
a(lp730
S'she'
p731
aS'want'
p732
aaa(lp733
g717
a(lp734
S'she'
p735
aS'didnt'
p736
aS'really'
p737
aS'want'
p738
aS'her'
p739
aS'things'
p740
aS'to'
p741
aS'be'
p742
aS'kind'
p743
aS'of'
p744
aS'everywhere'
p745
aaa(lp746
g717
a(lp747
S'You'
p748
aS'know'
p749
aS'those'
p750
aS'th'
p751
aaa(lp752
S'BRAD'
p753
a(lp754
S'Mhm'
p755
aaa(lp756
S'PHIL'
p757
a(lp758
S'what'
p759
aS'her'
p760
aS'comments'
p761
aaa(lp762
g757
a(lp763
S'She'
p764
aS'really'
p765
aS'wanted'
p766
aS'em'
p767
aS'to'
p768
aS'be'
p769
aS'within'
p770
aS'this'
p771
aS'TAP'
p772
aS'p'
p773
aS'committee'
p774
aS'TAP'
p775
aaa(lp776
S'BRAD'
p777
a(lp778
S'Mhm'
p779
aaa(lp780
S'PHIL'
p781
a(lp782
S'my'
p783
ag126
aaa(lp784
S'BRAD'
p785
a(lp786
S'Summarized'
p787
aaa(lp788
g785
a(lp789
S'or'
p790
ag7
aS'something'
p791
aS'like'
p792
aS'that'
p793
ag52
aS'guess'
p794
ag7
aaa(lp795
S'PHIL'
p796
a(lp797
S'S'
p798
aS'they'
p799
aS'were'
p800
aS'her'
p801
aS'summar'
p802
aaa(lp803
g796
a(lp804
S'her'
p805
aS'summary'
p806
aaa(lp807
g796
a(lp808
S'th'
p809
aS'you'
p810
aS'know'
p811
aaa(lp812
g796
a(lp813
S'She'
p814
aaa(lp815
g796
a(lp816
S'kyu'
p817
aS'very'
p818
ag294
aS'very'
p819
aS'concisely'
p820
aaa(lp821
S'BRAD'
p822
a(lp823
S'Yeah'
p824
aaa(lp825
S'PHIL'
p826
a(lp827
g52
aS'dont'
p828
aS'know'
p829
aS'if'
p830
aS'she'
p831
aS'put'
p832
aS'it'
p833
aS'together'
p834
aaa(lp835
g826
a(lp836
S'or'
p837
aS'if'
p838
aS'nancy'
p839
aS'put'
p840
aS'it'
p841
aS'together'
p842
aaa(lp843
g826
a(lp844
S'But'
p845
aaa(lp846
S'BRAD'
p847
a(lp848
S'Mhm'
p849
aaa(lp850
S'PHIL'
p851
a(lp852
S'you'
p853
aS'know'
p854
aaa(lp855
g851
a(lp856
S'that'
p857
aS'just'
p858
aS'says'
p859
aaa(lp860
g851
a(lp861
S'they'
p862
aaa(lp863
g851
a(lp864
g52
ag659
aaa(lp865
g851
a(lp866
g52
aS'really'
p867
aS'had'
p868
ag137
aS'ho'
p869
aaa(lp870
g851
a(lp871
S'everybody'
p872
aS'there'
p873
aaa(lp874
g851
a(lp875
S'including'
p876
aS'Nancy'
p877
aaa(lp878
S'BRAD'
p879
a(lp880
S'Mhm'
p881
aaa(lp882
S'PHIL'
p883
a(lp884
S'You'
p885
aS'know'
p886
aaa(lp887
g883
a(lp888
S'Uh'
p889
aS'had'
p890
aS'very'
p891
aS'little'
p892
aS'to'
p893
aS'to'
p894
aaa(lp895
g883
a(lp896
S'you'
p897
aS'know'
p898
aaa(lp899
g883
a(lp900
S'to'
p901
aS'agree'
p902
aS'with'
p903
aS'the'
p904
aS'validity'
p905
aaa(lp906
g883
a(lp907
S'Okay'
p908
aaa(lp909
S'BRAD'
p910
a(lp911
S'Yeah'
p912
aaa(lp913
S'PHIL'
p914
a(lp915
S'It'
p916
aS'was'
p917
ag137
aS'matter'
p918
aS'of'
p919
aaa(lp920
g914
a(lp921
g52
aS'just'
p922
aS'dont'
p923
aaa(lp924
g914
a(lp925
S'you'
p926
aS'know'
p927
aaa(lp928
g914
a(lp929
S'see'
p930
aS'where'
p931
aS'this'
p932
aS'is'
p933
aS'coming'
p934
aS'from'
p935
aaa(lp936
S'BRAD'
p937
a(lp938
S'Yeah'
p939
aaa(lp940
g937
a(lp941
S'Its'
p942
aaa(lp943
S'PHIL'
p944
a(lp945
S'Okay'
p946
aaa(lp947
g944
a(lp948
S'you'
p949
aS'know'
p950
aaa(lp951
g944
a(lp952
S'these'
p953
aS'are'
p954
aaa(lp955
g944
a(lp956
S'these'
p957
aS'are'
p958
aS'rooted'
p959
aaa(lp960
S'BRAD'
p961
a(lp962
g52
aS'know'
p963
aaa(lp964
g961
a(lp965
S'Jeez'
p966
aaa(lp967
S'PHIL'
p968
a(lp969
S'obviously'
p970
aS'in'
p971
ag137
aS'personal'
p972
aS'issue'
p973
aaa(lp974
S'BRAD'
p975
a(lp976
S'Yeah'
p977
aaa(lp978
S'PHIL'
p979
a(lp980
S'Um'
p981
aaa(lp982
g979
a(lp983
S'Teresa'
p984
aS'is'
p985
ag137
aS'very'
p986
aS'sensitive'
p987
aS'person'
p988
aaa(lp989
g979
a(lp990
S'she'
p991
ag126
aaa(lp992
g979
a(lp993
S'you'
p994
aS'know'
p995
aaa(lp996
g979
a(lp997
g52
aS'dont'
p998
aaa(lp999
g979
a(lp1000
g52
aS'have'
p1001
aS'no'
p1002
aS'doubt'
p1003
aS'that'
p1004
aS'she'
p1005
aS'believes'
p1006
aaa(lp1007
g979
a(lp1008
S'what'
p1009
aS'happened'
p1010
aS'happened'
p1011
aaa(lp1012
g979
a(lp1013
S'But'
p1014
aaa(lp1015
S'BRAD'
p1016
a(lp1017
S'Well'
p1018
aS'but'
p1019
aaa(lp1020
S'PHIL'
p1021
a(lp1022
S'My'
p1023
aS'my'
p1024
aS'feeling'
p1025
aS'is'
p1026
aaa(lp1027
g1021
a(lp1028
S'as'
p1029
ag52
aS'told'
p1030
aS'them'
p1031
aaa(lp1032
g1021
a(lp1033
g52
aS'said'
p1034
aaa(lp1035
g1021
a(lp1036
S'if'
p1037
aS'its'
p1038
aS'that'
p1039
aS'issue'
p1040
aaa(lp1041
g1021
a(lp1042
g52
aS'says'
p1043
aaa(lp1044
g1021
a(lp1045
S'you'
p1046
aS'know'
p1047
aaa(lp1048
g1021
a(lp1049
g52
aS'said'
p1050
aS'lets'
p1051
aS'just'
p1052
aS'get'
p1053
aS'real'
p1054
aS'here'
p1055
aaa(lp1056
g1021
a(lp1057
g52
aS'said'
p1058
aaa(lp1059
S'BRAD'
p1060
a(lp1061
S'Yeah'
p1062
aaa(lp1063
S'PHIL'
p1064
a(lp1065
S'we'
p1066
aS'all'
p1067
aS'know'
p1068
aS'Brad'
p1069
aaa(lp1070
g1064
a(lp1071
g52
aS'said'
p1072
aaa(lp1073
g1064
a(lp1074
S'we'
p1075
aS'all'
p1076
aS'know'
p1077
aS'Teresa'
p1078
aaa(lp1079
g1064
a(lp1080
g52
aS'said'
p1081
aaa(lp1082
g1064
a(lp1083
S'and'
p1084
ag52
aS'dont'
p1085
aS'know'
p1086
aS'anybody'
p1087
aS'on'
p1088
aS'this'
p1089
aS'board'
p1090
aS'who'
p1091
aS'does'
p1092
aS'not'
p1093
aS'tiptoe'
p1094
aS'around'
p1095
aS'Teresa'
p1096
aaa(lp1097
g1064
a(lp1098
S'Period'
p1099
aaa(lp1100
S'BRAD'
p1101
a(lp1102
S'Yeah'
p1103
aaa(lp1104
g1101
a(lp1105
S'Unhunh'
p1106
aaa(lp1107
S'PHIL'
p1108
a(lp1109
aa(lp1110
g1108
a(lp1111
g52
aS'says'
p1112
aaa(lp1113
g1108
a(lp1114
g52
aS'dont'
p1115
aS'know'
p1116
aS'anybody'
p1117
aS'who'
p1118
aS'would'
p1119
aS'even'
p1120
aS'go'
p1121
aS'as'
p1122
aS'far'
p1123
aS'as'
p1124
aS'to'
p1125
aS'say'
p1126
aS'anything'
p1127
aS'of'
p1128
aS'that'
p1129
aS'nature'
p1130
aaa(lp1131
g1108
a(lp1132
g52
aS'said'
p1133
aaa(lp1134
g1108
a(lp1135
S'and'
p1136
aaa(lp1137
g1108
a(lp1138
S'there'
p1139
aaa(lp1140
g1108
a(lp1141
S'it'
p1142
aS'was'
p1143
aS'very'
p1144
aS'clear'
p1145
aaa(lp1146
g1108
a(lp1147
S'You'
p1148
aS'know'
p1149
aaa(lp1150
g1108
a(lp1151
S'She'
p1152
aS'kept'
p1153
aS'saying'
p1154
aaa(lp1155
g1108
a(lp1156
S'prefacing'
p1157
aS'everything'
p1158
aS'with'
p1159
aaa(lp1160
g1108
a(lp1161
S'you'
p1162
aS'know'
p1163
aaa(lp1164
g1108
a(lp1165
S'this'
p1166
aS'is'
p1167
aS'not'
p1168
ag137
aS'personal'
p1169
aS'attack'
p1170
aaa(lp1171
g1108
a(lp1172
S'This'
p1173
aS'is'
p1174
aS'not'
p1175
ag137
aS'personal'
p1176
aS'vendetta'
p1177
aaa(lp1178
S'BRAD'
p1179
a(lp1180
S'Yeah'
p1181
aaa(lp1182
g1179
a(lp1183
S'yeah'
p1184
aS'yeah'
p1185
aS'yeah'
p1186
aaa(lp1187
g1179
a(lp1188
S'Right'
p1189
aaa(lp1190
g1179
a(lp1191
S'Right'
p1192
aaa(lp1193
S'PHIL'
p1194
a(lp1195
S'Which'
p1196
aS'tells'
p1197
aS'you'
p1198
aaa(lp1199
g1194
a(lp1200
S'that'
p1201
aS'it'
p1202
aS'is'
p1203
aaa(lp1204
S'BRAD'
p1205
a(lp1206
S'Yeah'
p1207
aaa(lp1208
S'PHIL'
p1209
a(lp1210
S'Thats'
p1211
aS'immediately'
p1212
aS'what'
p1213
aS'it'
p1214
aS'said'
p1215
aaa(lp1216
g1209
a(lp1217
S'And'
p1218
aS'thats'
p1219
aS'what'
p1220
aS'everybody'
p1221
aS'perceived'
p1222
aS'it'
p1223
aaa(lp1224
S'BRAD'
p1225
a(lp1226
S'Yeah'
p1227
aaa(lp1228
g1225
a(lp1229
S'There'
p1230
aaa(lp1231
S'PHIL'
p1232
a(lp1233
aa(lp1234
S'BRAD'
p1235
a(lp1236
S'Yeah'
p1237
aaa(lp1238
g1235
a(lp1239
S'there'
p1240
aS'have'
p1241
aS'been'
p1242
aS'some'
p1243
aS'uh'
p1244
aaa(lp1245
g1235
a(lp1246
S'Ill'
p1247
aS'te'
p1248
aaa(lp1249
g1235
a(lp1250
S'well'
p1251
aS'it'
p1252
aS'goes'
p1253
aS'back'
p1254
aS'to'
p1255
aaa(lp1256
g1235
a(lp1257
S'if'
p1258
aS'you'
p1259
aS'can'
p1260
aS'believe'
p1261
aS'it'
p1262
ag52
aS'ha'
p1263
aaa(lp1264
g1235
a(lp1265
g52
aS'know'
p1266
aS'she'
p1267
aaa(lp1268
g1235
a(lp1269
S'there'
p1270
aS'was'
p1271
ag137
ag137
aaa(lp1272
g1235
a(lp1273
S'We'
p1274
aS'had'
p1275
ag137
aS'number'
p1276
aS'of'
p1277
aS'people'
p1278
aS'once'
p1279
aaa(lp1280
g1235
a(lp1281
S'at'
p1282
ag137
aS'party'
p1283
aaa(lp1284
g1235
a(lp1285
S'uh'
p1286
aaa(lp1287
g1235
a(lp1288
S'like'
p1289
aS'half'
p1290
aS'of'
p1291
aS'the'
p1292
aS'board'
p1293
aaa(lp1294
g1235
a(lp1295
S'it'
p1296
aS'was'
p1297
ag137
aS'big'
p1298
aS'mistake'
p1299
aS'of'
p1300
aS'mine'
p1301
aaa(lp1302
S'PHIL'
p1303
a(lp1304
S'Yeah'
p1305
aaa(lp1306
S'BRAD'
p1307
a(lp1308
S'and'
p1309
ag52
aS'know'
p1310
aaa(lp1311
g1307
a(lp1312
S'she'
p1313
aS'felt'
p1314
aS'really'
p1315
aS'snubbed'
p1316
aaa(lp1317
g1307
a(lp1318
S'and'
p1319
aS'uh'
p1320
aaa(lp1321
S'PHIL'
p1322
a(lp1323
S'Mhm'
p1324
aaa(lp1325
S'BRAD'
p1326
a(lp1327
S'and'
p1328
aS'it'
p1329
aS'was'
p1330
aaa(lp1331
g1326
a(lp1332
S'and'
p1333
ag52
ag52
aS'called'
p1334
aS'her'
p1335
aS'in'
p1336
aS'fact'
p1337
aaa(lp1338
g1326
a(lp1339
S'later'
p1340
aaa(lp1341
g1326
a(lp1342
S'And'
p1343
ag52
aS'said'
p1344
aS'Teresa'
p1345
aaa(lp1346
g1326
a(lp1347
S'Thi'
p1348
aS'this'
p1349
aS'was'
p1350
aS'not'
p1351
ag137
ag435
aaa(lp1352
g1326
a(lp1353
g52
aS'invited'
p1354
aS'people'
p1355
aS'that'
p1356
aS'helped'
p1357
aS'with'
p1358
aS'the'
p1359
aS'market'
p1360
aS'that'
p1361
aS'year'
p1362
aaa(lp1363
S'PHIL'
p1364
a(lp1365
S'Mhm'
p1366
aaa(lp1367
g1364
a(lp1368
g52
aS'think'
p1369
aS'it'
p1370
aS'was'
p1371
aS'two'
p1372
aS'years'
p1373
aS'ago'
p1374
aaa(lp1375
g1364
a(lp1376
S'And'
p1377
ag52
aS'know'
p1378
aaa(lp1379
g1364
a(lp1380
g52
aS'mean'
p1381
aS'that'
p1382
aS'wa'
p1383
aS'really'
p1384
aS'upset'
p1385
aS'her'
p1386
aaa(lp1387
g1364
a(lp1388
S'And'
p1389
aS'jeez'
p1390
aaa(lp1391
g1364
a(lp1392
S'If'
p1393
aS'thats'
p1394
aS'gonna'
p1395
aS'upset'
p1396
aS'her'
p1397
aaa(lp1398
g1364
a(lp1399
S'Uh'
p1400
aaa(lp1401
S'PHIL'
p1402
a(lp1403
S'Well'
p1404
aS'thats'
p1405
aS'thats'
p1406
aS'the'
p1407
aS'thing'
p1408
aS'that'
p1409
aaa(lp1410
S'BRAD'
p1411
a(lp1412
S'but'
p1413
aS'anyway'
p1414
aaa(lp1415
S'PHIL'
p1416
a(lp1417
S'that'
p1418
aS'see'
p1419
aS'and'
p1420
aS'the'
p1421
aS'other'
p1422
aS'thing'
p1423
aS'that'
p1424
aS'Ive'
p1425
aS'gotta'
p1426
aS'do'
p1427
aaa(lp1428
g1416
a(lp1429
S'too'
p1430
aaa(lp1431
g1416
a(lp1432
S'is'
p1433
ag52
aS'wanna'
p1434
aS'make'
p1435
aS'sure'
p1436
aaa(lp1437
g1416
a(lp1438
S'like'
p1439
aaa(lp1440
g1416
a(lp1441
S'for'
p1442
aS'example'
p1443
aaa(lp1444
g1416
a(lp1445
S'Donnas'
p1446
aS'aware'
p1447
aS'that'
p1448
aS'she'
p1449
aS'is'
p1450
aS'not'
p1451
aS'gonna'
p1452
aS'be'
p1453
aS'at'
p1454
aS'this'
p1455
aS'retreat'
p1456
aaa(lp1457
S'BRAD'
p1458
a(lp1459
S'Mhm'
p1460
aaa(lp1461
S'PHIL'
p1462
a(lp1463
S'See'
p1464
ag52
aS'have'
p1465
aS'not'
p1466
aS'called'
p1467
aS'her'
p1468
aaa(lp1469
g1462
a(lp1470
S'but'
p1471
aS'Im'
p1472
aS'gonna'
p1473
aS'call'
p1474
aS'her'
p1475
aS'to'
p1476
aS'tell'
p1477
aS'her'
p1478
aS'that'
p1479
aaa(lp1480
S'BRAD'
p1481
a(lp1482
S'Mhm'
p1483
aaa(lp1484
g1481
a(lp1485
S'Yeah'
p1486
aaa(lp1487
S'PHIL'
p1488
a(lp1489
S'You'
p1490
aS'know'
p1491
aaa(lp1492
g1488
a(lp1493
S'were'
p1494
aS'having'
p1495
ag137
aS'board'
p1496
aS'retreat'
p1497
aaa(lp1498
g1488
a(lp1499
S'you'
p1500
aS'know'
p1501
aaa(lp1502
S'BRAD'
p1503
a(lp1504
S'Right'
p1505
aaa(lp1506
g1503
a(lp1507
S'that'
p1508
aS'its'
p1509
aS'not'
p1510
aS'gonna'
p1511
aS'include'
p1512
aS'staff'
p1513
aaa(lp1514
g1503
a(lp1515
S'if'
p1516
aS'thats'
p1517
aS'what'
p1518
aS'we'
p1519
aS'decide'
p1520
aaa(lp1521
S'BRAD'
p1522
a(lp1523
S'Right'
p1524
aaa(lp1525
g1522
a(lp1526
S'Unhunh'
p1527
aaa(lp1528
S'PHIL'
p1529
a(lp1530
aa(lp1531
g1529
a(lp1532
S'is'
p1533
ag52
aS'think'
p1534
aaa(lp1535
g1529
a(lp1536
S'what'
p1537
aS'were'
p1538
aS'gonna'
p1539
aS'probably'
p1540
aS'wanna'
p1541
aS'do'
p1542
aaa(lp1543
g1529
a(lp1544
S'or'
p1545
aS'what'
p1546
ag52
aS'would'
p1547
aS'like'
p1548
aS'to'
p1549
aS'do'
p1550
aaa(lp1551
g1529
a(lp1552
S'is'
p1553
ag52
aS'would'
p1554
aS'like'
p1555
aS'to'
p1556
aS'take'
p1557
ag137
aS'day'
p1558
aaa(lp1559
S'BRAD'
p1560
a(lp1561
S'Mhm'
p1562
aaa(lp1563
S'PHIL'
p1564
a(lp1565
g659
aS'during'
p1566
aS'the'
p1567
aS'week'
p1568
aaa(lp1569
g1564
a(lp1570
S'and'
p1571
aS'well'
p1572
aS'just'
p1573
aS'take'
p1574
ag137
aS'whole'
p1575
aS'day'
p1576
aaa(lp1577
g1564
a(lp1578
S'That'
p1579
aS'day'
p1580
aaa(lp1581
g1564
a(lp1582
S'And'
p1583
aS'myself'
p1584
aaa(lp1585
g1564
a(lp1586
S'uh'
p1587
aaa(lp1588
g1564
a(lp1589
S'if'
p1590
aS'we'
p1591
aS'have'
p1592
ag137
aS'uh'
p1593
aS'facilitator'
p1594
aaa(lp1595
S'BRAD'
p1596
a(lp1597
S'Mhm'
p1598
aaa(lp1599
S'PHIL'
p1600
a(lp1601
S'Um'
p1602
aaa(lp1603
g1600
a(lp1604
S'that'
p1605
aS'that'
p1606
aS'person'
p1607
aaa(lp1608
g1600
a(lp1609
S'you'
p1610
aS'and'
p1611
aS'Patricia'
p1612
aS'and'
p1613
aS'D'
p1614
aS'Donna'
p1615
aaa(lp1616
S'BRAD'
p1617
a(lp1618
S'Mhm'
p1619
aaa(lp1620
S'PHIL'
p1621
a(lp1622
S'and'
p1623
aS'maybe'
p1624
aS'one'
p1625
aS'other'
p1626
aaa(lp1627
g1621
a(lp1628
S'or'
p1629
aS'two'
p1630
aS'other'
p1631
aS'board'
p1632
aS'members'
p1633
aS'would'
p1634
aaa(lp1635
g1621
a(lp1636
S'actually'
p1637
aS'spend'
p1638
aS'that'
p1639
aS'day'
p1640
aS'and'
p1641
aS'just'
p1642
aS'say'
p1643
aS'okay'
p1644
aaa(lp1645
g1621
a(lp1646
S'this'
p1647
aS'is'
p1648
aS'what'
p1649
aS'went'
p1650
aS'on'
p1651
aS'at'
p1652
aS'that'
p1653
aS'retreat'
p1654
aaa(lp1655
S'BRAD'
p1656
a(lp1657
S'Mhm'
p1658
aaa(lp1659
S'PHIL'
p1660
a(lp1661
S'These'
p1662
ag7
aS'are'
p1663
aS'the'
p1664
ag7
aS'concerns'
p1665
aaa(lp1666
S'BRAD'
p1667
a(lp1668
S'Yeah'
p1669
aaa(lp1670
S'PHIL'
p1671
a(lp1672
S'These'
p1673
aS'were'
p1674
aS'comments'
p1675
aaa(lp1676
g1671
a(lp1677
S'these'
p1678
aS'are'
p1679
aS'the'
p1680
aS'ones'
p1681
aS'that'
p1682
aS'we'
p1683
aS'feel'
p1684
aS'we'
p1685
aS'can'
p1686
aS'address'
p1687
aaa(lp1688
g1671
a(lp1689
S'These'
p1690
aS'are'
p1691
aS'the'
p1692
aS'ones'
p1693
aS'that'
p1694
aS'pertain'
p1695
aS'to'
p1696
aS'you'
p1697
aaa(lp1698
S'BRAD'
p1699
a(lp1700
S'Unhunh'
p1701
aaa(lp1702
g1699
a(lp1703
S'Yeah'
p1704
aaa(lp1705
S'PHIL'
p1706
a(lp1707
aa(lp1708
S'BRAD'
p1709
a(lp1710
g52
ag52
aS'am'
p1711
aS'concerned'
p1712
aS'Phil'
p1713
aS'that'
p1714
aaa(lp1715
g1709
a(lp1716
S'you'
p1717
aS'mentioned'
p1718
aS'it'
p1719
aS'yesterday'
p1720
aaa(lp1721
g1709
a(lp1722
S'That'
p1723
aS'that'
p1724
aS'there'
p1725
aS'may'
p1726
aS'be'
p1727
ag137
aS'number'
p1728
aS'of'
p1729
aS'questions'
p1730
aaa(lp1731
g1709
a(lp1732
S'that'
p1733
aS'just'
p1734
aS'cannot'
p1735
aS'be'
p1736
aS'answered'
p1737
aaa(lp1738
g1709
a(lp1739
S'Without'
p1740
aS'me'
p1741
aS'being'
p1742
aS'there'
p1743
aaa(lp1744
S'PHIL'
p1745
a(lp1746
S'Yeah'
p1747
aaa(lp1748
S'BRAD'
p1749
a(lp1750
g52
ag52
ag52
aS'think'
p1751
aS'its'
p1752
aaa(lp1753
S'PHIL'
p1754
a(lp1755
S'Hi'
p1756
aS'L'
p1757
aS'gato'
p1758
ag1757
aaa(lp1759
S'BRAD'
p1760
a(lp1761
S'You'
p1762
aS'know'
p1763
aS'Im'
p1764
aS'gonna'
p1765
aS'have'
p1766
aaa(lp1767
S'PHIL'
p1768
a(lp1769
S'Okay'
p1770
aaa(lp1771
S'BRAD'
p1772
a(lp1773
S'Can'
p1774
aS'we'
p1775
aS'talk'
p1776
ag53
aaa(lp1777
g1772
a(lp1778
S'uh'
p1779
aaa(lp1780
g1772
a(lp1781
g52
aS'bet'
p1782
aS'Pats'
p1783
aS'gonna'
p1784
aaa(lp1785
g1772
a(lp1786
S'shes'
p1787
aS'gonna'
p1788
aS'start'
p1789
aS'walking'
p1790
aS'back'
p1791
aS'to'
p1792
aS'the'
p1793
aS'office'
p1794
aaa(lp1795
S'PHIL'
p1796
a(lp1797
S'Yeah'
p1798
aaa(lp1799
S'BRAD'
p1800
a(lp1801
g52
aS'dropped'
p1802
aS'her'
p1803
aS'at'
p1804
aS'the'
p1805
aS'bookkeeper'
p1806
aaa(lp1807
S'PHIL'
p1808
a(lp1809
S'W'
p1810
ag435
aS'why'
p1811
aS'dont'
p1812
aS'you'
p1813
aS'call'
p1814
aS'me'
p1815
aaa(lp1816
g1808
a(lp1817
S'at'
p1818
aS'least'
p1819
ag137
aS'little'
p1820
aS'bit'
p1821
aS'later'
p1822
aS'maybe'
p1823
aaa(lp1824
S'BRAD'
p1825
a(lp1826
S'Yeah'
p1827
aaa(lp1828
S'PHIL'
p1829
a(lp1830
S'and'
p1831
aS'we'
p1832
aS'can'
p1833
ag7
aS'go'
p1834
ag7
aS'do'
p1835
aS'that'
p1836
aaa(lp1837
S'BRAD'
p1838
a(lp1839
S'Can'
p1840
ag52
aS'do'
p1841
aS'that'
p1842
aaa(lp1843
g1838
a(lp1844
S'Cause'
p1845
ag52
aaa(lp1846
g1838
a(lp1847
S'shell'
p1848
aS'be'
p1849
aaa(lp1850
S'PHIL'
p1851
a(lp1852
S'Ji'
p1853
aS'Jim'
p1854
aS'and'
p1855
ag52
aS'are'
p1856
aS'gonna'
p1857
aS'have'
p1858
aS'lunch'
p1859
aaa(lp1860
S'BRAD'
p1861
a(lp1862
S'Uh'
p1863
aaa(lp1864
g1861
a(lp1865
g52
aS'dont'
p1866
aS'want'
p1867
aS'to'
p1868
aS'get'
p1869
aS'her'
p1870
aS'uh'
p1871
aaa(lp1872
S'PHIL'
p1873
a(lp1874
g52
aS'dont'
p1875
aS'know'
p1876
aS'if'
p1877
aS'you'
p1878
aS'have'
p1879
aS'plans'
p1880
aS'or'
p1881
aS'not'
p1882
aaa(lp1883
g1873
a(lp1884
S'But'
p1885
aaa(lp1886
g1873
a(lp1887
S'were'
p1888
aS'gonna'
p1889
aS'have'
p1890
aS'lunch'
p1891
aS'later'
p1892
aaa(lp1893
S'BRAD'
p1894
a(lp1895
aa(lp1896
S'PHIL'
p1897
a(lp1898
S'at'
p1899
aS'noon'
p1900
aaa(lp1901
S'BRAD'
p1902
a(lp1903
S'Sure'
p1904
aaa(lp1905
S'PHIL'
p1906
a(lp1907
S'If'
p1908
aS'you'
p1909
aS'wanna'
p1910
aS'join'
p1911
aS'us'
p1912
aaa(lp1913
g1906
a(lp1914
S'itd'
p1915
aS'be'
p1916
aS'great'
p1917
aaa(lp1918
S'BRAD'
p1919
a(lp1920
S'sure'
p1921
aaa(lp1922
g1919
a(lp1923
S'Yeah'
p1924
aaa(lp1925
S'PHIL'
p1926
a(lp1927
S'um'
p1928
aaa(lp1929
S'BRAD'
p1930
a(lp1931
S'you'
p1932
aS'wanna'
p1933
aS'do'
p1934
aS'it'
p1935
aaa(lp1936
g1930
a(lp1937
S'where'
p1938
aaa(lp1939
g1930
a(lp1940
S'whats'
p1941
aS'the'
p1942
aaa(lp1943
S'PHIL'
p1944
a(lp1945
g52
aaa(lp1946
g1944
a(lp1947
S'you'
p1948
aS'know'
p1949
aaa(lp1950
g1944
a(lp1951
g52
aS'dont'
p1952
aaa(lp1953
g1944
a(lp1954
S'my'
p1955
aS'my'
p1956
aS'feeling'
p1957
aS'is'
p1958
aaa(lp1959
g1944
a(lp1960
S'Im'
p1961
aS'trying'
p1962
aS'to'
p1963
aaa(lp1964
g1944
a(lp1965
g52
aS'think'
p1966
aaa(lp1967
g1944
a(lp1968
S'what'
p1969
ag52
aS'wanna'
p1970
aS'do'
p1971
aaa(lp1972
g1944
a(lp1973
S'is'
p1974
aaa(lp1975
g1944
a(lp1976
S'my'
p1977
aS'my'
p1978
aS'point'
p1979
aS'of'
p1980
aS'wanting'
p1981
aS'to'
p1982
aS'push'
p1983
aS'this'
p1984
aS'retreat'
p1985
aaa(lp1986
g1944
a(lp1987
g52
aS'think'
p1988
aS'it'
p1989
aS'was'
p1990
aS'really'
p1991
aS'important'
p1992
aS'was'
p1993
aaa(lp1994
S'BRAD'
p1995
a(lp1996
S'Mhm'
p1997
aaa(lp1998
S'PHIL'
p1999
a(lp2000
S'to'
p2001
aS'do'
p2002
aS'it'
p2003
aS'to'
p2004
aS'e'
p2005
aaa(lp2006
g1999
a(lp2007
S'to'
p2008
aS'make'
p2009
aS'it'
p2010
aS'sound'
p2011
aS'like'
p2012
aS'were'
p2013
aS'taking'
p2014
aS'it'
p2015
aS'seriously'
p2016
aaa(lp2017
S'BRAD'
p2018
a(lp2019
S'Oh'
p2020
aS'yeah'
p2021
aaa(lp2022
S'PHIL'
p2023
a(lp2024
S'But'
p2025
aS'to'
p2026
aS'also'
p2027
aS'put'
p2028
aS'into'
p2029
aS'perspective'
p2030
aaa(lp2031
g2023
a(lp2032
S'and'
p2033
aS'see'
p2034
aaa(lp2035
g2023
a(lp2036
g435
aS'that'
p2037
aS'was'
p2038
aS'one'
p2039
aS'point'
p2040
aS'of'
p2041
aS'view'
p2042
aS'why'
p2043
aaa(lp2044
S'BRAD'
p2045
a(lp2046
S'Yeah'
p2047
aaa(lp2048
S'PHIL'
p2049
a(lp2050
S'you'
p2051
aS'know'
p2052
aaa(lp2053
g2049
a(lp2054
S'Like'
p2055
ag52
aS'said'
p2056
ag659
ag659
aS'the'
p2057
aS'facilitator'
p2058
aaa(lp2059
g2049
a(lp2060
S'in'
p2061
aS'in'
p2062
aS'the'
p2063
aS'beginning'
p2064
aaa(lp2065
g2049
a(lp2066
g52
aS'did'
p2067
aS'not'
p2068
aaa(lp2069
g2049
a(lp2070
S'wasnt'
p2071
aS'really'
p2072
aS'in'
p2073
aS'support'
p2074
aS'of'
p2075
aS'one'
p2076
aaa(lp2077
g2049
a(lp2078
S'And'
p2079
aS'only'
p2080
aS'because'
p2081
ag52
aS'felt'
p2082
aaa(lp2083
S'BRAD'
p2084
a(lp2085
S'Mhm'
p2086
aaa(lp2087
S'PHIL'
p2088
a(lp2089
g52
aS'wanna'
p2090
aS'make'
p2091
aS'it'
p2092
aS'sound'
p2093
aS'important'
p2094
aaa(lp2095
S'BRAD'
p2096
a(lp2097
S'It'
p2098
aS'would'
p2099
aS'formalize'
p2100
aS'it'
p2101
aS'too'
p2102
aS'much'
p2103
aaa(lp2104
g2096
a(lp2105
S'Or'
p2106
aaa(lp2107
S'PHIL'
p2108
a(lp2109
g52
aS'want'
p2110
aaa(lp2111
g2108
a(lp2112
S'it'
p2113
aS'formalizing'
p2114
aS'it'
p2115
aaa(lp2116
g2108
a(lp2117
S'but'
p2118
aS'its'
p2119
aS'also'
p2120
aS'say'
p2121
aaa(lp2122
g2108
a(lp2123
g52
aS'want'
p2124
aS'it'
p2125
aS'to'
p2126
aS'come'
p2127
aS'to'
p2128
aS'the'
p2129
aS'resolution'
p2130
aS'that'
p2131
aaa(lp2132
g2108
a(lp2133
S'things'
p2134
aS'arent'
p2135
aS'that'
p2136
aS'bad'
p2137
aaa(lp2138
S'BRAD'
p2139
a(lp2140
S'Mhm'
p2141
aaa(lp2142
g2139
a(lp2143
S'No'
p2144
aaa(lp2145
S'PHIL'
p2146
a(lp2147
S'and'
p2148
aS'that'
p2149
aS'what'
p2150
aaa(lp2151
S'BRAD'
p2152
a(lp2153
g52
aaa(lp2154
S'PHIL'
p2155
a(lp2156
S'what'
p2157
aS'we'
p2158
aaa(lp2159
g2155
a(lp2160
S'and'
p2161
aS'things'
p2162
aS'arent'
p2163
aS'that'
p2164
aS'bad'
p2165
aaa(lp2166
g2155
a(lp2167
S'The'
p2168
aS'thing'
p2169
aS'is'
p2170
aS'that'
p2171
aS'we'
p2172
aS'h'
p2173
aS'do'
p2174
aS'have'
p2175
aS'our'
p2176
aS'attitudes'
p2177
aaa(lp2178
S'BRAD'
p2179
a(lp2180
S'Mhm'
p2181
aaa(lp2182
g2179
a(lp2183
S'Mhm'
p2184
aaa(lp2185
S'PHIL'
p2186
a(lp2187
S'Okay'
p2188
aaa(lp2189
S'BRAD'
p2190
a(lp2191
S'Mhm'
p2192
aaa(lp2193
S'PHIL'
p2194
a(lp2195
S'We'
p2196
aS'have'
p2197
aS'an'
p2198
aS'attitude'
p2199
aaa(lp2200
g2194
a(lp2201
S'you'
p2202
aS'know'
p2203
aaa(lp2204
g2194
a(lp2205
S'even'
p2206
aS'what'
p2207
aS'Rays'
p2208
aS'attitude'
p2209
aS'with'
p2210
aS'with'
p2211
aS'Barbara'
p2212
aaa(lp2213
S'BRAD'
p2214
a(lp2215
S'Mhm'
p2216
aaa(lp2217
S'PHIL'
p2218
a(lp2219
S'is'
p2220
aS'completely'
p2221
aS'unheard'
p2222
aS'of'
p2223
aaa(lp2224
g2218
a(lp2225
S'you'
p2226
aS'know'
p2227
aS'and'
p2228
aS'Im'
p2229
aaa(lp2230
g2218
a(lp2231
S'that'
p2232
aS'bothers'
p2233
aS'me'
p2234
ag137
aS'great'
p2235
aS'deal'
p2236
aaa(lp2237
S'BRAD'
p2238
a(lp2239
S'Jeez'
p2240
aaa(lp2241
g2238
a(lp2242
g52
aS'just'
p2243
aS'couldnt'
p2244
aS'believe'
p2245
aS'that'
p2246
aaa(lp2247
S'PHIL'
p2248
a(lp2249
aa(lp2250
S'BRAD'
p2251
a(lp2252
S'When'
p2253
ag52
aS'heard'
p2254
aS'it'
p2255
aaa(lp2256
S'PHIL'
p2257
a(lp2258
g52
aaa(lp2259
g2257
a(lp2260
g52
aS'had'
p2261
aaa(lp2262
g2257
a(lp2263
S'you'
p2264
aS'know'
p2265
aaa(lp2266
g2257
a(lp2267
g52
aS'came'
p2268
aS'real'
p2269
aS'close'
p2270
aS'to'
p2271
aS'calling'
p2272
aS'Ray'
p2273
aaa(lp2274
g2257
a(lp2275
S'and'
p2276
aS'just'
p2277
aS'sitting'
p2278
aS'and'
p2279
aS'talking'
p2280
aS'with'
p2281
aS'him'
p2282
aS'about'
p2283
aS'it'
p2284
aaa(lp2285
S'BRAD'
p2286
a(lp2287
S'Yeah'
p2288
aaa(lp2289
S'PHIL'
p2290
a(lp2291
S'but'
p2292
ag52
aS'figured'
p2293
aS'no'
p2294
aaa(lp2295
S'BRAD'
p2296
a(lp2297
S'Yeah'
p2298
aaa(lp2299
S'PHIL'
p2300
a(lp2301
S'Im'
p2302
aS'just'
p2303
aS'gonna'
p2304
aS'blow'
p2305
aS'it'
p2306
aS'off'
p2307
aaa(lp2308
S'BRAD'
p2309
a(lp2310
g52
aS'think'
p2311
aaa(lp2312
g2309
a(lp2313
S'hes'
p2314
aS'off'
p2315
aS'the'
p2316
aS'board'
p2317
aaa(lp2318
S'PHIL'
p2319
a(lp2320
S'Im'
p2321
aS'gonna'
p2322
aS'blow'
p2323
aS'it'
p2324
aS'off'
p2325
aaa(lp2326
S'BRAD'
p2327
a(lp2328
S'hes'
p2329
aaa(lp2330
S'PHIL'
p2331
a(lp2332
S'Im'
p2333
aS'not'
p2334
aS'gonna'
p2335
aS'give'
p2336
ag294
aaa(lp2337
S'BRAD'
p2338
a(lp2339
S'Yeah'
p2340
aaa(lp2341
S'PHIL'
p2342
a(lp2343
S'you'
p2344
aS'know'
p2345
aaa(lp2346
g2342
a(lp2347
S'weve'
p2348
aS'done'
p2349
aS'everything'
p2350
aS'we'
p2351
aS'needed'
p2352
aS'to'
p2353
aS'do'
p2354
aaa(lp2355
S'BRAD'
p2356
a(lp2357
S'Right'
p2358
aaa(lp2359
S'PHIL'
p2360
a(lp2361
aa(lp2362
S'BRAD'
p2363
a(lp2364
S'Right'
p2365
aaa(lp2366
S'PHIL'
p2367
a(lp2368
g52
aS'think'
p2369
aaa(lp2370
g2367
a(lp2371
S'you'
p2372
aS'know'
p2373
aaa(lp2374
g2367
a(lp2375
S'what'
p2376
aS'Barbara'
p2377
aS'told'
p2378
aS'me'
p2379
aS'was'
p2380
aS'that'
p2381
aaa(lp2382
g2367
a(lp2383
S'Dolores'
p2384
aS'was'
p2385
aS'incredibly'
p2386
aS'embarrassed'
p2387
aaa(lp2388
g2367
a(lp2389
S'by'
p2390
aS'his'
p2391
aS'display'
p2392
aaa(lp2393
g2367
a(lp2394
S'at'
p2395
aS'this'
p2396
aS'time'
p2397
aS'in'
p2398
aS'front'
p2399
aS'of'
p2400
aS'her'
p2401
aaa(lp2402
g2367
a(lp2403
S'Dolores'
p2404
aS'apologized'
p2405
aS'for'
p2406
aS'Ray'
p2407
aS'to'
p2408
aS'him'
p2409
aaa(lp2410
S'BRAD'
p2411
a(lp2412
S'Really'
p2413
aaa(lp2414
g2411
a(lp2415
S'Oh'
p2416
aS'gee'
p2417
aaa(lp2418
S'PHIL'
p2419
a(lp2420
S'So'
p2421
aS'Dolores'
p2422
aS'is'
p2423
aS'obviously'
p2424
aS'aware'
p2425
aS'that'
p2426
aaa(lp2427
S'BRAD'
p2428
a(lp2429
S'Oh'
p2430
aS'gosh'
p2431
aaa(lp2432
S'BRAD'
p2433
a(lp2434
S'you'
p2435
aS'know'
p2436
aaa(lp2437
g2433
a(lp2438
S'and'
p2439
aaa(lp2440
S'BRAD'
p2441
a(lp2442
S'Yeah'
p2443
aaa(lp2444
S'PHIL'
p2445
a(lp2446
S'she'
p2447
aS'says'
p2448
aaa(lp2449
g2445
a(lp2450
g52
aS'dont'
p2451
aS'know'
p2452
aS'why'
p2453
aS'he'
p2454
aS'resigned'
p2455
aaa(lp2456
S'BRAD'
p2457
a(lp2458
g52
aS'dont'
p2459
aS'know'
p2460
aS'whats'
p2461
aS'got'
p2462
ag7
aS'in'
p2463
ag7
aaa(lp2464
S'PHIL'
p2465
a(lp2466
S'because'
p2467
aS'hes'
p2468
aS'been'
p2469
aS'miserable'
p2470
aaa(lp2471
S'BRAD'
p2472
a(lp2473
aa(lp2474
S'PHIL'
p2475
a(lp2476
S'because'
p2477
aaa(lp2478
g2475
a(lp2479
g435
aS'which'
p2480
aS'we'
p2481
aS'know'
p2482
aaa(lp2483
S'BRAD'
p2484
a(lp2485
S'Mhm'
p2486
aaa(lp2487
S'PHIL'
p2488
a(lp2489
S'thats'
p2490
aS'why'
p2491
aS'he'
p2492
aS'was'
p2493
aS'kept'
p2494
aS'trying'
p2495
aS'to'
p2496
aS'get'
p2497
aS'involved'
p2498
aS'and'
p2499
aS'make'
p2500
aS'it'
p2501
aS'sound'
p2502
aaa(lp2503
g2488
a(lp2504
S'you'
p2505
aS'know'
p2506
aaa(lp2507
g2488
a(lp2508
S'like'
p2509
aS'he'
p2510
aaa(lp2511
g2488
a(lp2512
S'and'
p2513
aS'n_you'
p2514
aS'know'
p2515
aaa(lp2516
g2488
a(lp2517
S'he'
p2518
aS'was'
p2519
aS'trying'
p2520
aS'to'
p2521
aS'make'
p2522
aS'it'
p2523
aS'sound'
p2524
aS'like'
p2525
aaa(lp2526
g2488
a(lp2527
S'same'
p2528
aS'old'
p2529
aS'complaint'
p2530
aaa(lp2531
g2488
a(lp2532
S'same'
p2533
aS'old'
p2534
aS'everything'
p2535
aaa(lp2536
g2488
a(lp2537
S'well'
p2538
aaa(lp2539
g2488
a(lp2540
S'we'
p2541
aS'didnt'
p2542
aS'have'
p2543
aS'any'
p2544
aS'complaints'
p2545
aaa(lp2546
S'BRAD'
p2547
a(lp2548
aa(lp2549
g2547
a(lp2550
S'Yeah'
p2551
aaa(lp2552
S'PHIL'
p2553
a(lp2554
g52
aS'think'
p2555
aS'this'
p2556
aS'is'
p2557
aS'one'
p2558
aS'of'
p2559
aS'the'
p2560
aS'first'
p2561
aS'years'
p2562
aaa(lp2563
S'BRAD'
p2564
a(lp2565
g52
aS'know'
p2566
aaa(lp2567
S'PHIL'
p2568
a(lp2569
S'that'
p2570
aS'this'
p2571
aS'has'
p2572
aS'been'
p2573
aS'so'
p2574
aS'smooth'
p2575
aaa(lp2576
g2568
a(lp2577
S'And'
p2578
ag52
aS'think'
p2579
aaa(lp2580
g2568
a(lp2581
S'had'
p2582
aS'we'
p2583
aS'realized'
p2584
aS'it'
p2585
aaa(lp2586
S'BRAD'
p2587
a(lp2588
S'Mhm'
p2589
aaa(lp2590
S'PHIL'
p2591
a(lp2592
S'we'
p2593
aS'would'
p2594
aS'have'
p2595
aS'allowed'
p2596
aS'him'
p2597
aS'to'
p2598
aS'take'
p2599
ag137
aS'break'
p2600
aS'four'
p2601
aS'years'
p2602
aS'ago'
p2603
aaa(lp2604
S'BRAD'
p2605
a(lp2606
S'Yeah'
p2607
aaa(lp2608
g2605
a(lp2609
S'Yeah'
p2610
aaa(lp2611
S'PHIL'
p2612
a(lp2613
aa(lp2614
S'BRAD'
p2615
a(lp2616
S'Yeah'
p2617
aaa(lp2618
S'PHIL'
p2619
a(lp2620
S'Because'
p2621
aaa(lp2622
g2619
a(lp2623
S'and'
p2624
aS'it'
p2625
aS'wasnt'
p2626
aS'so'
p2627
aS'much'
p2628
aaa(lp2629
g2619
a(lp2630
S'it'
p2631
aS'wasnt'
p2632
aaa(lp2633
g2619
a(lp2634
S'you'
p2635
aS'know'
p2636
aS'like'
p2637
ag52
aS'told'
p2638
aS'Jim'
p2639
aaa(lp2640
g2619
a(lp2641
g52
aS'said'
p2642
aS'it'
p2643
aS'wasnt'
p2644
aS'anything'
p2645
aS'that'
p2646
aS'POUND'
p2647
aS'you'
p2648
aS'POUND'
p2649
aS'did'
p2650
aaa(lp2651
g2619
a(lp2652
S'wasnt'
p2653
aS'anything'
p2654
aS'else'
p2655
aaa(lp2656
S'BRAD'
p2657
a(lp2658
S'Mhm'
p2659
aaa(lp2660
S'PHIL'
p2661
a(lp2662
g52
aS'said'
p2663
aaa(lp2664
g2661
a(lp2665
S'it'
p2666
aS'was'
p2667
ag137
aS'matter'
p2668
aS'of'
p2669
aaa(lp2670
g2661
a(lp2671
S'you'
p2672
aS'know'
p2673
aaa(lp2674
g2661
a(lp2675
S'm_Brad'
p2676
aS'did'
p2677
aaa(lp2678
g2661
a(lp2679
S'and'
p2680
aS'Pat'
p2681
aS'did'
p2682
aaa(lp2683
g2661
a(lp2684
S'the'
p2685
aS'organization'
p2686
aaa(lp2687
g2661
a(lp2688
g52
aS'said'
p2689
aaa(lp2690
g2661
a(lp2691
S'which'
p2692
aS'was'
p2693
aS'the'
p2694
aS'best'
p2695
aS'thing'
p2696
aaa(lp2697
g2661
a(lp2698
g52
aS'th'
p2699
ag52
aS'agree'
p2700
aS'with'
p2701
aS'that'
p2702
aaa(lp2703
S'BRAD'
p2704
a(lp2705
S'Mhm'
p2706
aaa(lp2707
S'PHIL'
p2708
a(lp2709
g52
aS'think'
p2710
aS'that'
p2711
aS'was'
p2712
aS'the'
p2713
aS'best'
p2714
aS'thing'
p2715
aS'to'
p2716
aS'do'
p2717
aaa(lp2718
S'BRAD'
p2719
a(lp2720
S'Mhm'
p2721
aaa(lp2722
S'PHIL'
p2723
a(lp2724
S'It'
p2725
aS'was'
p2726
ag137
aS'lot'
p2727
aS'of'
p2728
aS'time'
p2729
aaa(lp2730
S'BRAD'
p2731
a(lp2732
S'Yeah'
p2733
aaa(lp2734
S'PHIL'
p2735
a(lp2736
S'But'
p2737
ag52
aS'think'
p2738
aaa(lp2739
g2735
a(lp2740
S'we'
p2741
aS'need'
p2742
aS'to'
p2743
aaa(lp2744
g2735
a(lp2745
S'we'
p2746
aS'need'
p2747
aS'to'
p2748
ag659
aS'establish'
p2749
aS'duties'
p2750
aaa(lp2751
S'BRAD'
p2752
a(lp2753
S'Mhm'
p2754
aaa(lp2755
S'PHIL'
p2756
a(lp2757
S'You'
p2758
aS'know'
p2759
aaa(lp2760
g2756
a(lp2761
S'Which'
p2762
aS'we'
p2763
aS'decided'
p2764
aaa(lp2765
g2756
a(lp2766
S'And'
p2767
aS'see'
p2768
aS'part'
p2769
aS'of'
p2770
aS'what'
p2771
aS'we'
p2772
aS'decided'
p2773
aS'with'
p2774
aS'these'
p2775
aS'duties'
p2776
aS'is'
p2777
aaa(lp2778
g2756
a(lp2779
S'just'
p2780
aS'deciding'
p2781
aaa(lp2782
g2756
a(lp2783
S'what'
p2784
aS'we'
p2785
aS'need'
p2786
aS'to'
p2787
aS'do'
p2788
aS'what'
p2789
aaa(lp2790
g2756
a(lp2791
S'You'
p2792
aS'know'
p2793
aaa(lp2794
g2756
a(lp2795
S'Theres'
p2796
aS'gonna'
p2797
aS'be'
p2798
aS'tasks'
p2799
aaa(lp2800
S'BRAD'
p2801
a(lp2802
S'Mhm'
p2803
aaa(lp2804
S'PHIL'
p2805
a(lp2806
aa(lp2807
S'BRAD'
p2808
a(lp2809
S'As'
p2810
aS'specifically'
p2811
aS'as'
p2812
aS'we'
p2813
aS'ca'
p2814
aaa(lp2815
S'PHIL'
p2816
a(lp2817
aa(lp2818
S'BRAD'
p2819
a(lp2820
S'yeah'
p2821
aaa(lp2822
S'PHIL'
p2823
a(lp2824
S'See'
p2825
aS'and'
p2826
aS'Im'
p2827
aS'Im'
p2828
aaa(lp2829
g2823
a(lp2830
S'on'
p2831
aS'one'
p2832
aS'hand'
p2833
aS'Id'
p2834
aS'like'
p2835
aS'to'
p2836
aS'take'
p2837
aS'it'
p2838
aS'back'
p2839
aS'to'
p2840
aS'where'
p2841
aS'the'
p2842
aS'secretary'
p2843
aS'is'
p2844
aS'responsible'
p2845
aS'for'
p2846
aS'the'
p2847
aS'minutes'
p2848
aaa(lp2849
S'BRAD'
p2850
a(lp2851
aa(lp2852
g2850
a(lp2853
S'Unhunh'
p2854
aaa(lp2855
S'PHIL'
p2856
a(lp2857
S'You'
p2858
aS'know'
p2859
aaa(lp2860
g2856
a(lp2861
S'Pat'
p2862
aS'does'
p2863
aS'that'
p2864
aaa(lp2865
S'BRAD'
p2866
a(lp2867
S'Yeah'
p2868
aaa(lp2869
g2866
a(lp2870
g52
aS'know'
p2871
aaa(lp2872
g2866
a(lp2873
S'Theres'
p2874
aaa(lp2875
g2866
a(lp2876
S'really'
p2877
aS'the'
p2878
aS'secretary'
p2879
aS'serves'
p2880
aS'almost'
p2881
aS'no'
p2882
aS'function'
p2883
aaa(lp2884
S'PHIL'
p2885
a(lp2886
S'Just'
p2887
ag546
aS'th'
p2888
aS'not'
p2889
aaa(lp2890
S'BRAD'
p2891
a(lp2892
S'You'
p2893
aS'know'
p2894
ag52
aaa(lp2895
g2891
a(lp2896
S'its'
p2897
aS'just'
p2898
aS'uh'
p2899
aaa(lp2900
S'PHIL'
p2901
a(lp2902
S'There'
p2903
aS'signs'
p2904
aaa(lp2905
g2901
a(lp2906
S'she'
p2907
aS'signs'
p2908
aS'her'
p2909
aS'name'
p2910
aS'thirty'
p2911
aS'times'
p2912
aaa(lp2913
S'BRAD'
p2914
a(lp2915
S'Yeah'
p2916
aaa(lp2917
S'PHIL'
p2918
a(lp2919
S'you'
p2920
aS'know'
p2921
aaa(lp2922
g2918
a(lp2923
S'in'
p2924
aS'the'
p2925
aS'last'
p2926
ag126
ag670
aaa(lp2927
S'BRAD'
p2928
a(lp2929
S'Right'
p2930
aaa(lp2931
g2928
a(lp2932
S'Right'
p2933
aS'Phil'
p2934
aaa(lp2935
S'PHIL'
p2936
a(lp2937
S'two'
p2938
aS'days'
p2939
aS'ago'
p2940
aaa(lp2941
g2936
a(lp2942
S'Well'
p2943
aaa(lp2944
S'BRAD'
p2945
a(lp2946
S'That'
p2947
aS'was'
p2948
aS'it'
p2949
aaa(lp2950
g2945
a(lp2951
S'That'
p2952
aS'was'
p2953
aS'it'
p2954
aaa(lp2955
S'PHIL'
p2956
a(lp2957
S'Thats'
p2958
ag137
aS'problem'
p2959
aaa(lp2960
S'BRAD'
p2961
a(lp2962
S'That'
p2963
aS'um'
p2964
aaa(lp2965
S'PHIL'
p2966
a(lp2967
g52
aaa(lp2968
g2966
a(lp2969
S'you'
p2970
aS'know'
p2971
aaa(lp2972
g2966
a(lp2973
S'and'
p2974
ag52
aS'think'
p2975
aS'we'
p2976
aS'wanna'
p2977
aS'do'
p2978
aS'that'
p2979
aaa(lp2980
g2966
a(lp2981
S'We'
p2982
aS'need'
p2983
aS'to'
p2984
aS'say'
p2985
aaa(lp2986
g2966
a(lp2987
S'You'
p2988
aS'know'
p2989
aaa(lp2990
g2966
a(lp2991
S'Pats'
p2992
aS'been'
p2993
aS'great'
p2994
aS'enough'
p2995
aS'to'
p2996
aS'do'
p2997
aS'this'
p2998
aaa(lp2999
g2966
a(lp3000
S'and'
p3001
aS'if'
p3002
aS'she'
p3003
aS'really'
p3004
aS'wants'
p3005
aS'to'
p3006
aS'do'
p3007
aS'it'
p3008
aaa(lp3009
g2966
a(lp3010
S'Im'
p3011
aS'not'
p3012
aS'gonna'
p3013
aS'dissuade'
p3014
aS'her'
p3015
aS'from'
p3016
aS'doing'
p3017
aS'it'
p3018
aaa(lp3019
S'BRAD'
p3020
a(lp3021
S'Yeah'
p3022
aaa(lp3023
S'PHIL'
p3024
a(lp3025
S'But'
p3026
aS'one'
p3027
aS'thing'
p3028
aS'we'
p3029
aS'have'
p3030
aS'to'
p3031
aS'be'
p3032
aS'careful'
p3033
aS'of'
p3034
aaa(lp3035
S'BRAD'
p3036
a(lp3037
S'Yeah'
p3038
aaa(lp3039
S'PHIL'
p3040
a(lp3041
S'that'
p3042
ag52
aS'mentioned'
p3043
aS'to'
p3044
aS'Jim'
p3045
aaa(lp3046
g3040
a(lp3047
S'and'
p3048
aS'Ive'
p3049
aS'mentioned'
p3050
aS'it'
p3051
aS'to'
p3052
aS'Pat'
p3053
aS'lightly'
p3054
aaa(lp3055
S'BRAD'
p3056
a(lp3057
S'Yeah'
p3058
aaa(lp3059
S'PHIL'
p3060
a(lp3061
S'Which'
p3062
aS'is'
p3063
aS'to'
p3064
aS'be'
p3065
aS'careful'
p3066
aS'about'
p3067
aS'saying'
p3068
aS'things'
p3069
aaa(lp3070
g3060
a(lp3071
S'You'
p3072
aS'know'
p3073
aaa(lp3074
g3060
a(lp3075
S'like'
p3076
aS'in'
p3077
aS'board'
p3078
aS'meetings'
p3079
aaa(lp3080
g3060
a(lp3081
S'In'
p3082
aS'interjecting'
p3083
aS'too'
p3084
aS'much'
p3085
aaa(lp3086
S'BRAD'
p3087
a(lp3088
S'Yes'
p3089
aaa(lp3090
S'PHIL'
p3091
a(lp3092
S'Okay'
p3093
aaa(lp3094
S'BRAD'
p3095
a(lp3096
g52
aS'know'
p3097
aaa(lp3098
S'PHIL'
p3099
a(lp3100
S'Because'
p3101
aS'in'
p3102
aS'board'
p3103
aS'discussion'
p3104
aaa(lp3105
g3099
a(lp3106
g52
aS'mean'
p3107
aaa(lp3108
S'BRAD'
p3109
a(lp3110
S'Yeah'
p3111
aaa(lp3112
S'PHIL'
p3113
a(lp3114
S'o'
p3115
aS'on'
p3116
aS'one'
p3117
aS'hand'
p3118
aaa(lp3119
g3113
a(lp3120
S'as'
p3121
ag137
aS'member'
p3122
aS'she'
p3123
aS'has'
p3124
aS'every'
p3125
aS'right'
p3126
aaa(lp3127
g3113
a(lp3128
S'To'
p3129
aS'to'
p3130
aS'speak'
p3131
aS'what'
p3132
aS'she'
p3133
aS'wants'
p3134
aaa(lp3135
g3113
a(lp3136
S'But'
p3137
aaa(lp3138
S'BRAD'
p3139
a(lp3140
S'Mhm'
p3141
aaa(lp3142
S'PHIL'
p3143
a(lp3144
aa(lp3145
S'BRAD'
p3146
a(lp3147
S'No'
p3148
aaa(lp3149
g3146
a(lp3150
S'But'
p3151
aS'thats'
p3152
aaa(lp3153
S'PHIL'
p3154
a(lp3155
S'The'
p3156
aS'thing'
p3157
aS'is'
p3158
aaa(lp3159
g3154
a(lp3160
S'you'
p3161
aS'know'
p3162
aaa(lp3163
g3154
a(lp3164
S'Ive'
p3165
aS'just'
p3166
aS'seen'
p3167
aS'some'
p3168
aS'of'
p3169
aS'the'
p3170
aS'looks'
p3171
aaa(lp3172
g3154
a(lp3173
S'from'
p3174
aS'some'
p3175
aS'of'
p3176
aS'the'
p3177
aS'people'
p3178
aaa(lp3179
g3154
a(lp3180
S'you'
p3181
aS'know'
p3182
aaa(lp3183
g3154
a(lp3184
S'who'
p3185
aS'feel'
p3186
aaa(lp3187
g3154
a(lp3188
S'Q'
p3189
aS'Im'
p3190
ag137
aS'board'
p3191
aS'member'
p3192
ag3189
aaa(lp3193
S'BRAD'
p3194
a(lp3195
S'Yeah'
p3196
aaa(lp3197
S'PHIL'
p3198
a(lp3199
S'And'
p3200
aS'whether'
p3201
aaa(lp3202
g3198
a(lp3203
S'the'
p3204
aS'board'
p3205
aS'you'
p3206
aS'know'
p3207
aaa(lp3208
g3198
a(lp3209
S'if'
p3210
aS'they'
p3211
aS'dont'
p3212
aS'interject'
p3213
aS'anything'
p3214
aaa(lp3215
g3198
a(lp3216
S'but'
p3217
aS'whether'
p3218
aS'they'
p3219
aS'do'
p3220
aS'or'
p3221
aS'not'
p3222
aaa(lp3223
g3198
a(lp3224
g52
aS'think'
p3225
aS'we'
p3226
aS'have'
p3227
aS'to'
p3228
aS'be'
p3229
aS'careful'
p3230
aaa(lp3231
S'BRAD'
p3232
a(lp3233
S'Mhm'
p3234
aaa(lp3235
g3232
a(lp3236
S'Well'
p3237
aS'Phil'
p3238
aaa(lp3239
g3232
a(lp3240
S'that'
p3241
aaa(lp3242
g3232
a(lp3243
g52
aS'mean'
p3244
aS'that'
p3245
aS'goes'
p3246
aaa(lp3247
S'PHIL'
p3248
a(lp3249
S'be'
p3250
aS'because'
p3251
aaa(lp3252
g3248
a(lp3253
S'where'
p3254
aS'that'
p3255
aS'came'
p3256
aS'in'
p3257
aaa(lp3258
S'BRAD'
p3259
a(lp3260
S'That'
p3261
aS'goes'
p3262
aS'for'
p3263
aS'me'
p3264
aS'as'
p3265
aS'well'
p3266
aS'then'
p3267
aaa(lp3268
g3259
a(lp3269
S'It'
p3270
aaa(lp3271
S'PHIL'
p3272
a(lp3273
S'Yeah'
p3274
aaa(lp3275
g3272
a(lp3276
S'it'
p3277
aS'does'
p3278
aaa(lp3279
g3272
a(lp3280
S'But'
p3281
aaa(lp3282
S'BRAD'
p3283
a(lp3284
S'It'
p3285
aS'um'
p3286
aaa(lp3287
S'PHIL'
p3288
a(lp3289
g52
aS'think'
p3290
aS'whats'
p3291
aS'different'
p3292
aS'is'
p3293
aaa(lp3294
g3288
a(lp3295
S'You'
p3296
aaa(lp3297
S'BRAD'
p3298
a(lp3299
S'um'
p3300
aaa(lp3301
S'PHIL'
p3302
a(lp3303
S'youve'
p3304
aS'been'
p3305
aS'much'
p3306
aS'more'
p3307
aS'responsive'
p3308
aS'in'
p3309
aS'this'
p3310
aS'sense'
p3311
aaa(lp3312
S'BRAD'
p3313
a(lp3314
g52
aS'mean'
p3315
aaa(lp3316
S'PHIL'
p3317
a(lp3318
S'Okay'
p3319
aaa(lp3320
g3317
a(lp3321
S'Pats'
p3322
aS'more'
p3323
aS'opinionated'
p3324
aS'in'
p3325
aS'that'
p3326
aS'sense'
p3327
aaa(lp3328
S'BRAD'
p3329
a(lp3330
S'You'
p3331
aS'know'
p3332
ag52
aaa(lp3333
g3329
a(lp3334
S'Unhunh'
p3335
aaa(lp3336
S'PHIL'
p3337
a(lp3338
S'Okay'
p3339
aaa(lp3340
S'BRAD'
p3341
a(lp3342
g52
aaa(lp3343
g3341
a(lp3344
S'what'
p3345
ag52
aS'try'
p3346
aS'to'
p3347
aS'do'
p3348
aaa(lp3349
g3341
a(lp3350
S'is'
p3351
aS'is'
p3352
aS'is'
p3353
aS'just'
p3354
aS'respond'
p3355
aS'to'
p3356
aS'question'
p3357
aaa(lp3358
S'PHIL'
p3359
a(lp3360
g7
aaa(lp3361
S'BRAD'
p3362
a(lp3363
S'and'
p3364
aS'if'
p3365
ag52
aS'need'
p3366
aS'to'
p3367
aS'fill'
p3368
aS'in'
p3369
aS'blanks'
p3370
aaa(lp3371
g3362
a(lp3372
S'which'
p3373
aaa(lp3374
S'PHIL'
p3375
a(lp3376
S'Oh'
p3377
aS'yeah'
p3378
aaa(lp3379
g3375
a(lp3380
S'Thats'
p3381
aS'fine'
p3382
aaa(lp3383
S'BRAD'
p3384
a(lp3385
S'You'
p3386
aS'know'
p3387
aaa(lp3388
S'PHIL'
p3389
a(lp3390
S'That'
p3391
aaa(lp3392
S'BRAD'
p3393
a(lp3394
S'But'
p3395
aaa(lp3396
S'PHIL'
p3397
a(lp3398
S'See'
p3399
aS'but'
p3400
aS'that'
p3401
aaa(lp3402
g3397
a(lp3403
S'your'
p3404
aaa(lp3405
g3397
a(lp3406
S'your'
p3407
aS'position'
p3408
aS'is'
p3409
aS'different'
p3410
aaa(lp3411
S'BRAD'
p3412
a(lp3413
S'Mhm'
p3414
aaa(lp3415
S'PHIL'
p3416
a(lp3417
S'Okay'
p3418
aaa(lp3419
S'BRAD'
p3420
a(lp3421
S'Thats'
p3422
aaa(lp3423
g3420
a(lp3424
S'Yeah'
p3425
aS'thats'
p3426
aS'true'
p3427
aaa(lp3428
S'PHIL'
p3429
a(lp3430
S'Yours'
p3431
aS'is'
p3432
aS'in'
p3433
ag137
aaa(lp3434
g3429
a(lp3435
S'is'
p3436
ag137
aS'much'
p3437
aS'more'
p3438
aS'official'
p3439
aS'capacity'
p3440
aaa(lp3441
g3429
a(lp3442
S'because'
p3443
aS'you'
p3444
aS'are'
p3445
aS'the'
p3446
aS'one'
p3447
aS'who'
p3448
aS'answers'
p3449
aS'to'
p3450
aS'the'
p3451
aS'board'
p3452
aaa(lp3453
S'BRAD'
p3454
a(lp3455
S'Yeah'
p3456
aaa(lp3457
S'PHIL'
p3458
a(lp3459
aa(lp3460
S'BRAD'
p3461
a(lp3462
S'Right'
p3463
aaa(lp3464
S'PHIL'
p3465
a(lp3466
S'You'
p3467
aS'have'
p3468
aS'to'
p3469
aS'do'
p3470
aS'that'
p3471
aaa(lp3472
g3465
a(lp3473
S'And'
p3474
aS'you'
p3475
aS'are'
p3476
aS'th'
p3477
aS'can'
p3478
aS'voice'
p3479
aS'an'
p3480
aS'opinion'
p3481
aS'about'
p3482
aS'things'
p3483
aaa(lp3484
S'BRAD'
p3485
a(lp3486
S'Yeah'
p3487
aaa(lp3488
S'PHIL'
p3489
a(lp3490
S'But'
p3491
aS'the'
p3492
aS'biggest'
p3493
aS'deal'
p3494
aaa(lp3495
g3489
a(lp3496
S'where'
p3497
ag52
aS'thought'
p3498
aS'it'
p3499
aS'was'
p3500
aS'an'
p3501
aS'issue'
p3502
aaa(lp3503
g3489
a(lp3504
S'th'
p3505
aS'where'
p3506
ag52
aS'heard'
p3507
aS'things'
p3508
aS'about'
p3509
aS'it'
p3510
aS'was'
p3511
aaa(lp3512
g3489
a(lp3513
S'during'
p3514
aS'the'
p3515
aS'annual'
p3516
aS'meeting'
p3517
aaa(lp3518
g3489
a(lp3519
S'right'
p3520
aS'after'
p3521
aaa(lp3522
g3489
a(lp3523
S'when'
p3524
aS'we'
p3525
aS'had'
p3526
aS'the'
p3527
aS'discussion'
p3528
aS'about'
p3529
aS'the'
p3530
aS'poster'
p3531
aaa(lp3532
S'BRAD'
p3533
a(lp3534
S'Oh'
p3535
aaa(lp3536
S'PHIL'
p3537
a(lp3538
S'When'
p3539
aS'we'
p3540
aS'brought'
p3541
aS'up'
p3542
aS'the'
p3543
aS'thing'
p3544
aaa(lp3545
S'BRAD'
p3546
a(lp3547
S'Was'
p3548
aS'Pat'
p3549
aS'uh'
p3550
aaa(lp3551
S'PHIL'
p3552
a(lp3553
S'Pat'
p3554
aS'was'
p3555
aS'right'
p3556
aS'in'
p3557
aS'the'
p3558
aS'middle'
p3559
aS'of'
p3560
aS'it'
p3561
aaa(lp3562
S'BRAD'
p3563
a(lp3564
S'See'
p3565
aaa(lp3566
g3563
a(lp3567
g52
aaa(lp3568
g3563
a(lp3569
g52
aS'wasnt'
p3570
aS'there'
p3571
aaa(lp3572
S'PHIL'
p3573
a(lp3574
S'and'
p3575
aS'she'
p3576
aS'was'
p3577
aS'saying'
p3578
aaa(lp3579
g3573
a(lp3580
S'well'
p3581
aS'this'
p3582
aS'is'
p3583
ag137
aS'great'
p3584
aS'piece'
p3585
aaa(lp3586
g3573
a(lp3587
S'and'
p3588
aS'this'
p3589
aS'is'
p3590
aS'this'
p3591
aaa(lp3592
g3573
a(lp3593
S'Well'
p3594
aaa(lp3595
S'BRAD'
p3596
a(lp3597
S'Yeah'
p3598
aaa(lp3599
S'PHIL'
p3600
a(lp3601
S'you'
p3602
aS'know'
p3603
aaa(lp3604
g3600
a(lp3605
g52
aS'didnt'
p3606
aS'wanna'
p3607
aS'embarrass'
p3608
aS'her'
p3609
aaa(lp3610
S'BRAD'
p3611
a(lp3612
S'She'
p3613
aS'shouldnt'
p3614
ag7
aS'have'
p3615
aS'done'
p3616
aS'that'
p3617
ag7
aaa(lp3618
S'PHIL'
p3619
a(lp3620
S'and'
p3621
ag52
aS'didnt'
p3622
aS'wanna'
p3623
aS'do'
p3624
aS'anything'
p3625
aaa(lp3626
S'BRAD'
p3627
a(lp3628
g52
aS'know'
p3629
aaa(lp3630
S'PHIL'
p3631
a(lp3632
S'But'
p3633
ag52
aS'just'
p3634
aS'saw'
p3635
aaa(lp3636
g3631
a(lp3637
S'people'
p3638
aS'kinda'
p3639
aS'going'
p3640
aaa(lp3641
S'BRAD'
p3642
a(lp3643
S'That'
p3644
aS'was'
p3645
aS'out'
p3646
aaa(lp3647
g3642
a(lp3648
S'Yeah'
p3649
aaa(lp3650
S'PHIL'
p3651
a(lp3652
S'You'
p3653
aS'know'
p3654
aaa(lp3655
S'BRAD'
p3656
a(lp3657
S'Yeah'
p3658
aaa(lp3659
S'PHIL'
p3660
a(lp3661
S'And'
p3662
aaa(lp3663
S'BRAD'
p3664
a(lp3665
S'Thats'
p3666
aS'true'
p3667
aaa(lp3668
g3664
a(lp3669
S'She'
p3670
aS'shouldntve'
p3671
aS'been'
p3672
aS'in'
p3673
aS'on'
p3674
aS'that'
p3675
ag7
aS'at'
p3676
aS'all'
p3677
ag7
aaa(lp3678
S'BRAD'
p3679
a(lp3680
S'She'
p3681
aS'shouldntve'
p3682
aS'been'
p3683
aaa(lp3684
g3679
a(lp3685
S'you'
p3686
aS'know'
p3687
aaa(lp3688
g3679
a(lp3689
S'cause'
p3690
aS'thats'
p3691
aS'not'
p3692
aS'part'
p3693
aS'of'
p3694
aS'her'
p3695
aS'capacity'
p3696
aaa(lp3697
g3679
a(lp3698
S'shes'
p3699
aS'not'
p3700
aS'on'
p3701
aS'that'
p3702
aS'committee'
p3703
aaa(lp3704
S'BRAD'
p3705
a(lp3706
S'Mhm'
p3707
aaa(lp3708
g3705
a(lp3709
S'Mhm'
p3710
aaa(lp3711
S'PHIL'
p3712
a(lp3713
S'you'
p3714
aS'know'
p3715
aaa(lp3716
g3712
a(lp3717
S'and'
p3718
aS'if'
p3719
aS'she'
p3720
aS'wants'
p3721
aaa(lp3722
g3712
a(lp3723
S'you'
p3724
aS'know'
p3725
aaa(lp3726
g3712
a(lp3727
S'basically'
p3728
aS'the'
p3729
aS'thing'
p3730
aS'is'
p3731
aaa(lp3732
g3712
a(lp3733
S'you'
p3734
aS'know'
p3735
aaa(lp3736
g3712
a(lp3737
S'if'
p3738
aS'she'
p3739
aS'wanted'
p3740
aS'to'
p3741
aS'be'
p3742
ag137
aS'board'
p3743
aS'person'
p3744
aaa(lp3745
S'BRAD'
p3746
a(lp3747
S'Mhm'
p3748
aaa(lp3749
S'PHIL'
p3750
a(lp3751
S'Thats'
p3752
aS'fine'
p3753
aaa(lp3754
g3750
a(lp3755
g52
aS'mean'
p3756
aS'lets'
p3757
aS'look'
p3758
aS'into'
p3759
aS'b'
p3760
aS'pursuing'
p3761
aS'that'
p3762
aaa(lp3763
S'BRAD'
p3764
a(lp3765
S'Right'
p3766
aaa(lp3767
g3764
a(lp3768
S'Right'
p3769
aaa(lp3770
S'PHIL'
p3771
a(lp3772
S'But'
p3773
aS'see'
p3774
aS'Im'
p3775
aS'afraid'
p3776
aS'were'
p3777
aS'gonna'
p3778
aS'lose'
p3779
aS'Jim'
p3780
aS'because'
p3781
aS'of'
p3782
aS'that'
p3783
aaa(lp3784
g3771
a(lp3785
S'he'
p3786
aS'feels'
p3787
aS'theres'
p3788
ag137
aS'conflict'
p3789
aaa(lp3790
g3771
a(lp3791
S'And'
p3792
aS'uh'
p3793
aaa(lp3794
g3771
a(lp3795
S'its'
p3796
aS'definitely'
p3797
aS'gonna'
p3798
aS'happen'
p3799
aaa(lp3800
S'BRAD'
p3801
a(lp3802
g52
aS'mean'
p3803
aS'he'
p3804
aS'says'
p3805
aaa(lp3806
g3801
a(lp3807
S'Theres'
p3808
aS'no'
p3809
aS'question'
p3810
aS'about'
p3811
aS'it'
p3812
aaa(lp3813
g3801
a(lp3814
S'weve'
p3815
aS'talked'
p3816
aaa(lp3817
S'PHIL'
p3818
a(lp3819
S'Yeah'
p3820
aaa(lp3821
g3818
a(lp3822
S'and'
p3823
aS'maybe'
p3824
aS'its'
p3825
aS'right'
p3826
aaa(lp3827
g3818
a(lp3828
S'Maybe'
p3829
aS'it'
p3830
aS's'
p3831
aS'it'
p3832
aS'is'
p3833
aS'gonna'
p3834
aS'be'
p3835
aS'right'
p3836
aaa(lp3837
S'BRAD'
p3838
a(lp3839
S'Yeah'
p3840
aaa(lp3841
S'PHIL'
p3842
a(lp3843
S'You'
p3844
aS'know'
p3845
aaa(lp3846
S'BRAD'
p3847
a(lp3848
S'Well'
p3849
aS'he'
p3850
aaa(lp3851
g3847
a(lp3852
g659
aaa(lp3853
g3847
a(lp3854
g52
aS'mean'
p3855
aS'he'
p3856
aS'doesnt'
p3857
aS'seem'
p3858
aS'to'
p3859
aaa(lp3860
g3847
a(lp3861
S'youve'
p3862
aS'talked'
p3863
aS'to'
p3864
aS'him'
p3865
aS'and'
p3866
aS'Ive'
p3867
aS'talked'
p3868
aS'to'
p3869
aS'him'
p3870
aS'and'
p3871
aaa(lp3872
S'PHIL'
p3873
a(lp3874
S'Well'
p3875
aaa(lp3876
g3873
a(lp3877
S'he'
p3878
aS'seems'
p3879
aS'to'
p3880
aS'be'
p3881
aaa(lp3882
S'BRAD'
p3883
a(lp3884
g52
aS'mean'
p3885
aS'he'
p3886
aS'says'
p3887
aS'mayb'
p3888
aaa(lp3889
g3883
a(lp3890
S'you'
p3891
aS'know'
p3892
aaa(lp3893
g3883
a(lp3894
S'after'
p3895
aS'the'
p3896
aS'board'
p3897
aS'retreat'
p3898
aaa(lp3899
g3883
a(lp3900
S'now'
p3901
aaa(lp3902
S'PHIL'
p3903
a(lp3904
S'Yeah'
p3905
aaa(lp3906
S'BRAD'
p3907
a(lp3908
S'But'
p3909
aS'not'
p3910
aaa(lp3911
S'PHIL'
p3912
a(lp3913
S'Well'
p3914
ag52
ag137
aaa(lp3915
S'BRAD'
p3916
a(lp3917
g7
aS'you'
p3918
aS'know'
p3919
ag7
aaa(lp3920
S'PHIL'
p3921
a(lp3922
g52
aS'wanted'
p3923
aS'him'
p3924
aaa(lp3925
g3921
a(lp3926
g52
aS'said'
p3927
ag52
aS'want'
p3928
aS'you'
p3929
aS'to'
p3930
aS'stay'
p3931
aS'through'
p3932
aS'the'
p3933
aS'board'
p3934
aS'retreat'
p3935
aaa(lp3936
S'BRAD'
p3937
a(lp3938
S'Yeah'
p3939
aaa(lp3940
S'PHIL'
p3941
a(lp3942
g52
aS'says'
p3943
aaa(lp3944
g3941
a(lp3945
S'and'
p3946
aS'the'
p3947
aS'reason'
p3948
aS'is'
p3949
aaa(lp3950
g3941
a(lp3951
S'because'
p3952
ag52
aS'said'
p3953
aS'we'
p3954
aS'need'
p3955
aS'people'
p3956
aS'who'
p3957
aS'know'
p3958
aaa(lp3959
g3941
a(lp3960
g52
aS'said'
p3961
aS'right'
p3962
aS'now'
p3963
aS'we'
p3964
aS'have'
p3965
aaa(lp3966
g3941
a(lp3967
S'You'
p3968
aS'know'
p3969
aaa(lp3970
g3941
a(lp3971
S'four'
p3972
aS'new'
p3973
aS'board'
p3974
aS'members'
p3975
aaa(lp3976
g3941
a(lp3977
S'Or'
p3978
aS'five'
p3979
aaa(lp3980
S'BRAD'
p3981
a(lp3982
S'Yeah'
p3983
aaa(lp3984
S'PHIL'
p3985
a(lp3986
S'You'
p3987
aS'know'
p3988
aaa(lp3989
S'BRAD'
p3990
a(lp3991
S'Yeah'
p3992
aaa(lp3993
S'PHIL'
p3994
a(lp3995
S'Four'
p3996
aaa(lp3997
g3994
a(lp3998
S'whatever'
p3999
aaa(lp4000
S'BRAD'
p4001
a(lp4002
S'Four'
p4003
aS'new'
p4004
aS'board'
p4005
aaa(lp4006
g4001
a(lp4007
S'yeah'
p4008
aaa(lp4009
S'PHIL'
p4010
a(lp4011
S'And'
p4012
aaa(lp4013
g4010
a(lp4014
S'were'
p4015
aS'at'
p4016
aS'this'
p4017
aS'point'
p4018
aS'of'
p4019
aS'saying'
p4020
aS'okay'
p4021
aaa(lp4022
g4010
a(lp4023
S'Uh'
p4024
aaa(lp4025
g4010
a(lp4026
S'All'
p4027
aS'of'
p4028
ag137
aS'sudden'
p4029
aaa(lp4030
g4010
a(lp4031
S'we'
p4032
aS'have'
p4033
ag547
aS'all'
p4034
aS'these'
p4035
aaa(lp4036
g4010
a(lp4037
S'you'
p4038
aS'know'
p4039
aaa(lp4040
g4010
a(lp4041
S'questions'
p4042
aS'to'
p4043
aS'answer'
p4044
aaa(lp4045
S'BRAD'
p4046
a(lp4047
S'Mhm'
p4048
aaa(lp4049
S'PHIL'
p4050
a(lp4051
S'You'
p4052
aS'know'
p4053
aaa(lp4054
g4050
a(lp4055
S'we'
p4056
aS'have'
p4057
aS'all'
p4058
aS'these'
p4059
aS'things'
p4060
aS'that'
p4061
aS'we'
p4062
aS'have'
p4063
aS'to'
p4064
aS'do'
p4065
aaa(lp4066
S'BRAD'
p4067
a(lp4068
S'Mhm'
p4069
aaa(lp4070
S'PHIL'
p4071
a(lp4072
S'and'
p4073
aS'we'
p4074
aS'have'
p4075
aS'this'
p4076
aS'commitment'
p4077
aS'of'
p4078
aS'time'
p4079
aaa(lp4080
g4071
a(lp4081
S'Uh'
p4082
aaa(lp4083
g4071
a(lp4084
S'and'
p4085
aS'but'
p4086
aS'they'
p4087
aS'dont'
p4088
aS'know'
p4089
aaa(lp4090
g4071
a(lp4091
S'everything'
p4092
aS'thats'
p4093
aS'gone'
p4094
aS'on'
p4095
aaa(lp4096
g4071
a(lp4097
S'in'
p4098
aS'the'
p4099
aS'last'
p4100
aS'years'
p4101
aaa(lp4102
S'BRAD'
p4103
a(lp4104
S'They'
p4105
aS'need'
p4106
aS'to'
p4107
aS'be'
p4108
aS'educated'
p4109
aS'as'
p4110
aS'to'
p4111
aaa(lp4112
S'PHIL'
p4113
a(lp4114
S'See'
p4115
aS'this'
p4116
aaa(lp4117
S'BRAD'
p4118
a(lp4119
S'no'
p4120
aaa(lp4121
g4118
a(lp4122
S'no'
p4123
aaa(lp4124
S'PHIL'
p4125
a(lp4126
S'this'
p4127
aS'retreat'
p4128
aaa(lp4129
g4125
a(lp4130
S'thats'
p4131
aS'why'
p4132
aS'you'
p4133
aS'see'
p4134
aaa(lp4135
g4125
a(lp4136
g52
aS'think'
p4137
aS'its'
p4138
aS'important'
p4139
aaa(lp4140
g4125
a(lp4141
S'Because'
p4142
aaa(lp4143
g4125
a(lp4144
g52
aS'mean'
p4145
ag52
aS'realized'
p4146
aaa(lp4147
g4125
a(lp4148
S'that'
p4149
aS'Id'
p4150
aS'never'
p4151
aS'seen'
p4152
aS'the'
p4153
aS'bylaws'
p4154
aaa(lp4155
g4125
a(lp4156
S'since'
p4157
ag52
aS'was'
p4158
aS'on'
p4159
aS'the'
p4160
aS'board'
p4161
aS'until'
p4162
ag52
aS'asked'
p4163
aS'for'
p4164
ag137
aS'copy'
p4165
aaa(lp4166
S'BRAD'
p4167
a(lp4168
S'Mhm'
p4169
aaa(lp4170
g4167
a(lp4171
S'Mhm'
p4172
aaa(lp4173
g4167
a(lp4174
S'Right'
p4175
aaa(lp4176
g4167
a(lp4177
S'Yeah'
p4178
aaa(lp4179
g4167
a(lp4180
S'Now'
p4181
aS'what'
p4182
ag52
aaa(lp4183
g4167
a(lp4184
S'what'
p4185
ag52
aS'have'
p4186
aS'done'
p4187
aS'though'
p4188
aaa(lp4189
g4167
a(lp4190
S'is'
p4191
aS'to'
p4192
aaa(lp4193
g4167
a(lp4194
S'you'
p4195
aS'know'
p4196
aaa(lp4197
g4167
a(lp4198
S'any'
p4199
aS'new'
p4200
aS'board'
p4201
aS'member'
p4202
aS'that'
p4203
aS'jumps'
p4204
aS'on'
p4205
aaa(lp4206
g4167
a(lp4207
g52
aS'send'
p4208
aS'them'
p4209
aaa(lp4210
S'PHIL'
p4211
a(lp4212
S'Good'
p4213
aaa(lp4214
S'BRAD'
p4215
a(lp4216
S'copies'
p4217
aS'of'
p4218
aS'the'
p4219
aaa(lp4220
S'PHIL'
p4221
a(lp4222
S'because'
p4223
aaa(lp4224
g4221
a(lp4225
g52
aS'wanna'
p4226
aaa(lp4227
S'BRAD'
p4228
a(lp4229
S'Yeah'
p4230
aaa(lp4231
S'PHIL'
p4232
a(lp4233
g52
aS'wanna'
p4234
aS'get'
p4235
aS'these'
p4236
aS'books'
p4237
aaa(lp4238
S'BRAD'
p4239
a(lp4240
S'but'
p4241
aS'ty'
p4242
aaa(lp4243
g4239
a(lp4244
S'typically'
p4245
aS'they'
p4246
aS'no'
p4247
aS'one'
p4248
aS'reads'
p4249
aS'em'
p4250
aaa(lp4251
S'PHIL'
p4252
a(lp4253
S'Well'
p4254
aS'thats'
p4255
aS'fine'
p4256
aaa(lp4257
S'BRAD'
p4258
a(lp4259
S'You'
p4260
aS'know'
p4261
aaa(lp4262
g4258
a(lp4263
S'But'
p4264
aS'its'
p4265
aaa(lp4266
g4258
a(lp4267
S'At'
p4268
aS'least'
p4269
aS'theyve'
p4270
aS'got'
p4271
aaa(lp4272
S'PHIL'
p4273
a(lp4274
S'But'
p4275
ag52
aS'think'
p4276
aaa(lp4277
g4273
a(lp4278
S'what'
p4279
ag52
aS'wanna'
p4280
aS'do'
p4281
aS'is'
p4282
aaa(lp4283
g4273
a(lp4284
S'Im'
p4285
aS'gonna'
p4286
aaa(lp4287
g4273
a(lp4288
g52
aS'wanna'
p4289
aS'draft'
p4290
ag137
aS'letter'
p4291
aaa(lp4292
S'BRAD'
p4293
a(lp4294
S'Mhm'
p4295
aaa(lp4296
S'PHIL'
p4297
a(lp4298
S'Like'
p4299
ag52
aS'said'
p4300
aS'which'
p4301
aaa(lp4302
S'BRAD'
p4303
a(lp4304
S'Mhm'
p4305
aaa(lp4306
S'PHIL'
p4307
a(lp4308
S'says'
p4309
aS'to'
p4310
aS'them'
p4311
aS'you'
p4312
aS'know'
p4313
aaa(lp4314
g4307
a(lp4315
S'this'
p4316
aS'is'
p4317
aS'what'
p4318
aS'were'
p4319
aS'doing'
p4320
aaa(lp4321
g4307
a(lp4322
S'this'
p4323
aS'is'
p4324
aS'the'
p4325
aS'purpose'
p4326
aS'of'
p4327
aS'this'
p4328
aS'retreat'
p4329
aaa(lp4330
S'BRAD'
p4331
a(lp4332
S'Mhm'
p4333
aaa(lp4334
S'PHIL'
p4335
a(lp4336
S'To'
p4337
aS'new'
p4338
aS'board'
p4339
aS'members'
p4340
aaa(lp4341
g4335
a(lp4342
S'and'
p4343
aaa(lp4344
g4335
a(lp4345
S'you'
p4346
aS'know'
p4347
aaa(lp4348
g4335
a(lp4349
S'board'
p4350
aS'members'
p4351
aaa(lp4352
g4335
a(lp4353
S'for'
p4354
ag137
aS'while'
p4355
aS'it'
p4356
aS'was'
p4357
aaa(lp4358
g4335
a(lp4359
S'we'
p4360
aS'need'
p4361
aS'to'
p4362
aS'find'
p4363
aS'out'
p4364
aS'what'
p4365
aS'it'
p4366
aS'is'
p4367
aS'were'
p4368
aS'doing'
p4369
aaa(lp4370
S'BRAD'
p4371
a(lp4372
S'Yeah'
p4373
aaa(lp4374
S'PHIL'
p4375
a(lp4376
S'Whether'
p4377
aS'were'
p4378
aS'doing'
p4379
aS'something'
p4380
aS'right'
p4381
aS'or'
p4382
aS'not'
p4383
aaa(lp4384
g4375
a(lp4385
S'You'
p4386
aS'know'
p4387
aaa(lp4388
S'BRAD'
p4389
a(lp4390
S'Right'
p4391
aaa(lp4392
S'PHIL'
p4393
a(lp4394
aa(lp4395
S'BRAD'
p4396
a(lp4397
S'Right'
p4398
aaa(lp4399
S'PHIL'
p4400
a(lp4401
g52
aS'think'
p4402
aS'we'
p4403
aS'are'
p4404
aaa(lp4405
g4400
a(lp4406
S'B'
p4407
aS'but'
p4408
aaa(lp4409
S'BRAD'
p4410
a(lp4411
S'Oh'
p4412
aS'yeah'
p4413
aaa(lp4414
g4410
a(lp4415
S'Sure'
p4416
aS'we'
p4417
aS'are'
p4418
aaa(lp4419
S'PHIL'
p4420
a(lp4421
g52
aS'think'
p4422
aaa(lp4423
S'BRAD'
p4424
a(lp4425
S'Sure'
p4426
aS'we'
p4427
aS'are'
p4428
aaa(lp4429
S'PHIL'
p4430
a(lp4431
S'the'
p4432
aS'thing'
p4433
aS'is'
p4434
aaa(lp4435
g4430
a(lp4436
g52
aS'dont'
p4437
aaa(lp4438
g4430
a(lp4439
g52
aS'need'
p4440
aS'to'
p4441
ag3760
aaa(lp4442
g4430
a(lp4443
S'them'
p4444
aS'to'
p4445
aS'kind'
p4446
aS'of'
p4447
aS'commit'
p4448
aaa(lp4449
g4430
a(lp4450
S'To'
p4451
aS'to'
p4452
aS'being'
p4453
aS'responsible'
p4454
aaa(lp4455
S'BRAD'
p4456
a(lp4457
S'Mhm'
p4458
aaa(lp4459
g4456
a(lp4460
S'Yeah'
p4461
aaa(lp4462
S'PHIL'
p4463
a(lp4464
S'And'
p4465
aS'uh'
p4466
aaa(lp4467
g4463
a(lp4468
g52
aS'mean'
p4469
ag52
aS'kinda'
p4470
aS'hate'
p4471
aS'to'
p4472
aS'feel'
p4473
aS'like'
p4474
aS'Im'
p4475
aS'taking'
p4476
aS'charge'
p4477
aaa(lp4478
g4463
a(lp4479
S'but'
p4480
aS'th'
p4481
ag52
aS'guess'
p4482
aS'thats'
p4483
aS'what'
p4484
aS'Im'
p4485
aS'Im'
p4486
aS'needing'
p4487
aS'to'
p4488
aS'do'
p4489
aaa(lp4490
S'BRAD'
p4491
a(lp4492
S'Well'
p4493
aS'yeah'
p4494
aS'for'
p4495
aaa(lp4496
S'PHIL'
p4497
a(lp4498
S'You'
p4499
aS'know'
p4500
aS'but'
p4501
aaa(lp4502
S'BRAD'
p4503
a(lp4504
g670
ag670
aS'you'
p4505
aS'do'
p4506
aaa(lp4507
g4503
a(lp4508
S'and'
p4509
aS'youre'
p4510
aaa(lp4511
S'PHIL'
p4512
a(lp4513
S'and'
p4514
aS'thats'
p4515
aS'kind'
p4516
aS'of'
p4517
aS'why'
p4518
aS'Im'
p4519
aaa(lp4520
S'BRAD'
p4521
a(lp4522
S'and'
p4523
aS'youre'
p4524
aS'present'
p4525
aaa(lp4526
S'PHIL'
p4527
a(lp4528
S'Im'
p4529
aS'going'
p4530
aS'to'
p4531
aS'assign'
p4532
aS'things'
p4533
aaa(lp4534
S'BRAD'
p4535
a(lp4536
S'Unhunh'
p4537
aaa(lp4538
S'PHIL'
p4539
a(lp4540
S'you'
p4541
aS'know'
p4542
aaa(lp4543
g4539
a(lp4544
S'at'
p4545
aS'some'
p4546
aS'point'
p4547
aS'were'
p4548
aS'gonna'
p4549
aS'have'
p4550
aS'committees'
p4551
aaa(lp4552
g4539
a(lp4553
S'and'
p4554
aS'were'
p4555
aS'gonna'
p4556
aS'have'
p4557
aaa(lp4558
g4539
a(lp4559
S'you'
p4560
aS'know'
p4561
aaa(lp4562
S'BRAD'
p4563
a(lp4564
S'Mhm'
p4565
aaa(lp4566
S'PHIL'
p4567
a(lp4568
g3760
aS'people'
p4569
aaa(lp4570
g4567
a(lp4571
S'thatll'
p4572
aS'be'
p4573
aS'given'
p4574
aS'tasks'
p4575
aaa(lp4576
S'BRAD'
p4577
a(lp4578
S'Yeah'
p4579
aaa(lp4580
S'PHIL'
p4581
a(lp4582
S'You'
p4583
aS'know'
p4584
aaa(lp4585
g4581
a(lp4586
S'Specifically'
p4587
aaa(lp4588
S'BRAD'
p4589
a(lp4590
S'Yeah'
p4591
aaa(lp4592
S'PHIL'
p4593
a(lp4594
S'Like'
p4595
aaa(lp4596
g4593
a(lp4597
S'you'
p4598
aS'know'
p4599
aaa(lp4600
g4593
a(lp4601
g52
aS'didnt'
p4602
aS'need'
p4603
aS'to'
p4604
aS'do'
p4605
aS'all'
p4606
aS'this'
p4607
aS'calling'
p4608
aS'aro'
p4609
aS'to'
p4610
aS'find'
p4611
ag137
aS'r'
p4612
ag137
ag4612
aS'retreat'
p4613
aS'space'
p4614
aaa(lp4615
g4593
a(lp4616
S'but'
p4617
ag52
aS'figured'
p4618
aaa(lp4619
g4593
a(lp4620
S'if'
p4621
ag52
aS'dont'
p4622
aS'do'
p4623
aS'it'
p4624
aaa(lp4625
S'BRAD'
p4626
a(lp4627
S'Thats'
p4628
aS'right'
p4629
aaa(lp4630
S'PHIL'
p4631
a(lp4632
S'its'
p4633
aS'gonna'
p4634
aS'fall'
p4635
aS'on'
p4636
aS'you'
p4637
aS'or'
p4638
aS'pat'
p4639
aaa(lp4640
S'BRAD'
p4641
a(lp4642
S'Yeah'
p4643
aaa(lp4644
g4641
a(lp4645
S'Of'
p4646
aS'course'
p4647
aaa(lp4648
g4641
a(lp4649
S'Yeah'
p4650
aaa(lp4651
S'PHIL'
p4652
a(lp4653
S'You'
p4654
aS'know'
p4655
aaa(lp4656
S'BRAD'
p4657
a(lp4658
S'And'
p4659
aS'normally'
p4660
aS'thats'
p4661
aS'thats'
p4662
aS'what'
p4663
aS'happens'
p4664
aaa(lp4665
S'PHIL'
p4666
a(lp4667
S'Thats'
p4668
aS'okay'
p4669
aaa(lp4670
g4666
a(lp4671
S'but'
p4672
aaa(lp4673
S'BRAD'
p4674
a(lp4675
g52
aS'mean'
p4676
aaa(lp4677
g4674
a(lp4678
S'uh'
p4679
aaa(lp4680
S'PHIL'
p4681
a(lp4682
S'You'
p4683
aS'know'
p4684
aaa(lp4685
g4681
a(lp4686
g52
aS'Im'
p4687
ag137
aS'Im'
p4688
ag137
aaa(lp4689
g4681
a(lp4690
S'Im'
p4691
aS'aware'
p4692
aS'of'
p4693
ag137
aS'lot'
p4694
aS'of'
p4695
aS'the'
p4696
aS'things'
p4697
aS'that'
p4698
aS'are'
p4699
aS'going'
p4700
aS'on'
p4701
aaa(lp4702
g4681
a(lp4703
S'You'
p4704
aS'know'
p4705
aaa(lp4706
S'BRAD'
p4707
a(lp4708
S'Yeah'
p4709
aaa(lp4710
S'PHIL'
p4711
a(lp4712
g52
aS'know'
p4713
aS'that'
p4714
aS'youre'
p4715
aS'getting'
p4716
aS'ready'
p4717
aS'to'
p4718
aS'leave'
p4719
aaa(lp4720
g4711
a(lp4721
S'and'
p4722
aS'Pats'
p4723
aS'doing'
p4724
aS'things'
p4725
aS'so'
p4726
aaa(lp4727
g4711
a(lp4728
S'Id'
p4729
aS'better'
p4730
aS'let'
p4731
aS'you'
p4732
aS'go'
p4733
aS'get'
p4734
aS'her'
p4735
aaa(lp4736
S'BRAD'
p4737
a(lp4738
S'Yeah'
p4739
aaa(lp4740
g4737
a(lp4741
g52
aS'know'
p4742
aaa(lp4743
g4737
a(lp4744
S'Okay'
p4745
aaa(lp4746
S'PHIL'
p4747
a(lp4748
S'And'
p4749
aS'well'
p4750
aS'continue'
p4751
aS'this'
p4752
aaa(lp4753
S'BRAD'
p4754
a(lp4755
S'Well'
p4756
aaa(lp4757
g4754
a(lp4758
S'yeah'
p4759
aaa(lp4760
g4754
a(lp4761
S'There'
p4762
aaa(lp4763
S'PHIL'
p4764
a(lp4765
S'In'
p4766
aS'some'
p4767
aS'manner'
p4768
aaa(lp4769
g4764
a(lp4770
S'but'
p4771
aS'we'
p4772
aS'dont'
p4773
aS'have'
p4774
aS'to'
p4775
aS'talk'
p4776
aS'about'
p4777
aS'it'
p4778
aS'at'
p4779
aS'lunch'
p4780
aS'if'
p4781
aS'you'
p4782
aS'dont'
p4783
aS'want'
p4784
aaa(lp4785
g4764
a(lp4786
S'But'
p4787
ag52
aS'think'
p4788
aaa(lp4789
S'BRAD'
p4790
a(lp4791
S'No'
p4792
aaa(lp4793
g4790
a(lp4794
S'thats'
p4795
aS'fine'
p4796
aaa(lp4797
S'PHIL'
p4798
a(lp4799
S'if'
p4800
aS'we'
p4801
aS'can'
p4802
aaa(lp4803
S'BRAD'
p4804
a(lp4805
S'Thats'
p4806
aS'fine'
p4807
aaa(lp4808
S'PHIL'
p4809
a(lp4810
S'If'
p4811
aS'we'
p4812
aS'can'
p4813
aS'go'
p4814
aS'ahead'
p4815
aS'and'
p4816
aS'carry'
p4817
aS'on'
p4818
aaa(lp4819
S'BRAD'
p4820
a(lp4821
S'Um'
p4822
aaa(lp4823
S'PHIL'
p4824
a(lp4825
S'at'
p4826
aS'some'
p4827
aS'point'
p4828
aaa(lp4829
g4824
a(lp4830
S'you'
p4831
aS'and'
p4832
ag52
ag52
aS'think'
p4833
aaa(lp4834
S'BRAD'
p4835
a(lp4836
S'Yeah'
p4837
aaa(lp4838
S'PHIL'
p4839
a(lp4840
S'Because'
p4841
aaa(lp4842
S'BRAD'
p4843
a(lp4844
S'One'
p4845
aS'thing'
p4846
aS'that'
p4847
aS'comes'
p4848
aS'to'
p4849
aS'mind'
p4850
aS'is'
p4851
aaa(lp4852
g4843
a(lp4853
S'is'
p4854
aS'the'
p4855
aaa(lp4856
g4843
a(lp4857
S'well'
p4858
aS'the'
p4859
aS'question'
p4860
aS'of'
p4861
aS'meeting'
p4862
aS'quarterly'
p4863
aaa(lp4864
g4843
a(lp4865
S'is'
p4866
aS'that'
p4867
aS'enough'
p4868
aaa(lp4869
g4843
a(lp4870
S'Meaning'
p4871
aS'having'
p4872
aaa(lp4873
g4843
a(lp4874
S'you'
p4875
aS'know'
p4876
aS'the'
p4877
aaa(lp4878
S'PHIL'
p4879
a(lp4880
S'It'
p4881
aS'would'
p4882
aS'be'
p4883
aS'enough'
p4884
aS'if'
p4885
aS'committees'
p4886
aS'were'
p4887
aS'to'
p4888
aS'meet'
p4889
aaa(lp4890
S'BRAD'
p4891
a(lp4892
aa(lp4893
g4891
a(lp4894
S'uh'
p4895
aaa(lp4896
g4891
a(lp4897
S'If'
p4898
aS'committees'
p4899
aS'yeah'
p4900
aaa(lp4901
g4891
a(lp4902
S'and'
p4903
aS'thats'
p4904
aS'the'
p4905
aaa(lp4906
S'PHIL'
p4907
a(lp4908
S'but'
p4909
aaa(lp4910
S'BRAD'
p4911
a(lp4912
S'that'
p4913
aaa(lp4914
g4911
a(lp4915
S'thats'
p4916
aaa(lp4917
g4911
a(lp4918
S'that'
p4919
aS'was'
p4920
aS'Pauls'
p4921
aS'uh'
p4922
aS'desire'
p4923
aaa(lp4924
S'PHIL'
p4925
a(lp4926
S'And'
p4927
ag52
aS'think'
p4928
aaa(lp4929
S'BRAD'
p4930
a(lp4931
S'was'
p4932
aS'uh'
p4933
aaa(lp4934
S'PHIL'
p4935
a(lp4936
S'thats'
p4937
aS'what'
p4938
aS'we'
p4939
aS'wanna'
p4940
aS'talk'
p4941
aS'ab'
p4942
aaa(lp4943
S'BRAD'
p4944
a(lp4945
aa(lp4946
S'PHIL'
p4947
a(lp4948
S'well'
p4949
aS'talk'
p4950
aS'about'
p4951
aS'that'
p4952
aS'there'
p4953
aS'too'
p4954
aaa(lp4955
g4947
a(lp4956
S'And'
p4957
aS'say'
p4958
aS'look'
p4959
aaa(lp4960
S'BRAD'
p4961
a(lp4962
S'Mhm'
p4963
aaa(lp4964
S'PHIL'
p4965
a(lp4966
S'you'
p4967
aS'know'
p4968
aaa(lp4969
g4965
a(lp4970
S'is'
p4971
aS'quarterly'
p4972
aaa(lp4973
g4965
a(lp4974
S'you'
p4975
aS'know'
p4976
aaa(lp4977
g4965
a(lp4978
S'we'
p4979
aS'would'
p4980
aS'we'
p4981
aS'need'
p4982
aS'to'
p4983
aS'meet'
p4984
aS'every'
p4985
aS'other'
p4986
aS'month'
p4987
aaa(lp4988
S'BRAD'
p4989
a(lp4990
S'Mhm'
p4991
aaa(lp4992
S'PHIL'
p4993
a(lp4994
S'You'
p4995
aS'know'
p4996
aaa(lp4997
g4993
a(lp4998
S'do'
p4999
aS'we'
p5000
aS'need'
p5001
ag547
aaa(lp5002
g4993
a(lp5003
S'do'
p5004
aS'we'
p5005
aS'need'
p5006
aS'to'
p5007
aS'meet'
p5008
aaa(lp5009
g4993
a(lp5010
S'you'
p5011
aS'know'
p5012
aaa(lp5013
S'BRAD'
p5014
a(lp5015
S'as'
p5016
ag137
aS'full'
p5017
aS'board'
p5018
aS'every'
p5019
aS'oth'
p5020
aaa(lp5021
g5014
a(lp5022
g435
aaa(lp5023
g5014
a(lp5024
S'We'
p5025
aS'shouldnt'
p5026
aS'have'
p5027
aS'to'
p5028
aaa(lp5029
S'PHIL'
p5030
a(lp5031
S'We'
p5032
aS'shouldnt'
p5033
aaa(lp5034
S'BRAD'
p5035
a(lp5036
S'If'
p5037
aS'the'
p5038
aS'committees'
p5039
aaa(lp5040
g5035
a(lp5041
S'uh'
p5042
aaa(lp5043
S'PHIL'
p5044
a(lp5045
S'but'
p5046
aS'these'
p5047
aS'committees'
p5048
aS'need'
p5049
aS'to'
p5050
aS'be'
p5051
aS'active'
p5052
aaa(lp5053
S'BRAD'
p5054
a(lp5055
S'function'
p5056
aS'properly'
p5057
aaa(lp5058
S'PHIL'
p5059
a(lp5060
S'and'
p5061
aS'to'
p5062
ag7
aS'do'
p5063
aS'their'
p5064
aS'things'
p5065
ag7
aaa(lp5066
S'BRAD'
p5067
a(lp5068
S'Right'
p5069
aaa(lp5070
S'PHIL'
p5071
a(lp5072
S'Basically'
p5073
aaa(lp5074
g5071
a(lp5075
S'you'
p5076
aS'know'
p5077
aaa(lp5078
g5071
a(lp5079
S'the'
p5080
aS'publications'
p5081
aS'committee'
p5082
aaa(lp5083
g5071
a(lp5084
S'needs'
p5085
aS'to'
p5086
aS'be'
p5087
aS'more'
p5088
aS'involved'
p5089
aS'than'
p5090
aS'just'
p5091
aS'making'
p5092
aS'decisions'
p5093
aS'on'
p5094
aS'what'
p5095
aS'we'
p5096
aS'publish'
p5097
aaa(lp5098
S'BRAD'
p5099
a(lp5100
S'Yeah'
p5101
aaa(lp5102
S'PHIL'
p5103
a(lp5104
S'You'
p5105
aS'know'
p5106
aaa(lp5107
S'BRAD'
p5108
a(lp5109
S'Yeah'
p5110
aaa(lp5111
S'PHIL'
p5112
a(lp5113
S'They'
p5114
aS'need'
p5115
aS'to'
p5116
aS'become'
p5117
aS'somewhat'
p5118
aS'selfsufficient'
p5119
aaa(lp5120
g5112
a(lp5121
S'Collections'
p5122
aS'committee'
p5123
aaa(lp5124
S'BRAD'
p5125
a(lp5126
aa(lp5127
S'PHIL'
p5128
a(lp5129
S'needs'
p5130
aaa(lp5131
g5128
a(lp5132
S'you'
p5133
aS'know'
p5134
aaa(lp5135
g5128
a(lp5136
g52
aS'would'
p5137
aS'like'
p5138
aS'to'
p5139
aS'create'
p5140
aS'collections'
p5141
aS'committee'
p5142
aS'to'
p5143
aS'be'
p5144
aS'something'
p5145
aS'where'
p5146
aS'were'
p5147
aS'almost'
p5148
aS'matching'
p5149
aaa(lp5150
S'BRAD'
p5151
a(lp5152
S'Yeah'
p5153
aaa(lp5154
S'PHIL'
p5155
a(lp5156
S'Funds'
p5157
aS'they'
p5158
aS'can'
p5159
aS'raise'
p5160
aS'maybe'
p5161
aaa(lp5162
S'PHIL'
p5163
a(lp5164
S'Unhunh'
p5165
aaa(lp5166
g5163
a(lp5167
S'Yeah'
p5168
aaa(lp5169
S'PHIL'
p5170
a(lp5171
S'You'
p5172
aS'know'
p5173
aaa(lp5174
g5170
a(lp5175
S'If'
p5176
aS'they'
p5177
aS'can'
p5178
aS'raise'
p5179
aS'ten'
p5180
aS'grand'
p5181
aaa(lp5182
S'BRAD'
p5183
a(lp5184
S'Well'
p5185
aaa(lp5186
S'PHIL'
p5187
a(lp5188
S'you'
p5189
aS'know'
p5190
aaa(lp5191
S'BRAD'
p5192
a(lp5193
S'and'
p5194
aS'have'
p5195
aS'some'
p5196
aaa(lp5197
S'PHIL'
p5198
a(lp5199
g52
aS'mean'
p5200
aS'realistically'
p5201
aaa(lp5202
S'BRAD'
p5203
a(lp5204
S'have'
p5205
aS'some'
p5206
aS'incentive'
p5207
aaa(lp5208
S'PHIL'
p5209
a(lp5210
S'Right'
p5211
aaa(lp5212
S'BRAD'
p5213
a(lp5214
S'For'
p5215
aS'them'
p5216
aS'to'
p5217
aaa(lp5218
g5213
a(lp5219
S'yeah'
p5220
aaa(lp5221
S'PHIL'
p5222
a(lp5223
S'So'
p5224
aS'that'
p5225
aS'basically'
p5226
aS'theyd'
p5227
aS'be'
p5228
aaa(lp5229
g5222
a(lp5230
S'theyd'
p5231
aS'get'
p5232
aS'to'
p5233
ag137
aS'point'
p5234
aS'of'
p5235
aS'saying'
p5236
aaa(lp5237
S'BRAD'
p5238
a(lp5239
S'Mhm'
p5240
aaa(lp5241
S'PHIL'
p5242
a(lp5243
S'Okay'
p5244
aS'we'
p5245
aS'need'
p5246
aS'to'
p5247
aS'be'
p5248
aS'responsible'
p5249
ag7
aS'with'
p5250
ag7
aS'this'
p5251
aaa(lp5252
g5242
a(lp5253
S'so'
p5254
aS'that'
p5255
aS'collections'
p5256
aaa(lp5257
S'BRAD'
p5258
a(lp5259
S'Yeah'
p5260
aaa(lp5261
S'PHIL'
p5262
a(lp5263
S'and'
p5264
aS'publications'
p5265
aS'will'
p5266
aS'be'
p5267
aS'all'
p5268
aS'fund'
p5269
aS'raising'
p5270
aS'too'
p5271
aaa(lp5272
S'BRAD'
p5273
a(lp5274
aa(lp5275
g5273
a(lp5276
S'Right'
p5277
aaa(lp5278
S'PHIL'
p5279
a(lp5280
aa(lp5281
S'BRAD'
p5282
a(lp5283
S'Oh'
p5284
aS'boy'
p5285
aS'Phil'
p5286
aaa(lp5287
g5282
a(lp5288
S'thats'
p5289
aaa(lp5290
S'PHIL'
p5291
a(lp5292
S'Yeah'
p5293
aaa(lp5294
g5291
a(lp5295
S'its'
p5296
aS'not'
p5297
aS'gonna'
p5298
aS'be'
p5299
aS'pretty'
p5300
aaa(lp5301
S'BRAD'
p5302
a(lp5303
S'Yeah'
p5304
aaa(lp5305
g5302
a(lp5306
S'thats'
p5307
aS'where'
p5308
aaa(lp5309
S'PHIL'
p5310
a(lp5311
S'Because'
p5312
aS'thats'
p5313
aaa(lp5314
S'BRAD'
p5315
a(lp5316
S'You'
p5317
aS'know'
p5318
aS'also'
p5319
aaa(lp5320
g5315
a(lp5321
S'we'
p5322
aS'may'
p5323
aS'consider'
p5324
aaa(lp5325
g5315
a(lp5326
S'you'
p5327
aS'know'
p5328
aaa(lp5329
g5315
a(lp5330
S'we'
p5331
aS'have'
p5332
aS'one'
p5333
aS'board'
p5334
aS'opening'
p5335
aaa(lp5336
g5315
a(lp5337
S'And'
p5338
ag52
aaa(lp5339
g5315
a(lp5340
S'we'
p5341
aS'may'
p5342
aS'think'
p5343
aS'about'
p5344
aS'Gail'
p5345
aaa(lp5346
S'PHIL'
p5347
a(lp5348
S'Well'
p5349
aS'Gail'
p5350
aS'is'
p5351
aS'very'
p5352
aS'interested'
p5353
aaa(lp5354
g5347
a(lp5355
S'and'
p5356
aS'so'
p5357
aS'is'
p5358
aS'this'
p5359
aaa(lp5360
g5347
a(lp5361
S'we'
p5362
aS'met'
p5363
aS'with'
p5364
aS'another'
p5365
aS'person'
p5366
aS'by'
p5367
aS'the'
p5368
aS'name'
p5369
aS'of'
p5370
aS'Bill'
p5371
aS'Ashby'
p5372
aaa(lp5373
S'BRAD'
p5374
a(lp5375
S'Hm'
p5376
aaa(lp5377
g5374
a(lp5378
S'Yeah'
p5379
ag7
ag52
aS'know'
p5380
ag7
aaa(lp5381
S'PHIL'
p5382
a(lp5383
S'Jack'
p5384
aS'and'
p5385
ag52
aS'and'
p5386
aS'Jim'
p5387
aS'met'
p5388
aS'with'
p5389
aS'him'
p5390
aaa(lp5391
S'BRAD'
p5392
a(lp5393
S'Oh'
p5394
aaa(lp5395
g5392
a(lp5396
S'you'
p5397
aS'mean'
p5398
aS'his'
p5399
aaa(lp5400
g5392
a(lp5401
S'Jacks'
p5402
aS'financial'
p5403
aS'friend'
p5404
aS'that'
p5405
aaa(lp5406
S'PHIL'
p5407
a(lp5408
S'Jacks'
p5409
aS'friend'
p5410
aaa(lp5411
S'BRAD'
p5412
a(lp5413
S'is'
p5414
aS'retired'
p5415
aaa(lp5416
S'PHIL'
p5417
a(lp5418
S'Yeah'
p5419
aaa(lp5420
g5417
a(lp5421
S'Hes'
p5422
ag137
aS'banker'
p5423
aaa(lp5424
S'BRAD'
p5425
a(lp5426
S'Yeah'
p5427
aaa(lp5428
S'PHIL'
p5429
a(lp5430
S'and'
p5431
aS'hed'
p5432
aS'be'
p5433
aS'good'
p5434
aS'on'
p5435
aS'one'
p5436
aS'hand'
p5437
aaa(lp5438
g5429
a(lp5439
S'But'
p5440
aaa(lp5441
S'BRAD'
p5442
a(lp5443
S'Yeah'
p5444
aaa(lp5445
S'PHIL'
p5446
a(lp5447
g52
aS'would'
p5448
aS'like'
p5449
aaa(lp5450
g5446
a(lp5451
S'ideally'
p5452
aS'XX'
p5453
aS'Id'
p5454
aS'want'
p5455
aS'em'
p5456
aS'both'
p5457
aaa(lp5458
S'BRAD'
p5459
a(lp5460
S'Yeah'
p5461
aaa(lp5462
g5459
a(lp5463
S'Yeah'
p5464
aaa(lp5465
S'BRAD'
p5466
a(lp5467
S'You'
p5468
aS'know'
p5469
aaa(lp5470
g5466
a(lp5471
S'And'
p5472
aaa(lp5473
g5466
a(lp5474
S'Im'
p5475
aS'hoping'
p5476
aaa(lp5477
S'BRAD'
p5478
a(lp5479
S'Yeah'
p5480
ag52
aaa(lp5481
S'PHIL'
p5482
a(lp5483
S'what'
p5484
aS'Im'
p5485
aS'gonna'
p5486
aaa(lp5487
g5482
a(lp5488
S'what'
p5489
aS'Im'
p5490
aS'anticipating'
p5491
aS'doing'
p5492
aS'is'
p5493
aS'uh'
p5494
aaa(lp5495
g5482
a(lp5496
S'this'
p5497
aS'retreat'
p5498
aS'might'
p5499
aS'urge'
p5500
aS'people'
p5501
aS'to'
p5502
aS'say'
p5503
aaa(lp5504
g5482
a(lp5505
S'Im'
p5506
aS'not'
p5507
aS'interested'
p5508
aS'in'
p5509
aS'doing'
p5510
aS'that'
p5511
aS'much'
p5512
aS'work'
p5513
aaa(lp5514
S'BRAD'
p5515
a(lp5516
S'Yeah'
p5517
aaa(lp5518
g5515
a(lp5519
S'And'
p5520
aS'so'
p5521
aS'Im'
p5522
aS'getting'
p5523
aaa(lp5524
g5515
a(lp5525
S'yeah'
p5526
aaa(lp5527
S'PHIL'
p5528
a(lp5529
S'And'
p5530
aS'it'
p5531
aS'might'
p5532
aS'just'
p5533
ag126
aS'get'
p5534
aS'like'
p5535
aS'Nancy'
p5536
aS'and'
p5537
aS'Kay'
p5538
aaa(lp5539
g5528
a(lp5540
g52
aS'mean'
p5541
ag52
aS'like'
p5542
aS'Kay'
p5543
aS'XX'
p5544
aaa(lp5545
S'BRAD'
p5546
a(lp5547
S'See'
p5548
aS'Nancy'
p5549
aS'was'
p5550
aS'going'
p5551
aS'off'
p5552
aaa(lp5553
g5546
a(lp5554
S'She'
p5555
aaa(lp5556
g5546
a(lp5557
S'she'
p5558
aS'told'
p5559
aS'me'
p5560
aS'she'
p5561
aS'was'
p5562
aS'going'
p5563
aS'off'
p5564
aS'this'
p5565
aS'year'
p5566
aaa(lp5567
g5546
a(lp5568
S'And'
p5569
aS'she'
p5570
aS'uh'
p5571
aaa(lp5572
S'PHIL'
p5573
a(lp5574
aa(lp5575
S'BRAD'
p5576
a(lp5577
S'and'
p5578
aS'Kay'
p5579
aS'convinced'
p5580
aaa(lp5581
g5576
a(lp5582
S'said'
p5583
aS'well'
p5584
aS'Nancy'
p5585
aS'you'
p5586
aS'cant'
p5587
aS'leave'
p5588
aS'right'
p5589
aS'away'
p5590
aaa(lp5591
g5576
a(lp5592
S'and'
p5593
aS'uh'
p5594
aaa(lp5595
g5576
a(lp5596
S'uh'
p5597
aaa(lp5598
g5576
a(lp5599
S'she'
p5600
aS'said'
p5601
aS'okay'
p5602
aaa(lp5603
g5576
a(lp5604
S'Ill'
p5605
aS'stay'
p5606
aS'another'
p5607
aS'year'
p5608
aaa(lp5609
g5576
a(lp5610
S'But'
p5611
aaa(lp5612
g5576
a(lp5613
g52
aS'dont'
p5614
aS'know'
p5615
aS'why'
p5616
aaa(lp5617
S'PHIL'
p5618
a(lp5619
aa(lp5620
S'BRAD'
p5621
a(lp5622
S'You'
p5623
aS'know'
p5624
aaa(lp5625
g5621
a(lp5626
S'and'
p5627
aaa(lp5628
g5621
a(lp5629
S'and'
p5630
aS'then'
p5631
aS'we'
p5632
aS'can'
p5633
aaa(lp5634
g5621
a(lp5635
S'why'
p5636
aaa(lp5637
g5621
a(lp5638
S'tha'
p5639
aaa(lp5640
g5621
a(lp5641
g52
aS'think'
p5642
aS'thats'
p5643
aS'very'
p5644
aS'important'
p5645
aS'to'
p5646
aS'discuss'
p5647
aaa(lp5648
g5621
a(lp5649
S'At'
p5650
aS'the'
p5651
aS'board'
p5652
aS'retreat'
p5653
aaa(lp5654
S'PHIL'
p5655
a(lp5656
g52
aS'think'
p5657
aS'it'
p5658
aS'is'
p5659
aaa(lp5660
g5655
a(lp5661
S'because'
p5662
aaa(lp5663
g5655
a(lp5664
g52
aS'mean'
p5665
aaa(lp5666
g5655
a(lp5667
S'the'
p5668
aS'thing'
p5669
aS'is'
p5670
aS'that'
p5671
aS'we'
p5672
aS'need'
p5673
aS'to'
p5674
aS'get'
p5675
aS'to'
p5676
ag137
aS'point'
p5677
aS'and'
p5678
aaa(lp5679
g5655
a(lp5680
S'the'
p5681
aS'reason'
p5682
aS'weve'
p5683
aS'set'
p5684
aS'terms'
p5685
aS'is'
p5686
aS'because'
p5687
aaa(lp5688
g5655
a(lp5689
S'basically'
p5690
aaa(lp5691
g5655
a(lp5692
S'people'
p5693
aS'here'
p5694
aaa(lp5695
S'BRAD'
p5696
a(lp5697
S'Mhm'
p5698
aaa(lp5699
S'PHIL'
p5700
a(lp5701
S'majority'
p5702
aS'of'
p5703
aS'us'
p5704
aS'have'
p5705
aS'been'
p5706
aS'here'
p5707
ag137
aS'long'
p5708
aS'time'
p5709
aaa(lp5710
S'BRAD'
p5711
a(lp5712
S'Yeah'
p5713
aaa(lp5714
g5711
a(lp5715
S'Thats'
p5716
aS'right'
p5717
aaa(lp5718
S'PHIL'
p5719
a(lp5720
S'You'
p5721
aS'know'
p5722
aaa(lp5723
g5719
a(lp5724
S'and'
p5725
aaa(lp5726
g5719
a(lp5727
S'theres'
p5728
ag137
aS'point'
p5729
aaa(lp5730
S'BRAD'
p5731
a(lp5732
S'well'
p5733
aS'thats'
p5734
aS'why'
p5735
aS'we'
p5736
aS'have'
p5737
aS'this'
p5738
aaa(lp5739
g5731
a(lp5740
S'the'
p5741
aS'term'
p5742
aS'limitation'
p5743
aaa(lp5744
S'PHIL'
p5745
a(lp5746
S'Unhunh'
p5747
aaa(lp5748
S'BRAD'
p5749
a(lp5750
S'XXX'
p5751
aaa(lp5752
S'PHIL'
p5753
a(lp5754
S'Im'
p5755
aaa(lp5756
g5753
a(lp5757
g52
aaa(lp5758
g5753
a(lp5759
S'Im'
p5760
aS'uh'
p5761
aS'full'
p5762
aS'agreement'
p5763
aaa(lp5764
g5753
a(lp5765
S'cause'
p5766
aS'Im'
p5767
aS'ready'
p5768
aaa(lp5769
g5753
a(lp5770
S'You'
p5771
aS'know'
p5772
aaa(lp5773
S'BRAD'
p5774
a(lp5775
S'Yeah'
p5776
aaa(lp5777
S'PHIL'
p5778
a(lp5779
S'Ive'
p5780
aS'agreed'
p5781
aS'to'
p5782
aS'do'
p5783
aS'this'
p5784
aS'term'
p5785
aaa(lp5786
S'BRAD'
p5787
a(lp5788
S'Yeah'
p5789
aaa(lp5790
g5787
a(lp5791
S'Mhm'
p5792
aaa(lp5793
S'PHIL'
p5794
a(lp5795
S'but'
p5796
aaa(lp5797
S'BRAD'
p5798
a(lp5799
S'Mhm'
p5800
aaa(lp5801
S'PHIL'
p5802
a(lp5803
S'my'
p5804
aS'feeling'
p5805
aS'is'
p5806
aaa(lp5807
g5802
a(lp5808
S'Im'
p5809
aS'ready'
p5810
aaa(lp5811
g5802
a(lp5812
S'for'
p5813
ag137
aS'year'
p5814
aS'off'
p5815
aaa(lp5816
S'BRAD'
p5817
a(lp5818
S'Yeah'
p5819
aaa(lp5820
S'PHIL'
p5821
a(lp5822
S'You'
p5823
aS'know'
p5824
aaa(lp5825
S'BRAD'
p5826
a(lp5827
S'Mhm'
p5828
aaa(lp5829
S'PHIL'
p5830
a(lp5831
S'and'
p5832
aS'Ill'
p5833
aS'still'
p5834
aS'be'
p5835
aS'volunteering'
p5836
aaa(lp5837
g5830
a(lp5838
S'but'
p5839
aaa(lp5840
g5830
a(lp5841
g52
aS'really'
p5842
aS'am'
p5843
aS'ready'
p5844
aS'for'
p5845
aaa(lp5846
g5830
a(lp5847
S'some'
p5848
aS'time'
p5849
aS'to'
p5850
aS'say'
p5851
aaa(lp5852
S'BRAD'
p5853
a(lp5854
S'Mhm'
p5855
aaa(lp5856
S'PHIL'
p5857
a(lp5858
S'You'
p5859
aS'know'
p5860
aaa(lp5861
g5857
a(lp5862
S'and'
p5863
ag52
aS'wanted'
p5864
aS'Jim'
p5865
aS'to'
p5866
aS'consider'
p5867
aS'being'
p5868
aS'market'
p5869
aS'manager'
p5870
aaa(lp5871
g5857
a(lp5872
S'even'
p5873
aS'if'
p5874
aS'he'
p5875
aS'goes'
p5876
aS'off'
p5877
aS'the'
p5878
aS'board'
p5879
aaa(lp5880
S'BRAD'
p5881
a(lp5882
S'Yeah'
p5883
aaa(lp5884
g5881
a(lp5885
g52
aS'know'
p5886
aaa(lp5887
g5881
a(lp5888
S'he'
p5889
aS'was'
p5890
aS'wavering'
p5891
ag137
aS'little'
p5892
aS'bit'
p5893
aS'on'
p5894
aS'that'
p5895
aaa(lp5896
g5881
a(lp5897
S'whether'
p5898
aS'or'
p5899
aS'not'
p5900
aS'he'
p5901
aS'would'
p5902
aS'volunteer'
p5903
aaa(lp5904
g5881
a(lp5905
S'at'
p5906
aS'the'
p5907
aS'marketing'
p5908
aS'center'
p5909
aaa(lp5910
S'PHIL'
p5911
a(lp5912
S'Yeah'
p5913
aaa(lp5914
g5911
a(lp5915
g52
aS'mean'
p5916
aS'theres'
p5917
aaa(lp5918
S'BRAD'
p5919
a(lp5920
S'Ive'
p5921
aS'gotta'
p5922
aS'run'
p5923
aS'now'
p5924
aaa(lp5925
S'PHIL'
p5926
a(lp5927
S'Okay'
p5928
aaa(lp5929
g5926
a(lp5930
S'j'
p5931
aaa(lp5932
g5926
a(lp5933
S'See'
p5934
aS'you'
p5935
aS'Brad'
p5936
aaa(lp5937
S'BRAD'
p5938
a(lp5939
S'Um'
p5940
aaa(lp5941
g5938
a(lp5942
S'but'
p5943
aaa(lp5944
g5938
a(lp5945
S'the'
p5946
aS'lun'
p5947
aaa(lp5948
g5938
a(lp5949
S'uh'
p5950
aaa(lp5951
S'PHIL'
p5952
a(lp5953
S'Were'
p5954
aS'gonna'
p5955
aS'meet'
p5956
aS'here'
p5957
aaa(lp5958
S'BRAD'
p5959
a(lp5960
S'Oh'
p5961
aS'youre'
p5962
aS'gonna'
p5963
aS'have'
p5964
aS'x'
p5965
aaa(lp5966
S'PHIL'
p5967
a(lp5968
S'so'
p5969
aS'we'
p5970
aS'can'
p5971
ag659
aS'either'
p5972
aS'swing'
p5973
aS'by'
p5974
aS'for'
p5975
aS'you'
p5976
aaa(lp5977
g5967
a(lp5978
S'or'
p5979
aS'we'
p5980
aS'can'
p5981
aS'decide'
p5982
aaa(lp5983
g5967
a(lp5984
S'well'
p5985
aS'call'
p5986
aS'you'
p5987
aaa(lp5988
S'BRAD'
p5989
a(lp5990
S'Oh'
p5991
aaa(lp5992
g5989
a(lp5993
S'so'
p5994
ag7
aS'youre'
p5995
aS'not'
p5996
ag7
aaa(lp5997
S'PHIL'
p5998
a(lp5999
S'when'
p6000
ag52
aS'know'
p6001
aS'what'
p6002
aS'were'
p6003
aS'doing'
p6004
aaa(lp6005
g5998
a(lp6006
S'if'
p6007
aS'you'
p6008
aS'want'
p6009
aaa(lp6010
S'BRAD'
p6011
a(lp6012
S'Okay'
p6013
aaa(lp6014
g6011
a(lp6015
S'thatd'
p6016
aS'be'
p6017
aS'great'
p6018
aaa(lp6019
g6011
a(lp6020
S'Alright'
p6021
aaa(lp6022
S'PHIL'
p6023
a(lp6024
S'XXX'
p6025
aaa(lp6026
S'BRAD'
p6027
a(lp6028
S'Talk'
p6029
aS'to'
p6030
aS'you'
p6031
aS'in'
p6032
ag137
aS'bit'
p6033
aaa.