(lp0
(lp1
S'PATTY'
p2
a(lp3
S'Its'
p4
aS'not'
p5
aS'that'
p6
aS'bad'
p7
aaa(lp8
S'DALE'
p9
a(lp10
S'X'
p11
aS'something'
p12
aS'else'
p13
aaa(lp14
g9
a(lp15
S'or'
p16
aS'do'
p17
aS'you'
p18
aS'want'
p19
aaa(lp20
S'PATTY'
p21
a(lp22
S'actually'
p23
aaa(lp24
S'STEPHANIE'
p25
a(lp26
S'Well'
p27
aS'ten'
p28
aS'seventy'
p29
aaa(lp30
S'MAUREEN'
p31
a(lp32
S'Yeah'
p33
aaa(lp34
g31
a(lp35
S'No'
p36
aaa(lp37
S'DALE'
p38
a(lp39
S'You'
p40
aS'want'
p41
aS'em'
p42
aaa(lp43
S'MAUREEN'
p44
a(lp45
S'Just'
p46
aS'take'
p47
aS'em'
p48
aS'out'
p49
aS'and'
p50
aaa(lp51
S'ERIKA'
p52
a(lp53
S'Thats'
p54
aS'great'
p55
aaa(lp56
S'STEPHANIE'
p57
a(lp58
g11
aS'take'
p59
aS'em'
p60
ag11
aS'again'
p61
aaa(lp62
S'DALE'
p63
a(lp64
S'Yeah'
p65
aaa(lp66
S'MAUREEN'
p67
a(lp68
S'Theres'
p69
aS'that'
p70
aaa(lp71
S'STEPHANIE'
p72
a(lp73
S'Better'
p74
aS'get'
p75
aS'twelve'
p76
aS'hundred'
p77
aaa(lp78
S'MAUREEN'
p79
a(lp80
S'and'
p81
aaa(lp82
S'STEPHANIE'
p83
a(lp84
S'Thats'
p85
aS'what'
p86
aS'I'
p87
aS'want'
p88
aaa(lp89
g83
a(lp90
g87
aS'mean'
p91
aaa(lp92
S'MAUREEN'
p93
a(lp94
S'Heres'
p95
aS'this'
p96
aaa(lp97
S'STEPHANIE'
p98
a(lp99
g11
aS'So'
p100
ag11
aaa(lp101
g98
a(lp102
S'cause'
p103
ag87
aS'think'
p104
aS'ten'
p105
aS'seventys'
p106
aS'way'
p107
aS'too'
p108
aS'low'
p109
aaa(lp110
S'GENEVIEVE'
p111
a(lp112
aa(lp113
S'MAUREEN'
p114
a(lp115
S'Erika'
p116
aS'would'
p117
aS'you'
p118
aaa(lp119
S'STEPHANIE'
p120
a(lp121
S'For'
p122
aS'XXXX'
p123
aaa(lp124
S'MAUREEN'
p125
a(lp126
S'follow'
p127
aS'Dale'
p128
aS'out'
p129
aaa(lp130
g125
a(lp131
S'and'
p132
aS'just'
p133
aS'hand'
p134
aS'him'
p135
aS'that'
p136
ag11
aS'XXX'
p137
aS'XXX'
p138
aS'XX'
p139
aaa(lp140
S'ERIKA'
p141
a(lp142
S'Sure'
p143
aaa(lp144
S'STEPHANIE'
p145
a(lp146
S'XX'
p147
aS'XXXX'
p148
aS'XXX'
p149
aaa(lp150
S'MAUREEN'
p151
a(lp152
S'Thank'
p153
aS'you'
p154
aaa(lp155
g151
a(lp156
S'XXX'
p157
aaa(lp158
S'STEPHANIE'
p159
a(lp160
S'So'
p161
ag87
aS'have'
p162
aS'to'
p163
aS'take'
p164
aS'them'
p165
aS'again'
p166
aaa(lp167
g159
a(lp168
S'um'
p169
aaa(lp170
S'DALE'
p171
a(lp172
S'You'
p173
aS'can'
p174
aS'just'
p175
aS'put'
p176
aS'that'
p177
aS'over'
p178
aS'on'
p179
aS'the'
p180
aS'XX'
p181
aaa(lp182
S'STEPHANIE'
p183
a(lp184
g87
aS'have'
p185
aS'to'
p186
aS'send'
p187
aS'them'
p188
aS'money'
p189
aS'by'
p190
aS'the'
p191
aS'eighteenth'
p192
aaa(lp193
g183
a(lp194
S'for'
p195
aS'SATs'
p196
aS'for'
p197
aS'the'
p198
aS'October'
p199
aS'exam'
p200
aaa(lp201
S'DALE'
p202
a(lp203
g11
aS'Put'
p204
aS'it'
p205
aS'on'
p206
aS'that'
p207
aS'railing'
p208
aS'over'
p209
aS'there'
p210
ag11
aaa(lp211
S'MAUREEN'
p212
a(lp213
S'Okay'
p214
aaa(lp215
S'PATTY'
p216
a(lp217
S'Mm'
p218
aaa(lp219
S'STEPHANIE'
p220
a(lp221
S'So'
p222
aaa(lp223
g220
a(lp224
S'STOMPINGMRC'
p225
aS'Id'
p226
aS'better'
p227
aS'get'
p228
aS'twelve'
p229
aS'hundred'
p230
aS'on'
p231
aS'these'
p232
aaa(lp233
g220
a(lp234
S'Have'
p235
aS'to'
p236
aS'get'
p237
aS'twelve'
p238
aS'hundred'
p239
aS'MRCSTOMPING'
p240
aaa(lp241
S'GAIL'
p242
a(lp243
aa(lp244
S'PATTY'
p245
a(lp246
S'Well'
p247
aS'if'
p248
aS'you'
p249
aS'study'
p250
aS'hard'
p251
aaa(lp252
S'STEPHANIE'
p253
a(lp254
S'You'
p255
aS'cant'
p256
aS'study'
p257
aS'for'
p258
aS'the'
p259
aS'SAT'
p260
aaa(lp261
S'PATTY'
p262
a(lp263
S'Get'
p264
aS'your'
p265
aS'rest'
p266
aaa(lp267
g262
a(lp268
S'no'
p269
aaa(lp270
g262
a(lp271
S'but'
p272
aS'you'
p273
aaa(lp274
g262
a(lp275
S'Well'
p276
aaa(lp277
g262
a(lp278
S'they'
p279
aS'say'
p280
aS'yes'
p281
aS'you'
p282
aS'can'
p283
aaa(lp284
g262
a(lp285
S'because'
p286
aS'they'
p287
aS'have'
p288
aS'all'
p289
aS'these'
p290
aS'groups'
p291
aS'that'
p292
aS'say'
p293
aaa(lp294
g262
a(lp295
S'that'
p296
aS'if'
p297
aS'you'
p298
aS'take'
p299
aS'their'
p300
aS'classes'
p301
aaa(lp302
g262
a(lp303
S'and'
p304
aS'they'
p305
aS'go'
p306
aS'over'
p307
aS'the'
p308
aS'test'
p309
aaa(lp310
S'STEPHANIE'
p311
a(lp312
S'No'
p313
aaa(lp314
g311
a(lp315
S'Mom'
p316
aaa(lp317
g311
a(lp318
S'Mom'
p319
aaa(lp320
g311
a(lp321
S'Mom'
p322
aaa(lp323
S'PATTY'
p324
a(lp325
S'you'
p326
aS'can'
p327
aS'raise'
p328
aS'your'
p329
aS'points'
p330
aaa(lp331
g324
a(lp332
S'you'
p333
aS'can'
p334
aS'raise'
p335
aS'your'
p336
aS'points'
p337
aS'a'
p338
aS'couple'
p339
aS'hundred'
p340
aS'points'
p341
aaa(lp342
S'STEPHANIE'
p343
a(lp344
S'The'
p345
aS'SAT'
p346
aaa(lp347
g343
a(lp348
S'the'
p349
aS'SAT'
p350
aS'board'
p351
aS'itself'
p352
aS'has'
p353
aS'said'
p354
aaa(lp355
S'ERIKA'
p356
a(lp357
S'Yeah'
p358
aaa(lp359
S'STEPHANIE'
p360
a(lp361
S'Yeah'
p362
aaa(lp363
g360
a(lp364
S'but'
p365
aS'thats'
p366
aS'just'
p367
aS'by'
p368
aS'learning'
p369
aS'tricks'
p370
aaa(lp371
g360
a(lp372
g87
aS'know'
p373
aS'what'
p374
aS'the'
p375
aS'tricks'
p376
aS'are'
p377
aaa(lp378
g360
a(lp379
S'Thats'
p380
aS'all'
p381
aS'you'
p382
aS'need'
p383
aS'to'
p384
aS'know'
p385
aaa(lp386
S'ERIKA'
p387
a(lp388
S'Teach'
p389
aS'them'
p390
aS'to'
p391
aS'me'
p392
aaa(lp393
S'STEPHANIE'
p394
a(lp395
S'The'
p396
aS'only'
p397
aS'way'
p398
aS'you'
p399
aS'can'
p400
aaa(lp401
S'PATTY'
p402
a(lp403
S'But'
p404
aS'what'
p405
aS'you'
p406
aS'have'
p407
aS'to'
p408
aS'remember'
p409
aS'is'
p410
aS'that'
p411
aaa(lp412
S'STEPHANIE'
p413
a(lp414
S'The'
p415
aS'only'
p416
aS'way'
p417
aS'you'
p418
aS'can'
p419
aS'score'
p420
aS'high'
p421
aS'is'
p422
aS'if'
p423
aS'you'
p424
aS'read'
p425
ag338
aS'lot'
p426
aaa(lp427
g413
a(lp428
S'Thats'
p429
aS'all'
p430
aaa(lp431
S'PATTY'
p432
a(lp433
S'what'
p434
aS'you'
p435
aS'have'
p436
aS'to'
p437
aS'remember'
p438
aS'is'
p439
aaa(lp440
S'STEPHANIE'
p441
a(lp442
S'You'
p443
aS'cant'
p444
aS'study'
p445
ag11
aaa(lp446
S'PATTY'
p447
a(lp448
S'that'
p449
aS'the'
p450
aS'SAT'
p451
aS'is'
p452
aS'not'
p453
ag338
aS'whole'
p454
aS'measure'
p455
aS'of'
p456
aS'who'
p457
aS'you'
p458
aS'are'
p459
aaa(lp460
S'STEPHANIE'
p461
a(lp462
S'HI'
p463
aS'Oh'
p464
ag87
aS'know'
p465
aS'HI'
p466
aaa(lp467
S'PATTY'
p468
a(lp469
S'It'
p470
aS'doesnt'
p471
aS'measure'
p472
aS'your'
p473
aS'creativity'
p474
aaa(lp475
g468
a(lp476
S'it'
p477
aS'doesnt'
p478
ag11
aS'measure'
p479
aS'you'
p480
aS'know'
p481
aS'so'
p482
ag11
aaa(lp483
S'STEPHANIE'
p484
a(lp485
S'Mom'
p486
aaa(lp487
g484
a(lp488
g87
aS'know'
p489
aaa(lp490
g484
a(lp491
S'Mom'
p492
aaa(lp493
g484
a(lp494
S'Im'
p495
aS'not'
p496
aS'saying'
p497
aS'that'
p498
aaa(lp499
g484
a(lp500
S'But'
p501
ag87
aS'do'
p502
aS'need'
p503
aS'to'
p504
aS'have'
p505
ag338
aS'better'
p506
aS'SAT'
p507
aS'score'
p508
aS'for'
p509
aS'applications'
p510
aaa(lp511
g484
a(lp512
S'So'
p513
ag87
aS'wanna'
p514
aS'bring'
p515
aS'it'
p516
aS'up'
p517
aaa(lp518
S'PATTY'
p519
a(lp520
S'Whatd'
p521
aS'you'
p522
aS'say'
p523
aS'your'
p524
aS'score'
p525
aS'was'
p526
aaa(lp527
S'STEPHANIE'
p528
a(lp529
S'Ten'
p530
aS'seventy'
p531
aaa(lp532
S'ERIKA'
p533
a(lp534
S'Id'
p535
aS'be'
p536
aS'happy'
p537
aS'to'
p538
aS'get'
p539
aS'seven'
p540
aS'hundred'
p541
aaa(lp542
S'PATTY'
p543
a(lp544
S'Well'
p545
aS'youd'
p546
aS'only'
p547
aS'taken'
p548
aS'it'
p549
aS'once'
p550
aS'so'
p551
aaa(lp552
S'STEPHANIE'
p553
a(lp554
S'Yeah'
p555
aaa(lp556
S'ERIKA'
p557
a(lp558
aa(lp559
S'PATTY'
p560
a(lp561
g87
aS'think'
p562
aS'Claire'
p563
aS'took'
p564
aS'hers'
p565
ag338
aS'couple'
p566
aS'times'
p567
aaa(lp568
S'STEPHANIE'
p569
a(lp570
S'What'
p571
aaa(lp572
S'ERIKA'
p573
a(lp574
g87
aS'said'
p575
aS'Id'
p576
aS'be'
p577
aS'happy'
p578
aS'to'
p579
aS'get'
p580
aS'seven'
p581
aS'hundred'
p582
aaa(lp583
S'STEPHANIE'
p584
a(lp585
g87
ag87
aS'mean'
p586
aaa(lp587
g584
a(lp588
S'yeah'
p589
aaa(lp590
g584
a(lp591
S'people'
p592
aS'in'
p593
aS'my'
p594
aS'school'
p595
aS'when'
p596
ag87
aS'told'
p597
aS'em'
p598
aS'my'
p599
aS'score'
p600
aS'were'
p601
aS'like'
p602
aaa(lp603
g584
a(lp604
S'VOX'
p605
aS'oh'
p606
aaa(lp607
g584
a(lp608
S'you'
p609
aS'wont'
p610
aS'need'
p611
aS'to'
p612
aS'take'
p613
aS'it'
p614
aS'again'
p615
aS'VOX'
p616
aaa(lp617
g584
a(lp618
S'but'
p619
aS'then'
p620
aS'like'
p621
aaa(lp622
g584
a(lp623
S'my'
p624
aS'friends'
p625
aS'who'
p626
aS'have'
p627
aS'like'
p628
aS'thirteen'
p629
aS'fifty'
p630
aS'on'
p631
aS'their'
p632
aS'SATs'
p633
aaa(lp634
S'ERIKA'
p635
a(lp636
S'Whos'
p637
aS'that'
p638
aaa(lp639
S'PATTY'
p640
a(lp641
S'But'
p642
aS'Stephanie'
p643
aaa(lp644
S'GAIL'
p645
a(lp646
S'Yeah'
p647
aaa(lp648
g645
a(lp649
S'but'
p650
ag87
aS'mean'
p651
aS'you'
p652
aS'can'
p653
aS'you'
p654
aS'cant'
p655
aS'compare'
p656
aS'yourself'
p657
aaa(lp658
S'PATTY'
p659
a(lp660
S'you'
p661
aS'cannot'
p662
aS'compare'
p663
aS'yourself'
p664
aaa(lp665
g659
a(lp666
S'you'
p667
aS'are'
p668
aS'uniquely'
p669
aS'you'
p670
aaa(lp671
S'STEPHANIE'
p672
a(lp673
S'Mark'
p674
aaa(lp675
S'ERIKA'
p676
a(lp677
S'XXX'
p678
aaa(lp679
S'PATTY'
p680
a(lp681
S'You'
p682
aS'cant'
p683
aS'do'
p684
aS'that'
p685
aaa(lp686
S'STEPHANIE'
p687
a(lp688
S'John'
p689
aaa(lp690
S'ERIKA'
p691
a(lp692
S'Glen'
p693
aaa(lp694
S'STEPHANIE'
p695
a(lp696
S'Glen'
p697
aS'got'
p698
aS's'
p699
aS'what'
p700
aaa(lp701
g695
a(lp702
S'Glen'
p703
aS'got'
p704
aS'fifteen'
p705
aS'seventy'
p706
aS'or'
p707
aS'something'
p708
aS'like'
p709
aS'that'
p710
aaa(lp711
S'PATTY'
p712
a(lp713
S'Stephanie'
p714
aaa(lp715
g712
a(lp716
S'you'
p717
aS'cannot'
p718
aS'com'
p719
aaa(lp720
S'STEPHANIE'
p721
a(lp722
g87
aS'was'
p723
aS'like'
p724
aS'you'
p725
aS'make'
p726
aS'me'
p727
aS'sick'
p728
aaa(lp729
S'PATTY'
p730
a(lp731
S'Stephanie'
p732
aaa(lp733
S'ERIKA'
p734
a(lp735
g11
aS'But'
p736
aS'dont'
p737
aS'you'
p738
aS'be'
p739
aS'like'
p740
ag11
aS'Glen'
p741
aS'is'
p742
aaa(lp743
S'PATTY'
p744
a(lp745
S'you'
p746
aS'cant'
p747
aS'compare'
p748
aS'yourself'
p749
aaa(lp750
S'STEPHANIE'
p751
a(lp752
g87
aS'know'
p753
aaa(lp754
g751
a(lp755
S'Glen'
p756
aS'has'
p757
aS'to'
p758
aS'like'
p759
aS'get'
p760
aS'dates'
p761
aS'through'
p762
aS'the'
p763
aS'computer'
p764
aaa(lp765
S'ERIKA'
p766
a(lp767
S'How'
p768
aS'do'
p769
aS'you'
p770
aS'think'
p771
ag87
aS'feel'
p772
aS'when'
p773
ag87
aS'get'
p774
aS'around'
p775
aS'Glen'
p776
aaa(lp777
S'PATTY'
p778
a(lp779
S'When'
p780
aS'you'
p781
aS'learn'
p782
aS'that'
p783
aS'you'
p784
aS'cant'
p785
aS'compare'
p786
aaa(lp787
g778
a(lp788
S'youll'
p789
aS'really'
p790
aS'be'
p791
aS'grown'
p792
aS'up'
p793
aaa(lp794
g778
a(lp795
S'You'
p796
aS'are'
p797
aS'uniquely'
p798
aS'you'
p799
aaa(lp800
S'STEPHANIE'
p801
a(lp802
S'No'
p803
aaa(lp804
g801
a(lp805
g87
aS'mean'
p806
aaa(lp807
S'PATTY'
p808
a(lp809
S'You'
p810
aS'are'
p811
aS'not'
p812
aS'like'
p813
aS'anybody'
p814
aS'else'
p815
aaa(lp816
S'STEPHANIE'
p817
a(lp818
g87
aaa(lp819
g817
a(lp820
S'But'
p821
aS'Mom'
p822
aaa(lp823
S'PATTY'
p824
a(lp825
S'You'
p826
aS'have'
p827
aS'to'
p828
aS'accept'
p829
aS'that'
p830
aaa(lp831
S'STEPHANIE'
p832
a(lp833
S'The'
p834
aS'reason'
p835
ag87
aS'am'
p836
aS'saying'
p837
ag87
aS'need'
p838
aS'to'
p839
aS'bring'
p840
aS'them'
p841
aS'up'
p842
aaa(lp843
g832
a(lp844
S'and'
p845
aS'the'
p846
aS'fact'
p847
aS'that'
p848
aS'other'
p849
aS'people'
p850
aS'have'
p851
aS'higher'
p852
aS'scores'
p853
aaa(lp854
g832
a(lp855
S'is'
p856
aS'that'
p857
aaa(lp858
g832
a(lp859
g87
aS'do'
p860
aS'need'
p861
aS'to'
p862
aS'bring'
p863
aS'them'
p864
aS'up'
p865
aS'from'
p866
aS'ten'
p867
aS'seventy'
p868
aaa(lp869
g832
a(lp870
S'if'
p871
ag87
aS'wanna'
p872
aS'have'
p873
ag338
aS'better'
p874
aS'chance'
p875
aS'at'
p876
aS'getting'
p877
aS'into'
p878
aS'colleges'
p879
aaa(lp880
S'ERIKA'
p881
a(lp882
S'Wheres'
p883
aS'your'
p884
aS'bathroom'
p885
aS'at'
p886
aaa(lp887
S'MAUREEN'
p888
a(lp889
S'Right'
p890
aS'around'
p891
aS'the'
p892
aS'bend'
p893
aaa(lp894
S'PATTY'
p895
a(lp896
S'Its'
p897
aS'not'
p898
aS'all'
p899
aS'they'
p900
aS'look'
p901
aS'at'
p902
aS'though'
p903
aaa(lp904
S'MAUREEN'
p905
a(lp906
S'Or'
p907
aS'upstairs'
p908
aaa(lp909
g905
a(lp910
S'One'
p911
aS'or'
p912
aS'the'
p913
aS'other'
p914
aaa(lp915
S'STEPHANIE'
p916
a(lp917
S'Yes'
p918
aaa(lp919
g916
a(lp920
S'But'
p921
aS'its'
p922
aS'one'
p923
aS'of'
p924
aS'the'
p925
aS'things'
p926
aS'that'
p927
ag338
aS'lot'
p928
aS'of'
p929
aS'colleges'
p930
aS'use'
p931
aaa(lp932
S'ERIKA'
p933
a(lp934
S'Ill'
p935
aS'find'
p936
aS'one'
p937
aaa(lp938
S'MAUREEN'
p939
a(lp940
aa(lp941
S'GAIL'
p942
a(lp943
S'Right'
p944
aS'around'
p945
aS'the'
p946
aS'bend'
p947
aaa(lp948
S'PATTY'
p949
a(lp950
S'Well'
p951
aaa(lp952
g949
a(lp953
S'you'
p954
aS'know'
p955
aaa(lp956
S'MAUREEN'
p957
a(lp958
S'Or'
p959
aS'you'
p960
aS'can'
p961
aS'go'
p962
aS'upstairs'
p963
aS'if'
p964
aS'you'
p965
aS'want'
p966
aS'Erika'
p967
aaa(lp968
S'PATTY'
p969
a(lp970
S'just'
p971
aS'uh'
p972
aaa(lp973
S'STEPHANIE'
p974
a(lp975
S'HIX'
p976
aS'Well'
p977
aS'XHI'
p978
aaa(lp979
S'MAUREEN'
p980
a(lp981
S'with'
p982
aS'all'
p983
aS'those'
p984
aS'guys'
p985
aS'sitting'
p986
aS'there'
p987
aaa(lp988
S'PATTY'
p989
a(lp990
g11
aS'Well'
p991
aS'its'
p992
aS'on'
p993
ag11
aaa(lp994
S'GAIL'
p995
a(lp996
g11
ag87
aS'cant'
p997
ag11
ag11
aaa(lp998
g995
a(lp999
g87
aS'should'
p1000
aS'look'
p1001
aS'around'
p1002
aS'and'
p1003
aS'see'
p1004
aS'what'
p1005
aS'else'
p1006
aS'is'
p1007
aaa(lp1008
S'MAUREEN'
p1009
a(lp1010
S'Go'
p1011
aS'up'
p1012
aS'to'
p1013
aS'the'
p1014
aS'top'
p1015
aS'of'
p1016
aS'the'
p1017
aS'stairs'
p1018
aaa(lp1019
g1009
a(lp1020
S'go'
p1021
aS'straight'
p1022
aS'ahead'
p1023
aaa(lp1024
S'GAIL'
p1025
a(lp1026
S'What'
p1027
aS'else'
p1028
aS'is'
p1029
aS'there'
p1030
aaa(lp1031
S'MAUREEN'
p1032
a(lp1033
S'and'
p1034
aS'youll'
p1035
aS'see'
p1036
aS'it'
p1037
aS'on'
p1038
aS'the'
p1039
aS'right'
p1040
aaa(lp1041
S'ERIKA'
p1042
a(lp1043
S'Okay'
p1044
aaa(lp1045
S'GAIL'
p1046
a(lp1047
S'Theres'
p1048
ag338
aS'good'
p1049
ag11
aS'see'
p1050
ag11
aaa(lp1051
S'PATTY'
p1052
a(lp1053
S'How'
p1054
aS'about'
p1055
aS'this'
p1056
aS'school'
p1057
aS'called'
p1058
aS'Adrian'
p1059
aS'College'
p1060
aS'in'
p1061
aS'Michigan'
p1062
aaa(lp1063
S'STEPHANIE'
p1064
a(lp1065
S'XXX'
p1066
aaa(lp1067
g1064
a(lp1068
S'Yeah'
p1069
aaa(lp1070
S'PATTY'
p1071
a(lp1072
S'Its'
p1073
aS'real'
p1074
aaa(lp1075
S'STEPHANIE'
p1076
a(lp1077
S'its'
p1078
aS'in'
p1079
aS'Adrian'
p1080
aS'Michigan'
p1081
aaa(lp1082
S'PATTY'
p1083
a(lp1084
S'not'
p1085
aS'very'
p1086
aS'far'
p1087
aS'from'
p1088
aS'uh'
p1089
aS'Ann'
p1090
aS'Arbor'
p1091
aaa(lp1092
g1083
a(lp1093
S'They'
p1094
aS'sent'
p1095
aS'you'
p1096
ag338
aS'lotta'
p1097
aS'information'
p1098
aaa(lp1099
g1083
a(lp1100
S'Sounds'
p1101
aS'like'
p1102
ag338
aS'neat'
p1103
aS'school'
p1104
aaa(lp1105
S'STEPHANIE'
p1106
a(lp1107
S'But'
p1108
aaa(lp1109
g1106
a(lp1110
S'they'
p1111
aS'dont'
p1112
aS'have'
p1113
ag11
ag338
aS'lot'
p1114
aS'of'
p1115
ag11
aaa(lp1116
S'PATTY'
p1117
a(lp1118
S'Its'
p1119
ag338
aS'smaller'
p1120
aS'school'
p1121
aaa(lp1122
S'GAIL'
p1123
a(lp1124
g87
aS'had'
p1125
ag338
aS'really'
p1126
aS'good'
p1127
aS'book'
p1128
aS'that'
p1129
ag87
aS'should'
p1130
aS'give'
p1131
aS'you'
p1132
aaa(lp1133
S'STEPHANIE'
p1134
a(lp1135
S'They'
p1136
aS'dont'
p1137
aS'have'
p1138
aS'that'
p1139
aS'many'
p1140
aS'majors'
p1141
aS'Mom'
p1142
aaa(lp1143
g1134
a(lp1144
g87
aS'wanna'
p1145
aS'go'
p1146
aS'to'
p1147
ag338
aS'school'
p1148
aS'that'
p1149
aS'has'
p1150
ag338
aS'large'
p1151
aS'variety'
p1152
aS'of'
p1153
aS'majors'
p1154
aaa(lp1155
g1134
a(lp1156
S'and'
p1157
aS'so'
p1158
aS'if'
p1159
ag87
aS'change'
p1160
aaa(lp1161
g1134
a(lp1162
g87
aS'have'
p1163
aS'something'
p1164
aS'to'
p1165
aS'F'
p1166
aS'look'
p1167
aS'at'
p1168
ag1166
aaa(lp1169
S'PATTY'
p1170
a(lp1171
S'You'
p1172
aS'have'
p1173
aS'to'
p1174
aS'remember'
p1175
aS'one'
p1176
aS'thing'
p1177
aaa(lp1178
S'GAIL'
p1179
a(lp1180
S'Hm'
p1181
aaa(lp1182
S'PATTY'
p1183
a(lp1184
S'and'
p1185
aS'and'
p1186
ag87
aS'dont'
p1187
aS'know'
p1188
aaa(lp1189
g1183
a(lp1190
S'maybe'
p1191
aS'maybe'
p1192
aS'Gail'
p1193
aS'could'
p1194
ag1166
aS'talk'
p1195
aS'about'
p1196
aS'that'
p1197
aaa(lp1198
S'GAIL'
p1199
a(lp1200
S'OU'
p1201
aS'had'
p1202
ag338
aS'good'
p1203
aS'art'
p1204
aS'department'
p1205
aaa(lp1206
S'PATTY'
p1207
a(lp1208
S'Gail'
p1209
aS'went'
p1210
ag1166
aS'to'
p1211
ag338
aS'big'
p1212
aS'school'
p1213
aaa(lp1214
g1207
a(lp1215
S'A'
p1216
aS'big'
p1217
aS'school'
p1218
aS'was'
p1219
aS'very'
p1220
aS'different'
p1221
aS'than'
p1222
ag338
aS'small'
p1223
aS'school'
p1224
aaa(lp1225
g1207
a(lp1226
S'Now'
p1227
aS'Aunt'
p1228
aS'Maureen'
p1229
aS'went'
p1230
aS'to'
p1231
ag338
aS'smaller'
p1232
aS'school'
p1233
aaa(lp1234
S'STEPHANIE'
p1235
a(lp1236
S'Mom'
p1237
aaa(lp1238
g1235
a(lp1239
g87
aS'want'
p1240
aaa(lp1241
S'PATTY'
p1242
a(lp1243
S'well'
p1244
aS'they'
p1245
aS'bo'
p1246
aaa(lp1247
g1242
a(lp1248
S'Now'
p1249
aS'wait'
p1250
aaa(lp1251
g1242
a(lp1252
S'They'
p1253
aS'both'
p1254
aS'have'
p1255
aS'advantages'
p1256
aS'and'
p1257
aS'disadvantages'
p1258
aaa(lp1259
g1242
a(lp1260
S'Both'
p1261
aS'of'
p1262
aS'them'
p1263
aaa(lp1264
g1242
a(lp1265
S'You'
p1266
aS'have'
p1267
aS'to'
p1268
aS'see'
p1269
aS'which'
p1270
aS'ones'
p1271
aS'fits'
p1272
aS'your'
p1273
aS'personality'
p1274
aS'best'
p1275
aaa(lp1276
S'STEPHANIE'
p1277
a(lp1278
S'Oh'
p1279
ag87
aS'know'
p1280
aaa(lp1281
g1277
a(lp1282
S'But'
p1283
aS'Mom'
p1284
aaa(lp1285
S'PATTY'
p1286
a(lp1287
S'Thats'
p1288
aS'it'
p1289
aaa(lp1290
S'STEPHANIE'
p1291
a(lp1292
S'of'
p1293
aS'my'
p1294
aS'personality'
p1295
aaa(lp1296
g1291
a(lp1297
S'even'
p1298
aS'Claire'
p1299
aS'said'
p1300
aaa(lp1301
g1291
a(lp1302
S'that'
p1303
aS'she'
p1304
aS'thinks'
p1305
ag87
aS'would'
p1306
aS'do'
p1307
aS'fine'
p1308
aS'at'
p1309
ag338
aS'bi'
p1310
aaa(lp1311
S'PATTY'
p1312
a(lp1313
S'Dont'
p1314
aS'take'
p1315
aS'Claire'
p1316
aS'as'
p1317
aS'an'
p1318
aS'authority'
p1319
aaa(lp1320
S'STEPHANIE'
p1321
a(lp1322
S'Im'
p1323
aS'not'
p1324
aS'taking'
p1325
aS'her'
p1326
aS'as'
p1327
aS'an'
p1328
aS'authority'
p1329
aaa(lp1330
S'MAUREEN'
p1331
a(lp1332
aa(lp1333
S'GAIL'
p1334
a(lp1335
aa(lp1336
g1334
a(lp1337
S'Ah'
p1338
aaa(lp1339
S'PATTY'
p1340
a(lp1341
S'Believe'
p1342
aS'me'
p1343
aaa(lp1344
g1340
a(lp1345
S'Ive'
p1346
aS'lived'
p1347
aS'with'
p1348
aS'Claire'
p1349
aaa(lp1350
S'STEPHANIE'
p1351
a(lp1352
S'Im'
p1353
aS'just'
p1354
aS'saying'
p1355
aS'that'
p1356
aaa(lp1357
S'GAIL'
p1358
a(lp1359
aa(lp1360
S'STEPHANIE'
p1361
a(lp1362
S'But'
p1363
aS'Mom'
p1364
aaa(lp1365
g1361
a(lp1366
S'if'
p1367
ag87
aS'wanna'
p1368
aS'go'
p1369
aS'to'
p1370
ag338
aS'big'
p1371
aS'school'
p1372
aaa(lp1373
g1361
a(lp1374
S'thats'
p1375
aS'my'
p1376
aS'choice'
p1377
aaa(lp1378
S'PATTY'
p1379
a(lp1380
S'If'
p1381
aS'Im'
p1382
aS'willing'
p1383
aS'to'
p1384
aS'pay'
p1385
aS'for'
p1386
aS'it'
p1387
aaa(lp1388
g1379
a(lp1389
S'yes'
p1390
aaa(lp1391
S'STEPHANIE'
p1392
a(lp1393
S'Its'
p1394
aS'cheaper'
p1395
aS'to'
p1396
aS'go'
p1397
aS'to'
p1398
ag338
aS'university'
p1399
aS'than'
p1400
aS'it'
p1401
aS'is'
p1402
aS'to'
p1403
aS'go'
p1404
aS'to'
p1405
ag338
aS'private'
p1406
aS'school'
p1407
aS'Mom'
p1408
aaa(lp1409
S'PATTY'
p1410
a(lp1411
S'Depends'
p1412
aS'where'
p1413
aS'you'
p1414
aS'feel'
p1415
aS'comfortable'
p1416
aaa(lp1417
S'MAUREEN'
p1418
a(lp1419
S'Uh'
p1420
aaa(lp1421
g1418
a(lp1422
g87
aS'have'
p1423
ag338
aS'platter'
p1424
aaa(lp1425
S'PATTY'
p1426
a(lp1427
S'When'
p1428
aS'you'
p1429
aS'get'
p1430
aS'on'
p1431
ag338
aS'campus'
p1432
aS'sometimes'
p1433
ag87
aS'think'
p1434
aS'it'
p1435
aS'might'
p1436
aaa(lp1437
S'MAUREEN'
p1438
a(lp1439
S'you'
p1440
aS'can'
p1441
aS'get'
p1442
ag338
aS'platter'
p1443
aS'for'
p1444
aS'that'
p1445
ag11
aS'its'
p1446
ag11
aaa(lp1447
S'PATTY'
p1448
a(lp1449
S'Gail'
p1450
aS'might'
p1451
aS'say'
p1452
aaa(lp1453
S'GAIL'
p1454
a(lp1455
S'Yeah'
p1456
aS'you'
p1457
aS'have'
p1458
aS'to'
p1459
aS'go'
p1460
aaa(lp1461
g1454
a(lp1462
S'you'
p1463
aS'have'
p1464
aS'to'
p1465
aS'go'
p1466
ag11
aS'out'
p1467
aS'and'
p1468
aS'visit'
p1469
aS'and'
p1470
aS'then'
p1471
ag11
aaa(lp1472
S'PATTY'
p1473
a(lp1474
S'you'
p1475
aS'feel'
p1476
aS'like'
p1477
aaa(lp1478
g1473
a(lp1479
S'hey'
p1480
ag87
aS'like'
p1481
aS'this'
p1482
aS'place'
p1483
aaa(lp1484
g1473
a(lp1485
g87
aS'think'
p1486
ag87
aS'could'
p1487
aS'belong'
p1488
aaa(lp1489
g1473
a(lp1490
S'or'
p1491
aS'you'
p1492
aS'think'
p1493
aaa(lp1494
g1473
a(lp1495
g87
aS'dont'
p1496
ag87
aS'dont'
p1497
aS'feel'
p1498
aS'comfortable'
p1499
aS'here'
p1500
aaa(lp1501
S'GAIL'
p1502
a(lp1503
g87
aS'dont'
p1504
aS'feel'
p1505
aS'comfortable'
p1506
aS'here'
p1507
aaa(lp1508
S'PATTY'
p1509
a(lp1510
S'And'
p1511
aS'thats'
p1512
aS'what'
p1513
aS'has'
p1514
aS'to'
p1515
aS'be'
p1516
aS'your'
p1517
aS'final'
p1518
aS'goal'
p1519
aaa(lp1520
S'STEPHANIE'
p1521
a(lp1522
S'Oh'
p1523
aS'yeah'
p1524
aaa(lp1525
g1521
a(lp1526
g87
aS'know'
p1527
aS'that'
p1528
aaa(lp1529
S'PATTY'
p1530
a(lp1531
g1216
aS'place'
p1532
aS'that'
p1533
aS'has'
p1534
aS'what'
p1535
aS'you'
p1536
aS'want'
p1537
aaa(lp1538
g1530
a(lp1539
S'but'
p1540
aS'you'
p1541
aS'feel'
p1542
aS'good'
p1543
aS'about'
p1544
aS'it'
p1545
aaa(lp1546
S'STEPHANIE'
p1547
a(lp1548
S'But'
p1549
aaa(lp1550
S'PATTY'
p1551
a(lp1552
S'You'
p1553
aS'walk'
p1554
aS'on'
p1555
aS'campus'
p1556
aS'and'
p1557
aS'you'
p1558
aS'think'
p1559
aaa(lp1560
g1551
a(lp1561
S'hey'
p1562
aS'theres'
p1563
aS'something'
p1564
aS'about'
p1565
aS'this'
p1566
aS'place'
p1567
aaa(lp1568
S'MAUREEN'
p1569
a(lp1570
g11
aS'Ill'
p1571
ag11
aS'dump'
p1572
aS'this'
p1573
aS'outside'
p1574
aaa(lp1575
S'PATTY'
p1576
a(lp1577
S'that'
p1578
aaa(lp1579
g1576
a(lp1580
S'that'
p1581
aS'speaks'
p1582
aS'to'
p1583
aS'me'
p1584
aaa(lp1585
S'STEPHANIE'
p1586
a(lp1587
g87
aS'had'
p1588
aS'one'
p1589
aS'college'
p1590
aS'that'
p1591
aS'did'
p1592
aS'that'
p1593
aaa(lp1594
S'PATTY'
p1595
a(lp1596
S'you'
p1597
aS'know'
p1598
aaa(lp1599
g1595
a(lp1600
S'you'
p1601
aS'dont'
p1602
aS'know'
p1603
aS'that'
p1604
aS'until'
p1605
aS'youre'
p1606
aS'on'
p1607
aS'the'
p1608
aS'campus'
p1609
aaa(lp1610
S'STEPHANIE'
p1611
a(lp1612
g87
aS'had'
p1613
ag338
aS'college'
p1614
aS'that'
p1615
aS'did'
p1616
aS'that'
p1617
aaa(lp1618
S'GAIL'
p1619
a(lp1620
S'Mm'
p1621
aaa(lp1622
S'STEPHANIE'
p1623
a(lp1624
S'but'
p1625
ag87
aS'would'
p1626
aS'nev'
p1627
aaa(lp1628
g1623
a(lp1629
g87
aS'cant'
p1630
aS'get'
p1631
aS'in'
p1632
aaa(lp1633
g1623
a(lp1634
S'cause'
p1635
aS'its'
p1636
aS'just'
p1637
aS'too'
p1638
aS'impossible'
p1639
aaa(lp1640
g1623
a(lp1641
S'Duke'
p1642
aS'University'
p1643
aaa(lp1644
S'GAIL'
p1645
a(lp1646
S'Yeah'
p1647
aaa(lp1648
g1645
a(lp1649
S'Duke'
p1650
aaa(lp1651
g1645
a(lp1652
S'Yeah'
p1653
aaa(lp1654
S'STEPHANIE'
p1655
a(lp1656
g87
aS'fell'
p1657
aS'in'
p1658
aS'love'
p1659
aS'with'
p1660
aS'that'
p1661
aS'school'
p1662
aS'right'
p1663
aS'away'
p1664
aS'but'
p1665
aaa(lp1666
S'MAUREEN'
p1667
a(lp1668
S'Well'
p1669
aaa(lp1670
g1667
a(lp1671
S'you'
p1672
aS'can'
p1673
aS'always'
p1674
aS'apply'
p1675
aaa(lp1676
S'GAIL'
p1677
a(lp1678
S'Apply'
p1679
aaa(lp1680
g1677
a(lp1681
S'thats'
p1682
aS'true'
p1683
aaa(lp1684
S'MAUREEN'
p1685
a(lp1686
S'Absolutely'
p1687
aaa(lp1688
S'STEPHANIE'
p1689
a(lp1690
S'Yeah'
p1691
aaa(lp1692
g1689
a(lp1693
S'But'
p1694
aaa(lp1695
g1689
a(lp1696
g87
aS'dont'
p1697
aS'know'
p1698
aS'if'
p1699
aS'Im'
p1700
aS'gonna'
p1701
aS'bother'
p1702
aaa(lp1703
g1689
a(lp1704
S'cause'
p1705
aS'its'
p1706
aS'like'
p1707
ag338
aS'seventyfivedollar'
p1708
aS'application'
p1709
aS'fee'
p1710
aaa(lp1711
g1689
a(lp1712
S'and'
p1713
aS'the'
p1714
aS'chances'
p1715
aS'of'
p1716
aS'me'
p1717
aS'getting'
p1718
aS'in'
p1719
aS'there'
p1720
aS'are'
p1721
aS'like'
p1722
aS'zilch'
p1723
aaa(lp1724
g1689
a(lp1725
S'So'
p1726
aaa(lp1727
S'MAUREEN'
p1728
a(lp1729
S'What'
p1730
aaa(lp1731
g1728
a(lp1732
S'what'
p1733
aS'do'
p1734
aS'they'
p1735
aS'require'
p1736
aaa(lp1737
S'STEPHANIE'
p1738
a(lp1739
S'Ih'
p1740
aaa(lp1741
g1738
a(lp1742
S'the'
p1743
aS'people'
p1744
aS'that'
p1745
ag87
aS'have'
p1746
aS'met'
p1747
aS'that'
p1748
aS'have'
p1749
aS'gotten'
p1750
aS'in'
p1751
aaa(lp1752
g1738
a(lp1753
S'had'
p1754
aS'four'
p1755
aS'point'
p1756
aS'os'
p1757
aaa(lp1758
g1738
a(lp1759
S'uh'
p1760
aaa(lp1761
g1738
a(lp1762
S'fourteen'
p1763
aS'hundred'
p1764
aS'on'
p1765
aS'their'
p1766
aS'SATs'
p1767
aS'and'
p1768
aS'uh'
p1769
aaa(lp1770
S'PATTY'
p1771
a(lp1772
S'Well'
p1773
aS'kiddo'
p1774
aaa(lp1775
g1771
a(lp1776
S'you'
p1777
aS'had'
p1778
ag338
aS'chance'
p1779
aS'to'
p1780
aS'study'
p1781
aaa(lp1782
g1771
a(lp1783
S'you'
p1784
aS'know'
p1785
aaa(lp1786
g1771
a(lp1787
g87
aS'mean'
p1788
aS'thats'
p1789
aaa(lp1790
S'STEPHANIE'
p1791
a(lp1792
S'basically'
p1793
aaa(lp1794
g1791
a(lp1795
S'they'
p1796
aS'they'
p1797
aS'were'
p1798
aS'in'
p1799
aS'like'
p1800
aaa(lp1801
S'PATTY'
p1802
a(lp1803
S'Kept'
p1804
aS'telling'
p1805
aS'her'
p1806
aaa(lp1807
S'STEPHANIE'
p1808
a(lp1809
S'the'
p1810
aS'three'
p1811
aS'clubs'
p1812
aS'like'
p1813
aaa(lp1814
g1808
a(lp1815
S'the'
p1816
aS'Young'
p1817
aS'Republicans'
p1818
aaa(lp1819
S'PATTY'
p1820
a(lp1821
S'Comes'
p1822
aS'you'
p1823
aS'know'
p1824
aaa(lp1825
g1820
a(lp1826
S'when'
p1827
aS'it'
p1828
aS'comes'
p1829
aS'down'
p1830
aS'to'
p1831
aS'the'
p1832
aS'you'
p1833
aS'know'
p1834
aaa(lp1835
S'STEPHANIE'
p1836
a(lp1837
S'uh'
p1838
aaa(lp1839
S'GENEVIEVE'
p1840
a(lp1841
aa(lp1842
S'STEPHANIE'
p1843
a(lp1844
S'some'
p1845
aS'uh'
p1846
aS'like'
p1847
aS'business'
p1848
aS'management'
p1849
aS'and'
p1850
aS'something'
p1851
aS'else'
p1852
aaa(lp1853
S'GENEVIEVE'
p1854
a(lp1855
g11
aaa(lp1856
S'PATTY'
p1857
a(lp1858
S'Past'
p1859
aS'performance'
p1860
aS'has'
p1861
aS'something'
p1862
aS'to'
p1863
aS'say'
p1864
aS'about'
p1865
aS'that'
p1866
aaa(lp1867
S'STEPHANIE'
p1868
a(lp1869
S'You'
p1870
aS'know'
p1871
aaa(lp1872
S'PATTY'
p1873
a(lp1874
S'But'
p1875
aS'Stephanie'
p1876
aaa(lp1877
g1873
a(lp1878
S'Ive'
p1879
aS'been'
p1880
aS'telling'
p1881
aS'you'
p1882
aS'for'
p1883
aS'four'
p1884
aS'years'
p1885
aaa(lp1886
g1873
a(lp1887
S'youve'
p1888
aS'gotta'
p1889
aS'work'
p1890
aS'hard'
p1891
aaa(lp1892
S'STEPHANIE'
p1893
a(lp1894
S'Mom'
p1895
aaa(lp1896
g1893
a(lp1897
S'Mom'
p1898
aaa(lp1899
g1893
a(lp1900
S'Mom'
p1901
aaa(lp1902
S'MAUREEN'
p1903
a(lp1904
S'Gail'
p1905
aS'understands'
p1906
aaa(lp1907
S'STEPHANIE'
p1908
a(lp1909
g87
aS'dont'
p1910
aS'wanna'
p1911
aS'hear'
p1912
aS'it'
p1913
aaa(lp1914
S'MAUREEN'
p1915
a(lp1916
aa(lp1917
S'GAIL'
p1918
a(lp1919
S'Good'
p1920
aS'old'
p1921
aS'BU'
p1922
aS'didnt'
p1923
aS'want'
p1924
aS'me'
p1925
aaa(lp1926
g1918
a(lp1927
g11
aS'No'
p1928
ag11
aS'BC'
p1929
aaa(lp1930
S'STEPHANIE'
p1931
a(lp1932
S'XX'
p1933
aaa(lp1934
S'MAUREEN'
p1935
a(lp1936
S'BC'
p1937
aaa(lp1938
g1935
a(lp1939
S'They'
p1940
aS'didnt'
p1941
aS'want'
p1942
aS'her'
p1943
aaa(lp1944
S'GAIL'
p1945
a(lp1946
S'They'
p1947
aS'didnt'
p1948
aS'want'
p1949
aS'me'
p1950
aaa(lp1951
S'MAUREEN'
p1952
a(lp1953
S'She'
p1954
aS'snowed'
p1955
aS'the'
p1956
aS'interviewer'
p1957
aaa(lp1958
g1952
a(lp1959
S'but'
p1960
aS'they'
p1961
aS'still'
p1962
aS'didnt'
p1963
aS'want'
p1964
aS'her'
p1965
aaa(lp1966
S'STEPHANIE'
p1967
a(lp1968
aa(lp1969
g1967
a(lp1970
S'You'
p1971
aS'snowed'
p1972
aS'the'
p1973
aS'interviewer'
p1974
aaa(lp1975
S'GAIL'
p1976
a(lp1977
S'The'
p1978
aS'interviewer'
p1979
aS'was'
p1980
aS'so'
p1981
aS'goodlooking'
p1982
aaa(lp1983
S'MAUREEN'
p1984
a(lp1985
aa(lp1986
S'PATTY'
p1987
a(lp1988
S'Ha'
p1989
aS'haha'
p1990
aaa(lp1991
S'STEPHANIE'
p1992
a(lp1993
aa(lp1994
g1992
a(lp1995
g87
aS'love'
p1996
aS'it'
p1997
aaa(lp1998
S'GAIL'
p1999
a(lp2000
S'He'
p2001
aS'was'
p2002
aS'this'
p2003
aS'young'
p2004
aS'attorney'
p2005
aaa(lp2006
g1999
a(lp2007
S'He'
p2008
aS'was'
p2009
aS'real'
p2010
aS'young'
p2011
aaa(lp2012
g1999
a(lp2013
S'and'
p2014
ag87
aS'had'
p2015
aS'my'
p2016
aS'interview'
p2017
aS'in'
p2018
aS'the'
p2019
aS'US'
p2020
aS'Steel'
p2021
aS'Building'
p2022
aaa(lp2023
g1999
a(lp2024
S'And'
p2025
ag87
aS'went'
p2026
aS'up'
p2027
aS'there'
p2028
aS'and'
p2029
aaa(lp2030
g1999
a(lp2031
S'but'
p2032
aaa(lp2033
g1999
a(lp2034
S'You'
p2035
aS'know'
p2036
aS'what'
p2037
aaa(lp2038
g1999
a(lp2039
S'they'
p2040
aS'asked'
p2041
aS'me'
p2042
aS'some'
p2043
aS'really'
p2044
aS'weird'
p2045
aS'questions'
p2046
aS'though'
p2047
aaa(lp2048
S'MAUREEN'
p2049
a(lp2050
g87
aS'know'
p2051
aaa(lp2052
g2049
a(lp2053
g87
aS'know'
p2054
aaa(lp2055
S'PATTY'
p2056
a(lp2057
S'They'
p2058
aS'did'
p2059
aaa(lp2060
S'GAIL'
p2061
a(lp2062
S'Like'
p2063
aS'they'
p2064
aaa(lp2065
g2061
a(lp2066
g87
aS'expected'
p2067
aS'to'
p2068
aS'go'
p2069
aS'in'
p2070
aS'there'
p2071
aS'and'
p2072
aS'talk'
p2073
aS'about'
p2074
aaa(lp2075
g2061
a(lp2076
S'you'
p2077
aS'know'
p2078
aS'my'
p2079
aS'life'
p2080
aaa(lp2081
g2061
a(lp2082
S'and'
p2083
aS'what'
p2084
ag87
aS'wanted'
p2085
aS'out'
p2086
aS'of'
p2087
ag338
aS'school'
p2088
aaa(lp2089
g2061
a(lp2090
S'and'
p2091
aS'what'
p2092
ag87
aS'expected'
p2093
aS'from'
p2094
aS'them'
p2095
aS'and'
p2096
aaa(lp2097
S'PATTY'
p2098
a(lp2099
S'So'
p2100
aS'what'
p2101
aS'did'
p2102
aS'they'
p2103
aS'ask'
p2104
aS'you'
p2105
aaa(lp2106
S'GAIL'
p2107
a(lp2108
S'They'
p2109
aS'asked'
p2110
aS'me'
p2111
aS'what'
p2112
aS'my'
p2113
aS'stance'
p2114
aS'was'
p2115
aS'abou'
p2116
aS'on'
p2117
aS'abortion'
p2118
aaa(lp2119
S'PATTY'
p2120
a(lp2121
S'Boy'
p2122
aS'that'
p2123
aS'was'
p2124
ag338
aS'dumb'
p2125
aS'question'
p2126
aaa(lp2127
g2120
a(lp2128
S'thats'
p2129
aS'one'
p2130
aaa(lp2131
S'GAIL'
p2132
a(lp2133
S'Boom'
p2134
aaa(lp2135
g2132
a(lp2136
g87
aS'was'
p2137
aS'like'
p2138
aaa(lp2139
S'PATTY'
p2140
a(lp2141
S'Thats'
p2142
ag338
aS'controversial'
p2143
aS'question'
p2144
aaa(lp2145
g2140
a(lp2146
S'so'
p2147
ag87
ag11
aS'would'
p2148
ag11
aS'think'
p2149
aS'thats'
p2150
ag338
aS'dumb'
p2151
aS'one'
p2152
aS'to'
p2153
aS'ask'
p2154
aaa(lp2155
S'GAIL'
p2156
a(lp2157
S'Well'
p2158
aaa(lp2159
S'PATTY'
p2160
a(lp2161
S'Its'
p2162
aS'controversial'
p2163
aaa(lp2164
S'GAIL'
p2165
a(lp2166
S'Well'
p2167
aS'they'
p2168
aS'asked'
p2169
aS'me'
p2170
aS'that'
p2171
aaa(lp2172
g2165
a(lp2173
S'and'
p2174
aS'they'
p2175
aS'asked'
p2176
aS'me'
p2177
aaa(lp2178
S'PATTY'
p2179
a(lp2180
S'And'
p2181
aS'personal'
p2182
aaa(lp2183
S'GAIL'
p2184
a(lp2185
S'how'
p2186
ag87
aS'thought'
p2187
aS'about'
p2188
aS'drug'
p2189
aS'testing'
p2190
aS'in'
p2191
aS'the'
p2192
aS'workplace'
p2193
aaa(lp2194
S'PATTY'
p2195
a(lp2196
S'its'
p2197
aS'very'
p2198
aS'personal'
p2199
aaa(lp2200
g2195
a(lp2201
S'Very'
p2202
aS'personal'
p2203
aaa(lp2204
g2195
a(lp2205
S'Those'
p2206
aS'are'
p2207
aS'both'
p2208
aS'personal'
p2209
aS'questions'
p2210
aaa(lp2211
S'STEPHANIE'
p2212
a(lp2213
S'You'
p2214
aS'know'
p2215
aS'what'
p2216
aaa(lp2217
g2212
a(lp2218
S'Williams'
p2219
aS'did'
p2220
aS'the'
p2221
ag699
aaa(lp2222
S'GAIL'
p2223
a(lp2224
S'Well'
p2225
aaa(lp2226
g2223
a(lp2227
S'you'
p2228
aS'know'
p2229
aS'whats'
p2230
aS'funny'
p2231
aS'is'
p2232
aaa(lp2233
g2223
a(lp2234
S'you'
p2235
aS'know'
p2236
aaa(lp2237
g2223
a(lp2238
S'BC'
p2239
aS'is'
p2240
ag338
aS'Catholic'
p2241
aS'school'
p2242
aaa(lp2243
S'PATTY'
p2244
a(lp2245
S'Yeah'
p2246
aaa(lp2247
S'GAIL'
p2248
a(lp2249
S'And'
p2250
ag87
aS'th'
p2251
aaa(lp2252
g2248
a(lp2253
S'You'
p2254
aS'know'
p2255
aaa(lp2256
g2248
a(lp2257
g87
aS'dont'
p2258
aS'think'
p2259
aS'they'
p2260
aS'really'
p2261
aS'liked'
p2262
aS'my'
p2263
aS'answer'
p2264
aaa(lp2265
S'PATTY'
p2266
a(lp2267
aa(lp2268
S'GAIL'
p2269
a(lp2270
S'but'
p2271
aS'uh'
p2272
aaa(lp2273
S'PATTY'
p2274
a(lp2275
S'Thats'
p2276
aaa(lp2277
g2274
a(lp2278
S'But'
p2279
aS'you'
p2280
aS'have'
p2281
aaa(lp2282
S'STEPHANIE'
p2283
a(lp2284
S'Well'
p2285
aaa(lp2286
S'PATTY'
p2287
a(lp2288
S'but'
p2289
aS'you'
p2290
aS'still'
p2291
aS'have'
p2292
aS'freedom'
p2293
aS'of'
p2294
aS'choice'
p2295
aaa(lp2296
S'STEPHANIE'
p2297
a(lp2298
S'You'
p2299
aS'know'
p2300
aS'what'
p2301
aaa(lp2302
S'GAIL'
p2303
a(lp2304
S'Thats'
p2305
aS'right'
p2306
aaa(lp2307
S'PATTY'
p2308
a(lp2309
S'Yeah'
p2310
aaa(lp2311
g2308
a(lp2312
g87
aS'mean'
p2313
aaa(lp2314
S'GAIL'
p2315
a(lp2316
S'XX'
p2317
aaa(lp2318
S'STEPHANIE'
p2319
a(lp2320
S'Williams'
p2321
aS'is'
p2322
aS'the'
p2323
aS'same'
p2324
aS'way'
p2325
aaa(lp2326
g2319
a(lp2327
S'Cause'
p2328
aS'Lee'
p2329
aS'went'
p2330
aaa(lp2331
g2319
a(lp2332
S'and'
p2333
aaa(lp2334
g2319
a(lp2335
S'Lee'
p2336
aS'applied'
p2337
aS'to'
p2338
aS'Williams'
p2339
aaa(lp2340
g2319
a(lp2341
S'And'
p2342
aS'she'
p2343
aS'got'
p2344
aS'waitlisted'
p2345
aaa(lp2346
g2319
a(lp2347
S'And'
p2348
aS'Williams'
p2349
aS'used'
p2350
aS'to'
p2351
aS'be'
p2352
aS'really'
p2353
aS'lib'
p2354
aaa(lp2355
g2319
a(lp2356
S'liberal'
p2357
aS'whatever'
p2358
aaa(lp2359
g2319
a(lp2360
S'But'
p2361
aS'lately'
p2362
aaa(lp2363
g2319
a(lp2364
S'the'
p2365
aS'information'
p2366
aS'theyre'
p2367
aS'sending'
p2368
aS'out'
p2369
aS'is'
p2370
aaa(lp2371
g2319
a(lp2372
S'VOX'
p2373
ag338
aS'nice'
p2374
aS'value'
p2375
aS'community'
p2376
aS'uh'
p2377
aaa(lp2378
g2319
a(lp2379
S'moral'
p2380
aS'stance'
p2381
aaa(lp2382
g2319
a(lp2383
S'dadadadada'
p2384
ag87
aS'mean'
p2385
aS'VOX'
p2386
aaa(lp2387
S'PATTY'
p2388
a(lp2389
S'Theres'
p2390
aS'nothing'
p2391
aS'wrong'
p2392
aS'with'
p2393
aS'that'
p2394
aaa(lp2395
S'STEPHANIE'
p2396
a(lp2397
S'Well'
p2398
aS'no'
p2399
aaa(lp2400
g2396
a(lp2401
S'but'
p2402
aS'what'
p2403
aS'theyre'
p2404
aS'do'
p2405
aaa(lp2406
S'PATTY'
p2407
a(lp2408
S'thats'
p2409
aS'important'
p2410
aaa(lp2411
S'STEPHANIE'
p2412
a(lp2413
S'But'
p2414
aaa(lp2415
g2412
a(lp2416
S'but'
p2417
aS'm'
p2418
aS'Mom'
p2419
aaa(lp2420
g2412
a(lp2421
S'what'
p2422
aS'Im'
p2423
aS'saying'
p2424
aS'is'
p2425
aaa(lp2426
S'PATTY'
p2427
a(lp2428
S'Im'
p2429
aS'listening'
p2430
aaa(lp2431
S'STEPHANIE'
p2432
a(lp2433
S'They'
p2434
aS'had'
p2435
aaa(lp2436
g2432
a(lp2437
S'years'
p2438
aS'ago'
p2439
aaa(lp2440
g2432
a(lp2441
S'they'
p2442
aS'had'
p2443
aS'VOX'
p2444
aS'the'
p2445
aS'sitins'
p2446
aS'VOX'
p2447
aaa(lp2448
g2432
a(lp2449
S'everything'
p2450
aS'you'
p2451
aS'know'
p2452
aaa(lp2453
g2432
a(lp2454
S'real'
p2455
aS'liberal'
p2456
aaa(lp2457
g2432
a(lp2458
S'now'
p2459
aS'theyre'
p2460
aS'going'
p2461
aS'to'
p2462
aS'conservative'
p2463
aaa(lp2464
g2432
a(lp2465
S'and'
p2466
aS'when'
p2467
aS'she'
p2468
aS'was'
p2469
aS'interviewed'
p2470
aS'for'
p2471
aS'it'
p2472
aaa(lp2473
g2432
a(lp2474
S'they'
p2475
aS'took'
p2476
aS'her'
p2477
aS'answers'
p2478
aS'very'
p2479
aS'slowly'
p2480
aaa(lp2481
g2432
a(lp2482
S'and'
p2483
aS'they'
p2484
aS'waitlisted'
p2485
aS'her'
p2486
aaa(lp2487
g2432
a(lp2488
S'she'
p2489
aS'had'
p2490
aS'the'
p2491
aS'grades'
p2492
aaa(lp2493
g2432
a(lp2494
S'but'
p2495
aS'she'
p2496
aS'didnt'
p2497
aS'have'
p2498
aS'the'
p2499
aS'political'
p2500
aS'views'
p2501
aaa(lp2502
g2432
a(lp2503
S'And'
p2504
aaa(lp2505
g2432
a(lp2506
S'uh'
p2507
aaa(lp2508
g2432
a(lp2509
S'thats'
p2510
aS'what'
p2511
aS'was'
p2512
aS'happening'
p2513
aaa(lp2514
S'PATTY'
p2515
a(lp2516
S'So'
p2517
aS'maybe'
p2518
aS'she'
p2519
aS'was'
p2520
aS'better'
p2521
aS'to'
p2522
aS'be'
p2523
aS'in'
p2524
ag338
aS'place'
p2525
aaa(lp2526
g2515
a(lp2527
S'where'
p2528
aS'shes'
p2529
aS'free'
p2530
aS'to'
p2531
aS'express'
p2532
aS'herself'
p2533
aaa(lp2534
S'STEPHANIE'
p2535
a(lp2536
S'Oh'
p2537
aS'yeah'
p2538
aaa(lp2539
g2535
a(lp2540
S'Rice'
p2541
aaa(lp2542
g2535
a(lp2543
S'Rice'
p2544
aS'is'
p2545
aS'great'
p2546
aaa(lp2547
g2535
a(lp2548
S'She'
p2549
aaa(lp2550
S'PATTY'
p2551
a(lp2552
S'You'
p2553
aS'know'
p2554
aaa(lp2555
S'STEPHANIE'
p2556
a(lp2557
S'Rice'
p2558
aS'is'
p2559
aS'really'
p2560
aS'liberal'
p2561
aaa(lp2562
g2556
a(lp2563
S'XX'
p2564
ag11
aS'XX'
p2565
ag11
aaa(lp2566
S'PATTY'
p2567
a(lp2568
S'Things'
p2569
aS'work'
p2570
aS'out'
p2571
aS'sometimes'
p2572
aS'for'
p2573
aS'the'
p2574
aS'best'
p2575
aaa(lp2576
S'X'
p2577
a(lp2578
aa(lp2579
S'PATTY'
p2580
a(lp2581
S'as'
p2582
aS'maybe'
p2583
aS'Gail'
p2584
aS'realizes'
p2585
aS'too'
p2586
aS'you'
p2587
aS'know'
p2588
aaa(lp2589
S'STEPHANIE'
p2590
a(lp2591
S'Oh'
p2592
aS'shes'
p2593
aS'much'
p2594
aS'happier'
p2595
aS'at'
p2596
aaa(lp2597
S'GAIL'
p2598
a(lp2599
S'Yeah'
p2600
aaa(lp2601
S'STEPHANIE'
p2602
a(lp2603
S'Shes'
p2604
aS'happy'
p2605
aS'in'
p2606
aS'Texas'
p2607
aaa(lp2608
g2602
a(lp2609
S'Shes'
p2610
aS'really'
p2611
aS'happy'
p2612
aS'there'
p2613
aaa(lp2614
S'GAIL'
p2615
a(lp2616
S'Where'
p2617
aS'is'
p2618
aS'Rice'
p2619
aaa(lp2620
S'STEPHANIE'
p2621
a(lp2622
S'Its'
p2623
aS'in'
p2624
aS'Houston'
p2625
aaa(lp2626
S'GAIL'
p2627
a(lp2628
S'Houston'
p2629
aaa(lp2630
S'STEPHANIE'
p2631
a(lp2632
S'Its'
p2633
aS'right'
p2634
aS'outside'
p2635
aS'of'
p2636
aS'Houston'
p2637
aaa(lp2638
g2631
a(lp2639
S'she'
p2640
aS'r'
p2641
aS'she'
p2642
aS'loves'
p2643
aS'it'
p2644
aS'there'
p2645
aaa(lp2646
g2631
a(lp2647
S'Um'
p2648
aaa(lp2649
g2631
a(lp2650
S'they'
p2651
aaa(lp2652
g2631
a(lp2653
S'their'
p2654
aS'admissions'
p2655
aS'were'
p2656
aS'higher'
p2657
aS'than'
p2658
aS'Harvards'
p2659
aS'this'
p2660
aS'year'
p2661
aaa(lp2662
S'GAIL'
p2663
a(lp2664
S'Really'
p2665
aaa(lp2666
S'STEPHANIE'
p2667
a(lp2668
S'They'
p2669
aS'have'
p2670
aS'one'
p2671
aS'of'
p2672
aS'the'
p2673
aS'top'
p2674
aS'history'
p2675
aS'departments'
p2676
aS'XX'
p2677
ag11
aaa(lp2678
S'GENEVIEVE'
p2679
a(lp2680
S'Maureen'
p2681
aS'didnt'
p2682
aS'have'
p2683
aS'any'
p2684
aS'trouble'
p2685
aS'deciding'
p2686
aaa(lp2687
S'GAIL'
p2688
a(lp2689
S'Hm'
p2690
aaa(lp2691
S'PATTY'
p2692
a(lp2693
S'Well'
p2694
aS'sometimes'
p2695
aS'you'
p2696
aS'dont'
p2697
aaa(lp2698
g2692
a(lp2699
S'Some'
p2700
aS'people'
p2701
aS'are'
p2702
aS'lucky'
p2703
aaa(lp2704
S'GAIL'
p2705
a(lp2706
S'Why'
p2707
aaa(lp2708
S'PATTY'
p2709
a(lp2710
S'they'
p2711
aS'always'
p2712
aS'know'
p2713
aS'where'
p2714
aS'they'
p2715
aS'wanna'
p2716
aS'be'
p2717
aS'or'
p2718
aS'what'
p2719
aS'and'
p2720
aaa(lp2721
S'GAIL'
p2722
a(lp2723
S'Why'
p2724
aS'was'
p2725
aS'that'
p2726
aaa(lp2727
g2722
a(lp2728
g87
aS'was'
p2729
aS'probably'
p2730
aS'the'
p2731
aS'hardest'
p2732
aS'person'
p2733
aS'to'
p2734
aS'find'
p2735
ag338
aS'school'
p2736
aS'for'
p2737
aaa(lp2738
S'PATTY'
p2739
a(lp2740
g11
aaa(lp2741
S'GAIL'
p2742
a(lp2743
S'because'
p2744
aS'everyone'
p2745
aaa(lp2746
g2742
a(lp2747
S'in'
p2748
aS'my'
p2749
aS'family'
p2750
aaa(lp2751
g2742
a(lp2752
S'knew'
p2753
aS'what'
p2754
aS'they'
p2755
aS'wanted'
p2756
aS'to'
p2757
aS'major'
p2758
aS'in'
p2759
aaa(lp2760
S'PATTY'
p2761
a(lp2762
S'And'
p2763
aS'you'
p2764
aS'werent'
p2765
aS'sure'
p2766
aaa(lp2767
S'GAIL'
p2768
a(lp2769
S'Immediately'
p2770
aaa(lp2771
S'PATTY'
p2772
a(lp2773
S'And'
p2774
aS'Stephanies'
p2775
aS'not'
p2776
aS'sure'
p2777
aS'either'
p2778
aaa(lp2779
S'GAIL'
p2780
a(lp2781
S'And'
p2782
ag87
aS'was'
p2783
aS'kinda'
p2784
aS'like'
p2785
aaa(lp2786
g2780
a(lp2787
S'yeah'
p2788
aaa(lp2789
g2780
a(lp2790
g87
aS'was'
p2791
aS'like'
p2792
aaa(lp2793
S'PATTY'
p2794
a(lp2795
S'She'
p2796
aS'has'
p2797
aS'some'
p2798
aS'idea'
p2799
aaa(lp2800
S'GAIL'
p2801
a(lp2802
S'well'
p2803
aaa(lp2804
S'STEPHANIE'
p2805
a(lp2806
S'Yes'
p2807
ag87
aS'am'
p2808
aaa(lp2809
S'PATTY'
p2810
a(lp2811
S'Well'
p2812
aaa(lp2813
S'GAIL'
p2814
a(lp2815
S'Whatre'
p2816
aS'you'
p2817
aS'gonna'
p2818
aS'be'
p2819
aaa(lp2820
S'STEPHANIE'
p2821
a(lp2822
S'Im'
p2823
aS'gonna'
p2824
aS'be'
p2825
aS'an'
p2826
aS'art'
p2827
aS'historian'
p2828
aaa(lp2829
S'MAUREEN'
p2830
a(lp2831
S'She'
p2832
aaa(lp2833
g2830
a(lp2834
g87
aS'thought'
p2835
aS'she'
p2836
aS'was'
p2837
aS'gonna'
p2838
aS'be'
p2839
ag338
aS'shortorder'
p2840
aS'chef'
p2841
aaa(lp2842
g2830
a(lp2843
S'Thats'
p2844
aS'what'
p2845
aS'she'
p2846
aaa(lp2847
S'GAIL'
p2848
a(lp2849
aa(lp2850
S'PATTY'
p2851
a(lp2852
S'Well'
p2853
aS'she'
p2854
aS'has'
p2855
aS'no'
p2856
aS'experience'
p2857
aS'at'
p2858
aS'that'
p2859
aS'in'
p2860
aS'my'
p2861
aS'house'
p2862
aaa(lp2863
S'GAIL'
p2864
a(lp2865
g1216
aS'professional'
p2866
aS'griller'
p2867
aaa(lp2868
S'STEPHANIE'
p2869
a(lp2870
g87
aS'have'
p2871
aS'it'
p2872
aS'at'
p2873
aS'the'
p2874
aS'store'
p2875
aaa(lp2876
S'GAIL'
p2877
a(lp2878
aa(lp2879
S'GENEVIEVE'
p2880
a(lp2881
S'Stephanie'
p2882
aaa(lp2883
S'ERIKA'
p2884
a(lp2885
g1216
aS'manager'
p2886
aS'of'
p2887
aS'Tasty'
p2888
aS'Freeze'
p2889
aaa(lp2890
S'GENEVIEVE'
p2891
a(lp2892
S'what'
p2893
aS'are'
p2894
aS'you'
p2895
aS'going'
p2896
aS'to'
p2897
aS'w'
p2898
aaa(lp2899
g2891
a(lp2900
S'What'
p2901
aS'are'
p2902
aS'you'
p2903
aS'going'
p2904
aS'to'
p2905
aS'be'
p2906
aaa(lp2907
S'MAUREEN'
p2908
a(lp2909
aa(lp2910
S'STEPHANIE'
p2911
a(lp2912
S'An'
p2913
aS'art'
p2914
aS'historian'
p2915
aaa(lp2916
S'MAUREEN'
p2917
a(lp2918
S'Isnt'
p2919
aS'that'
p2920
aS'what'
p2921
aS'you'
p2922
aS'XX'
p2923
aS'XXX'
p2924
aaa(lp2925
S'GENEVIEVE'
p2926
a(lp2927
g1216
aS'what'
p2928
aaa(lp2929
S'STEPHANIE'
p2930
a(lp2931
S'Well'
p2932
aS'an'
p2933
aS'art'
p2934
aS'history'
p2935
aS'major'
p2936
aaa(lp2937
S'MAUREEN'
p2938
a(lp2939
aa(lp2940
S'STEPHANIE'
p2941
a(lp2942
S'Depends'
p2943
aS'on'
p2944
aS'what'
p2945
ag87
aS'minor'
p2946
aS'in'
p2947
aaa(lp2948
S'GAIL'
p2949
a(lp2950
S'Art'
p2951
aaa(lp2952
S'ERIKA'
p2953
a(lp2954
g87
aS'wanna'
p2955
aS'be'
p2956
ag338
aS'social'
p2957
aS'worker'
p2958
aaa(lp2959
S'MAUREEN'
p2960
a(lp2961
S'Oh'
p2962
aS'what'
p2963
aS'an'
p2964
aS'excellent'
p2965
aS'choice'
p2966
aaa(lp2967
S'STEPHANIE'
p2968
a(lp2969
g87
aS'have'
p2970
aS'to'
p2971
ag11
aS'determine'
p2972
aS'my'
p2973
aS'minor'
p2974
ag11
aaa(lp2975
S'PATTY'
p2976
a(lp2977
S'Probably'
p2978
aS'be'
p2979
aS'good'
p2980
aS'at'
p2981
aS'that'
p2982
aaa(lp2983
S'MAUREEN'
p2984
a(lp2985
aa(lp2986
S'PATTY'
p2987
a(lp2988
g87
aS'kept'
p2989
aS'telling'
p2990
aS'Stephanie'
p2991
aaa(lp2992
g2987
a(lp2993
S'thats'
p2994
aS'what'
p2995
aS'she'
p2996
aS'should'
p2997
aS'be'
p2998
aaa(lp2999
g2987
a(lp3000
S'and'
p3001
aS'she'
p3002
aS'loves'
p3003
aS'to'
p3004
aS'talk'
p3005
aS'to'
p3006
aS'people'
p3007
aaa(lp3008
g2987
a(lp3009
S'thats'
p3010
aS'where'
p3011
aS'she'
p3012
aS'should'
p3013
aS'be'
p3014
aaa(lp3015
g2987
a(lp3016
S'and'
p3017
aS'shes'
p3018
aaa(lp3019
S'STEPHANIE'
p3020
a(lp3021
S'But'
p3022
aS'if'
p3023
ag87
aS'am'
p3024
ag338
aaa(lp3025
S'GAIL'
p3026
a(lp3027
S'Hey'
p3028
aS'you'
p3029
aS'could'
p3030
aS'be'
p3031
aS'in'
p3032
aS'human'
p3033
aS'resources'
p3034
aS'like'
p3035
aS'me'
p3036
aaa(lp3037
S'PATTY'
p3038
a(lp3039
S'Hey'
p3040
aaa(lp3041
g3038
a(lp3042
S'pour'
p3043
aS'me'
p3044
aS'some'
p3045
aS'more'
p3046
aS'of'
p3047
aS'that'
p3048
aaa(lp3049
g3038
a(lp3050
S'Im'
p3051
aS'not'
p3052
aS'going'
p3053
aS'anywhere'
p3054
aS'tonight'
p3055
aaa(lp3056
S'X'
p3057
a(lp3058
g11
aaa(lp3059
S'GAIL'
p3060
a(lp3061
S'You'
p3062
aS'can'
p3063
aS'be'
p3064
aS'like'
p3065
aaa(lp3066
g3060
a(lp3067
S'in'
p3068
aS'human'
p3069
aS'resources'
p3070
aS'like'
p3071
aS'me'
p3072
aaa(lp3073
S'STEPHANIE'
p3074
a(lp3075
aa(lp3076
S'PATTY'
p3077
a(lp3078
g11
aS'Not'
p3079
aS'driving'
p3080
ag11
aaa(lp3081
S'STEPHANIE'
p3082
a(lp3083
S'Thats'
p3084
aS'right'
p3085
aaa(lp3086
g3082
a(lp3087
S'cause'
p3088
aS'were'
p3089
aS'taking'
p3090
aS'the'
p3091
aS'car'
p3092
aS'later'
p3093
aaa(lp3094
S'PATTY'
p3095
a(lp3096
g87
aS'dont'
p3097
aS'have'
p3098
aS'to'
p3099
aS'drive'
p3100
aS'home'
p3101
aaa(lp3102
S'GAIL'
p3103
a(lp3104
S'Hey'
p3105
aS'you'
p3106
aS'know'
p3107
aS'what'
p3108
aaa(lp3109
S'STEPHANIE'
p3110
a(lp3111
S'Speaking'
p3112
aS'of'
p3113
aS'that'
p3114
aaa(lp3115
g3110
a(lp3116
S'are'
p3117
aS'the'
p3118
aS'keys'
p3119
aS'in'
p3120
aS'the'
p3121
aS'XX'
p3122
aaa(lp3123
S'GAIL'
p3124
a(lp3125
g87
aS'have'
p3126
aS'the'
p3127
aS'best'
p3128
aS'job'
p3129
aS'on'
p3130
aS'earth'
p3131
aaa(lp3132
g3124
a(lp3133
S'So'
p3134
aS'if'
p3135
aS'you'
p3136
aS'wanna'
p3137
aS'get'
p3138
aS'into'
p3139
aS'something'
p3140
aS'good'
p3141
aaa(lp3142
S'ERIKA'
p3143
a(lp3144
S'No'
p3145
aaa(lp3146
g3143
a(lp3147
g87
aS'didnt'
p3148
aS'bring'
p3149
aS'your'
p3150
aS'set'
p3151
aS'of'
p3152
aS'keys'
p3153
aaa(lp3154
S'PATTY'
p3155
a(lp3156
g87
aS'have'
p3157
aS'keys'
p3158
aaa(lp3159
S'GAIL'
p3160
a(lp3161
S'get'
p3162
aS'into'
p3163
aS'what'
p3164
aS'Im'
p3165
aS'getting'
p3166
aS'into'
p3167
aaa(lp3168
S'PATTY'
p3169
a(lp3170
g87
aS'drove'
p3171
aS'here'
p3172
aaa(lp3173
g3169
a(lp3174
g87
aS'have'
p3175
aS'keys'
p3176
aaa(lp3177
S'STEPHANIE'
p3178
a(lp3179
S'Oh'
p3180
aS'thats'
p3181
aS'right'
p3182
aaa(lp3183
g3178
a(lp3184
S'you'
p3185
aS'did'
p3186
aS'drive'
p3187
aS'here'
p3188
aaa(lp3189
S'PATTY'
p3190
a(lp3191
S'Its'
p3192
aS'its'
p3193
aaa(lp3194
g3190
a(lp3195
S'you'
p3196
aS'know'
p3197
aaa(lp3198
S'STEPHANIE'
p3199
a(lp3200
g11
ag87
aS'couldve'
p3201
aS'drank'
p3202
aS'anything'
p3203
ag11
aaa(lp3204
S'PATTY'
p3205
a(lp3206
S'Well'
p3207
ag87
aS'think'
p3208
aS'the'
p3209
aS'th'
p3210
aS'important'
p3211
aS'thing'
p3212
aS'that'
p3213
aS'maybe'
p3214
aS'we'
p3215
aS'should'
p3216
aS'all'
p3217
aS'say'
p3218
aS'to'
p3219
aS'you'
p3220
aS'Stephanie'
p3221
aaa(lp3222
g3205
a(lp3223
S'and'
p3224
aS'you'
p3225
aS'need'
p3226
aS'to'
p3227
aS'listen'
p3228
aS'is'
p3229
aaa(lp3230
g3205
a(lp3231
S'you'
p3232
aS'have'
p3233
aS'to'
p3234
aS'keep'
p3235
aS'an'
p3236
aS'open'
p3237
aS'mind'
p3238
aaa(lp3239
g3205
a(lp3240
S'Dont'
p3241
aS'cross'
p3242
aS'any'
p3243
aS'school'
p3244
aS'off'
p3245
aS'before'
p3246
aS'you'
p3247
aS'see'
p3248
aS'it'
p3249
aaa(lp3250
S'GENEVIEVE'
p3251
a(lp3252
S'Thats'
p3253
aS'right'
p3254
aaa(lp3255
S'PATTY'
p3256
a(lp3257
S'You'
p3258
aS'know'
p3259
aaa(lp3260
S'STEPHANIE'
p3261
a(lp3262
S'Oh'
p3263
aS'yeah'
p3264
aaa(lp3265
S'PATTY'
p3266
a(lp3267
S'dont'
p3268
aS'cross'
p3269
aS'off'
p3270
aS'Geneva'
p3271
aS'before'
p3272
aS'you'
p3273
aS'go'
p3274
aS'there'
p3275
aaa(lp3276
S'STEPHANIE'
p3277
a(lp3278
S'Im'
p3279
aS'not'
p3280
aS'crossing'
p3281
aS'it'
p3282
aS'off'
p3283
aaa(lp3284
S'PATTY'
p3285
a(lp3286
g87
aS'know'
p3287
aS'its'
p3288
aS'far'
p3289
aS'away'
p3290
aS'and'
p3291
aS'its'
p3292
aS'not'
p3293
ag338
aS'big'
p3294
aS'town'
p3295
aS'but'
p3296
aaa(lp3297
g3285
a(lp3298
S'dont'
p3299
aS'already'
p3300
aS'think'
p3301
aaa(lp3302
g3285
a(lp3303
g87
aS'dont'
p3304
aS'wanna'
p3305
aS'go'
p3306
aS'there'
p3307
aS'because'
p3308
aaa(lp3309
S'STEPHANIE'
p3310
a(lp3311
S'Its'
p3312
aS'not'
p3313
aS'far'
p3314
aS'away'
p3315
aaa(lp3316
S'PATTY'
p3317
a(lp3318
S'its'
p3319
aS'not'
p3320
aS'near'
p3321
ag338
aS'big'
p3322
aS'metropolitan'
p3323
aS'area'
p3324
aaa(lp3325
g3317
a(lp3326
S'You'
p3327
aS'know'
p3328
aS'y'
p3329
aaa(lp3330
g3317
a(lp3331
S'she'
p3332
aS'wasnt'
p3333
aS'near'
p3334
ag338
aS'big'
p3335
aS'metropolitan'
p3336
aS'area'
p3337
aaa(lp3338
g3317
a(lp3339
S'Right'
p3340
aaa(lp3341
S'GAIL'
p3342
a(lp3343
S'But'
p3344
aaa(lp3345
g3342
a(lp3346
g87
aS'had'
p3347
aS'thought'
p3348
aS'that'
p3349
ag87
aS'wanted'
p3350
aS'to'
p3351
aS'be'
p3352
aS'near'
p3353
aS'big'
p3354
aS'area'
p3355
aaa(lp3356
S'STEPHANIE'
p3357
a(lp3358
S'But'
p3359
ag87
aS'also'
p3360
aS'went'
p3361
aS'to'
p3362
ag1166
aS'high'
p3363
aS'school'
p3364
aS'in'
p3365
ag338
aS'big'
p3366
aS'metropolitan'
p3367
aS'area'
p3368
ag1166
aaa(lp3369
S'PATTY'
p3370
a(lp3371
S'But'
p3372
aS'what'
p3373
aS'but'
p3374
aaa(lp3375
g3370
a(lp3376
S'But'
p3377
aS'were'
p3378
aS'saying'
p3379
aaa(lp3380
g3370
a(lp3381
S'So'
p3382
aaa(lp3383
S'GAIL'
p3384
a(lp3385
S'But'
p3386
aaa(lp3387
g3384
a(lp3388
S'it'
p3389
aS'doesnt'
p3390
aS'matter'
p3391
aS'though'
p3392
aaa(lp3393
S'PATTY'
p3394
a(lp3395
S'So'
p3396
aS'did'
p3397
aS'she'
p3398
aaa(lp3399
S'GAIL'
p3400
a(lp3401
g87
aS'mean'
p3402
aaa(lp3403
S'PATTY'
p3404
a(lp3405
S'She'
p3406
aaa(lp3407
g3404
a(lp3408
g87
aS'mean'
p3409
aaa(lp3410
g3404
a(lp3411
S'she'
p3412
aS'wasnt'
p3413
ag11
aS'downtown'
p3414
ag11
aaa(lp3415
S'GAIL'
p3416
a(lp3417
g87
aS'had'
p3418
aS'my'
p3419
aS'access'
p3420
aS'to'
p3421
aS'the'
p3422
aS'city'
p3423
aaa(lp3424
S'PATTY'
p3425
a(lp3426
S'but'
p3427
aS'she'
p3428
aS'lived'
p3429
aS'in'
p3430
aS'Pittsburgh'
p3431
aS'all'
p3432
aS'her'
p3433
aS'life'
p3434
aaa(lp3435
S'STEPHANIE'
p3436
a(lp3437
S'Yeah'
p3438
aaa(lp3439
S'GAIL'
p3440
a(lp3441
S'You'
p3442
aS'know'
p3443
aaa(lp3444
S'PATTY'
p3445
a(lp3446
S'she'
p3447
aS'did'
p3448
aS'the'
p3449
aS'same'
p3450
aS'things'
p3451
aS'you'
p3452
aS'did'
p3453
aaa(lp3454
S'STEPHANIE'
p3455
a(lp3456
S'But'
p3457
ag11
aS'theres'
p3458
ag11
aaa(lp3459
S'PATTY'
p3460
a(lp3461
S'she'
p3462
aS'went'
p3463
aS'to'
p3464
aS'the'
p3465
aS'opera'
p3466
aaa(lp3467
g3460
a(lp3468
S'she'
p3469
aS'went'
p3470
aS'to'
p3471
aS'the'
p3472
aS'symphony'
p3473
aaa(lp3474
g3460
a(lp3475
S'she'
p3476
aS'went'
p3477
aS'to'
p3478
aS'the'
p3479
aS'ballet'
p3480
aaa(lp3481
g3460
a(lp3482
S'so'
p3483
aS'she'
p3484
aS'grew'
p3485
aS'up'
p3486
aS'in'
p3487
ag338
aS'cosmopolitan'
p3488
aS'atmosphere'
p3489
aaa(lp3490
S'STEPHANIE'
p3491
a(lp3492
S'If'
p3493
aS'theres'
p3494
aS'not'
p3495
ag338
aS'coffee'
p3496
aS'house'
p3497
aS'on'
p3498
aS'the'
p3499
aS'campus'
p3500
aaa(lp3501
g3491
a(lp3502
S'Im'
p3503
aS'not'
p3504
aS'going'
p3505
aaa(lp3506
S'PATTY'
p3507
a(lp3508
S'They'
p3509
ag1166
aS'all'
p3510
ag1166
aS'have'
p3511
aS'coffee'
p3512
aS'houses'
p3513
aaa(lp3514
S'GAIL'
p3515
a(lp3516
S'Thats'
p3517
aaa(lp3518
g3515
a(lp3519
S'They'
p3520
aS'all'
p3521
aS'do'
p3522
aaa(lp3523
S'PATTY'
p3524
a(lp3525
S'thats'
p3526
aS'the'
p3527
aS'latest'
p3528
aS'thing'
p3529
aaa(lp3530
S'GAIL'
p3531
a(lp3532
S'XXX'
p3533
aaa(lp3534
S'X'
p3535
a(lp3536
aa(lp3537
S'PATTY'
p3538
a(lp3539
S'You'
p3540
aS'know'
p3541
aaa(lp3542
S'GAIL'
p3543
a(lp3544
S'They'
p3545
aS'changed'
p3546
aS'our'
p3547
aS'bar'
p3548
aaa(lp3549
S'PATTY'
p3550
a(lp3551
S'But'
p3552
aS'what'
p3553
aS'Im'
p3554
aS'saying'
p3555
aS'is'
p3556
aaa(lp3557
S'GAIL'
p3558
a(lp3559
S'on'
p3560
aS'our'
p3561
aS'campus'
p3562
aaa(lp3563
g3558
a(lp3564
S'to'
p3565
ag338
aS'coffee'
p3566
aS'house'
p3567
aaa(lp3568
S'PATTY'
p3569
a(lp3570
S'Dont'
p3571
aS'eliminate'
p3572
ag338
aS'school'
p3573
aaa(lp3574
S'STEPHANIE'
p3575
a(lp3576
aa(lp3577
S'PATTY'
p3578
a(lp3579
S'by'
p3580
aS'where'
p3581
aS'it'
p3582
aS'is'
p3583
aaa(lp3584
S'GENEVIEVE'
p3585
a(lp3586
S'Are'
p3587
aS'you'
p3588
aS'sure'
p3589
aaa(lp3590
S'PATTY'
p3591
a(lp3592
g11
aS'and'
p3593
ag11
aS'what'
p3594
aS'somebody'
p3595
aS'has'
p3596
aS'told'
p3597
aS'you'
p3598
aaa(lp3599
S'GENEVIEVE'
p3600
a(lp3601
S'Are'
p3602
aS'you'
p3603
aS'sure'
p3604
aS'youre'
p3605
aS'old'
p3606
aS'enough'
p3607
aS'to'
p3608
aS'go'
p3609
aS'to'
p3610
aS'college'
p3611
aaa(lp3612
S'PATTY'
p3613
a(lp3614
aa(lp3615
g3613
a(lp3616
S'Well'
p3617
aS'Im'
p3618
aS'not'
p3619
aS'sure'
p3620
aS'about'
p3621
aS'that'
p3622
aaa(lp3623
S'STEPHANIE'
p3624
a(lp3625
S'So'
p3626
aS'far'
p3627
aS'as'
p3628
ag87
aS'know'
p3629
aaa(lp3630
g3624
a(lp3631
S'yeah'
p3632
aaa(lp3633
g3624
a(lp3634
g87
ag87
ag87
aS'graduate'
p3635
aS'this'
p3636
aS'year'
p3637
aS'uh'
p3638
aaa(lp3639
g3624
a(lp3640
S'yeah'
p3641
aaa(lp3642
S'GAIL'
p3643
a(lp3644
S'Well'
p3645
aS'you'
p3646
aS'know'
p3647
ag87
aS'had'
p3648
aS'some'
p3649
aS'really'
p3650
aS'really'
p3651
aS'big'
p3652
aS'problems'
p3653
aaa(lp3654
S'STEPHANIE'
p3655
a(lp3656
aa(lp3657
S'GAIL'
p3658
a(lp3659
S'when'
p3660
ag87
aS'first'
p3661
aS'went'
p3662
aS'to'
p3663
aS'OU'
p3664
aaa(lp3665
g3658
a(lp3666
S'for'
p3667
aS'the'
p3668
aS'first'
p3669
aS'quarter'
p3670
aaa(lp3671
S'MAUREEN'
p3672
a(lp3673
aa(lp3674
S'GAIL'
p3675
a(lp3676
S'but'
p3677
aS'it'
p3678
aS'wasnt'
p3679
aaa(lp3680
S'X'
p3681
a(lp3682
aa(lp3683
S'GAIL'
p3684
a(lp3685
S'It'
p3686
aS'ended'
p3687
aS'up'
p3688
aaa(lp3689
S'MAUREEN'
p3690
a(lp3691
g87
aS'wondered'
p3692
aS'if'
p3693
aS'you'
p3694
aS'were'
p3695
aS'gonna'
p3696
aS'tell'
p3697
aS'XXXX'
p3698
aaa(lp3699
S'GAIL'
p3700
a(lp3701
S'Well'
p3702
aaa(lp3703
g3700
a(lp3704
S'well'
p3705
aS'the'
p3706
aS'thing'
p3707
aS'is'
p3708
aS'that'
p3709
aaa(lp3710
S'PATTY'
p3711
a(lp3712
S'Well'
p3713
aS'thats'
p3714
aS'good'
p3715
aS'to'
p3716
aS'share'
p3717
aaa(lp3718
S'GAIL'
p3719
a(lp3720
S'it'
p3721
aS'ended'
p3722
aS'up'
p3723
aS'not'
p3724
aS'being'
p3725
aaa(lp3726
g3719
a(lp3727
g87
aS'mean'
p3728
aS'it'
p3729
aS'doesnt'
p3730
aS'really'
p3731
aS'matter'
p3732
aaa(lp3733
g3719
a(lp3734
S'the'
p3735
aS'atmosphere'
p3736
aaa(lp3737
g3719
a(lp3738
S'eventually'
p3739
aS'it'
p3740
aS'doesnt'
p3741
aS'matter'
p3742
aS'the'
p3743
aS'atmosphere'
p3744
aaa(lp3745
g3719
a(lp3746
S'because'
p3747
aS'eventually'
p3748
aaa(lp3749
g3719
a(lp3750
S'its'
p3751
aS'the'
p3752
aS'people'
p3753
aS'that'
p3754
aS'you'
p3755
aS'meet'
p3756
aaa(lp3757
S'MAUREEN'
p3758
a(lp3759
S'When'
p3760
aS'youre'
p3761
aS'ready'
p3762
ag87
aS'need'
p3763
aaa(lp3764
S'GAIL'
p3765
a(lp3766
S'the'
p3767
aS'professors'
p3768
aS'that'
p3769
aS'you'
p3770
aS'meet'
p3771
aaa(lp3772
S'MAUREEN'
p3773
a(lp3774
S'my'
p3775
aS'soninlaw'
p3776
aS'to'
p3777
aS'reach'
p3778
aS'that'
p3779
aS'platter'
p3780
aaa(lp3781
S'GAIL'
p3782
a(lp3783
S'your'
p3784
aS'classes'
p3785
aS'itself'
p3786
aaa(lp3787
S'DALE'
p3788
a(lp3789
g11
aS'Okay'
p3790
ag11
aaa(lp3791
S'GAIL'
p3792
a(lp3793
S'that'
p3794
aS'really'
p3795
aS'become'
p3796
aS'important'
p3797
aaa(lp3798
g3792
a(lp3799
S'You'
p3800
aS'know'
p3801
aaa(lp3802
S'STEPHANIE'
p3803
a(lp3804
S'Mhm'
p3805
aaa(lp3806
S'PATTY'
p3807
a(lp3808
S'Right'
p3809
aaa(lp3810
g3807
a(lp3811
S'And'
p3812
aS'that'
p3813
aS'should'
p3814
aS'be'
p3815
aS'your'
p3816
aS'first'
p3817
aS'priority'
p3818
aaa(lp3819
S'GAIL'
p3820
a(lp3821
S'Yeah'
p3822
aaa(lp3823
g3820
a(lp3824
S'Yeah'
p3825
aaa(lp3826
g3820
a(lp3827
S'and'
p3828
aS'thatll'
p3829
aaa(lp3830
g3820
a(lp3831
g87
aS'mean'
p3832
aaa(lp3833
S'PATTY'
p3834
a(lp3835
S'What'
p3836
aS'you'
p3837
aS'do'
p3838
aS'extracurricular'
p3839
aaa(lp3840
S'DALE'
p3841
a(lp3842
S'Wheres'
p3843
aS'the'
p3844
aS'be'
p3845
aaa(lp3846
g3841
a(lp3847
S'Wheres'
p3848
aS'that'
p3849
aS'bread'
p3850
aS'that'
p3851
aS'you'
p3852
aS'want'
p3853
aaa(lp3854
S'PATTY'
p3855
a(lp3856
S'cant'
p3857
aS'be'
p3858
aS'important'
p3859
aaa(lp3860
S'STEPHANIE'
p3861
a(lp3862
S'But'
p3863
aaa(lp3864
S'PATTY'
p3865
a(lp3866
S'Because'
p3867
aS'thats'
p3868
aS'not'
p3869
aS'what'
p3870
aS'youre'
p3871
aS'there'
p3872
aS'for'
p3873
aaa(lp3874
S'STEPHANIE'
p3875
a(lp3876
S'but'
p3877
aS'if'
p3878
aS'youre'
p3879
aS'not'
p3880
aaa(lp3881
g3875
a(lp3882
S'But'
p3883
aaa(lp3884
g3875
a(lp3885
S'Mom'
p3886
aaa(lp3887
S'X'
p3888
a(lp3889
S'Mm'
p3890
aaa(lp3891
S'STEPHANIE'
p3892
a(lp3893
S'if'
p3894
aS'youre'
p3895
aS'not'
p3896
aS'happy'
p3897
aS'in'
p3898
aS'your'
p3899
aS'setting'
p3900
aaa(lp3901
S'MAUREEN'
p3902
a(lp3903
S'Ill'
p3904
aS'have'
p3905
aS'Jerry'
p3906
aS'get'
p3907
aS'them'
p3908
aS'down'
p3909
aaa(lp3910
S'STEPHANIE'
p3911
a(lp3912
S'youre'
p3913
aS'not'
p3914
aS'gonna'
p3915
aS'be'
p3916
aS'happy'
p3917
aS'with'
p3918
aS'where'
p3919
aS'you'
p3920
aS'are'
p3921
aaa(lp3922
S'PATTY'
p3923
a(lp3924
S'Ill'
p3925
aS'tell'
p3926
aS'you'
p3927
aS'what'
p3928
aS'kid'
p3929
aaa(lp3930
g3923
a(lp3931
S'if'
p3932
aS'youre'
p3933
aS'going'
p3934
aS'to'
p3935
aS'college'
p3936
aS'to'
p3937
aS'have'
p3938
ag338
aS'good'
p3939
aS'time'
p3940
aaa(lp3941
S'X'
p3942
a(lp3943
aa(lp3944
S'PATTY'
p3945
a(lp3946
S'one'
p3947
aS'year'
p3948
aS'is'
p3949
aS'all'
p3950
aS'Im'
p3951
aS'paying'
p3952
aS'for'
p3953
aaa(lp3954
S'STEPHANIE'
p3955
a(lp3956
S'Im'
p3957
aS'not'
p3958
aS'going'
p3959
aS'to'
p3960
aS'college'
p3961
aS'to'
p3962
aS'have'
p3963
ag338
aS'good'
p3964
aS'time'
p3965
aaa(lp3966
S'PATTY'
p3967
a(lp3968
S'the'
p3969
aS'rest'
p3970
aS'is'
p3971
aS'on'
p3972
aS'your'
p3973
aS'own'
p3974
aaa(lp3975
S'MAUREEN'
p3976
a(lp3977
S'Dale'
p3978
aaa(lp3979
S'PATTY'
p3980
a(lp3981
g87
aS'already'
p3982
aS'told'
p3983
aS'you'
p3984
aS'that'
p3985
aaa(lp3986
S'MAUREEN'
p3987
a(lp3988
S'Dale'
p3989
aaa(lp3990
S'STEPHANIE'
p3991
a(lp3992
S'But'
p3993
aS'its'
p3994
aS'like'
p3995
aaa(lp3996
g3991
a(lp3997
S'its'
p3998
ag338
aS'proven'
p3999
aS'fact'
p4000
aS'that'
p4001
aaa(lp4002
S'DALE'
p4003
a(lp4004
S'No'
p4005
aS'thats'
p4006
aS'alright'
p4007
aaa(lp4008
S'MAUREEN'
p4009
a(lp4010
S'No'
p4011
aaa(lp4012
g4009
a(lp4013
S'here'
p4014
aaa(lp4015
S'DALE'
p4016
a(lp4017
g87
aS'know'
p4018
aaa(lp4019
S'STEPHANIE'
p4020
a(lp4021
S'people'
p4022
aS'work'
p4023
aS'better'
p4024
aS'in'
p4025
ag338
aS'comfortable'
p4026
aS'situation'
p4027
aaa(lp4028
S'PATTY'
p4029
a(lp4030
S'Exactly'
p4031
aS'but'
p4032
aaa(lp4033
S'STEPHANIE'
p4034
a(lp4035
S'than'
p4036
aS'in'
p4037
aS'an'
p4038
aS'uncomfortable'
p4039
aS'situation'
p4040
aaa(lp4041
S'PATTY'
p4042
a(lp4043
S'extra'
p4044
aaa(lp4045
g4042
a(lp4046
S'But'
p4047
aS'you'
p4048
aS'dont'
p4049
aS'have'
p4050
aS'to'
p4051
aS'be'
p4052
aS'near'
p4053
ag338
aS'big'
p4054
aS'city'
p4055
aaa(lp4056
g4042
a(lp4057
S'Aunt'
p4058
aS'Maureen'
p4059
aS'wasnt'
p4060
aS'beer'
p4061
aS'near'
p4062
ag338
aS'big'
p4063
aS'city'
p4064
aaa(lp4065
S'STEPHANIE'
p4066
a(lp4067
S'Mom'
p4068
aaa(lp4069
g4066
a(lp4070
S'its'
p4071
ag338
aS'little'
p4072
aS'different'
p4073
aaa(lp4074
g4066
a(lp4075
S'Im'
p4076
ag338
aS'different'
p4077
aS'person'
p4078
aaa(lp4079
S'PATTY'
p4080
a(lp4081
S'True'
p4082
aaa(lp4083
S'STEPHANIE'
p4084
a(lp4085
g87
aS'like'
p4086
aS'city'
p4087
aS'life'
p4088
aaa(lp4089
S'PATTY'
p4090
a(lp4091
S'exactly'
p4092
aaa(lp4093
S'STEPHANIE'
p4094
a(lp4095
g87
aS'have'
p4096
aS'MRC'
p4097
aS'always'
p4098
aS'liked'
p4099
aS'city'
p4100
aS'life'
p4101
aS'MRC'
p4102
aaa(lp4103
S'PATTY'
p4104
a(lp4105
S'Then'
p4106
aS'stay'
p4107
aS'here'
p4108
aS'and'
p4109
aS'go'
p4110
aS'to'
p4111
aS'Pitt'
p4112
aaa(lp4113
g4104
a(lp4114
S'itll'
p4115
aS'be'
p4116
aS'very'
p4117
aS'cheap'
p4118
aaa(lp4119
S'STEPHANIE'
p4120
a(lp4121
S'No'
p4122
aaa(lp4123
S'GAIL'
p4124
a(lp4125
aa(lp4126
S'MAUREEN'
p4127
a(lp4128
aa(lp4129
S'STEPHANIE'
p4130
a(lp4131
g87
aS'like'
p4132
aS'city'
p4133
aS'life'
p4134
aS'MRC'
p4135
aS'away'
p4136
aS'from'
p4137
aS'parents'
p4138
aS'MRC'
p4139
aaa(lp4140
S'PATTY'
p4141
a(lp4142
g87
aS'like'
p4143
aaa(lp4144
g4141
a(lp4145
g87
aS'like'
p4146
aS'that'
p4147
aaa(lp4148
g4141
a(lp4149
g11
aS'Could'
p4150
aS'you'
p4151
aS'imagine'
p4152
ag11
aS'Gail'
p4153
aaa(lp4154
g4141
a(lp4155
S'itll'
p4156
aS'be'
p4157
aS'very'
p4158
aS'cheap'
p4159
aaa(lp4160
S'GAIL'
p4161
a(lp4162
S'Why'
p4163
aS'dont'
p4164
aaa(lp4165
g4161
a(lp4166
S'Why'
p4167
aS'dont'
p4168
aS'you'
p4169
aS'look'
p4170
aS'at'
p4171
aaa(lp4172
S'GENEVIEVE'
p4173
a(lp4174
S'Honey'
p4175
aS'youll'
p4176
aS'be'
p4177
aS'away'
p4178
aS'from'
p4179
aS'parents'
p4180
aS'anyway'
p4181
aaa(lp4182
S'STEPHANIE'
p4183
a(lp4184
S'No'
p4185
aaa(lp4186
g4183
a(lp4187
S'in'
p4188
aS'my'
p4189
aS'opinion'
p4190
aaa(lp4191
S'GAIL'
p4192
a(lp4193
S'Lets'
p4194
aS'look'
p4195
aS'at'
p4196
aaa(lp4197
g4192
a(lp4198
S'Lets'
p4199
aS'look'
p4200
aS'at'
p4201
aS'cities'
p4202
aaa(lp4203
g4192
a(lp4204
S'What'
p4205
aS'kinda'
p4206
aS'cities'
p4207
aS'do'
p4208
aS'you'
p4209
aS'like'
p4210
aaa(lp4211
g4192
a(lp4212
S'Do'
p4213
aS'you'
p4214
aS'like'
p4215
aS'big'
p4216
aS'cities'
p4217
aaa(lp4218
g4192
a(lp4219
S'like'
p4220
ag338
aS'Chicago'
p4221
aaa(lp4222
g4192
a(lp4223
S'Or'
p4224
aS'do'
p4225
aS'you'
p4226
aS'like'
p4227
ag338
aS'Pittsburgh'
p4228
aaa(lp4229
S'X'
p4230
a(lp4231
S'XXX'
p4232
aaa(lp4233
S'PATTY'
p4234
a(lp4235
S'Shes'
p4236
aS'never'
p4237
aS'been'
p4238
aS'in'
p4239
ag338
aS'big'
p4240
aS'city'
p4241
aS'like'
p4242
aS'Chicago'
p4243
aaa(lp4244
g4234
a(lp4245
S'She'
p4246
aS'couldnt'
p4247
aS'identify'
p4248
aS'with'
p4249
aS'that'
p4250
aaa(lp4251
S'ERIKA'
p4252
a(lp4253
S'You'
p4254
aS'were'
p4255
aS'in'
p4256
aS'Chicago'
p4257
aS'Steph'
p4258
aaa(lp4259
g4252
a(lp4260
S'when'
p4261
aS'we'
p4262
aS'went'
p4263
aS'to'
p4264
aS'Easter'
p4265
aaa(lp4266
S'STEPHANIE'
p4267
a(lp4268
S'MRC'
p4269
aS'Ive'
p4270
aS'been'
p4271
aS'in'
p4272
aS'Chicago'
p4273
aS'MRC'
p4274
aaa(lp4275
S'PATTY'
p4276
a(lp4277
S'When'
p4278
aaa(lp4279
S'GAIL'
p4280
a(lp4281
S'Pittsburgh'
p4282
aaa(lp4283
g4280
a(lp4284
S'or'
p4285
aS'Chicago'
p4286
aaa(lp4287
S'STEPHANIE'
p4288
a(lp4289
S'Easter'
p4290
aS'break'
p4291
aaa(lp4292
g4288
a(lp4293
S'Two'
p4294
aS'years'
p4295
aS'ago'
p4296
aaa(lp4297
S'GAIL'
p4298
a(lp4299
S'Chicago'
p4300
aS'and'
p4301
aS'Pittsburgh'
p4302
aS'are'
p4303
aS'very'
p4304
aS'different'
p4305
aaa(lp4306
S'PATTY'
p4307
a(lp4308
S'Thats'
p4309
aS'right'
p4310
aaa(lp4311
g4307
a(lp4312
S'but'
p4313
aS'what'
p4314
aS'did'
p4315
aS'you'
p4316
aS'do'
p4317
aS'in'
p4318
aS'the'
p4319
aS'city'
p4320
aaa(lp4321
S'GAIL'
p4322
a(lp4323
S'Im'
p4324
aS'gonna'
p4325
ag11
aS'give'
p4326
ag11
aS'you'
p4327
aaa(lp4328
S'PATTY'
p4329
a(lp4330
S'Did'
p4331
aS'you'
p4332
aS'go'
p4333
aS'downtown'
p4334
aaa(lp4335
S'ERIKA'
p4336
a(lp4337
S'Shopped'
p4338
aaa(lp4339
g4336
a(lp4340
S'we'
p4341
aS'went'
p4342
aS'to'
p4343
aS'the'
p4344
aS'biggest'
p4345
aS'mall'
p4346
aaa(lp4347
S'STEPHANIE'
p4348
a(lp4349
S'Yeah'
p4350
aS'we'
p4351
aS'went'
p4352
aS'shopping'
p4353
aaa(lp4354
S'PATTY'
p4355
a(lp4356
S'Thats'
p4357
aS'all'
p4358
aS'you'
p4359
aS'did'
p4360
aaa(lp4361
g4355
a(lp4362
S'You'
p4363
aS'cant'
p4364
aS'shop'
p4365
aS'when'
p4366
aS'youre'
p4367
aS'in'
p4368
aS'college'
p4369
aaa(lp4370
g4355
a(lp4371
S'youll'
p4372
aS'have'
p4373
aS'no'
p4374
aS'money'
p4375
aS'for'
p4376
aS'that'
p4377
aaa(lp4378
g4355
a(lp4379
S'Ask'
p4380
aS'Gail'
p4381
aaa(lp4382
g4355
a(lp4383
S'You'
p4384
aS'will'
p4385
aS'not'
p4386
aS'have'
p4387
aS'money'
p4388
aS'for'
p4389
aS'that'
p4390
aaa(lp4391
S'STEPHANIE'
p4392
a(lp4393
S'Mom'
p4394
aaa(lp4395
g4392
a(lp4396
g87
aS'drove'
p4397
aS'around'
p4398
aS'LA'
p4399
aaa(lp4400
g4392
a(lp4401
S'That'
p4402
aS'tells'
p4403
aS'me'
p4404
aS'what'
p4405
ag338
aS'big'
p4406
aS'citys'
p4407
aS'like'
p4408
aaa(lp4409
S'PATTY'
p4410
a(lp4411
S'And'
p4412
aS'thats'
p4413
aS'pretty'
p4414
aS'scary'
p4415
aS'actually'
p4416
aaa(lp4417
S'STEPHANIE'
p4418
a(lp4419
aa(lp4420
g4418
a(lp4421
S'No'
p4422
aaa(lp4423
g4418
a(lp4424
S'Friday'
p4425
aS'night'
p4426
aaa(lp4427
g4418
a(lp4428
S'at'
p4429
aS'nine'
p4430
aS'oclock'
p4431
aaa(lp4432
g4418
a(lp4433
S'on'
p4434
aS'Hollywood'
p4435
aS'Boulevard'
p4436
aS'MRC'
p4437
aS'is'
p4438
aS'not'
p4439
ag338
aS'place'
p4440
aS'to'
p4441
aS'be'
p4442
aS'MRC'
p4443
aaa(lp4444
g4418
a(lp4445
S'Okay'
p4446
aaa(lp4447
S'PATTY'
p4448
a(lp4449
S'They'
p4450
aS'couldnt'
p4451
aS'find'
p4452
aS'the'
p4453
aS'uh'
p4454
aaa(lp4455
S'STEPHANIE'
p4456
a(lp4457
S'No'
p4458
aS'it'
p4459
aS'wasnt'
p4460
aS'that'
p4461
aaa(lp4462
g4456
a(lp4463
S'We'
p4464
aS'knew'
p4465
aS'where'
p4466
aS'it'
p4467
aS'was'
p4468
aaa(lp4469
g4456
a(lp4470
S'we'
p4471
aS'just'
p4472
aS'didnt'
p4473
aS'know'
p4474
aS'which'
p4475
aS'exit'
p4476
aS'to'
p4477
aS'take'
p4478
aaa(lp4479
S'PATTY'
p4480
a(lp4481
S'But'
p4482
aaa(lp4483
g4480
a(lp4484
S'didnt'
p4485
aS'get'
p4486
aS'there'
p4487
aaa(lp4488
S'ERIKA'
p4489
a(lp4490
S'What'
p4491
aS'were'
p4492
aS'you'
p4493
aS'looking'
p4494
aS'for'
p4495
aaa(lp4496
S'STEPHANIE'
p4497
a(lp4498
S'Universal'
p4499
aS'Studios'
p4500
aaa(lp4501
S'PATTY'
p4502
a(lp4503
S'They'
p4504
aS'got'
p4505
aS'there'
p4506
aS'at'
p4507
aS'nine'
p4508
aS'thirty'
p4509
aaa(lp4510
S'STEPHANIE'
p4511
a(lp4512
S'So'
p4513
aS'we'
p4514
aS'miss'
p4515
aS'it'
p4516
aaa(lp4517
S'PATTY'
p4518
a(lp4519
S'They'
p4520
aS'had'
p4521
aS'tickets'
p4522
aS'and'
p4523
aS'got'
p4524
aS'lost'
p4525
aaa(lp4526
S'STEPHANIE'
p4527
a(lp4528
S'No'
p4529
aaa(lp4530
g4527
a(lp4531
S'it'
p4532
ag11
aS'get'
p4533
ag11
aaa(lp4534
g4527
a(lp4535
S'It'
p4536
aS'g'
p4537
aS'its'
p4538
aS'its'
p4539
ag338
aS'funny'
p4540
aS'story'
p4541
aaa(lp4542
S'PATTY'
p4543
a(lp4544
S'she'
p4545
aS'and'
p4546
aS'Samantha'
p4547
aS'Taylor'
p4548
aaa(lp4549
S'STEPHANIE'
p4550
a(lp4551
S'You'
p4552
aS'have'
p4553
aS'to'
p4554
aS'hear'
p4555
aS'this'
p4556
aaa(lp4557
S'PATTY'
p4558
a(lp4559
aa(lp4560
S'GAIL'
p4561
a(lp4562
S'Oh'
p4563
aS'really'
p4564
aaa(lp4565
S'PATTY'
p4566
a(lp4567
S'Yes'
p4568
aaa(lp4569
S'GAIL'
p4570
a(lp4571
aa(lp4572
S'STEPHANIE'
p4573
a(lp4574
S'Samantha'
p4575
aS'and'
p4576
ag87
aS'go'
p4577
aS'out'
p4578
aaa(lp4579
S'GENEVIEVE'
p4580
a(lp4581
S'She'
p4582
aS'what'
p4583
aaa(lp4584
S'PATTY'
p4585
a(lp4586
S'She'
p4587
aS'and'
p4588
aS'Samantha'
p4589
aS'Taylor'
p4590
aS'get'
p4591
aS'lost'
p4592
aaa(lp4593
g4585
a(lp4594
S'Samantha'
p4595
aS'knows'
p4596
aS'where'
p4597
aS'theyre'
p4598
aS'going'
p4599
aS'but'
p4600
aS'cant'
p4601
aS'get'
p4602
aS'there'
p4603
aaa(lp4604
S'STEPHANIE'
p4605
a(lp4606
S'Well'
p4607
aS'HI'
p4608
aS'let'
p4609
aS'me'
p4610
aS'tell'
p4611
aS'the'
p4612
aS'story'
p4613
aS'HI'
p4614
aaa(lp4615
S'GAIL'
p4616
a(lp4617
aa(lp4618
S'PATTY'
p4619
a(lp4620
S'Go'
p4621
aS'ahead'
p4622
aaa(lp4623
g4619
a(lp4624
S'tell'
p4625
aaa(lp4626
S'STEPHANIE'
p4627
a(lp4628
S'You'
p4629
aS'dont'
p4630
aS'know'
p4631
aaa(lp4632
g4627
a(lp4633
S'because'
p4634
aS'you'
p4635
aS'werent'
p4636
aS'there'
p4637
aaa(lp4638
S'PATTY'
p4639
a(lp4640
g87
aS'wasnt'
p4641
aaa(lp4642
S'STEPHANIE'
p4643
a(lp4644
g87
aS'was'
p4645
aS'in'
p4646
aS'the'
p4647
aS'car'
p4648
aaa(lp4649
S'PATTY'
p4650
a(lp4651
S'Thats'
p4652
aS'right'
p4653
aaa(lp4654
g4650
a(lp4655
g87
aS'heard'
p4656
aS'it'
p4657
aS'later'
p4658
aaa(lp4659
S'STEPHANIE'
p4660
a(lp4661
S'So'
p4662
aS'were'
p4663
aS'driving'
p4664
aS'and'
p4665
aaa(lp4666
g4660
a(lp4667
S'we'
p4668
aS'went'
p4669
aS'and'
p4670
aaa(lp4671
S'GENEVIEVE'
p4672
a(lp4673
S'How'
p4674
aS'do'
p4675
aS'you'
p4676
aS'put'
p4677
aS'up'
p4678
aS'with'
p4679
aS'that'
p4680
aaa(lp4681
S'STEPHANIE'
p4682
a(lp4683
S'We'
p4684
aS'missed'
p4685
aS'the'
p4686
aS'exit'
p4687
aaa(lp4688
S'GENEVIEVE'
p4689
a(lp4690
aa(lp4691
S'STEPHANIE'
p4692
a(lp4693
S'She'
p4694
aS'said'
p4695
aaa(lp4696
g4692
a(lp4697
S'oh'
p4698
aaa(lp4699
S'PATTY'
p4700
a(lp4701
S'Its'
p4702
aS'hard'
p4703
aaa(lp4704
S'STEPHANIE'
p4705
a(lp4706
S'well'
p4707
aS'well'
p4708
aS'just'
p4709
aS'get'
p4710
aS'off'
p4711
aS'at'
p4712
aS'the'
p4713
aS'next'
p4714
aS'exit'
p4715
aaa(lp4716
S'PATTY'
p4717
a(lp4718
S'Takes'
p4719
ag338
aS'lot'
p4720
aS'of'
p4721
aS'patience'
p4722
aaa(lp4723
S'GENEVIEVE'
p4724
a(lp4725
S'Yes'
p4726
aS'it'
p4727
aS'does'
p4728
aaa(lp4729
S'STEPHANIE'
p4730
a(lp4731
S'And'
p4732
aaa(lp4733
g4730
a(lp4734
S'turn'
p4735
aS'around'
p4736
aaa(lp4737
S'PATTY'
p4738
a(lp4739
g11
aS'Could'
p4740
ag11
aS'be'
p4741
aS'the'
p4742
aS'hardest'
p4743
aS'thing'
p4744
aS'Ive'
p4745
aS'done'
p4746
aS'in'
p4747
aS'my'
p4748
aS'life'
p4749
aaa(lp4750
S'STEPHANIE'
p4751
a(lp4752
S'So'
p4753
aS'we'
p4754
aS'got'
p4755
aS'off'
p4756
aS'at'
p4757
aS'the'
p4758
aS'exit'
p4759
aaa(lp4760
g4751
a(lp4761
S'and'
p4762
aaa(lp4763
g4751
a(lp4764
S'it'
p4765
aS'was'
p4766
aS'the'
p4767
aS'Hollywood'
p4768
aS'Bowl'
p4769
aS'exit'
p4770
aaa(lp4771
g4751
a(lp4772
S'She'
p4773
aS'goes'
p4774
aS'well'
p4775
aaa(lp4776
g4751
a(lp4777
S'no'
p4778
aS'big'
p4779
aS'deal'
p4780
aaa(lp4781
g4751
a(lp4782
S'Except'
p4783
aaa(lp4784
g4751
a(lp4785
S'there'
p4786
aS'was'
p4787
ag338
aS'Hollywood'
p4788
aS'Bowl'
p4789
aS'going'
p4790
aS'on'
p4791
aS'that'
p4792
aS'night'
p4793
aaa(lp4794
S'GAIL'
p4795
a(lp4796
S'Oh'
p4797
aS'no'
p4798
aaa(lp4799
S'STEPHANIE'
p4800
a(lp4801
S'So'
p4802
aS'here'
p4803
aS'we'
p4804
aS'are'
p4805
aaa(lp4806
g4800
a(lp4807
S'stuck'
p4808
aS'in'
p4809
aS'this'
p4810
aS'huge'
p4811
aS'line'
p4812
aS'of'
p4813
aS'traffic'
p4814
aaa(lp4815
g4800
a(lp4816
S'And'
p4817
aS'we'
p4818
aS'wanted'
p4819
aS'to'
p4820
aS'turn'
p4821
aS'around'
p4822
aaa(lp4823
g4800
a(lp4824
S'but'
p4825
aS'you'
p4826
aS'couldnt'
p4827
aS'make'
p4828
ag338
aS'left'
p4829
aS'turn'
p4830
aS'because'
p4831
aaa(lp4832
g4800
a(lp4833
S'they'
p4834
aS'had'
p4835
aS'parking'
p4836
aS'going'
p4837
aS'on'
p4838
aaa(lp4839
g4800
a(lp4840
S'So'
p4841
aS'you'
p4842
aS'had'
p4843
aS'to'
p4844
aS'go'
p4845
aS'all'
p4846
aS'the'
p4847
aS'way'
p4848
aS'down'
p4849
aaa(lp4850
g4800
a(lp4851
S'so'
p4852
aS'we'
p4853
aS'go'
p4854
aS'all'
p4855
aS'the'
p4856
aS'way'
p4857
aS'down'
p4858
aS'and'
p4859
aS'we'
p4860
aS'hit'
p4861
aS'Highland'
p4862
aaa(lp4863
g4800
a(lp4864
S'So'
p4865
aS'we'
p4866
aS'take'
p4867
aS'Highland'
p4868
aS'and'
p4869
aaa(lp4870
g4800
a(lp4871
S'VOX'
p4872
aS'we'
p4873
aS'end'
p4874
aS'up'
p4875
aS'on'
p4876
aS'Hollywood'
p4877
aS'Boulevard'
p4878
aS'VOX'
p4879
aaa(lp4880
g4800
a(lp4881
S'It'
p4882
aS'is'
p4883
aS'nine'
p4884
aS'thirty'
p4885
aS'at'
p4886
aS'night'
p4887
aaa(lp4888
g4800
a(lp4889
S'were'
p4890
aS'on'
p4891
aS'Hollywood'
p4892
aS'Boulevard'
p4893
aaa(lp4894
g4800
a(lp4895
S'and'
p4896
aS'its'
p4897
aS'Friday'
p4898
aaa(lp4899
g4800
a(lp4900
S'HI'
p4901
aS'Not'
p4902
ag338
aS'place'
p4903
aS'HI'
p4904
aS'you'
p4905
aS'wanna'
p4906
aS'be'
p4907
aaa(lp4908
g4800
a(lp4909
S'Now'
p4910
aS'were'
p4911
aS'trying'
p4912
aS'to'
p4913
aS'find'
p4914
ag338
aS'place'
p4915
aS'to'
p4916
aS'turn'
p4917
aS'around'
p4918
aaa(lp4919
S'GAIL'
p4920
a(lp4921
S'Reminds'
p4922
aS'me'
p4923
aS'of'
p4924
aS'the'
p4925
aS'scene'
p4926
aS'in'
p4927
aS'Valley'
p4928
aS'Girl'
p4929
aaa(lp4930
S'STEPHANIE'
p4931
a(lp4932
S'We'
p4933
aS'drive'
p4934
aS'by'
p4935
aS'the'
p4936
aS'Chinese'
p4937
aS'theater'
p4938
aaa(lp4939
S'ERIKA'
p4940
a(lp4941
S'Yeah'
p4942
aaa(lp4943
g4940
a(lp4944
S'that'
p4945
aS'one'
p4946
aS'XXX'
p4947
aaa(lp4948
S'STEPHANIE'
p4949
a(lp4950
S'Yeah'
p4951
aaa(lp4952
S'GAIL'
p4953
a(lp4954
S'Yeah'
p4955
aaa(lp4956
g4953
a(lp4957
S'you'
p4958
aS'know'
p4959
aaa(lp4960
S'PATTY'
p4961
a(lp4962
S'Why'
p4963
aS'didnt'
p4964
aS'you'
p4965
aS'just'
p4966
aS'go'
p4967
aS'to'
p4968
aS'the'
p4969
aS'Chinese'
p4970
aS'theater'
p4971
aaa(lp4972
g4961
a(lp4973
S'but'
p4974
aS'you'
p4975
aS'had'
p4976
aS'tickets'
p4977
aaa(lp4978
S'STEPHANIE'
p4979
a(lp4980
S'Yeah'
p4981
aaa(lp4982
S'X'
p4983
a(lp4984
aa(lp4985
S'PATTY'
p4986
a(lp4987
S'Right'
p4988
aaa(lp4989
S'STEPHANIE'
p4990
a(lp4991
S'we'
p4992
aS'had'
p4993
aaa(lp4994
g4990
a(lp4995
S'we'
p4996
aS'had'
p4997
aS'free'
p4998
aS'tickets'
p4999
aaa(lp5000
g4990
a(lp5001
S'That'
p5002
aS'her'
p5003
aS'mom'
p5004
aS'won'
p5005
aS'on'
p5006
aS'the'
p5007
aS'radio'
p5008
aaa(lp5009
g4990
a(lp5010
S'Or'
p5011
aS'on'
p5012
ag338
aS'raffle'
p5013
aS'or'
p5014
aS'something'
p5015
aaa(lp5016
S'PATTY'
p5017
a(lp5018
S'Oh'
p5019
aS'thats'
p5020
aS'neat'
p5021
aaa(lp5022
S'X'
p5023
a(lp5024
S'Oh'
p5025
aaa(lp5026
S'STEPHANIE'
p5027
a(lp5028
S'So'
p5029
aaa(lp5030
S'PATTY'
p5031
a(lp5032
aa(lp5033
S'STEPHANIE'
p5034
a(lp5035
S'were'
p5036
aS'going'
p5037
aS'down'
p5038
aaa(lp5039
S'PATTY'
p5040
a(lp5041
S'They'
p5042
aS'cant'
p5043
aS'get'
p5044
aS'there'
p5045
aaa(lp5046
S'STEPHANIE'
p5047
a(lp5048
S'Well'
p5049
aS'it'
p5050
aS'gets'
p5051
aaa(lp5052
S'PATTY'
p5053
a(lp5054
S'Its'
p5055
aS'not'
p5056
aS'funny'
p5057
aaa(lp5058
S'STEPHANIE'
p5059
a(lp5060
g87
aS'know'
p5061
aaa(lp5062
g5059
a(lp5063
S'this'
p5064
aS'is'
p5065
aS'just'
p5066
aS'the'
p5067
aS'beginning'
p5068
aaa(lp5069
S'X'
p5070
a(lp5071
aa(lp5072
S'STEPHANIE'
p5073
a(lp5074
S'So'
p5075
aS'were'
p5076
aS'on'
p5077
aS'mo'
p5078
aaa(lp5079
g5073
a(lp5080
S'Were'
p5081
aS'on'
p5082
aS'Hollywood'
p5083
aS'Boulevard'
p5084
aaa(lp5085
g5073
a(lp5086
S'were'
p5087
aS'looking'
p5088
aS'at'
p5089
aS'VOX'
p5090
aS'all'
p5091
aS'kinds'
p5092
aS'of'
p5093
aS'interesting'
p5094
aS'things'
p5095
aS'VOX'
p5096
aaa(lp5097
g5073
a(lp5098
S'And'
p5099
aS'were'
p5100
aS'like'
p5101
aS'okay'
p5102
aaa(lp5103
g5073
a(lp5104
S'we'
p5105
aS'gotta'
p5106
aS'turn'
p5107
aS'around'
p5108
aaa(lp5109
g5073
a(lp5110
S'So'
p5111
aS'we'
p5112
aS'find'
p5113
aS'this'
p5114
aaa(lp5115
S'X'
p5116
a(lp5117
aa(lp5118
S'STEPHANIE'
p5119
a(lp5120
S'We'
p5121
aS'had'
p5122
aS'no'
p5123
aS'streets'
p5124
aaa(lp5125
g5119
a(lp5126
S'That'
p5127
aS'we'
p5128
aS'could'
p5129
aS'turn'
p5130
aS'down'
p5131
aaa(lp5132
g5119
a(lp5133
S'except'
p5134
aS'for'
p5135
aS'this'
p5136
aS'one'
p5137
aS'alleyway'
p5138
aaa(lp5139
g5119
a(lp5140
S'So'
p5141
aS'we'
p5142
aS'turn'
p5143
aS'down'
p5144
aaa(lp5145
g5119
a(lp5146
S'in'
p5147
aS'this'
p5148
aS'dark'
p5149
aS'alleyway'
p5150
aaa(lp5151
g5119
a(lp5152
S'and'
p5153
aS'were'
p5154
aS'turning'
p5155
aS'the'
p5156
aS'car'
p5157
aS'around'
p5158
aaa(lp5159
S'PATTY'
p5160
a(lp5161
S'Oh'
p5162
aS'my'
p5163
aS'god'
p5164
aaa(lp5165
g5160
a(lp5166
S'good'
p5167
aS'thing'
p5168
ag87
aS'didnt'
p5169
aS'know'
p5170
aS'this'
p5171
aaa(lp5172
S'STEPHANIE'
p5173
a(lp5174
S'and'
p5175
aS'we'
p5176
aS'see'
p5177
aS'all'
p5178
aS'these'
p5179
aS'people'
p5180
aS'in'
p5181
aS'the'
p5182
aS'alleyway'
p5183
aaa(lp5184
g5173
a(lp5185
S'were'
p5186
aS'like'
p5187
aaa(lp5188
g5173
a(lp5189
S'VOX'
p5190
aS'get'
p5191
aS'us'
p5192
aS'out'
p5193
aS'of'
p5194
aS'here'
p5195
aS'VOX'
p5196
aaa(lp5197
g5173
a(lp5198
S'She'
p5199
aS'backed'
p5200
aS'up'
p5201
aaa(lp5202
g5173
a(lp5203
S'So'
p5204
aS'were'
p5205
aS'going'
p5206
aS'back'
p5207
aaa(lp5208
g5173
a(lp5209
S'and'
p5210
aS'we'
p5211
aS'get'
p5212
aS'to'
p5213
aS'the'
p5214
aS'Hollywood'
p5215
aS'Bowl'
p5216
aaa(lp5217
g5173
a(lp5218
S'and'
p5219
aS'were'
p5220
aS'stuck'
p5221
aS'in'
p5222
aS'traffic'
p5223
aaa(lp5224
g5173
a(lp5225
g11
aS'you'
p5226
aS'know'
p5227
ag11
aaa(lp5228
g5173
a(lp5229
S'Sams'
p5230
aS'going'
p5231
aaa(lp5232
g5173
a(lp5233
S'VOX'
p5234
ag87
aS'hate'
p5235
aS'LA'
p5236
aaa(lp5237
g5173
a(lp5238
g87
aS'hate'
p5239
aS'it'
p5240
aS'VOX'
p5241
aaa(lp5242
g5173
a(lp5243
S'Shes'
p5244
aS'screaming'
p5245
aaa(lp5246
g5173
a(lp5247
S'Im'
p5248
aS'sitting'
p5249
aS'there'
p5250
aaa(lp5251
g5173
a(lp5252
S'and'
p5253
aS'some'
p5254
aS'guys'
p5255
aS'looking'
p5256
aS'at'
p5257
aS'us'
p5258
aaa(lp5259
g5173
a(lp5260
S'And'
p5261
aS'he'
p5262
aS'keeps'
p5263
aS'staring'
p5264
aaa(lp5265
g5173
a(lp5266
S'and'
p5267
aS'were'
p5268
aS'like'
p5269
aS'VOX'
p5270
aS'what'
p5271
aS'are'
p5272
aS'you'
p5273
aS'looking'
p5274
aS'at'
p5275
aaa(lp5276
g5173
a(lp5277
S'Were'
p5278
aS'just'
p5279
aS'lost'
p5280
aS'VOX'
p5281
aaa(lp5282
g5173
a(lp5283
S'So'
p5284
aaa(lp5285
g5173
a(lp5286
S'we'
p5287
aS'get'
p5288
aS'back'
p5289
aS'on'
p5290
aS'the'
p5291
aS'freeway'
p5292
aaa(lp5293
g5173
a(lp5294
S'were'
p5295
aS'like'
p5296
aaa(lp5297
g5173
a(lp5298
S'sh'
p5299
aS'Sams'
p5300
aS'like'
p5301
aaa(lp5302
g5173
a(lp5303
g87
aS'know'
p5304
aS'it'
p5305
aS'was'
p5306
aS'the'
p5307
aS'exit'
p5308
aS'before'
p5309
aS'this'
p5310
aS'one'
p5311
aaa(lp5312
S'X'
p5313
a(lp5314
S'The'
p5315
aS'big'
p5316
aS'one'
p5317
aaa(lp5318
S'MAUREEN'
p5319
a(lp5320
S'Yeah'
p5321
aaa(lp5322
g5319
a(lp5323
S'Whatever'
p5324
aS'you'
p5325
aS'can'
p5326
aS'reach'
p5327
aS'up'
p5328
aS'there'
p5329
aaa(lp5330
S'STEPHANIE'
p5331
a(lp5332
g87
aS'know'
p5333
aS'that'
p5334
aS'was'
p5335
aS'the'
p5336
aS'one'
p5337
aS'it'
p5338
aS'was'
p5339
aaa(lp5340
S'MAUREEN'
p5341
a(lp5342
S'any'
p5343
aS'one'
p5344
aS'of'
p5345
aS'them'
p5346
aS'will'
p5347
aS'do'
p5348
aaa(lp5349
S'STEPHANIE'
p5350
a(lp5351
S'okay'
p5352
aaa(lp5353
g5350
a(lp5354
S'lets'
p5355
aS'go'
p5356
aaa(lp5357
S'MAUREEN'
p5358
a(lp5359
S'theres'
p5360
aS'one'
p5361
aS'on'
p5362
aS'the'
p5363
aS'top'
p5364
aS'thats'
p5365
aS'fine'
p5366
aaa(lp5367
S'STEPHANIE'
p5368
a(lp5369
S'We'
p5370
aS'go'
p5371
aS'off'
p5372
aS'the'
p5373
aS'next'
p5374
aS'exit'
p5375
aaa(lp5376
S'MAUREEN'
p5377
a(lp5378
S'Thats'
p5379
aaa(lp5380
S'STEPHANIE'
p5381
a(lp5382
S'and'
p5383
aS'we'
p5384
aS'see'
p5385
aS'this'
p5386
aS'huge'
p5387
aS'sign'
p5388
aaa(lp5389
g5381
a(lp5390
g11
aS'that'
p5391
aS'says'
p5392
ag11
aS'Universal'
p5393
aS'Studios'
p5394
aaa(lp5395
S'MAUREEN'
p5396
a(lp5397
S'Thatll'
p5398
aS'be'
p5399
aS'fine'
p5400
aaa(lp5401
S'STEPHANIE'
p5402
a(lp5403
S'But'
p5404
aS'theres'
p5405
aS'no'
p5406
aS'arrow'
p5407
aaa(lp5408
S'MAUREEN'
p5409
a(lp5410
S'Ah'
p5411
aaa(lp5412
S'PATTY'
p5413
a(lp5414
aa(lp5415
S'MAUREEN'
p5416
a(lp5417
g11
ag11
ag11
aaa(lp5418
S'STEPHANIE'
p5419
a(lp5420
S'Were'
p5421
aS'like'
p5422
aaa(lp5423
g5419
a(lp5424
S'okay'
p5425
aS'well'
p5426
aaa(lp5427
g5419
a(lp5428
g87
aS'guess'
p5429
aS'that'
p5430
aS'means'
p5431
aS'we'
p5432
aS'just'
p5433
aS'go'
p5434
aS'out'
p5435
aS'this'
p5436
aS'road'
p5437
aaa(lp5438
S'MAUREEN'
p5439
a(lp5440
S'Thank'
p5441
aS'you'
p5442
aaa(lp5443
S'STEPHANIE'
p5444
a(lp5445
S'So'
p5446
aS'we'
p5447
aS'go'
p5448
aS'up'
p5449
aS'the'
p5450
aS'road'
p5451
ag338
aS'while'
p5452
aaa(lp5453
S'X'
p5454
a(lp5455
S'Youre'
p5456
aS'welcome'
p5457
aaa(lp5458
S'STEPHANIE'
p5459
a(lp5460
S'were'
p5461
aS'driving'
p5462
aS'up'
p5463
aS'this'
p5464
aS'road'
p5465
aS'and'
p5466
aaa(lp5467
g5459
a(lp5468
S'all'
p5469
aS'of'
p5470
ag338
aS'sudden'
p5471
aS'we'
p5472
aS'see'
p5473
aS'HI'
p5474
aS'Warner'
p5475
aS'HI'
p5476
aS'Brothers'
p5477
aS'Studios'
p5478
aaa(lp5479
g5459
a(lp5480
g1216
aS'sign'
p5481
aS'that'
p5482
aS'says'
p5483
aaa(lp5484
g5459
a(lp5485
S'L'
p5486
aS'city'
p5487
aS'limits'
p5488
aS'of'
p5489
aS'Burbank'
p5490
ag5486
aaa(lp5491
g5459
a(lp5492
S'Looked'
p5493
aS'at'
p5494
aS'Sam'
p5495
ag87
aS'said'
p5496
aaa(lp5497
g5459
a(lp5498
S'Sam'
p5499
aaa(lp5500
g5459
a(lp5501
S'were'
p5502
aS'in'
p5503
aS'Burbank'
p5504
aaa(lp5505
g5459
a(lp5506
S'And'
p5507
aS'she'
p5508
aS'goes'
p5509
aaa(lp5510
S'X'
p5511
a(lp5512
aa(lp5513
S'STEPHANIE'
p5514
a(lp5515
S'Were'
p5516
aS'not'
p5517
aS'supposed'
p5518
aS'to'
p5519
aS'be'
p5520
aS'here'
p5521
aaa(lp5522
S'MAUREEN'
p5523
a(lp5524
aa(lp5525
S'PATTY'
p5526
a(lp5527
aa(lp5528
S'STEPHANIE'
p5529
a(lp5530
S'Turn'
p5531
aS'around'
p5532
aaa(lp5533
S'PATTY'
p5534
a(lp5535
S'Thats'
p5536
aS'what'
p5537
aS'happens'
p5538
aS'when'
p5539
aS'you'
p5540
aS'let'
p5541
aS'two'
p5542
aS'seventeenyearolds'
p5543
aS'go'
p5544
aS'off'
p5545
aS'on'
p5546
ag338
aS'Friday'
p5547
aS'night'
p5548
aaa(lp5549
S'STEPHANIE'
p5550
a(lp5551
S'come'
p5552
aS'back'
p5553
aaa(lp5554
g5550
a(lp5555
S'So'
p5556
aaa(lp5557
g5550
a(lp5558
S'now'
p5559
aS'we'
p5560
aS'go'
p5561
aS'over'
p5562
aaa(lp5563
S'GAIL'
p5564
a(lp5565
aa(lp5566
S'STEPHANIE'
p5567
a(lp5568
S'and'
p5569
aS'we'
p5570
aS'see'
p5571
aS'the'
p5572
aS'sign'
p5573
aS'that'
p5574
aS'says'
p5575
aS'Universal'
p5576
aS'Studios'
p5577
aaa(lp5578
g5567
a(lp5579
S'and'
p5580
aS'were'
p5581
aS'like'
p5582
aaa(lp5583
g5567
a(lp5584
S'HI'
p5585
aS'well'
p5586
aS'it'
p5587
aS'has'
p5588
aS'HI'
p5589
aS'to'
p5590
aS'be'
p5591
aS'around'
p5592
aS'here'
p5593
aS'HI'
p5594
aS'somewhere'
p5595
aS'HI'
p5596
aaa(lp5597
g5567
a(lp5598
S'its'
p5599
aS'right'
p5600
aS'here'
p5601
aaa(lp5602
g5567
a(lp5603
S'So'
p5604
aS'we'
p5605
aS'go'
p5606
aS'across'
p5607
aaa(lp5608
S'GAIL'
p5609
a(lp5610
S'Isnt'
p5611
aS'that'
p5612
aS'in'
p5613
aS'Burbank'
p5614
aS'California'
p5615
aaa(lp5616
g5609
a(lp5617
S'Universal'
p5618
aS'Studios'
p5619
aaa(lp5620
S'MAUREEN'
p5621
a(lp5622
g87
aS'thought'
p5623
aS'it'
p5624
aS'was'
p5625
aS'in'
p5626
aS'Burbank'
p5627
aaa(lp5628
S'GAIL'
p5629
a(lp5630
S'Yeah'
p5631
aaa(lp5632
S'STEPHANIE'
p5633
a(lp5634
S'It'
p5635
aS'its'
p5636
aS'outside'
p5637
aaa(lp5638
g5633
a(lp5639
S'its'
p5640
aS'like'
p5641
aS'right'
p5642
aS'next'
p5643
aS'to'
p5644
aS'Burbank'
p5645
aaa(lp5646
g5633
a(lp5647
S'but'
p5648
aaa(lp5649
S'GAIL'
p5650
a(lp5651
S'Thats'
p5652
aaa(lp5653
g5650
a(lp5654
S'thats'
p5655
aS'where'
p5656
aS'uh'
p5657
aS'the'
p5658
aS'Love'
p5659
aS'Connection'
p5660
aS'is'
p5661
ag11
aS'though'
p5662
ag11
aaa(lp5663
S'STEPHANIE'
p5664
a(lp5665
S'Well'
p5666
aS'get'
p5667
aS'to'
p5668
aS'it'
p5669
aaa(lp5670
S'GAIL'
p5671
a(lp5672
S'My'
p5673
aS'favorite'
p5674
aS'show'
p5675
aaa(lp5676
S'STEPHANIE'
p5677
a(lp5678
S'its'
p5679
aS'XX'
p5680
ag11
aaa(lp5681
S'X'
p5682
a(lp5683
aa(lp5684
S'MAUREEN'
p5685
a(lp5686
aa(lp5687
S'STEPHANIE'
p5688
a(lp5689
S'No'
p5690
aS'no'
p5691
aaa(lp5692
g5688
a(lp5693
g87
aS'liked'
p5694
aS'Thats'
p5695
ag338
aS'More'
p5696
aaa(lp5697
S'ERIKA'
p5698
a(lp5699
S'Yes'
p5700
aaa(lp5701
g5698
a(lp5702
S'Thats'
p5703
ag338
aS'More'
p5704
aaa(lp5705
S'MAUREEN'
p5706
a(lp5707
S'Oh'
p5708
aS'that'
p5709
aS'one'
p5710
ag87
aS'dont'
p5711
aS'know'
p5712
aS'unfortunately'
p5713
aaa(lp5714
S'STEPHANIE'
p5715
a(lp5716
S'The'
p5717
aS'one'
p5718
aS'where'
p5719
aS'like'
p5720
aS'they'
p5721
aS'bring'
p5722
aS'in'
p5723
aS'their'
p5724
aS'infat'
p5725
aaa(lp5726
g5715
a(lp5727
S'or'
p5728
aaa(lp5729
g5715
a(lp5730
S'infatuation'
p5731
aaa(lp5732
g5715
a(lp5733
S'when'
p5734
aS'they'
p5735
aS'bring'
p5736
aS'in'
p5737
aS'someone'
p5738
aS'theyre'
p5739
aS'infatuated'
p5740
aS'with'
p5741
aaa(lp5742
g5715
a(lp5743
S'and'
p5744
aS'they'
p5745
aS'ask'
p5746
aS'them'
p5747
aS'out'
p5748
aaa(lp5749
g5715
a(lp5750
S'and'
p5751
aS'the'
p5752
aS'person'
p5753
aS'either'
p5754
aS'she'
p5755
aS'ts'
p5756
aaa(lp5757
g5715
a(lp5758
S'sh'
p5759
aaa(lp5760
g5715
a(lp5761
S'like'
p5762
aS'turns'
p5763
aS'them'
p5764
aS'down'
p5765
aS'or'
p5766
aS'goes'
p5767
aS'out'
p5768
aS'with'
p5769
aS'em'
p5770
aaa(lp5771
S'GAIL'
p5772
a(lp5773
S'Oh'
p5774
aaa(lp5775
g5772
a(lp5776
S'thats'
p5777
aS'that'
p5778
aS'one'
p5779
aS'guy'
p5780
aaa(lp5781
g5772
a(lp5782
S'from'
p5783
aS'the'
p5784
aS'soap'
p5785
aS'opera'
p5786
aaa(lp5787
g5772
a(lp5788
S'Dean'
p5789
aaa(lp5790
S'STEPHANIE'
p5791
a(lp5792
S'Its'
p5793
aaa(lp5794
S'GAIL'
p5795
a(lp5796
S'Dean'
p5797
aS'from'
p5798
aS'Another'
p5799
aS'World'
p5800
aaa(lp5801
S'STEPHANIE'
p5802
a(lp5803
S'No'
p5804
aaa(lp5805
g5802
a(lp5806
S'that'
p5807
aS'that'
p5808
aaa(lp5809
g5802
a(lp5810
S'Yeah'
p5811
aaa(lp5812
S'GAIL'
p5813
a(lp5814
S'Is'
p5815
aS'that'
p5816
aS'it'
p5817
aaa(lp5818
S'STEPHANIE'
p5819
a(lp5820
S'Theres'
p5821
aS'two'
p5822
aaa(lp5823
S'ERIKA'
p5824
a(lp5825
S'No'
p5826
aaa(lp5827
g5824
a(lp5828
S'thats'
p5829
aS'another'
p5830
aS'show'
p5831
aaa(lp5832
S'STEPHANIE'
p5833
a(lp5834
S'No'
p5835
aaa(lp5836
g5833
a(lp5837
S'thats'
p5838
aS'thats'
p5839
aS'the'
p5840
aS'new'
p5841
aS'one'
p5842
aaa(lp5843
S'GAIL'
p5844
a(lp5845
S'Oh'
p5846
aS'okay'
p5847
aaa(lp5848
S'MAUREEN'
p5849
a(lp5850
S'Oh'
p5851
aaa(lp5852
S'STEPHANIE'
p5853
a(lp5854
S'Theres'
p5855
aS'like'
p5856
aS'eight'
p5857
aS'of'
p5858
aS'em'
p5859
aaa(lp5860
S'ERIKA'
p5861
a(lp5862
S'Thats'
p5863
aS'yet'
p5864
aS'another'
p5865
aS'one'
p5866
aaa(lp5867
S'STEPHANIE'
p5868
a(lp5869
S'Well'
p5870
aaa(lp5871
S'PATTY'
p5872
a(lp5873
S'Oh'
p5874
aS'my'
p5875
aS'God'
p5876
aaa(lp5877
S'STEPHANIE'
p5878
a(lp5879
S'so'
p5880
aS'were'
p5881
aS'turning'
p5882
aaa(lp5883
g5878
a(lp5884
S'and'
p5885
aS'we'
p5886
aS'see'
p5887
aS'this'
p5888
aS'pizza'
p5889
aS'shop'
p5890
aaa(lp5891
g5878
a(lp5892
S'and'
p5893
aS'its'
p5894
aS'still'
p5895
ag11
aS'open'
p5896
ag11
aaa(lp5897
g5878
a(lp5898
S'and'
p5899
aS'were'
p5900
aS'like'
p5901
aaa(lp5902
g5878
a(lp5903
S'okay'
p5904
aaa(lp5905
g5878
a(lp5906
S'Go'
p5907
aS'in'
p5908
aaa(lp5909
g5878
a(lp5910
S'well'
p5911
aS'ask'
p5912
aS'him'
p5913
aaa(lp5914
g5878
a(lp5915
S'since'
p5916
aS'the'
p5917
aS'signs'
p5918
aS'right'
p5919
aS'across'
p5920
ag11
aS'here'
p5921
ag11
aaa(lp5922
g5878
a(lp5923
S'We'
p5924
aS'go'
p5925
aS'in'
p5926
aaa(lp5927
g5878
a(lp5928
S'and'
p5929
aS'were'
p5930
aS'like'
p5931
aaa(lp5932
g5878
a(lp5933
g2898
aaa(lp5934
g5878
a(lp5935
S'Excuse'
p5936
aS'me'
p5937
aaa(lp5938
g5878
a(lp5939
S'but'
p5940
aS'do'
p5941
aS'you'
p5942
aS'know'
p5943
aS'where'
p5944
aS'Universal'
p5945
aS'Studios'
p5946
aaa(lp5947
g5878
a(lp5948
S'Well'
p5949
aS'it'
p5950
aS'said'
p5951
aS'on'
p5952
ag338
aS'sign'
p5953
aS'right'
p5954
aS'there'
p5955
aaa(lp5956
g5878
a(lp5957
S'were'
p5958
aS'just'
p5959
aS'like'
p5960
aS'well'
p5961
aS'theres'
p5962
aS'no'
p5963
aS'arrow'
p5964
aS'pointing'
p5965
aaa(lp5966
g5878
a(lp5967
S'He'
p5968
aS'goes'
p5969
aaa(lp5970
g5878
a(lp5971
S'yeah'
p5972
aS'there'
p5973
aS'is'
p5974
aaa(lp5975
g5878
a(lp5976
S'the'
p5977
ag1166
aS'arrow'
p5978
ag1166
aS'is'
p5979
aS'the'
p5980
aS'last'
p5981
aS'three'
p5982
aS'inches'
p5983
aS'of'
p5984
aS'the'
p5985
aS'billboard'
p5986
aaa(lp5987
g5878
a(lp5988
S'And'
p5989
aS'its'
p5990
aS'MRC'
p5991
aS'on'
p5992
aS'the'
p5993
aS'ground'
p5994
aS'MRC'
p5995
aaa(lp5996
S'GAIL'
p5997
a(lp5998
aa(lp5999
S'STEPHANIE'
p6000
a(lp6001
S'So'
p6002
aS'theres'
p6003
ag338
aS'bush'
p6004
aaa(lp6005
g6000
a(lp6006
S'Covering'
p6007
aS'this'
p6008
aS'big'
p6009
aS'yellow'
p6010
aS'arrow'
p6011
aaa(lp6012
g6000
a(lp6013
S'HI'
p6014
aS'You'
p6015
aS'couldnt'
p6016
aS'see'
p6017
aS'it'
p6018
aS'HI'
p6019
aaa(lp6020
g6000
a(lp6021
S'We'
p6022
aS'get'
p6023
aS'to'
p6024
aS'Universal'
p6025
aS'Studios'
p6026
aaa(lp6027
S'X'
p6028
a(lp6029
aa(lp6030
S'STEPHANIE'
p6031
a(lp6032
S'its'
p6033
aS'ten'
p6034
aS'oclock'
p6035
aaa(lp6036
g6031
a(lp6037
S'or'
p6038
aS'no'
p6039
aaa(lp6040
g6031
a(lp6041
S'It'
p6042
aS'was'
p6043
aaa(lp6044
S'PATTY'
p6045
a(lp6046
S'Nine'
p6047
aS'thirty'
p6048
ag87
aS'thought'
p6049
aS'you'
p6050
aS'said'
p6051
aaa(lp6052
S'STEPHANIE'
p6053
a(lp6054
S'It'
p6055
aS'was'
p6056
aaa(lp6057
g6053
a(lp6058
S'it'
p6059
aS'was'
p6060
aS'nine'
p6061
aS'forty'
p6062
aS'five'
p6063
aS'or'
p6064
aS'something'
p6065
aS'like'
p6066
aS'that'
p6067
aaa(lp6068
g6053
a(lp6069
S'and'
p6070
aS'they'
p6071
aS'closed'
p6072
aS'at'
p6073
aS'eleven'
p6074
aaa(lp6075
S'PATTY'
p6076
a(lp6077
aa(lp6078
S'GAIL'
p6079
a(lp6080
S'Oh'
p6081
aS'no'
p6082
aaa(lp6083
S'STEPHANIE'
p6084
a(lp6085
S'We'
p6086
aS'got'
p6087
aS'on'
p6088
aS'one'
p6089
aS'ride'
p6090
aaa(lp6091
S'PATTY'
p6092
a(lp6093
S'They'
p6094
aS'spent'
p6095
aS'all'
p6096
aS'night'
p6097
aS'trying'
p6098
aS'to'
p6099
aS'get'
p6100
aS'there'
p6101
aaa(lp6102
S'STEPHANIE'
p6103
a(lp6104
aa(lp6105
g6103
a(lp6106
S'Were'
p6107
aS'on'
p6108
aS'the'
p6109
aS'way'
p6110
aS'home'
p6111
aaa(lp6112
g6103
a(lp6113
g87
aS'was'
p6114
aS'like'
p6115
aaa(lp6116
g6103
a(lp6117
S'lets'
p6118
aS'not'
p6119
aS'take'
p6120
aS'another'
p6121
aS'detour'
p6122
aaa(lp6123
g6103
a(lp6124
S'Shes'
p6125
aS'like'
p6126
aaa(lp6127
g6103
a(lp6128
S'Unhunh'
p6129
aaa(lp6130
S'GAIL'
p6131
a(lp6132
aa(lp6133
S'ERIKA'
p6134
a(lp6135
S'What'
p6136
aS'did'
p6137
aS'you'
p6138
aS'go'
p6139
aS'on'
p6140
aaa(lp6141
g6134
a(lp6142
S'while'
p6143
aS'you'
p6144
aS'were'
p6145
aS'there'
p6146
aS'then'
p6147
aaa(lp6148
S'STEPHANIE'
p6149
a(lp6150
S'We'
p6151
aS'went'
p6152
aS'on'
p6153
aS'the'
p6154
aS'Back'
p6155
aS'to'
p6156
aS'the'
p6157
aS'Future'
p6158
aS'ride'
p6159
aaa(lp6160
g6149
a(lp6161
S'Simulation'
p6162
aaa(lp6163
S'GENEVIEVE'
p6164
a(lp6165
S'On'
p6166
aS'what'
p6167
aaa(lp6168
S'ERIKA'
p6169
a(lp6170
S'Oh'
p6171
aS'really'
p6172
aaa(lp6173
S'STEPHANIE'
p6174
a(lp6175
S'Back'
p6176
aS'to'
p6177
aS'the'
p6178
aS'Future'
p6179
aaa(lp6180
S'MAUREEN'
p6181
a(lp6182
S'Sixteen'
p6183
aS'thousand'
p6184
aS'gigahertz'
p6185
aaa(lp6186
S'PATTY'
p6187
a(lp6188
S'That'
p6189
aS'was'
p6190
aS'Stephanies'
p6191
aS'introduction'
p6192
aS'to'
p6193
aS'LA'
p6194
aS'California'
p6195
aaa(lp6196
S'ERIKA'
p6197
a(lp6198
aa(lp6199
S'MAUREEN'
p6200
a(lp6201
S'sixtysix'
p6202
aS'thousand'
p6203
aS'gigahertz'
p6204
aS'or'
p6205
aS'whatever'
p6206
aS'it'
p6207
aS'is'
p6208
ag11
aaa(lp6209
S'PATTY'
p6210
a(lp6211
S'Its'
p6212
ag338
aS'pretty'
p6213
aS'big'
p6214
aS'place'
p6215
aaa(lp6216
S'STEPHANIE'
p6217
a(lp6218
S'It'
p6219
aS'was'
p6220
aS'fun'
p6221
aaa(lp6222
S'PATTY'
p6223
a(lp6224
S'Its'
p6225
aS'enormous'
p6226
aaa(lp6227
S'ERIKA'
p6228
a(lp6229
S'Yeah'
p6230
aaa(lp6231
g6228
a(lp6232
S'oh'
p6233
aaa(lp6234
g6228
a(lp6235
S'yeah'
p6236
aaa(lp6237
S'STEPHANIE'
p6238
a(lp6239
S'Oh'
p6240
ag87
ag87
aaa(lp6241
g6238
a(lp6242
g87
aS'almost'
p6243
aS'got'
p6244
aS'to'
p6245
aaa(lp6246
S'GAIL'
p6247
a(lp6248
g87
aS'dont'
p6249
aS'think'
p6250
aS'Id'
p6251
aS'want'
p6252
aS'to'
p6253
aS'take'
p6254
ag338
aS'wrong'
p6255
aS'turn'
p6256
aS'there'
p6257
aaa(lp6258
S'ERIKA'
p6259
a(lp6260
g87
aS'wouldnt'
p6261
aS'even'
p6262
ag11
ag11
aS'XXXX'
p6263
aaa(lp6264
S'STEPHANIE'
p6265
a(lp6266
g87
aS'drove'
p6267
aS'by'
p6268
aS'the'
p6269
aS'Galleria'
p6270
aaa(lp6271
S'PATTY'
p6272
a(lp6273
g11
aS'No'
p6274
aS'you'
p6275
aS'dont'
p6276
ag11
aaa(lp6277
S'STEPHANIE'
p6278
a(lp6279
S'The'
p6280
aS'Galleria'
p6281
aaa(lp6282
S'ERIKA'
p6283
a(lp6284
S'Mm'
p6285
aaa(lp6286
g6283
a(lp6287
S'mhm'
p6288
aaa(lp6289
S'STEPHANIE'
p6290
a(lp6291
S'We'
p6292
aS'were'
p6293
aS'gonna'
p6294
aS'go'
p6295
aS'to'
p6296
aS'the'
p6297
aS'Galleria'
p6298
aaa(lp6299
g6290
a(lp6300
S'but'
p6301
aS'we'
p6302
aS'didnt'
p6303
aS'get'
p6304
ag338
aS'chance'
p6305
aaa(lp6306
S'GAIL'
p6307
a(lp6308
S'Did'
p6309
aS'you'
p6310
aaa(lp6311
S'MAUREEN'
p6312
a(lp6313
S'Yeah'
p6314
aaa(lp6315
g6312
a(lp6316
S'thats'
p6317
aS'the'
p6318
aS'ch'
p6319
aaa(lp6320
S'GAIL'
p6321
a(lp6322
S'Theres'
p6323
aS'the'
p6324
aS'Galleria'
p6325
aS'in'
p6326
aS'Dallas'
p6327
aaa(lp6328
S'STEPHANIE'
p6329
a(lp6330
S'Sherwood'
p6331
aS'Oaks'
p6332
aaa(lp6333
g6329
a(lp6334
S'Sherwood'
p6335
aS'Oaks'
p6336
aS'Galleria'
p6337
aaa(lp6338
S'PATTY'
p6339
a(lp6340
S'You'
p6341
aS'wouldntve'
p6342
aS'had'
p6343
aS'any'
p6344
aS'money'
p6345
aS'left'
p6346
aS'anyway'
p6347
aS'probab'
p6348
aaa(lp6349
S'MAUREEN'
p6350
a(lp6351
S'We'
p6352
aS'have'
p6353
aS'uh'
p6354
aaa(lp6355
g6350
a(lp6356
S'Roger'
p6357
aaa(lp6358
S'ROGER'
p6359
a(lp6360
S'Where'
p6361
aS'was'
p6362
aS'th'
p6363
aaa(lp6364
g6359
a(lp6365
S'Where'
p6366
aS'was'
p6367
aS'this'
p6368
aaa(lp6369
g6359
a(lp6370
S'Im'
p6371
aS'gonna'
p6372
aS'take'
p6373
aS'it'
p6374
aS'off'
p6375
aaa(lp6376
S'STEPHANIE'
p6377
a(lp6378
S'No'
p6379
aaa(lp6380
S'ROGER'
p6381
a(lp6382
S'XXX'
p6383
aaa(lp6384
S'MAUREEN'
p6385
a(lp6386
S'Okay'
p6387
aaa(lp6388
S'STEPHANIE'
p6389
a(lp6390
S'its'
p6391
aS'not'
p6392
aS'that'
p6393
ag87
aS'h'
p6394
aS'needed'
p6395
aS'money'
p6396
aaa(lp6397
g6389
a(lp6398
S'its'
p6399
aS'the'
p6400
aS'Galleria'
p6401
aaa(lp6402
g6389
a(lp6403
S'Every'
p6404
aS'teenage'
p6405
aS'film'
p6406
aaa(lp6407
g6389
a(lp6408
S'that'
p6409
aS'has'
p6410
aS'ever'
p6411
aS'been'
p6412
aS'filmed'
p6413
aaa(lp6414
g6389
a(lp6415
S'was'
p6416
aS'filmed'
p6417
aS'in'
p6418
aS'the'
p6419
aS'Galleria'
p6420
aaa(lp6421
S'GAIL'
p6422
a(lp6423
aa(lp6424
S'STEPHANIE'
p6425
a(lp6426
aa(lp6427
S'PATTY'
p6428
a(lp6429
S'See'
p6430
ag87
aS'dont'
p6431
aS'watch'
p6432
aS'that'
p6433
aS'stuff'
p6434
aaa(lp6435
S'STEPHANIE'
p6436
a(lp6437
S'Valley'
p6438
aS'Girl'
p6439
aaa(lp6440
S'PATTY'
p6441
a(lp6442
S'so'
p6443
ag87
aS'wasnt'
p6444
aS'aware'
p6445
aS'of'
p6446
aS'that'
p6447
aaa(lp6448
S'STEPHANIE'
p6449
a(lp6450
aa(lp6451
S'MAUREEN'
p6452
a(lp6453
S'Gail'
p6454
aaa(lp6455
g6452
a(lp6456
S'would'
p6457
aS'you'
p6458
aS'go'
p6459
aS'downstairs'
p6460
aaa(lp6461
S'STEPHANIE'
p6462
a(lp6463
g11
aS'everything'
p6464
aaa(lp6465
S'MAUREEN'
p6466
a(lp6467
S'there'
p6468
aS'are'
p6469
aS'two'
p6470
aS'bottles'
p6471
aS'of'
p6472
aaa(lp6473
S'ERIKA'
p6474
a(lp6475
S'Wasnt'
p6476
aS'Fast'
p6477
aS'Times'
p6478
aS'at'
p6479
aS'Ridgemont'
p6480
aS'High'
p6481
aS'filmed'
p6482
aS'there'
p6483
aS'too'
p6484
aaa(lp6485
S'MAUREEN'
p6486
a(lp6487
S'burgundy'
p6488
aS'in'
p6489
aS'the'
p6490
aS'refrigerator'
p6491
aaa(lp6492
g6486
a(lp6493
S'and'
p6494
aS'bring'
p6495
aS'up'
p6496
ag338
aS'roll'
p6497
aS'of'
p6498
aS'paper'
p6499
aS'towels'
p6500
aaa(lp6501
S'STEPHANIE'
p6502
a(lp6503
S'Fast'
p6504
aS'Times'
p6505
aS'at'
p6506
aS'Ridgemont'
p6507
aS'High'
p6508
aaa(lp6509
S'MAUREEN'
p6510
a(lp6511
g11
aS'since'
p6512
aS'were'
p6513
ag11
aaa(lp6514
g6510
a(lp6515
S'um'
p6516
aaa(lp6517
g6510
a(lp6518
g11
aS'okay'
p6519
ag11
aaa(lp6520
S'STEPHANIE'
p6521
a(lp6522
S'um'
p6523
aaa(lp6524
S'GAIL'
p6525
a(lp6526
S'Okay'
p6527
aaa(lp6528
S'STEPHANIE'
p6529
a(lp6530
S'Bill'
p6531
aS'and'
p6532
aS'Teds'
p6533
aS'Excellent'
p6534
aS'Adventure'
p6535
aaa(lp6536
g6529
a(lp6537
S'everything'
p6538
aaa(lp6539
g6529
a(lp6540
S'The'
p6541
aS'Gallerias'
p6542
aS'like'
p6543
aS'the'
p6544
aS'biggest'
p6545
aS'filming'
p6546
aS'place'
p6547
aS'in'
p6548
aS'the'
p6549
aS'world'
p6550
aaa(lp6551
g6529
a(lp6552
S'Oh'
p6553
aS'and'
p6554
ag87
aS'found'
p6555
aS'out'
p6556
aS'where'
p6557
aS'Grease'
p6558
aS'was'
p6559
aS'filmed'
p6560
aaa(lp6561
S'MAUREEN'
p6562
a(lp6563
S'Oh'
p6564
aS'yeah'
p6565
aaa(lp6566
S'STEPHANIE'
p6567
a(lp6568
S'It'
p6569
aS'was'
p6570
aS'filmed'
p6571
aS'at'
p6572
aaa(lp6573
g6567
a(lp6574
S'um'
p6575
aaa(lp6576
g6567
a(lp6577
S'Venice'
p6578
aS'High'
p6579
aS'School'
p6580
aaa(lp6581
g6567
a(lp6582
S'In'
p6583
aS'Venice'
p6584
aS'California'
p6585
aaa(lp6586
g6567
a(lp6587
g87
aS'got'
p6588
aS'to'
p6589
aS'see'
p6590
aS'Venice'
p6591
aS'High'
p6592
aS'School'
p6593
aaa(lp6594
g6567
a(lp6595
S'So'
p6596
aaa(lp6597
g6567
a(lp6598
S'PX'
p6599
aS'that'
p6600
aS'was'
p6601
aS'good'
p6602
aS'XP'
p6603
aaa(lp6604
g6567
a(lp6605
S'It'
p6606
aS'was'
p6607
aS'fun'
p6608
aaa(lp6609
g6567
a(lp6610
S'They'
p6611
aS'filmed'
p6612
ag338
aS'movie'
p6613
aS'at'
p6614
aS'Oakland'
p6615
aS'Catholic'
p6616
aaa(lp6617
S'ERIKA'
p6618
a(lp6619
g11
aS'what'
p6620
aaa(lp6621
S'STEPHANIE'
p6622
a(lp6623
S'They'
p6624
aS'filmed'
p6625
ag338
aS'movie'
p6626
aS'at'
p6627
aS'Oakland'
p6628
aS'Catholic'
p6629
aaa(lp6630
S'ERIKA'
p6631
a(lp6632
S'What'
p6633
aS'movie'
p6634
aS'was'
p6635
aS'this'
p6636
aaa(lp6637
S'STEPHANIE'
p6638
a(lp6639
g87
aS'dont'
p6640
aS'know'
p6641
aaa(lp6642
g6638
a(lp6643
S'but'
p6644
aS'they'
p6645
aS'filmed'
p6646
aS'it'
p6647
aaa(lp6648
g6638
a(lp6649
S'and'
p6650
aS'there'
p6651
aS'was'
p6652
aS'this'
p6653
aS'woman'
p6654
aS'wearing'
p6655
ag338
aS'wedding'
p6656
aS'dress'
p6657
aS'and'
p6658
aS'combat'
p6659
aS'boots'
p6660
aaa(lp6661
g6638
a(lp6662
S'and'
p6663
aS'she'
p6664
aS'was'
p6665
aS'fighting'
p6666
aS'with'
p6667
aS'her'
p6668
aS'lover'
p6669
aS'outside'
p6670
aaa(lp6671
g6638
a(lp6672
S'and'
p6673
aS'they'
p6674
aS'were'
p6675
aS'filming'
p6676
aS'it'
p6677
aaa(lp6678
S'MAUREEN'
p6679
a(lp6680
aa(lp6681
S'STEPHANIE'
p6682
a(lp6683
S'so'
p6684
aaa(lp6685
g6682
a(lp6686
S'it'
p6687
aS'it'
p6688
aS'was'
p6689
aS'either'
p6690
aS'Funniest'
p6691
aS'Home'
p6692
aS'Videos'
p6693
aaa(lp6694
g6682
a(lp6695
S'or'
p6696
aS'they'
p6697
aS'were'
p6698
aS'filming'
p6699
ag338
aS'fi'
p6700
ag338
aS'movie'
p6701
aaa(lp6702
S'MAUREEN'
p6703
a(lp6704
aa(lp6705
S'STEPHANIE'
p6706
a(lp6707
S'were'
p6708
aS'not'
p6709
aS'sure'
p6710
aaa(lp6711
S'ERIKA'
p6712
a(lp6713
S'Okay'
p6714
aaa(lp6715
S'PATTY'
p6716
a(lp6717
S'Stephanie'
p6718
aS'said'
p6719
aS'to'
p6720
aS'me'
p6721
aS'on'
p6722
aS'Friday'
p6723
aaa(lp6724
g6716
a(lp6725
S'this'
p6726
aS'is'
p6727
aS'an'
p6728
aS'historic'
p6729
aS'day'
p6730
aaa(lp6731
g6716
a(lp6732
g87
aS'started'
p6733
aS'my'
p6734
aS'first'
p6735
aS'day'
p6736
aS'as'
p6737
ag338
aS'senior'
p6738
aaa(lp6739
g6716
a(lp6740
g87
aS'said'
p6741
aS'that'
p6742
aS'is'
p6743
aS'historic'
p6744
aaa(lp6745
S'X'
p6746
a(lp6747
aa(lp6748
S'PATTY'
p6749
a(lp6750
S'This'
p6751
aS'is'
p6752
aS'the'
p6753
aS'beginning'
p6754
aS'of'
p6755
aS'the'
p6756
aS'end'
p6757
aS'for'
p6758
aS'me'
p6759
aaa(lp6760
S'STEPHANIE'
p6761
a(lp6762
S'You'
p6763
aS'get'
p6764
aS'to'
p6765
aS'make'
p6766
aS'fun'
p6767
aS'of'
p6768
aS'freshmen'
p6769
aaa(lp6770
S'PATTY'
p6771
a(lp6772
S'if'
p6773
aS'it'
p6774
aS'ever'
p6775
aS'comes'
p6776
aaa(lp6777
g6771
a(lp6778
S'the'
p6779
aS'beginning'
p6780
aS'of'
p6781
aS'the'
p6782
aS'end'
p6783
aaa(lp6784
g6771
a(lp6785
S'if'
p6786
aS'it'
p6787
aS'ever'
p6788
aS'comes'
p6789
aaa(lp6790
S'STEPHANIE'
p6791
a(lp6792
S'It'
p6793
aS'comes'
p6794
aS'Jan'
p6795
aaa(lp6796
g6791
a(lp6797
S'June'
p6798
aS'second'
p6799
aaa(lp6800
g6791
a(lp6801
S'when'
p6802
ag87
aS'graduate'
p6803
aaa(lp6804
g6791
a(lp6805
S'and'
p6806
ag87
aS'get'
p6807
aS'my'
p6808
aS'diploma'
p6809
aS'MRC'
p6810
aS'in'
p6811
aS'my'
p6812
aS'hand'
p6813
aS'MRC'
p6814
aaa(lp6815
S'PATTY'
p6816
a(lp6817
S'Hallelujah'
p6818
aaa(lp6819
S'ERIKA'
p6820
a(lp6821
S'Next'
p6822
aS'is'
p6823
aS'the'
p6824
aS'wedding'
p6825
aaa(lp6826
S'PATTY'
p6827
a(lp6828
S'Never'
p6829
aaa(lp6830
S'STEPHANIE'
p6831
a(lp6832
S'No'
p6833
aaa(lp6834
S'PATTY'
p6835
a(lp6836
S'Never'
p6837
aaa(lp6838
S'STEPHANIE'
p6839
a(lp6840
S'next'
p6841
aS'is'
p6842
aS'college'
p6843
aS'graduation'
p6844
aaa(lp6845
S'PATTY'
p6846
a(lp6847
S'Ive'
p6848
aS'married'
p6849
aS'one'
p6850
aS'daughter'
p6851
aaa(lp6852
g6846
a(lp6853
S'thats'
p6854
aS'enough'
p6855
aaa(lp6856
g6846
a(lp6857
S'Thats'
p6858
aS'enough'
p6859
aaa(lp6860
S'STEPHANIE'
p6861
a(lp6862
S'No'
p6863
aS'no'
p6864
aaa(lp6865
g6861
a(lp6866
S'Youve'
p6867
aS'gotta'
p6868
aS'go'
p6869
aS'through'
p6870
aS'two'
p6871
aS'more'
p6872
aaa(lp6873
S'MAUREEN'
p6874
a(lp6875
S'Alright'
p6876
aaa(lp6877
g6874
a(lp6878
S'Okay'
p6879
aaa(lp6880
g6874
a(lp6881
S'um'
p6882
aaa(lp6883
S'STEPHANIE'
p6884
a(lp6885
S'Cause'
p6886
aS't'
p6887
aS'we'
p6888
aaa(lp6889
S'MAUREEN'
p6890
a(lp6891
S'Uh'
p6892
aaa(lp6893
S'PATTY'
p6894
a(lp6895
S'You'
p6896
aS'guys'
p6897
aS'cant'
p6898
aS'get'
p6899
aS'married'
p6900
aaa(lp6901
g6894
a(lp6902
S'you'
p6903
aS'have'
p6904
aS'to'
p6905
aS'elope'
p6906
aaa(lp6907
S'STEPHANIE'
p6908
a(lp6909
S'Im'
p6910
aS'not'
p6911
aS'eloping'
p6912
aaa(lp6913
S'MAUREEN'
p6914
a(lp6915
S'We'
p6916
aS'need'
p6917
aS'from'
p6918
ag2898
aaa(lp6919
S'STEPHANIE'
p6920
a(lp6921
g87
aS'got'
p6922
ag338
aS'big'
p6923
aS'production'
p6924
aaa(lp6925
S'MAUREEN'
p6926
a(lp6927
S'Stephanie'
p6928
aaa(lp6929
g6926
a(lp6930
g2898
ag87
aS'need'
p6931
aS'you'
p6932
aS'and'
p6933
aS'Erika'
p6934
aS'to'
p6935
aS'carry'
p6936
aS'chairs'
p6937
aS'from'
p6938
aS'the'
p6939
aS'front'
p6940
aS'porch'
p6941
aaa(lp6942
g6926
a(lp6943
S'those'
p6944
aS'four'
p6945
aS'little'
p6946
aS'white'
p6947
aS'ones'
p6948
aaa(lp6949
g6926
a(lp6950
S'and'
p6951
aS'theyll'
p6952
aS'stack'
p6953
aaa(lp6954
g6926
a(lp6955
S'you'
p6956
aS'can'
p6957
aS'stack'
p6958
aS'two'
p6959
aS'together'
p6960
aaa(lp6961
S'STEPHANIE'
p6962
a(lp6963
S'Okay'
p6964
aaa(lp6965
S'MAUREEN'
p6966
a(lp6967
S'and'
p6968
aS'carry'
p6969
aS'them'
p6970
aS'around'
p6971
aaa(lp6972
S'PATTY'
p6973
a(lp6974
S'Theyll'
p6975
aS'be'
p6976
aS'good'
p6977
aS'carriers'
p6978
aaa(lp6979
S'MAUREEN'
p6980
a(lp6981
S'And'
p6982
aaa(lp6983
g6980
a(lp6984
S'Ill'
p6985
aS'put'
p6986
aS'this'
p6987
aS'out'
p6988
aaa(lp6989
g6980
a(lp6990
S'and'
p6991
aS'were'
p6992
aS'ready'
p6993
aS'to'
p6994
aS'eat'
p6995
aaa(lp6996
S'PATTY'
p6997
a(lp6998
S'Smells'
p6999
aS'good'
p7000
aaa(lp7001
S'ERIKA'
p7002
a(lp7003
S'Okay'
p7004
aaa(lp7005
S'MAUREEN'
p7006
a(lp7007
S'So'
p7008
aaa(lp7009
S'GENEVIEVE'
p7010
a(lp7011
S'How'
p7012
aS'are'
p7013
aS'we'
p7014
aS'ever'
p7015
aS'gonna'
p7016
aS'find'
p7017
ag338
aS'school'
p7018
aS'for'
p7019
aS'her'
p7020
aaa(lp7021
S'PATTY'
p7022
a(lp7023
aa(lp7024
S'GAIL'
p7025
a(lp7026
aa(lp7027
S'PATTY'
p7028
a(lp7029
S'Im'
p7030
aS'gonna'
p7031
aS'pray'
p7032
ag338
aS'lot'
p7033
aaa(lp7034
S'GAIL'
p7035
a(lp7036
aa(lp7037
S'PATTY'
p7038
a(lp7039
S'That'
p7040
aS'she'
p7041
aS'makes'
p7042
aS'good'
p7043
aS'choices'
p7044
aaa(lp7045
S'GAIL'
p7046
a(lp7047
S'Uh'
p7048
aaa(lp7049
g7046
a(lp7050
S'itll'
p7051
aS'work'
p7052
aaa(lp7053
S'PATTY'
p7054
a(lp7055
S'Shes'
p7056
aS'very'
p7057
aS'opinionated'
p7058
aaa(lp7059
g7054
a(lp7060
S'And'
p7061
aS'her'
p7062
aS'dads'
p7063
aS'very'
p7064
aS'patient'
p7065
aS'with'
p7066
aS'it'
p7067
aaa(lp7068
g7054
a(lp7069
S'and'
p7070
ag87
aS'get'
p7071
aS'really'
p7072
aS'hyper'
p7073
aaa(lp7074
S'GAIL'
p7075
a(lp7076
S'XXX'
p7077
aaa(lp7078
g7075
a(lp7079
S'After'
p7080
ag338
aS'while'
p7081
aaa(lp7082
g7075
a(lp7083
S'But'
p7084
aaa(lp7085
g7075
a(lp7086
S'thats'
p7087
aS'why'
p7088
ag87
aS'said'
p7089
aS'you'
p7090
aS'know'
p7091
aaa(lp7092
g7075
a(lp7093
S'you'
p7094
aS'cant'
p7095
aS'prejudge'
p7096
aaa(lp7097
g7075
a(lp7098
S'You'
p7099
aS'have'
p7100
aS'to'
p7101
aS'go'
p7102
aS'and'
p7103
aaa(lp7104
g7075
a(lp7105
S'feel'
p7106
aS'and'
p7107
aaa(lp7108
g7075
a(lp7109
S'visit'
p7110
aS'and'
p7111
aS'say'
p7112
aaa(lp7113
g7075
a(lp7114
S'oh'
p7115
aS'yeah'
p7116
aS'well'
p7117
aaa(lp7118
g7075
a(lp7119
S'and'
p7120
aS'then'
p7121
aS'keep'
p7122
ag338
aS'list'
p7123
aaa(lp7124
S'MAUREEN'
p7125
a(lp7126
S'Okay'
p7127
aaa(lp7128
S'PATTY'
p7129
a(lp7130
S'Well'
p7131
aS'this'
p7132
aS'school'
p7133
aS'has'
p7134
aS'this'
p7135
aS'good'
p7136
aS'point'
p7137
aaa(lp7138
S'MAUREEN'
p7139
a(lp7140
S'Dinners'
p7141
ag11
aS'serving'
p7142
ag11
aaa(lp7143
S'PATTY'
p7144
a(lp7145
S'and'
p7146
aS'this'
p7147
aS'bad'
p7148
aS'point'
p7149
aS'and'
p7150
aS'then'
p7151
aaa(lp7152
S'DALE'
p7153
a(lp7154
S'You'
p7155
aS'got'
p7156
aS'any'
p7157
aS'extra'
p7158
aS'work'
p7159
aS'for'
p7160
aS'me'
p7161
aaa(lp7162
S'PATTY'
p7163
a(lp7164
S'Then'
p7165
aS'eventually'
p7166
aS'onell'
p7167
aS'click'
p7168
aS'in'
p7169
aS'your'
p7170
aS'mind'
p7171
aaa(lp7172
S'MAUREEN'
p7173
a(lp7174
S'XX'
p7175
aS'XX'
p7176
ag11
ag11
aaa(lp7177
g7173
a(lp7178
g87
aS'need'
p7179
aS'someone'
p7180
aS'to'
p7181
aS'help'
p7182
aS'Mom'
p7183
aS'out'
p7184
aS'to'
p7185
aS'the'
p7186
aS'table'
p7187
aaa(lp7188
S'PATTY'
p7189
a(lp7190
S'and'
p7191
aS'youll'
p7192
aS'say'
p7193
aS'after'
p7194
aS'all'
p7195
aS'XXX'
p7196
aaa(lp7197
g7189
a(lp7198
S'you'
p7199
aS'know'
p7200
aaa(lp7201
g7189
a(lp7202
S'this'
p7203
aS'is'
p7204
aS'the'
p7205
aS'one'
p7206
ag87
aS'really'
p7207
aS'like'
p7208
aS'the'
p7209
aS'best'
p7210
aaa(lp7211
S'ROGER'
p7212
a(lp7213
S'XX'
p7214
aS'XXX'
p7215
aaa(lp7216
S'PATTY'
p7217
a(lp7218
S'Cause'
p7219
aS'where'
p7220
aS'Stephanie'
p7221
aaa(lp7222
g7217
a(lp7223
S'Where'
p7224
aS'Amy'
p7225
aS'expected'
p7226
aS'to'
p7227
aS'go'
p7228
aS'she'
p7229
aS'hated'
p7230
aaa(lp7231
g7217
a(lp7232
S'She'
p7233
aS'hated'
p7234
aS'the'
p7235
aS'University'
p7236
aS'of'
p7237
aS'Minnesota'
p7238
aaa(lp7239
g7217
a(lp7240
S'She'
p7241
aS'went'
p7242
aS'to'
p7243
aS'Saint'
p7244
aS'Bens'
p7245
aS'and'
p7246
aS'she'
p7247
aS'loved'
p7248
aS'it'
p7249
aaa(lp7250
g7217
a(lp7251
S'And'
p7252
aS'she'
p7253
aS'was'
p7254
aS'happy'
p7255
aS'there'
p7256
aaa(lp7257
S'GAIL'
p7258
a(lp7259
S'Yeah'
p7260
aaa(lp7261
S'PATTY'
p7262
a(lp7263
S'You'
p7264
aS'know'
p7265
aS'you'
p7266
aS'dont'
p7267
aS'know'
p7268
aaa(lp7269
g7262
a(lp7270
S'You'
p7271
aS'just'
p7272
aS'uh'
p7273
aaa(lp7274
g7262
a(lp7275
S'you'
p7276
aS'know'
p7277
aaa(lp7278
g7262
a(lp7279
S'so'
p7280
ag11
ag87
aS'dont'
p7281
aS'know'
p7282
aS'how'
p7283
aS'to'
p7284
ag11
aS'prejudge'
p7285
aaa(lp7286
g7262
a(lp7287
S'Im'
p7288
aS'just'
p7289
aS'gonna'
p7290
aS'hold'
p7291
aS'my'
p7292
aS'breath'
p7293
aaa(lp7294
g7262
a(lp7295
S'For'
p7296
aS'the'
p7297
aS'next'
p7298
aS'six'
p7299
aS'months'
p7300
aaa(lp7301
g7262
a(lp7302
S'Im'
p7303
aS'gonna'
p7304
aS'hold'
p7305
aS'my'
p7306
aS'breath'
p7307
aaa(lp7308
S'GAIL'
p7309
a(lp7310
aa(lp7311
g7309
a(lp7312
S'That'
p7313
aS'works'
p7314
aaa(lp7315
g7309
a(lp7316
S'Right'
p7317
aaa(lp7318
S'PATTY'
p7319
a(lp7320
g87
aS'dont'
p7321
aS'know'
p7322
aaa(lp7323
g7319
a(lp7324
g87
aS'could'
p7325
aS'die'
p7326
aS'from'
p7327
aS'holding'
p7328
aS'my'
p7329
aS'breath'
p7330
aaa(lp7331
S'GAIL'
p7332
a(lp7333
aa(lp7334
S'PATTY'
p7335
a(lp7336
S'Then'
p7337
ag87
aS'wouldnt'
p7338
aS'have'
p7339
aS'this'
p7340
aS'problem'
p7341
aS'though'
p7342
aaa(lp7343
g7335
a(lp7344
S'Uncle'
p7345
aS'John'
p7346
aS'would'
p7347
aS'have'
p7348
aS'it'
p7349
aaa(lp7350
g7335
a(lp7351
S'So'
p7352
ag87
aS'wont'
p7353
aS'have'
p7354
aS'to'
p7355
aS'do'
p7356
aS'this'
p7357
aaa(lp7358
S'GAIL'
p7359
a(lp7360
aa(lp7361
S'PATTY'
p7362
a(lp7363
S'Maybe'
p7364
aS'thats'
p7365
aaa(lp7366
g7362
a(lp7367
S'not'
p7368
aS'such'
p7369
ag338
aS'bad'
p7370
aS'idea'
p7371
aaa(lp7372
g7362
a(lp7373
S'Hold'
p7374
aS'my'
p7375
aS'breath'
p7376
aaa(lp7377
g7362
a(lp7378
S'then'
p7379
aS'he'
p7380
aS'has'
p7381
aS'to'
p7382
aS'deal'
p7383
aS'with'
p7384
aS'it'
p7385
aaa(lp7386
S'GAIL'
p7387
a(lp7388
aa(lp7389
S'ROGER'
p7390
a(lp7391
S'Here'
p7392
ag87
aS'am'
p7393
aaa(lp7394
g7390
a(lp7395
S'see'
p7396
aS'if'
p7397
aS'shes'
p7398
ag11
aaa(lp7399
S'PATTY'
p7400
a(lp7401
S'But'
p7402
ag87
aS'am'
p7403
aS'getting'
p7404
aS'better'
p7405
aaa(lp7406
g7400
a(lp7407
S'Ive'
p7408
aS'been'
p7409
aS'laying'
p7410
aS'down'
p7411
aaa(lp7412
S'MAUREEN'
p7413
a(lp7414
S'Well'
p7415
aS'Dale'
p7416
aS'will'
p7417
aS'help'
p7418
aS'her'
p7419
aaa(lp7420
S'PATTY'
p7421
a(lp7422
S'Ive'
p7423
aS'been'
p7424
aS'putting'
p7425
aS'my'
p7426
aS'foot'
p7427
aS'down'
p7428
aS'on'
p7429
aS'things'
p7430
aS'like'
p7431
aaa(lp7432
S'ROGER'
p7433
a(lp7434
S'See'
p7435
aS'if'
p7436
aS'she'
p7437
aS'trusts'
p7438
ag338
aS'drunk'
p7439
aaa(lp7440
S'PATTY'
p7441
a(lp7442
S'you'
p7443
aS'know'
p7444
aaa(lp7445
g7441
a(lp7446
S'cause'
p7447
aS'Stephanie'
p7448
aS'has'
p7449
aS'futzed'
p7450
aS'around'
p7451
aS'with'
p7452
aS'her'
p7453
aS'health'
p7454
aS'class'
p7455
aaa(lp7456
S'MAUREEN'
p7457
a(lp7458
S'Let'
p7459
aS'Dale'
p7460
aS'help'
p7461
aS'her'
p7462
aS'please'
p7463
aaa(lp7464
S'ROGER'
p7465
a(lp7466
S'No'
p7467
aaa(lp7468
S'PATTY'
p7469
a(lp7470
S'and'
p7471
aS'hasnt'
p7472
aS'had'
p7473
aS'it'
p7474
aS'yet'
p7475
aaa(lp7476
g7469
a(lp7477
S'You'
p7478
aS'cant'
p7479
aS'graduate'
p7480
aS'without'
p7481
aS'health'
p7482
aaa(lp7483
S'GAIL'
p7484
a(lp7485
S'Oh'
p7486
aaa(lp7487
S'PATTY'
p7488
a(lp7489
S'She'
p7490
ag87
aS'got'
p7491
aS'her'
p7492
aS'schedule'
p7493
aS'Tuesday'
p7494
aS'night'
p7495
aaa(lp7496
g7488
a(lp7497
S'when'
p7498
ag87
aS'went'
p7499
aS'to'
p7500
aS'the'
p7501
aS'meeting'
p7502
aaa(lp7503
g7488
a(lp7504
S'and'
p7505
ag87
aS'said'
p7506
aaa(lp7507
g7488
a(lp7508
S'kiddo'
p7509
aaa(lp7510
g7488
a(lp7511
S'you'
p7512
aS'go'
p7513
aS'to'
p7514
aS'school'
p7515
aS'tomorrow'
p7516
aaa(lp7517
S'ROGER'
p7518
a(lp7519
S'Ooh'
p7520
aS'that'
p7521
aS'looks'
p7522
aS'good'
p7523
aaa(lp7524
S'PATTY'
p7525
a(lp7526
S'and'
p7527
aS'you'
p7528
aS'get'
p7529
aS'this'
p7530
aS'health'
p7531
aS'class'
p7532
aS'arranged'
p7533
aaa(lp7534
g7525
a(lp7535
S'if'
p7536
aS'you'
p7537
aS'bring'
p7538
aS'it'
p7539
aS'home'
p7540
aaa(lp7541
S'ROGER'
p7542
a(lp7543
g11
aS'Im'
p7544
aS'fine'
p7545
ag11
aaa(lp7546
S'PATTY'
p7547
a(lp7548
S'She'
p7549
aS'said'
p7550
aS'well'
p7551
ag87
aS'can'
p7552
aS'do'
p7553
aS'it'
p7554
aS'next'
p7555
aS'semester'
p7556
aaa(lp7557
g7547
a(lp7558
g87
aS'said'
p7559
aS'no'
p7560
aaa(lp7561
g7547
a(lp7562
S'Youre'
p7563
aS'not'
p7564
aaa(lp7565
g7547
a(lp7566
S'Youre'
p7567
aS'doing'
p7568
aS'it'
p7569
aS'now'
p7570
aaa(lp7571
g7547
a(lp7572
S'Cause'
p7573
aS'you'
p7574
aS'and'
p7575
ag87
aS'arent'
p7576
aS'gonna'
p7577
aS'cry'
p7578
aS'next'
p7579
aS'February'
p7580
aaa(lp7581
g7547
a(lp7582
S'cause'
p7583
aS'it'
p7584
aS'doesnt'
p7585
aS'fit'
p7586
aS'in'
p7587
aS'your'
p7588
aS'schedule'
p7589
aaa(lp7590
g7547
a(lp7591
S'and'
p7592
aS'you'
p7593
aS'cant'
p7594
aS'graduate'
p7595
aaa(lp7596
S'GAIL'
p7597
a(lp7598
aa(lp7599
S'PATTY'
p7600
a(lp7601
S'FMRC'
p7602
aS'You'
p7603
aS'do'
p7604
aS'it'
p7605
aS'now'
p7606
aS'MRCF'
p7607
aaa(lp7608
g7600
a(lp7609
S'Oh'
p7610
ag87
ag2898
aaa(lp7611
g7600
a(lp7612
g87
aS'was'
p7613
aS'really'
p7614
aS'emphatic'
p7615
aaa(lp7616
S'MAUREEN'
p7617
a(lp7618
S'Okay'
p7619
aaa(lp7620
S'PATTY'
p7621
a(lp7622
g87
aS'said'
p7623
aaa(lp7624
S'MAUREEN'
p7625
a(lp7626
S'Get'
p7627
aS'those'
p7628
aS'people'
p7629
aS'in'
p7630
aS'here'
p7631
aaa(lp7632
S'PATTY'
p7633
a(lp7634
S'dont'
p7635
aS'come'
p7636
aS'home'
p7637
aS'until'
p7638
aS'its'
p7639
aS'scheduled'
p7640
aaa(lp7641
S'ROGER'
p7642
a(lp7643
S'Hey'
p7644
aS'Ma'
p7645
aS'you'
p7646
aS'ready'
p7647
aS'to'
p7648
aS'go'
p7649
aaa(lp7650
S'PATTY'
p7651
a(lp7652
S'So'
p7653
aS'she'
p7654
aS'came'
p7655
aS'home'
p7656
aS'Friday'
p7657
aaa(lp7658
g7651
a(lp7659
S'and'
p7660
aS'she'
p7661
aS'says'
p7662
aaa(lp7663
g7651
a(lp7664
S'oh'
p7665
aS'Mom'
p7666
aaa(lp7667
S'ROGER'
p7668
a(lp7669
S'You'
p7670
aS'have'
p7671
aS'to'
p7672
aS'go'
p7673
aS'to'
p7674
aS'the'
p7675
aS'pot'
p7676
aaa(lp7677
S'PATTY'
p7678
a(lp7679
S'she'
p7680
aS'said'
p7681
aaa(lp7682
g7678
a(lp7683
g87
aS'have'
p7684
aS'good'
p7685
aS'news'
p7686
aS'for'
p7687
aS'you'
p7688
aaa(lp7689
g7678
a(lp7690
S'And'
p7691
ag87
aS'thought'
p7692
aaa(lp7693
g7678
a(lp7694
S'yeah'
p7695
aaa(lp7696
g7678
a(lp7697
S'sure'
p7698
aS'you'
p7699
aS'do'
p7700
aaa(lp7701
g7678
a(lp7702
g87
aS'said'
p7703
aaa(lp7704
S'ROGER'
p7705
a(lp7706
S'You'
p7707
aS'gotta'
p7708
aS'go'
p7709
aS'to'
p7710
aS'the'
p7711
aS'pot'
p7712
aaa(lp7713
S'PATTY'
p7714
a(lp7715
g87
aS'said'
p7716
aaa(lp7717
S'GENEVIEVE'
p7718
a(lp7719
g87
aS'just'
p7720
aS'did'
p7721
aaa(lp7722
S'PATTY'
p7723
a(lp7724
S'she'
p7725
aS'kept'
p7726
aS'saying'
p7727
aaa(lp7728
g7723
a(lp7729
S'you'
p7730
aaa(lp7731
g7723
a(lp7732
S'youre'
p7733
aS'gonna'
p7734
aS'be'
p7735
aS'so'
p7736
aS'pleased'
p7737
aS'with'
p7738
aS'me'
p7739
aaa(lp7740
S'ROGER'
p7741
a(lp7742
S'Oh'
p7743
aaa(lp7744
S'PATTY'
p7745
a(lp7746
S'And'
p7747
ag87
aS'said'
p7748
aaa(lp7749
g7745
a(lp7750
S'well'
p7751
aaa(lp7752
g7745
a(lp7753
S'And'
p7754
aS'she'
p7755
aS'said'
p7756
aaa(lp7757
g7745
a(lp7758
g87
aS'got'
p7759
aS'health'
p7760
aS'on'
p7761
aS'my'
p7762
aS'schedule'
p7763
aaa(lp7764
g7745
a(lp7765
S'For'
p7766
aS'this'
p7767
aS'semester'
p7768
aS'and'
p7769
ag87
aS'said'
p7770
aaa(lp7771
g7745
a(lp7772
S'she'
p7773
aS'says'
p7774
ag87
aS'went'
p7775
aS'and'
p7776
ag87
aS'talked'
p7777
aS'about'
p7778
aS'it'
p7779
aaa(lp7780
g7745
a(lp7781
S'and'
p7782
aS'then'
p7783
aS'the'
p7784
aS'teacher'
p7785
aaa(lp7786
g7745
a(lp7787
g87
aS'went'
p7788
aS'to'
p7789
aS'see'
p7790
aS'the'
p7791
aS'teacher'
p7792
aS'and'
p7793
aS'he'
p7794
aS'said'
p7795
aaa(lp7796
g7745
a(lp7797
S'she'
p7798
aS'cant'
p7799
aS'take'
p7800
aS'it'
p7801
aaa(lp7802
g7745
a(lp7803
S'cause'
p7804
aS'theres'
p7805
aS'only'
p7806
aS'thirtyseven'
p7807
aS'chairs'
p7808
aaa(lp7809
g7745
a(lp7810
S'and'
p7811
ag87
aS'said'
p7812
aS'you'
p7813
aS'can'
p7814
aS'carry'
p7815
aS'your'
p7816
aS'own'
p7817
aaa(lp7818
S'GAIL'
p7819
a(lp7820
aa(lp7821
S'PATTY'
p7822
a(lp7823
S'You'
p7824
aS'tell'
p7825
aS'her'
p7826
aaa(lp7827
g7822
a(lp7828
S'youre'
p7829
aS'gonna'
p7830
aS'be'
p7831
aS'there'
p7832
aaa(lp7833
g7822
a(lp7834
S'cause'
p7835
aS'its'
p7836
aS'on'
p7837
aS'the'
p7838
aS'schedule'
p7839
aaa(lp7840
g7822
a(lp7841
S'and'
p7842
aS'if'
p7843
aS'you'
p7844
aS'have'
p7845
aS'to'
p7846
aS'carry'
p7847
aS'your'
p7848
aS'own'
p7849
aS'chair'
p7850
aaa(lp7851
g7822
a(lp7852
S'youre'
p7853
aS'gonna'
p7854
aS'be'
p7855
aS'there'
p7856
aaa(lp7857
g7822
a(lp7858
S'because'
p7859
aS'youre'
p7860
aS'gonna'
p7861
aS'do'
p7862
aS'it'
p7863
aS'now'
p7864
aaa(lp7865
g7822
a(lp7866
S'and'
p7867
aS'next'
p7868
aS'semester'
p7869
aS'that'
p7870
aS'its'
p7871
aS'like'
p7872
aaa(lp7873
g7822
a(lp7874
S'not'
p7875
aS'hanging'
p7876
aS'over'
p7877
aS'your'
p7878
aS'head'
p7879
aaa(lp7880
S'MAUREEN'
p7881
a(lp7882
S'Dale'
p7883
aS'will'
p7884
aS'you'
p7885
aS'help'
p7886
aS'Mom'
p7887
aS'out'
p7888
aaa(lp7889
S'PATTY'
p7890
a(lp7891
g11
aS'She'
p7892
aS'goes'
p7893
aS'Sam'
p7894
aS'was'
p7895
aS'like'
p7896
ag11
aaa(lp7897
g7890
a(lp7898
S'oh'
p7899
aS'dont'
p7900
aS'worry'
p7901
aaa(lp7902
S'GAIL'
p7903
a(lp7904
aa(lp7905
S'PATTY'
p7906
a(lp7907
S'no'
p7908
aS'sweat'
p7909
aS'Mom'
p7910
aaa(lp7911
S'MAUREEN'
p7912
a(lp7913
S'XX'
p7914
aaa(lp7915
S'PATTY'
p7916
a(lp7917
S'Ill'
p7918
aS'do'
p7919
aS'it'
p7920
aaa(lp7921
g7916
a(lp7922
S'you'
p7923
aS'know'
p7924
aS'what'
p7925
ag87
aS'mean'
p7926
aaa(lp7927
S'GAIL'
p7928
a(lp7929
S'Oh'
p7930
aaa(lp7931
S'PATTY'
p7932
a(lp7933
aa(lp7934
S'GAIL'
p7935
a(lp7936
S'like'
p7937
aS'Robert'
p7938
aaa(lp7939
S'PATTY'
p7940
a(lp7941
S'Yes'
p7942
aaa(lp7943
g7940
a(lp7944
S'yes'
p7945
aaa(lp7946
S'GAIL'
p7947
a(lp7948
S'Okay'
p7949
aaa(lp7950
S'PATTY'
p7951
a(lp7952
S'oh'
p7953
aS'its'
p7954
aS'scary'
p7955
aaa(lp7956
g7951
a(lp7957
S'And'
p7958
ag87
aS'said'
p7959
aaa(lp7960
g7951
a(lp7961
S'you'
p7962
aS'will'
p7963
aaa(lp7964
g7951
a(lp7965
S'PAR'
p7966
ag87
aS'lost'
p7967
aS'my'
p7968
aS'bracelet'
p7969
aaa(lp7970
g7951
a(lp7971
S'Its'
p7972
aS'under'
p7973
aS'your'
p7974
aS'foot'
p7975
aS'PAR'
p7976
aaa(lp7977
g7951
a(lp7978
S'And'
p7979
ag87
aS'said'
p7980
aaa(lp7981
g7951
a(lp7982
S'and'
p7983
aaa(lp7984
S'MAUREEN'
p7985
a(lp7986
S'Chairs'
p7987
aaa(lp7988
S'PATTY'
p7989
a(lp7990
S'if'
p7991
aS'you'
p7992
aS'wanna'
p7993
aS'go'
p7994
aS'out'
p7995
aS'tonight'
p7996
aaa(lp7997
g7989
a(lp7998
S'youre'
p7999
aS'not'
p8000
aS'getting'
p8001
aS'my'
p8002
aS'keys'
p8003
aS'to'
p8004
aS'my'
p8005
aS'car'
p8006
aaa(lp8007
g7989
a(lp8008
S'until'
p8009
aS'we'
p8010
aS'finish'
p8011
aS'this'
p8012
aS'conversation'
p8013
aaa(lp8014
S'GAIL'
p8015
a(lp8016
aa(lp8017
S'PATTY'
p8018
a(lp8019
g87
aS'got'
p8020
aS'really'
p8021
aS'nasty'
p8022
aaa(lp8023
S'ROGER'
p8024
a(lp8025
g11
aS'Now'
p8026
aS'Im'
p8027
aS'not'
p8028
aS'worried'
p8029
aS'Im'
p8030
ag11
aS'forgetting'
p8031
aS'my'
p8032
aS'shoes'
p8033
aaa(lp8034
S'GAIL'
p8035
a(lp8036
aa(lp8037
g8035
a(lp8038
S'Yeah'
p8039
aaa(lp8040
S'PATTY'
p8041
a(lp8042
S'But'
p8043
aS'she'
p8044
aS'went'
p8045
aS'the'
p8046
aS'next'
p8047
aS'day'
p8048
aS'and'
p8049
aS'she'
p8050
aS'did'
p8051
aS'it'
p8052
aaa(lp8053
g8041
a(lp8054
g87
aS'thought'
p8055
aaa(lp8056
g8041
a(lp8057
S'okay'
p8058
aaa(lp8059
S'GAIL'
p8060
a(lp8061
S'Well'
p8062
aS'thats'
p8063
aS'good'
p8064
aaa(lp8065
S'PATTY'
p8066
a(lp8067
S'just'
p8068
aS'keep'
p8069
aS'doing'
p8070
aS'it'
p8071
ag11
ag11
aS'baby'
p8072
ag11
aaa(lp8073
S'GAIL'
p8074
a(lp8075
S'shes'
p8076
aS'learning'
p8077
aaa(lp8078
g8074
a(lp8079
S'Right'
p8080
aaa(lp8081
S'PATTY'
p8082
a(lp8083
S'just'
p8084
aS'keep'
p8085
aS'do'
p8086
aaa(lp8087
g8082
a(lp8088
S'Shes'
p8089
aS'learning'
p8090
aaa(lp8091
g8082
a(lp8092
g87
aS'mean'
p8093
aS'it'
p8094
aaa(lp8095
g8082
a(lp8096
g87
aS'mean'
p8097
aS'business'
p8098
aaa(lp8099
S'ROGER'
p8100
a(lp8101
S'Go'
p8102
aS'out'
p8103
aS'this'
p8104
aS'way'
p8105
aaa(lp8106
S'GAIL'
p8107
a(lp8108
S'Yeah'
p8109
aaa(lp8110
S'PATTY'
p8111
a(lp8112
g87
aS'dont'
p8113
aS'know'
p8114
aS'which'
p8115
aS'ways'
p8116
aS'better'
p8117
aS'for'
p8118
aS'her'
p8119
aS'to'
p8120
aS'go'
p8121
aS'out'
p8122
aaa(lp8123
S'ROGER'
p8124
a(lp8125
S'Whats'
p8126
aS'the'
p8127
aS'best'
p8128
aS'way'
p8129
aaa(lp8130
S'GAIL'
p8131
a(lp8132
S'That'
p8133
aS'way'
p8134
aaa(lp8135
S'PATTY'
p8136
a(lp8137
g87
aaa(lp8138
g8136
a(lp8139
S'That'
p8140
aS'way'
p8141
aaa(lp8142
S'GAIL'
p8143
a(lp8144
S'Even'
p8145
aS'though'
p8146
aS'you'
p8147
aS'have'
p8148
aS'to'
p8149
aS'walk'
p8150
ag338
aS'little'
p8151
aS'further'
p8152
aaa(lp8153
S'PATTY'
p8154
a(lp8155
S'Yeah'
p8156
aaa(lp8157
g8154
a(lp8158
S'maybe'
p8159
aaa(lp8160
g8154
a(lp8161
S'cause'
p8162
aS'of'
p8163
aS'the'
p8164
aS'railing'
p8165
aaa(lp8166
g8154
a(lp8167
S'hunh'
p8168
aaa(lp8169
S'GAIL'
p8170
a(lp8171
S'because'
p8172
aS'theres'
p8173
aS'railings'
p8174
aaa(lp8175
S'PATTY'
p8176
a(lp8177
S'Can'
p8178
ag87
aS'carry'
p8179
aS'something'
p8180
aaa(lp8181
S'GAIL'
p8182
a(lp8183
S'and'
p8184
aS'theyre'
p8185
aS'not'
p8186
aS'as'
p8187
aaa(lp8188
g8182
a(lp8189
S'Yes'
p8190
aaa(lp8191
g8182
a(lp8192
S'that'
p8193
aS'can'
p8194
aS'go'
p8195
aS'out'
p8196
aaa(lp8197
S'PATTY'
p8198
a(lp8199
S'This'
p8200
aaa(lp8201
g8198
a(lp8202
S'Out'
p8203
aS'to'
p8204
aS'the'
p8205
aS'big'
p8206
aS'table'
p8207
aaa(lp8208
g8198
a(lp8209
S'Right'
p8210
aaa(lp8211
S'ROGER'
p8212
a(lp8213
g11
aS'You'
p8214
aS'walk'
p8215
aS'the'
p8216
aS'grass'
p8217
ag11
aaa(lp8218
g8212
a(lp8219
S'Here'
p8220
aaa(lp8221
S'GENEVIEVE'
p8222
a(lp8223
S'Well'
p8224
aS'weve'
p8225
aS'gotta'
p8226
aS'XXX'
p8227
aaa(lp8228
g8222
a(lp8229
S'Im'
p8230
aS'slow'
p8231
aaa(lp8232
S'ROGER'
p8233
a(lp8234
S'What'
p8235
aaa(lp8236
S'MAUREEN'
p8237
a(lp8238
S'Take'
p8239
aS'your'
p8240
aS'time'
p8241
aaa(lp8242
S'ROGER'
p8243
a(lp8244
S'Yeah'
p8245
aaa(lp8246
g8243
a(lp8247
S'no'
p8248
aS'hurry'
p8249
aaa(lp8250
g8243
a(lp8251
S'Let'
p8252
aS'me'
p8253
aS'get'
p8254
aS'in'
p8255
aS'front'
p8256
aaa.