(lp0
(lp1
S'ENV'
p2
a(lp3
aa(lp4
S'JILL'
p5
a(lp6
S'Hello'
p7
aaa(lp8
S'JEFF'
p9
a(lp10
S'Hows'
p11
aS'my'
p12
aS'favorite'
p13
aS'girl'
p14
aS'in'
p15
aS'the'
p16
aS'world'
p17
aaa(lp18
S'JILL'
p19
a(lp20
S'Hey'
p21
aS'baby'
p22
aaa(lp23
S'JEFF'
p24
a(lp25
S'Whos'
p26
aaa(lp27
g24
a(lp28
S'Whos'
p29
aS'the'
p30
aS'girl'
p31
aS'that'
p32
aS'I'
p33
aS'love'
p34
aaa(lp35
S'JILL'
p36
a(lp37
aa(lp38
S'JEFF'
p39
a(lp40
S'Whos'
p41
aS'the'
p42
aS'girl'
p43
aS'that'
p44
aS'Ill'
p45
aS'do'
p46
aS'anything'
p47
aS'for'
p48
aaa(lp49
S'JILL'
p50
a(lp51
aa(lp52
S'JEFFIll'
p53
a(lp54
S'wash'
p55
aS'her'
p56
aS'feet'
p57
aS'with'
p58
aS'my'
p59
aS'mouth'
p60
aaa(lp61
S'JILL'
p62
a(lp63
S'Aw'
p64
aS'honey'
p65
aaa(lp66
g62
a(lp67
S'how'
p68
aS'are'
p69
aS'you'
p70
aaa(lp71
S'JEFF'
p72
a(lp73
aa(lp74
g72
a(lp75
S'after'
p76
aS'a'
p77
aS'ten'
p78
aS'mile'
p79
aS'run'
p80
aaa(lp81
S'JILLEw'
p82
a(lp83
aa(lp84
S'JEFF'
p85
a(lp86
g33
aS'would'
p87
aaa(lp88
S'JILL'
p89
a(lp90
S'Ew'
p91
aaa(lp92
S'JEFFI'
p93
a(lp94
S'would'
p95
aaa(lp96
S'JILLEw'
p97
a(lp98
aa(lp99
S'JEFF'
p100
a(lp101
aa(lp102
S'JILL'
p103
a(lp104
aa(lp105
S'JEFF'
p106
a(lp107
aa(lp108
S'JILL'
p109
a(lp110
aa(lp111
g109
a(lp112
S'How'
p113
aS'are'
p114
aS'you'
p115
aaa(lp116
g109
a(lp117
S'honey'
p118
aaa(lp119
S'JEFF'
p120
a(lp121
aa(lp122
g120
a(lp123
S'Im'
p124
aS'doing'
p125
aS'good'
p126
aaa(lp127
S'JILL'
p128
a(lp129
g33
aS'miss'
p130
aS'you'
p131
aaa(lp132
S'JEFF'
p133
a(lp134
aa(lp135
S'JILL'
p136
a(lp137
aa(lp138
S'JEFF'
p139
a(lp140
g33
aS'miss'
p141
aS'you'
p142
aS'too'
p143
aaa(lp144
S'JILL'
p145
a(lp146
S'Hm'
p147
aaa(lp148
S'JEFFHows'
p149
a(lp150
S'my'
p151
aS'favorite'
p152
aS'girl'
p153
aaa(lp154
S'JILL'
p155
a(lp156
aa(lp157
g155
a(lp158
S'Im'
p159
aS'good'
p160
aaa(lp161
S'JEFF'
p162
a(lp163
S'Is'
p164
aS'she'
p165
aaa(lp166
g162
a(lp167
S'Is'
p168
aS'she'
p169
aS'okay'
p170
aaa(lp171
S'JILL'
p172
a(lp173
S'Unhunh'
p174
aaa(lp175
S'JEFFAre'
p176
a(lp177
S'you'
p178
aS'guys'
p179
aS'having'
p180
aS'fun'
p181
aaa(lp182
S'JILLYes'
p183
a(lp184
aa(lp185
S'JEFF'
p186
a(lp187
S'Im'
p188
aS'so'
p189
aS'glad'
p190
aaa(lp191
S'JILL'
p192
a(lp193
S'Aw'
p194
aaa(lp195
S'JEFF'
p196
a(lp197
aa(lp198
S'JILL'
p199
a(lp200
S'm'
p201
aaa(lp202
S'JEFF'
p203
a(lp204
aa(lp205
S'JILL'
p206
a(lp207
aa(lp208
S'JEFFWhat'
p209
a(lp210
S'are'
p211
aS'you'
p212
aS'going'
p213
aS'into'
p214
aS'purr'
p215
aS'mode'
p216
aaa(lp217
S'JILL'
p218
a(lp219
aa(lp220
S'JEFF'
p221
a(lp222
aa(lp223
S'JILLOh'
p224
a(lp225
aa(lp226
g224
a(lp227
S'gosh'
p228
aaa(lp229
g224
a(lp230
S'we'
p231
aS'kept'
p232
aS'missing'
p233
aS'you'
p234
aaa(lp235
g224
a(lp236
S'Hunh'
p237
aaa(lp238
S'JEFF'
p239
a(lp240
g33
aS'know'
p241
aaa(lp242
g239
a(lp243
S'its'
p244
aS'been'
p245
ag77
aS'while'
p246
aaa(lp247
S'JILLLast'
p248
a(lp249
S'night'
p250
aaa(lp251
g248
a(lp252
S'and'
p253
aS'today'
p254
aaa(lp255
S'JEFFIts'
p256
a(lp257
S'been'
p258
ag77
aS'long'
p259
aS'time'
p260
aaa(lp261
S'JILL'
p262
a(lp263
S'Its'
p264
aS'been'
p265
aS'so'
p266
aS'long'
p267
aaa(lp268
g262
a(lp269
g33
aS'know'
p270
aaa(lp271
g262
a(lp272
S'You'
p273
aS'missed'
p274
aS'like'
p275
aS'all'
p276
aS'the'
p277
aS'drama'
p278
aS'here'
p279
aaa(lp280
S'JEFF'
p281
a(lp282
S'No'
p283
aS'drama'
p284
aaa(lp285
S'JILLYeah'
p286
a(lp287
aa(lp288
g286
a(lp289
S'there'
p290
aS'was'
p291
aS'such'
p292
aS'drama'
p293
aaa(lp294
g286
a(lp295
S'There'
p296
aS'was'
p297
aS'drama'
p298
aaa(lp299
g286
a(lp300
S'and'
p301
aS'there'
p302
aS'was'
p303
aS'suspense'
p304
aaa(lp305
g286
a(lp306
S'And'
p307
aS'then'
p308
aS'there'
p309
aS'was'
p310
aS'relief'
p311
aaa(lp312
g286
a(lp313
S'and'
p314
aS'then'
p315
aS'there'
p316
aS'was'
p317
aS'ecstasy'
p318
aaa(lp319
S'JEFF'
p320
a(lp321
aa(lp322
g320
a(lp323
S'No'
p324
aaa(lp325
S'JILL'
p326
a(lp327
S'Well'
p328
aaa(lp329
g326
a(lp330
S'Ill'
p331
aaa(lp332
S'JEFFNot'
p333
a(lp334
S'the'
p335
aS'ecstasy'
p336
aaa(lp337
S'JILL'
p338
a(lp339
aa(lp340
g338
a(lp341
S'Ecstasy'
p342
aS'of'
p343
aS'sorts'
p344
aaa(lp345
S'JEFF'
p346
a(lp347
S'X'
p348
aS'Wait'
p349
ag348
aaa(lp350
g346
a(lp351
S'tell'
p352
aS'me'
p353
aS'what'
p354
aaa(lp355
g346
a(lp356
S'Well'
p357
aS'see'
p358
ag33
aaa(lp359
g346
a(lp360
S'The'
p361
aS'reas'
p362
aaa(lp363
g346
a(lp364
g33
aS'have'
p365
aaa(lp366
g346
a(lp367
g33
aS'kinda'
p368
aaa(lp369
g346
a(lp370
g33
aS'wasnt'
p371
aS'inclined'
p372
aS'to'
p373
aS'call'
p374
aS'you'
p375
aaa(lp376
S'JILLUnhunh'
p377
a(lp378
aa(lp379
S'JEFF'
p380
a(lp381
S'Because'
p382
ag33
aS'just'
p383
aS'wanted'
p384
aS'to'
p385
aS'give'
p386
aS'you'
p387
aS'and'
p388
aS'Jill'
p389
aS'your'
p390
aS'time'
p391
aaa(lp392
S'JILL'
p393
a(lp394
S'Yeah'
p395
aaa(lp396
S'JEFF'
p397
a(lp398
S'You'
p399
aS'know'
p400
aaa(lp401
g397
a(lp402
S'Like'
p403
ag33
aS'felt'
p404
aS'like'
p405
aaa(lp406
S'JILL'
p407
a(lp408
S'Totally'
p409
aaa(lp410
S'JEFF'
p411
a(lp412
S'you'
p413
aS'know'
p414
aaa(lp415
g411
a(lp416
S'so'
p417
aS'thats'
p418
aaa(lp419
g411
a(lp420
g33
aS'let'
p421
aaa(lp422
g411
a(lp423
S'There'
p424
aS'were'
p425
ag77
aS'couple'
p426
aS'times'
p427
aS'when'
p428
ag33
aS'wanted'
p429
aS'to'
p430
aS'call'
p431
aS'you'
p432
aaa(lp433
g411
a(lp434
S'and'
p435
ag33
aS'didnt'
p436
aS'for'
p437
aS'that'
p438
aS'reason'
p439
aaa(lp440
S'JILL'
p441
a(lp442
S'Uh'
p443
aaa(lp444
g441
a(lp445
S'Unhunh'
p446
aaa(lp447
g441
a(lp448
S'Aw'
p449
aS'thanks'
p450
aaa(lp451
g441
a(lp452
S'Yeah'
p453
aaa(lp454
g441
a(lp455
S'well'
p456
aS'the'
p457
aS'thing'
p458
aS'was'
p459
aaa(lp460
g441
a(lp461
g33
aS'hadnt'
p462
aS'told'
p463
aS'you'
p464
aaa(lp465
g441
a(lp466
S'But'
p467
aS'my'
p468
aS'period'
p469
aS'is'
p470
aS'really'
p471
aS'late'
p472
aaa(lp473
g441
a(lp474
S'You'
p475
aS'know'
p476
aaa(lp477
g441
a(lp478
S'And'
p479
ag33
aS'guess'
p480
aaa(lp481
g441
a(lp482
S'we'
p483
aS'would'
p484
aS'talk'
p485
aaa(lp486
g441
a(lp487
S'and'
p488
aS'then'
p489
aS'wed'
p490
aS'hang'
p491
aS'up'
p492
aaa(lp493
g441
a(lp494
S'and'
p495
aS'then'
p496
ag33
aS'thought'
p497
aaa(lp498
g441
a(lp499
S'oh'
p500
aaa(lp501
g441
a(lp502
S'gosh'
p503
aaa(lp504
g441
a(lp505
g33
aS'forgot'
p506
aS'to'
p507
aS'tell'
p508
aS'you'
p509
aaa(lp510
g441
a(lp511
S'But'
p512
aaa(lp513
S'JEFFIve'
p514
a(lp515
S'been'
p516
aS'meaning'
p517
aS'to'
p518
aS'ask'
p519
aS'you'
p520
aS'about'
p521
aS'that'
p522
aaa(lp523
S'JILLReally'
p524
a(lp525
aa(lp526
g524
a(lp527
S'You'
p528
aS'were'
p529
ag348
aS'getting'
p530
aS'nervous'
p531
ag348
aaa(lp532
S'JEFFYou'
p533
a(lp534
S'havent'
p535
aS'had'
p536
aS'it'
p537
aS'yet'
p538
aaa(lp539
S'JILL'
p540
a(lp541
S'No'
p542
aaa(lp543
g540
a(lp544
g33
aS'mean'
p545
aaa(lp546
g540
a(lp547
S'and'
p548
aS'its'
p549
aS'been'
p550
aS'so'
p551
aS'long'
p552
aaa(lp553
g540
a(lp554
S'And'
p555
aS'so'
p556
aS'its'
p557
aS'like'
p558
aS'eight'
p559
aS'days'
p560
aS'late'
p561
aaa(lp562
g540
a(lp563
S'And'
p564
ag33
aS'thought'
p565
aaa(lp566
g540
a(lp567
S'Im'
p568
aS'sure'
p569
aS'Im'
p570
aS'pregnant'
p571
aaa(lp572
g540
a(lp573
S'Im'
p574
aS'positive'
p575
aaa(lp576
g540
a(lp577
S'And'
p578
ag33
aS'was'
p579
aS'waiting'
p580
aS'till'
p581
aS'Jill'
p582
aS'got'
p583
aS'here'
p584
aaa(lp585
S'JEFFWHX'
p586
a(lp587
S'Thats'
p588
aS'bad'
p589
aS'XWH'
p590
aaa(lp591
S'JILL'
p592
a(lp593
S'to'
p594
aS'even'
p595
aS'try'
p596
aS'to'
p597
aS'check'
p598
aaa(lp599
S'JEFF'
p600
a(lp601
S'Oh'
p602
aaa(lp603
g600
a(lp604
S'Yeah'
p605
aaa(lp606
S'JILL'
p607
a(lp608
S'And'
p609
aS'um'
p610
aaa(lp611
g607
a(lp612
S'so'
p613
aS'we'
p614
aS'went'
p615
aS'to'
p616
aS'go'
p617
aS'get'
p618
aS'an'
p619
aS'EPT'
p620
aaa(lp621
g607
a(lp622
S'at'
p623
aS'pregnancy'
p624
aS'test'
p625
aaa(lp626
S'JEFFX'
p627
a(lp628
S'Yeah'
p629
ag348
aaa(lp630
S'JILLAnd'
p631
a(lp632
S'then'
p633
aS'we'
p634
aS'd'
p635
aaa(lp636
g631
a(lp637
S'Thats'
p638
aS'why'
p639
aS'we'
p640
aS'were'
p641
aS'calling'
p642
aS'you'
p643
aS'last'
p644
aS'night'
p645
aaa(lp646
g631
a(lp647
S'You'
p648
aS'know'
p649
aaa(lp650
S'JEFFWhat'
p651
a(lp652
S'happened'
p653
aaa(lp654
S'JILL'
p655
a(lp656
S'And'
p657
aS'then'
p658
aaa(lp659
g655
a(lp660
S'of'
p661
aS'course'
p662
aS'it'
p663
aS'came'
p664
aS'out'
p665
aS'fine'
p666
aaa(lp667
g655
a(lp668
S'So'
p669
aS'thats'
p670
aS'the'
p671
aaa(lp672
S'JEFF'
p673
a(lp674
S'It'
p675
aS'came'
p676
aS'out'
p677
aS'negative'
p678
aaa(lp679
S'JILLYeah'
p680
a(lp681
aa(lp682
g680
a(lp683
S'so'
p684
aS'thats'
p685
aS'the'
p686
aS'relief'
p687
aS'and'
p688
aS'the'
p689
aS'ecstasy'
p690
aaa(lp691
S'JEFF'
p692
a(lp693
S'So'
p694
aaa(lp695
g692
a(lp696
S'y'
p697
aS'you'
p698
aS'cant'
p699
aS'be'
p700
aS'pregnant'
p701
aaa(lp702
S'JILL'
p703
a(lp704
S'No'
p705
aaa(lp706
g703
a(lp707
g33
aS'dont'
p708
aaa(lp709
g703
a(lp710
S'No'
p711
aaa(lp712
g703
a(lp713
S'Unless'
p714
aS'it'
p715
aS'was'
p716
ag77
aS'false'
p717
aS'negative'
p718
aaa(lp719
S'JEFF'
p720
a(lp721
g348
aaa(lp722
S'JILLwhich'
p723
a(lp724
g33
aS'doubt'
p725
aaa(lp726
g723
a(lp727
S'Because'
p728
aaa(lp729
S'JEFF'
p730
a(lp731
S'Thats'
p732
aS'rare'
p733
aaa(lp734
g730
a(lp735
S'Right'
p736
aaa(lp737
S'JILL'
p738
a(lp739
S'Right'
p740
aaa(lp741
g738
a(lp742
g33
aS'think'
p743
aS'that'
p744
aS'would'
p745
aS'be'
p746
aS'really'
p747
aS'rare'
p748
aaa(lp749
S'JEFF'
p750
a(lp751
S'So'
p752
aaa(lp753
g750
a(lp754
S'th'
p755
aS'you'
p756
aS'know'
p757
aS'what'
p758
ag33
aS'mean'
p759
aaa(lp760
g750
a(lp761
S'like'
p762
aS'can'
p763
aaa(lp764
g750
a(lp765
S'would'
p766
aS'it'
p767
aS'come'
p768
aS'out'
p769
aS'nega'
p770
aaa(lp771
g750
a(lp772
S'Lets'
p773
aS'say'
p774
aS'i'
p775
ag775
aS'f'
p776
aS'you'
p777
aS'were'
p778
aS'pregnant'
p779
aaa(lp780
g750
a(lp781
S'in'
p782
aS'its'
p783
aS'early'
p784
aS'st'
p785
aaa(lp786
g750
a(lp787
S'early'
p788
aS'early'
p789
aS'stages'
p790
aaa(lp791
S'JILL'
p792
a(lp793
S'Mhm'
p794
aaa(lp795
S'JEFFLike'
p796
a(lp797
S'wo'
p798
aaa(lp799
g796
a(lp800
S'Like'
p801
aS'would'
p802
ag77
aS'negative'
p803
aaa(lp804
g796
a(lp805
S'You'
p806
aS'know'
p807
aS'what'
p808
aS'Im'
p809
aS'saying'
p810
aaa(lp811
S'JILL'
p812
a(lp813
S'M'
p814
aaa(lp815
S'JEFFLike'
p816
a(lp817
S'could'
p818
aS'you'
p819
aS'get'
p820
aaa(lp821
g816
a(lp822
S'Is'
p823
aS'it'
p824
aS'possible'
p825
aS'that'
p826
aS'you'
p827
aS'could'
p828
aS'still'
p829
aS'be'
p830
aS'posi'
p831
aS'positive'
p832
aaa(lp833
S'JILL'
p834
a(lp835
g33
aS'think'
p836
aS'thered'
p837
aS'be'
p838
ag77
aS'slight'
p839
aS'chance'
p840
aaa(lp841
g834
a(lp842
S'of'
p843
aS'it'
p844
aS'being'
p845
ag77
aS'false'
p846
aS'negative'
p847
aaa(lp848
g834
a(lp849
S'But'
p850
aaa(lp851
g834
a(lp852
g33
aS'dont'
p853
aS'think'
p854
aS'so'
p855
aaa(lp856
g834
a(lp857
S'cause'
p858
aS'Im'
p859
aS'pretty'
p860
aS'late'
p861
aaa(lp862
g834
a(lp863
S'And'
p864
ag33
aS'think'
p865
aS'Im'
p866
aS'late'
p867
aS'enough'
p868
aaa(lp869
g834
a(lp870
S'where'
p871
ag33
aS'would'
p872
aS'have'
p873
aaa(lp874
g834
a(lp875
S'like'
p876
aaa(lp877
g834
a(lp878
S'enough'
p879
aS'of'
p880
aS'the'
p881
aS'hormone'
p882
aS'that'
p883
aS'the'
p884
aS'pregnancy'
p885
aS'test'
p886
aS'tests'
p887
aS'for'
p888
aaa(lp889
g834
a(lp890
g33
aS'think'
p891
ag33
aS'would'
p892
aS'have'
p893
aS'enough'
p894
aS'of'
p895
aS'that'
p896
aS'in'
p897
aS'my'
p898
aS'urine'
p899
aaa(lp900
g834
a(lp901
S'that'
p902
aS'of'
p903
aS'course'
p904
aS'it'
p905
aS'would'
p906
aS'show'
p907
aS'up'
p908
aaa(lp909
g834
a(lp910
S'if'
p911
ag33
aS'had'
p912
aS'any'
p913
aS'in'
p914
aS'there'
p915
aaa(lp916
S'JEFF'
p917
a(lp918
S'Yeah'
p919
aaa(lp920
S'JILL'
p921
a(lp922
S'You'
p923
aS'know'
p924
aaa(lp925
g921
a(lp926
S'So'
p927
ag33
aaa(lp928
g921
a(lp929
g33
aS'Im'
p930
aS'pret'
p931
aaa(lp932
g921
a(lp933
g33
aS'took'
p934
aS'that'
p935
aS'as'
p936
ag77
aS'pretty'
p937
aS'good'
p938
aS'sign'
p939
aaa(lp940
S'JEFF'
p941
a(lp942
S'Oh'
p943
aS'my'
p944
aS'god'
p945
aaa(lp946
S'JILL'
p947
a(lp948
S'You'
p949
aS'know'
p950
aaa(lp951
S'JEFFHoney'
p952
a(lp953
aa(lp954
g952
a(lp955
S'how'
p956
aS'come'
p957
aS'youve'
p958
aS'been'
p959
aS'keeping'
p960
aS'all'
p961
aS'this'
p962
aS'inside'
p963
aaa(lp964
S'JILL'
p965
a(lp966
g33
aS'know'
p967
aaa(lp968
g965
a(lp969
g33
aS'didnt'
p970
aS'mean'
p971
aS'to'
p972
aS'keep'
p973
aS'it'
p974
aS'inside'
p975
aaa(lp976
S'JEFF'
p977
a(lp978
g348
aaa(lp979
S'JILLI'
p980
a(lp981
S'mean'
p982
aaa(lp983
g980
a(lp984
g33
aS'didnt'
p985
aS'mean'
p986
aaa(lp987
S'JEFFDont'
p988
a(lp989
S'you'
p990
aS'love'
p991
aS'me'
p992
aaa(lp993
S'JILLOh'
p994
a(lp995
aa(lp996
S'JEFFAw'
p997
a(lp998
aa(lp999
S'JILLI'
p1000
a(lp1001
S'didnt'
p1002
aS'mean'
p1003
aS'to'
p1004
aS'not'
p1005
aS'tell'
p1006
aS'you'
p1007
aS'at'
p1008
aS'all'
p1009
aaa(lp1010
g1000
a(lp1011
S'It'
p1012
aS'was'
p1013
aS'just'
p1014
aaa(lp1015
g1000
a(lp1016
S'we'
p1017
aS'would'
p1018
aS'hang'
p1019
aS'up'
p1020
aS'the'
p1021
aS'phone'
p1022
aaa(lp1023
g1000
a(lp1024
S'then'
p1025
ag33
aS'thought'
p1026
aaa(lp1027
g1000
a(lp1028
S'oh'
p1029
aS'yeah'
p1030
aaa(lp1031
g1000
a(lp1032
g33
aS'forgot'
p1033
aS'to'
p1034
aS'mention'
p1035
aS'that'
p1036
aS'Im'
p1037
aS'kinda'
p1038
aS'late'
p1039
aaa(lp1040
g1000
a(lp1041
S'Cause'
p1042
ag33
aS'didnt'
p1043
aS'think'
p1044
aS'it'
p1045
aS'was'
p1046
ag77
aS'huge'
p1047
aS'deal'
p1048
aaa(lp1049
g1000
a(lp1050
S'but'
p1051
aS'then'
p1052
aaa(lp1053
g1000
a(lp1054
g33
aS'guess'
p1055
ag33
aS'wasnt'
p1056
aS'trying'
p1057
aaa(lp1058
g1000
a(lp1059
g33
aS'think'
p1060
ag33
aS'was'
p1061
aS'in'
p1062
ag77
aS'bit'
p1063
aS'of'
p1064
aS'denial'
p1065
aaa(lp1066
g1000
a(lp1067
S'Like'
p1068
ag33
aS'wasnt'
p1069
aS'really'
p1070
aS'thinking'
p1071
aS'about'
p1072
aS'it'
p1073
aS'much'
p1074
aaa(lp1075
g1000
a(lp1076
S'You'
p1077
aS'know'
p1078
aaa(lp1079
g1000
a(lp1080
S'cause'
p1081
ag33
aS'knew'
p1082
aS'once'
p1083
aS'Jill'
p1084
aS'got'
p1085
aS'here'
p1086
aaa(lp1087
g1000
a(lp1088
S'then'
p1089
ag33
aS'would'
p1090
aS'go'
p1091
aS'get'
p1092
aS'the'
p1093
aS'test'
p1094
aaa(lp1095
S'JEFF'
p1096
a(lp1097
S'So'
p1098
aS'is'
p1099
aS'that'
p1100
aS'all'
p1101
aS'the'
p1102
aS'drama'
p1103
aaa(lp1104
S'JILL'
p1105
a(lp1106
S'That'
p1107
aS'was'
p1108
aS'the'
p1109
aS'drama'
p1110
aaa(lp1111
g1105
a(lp1112
S'And'
p1113
aS'that'
p1114
aS'was'
p1115
aS'the'
p1116
aS'suspense'
p1117
aaa(lp1118
g1105
a(lp1119
S'and'
p1120
aS'that'
p1121
aS'was'
p1122
aS'the'
p1123
aS'relief'
p1124
aaa(lp1125
g1105
a(lp1126
S'and'
p1127
aS'that'
p1128
aS'was'
p1129
aS'the'
p1130
aS'ecstasy'
p1131
aaa(lp1132
S'JEFF'
p1133
a(lp1134
S'Really'
p1135
aaa(lp1136
S'JILLUnhunh'
p1137
a(lp1138
aa(lp1139
S'JEFF'
p1140
a(lp1141
S'Oh'
p1142
aaa(lp1143
g1140
a(lp1144
S'honey'
p1145
aaa(lp1146
S'JILL'
p1147
a(lp1148
S'Oh'
p1149
aaa(lp1150
S'JEFFLittle'
p1151
a(lp1152
S'bunny'
p1153
aS'is'
p1154
aS'going'
p1155
aS'through'
p1156
aS'the'
p1157
aS'whole'
p1158
aS'wide'
p1159
aS'spectrum'
p1160
aS'of'
p1161
aS'emotions'
p1162
aaa(lp1163
S'JILL'
p1164
a(lp1165
aa(lp1166
S'JEFF'
p1167
a(lp1168
aa(lp1169
S'JILL'
p1170
a(lp1171
aa(lp1172
S'JEFFShes'
p1173
a(lp1174
S'doing'
p1175
aS'it'
p1176
aS'without'
p1177
aS'me'
p1178
aaa(lp1179
S'JILL'
p1180
a(lp1181
aa(lp1182
S'JEFF'
p1183
a(lp1184
S'Shes'
p1185
aS'going'
p1186
aS'solo'
p1187
aS'on'
p1188
aS'this'
p1189
aaa(lp1190
S'JILLIm'
p1191
a(lp1192
S'going'
p1193
aS'solo'
p1194
aaa(lp1195
S'JEFFThis'
p1196
a(lp1197
S'is'
p1198
aS'Jillpan'
p1199
aS'going'
p1200
aS'solo'
p1201
aaa(lp1202
S'JILL'
p1203
a(lp1204
g33
aS'know'
p1205
aaa(lp1206
S'JEFF'
p1207
a(lp1208
aa(lp1209
S'JILLI'
p1210
a(lp1211
S'thought'
p1212
aS'it'
p1213
aS'was'
p1214
aS'so'
p1215
aS'funny'
p1216
aaa(lp1217
g1210
a(lp1218
S'last'
p1219
aS'night'
p1220
aaa(lp1221
g1210
a(lp1222
S'like'
p1223
aS'what'
p1224
aS'if'
p1225
aS'it'
p1226
aS'came'
p1227
aS'back'
p1228
aS'positive'
p1229
aaa(lp1230
g1210
a(lp1231
S'And'
p1232
aS'then'
p1233
aS'that'
p1234
aS'would'
p1235
aS'mean'
p1236
aaa(lp1237
g1210
a(lp1238
S'the'
p1239
aS'next'
p1240
aS'time'
p1241
ag33
aS'talked'
p1242
aS'to'
p1243
aS'you'
p1244
aaa(lp1245
g1210
a(lp1246
S'Id'
p1247
aS'be'
p1248
aS'telling'
p1249
aS'you'
p1250
aS'that'
p1251
ag33
aS'was'
p1252
aS'pregnant'
p1253
aaa(lp1254
g1210
a(lp1255
S'And'
p1256
aS'then'
p1257
ag33
aS'thought'
p1258
aS'gosh'
p1259
aaa(lp1260
g1210
a(lp1261
S'poor'
p1262
aS'Jeff'
p1263
aaa(lp1264
g1210
a(lp1265
S'like'
p1266
ag33
aS'hadnt'
p1267
aS'given'
p1268
aS'you'
p1269
aS'any'
p1270
aS'like'
p1271
aaa(lp1272
g1210
a(lp1273
S'you'
p1274
aS'know'
p1275
aaa(lp1276
g1210
a(lp1277
S'like'
p1278
ag33
aS'hadnt'
p1279
aS'warned'
p1280
aS'you'
p1281
aaa(lp1282
g1210
a(lp1283
S'or'
p1284
aS'anything'
p1285
aaa(lp1286
g1210
a(lp1287
S'And'
p1288
aS'it'
p1289
aS'would'
p1290
aS'have'
p1291
aS'been'
p1292
aS'such'
p1293
ag77
aS'surprise'
p1294
aaa(lp1295
S'JEFF'
p1296
a(lp1297
S'Totally'
p1298
aaa(lp1299
S'JILLI'
p1300
a(lp1301
S'thought'
p1302
aS'oh'
p1303
aS'my'
p1304
aS'gosh'
p1305
aaa(lp1306
g1300
a(lp1307
g33
aS'was'
p1308
aS'even'
p1309
aS'g'
p1310
aaa(lp1311
S'JEFF'
p1312
a(lp1313
S'That'
p1314
aS'wouldve'
p1315
aS'been'
p1316
aaa(lp1317
S'JILLgonna'
p1318
a(lp1319
S'bring'
p1320
aS'the'
p1321
aS'camera'
p1322
aS'into'
p1323
aS'the'
p1324
aS'bathroom'
p1325
aaa(lp1326
g1318
a(lp1327
S'to'
p1328
aS'take'
p1329
ag77
aS'picture'
p1330
aS'of'
p1331
aS'the'
p1332
aS'EPT'
p1333
aaa(lp1334
g1318
a(lp1335
S'Cause'
p1336
ag33
aS'thought'
p1337
aaa(lp1338
S'JEFF'
p1339
a(lp1340
g348
aaa(lp1341
S'JILL'
p1342
a(lp1343
S'you'
p1344
aS'know'
p1345
aaa(lp1346
g1342
a(lp1347
S'its'
p1348
aS'like'
p1349
aS'such'
p1350
ag77
aS'momentous'
p1351
aS'occasion'
p1352
aaa(lp1353
g1342
a(lp1354
S'like'
p1355
aS'what'
p1356
aS'if'
p1357
aS'it'
p1358
aS'came'
p1359
aS'out'
p1360
aS'positive'
p1361
aaa(lp1362
S'JEFF'
p1363
a(lp1364
aa(lp1365
S'JILLand'
p1366
a(lp1367
S'then'
p1368
ag33
aS'thought'
p1369
aaa(lp1370
g1366
a(lp1371
S'of'
p1372
aS'cour'
p1373
aaa(lp1374
g1366
a(lp1375
S'Like'
p1376
aS'Im'
p1377
aS'know'
p1378
ag33
aS'wouldnt'
p1379
aS'have'
p1380
aS'it'
p1381
aS'or'
p1382
aS'anything'
p1383
aaa(lp1384
g1366
a(lp1385
S'but'
p1386
ag33
aS'thought'
p1387
aS'if'
p1388
aS'the'
p1389
aS'slight'
p1390
aS'chance'
p1391
ag33
aS'would'
p1392
aS'have'
p1393
aS'it'
p1394
aaa(lp1395
g1366
a(lp1396
S'and'
p1397
aS'it'
p1398
aS'really'
p1399
aS'became'
p1400
ag77
aS'person'
p1401
aS'someday'
p1402
aaa(lp1403
g1366
a(lp1404
S'wouldnt'
p1405
aS'they'
p1406
aS'love'
p1407
aS'to'
p1408
aS'see'
p1409
aS'the'
p1410
aS'photograph'
p1411
aS'of'
p1412
aS'the'
p1413
aS'EPT'
p1414
aaa(lp1415
S'JEFF'
p1416
a(lp1417
g348
aaa(lp1418
S'JILLwith'
p1419
a(lp1420
S'the'
p1421
aS'positive'
p1422
aS'sign'
p1423
aS'on'
p1424
aS'it'
p1425
aaa(lp1426
g1419
a(lp1427
S'Knowing'
p1428
aS'that'
p1429
aS'that'
p1430
aS'was'
p1431
aS'like'
p1432
aS'its'
p1433
aS'first'
p1434
aS'sign'
p1435
aS'of'
p1436
aS'life'
p1437
aaa(lp1438
S'JEFFUnhunh'
p1439
a(lp1440
aa(lp1441
g1439
a(lp1442
S'Oh'
p1443
aS'my'
p1444
ag1310
aaa(lp1445
S'JILL'
p1446
a(lp1447
g33
aS'know'
p1448
aS'its'
p1449
aS'kind'
p1450
aS'of'
p1451
aaa(lp1452
S'JEFFKind'
p1453
a(lp1454
S'of'
p1455
aS'spooky'
p1456
aaa(lp1457
S'JILL'
p1458
a(lp1459
aa(lp1460
S'JEFFIts'
p1461
a(lp1462
S'not'
p1463
aS'my'
p1464
aS'idea'
p1465
aS'of'
p1466
ag77
aS'good'
p1467
aS'time'
p1468
aS'right'
p1469
aS'now'
p1470
aS'sweetie'
p1471
aaa(lp1472
S'JILL'
p1473
a(lp1474
S'Oh'
p1475
aaa(lp1476
g1473
a(lp1477
S'sorry'
p1478
aaa(lp1479
S'JEFF'
p1480
a(lp1481
aa(lp1482
S'JILL'
p1483
a(lp1484
aa(lp1485
S'JEFF'
p1486
a(lp1487
S'Maybe'
p1488
aS'somewhere'
p1489
aS'down'
p1490
aS'the'
p1491
aS'road'
p1492
aaa(lp1493
g1486
a(lp1494
S'but'
p1495
aS'right'
p1496
aS'now'
p1497
aS'it'
p1498
aS'kind'
p1499
aS'of'
p1500
aS'makes'
p1501
aS'me'
p1502
aS'sick'
p1503
aaa(lp1504
S'JILL'
p1505
a(lp1506
aa(lp1507
S'JEFF'
p1508
a(lp1509
aa(lp1510
S'JILLRight'
p1511
a(lp1512
aa(lp1513
g1511
a(lp1514
g33
aS'know'
p1515
ag33
aS'know'
p1516
aaa(lp1517
g1511
a(lp1518
S'me'
p1519
aS'too'
p1520
aaa(lp1521
S'JEFF'
p1522
a(lp1523
aa(lp1524
S'JILLMe'
p1525
a(lp1526
S'too'
p1527
aaa(lp1528
S'JEFF'
p1529
a(lp1530
aa(lp1531
S'JILLI'
p1532
a(lp1533
S'was'
p1534
aS'very'
p1535
aaa(lp1536
S'JILL'
p1537
a(lp1538
aa(lp1539
S'JEFF'
p1540
a(lp1541
aa(lp1542
S'JILL'
p1543
a(lp1544
S'But'
p1545
aS'it'
p1546
aS'was'
p1547
aS'just'
p1548
ag77
aS'thought'
p1549
aS'that'
p1550
aS'went'
p1551
aS'through'
p1552
aS'my'
p1553
aS'head'
p1554
aaa(lp1555
S'JEFF'
p1556
a(lp1557
aa(lp1558
g1556
a(lp1559
S'No'
p1560
aS'thats'
p1561
ag77
aS'very'
p1562
aS'cute'
p1563
aS'thought'
p1564
aaa(lp1565
S'JILL'
p1566
a(lp1567
aa(lp1568
S'JEFF'
p1569
a(lp1570
S'Cho'
p1571
aaa(lp1572
g1569
a(lp1573
S'Lets'
p1574
aS'chock'
p1575
aS'that'
p1576
aS'up'
p1577
aS'as'
p1578
ag77
aS'very'
p1579
aS'cute'
p1580
aS'thought'
p1581
aaa(lp1582
S'JILL'
p1583
a(lp1584
aa(lp1585
g1583
a(lp1586
S'You'
p1587
aS'know'
p1588
aS'me'
p1589
aS'and'
p1590
aS'cameras'
p1591
aaa(lp1592
S'JEFF'
p1593
a(lp1594
aa(lp1595
g1593
a(lp1596
S'Aw'
p1597
aS'honey'
p1598
aaa(lp1599
S'JILL'
p1600
a(lp1601
S'Aw'
p1602
aaa(lp1603
g1600
a(lp1604
S'so'
p1605
aS'how'
p1606
aS'are'
p1607
aS'you'
p1608
aaa(lp1609
S'JEFF'
p1610
a(lp1611
S'Know'
p1612
aS'whats'
p1613
aS'even'
p1614
aS'better'
p1615
aaa(lp1616
S'JILL'
p1617
a(lp1618
S'What'
p1619
aaa(lp1620
S'JEFF'
p1621
a(lp1622
S'You'
p1623
aS'could'
p1624
aS'do'
p1625
aS'like'
p1626
ag77
aS'selftimer'
p1627
aaa(lp1628
S'JILL'
p1629
a(lp1630
S'A'
p1631
aS'selftimer'
p1632
aaa(lp1633
S'JEFF'
p1634
a(lp1635
aa(lp1636
g1634
a(lp1637
S'With'
p1638
aS'you'
p1639
aS'right'
p1640
aS'next'
p1641
aS'to'
p1642
aS'it'
p1643
aaa(lp1644
S'JILL'
p1645
a(lp1646
g1631
aS'self'
p1647
aaa(lp1648
S'JEFF'
p1649
a(lp1650
S'You'
p1651
aS'go'
p1652
aaa(lp1653
g1649
a(lp1654
S'Im'
p1655
aS'the'
p1656
aS'mom'
p1657
aaa(lp1658
S'JILL'
p1659
a(lp1660
aa(lp1661
S'JEFF'
p1662
a(lp1663
S'you'
p1664
aS'know'
p1665
aaa(lp1666
S'JILL'
p1667
a(lp1668
S'Oh'
p1669
aS'gosh'
p1670
aaa(lp1671
S'JEFFNext'
p1672
a(lp1673
S'to'
p1674
aS'the'
p1675
aS'result'
p1676
aaa(lp1677
S'JILL'
p1678
a(lp1679
S'Oh'
p1680
aS'gosh'
p1681
aaa(lp1682
S'JEFF'
p1683
a(lp1684
aa(lp1685
S'JILLRight'
p1686
a(lp1687
aa(lp1688
g1686
a(lp1689
S'And'
p1690
ag33
aS'could'
p1691
aS'even'
p1692
aS'send'
p1693
aS'it'
p1694
aS'to'
p1695
aS'EPT'
p1696
aaa(lp1697
S'JEFF'
p1698
a(lp1699
S'Yeah'
p1700
aaa(lp1701
S'JILL'
p1702
a(lp1703
S'Use'
p1704
aS'it'
p1705
aS'for'
p1706
aS'advertising'
p1707
aaa(lp1708
S'JEFF'
p1709
a(lp1710
aa(lp1711
S'JILLIn'
p1712
a(lp1713
S'fact'
p1714
ag33
aS'could'
p1715
aS'send'
p1716
aS'it'
p1717
aS'to'
p1718
aS'you'
p1719
aaa(lp1720
g1712
a(lp1721
S'cause'
p1722
ag33
aS'have'
p1723
aS'it'
p1724
aaa(lp1725
g1712
a(lp1726
S'The'
p1727
aS'test'
p1728
aS'right'
p1729
aS'there'
p1730
aaa(lp1731
S'JEFF'
p1732
a(lp1733
S'Aw'
p1734
aaa(lp1735
S'JILL'
p1736
a(lp1737
S'Anyhow'
p1738
aaa(lp1739
S'JEFF'
p1740
a(lp1741
S'So'
p1742
aS'how'
p1743
aS'are'
p1744
aS'you'
p1745
aaa(lp1746
S'JILL'
p1747
a(lp1748
S'Nothing'
p1749
ag348
aaa(lp1750
S'JEFFoutside'
p1751
a(lp1752
S'of'
p1753
aS'that'
p1754
aaa(lp1755
S'JILLGood'
p1756
a(lp1757
aa(lp1758
g1756
a(lp1759
S'Good'
p1760
aaa(lp1761
g1756
a(lp1762
S'we'
p1763
aS'had'
p1764
aS'such'
p1765
ag77
aS'nice'
p1766
aS'day'
p1767
aaa(lp1768
g1756
a(lp1769
S'Its'
p1770
aS'really'
p1771
aS'beautiful'
p1772
aS'here'
p1773
aaa(lp1774
g1756
a(lp1775
S'Its'
p1776
aS'like'
p1777
aaa(lp1778
S'JEFF'
p1779
a(lp1780
S'It'
p1781
aS'is'
p1782
aaa(lp1783
S'JILLUnhunh'
p1784
a(lp1785
aa(lp1786
g1784
a(lp1787
S'Like'
p1788
aS'seventy'
p1789
aS'degrees'
p1790
aaa(lp1791
g1784
a(lp1792
S'and'
p1793
aS'sunny'
p1794
aaa(lp1795
g1784
a(lp1796
S'and'
p1797
aaa(lp1798
g1784
a(lp1799
S'we'
p1800
aS'walked'
p1801
aS'around'
p1802
aaa(lp1803
g1784
a(lp1804
S'we'
p1805
aS'went'
p1806
aS'to'
p1807
ag77
aS'park'
p1808
aaa(lp1809
g1784
a(lp1810
S'and'
p1811
aS'we'
p1812
aS'just'
p1813
aS'talked'
p1814
aaa(lp1815
g1784
a(lp1816
S'and'
p1817
aS'talked'
p1818
aaa(lp1819
g1784
a(lp1820
S'and'
p1821
aS'sat'
p1822
aS'in'
p1823
aS'the'
p1824
aS'sun'
p1825
aaa(lp1826
g1784
a(lp1827
S'and'
p1828
aaa(lp1829
g1784
a(lp1830
S'we'
p1831
aS'had'
p1832
aS'such'
p1833
ag77
aS'nice'
p1834
aS'day'
p1835
aaa(lp1836
g1784
a(lp1837
S'We'
p1838
aS'went'
p1839
aS'out'
p1840
aS'for'
p1841
aS'dinner'
p1842
aS'with'
p1843
aS'Joy'
p1844
aaa(lp1845
S'JEFF'
p1846
a(lp1847
S'Aw'
p1848
aaa(lp1849
g1846
a(lp1850
S'what'
p1851
ag77
aS'joy'
p1852
aaa(lp1853
S'JILL'
p1854
a(lp1855
S'We'
p1856
aS'just'
p1857
aS'got'
p1858
aS'back'
p1859
aS'here'
p1860
aaa(lp1861
S'JEFF'
p1862
a(lp1863
g348
aS'great'
p1864
aaa(lp1865
g1862
a(lp1866
S'so'
p1867
aS'youve'
p1868
aS'been'
p1869
aS'relaxing'
p1870
aaa(lp1871
S'JILL'
p1872
a(lp1873
S'Unhunh'
p1874
aaa(lp1875
S'JEFFDo'
p1876
a(lp1877
S'you'
p1878
aS'have'
p1879
aS'school'
p1880
aaa(lp1881
S'JILL'
p1882
a(lp1883
S'Yeah'
p1884
aaa(lp1885
g1882
a(lp1886
S'well'
p1887
ag33
aS'had'
p1888
aS'school'
p1889
aS'on'
p1890
aS'Friday'
p1891
aaa(lp1892
S'JEFF'
p1893
a(lp1894
S'Oh'
p1895
ag33
aS'see'
p1896
aaa(lp1897
S'JILL'
p1898
a(lp1899
S'Yeah'
p1900
aS'and'
p1901
ag33
aS'have'
p1902
aS'it'
p1903
aS'on'
p1904
aS'Monday'
p1905
aS'too'
p1906
aaa(lp1907
S'JEFF'
p1908
a(lp1909
S'Gotcha'
p1910
aaa(lp1911
S'JILL'
p1912
a(lp1913
S'Yeah'
p1914
aaa(lp1915
S'JEFFWh'
p1916
a(lp1917
S'Jills'
p1918
aS'leaving'
p1919
aS'tomorrow'
p1920
aaa(lp1921
S'JILLUnhunh'
p1922
a(lp1923
aa(lp1924
g1922
a(lp1925
S'shes'
p1926
aS'leaving'
p1927
aS'tomorrow'
p1928
aS'night'
p1929
aaa(lp1930
S'JEFF'
p1931
a(lp1932
S'Aw'
p1933
aaa(lp1934
S'JILL'
p1935
a(lp1936
aa(lp1937
S'JEFFSo'
p1938
a(lp1939
S'you'
p1940
aS'guys'
p1941
aS'have'
p1942
aS'been'
p1943
aS'having'
p1944
ag77
aS'good'
p1945
aS'time'
p1946
aaa(lp1947
S'JILLUnhunh'
p1948
a(lp1949
aa(lp1950
g1948
a(lp1951
S'such'
p1952
ag77
aS'good'
p1953
aS'time'
p1954
aaa(lp1955
g1948
a(lp1956
S'Its'
p1957
aS'so'
p1958
aS'good'
p1959
aS'to'
p1960
aS'see'
p1961
aS'her'
p1962
aaa(lp1963
S'JEFFStaying'
p1964
a(lp1965
S'up'
p1966
aS'late'
p1967
aaa(lp1968
S'JILL'
p1969
a(lp1970
S'Unhunh'
p1971
aaa(lp1972
S'JEFFX'
p1973
a(lp1974
aa(lp1975
S'JILLWe'
p1976
a(lp1977
S'stayed'
p1978
aS'up'
p1979
aS'till'
p1980
aS'like'
p1981
aS'three'
p1982
aS'thirty'
p1983
aS'last'
p1984
aS'night'
p1985
aaa(lp1986
S'JEFF'
p1987
a(lp1988
S'What'
p1989
aS'are'
p1990
aS'you'
p1991
aS'guys'
p1992
aS'doing'
p1993
aaa(lp1994
g1987
a(lp1995
S'Talking'
p1996
aS'or'
p1997
aS'something'
p1998
aaa(lp1999
S'JILLJust'
p2000
a(lp2001
S'talking'
p2002
aaa(lp2003
S'JEFF'
p2004
a(lp2005
S'Just'
p2006
aS'talking'
p2007
aaa(lp2008
S'JILL'
p2009
a(lp2010
aa(lp2011
S'JEFF'
p2012
a(lp2013
S'Just'
p2014
aS'talking'
p2015
aaa(lp2016
S'JILL'
p2017
a(lp2018
aa(lp2019
S'JEFF'
p2020
a(lp2021
aa(lp2022
S'JILL'
p2023
a(lp2024
S'We'
p2025
aS'have'
p2026
ag77
aS'lot'
p2027
aS'to'
p2028
aS'catch'
p2029
aS'up'
p2030
aS'on'
p2031
aaa(lp2032
S'JEFFI'
p2033
a(lp2034
S'know'
p2035
aaa(lp2036
g2033
a(lp2037
g33
aS'know'
p2038
aaa(lp2039
g2033
a(lp2040
S'Im'
p2041
aS'just'
p2042
aS'kidding'
p2043
aaa(lp2044
S'JILL'
p2045
a(lp2046
S'What'
p2047
aS'have'
p2048
aS'you'
p2049
aS'been'
p2050
aS'up'
p2051
aS'to'
p2052
aaa(lp2053
S'JEFF'
p2054
a(lp2055
S'Nothing'
p2056
aaa(lp2057
S'JILL'
p2058
a(lp2059
S'Nothing'
p2060
aaa(lp2061
S'JEFF'
p2062
a(lp2063
S'Just'
p2064
aS'homework'
p2065
aaa(lp2066
S'JILL'
p2067
a(lp2068
S'Yeah'
p2069
aaa(lp2070
S'JEFFI'
p2071
a(lp2072
S'just'
p2073
aS'played'
p2074
aS'basketball'
p2075
aS'at'
p2076
aS'Main'
p2077
aS'Beach'
p2078
aaa(lp2079
S'JILL'
p2080
a(lp2081
S'Oh'
p2082
aaa(lp2083
S'JEFFI'
p2084
a(lp2085
S'and'
p2086
ag33
aS'just'
p2087
aS'talked'
p2088
aS'to'
p2089
aS'this'
p2090
aS'Asian'
p2091
aS'guy'
p2092
aaa(lp2093
g2084
a(lp2094
S'um'
p2095
aaa(lp2096
g2084
a(lp2097
S'six'
p2098
aS'years'
p2099
aS'old'
p2100
aaa(lp2101
g2084
a(lp2102
S'and'
p2103
aaa(lp2104
g2084
a(lp2105
S'hes'
p2106
ag77
aS'very'
p2107
aS'sweet'
p2108
aS'guy'
p2109
aaa(lp2110
g2084
a(lp2111
S'he'
p2112
aS'just'
p2113
aS'moved'
p2114
aS'to'
p2115
aS'Laguna'
p2116
aaa(lp2117
S'JILLUnhunh'
p2118
a(lp2119
aa(lp2120
S'JEFFAnd'
p2121
a(lp2122
aa(lp2123
g2121
a(lp2124
S'we'
p2125
aS'just'
p2126
aaa(lp2127
g2121
a(lp2128
S'we'
p2129
aS'just'
p2130
aS'got'
p2131
aS'in'
p2132
aS'one'
p2133
aS'of'
p2134
aS'those'
p2135
aS'conversations'
p2136
aS'where'
p2137
aaa(lp2138
g2121
a(lp2139
S'you'
p2140
aS'just'
p2141
aS'talk'
p2142
aS'about'
p2143
aS'everything'
p2144
aaa(lp2145
S'JILLUnhunh'
p2146
a(lp2147
aa(lp2148
S'JEFF'
p2149
a(lp2150
S'Like'
p2151
aaa(lp2152
g2149
a(lp2153
S'like'
p2154
aS'real'
p2155
aS'political'
p2156
aaa(lp2157
g2149
a(lp2158
S'and'
p2159
aaa(lp2160
g2149
a(lp2161
S'and'
p2162
aaa(lp2163
g2149
a(lp2164
S'everything'
p2165
aS'from'
p2166
aS'Norm'
p2167
aaa(lp2168
g2149
a(lp2169
S'um'
p2170
aaa(lp2171
g2149
a(lp2172
S'PAR'
p2173
aS'Norm'
p2174
aS'Nixon'
p2175
aaa(lp2176
g2149
a(lp2177
S'thats'
p2178
ag77
aS'basketball'
p2179
aS'player'
p2180
aS'PAR'
p2181
aaa(lp2182
S'JILL'
p2183
a(lp2184
aa(lp2185
S'JEFF'
p2186
a(lp2187
g33
aS'said'
p2188
aS'Norm'
p2189
aaa(lp2190
g2186
a(lp2191
S'instead'
p2192
aS'of'
p2193
aS'like'
p2194
aS'President'
p2195
aS'Nixon'
p2196
aaa(lp2197
S'JILL'
p2198
a(lp2199
S'Oh'
p2200
aS'right'
p2201
aaa(lp2202
S'JEFFYeah'
p2203
a(lp2204
aa(lp2205
S'JILL'
p2206
a(lp2207
aa(lp2208
S'JEFF'
p2209
a(lp2210
S'from'
p2211
aS'Nixon'
p2212
aaa(lp2213
g2209
a(lp2214
S'to'
p2215
aS'like'
p2216
aS'Rush'
p2217
aS'Limbaugh'
p2218
aaa(lp2219
g2209
a(lp2220
S'to'
p2221
aS'abortion'
p2222
aaa(lp2223
g2209
a(lp2224
S'to'
p2225
aS'capital'
p2226
aS'punishment'
p2227
aaa(lp2228
S'JILLWhoa'
p2229
a(lp2230
aa(lp2231
S'JEFF'
p2232
a(lp2233
S'Like'
p2234
aaa(lp2235
g2232
a(lp2236
S'yeah'
p2237
aaa(lp2238
g2232
a(lp2239
S'you'
p2240
aS'know'
p2241
aS'what'
p2242
aaa(lp2243
g2232
a(lp2244
S'and'
p2245
ag348
aS'its'
p2246
ag348
aS'so'
p2247
aS'funny'
p2248
aaa(lp2249
g2232
a(lp2250
S'cause'
p2251
aS'hes'
p2252
aaa(lp2253
g2232
a(lp2254
S'hes'
p2255
ag77
aS'Catholic'
p2256
aaa(lp2257
g2232
a(lp2258
S'and'
p2259
aaa(lp2260
g2232
a(lp2261
S'you'
p2262
aS'know'
p2263
aaa(lp2264
g2232
a(lp2265
S'like'
p2266
ag33
aS'nailed'
p2267
aS'him'
p2268
aS'on'
p2269
aS'the'
p2270
aS'contradiction'
p2271
ag348
aS'you'
p2272
aS'know'
p2273
ag348
aaa(lp2274
g2232
a(lp2275
S'hes'
p2276
aS'like'
p2277
aS'procapital'
p2278
aS'punishment'
p2279
aaa(lp2280
g2232
a(lp2281
S'but'
p2282
aaa(lp2283
g2232
a(lp2284
S'and'
p2285
aS'prolife'
p2286
aaa(lp2287
S'JILLUnhunh'
p2288
a(lp2289
aa(lp2290
S'JEFF'
p2291
a(lp2292
g33
aS'said'
p2293
aS'try'
p2294
aS'to'
p2295
aS'explain'
p2296
aS'that'
p2297
aS'to'
p2298
aS'me'
p2299
aaa(lp2300
g2291
a(lp2301
g33
aS'dont'
p2302
aS'understand'
p2303
aaa(lp2304
S'JILL'
p2305
a(lp2306
S'Wait'
p2307
aaa(lp2308
g2305
a(lp2309
S'he'
p2310
aS'said'
p2311
aS'hes'
p2312
aS'procapital'
p2313
aS'punishment'
p2314
aaa(lp2315
S'JEFFand'
p2316
a(lp2317
S'prolife'
p2318
aaa(lp2319
S'JILL'
p2320
a(lp2321
S'and'
p2322
aS'prolife'
p2323
aaa(lp2324
g2320
a(lp2325
S'Right'
p2326
aaa(lp2327
S'JEFF'
p2328
a(lp2329
S'Thats'
p2330
aS'like'
p2331
aaa(lp2332
g2328
a(lp2333
S'to'
p2334
aS'me'
p2335
aS'thats'
p2336
aS'like'
p2337
ag77
aS'huge'
p2338
aS'contradiction'
p2339
aaa(lp2340
g2328
a(lp2341
S'And'
p2342
aaa(lp2343
g2328
a(lp2344
S'he'
p2345
aS'said'
p2346
aaa(lp2347
S'JILLM'
p2348
a(lp2349
aa(lp2350
S'JEFFhe'
p2351
a(lp2352
g635
aS'he'
p2353
aS'justified'
p2354
aS'it'
p2355
aS'as'
p2356
aaa(lp2357
g2351
a(lp2358
S'well'
p2359
aS'see'
p2360
aS'the'
p2361
aaa(lp2362
g2351
a(lp2363
S'th'
p2364
aS'those'
p2365
aS'little'
p2366
aS'en'
p2367
aaa(lp2368
g2351
a(lp2369
S'the'
p2370
aS'little'
p2371
aaa(lp2372
g2351
a(lp2373
S'um'
p2374
aaa(lp2375
g2351
a(lp2376
S'embryos'
p2377
aaa(lp2378
g2351
a(lp2379
S'They'
p2380
aS'dont'
p2381
aS'have'
p2382
ag77
aS'decis'
p2383
aaa(lp2384
g2351
a(lp2385
S'They'
p2386
aS'cant'
p2387
aS'make'
p2388
ag77
aS'decision'
p2389
aaa(lp2390
g2351
a(lp2391
S'You'
p2392
aS'know'
p2393
aaa(lp2394
g2351
a(lp2395
S'and'
p2396
aS'theyre'
p2397
aS'gonna'
p2398
aS'die'
p2399
aaa(lp2400
S'JILLThis'
p2401
a(lp2402
S'is'
p2403
aS'what'
p2404
aS'he'
p2405
aS'was'
p2406
aS'saying'
p2407
aaa(lp2408
S'JEFFYeah'
p2409
a(lp2410
aa(lp2411
g2409
a(lp2412
S'and'
p2413
aS'he'
p2414
aS'said'
p2415
aS'that'
p2416
aaa(lp2417
g2409
a(lp2418
S'you'
p2419
aS'know'
p2420
aaa(lp2421
g2409
a(lp2422
S'people'
p2423
aS'who'
p2424
aS'commit'
p2425
aS'crimes'
p2426
aaa(lp2427
g2409
a(lp2428
S'you'
p2429
aS'know'
p2430
aaa(lp2431
g2409
a(lp2432
S'that'
p2433
aS'calls'
p2434
aS'for'
p2435
aS'the'
p2436
aS'death'
p2437
aS'penalty'
p2438
aaa(lp2439
g2409
a(lp2440
S'they'
p2441
aS'brought'
p2442
aS'it'
p2443
aS'upon'
p2444
aS'themselves'
p2445
aaa(lp2446
S'JILL'
p2447
a(lp2448
S'Oh'
p2449
aS'wait'
p2450
aaa(lp2451
g2447
a(lp2452
S'Jeff'
p2453
aaa(lp2454
g2447
a(lp2455
S'can'
p2456
aS'you'
p2457
aS'hang'
p2458
aS'on'
p2459
aS'just'
p2460
ag77
aS'sec'
p2461
aaa(lp2462
S'JEFFYes'
p2463
a(lp2464
aa(lp2465
S'JILLWhat'
p2466
a(lp2467
S'did'
p2468
aS'you'
p2469
aS'say'
p2470
aaa(lp2471
S'JILL_S'
p2472
a(lp2473
g348
aS'Im'
p2474
aS'gonna'
p2475
aS'go'
p2476
aS'over'
p2477
aS'there'
p2478
ag348
aaa(lp2479
S'JILL'
p2480
a(lp2481
S'Oh'
p2482
aS'you'
p2483
aS'are'
p2484
aaa(lp2485
g2480
a(lp2486
S'Okay'
p2487
aaa(lp2488
S'JILL_SYeah'
p2489
a(lp2490
aa(lp2491
S'JILL'
p2492
a(lp2493
S'Okay'
p2494
aaa(lp2495
g2492
a(lp2496
S'Ill'
p2497
aS'come'
p2498
aS'over'
p2499
aaa(lp2500
g2492
a(lp2501
S'Um'
p2502
aaa(lp2503
S'JEFF'
p2504
a(lp2505
S'Wheres'
p2506
aS'Jill'
p2507
aS'going'
p2508
aaa(lp2509
S'JILL'
p2510
a(lp2511
S'Shes'
p2512
aS'going'
p2513
aS'next'
p2514
aS'door'
p2515
aaa(lp2516
S'JEFF'
p2517
a(lp2518
S'Who'
p2519
aaa(lp2520
S'JILL'
p2521
a(lp2522
S'To'
p2523
aS'Robbys'
p2524
aaa(lp2525
S'JEFF'
p2526
a(lp2527
S'Oh'
p2528
aaa(lp2529
S'JILL'
p2530
a(lp2531
S'Uh'
p2532
aaa(lp2533
S'JEFF'
p2534
a(lp2535
S'Has'
p2536
aS'she'
p2537
aS'been'
p2538
aS'clicking'
p2539
aS'with'
p2540
aS'your'
p2541
aS'friends'
p2542
aaa(lp2543
S'JILL'
p2544
a(lp2545
S'Its'
p2546
aS'right'
p2547
aS'there'
p2548
aaa(lp2549
g2544
a(lp2550
S'Yeah'
p2551
aS'were'
p2552
aS'gonna'
p2553
aS'go'
p2554
aS'hang'
p2555
aS'out'
p2556
aS'there'
p2557
aaa(lp2558
S'JEFF'
p2559
a(lp2560
S'With'
p2561
aS'who'
p2562
aS'wh'
p2563
aS'who'
p2564
aaa(lp2565
S'JILL'
p2566
a(lp2567
S'Were'
p2568
aS'gonna'
p2569
aS'go'
p2570
aS'hang'
p2571
aS'out'
p2572
aS'next'
p2573
aS'door'
p2574
aaa(lp2575
g2566
a(lp2576
S'at'
p2577
aS'Robbys'
p2578
aaa(lp2579
g2566
a(lp2580
S'Hes'
p2581
aS'having'
p2582
aS'some'
p2583
aS'people'
p2584
aS'over'
p2585
aaa(lp2586
S'JEFF'
p2587
a(lp2588
S'Oh'
p2589
aS'Robby'
p2590
aaa(lp2591
g2587
a(lp2592
S'with'
p2593
aS'the'
p2594
aS'kitty'
p2595
aaa(lp2596
S'JILL'
p2597
a(lp2598
S'Right'
p2599
aaa(lp2600
g2597
a(lp2601
S'Robby'
p2602
aS'with'
p2603
aS'the'
p2604
aS'kitty'
p2605
aaa(lp2606
S'JEFFHas'
p2607
a(lp2608
S'Jill'
p2609
aS'been'
p2610
aaa(lp2611
S'JILL'
p2612
a(lp2613
aa(lp2614
g2612
a(lp2615
S'My'
p2616
aS'sweatshirt'
p2617
aaa(lp2618
g2612
a(lp2619
S'My'
p2620
aS'sweatshirt'
p2621
aaa(lp2622
g2612
a(lp2623
g33
aS'put'
p2624
aS'it'
p2625
aS'back'
p2626
aS'in'
p2627
aS'the'
p2628
aS'closet'
p2629
aaa(lp2630
g2612
a(lp2631
g814
aaa(lp2632
S'JEFF'
p2633
a(lp2634
S'Has'
p2635
aS'Jill'
p2636
aS'been'
p2637
aS'digging'
p2638
aS'your'
p2639
aS'friends'
p2640
aaa(lp2641
S'JILLUnhunh'
p2642
a(lp2643
aa(lp2644
g2642
a(lp2645
S'Yeah'
p2646
aaa(lp2647
g2642
a(lp2648
S'We'
p2649
aS'spent'
p2650
aS'some'
p2651
aS'ti'
p2652
aaa(lp2653
g2642
a(lp2654
S'Its'
p2655
aS'up'
p2656
aS'on'
p2657
aS'the'
p2658
aaa(lp2659
g2642
a(lp2660
S'up'
p2661
aS'folded'
p2662
aaa(lp2663
g2642
a(lp2664
S'up'
p2665
aS'there'
p2666
aS'high'
p2667
aaa(lp2668
g2642
a(lp2669
S'Yup'
p2670
aaa(lp2671
g2642
a(lp2672
S'Um'
p2673
aaa(lp2674
g2642
a(lp2675
S'Okay'
p2676
aS'so'
p2677
aS'uh'
p2678
aaa(lp2679
S'JEFF'
p2680
a(lp2681
g348
aS'You'
p2682
aS'cant'
p2683
aS'talk'
p2684
aS'to'
p2685
aS'both'
p2686
aS'of'
p2687
aS'us'
p2688
aS'at'
p2689
aS'the'
p2690
aS'same'
p2691
aS'time'
p2692
aaa(lp2693
S'JILLOkay'
p2694
a(lp2695
aa(lp2696
g2694
a(lp2697
S'Ill'
p2698
aS'come'
p2699
aS'next'
p2700
aS'door'
p2701
aaa(lp2702
g2694
a(lp2703
S'Jillys'
p2704
aS'going'
p2705
aS'next'
p2706
aS'door'
p2707
aaa(lp2708
S'JEFFBye'
p2709
a(lp2710
S'Jill'
p2711
aaa(lp2712
S'JILL_S'
p2713
a(lp2714
S'Bye'
p2715
aS'Jeff'
p2716
aaa(lp2717
S'JILL'
p2718
a(lp2719
S'She'
p2720
aS'says'
p2721
aS'bye'
p2722
aaa(lp2723
g2718
a(lp2724
S'Um'
p2725
aaa(lp2726
g2718
a(lp2727
S'yeah'
p2728
aaa(lp2729
g2718
a(lp2730
S'She'
p2731
aS'um'
p2732
aaa(lp2733
g2718
a(lp2734
S'we'
p2735
aS'hung'
p2736
aS'out'
p2737
aS'with'
p2738
aS'Donna'
p2739
aaa(lp2740
g2718
a(lp2741
S'and'
p2742
aS'they'
p2743
aS'hit'
p2744
aS'it'
p2745
aS'off'
p2746
aaa(lp2747
g2718
a(lp2748
S'And'
p2749
aaa(lp2750
g2718
a(lp2751
S'we'
p2752
aS'went'
p2753
aS'out'
p2754
aS'to'
p2755
aS'dinner'
p2756
aS'with'
p2757
aS'Joy'
p2758
aS'tonight'
p2759
aaa(lp2760
g2718
a(lp2761
S'and'
p2762
aS'shes'
p2763
aS'met'
p2764
aS'everybody'
p2765
aaa(lp2766
S'JEFF'
p2767
a(lp2768
S'Great'
p2769
aaa(lp2770
S'JILLYeah'
p2771
a(lp2772
aa(lp2773
S'JEFFHow'
p2774
a(lp2775
S'does'
p2776
aS'um'
p2777
aaa(lp2778
g2774
a(lp2779
S'Hows'
p2780
aS'Jill'
p2781
aaa(lp2782
g2774
a(lp2783
S'Hows'
p2784
aS'her'
p2785
aS'state'
p2786
aS'of'
p2787
aS'mind'
p2788
aaa(lp2789
g2774
a(lp2790
S'Does'
p2791
aS'she'
p2792
aS'seem'
p2793
aS'at'
p2794
aS'peace'
p2795
aS'with'
p2796
aS'herself'
p2797
aaa(lp2798
S'JILL'
p2799
a(lp2800
aa(lp2801
S'JEFF'
p2802
a(lp2803
S'She'
p2804
aS'happy'
p2805
aaa(lp2806
S'JILL'
p2807
a(lp2808
S'Unhunh'
p2809
aaa(lp2810
g2807
a(lp2811
S'Oh'
p2812
aS'yeah'
p2813
aaa(lp2814
S'JEFFYeah'
p2815
a(lp2816
aa(lp2817
S'JILLShe'
p2818
a(lp2819
S'seems'
p2820
aS'really'
p2821
aS'good'
p2822
aaa(lp2823
S'JEFF'
p2824
a(lp2825
S'Yeah'
p2826
aaa(lp2827
S'JILL'
p2828
a(lp2829
S'Unhunh'
p2830
aaa(lp2831
S'JEFF'
p2832
a(lp2833
S'Okay'
p2834
aS'now'
p2835
aaa(lp2836
g2832
a(lp2837
S'tell'
p2838
aS'me'
p2839
aS'the'
p2840
aS'stuff'
p2841
aS'that'
p2842
aS'she'
p2843
aS'doesnt'
p2844
aS'want'
p2845
aS'you'
p2846
aS'to'
p2847
aS'tell'
p2848
aS'me'
p2849
aaa(lp2850
S'JILL'
p2851
a(lp2852
aa(lp2853
S'JEFF'
p2854
a(lp2855
S'Now'
p2856
aS'that'
p2857
aS'shes'
p2858
aS'gone'
p2859
aaa(lp2860
S'JILL'
p2861
a(lp2862
S'Nows'
p2863
aS'the'
p2864
aS'chance'
p2865
aaa(lp2866
S'JEFFYeah'
p2867
a(lp2868
S'because'
p2869
aaa(lp2870
g2867
a(lp2871
g697
aS'remember'
p2872
aaa(lp2873
g2867
a(lp2874
S'youre'
p2875
aS'my'
p2876
aS'girlfriend'
p2877
aaa(lp2878
g2867
a(lp2879
S'before'
p2880
aS'youre'
p2881
aS'her'
p2882
aS'friend'
p2883
aaa(lp2884
S'JILL'
p2885
a(lp2886
S'Jeff'
p2887
aaa(lp2888
S'JEFF'
p2889
a(lp2890
aa(lp2891
S'JILL'
p2892
a(lp2893
aa(lp2894
S'JEFF'
p2895
a(lp2896
aa(lp2897
S'JILL'
p2898
a(lp2899
S'Oh'
p2900
aaa(lp2901
S'JEFF'
p2902
a(lp2903
aa(lp2904
S'JILL'
p2905
a(lp2906
S'Oh'
p2907
aS'sweetie'
p2908
aaa(lp2909
S'JEFF'
p2910
a(lp2911
S'Remember'
p2912
aaa(lp2913
S'JILL'
p2914
a(lp2915
aa(lp2916
S'JEFF'
p2917
a(lp2918
S'youre'
p2919
aS'gonna'
p2920
aS'spend'
p2921
aS'the'
p2922
aS'rest'
p2923
aS'of'
p2924
aS'your'
p2925
aS'life'
p2926
aS'with'
p2927
aS'me'
p2928
aaa(lp2929
S'JILL'
p2930
a(lp2931
aa(lp2932
S'JEFF'
p2933
a(lp2934
S'Im'
p2935
aS'your'
p2936
aS'partner'
p2937
ag348
aS'honey'
p2938
ag348
aaa(lp2939
S'JILL'
p2940
a(lp2941
aa(lp2942
g2940
a(lp2943
S'Oh'
p2944
aS'Jeff'
p2945
aaa(lp2946
S'JEFFI'
p2947
a(lp2948
S'know'
p2949
aS'theres'
p2950
aS'stuff'
p2951
aS'that'
p2952
aS'she'
p2953
aaa(lp2954
g2947
a(lp2955
S'that'
p2956
aS'you'
p2957
aS'wont'
p2958
aS'tell'
p2959
aS'me'
p2960
aaa(lp2961
S'JILL'
p2962
a(lp2963
aa(lp2964
S'JEFF'
p2965
a(lp2966
S'And'
p2967
aaa(lp2968
S'JILL'
p2969
a(lp2970
S'Oh'
p2971
aS'Jeff'
p2972
aaa(lp2973
S'JEFF'
p2974
a(lp2975
S'go'
p2976
aS'ahead'
p2977
aaa(lp2978
S'JILLNo'
p2979
a(lp2980
aa(lp2981
S'JEFFXXX'
p2982
a(lp2983
aa(lp2984
S'JILLnothing'
p2985
a(lp2986
aa(lp2987
g2985
a(lp2988
S'Theres'
p2989
aaa(lp2990
S'JEFFThen'
p2991
a(lp2992
S'let'
p2993
aS'it'
p2994
aS'out'
p2995
aS'honey'
p2996
aaa(lp2997
S'JILL'
p2998
a(lp2999
aa(lp3000
S'JEFF'
p3001
a(lp3002
S'VOX'
p3003
aS'Come'
p3004
aS'on'
p3005
aS'sweetie'
p3006
aaa(lp3007
S'JILL'
p3008
a(lp3009
aa(lp3010
S'JEFFCome'
p3011
a(lp3012
S'on'
p3013
aS'honey'
p3014
aaa(lp3015
S'JILL'
p3016
a(lp3017
aa(lp3018
S'JEFF'
p3019
a(lp3020
S'Let'
p3021
aS'it'
p3022
aS'out'
p3023
aS'like'
p3024
ag77
aS'good'
p3025
aS'girl'
p3026
aaa(lp3027
S'JILL'
p3028
a(lp3029
aa(lp3030
S'JEFFLike'
p3031
a(lp3032
g77
aS'good'
p3033
aS'girl'
p3034
aS'VOX'
p3035
aaa(lp3036
S'JILL'
p3037
a(lp3038
aa(lp3039
S'JEFF'
p3040
a(lp3041
aa(lp3042
S'JILLJeff'
p3043
a(lp3044
aa(lp3045
S'JEFF'
p3046
a(lp3047
aa(lp3048
S'JILL'
p3049
a(lp3050
S'oh'
p3051
aaa(lp3052
g3049
a(lp3053
S'no'
p3054
ag33
aS'wont'
p3055
aaa(lp3056
S'JEFF'
p3057
a(lp3058
S'Youre'
p3059
aS'such'
p3060
ag77
aS'little'
p3061
aS'giggly'
p3062
aS'monster'
p3063
aaa(lp3064
S'JILL'
p3065
a(lp3066
aa(lp3067
S'JEFF'
p3068
a(lp3069
aa(lp3070
g3068
a(lp3071
S'Y'
p3072
aaa(lp3073
S'JILLJust'
p3074
a(lp3075
S'when'
p3076
ag33
aS'talk'
p3077
aS'to'
p3078
aS'you'
p3079
aaa(lp3080
S'JEFF'
p3081
a(lp3082
aa(lp3083
S'JILL'
p3084
a(lp3085
aa(lp3086
S'JEFF'
p3087
a(lp3088
S'You'
p3089
aS'just'
p3090
aaa(lp3091
g3087
a(lp3092
S'ne_you'
p3093
aS'need'
p3094
aS'to'
p3095
aS'be'
p3096
aS'cuddled'
p3097
aaa(lp3098
S'JILL'
p3099
a(lp3100
S'Aw'
p3101
aaa(lp3102
S'JEFFYou'
p3103
a(lp3104
S'need'
p3105
aS'to'
p3106
aS'be'
p3107
aS'squeezed'
p3108
aaa(lp3109
g3103
a(lp3110
S'and'
p3111
aS'caressed'
p3112
aaa(lp3113
g3103
a(lp3114
S'and'
p3115
aS'loved'
p3116
aaa(lp3117
S'JILL'
p3118
a(lp3119
aa(lp3120
g3118
a(lp3121
S'Aw'
p3122
aaa(lp3123
g3118
a(lp3124
g33
aS'miss'
p3125
aS'you'
p3126
aaa(lp3127
S'JEFF'
p3128
a(lp3129
S'You'
p3130
aS'do'
p3131
aaa(lp3132
S'JILL'
p3133
a(lp3134
S'Yes'
p3135
aaa(lp3136
S'JEFF'
p3137
a(lp3138
S'Aw'
p3139
aaa(lp3140
g3137
a(lp3141
g33
aS'miss'
p3142
aS'you'
p3143
aS'too'
p3144
aaa(lp3145
S'JILL'
p3146
a(lp3147
g814
aaa(lp3148
S'JEFF'
p3149
a(lp3150
S'Know'
p3151
aS'what'
p3152
aS'Robs'
p3153
aS'doing'
p3154
aaa(lp3155
S'JILL'
p3156
a(lp3157
S'What'
p3158
aaa(lp3159
S'JEFF'
p3160
a(lp3161
S'decided'
p3162
aS'that'
p3163
aS'he'
p3164
aS'just'
p3165
aS'needed'
p3166
ag77
aS'vacation'
p3167
aS'or'
p3168
aS'something'
p3169
aaa(lp3170
S'JILLUnhunh'
p3171
a(lp3172
aa(lp3173
S'JEFFSo'
p3174
a(lp3175
aa(lp3176
g3174
a(lp3177
S'he'
p3178
aS'took'
p3179
aS'off'
p3180
aS'for'
p3181
aS'Big'
p3182
aS'Bear'
p3183
aaa(lp3184
S'JILL'
p3185
a(lp3186
S'Youre'
p3187
aS'kidding'
p3188
aaa(lp3189
S'JEFFHad'
p3190
a(lp3191
S'no'
p3192
aS'idea'
p3193
aS'where'
p3194
aS'he'
p3195
aS'was'
p3196
aS'going'
p3197
aaa(lp3198
g3190
a(lp3199
S'he'
p3200
aS'just'
p3201
aS'took'
p3202
aaa(lp3203
S'JILLAll'
p3204
a(lp3205
S'by'
p3206
aS'himself'
p3207
aaa(lp3208
S'JEFFAll'
p3209
a(lp3210
S'by'
p3211
aS'himself'
p3212
aaa(lp3213
g3209
a(lp3214
S'and'
p3215
aaa(lp3216
g3209
a(lp3217
S'he'
p3218
aS'found'
p3219
ag77
aS'cabin'
p3220
aaa(lp3221
g3209
a(lp3222
S'he'
p3223
aS'called'
p3224
aS'me'
p3225
aaa(lp3226
S'JILLMhm'
p3227
a(lp3228
aa(lp3229
S'JEFFHe'
p3230
a(lp3231
S'found'
p3232
ag77
aS'cabin'
p3233
aaa(lp3234
g3230
a(lp3235
S'like'
p3236
aS'overlooking'
p3237
aaa(lp3238
g3230
a(lp3239
S'um'
p3240
aaa(lp3241
g3230
a(lp3242
S'Big'
p3243
aS'Bear'
p3244
aS'Lake'
p3245
aaa(lp3246
S'JILL'
p3247
a(lp3248
S'Youre'
p3249
aS'kidding'
p3250
aaa(lp3251
S'JEFFAnd'
p3252
a(lp3253
aa(lp3254
g3252
a(lp3255
S'its'
p3256
aS'like'
p3257
aaa(lp3258
g3252
a(lp3259
S'just'
p3260
aS'the'
p3261
aS'cabin'
p3262
aS'with'
p3263
aS'like'
p3264
aaa(lp3265
g3252
a(lp3266
S'four'
p3267
aS'beds'
p3268
aS'in'
p3269
aS'it'
p3270
aaa(lp3271
g3252
a(lp3272
S'But'
p3273
aaa(lp3274
g3252
a(lp3275
S'you'
p3276
aS'know'
p3277
aaa(lp3278
g3252
a(lp3279
S'cause'
p3280
aS'nobodys'
p3281
aS'up'
p3282
aS'there'
p3283
aS'now'
p3284
aaa(lp3285
S'JILLUnhunh'
p3286
a(lp3287
aa(lp3288
S'JEFFSo'
p3289
a(lp3290
S'he'
p3291
aS'got'
p3292
aS'it'
p3293
aS'for'
p3294
aS'fiftyfive'
p3295
aS'bucks'
p3296
ag77
aS'night'
p3297
aaa(lp3298
g3289
a(lp3299
S'and'
p3300
aS'hes'
p3301
aS'staying'
p3302
aS'there'
p3303
aS'for'
p3304
ag77
aS'few'
p3305
aS'nights'
p3306
aaa(lp3307
g3289
a(lp3308
g348
aS'So'
p3309
ag348
aaa(lp3310
S'JILL'
p3311
a(lp3312
S'All'
p3313
aS'by'
p3314
aS'himself'
p3315
aaa(lp3316
S'JEFFAll'
p3317
a(lp3318
S'by'
p3319
aS'himself'
p3320
aaa(lp3321
g3317
a(lp3322
S'he'
p3323
aS'just'
p3324
aS'wants'
p3325
aS'to'
p3326
aS'be'
p3327
aS'up'
p3328
aS'in'
p3329
aS'the'
p3330
aS'mountains'
p3331
aaa(lp3332
g3317
a(lp3333
S'he'
p3334
aS'wants'
p3335
aS'to'
p3336
aS'write'
p3337
aaa(lp3338
g3317
a(lp3339
S'and'
p3340
aS'just'
p3341
aaa(lp3342
g3317
a(lp3343
S'you'
p3344
aS'know'
p3345
aaa(lp3346
g3317
a(lp3347
S'just'
p3348
aaa(lp3349
g3317
a(lp3350
S'you'
p3351
aS'know'
p3352
aaa(lp3353
g3317
a(lp3354
S'get'
p3355
aS'in'
p3356
aS'tune'
p3357
aS'with'
p3358
aS'him'
p3359
aS'with'
p3360
aS'himself'
p3361
aaa(lp3362
S'JILLWow'
p3363
a(lp3364
aa(lp3365
g3363
a(lp3366
S'did'
p3367
aS'he'
p3368
aS'want'
p3369
aS'you'
p3370
aS'to'
p3371
aS'go'
p3372
aS'with'
p3373
aS'him'
p3374
aaa(lp3375
S'JEFFXX'
p3376
a(lp3377
aa(lp3378
g3376
a(lp3379
S'Oh'
p3380
aS'no'
p3381
aaa(lp3382
g3376
a(lp3383
g33
aS'couldnt'
p3384
aS'go'
p3385
aaa(lp3386
S'JILL'
p3387
a(lp3388
S'Oh'
p3389
aaa(lp3390
S'JEFF'
p3391
a(lp3392
S'Yeah'
p3393
ag33
aS'think'
p3394
aS'he'
p3395
aS'was'
p3396
aS'trying'
p3397
aS'to'
p3398
aS'get'
p3399
ag77
aS'girl'
p3400
aS'to'
p3401
aS'go'
p3402
aS'with'
p3403
aS'him'
p3404
aS'but'
p3405
aaa(lp3406
S'JILL'
p3407
a(lp3408
S'Oh'
p3409
aaa(lp3410
g3407
a(lp3411
S'but'
p3412
aS'that'
p3413
aS'fell'
p3414
aS'through'
p3415
aaa(lp3416
S'JEFF'
p3417
a(lp3418
aa(lp3419
g3417
a(lp3420
S'So'
p3421
aS'he'
p3422
aS'went'
p3423
aS'from'
p3424
aS'like'
p3425
aS'the'
p3426
aS'romantic'
p3427
aS'sexual'
p3428
aS'getaway'
p3429
aaa(lp3430
g3417
a(lp3431
S'to'
p3432
aaa(lp3433
S'JILL'
p3434
a(lp3435
aa(lp3436
S'JEFFyou'
p3437
a(lp3438
S'know'
p3439
aaa(lp3440
g3437
a(lp3441
g77
aS'soul'
p3442
aS'searching'
p3443
aS'deal'
p3444
aaa(lp3445
S'JILLRight'
p3446
a(lp3447
aa(lp3448
S'JEFF'
p3449
a(lp3450
aa(lp3451
S'JILL'
p3452
a(lp3453
S'aw'
p3454
aaa(lp3455
g3452
a(lp3456
g33
aS'hope'
p3457
aS'hes'
p3458
aS'not'
p3459
aS'disappointed'
p3460
aaa(lp3461
S'JEFF'
p3462
a(lp3463
g33
aS'know'
p3464
aaa(lp3465
S'JILL'
p3466
a(lp3467
S'Oh'
p3468
aaa(lp3469
g3466
a(lp3470
S'no'
p3471
aaa(lp3472
S'JEFF'
p3473
a(lp3474
aa(lp3475
S'JILLthat'
p3476
a(lp3477
S'sounds'
p3478
aS'great'
p3479
aaa(lp3480
g3476
a(lp3481
g33
aS'mean'
p3482
aS'that'
p3483
aS'sounds'
p3484
aaa(lp3485
g3476
a(lp3486
S'You'
p3487
aS'know'
p3488
aaa(lp3489
S'JEFF'
p3490
a(lp3491
S'it'
p3492
aS'r'
p3493
aS'reminds'
p3494
aS'me'
p3495
aS'of'
p3496
aS'us'
p3497
aaa(lp3498
S'JILL'
p3499
a(lp3500
S'good'
p3501
aS'opportunity'
p3502
aaa(lp3503
g3499
a(lp3504
S'Mhm'
p3505
aaa(lp3506
g3499
a(lp3507
S'getting'
p3508
aS'away'
p3509
aS'like'
p3510
aS'that'
p3511
aaa(lp3512
S'JEFFVOX'
p3513
a(lp3514
S'Lets'
p3515
aS'get'
p3516
aS'away'
p3517
aS'VOX'
p3518
aaa(lp3519
S'JILL'
p3520
a(lp3521
S'Id'
p3522
aS'love'
p3523
aS'to'
p3524
aaa(lp3525
g3520
a(lp3526
S'You'
p3527
aS'know'
p3528
ag33
aS'was'
p3529
aS'talking'
p3530
aS'to'
p3531
aS'HI'
p3532
aS'Keri'
p3533
aS'HI'
p3534
aS'tonight'
p3535
aaa(lp3536
g3520
a(lp3537
g33
aS'gave'
p3538
aS'Keri'
p3539
ag77
aS'call'
p3540
aaa(lp3541
g3520
a(lp3542
S'and'
p3543
aS'um'
p3544
aaa(lp3545
S'JEFFWow'
p3546
a(lp3547
aa(lp3548
g3546
a(lp3549
S'At'
p3550
aS'Michaels'
p3551
aaa(lp3552
S'JILL'
p3553
a(lp3554
S'Unhunh'
p3555
aaa(lp3556
g3553
a(lp3557
S'And'
p3558
aS'she'
p3559
aS'was'
p3560
aS'so'
p3561
aS'miserable'
p3562
aaa(lp3563
S'JEFF'
p3564
a(lp3565
S'Wow'
p3566
aaa(lp3567
S'JILLcause'
p3568
a(lp3569
S'shes'
p3570
aS'studying'
p3571
aaa(lp3572
g3568
a(lp3573
S'But'
p3574
aS'she'
p3575
aS'only'
p3576
aS'has'
p3577
aS'two'
p3578
aS'weeks'
p3579
aS'left'
p3580
aaa(lp3581
S'JEFF'
p3582
a(lp3583
S'Wow'
p3584
aaa(lp3585
S'JILL'
p3586
a(lp3587
S'Only'
p3588
aS'two'
p3589
aS'weeks'
p3590
aS'left'
p3591
aaa(lp3592
g3586
a(lp3593
S'and'
p3594
aaa(lp3595
g3586
a(lp3596
g33
aS'was'
p3597
aS'just'
p3598
aS'thinking'
p3599
aaa(lp3600
g3586
a(lp3601
S'gosh'
p3602
aaa(lp3603
g3586
a(lp3604
S'and'
p3605
aS'then'
p3606
aS'she'
p3607
aS'has'
p3608
aS'off'
p3609
aaa(lp3610
g3586
a(lp3611
S'and'
p3612
aaa(lp3613
g3586
a(lp3614
S'she'
p3615
aS'has'
p3616
aS'vacation'
p3617
aaa(lp3618
g3586
a(lp3619
S'and'
p3620
aaa(lp3621
g3586
a(lp3622
S'h'
p3623
aaa(lp3624
g3586
a(lp3625
S'it'
p3626
aS'just'
p3627
aS'sounded'
p3628
aS'so'
p3629
aS'good'
p3630
aaa(lp3631
S'JEFF'
p3632
a(lp3633
S'Whats'
p3634
aS'she'
p3635
aaa(lp3636
g3632
a(lp3637
S'Oh'
p3638
aaa(lp3639
g3632
a(lp3640
S'She'
p3641
aS'must'
p3642
aS'be'
p3643
aS'so'
p3644
aS'excited'
p3645
aS'though'
p3646
aaa(lp3647
S'JILL'
p3648
a(lp3649
S'Well'
p3650
aS'she'
p3651
aS'sounded'
p3652
aS'really'
p3653
aS'bummed'
p3654
aaa(lp3655
g3648
a(lp3656
S'Actually'
p3657
aaa(lp3658
g3648
a(lp3659
S'just'
p3660
aS'cause'
p3661
aS'school'
p3662
aS'is'
p3663
aS'so'
p3664
aS'tough'
p3665
aS'right'
p3666
aS'now'
p3667
aaa(lp3668
S'JEFFUnhunh'
p3669
a(lp3670
aa(lp3671
S'JILL'
p3672
a(lp3673
S'But'
p3674
aS'yeah'
p3675
aaa(lp3676
g3672
a(lp3677
S'only'
p3678
aS'two'
p3679
aS'more'
p3680
aS'weeks'
p3681
aaa(lp3682
S'JEFFThats'
p3683
a(lp3684
g77
aS'fast'
p3685
aS'medical'
p3686
aS'school'
p3687
aS'year'
p3688
aaa(lp3689
S'JILLYWN'
p3690
a(lp3691
S'Unhunh'
p3692
aaa(lp3693
S'JEFF'
p3694
a(lp3695
S'Wow'
p3696
aaa(lp3697
g3694
a(lp3698
S'when'
p3699
aS'did'
p3700
aS'they'
p3701
aS'start'
p3702
aaa(lp3703
S'JILLIt'
p3704
a(lp3705
S'was'
p3706
aS'really'
p3707
aS'quick'
p3708
aS'YWN'
p3709
aaa(lp3710
g3704
a(lp3711
g33
aS'think'
p3712
aaa(lp3713
g3704
a(lp3714
S'um'
p3715
aaa(lp3716
g3704
a(lp3717
S'like'
p3718
aS'midAugust'
p3719
aaa(lp3720
S'JEFF'
p3721
a(lp3722
S'MidAugust'
p3723
aaa(lp3724
S'JILLYeah'
p3725
a(lp3726
aa(lp3727
g3725
a(lp3728
S'Or'
p3729
aS'maybe'
p3730
aS'mi'
p3731
aaa(lp3732
g3725
a(lp3733
S'maybe'
p3734
aS'the'
p3735
aS'beginning'
p3736
aS'of'
p3737
aS'August'
p3738
aaa(lp3739
g3725
a(lp3740
S'Maybe'
p3741
aS'the'
p3742
aS'beginning'
p3743
aaa(lp3744
S'JEFF'
p3745
a(lp3746
S'Wow'
p3747
aaa(lp3748
S'JILL'
p3749
a(lp3750
aa(lp3751
S'JEFF'
p3752
a(lp3753
S'Did'
p3754
aS'she'
p3755
aS'ask'
p3756
aS'you'
p3757
aS'about'
p3758
aS'what'
p3759
aS'you'
p3760
aS'thought'
p3761
aS'of'
p3762
aS'Michael'
p3763
aS'and'
p3764
aS'stuff'
p3765
aaa(lp3766
S'JILL'
p3767
a(lp3768
S'No'
p3769
aS'she'
p3770
aS'didnt'
p3771
aaa(lp3772
g3767
a(lp3773
S'we'
p3774
aS'didnt'
p3775
aS'talk'
p3776
aS'long'
p3777
aS'at'
p3778
aS'all'
p3779
aaa(lp3780
g3767
a(lp3781
S'she'
p3782
aS'had'
p3783
aS'to'
p3784
aS'go'
p3785
aaa(lp3786
g3767
a(lp3787
S'Like'
p3788
aS'she'
p3789
aS'was'
p3790
aS'in'
p3791
aS'the'
p3792
aS'middle'
p3793
aS'of'
p3794
aS'studying'
p3795
aaa(lp3796
S'JEFF'
p3797
a(lp3798
S'Oh'
p3799
aS'yeah'
p3800
aaa(lp3801
S'JILL'
p3802
a(lp3803
S'Like'
p3804
aS'she'
p3805
aS'was'
p3806
aS'serious'
p3807
aaa(lp3808
S'JEFF'
p3809
a(lp3810
S'Shes'
p3811
aS'serious'
p3812
aaa(lp3813
S'JILLYeah'
p3814
a(lp3815
aa(lp3816
g3814
a(lp3817
S'she'
p3818
aS'was'
p3819
aS'totally'
p3820
aS'serious'
p3821
aaa(lp3822
S'JEFF'
p3823
a(lp3824
S'Good'
p3825
aS'girl'
p3826
aaa(lp3827
S'JILL'
p3828
a(lp3829
S'Yeah'
p3830
aaa(lp3831
S'JEFF'
p3832
a(lp3833
S'Oh'
p3834
aS'honey'
p3835
aaa(lp3836
g3832
a(lp3837
g33
aS'miss'
p3838
aS'you'
p3839
aaa(lp3840
S'JILL'
p3841
a(lp3842
g33
aS'miss'
p3843
aS'you'
p3844
aS'too'
p3845
aaa(lp3846
S'JEFF'
p3847
a(lp3848
g33
aS'miss'
p3849
aS'looking'
p3850
aS'into'
p3851
aS'those'
p3852
aS'eyes'
p3853
aaa(lp3854
S'JILL'
p3855
a(lp3856
S'Aw'
p3857
aaa(lp3858
S'JEFF'
p3859
a(lp3860
S'and'
p3861
aS'smelling'
p3862
aS'those'
p3863
aS'thighs'
p3864
aaa(lp3865
S'JILL'
p3866
a(lp3867
aa(lp3868
S'JEFF'
p3869
a(lp3870
aa(lp3871
S'JILL'
p3872
a(lp3873
S'oh'
p3874
aaa(lp3875
S'JEFF'
p3876
a(lp3877
aa(lp3878
S'JILL'
p3879
a(lp3880
S'yeah'
p3881
ag33
aS'miss'
p3882
aS'you'
p3883
ag77
aS'lot'
p3884
aaa(lp3885
g3879
a(lp3886
S'Its'
p3887
aS'hard'
p3888
aaa(lp3889
g3879
a(lp3890
S'when'
p3891
aS'Jills'
p3892
aS'here'
p3893
aaa(lp3894
g3879
a(lp3895
S'we'
p3896
aS'talk'
p3897
aS'about'
p3898
aS'you'
p3899
aS'so'
p3900
aS'much'
p3901
aaa(lp3902
S'JEFF'
p3903
a(lp3904
S'No'
p3905
aS'you'
p3906
aS'dont'
p3907
aaa(lp3908
S'JILLYes'
p3909
a(lp3910
S'we'
p3911
aS'do'
p3912
aaa(lp3913
S'JEFFYoure'
p3914
a(lp3915
S'just'
p3916
aS'saying'
p3917
aS'that'
p3918
aaa(lp3919
S'JILLNo'
p3920
a(lp3921
aa(lp3922
g3920
a(lp3923
g348
aS'We'
p3924
ag348
aaa(lp3925
S'JEFFAre'
p3926
a(lp3927
S'you'
p3928
aS'serious'
p3929
aaa(lp3930
S'JILLUnhunh'
p3931
a(lp3932
aa(lp3933
S'JEFFWait'
p3934
a(lp3935
aa(lp3936
g3934
a(lp3937
S'You'
p3938
aS'really'
p3939
aS'do'
p3940
aaa(lp3941
S'JILL'
p3942
a(lp3943
aa(lp3944
S'JEFF'
p3945
a(lp3946
S'No'
p3947
aaa(lp3948
g3945
a(lp3949
S'Real'
p3950
aaa(lp3951
S'JILL'
p3952
a(lp3953
S'Really'
p3954
aaa(lp3955
g3952
a(lp3956
S'We'
p3957
aS'do'
p3958
aaa(lp3959
g3952
a(lp3960
S'But'
p3961
aS'it'
p3962
aS'makes'
p3963
aS'me'
p3964
aS'miss'
p3965
aS'you'
p3966
aS'more'
p3967
aaa(lp3968
g3952
a(lp3969
S'You'
p3970
aS'know'
p3971
aaa(lp3972
S'JEFF'
p3973
a(lp3974
aa(lp3975
S'JILL'
p3976
a(lp3977
S'Just'
p3978
aaa(lp3979
S'JEFF'
p3980
a(lp3981
S'Do'
p3982
aS'you'
p3983
aS'guys'
p3984
aaa(lp3985
g3980
a(lp3986
S'Do'
p3987
aS'you'
p3988
aS'say'
p3989
aS'any'
p3990
aS'bad'
p3991
aS'things'
p3992
aS'about'
p3993
aS'me'
p3994
aaa(lp3995
S'JILLNo'
p3996
a(lp3997
aa(lp3998
g3996
a(lp3999
S'Us'
p4000
aaa(lp4001
S'JEFF'
p4002
a(lp4003
aa(lp4004
S'JILL'
p4005
a(lp4006
S'Who'
p4007
aaa(lp4008
g4005
a(lp4009
S'Us'
p4010
aaa(lp4011
S'JEFF'
p4012
a(lp4013
S'No'
p4014
aaa(lp4015
S'JILL'
p4016
a(lp4017
aa(lp4018
S'JEFFthats'
p4019
a(lp4020
g77
aS'wrong'
p4021
aS'clow'
p4022
aS'crowd'
p4023
aaa(lp4024
g4019
a(lp4025
S'Hunh'
p4026
aaa(lp4027
S'JILL'
p4028
a(lp4029
aa(lp4030
S'JEFF'
p4031
a(lp4032
aa(lp4033
S'JILL'
p4034
a(lp4035
aa(lp4036
g4034
a(lp4037
S'Aw'
p4038
aaa(lp4039
S'JEFF'
p4040
a(lp4041
S'Well'
p4042
aaa(lp4043
g4040
a(lp4044
S'give'
p4045
aS'me'
p4046
aS'the'
p4047
aS'highlights'
p4048
aaa(lp4049
S'JILL'
p4050
a(lp4051
S'The'
p4052
aS'highlights'
p4053
aaa(lp4054
S'JEFFYeah'
p4055
a(lp4056
aa(lp4057
S'JILL'
p4058
a(lp4059
S'Of'
p4060
aS'what'
p4061
aS'we'
p4062
aS'talk'
p4063
aS'about'
p4064
aS'you'
p4065
aaa(lp4066
S'JEFF'
p4067
a(lp4068
S'Yeah'
p4069
aaa(lp4070
S'JILL'
p4071
a(lp4072
S'Um'
p4073
aaa(lp4074
g4071
a(lp4075
S'let'
p4076
aS'me'
p4077
aS'think'
p4078
aaa(lp4079
g4071
a(lp4080
S'let'
p4081
aS'me'
p4082
aS'think'
p4083
aS'of'
p4084
aS'some'
p4085
aS'good'
p4086
aS'ones'
p4087
aaa(lp4088
S'JEFFCondense'
p4089
a(lp4090
S'it'
p4091
aS'down'
p4092
aS'to'
p4093
ag77
aS'minute'
p4094
aaa(lp4095
S'JILLOkay'
p4096
a(lp4097
aa(lp4098
g4096
a(lp4099
S'we'
p4100
aS'said'
p4101
aS'something'
p4102
aS'so'
p4103
aS'funny'
p4104
aS'today'
p4105
aaa(lp4106
g4096
a(lp4107
S'And'
p4108
ag33
aS'thought'
p4109
aS'when'
p4110
aS'Jill'
p4111
aS'said'
p4112
aS'it'
p4113
aaa(lp4114
g4096
a(lp4115
S'it'
p4116
aS'captured'
p4117
aS'you'
p4118
aS'so'
p4119
aS'well'
p4120
aaa(lp4121
g4096
a(lp4122
S'and'
p4123
aS'we'
p4124
aS'both'
p4125
aS'laughed'
p4126
aaa(lp4127
g4096
a(lp4128
S'cause'
p4129
ag33
aS'think'
p4130
aaa(lp4131
g4096
a(lp4132
S'it'
p4133
aS'was'
p4134
aS'just'
p4135
aS'so'
p4136
aS'funny'
p4137
aS'how'
p4138
aS'well'
p4139
aS'we'
p4140
aS'both'
p4141
aS'know'
p4142
aS'you'
p4143
aaa(lp4144
g4096
a(lp4145
S'Um'
p4146
aaa(lp4147
g4096
a(lp4148
g33
aS'guess'
p4149
aS'we'
p4150
aS'were'
p4151
aS'talking'
p4152
aS'about'
p4153
aaa(lp4154
g4096
a(lp4155
g33
aS'dont'
p4156
aS'know'
p4157
aS'what'
p4158
aS'came'
p4159
aS'up'
p4160
aaa(lp4161
g4096
a(lp4162
S'we'
p4163
aS'were'
p4164
aS'talking'
p4165
aS'about'
p4166
aS'TV'
p4167
aaa(lp4168
g4096
a(lp4169
S'or'
p4170
aS'television'
p4171
aS'shows'
p4172
aaa(lp4173
g4096
a(lp4174
S'and'
p4175
ag33
aS'mentioned'
p4176
aaa(lp4177
g4096
a(lp4178
S'yeah'
p4179
aaa(lp4180
g4096
a(lp4181
S'you'
p4182
aS'really'
p4183
aaa(lp4184
g4096
a(lp4185
S'you'
p4186
aS'like'
p4187
aS'to'
p4188
aS'watch'
p4189
aS'MASH'
p4190
aaa(lp4191
S'JEFFMhm'
p4192
a(lp4193
aa(lp4194
S'JILLAnd'
p4195
a(lp4196
aa(lp4197
g4195
a(lp4198
S'she'
p4199
aS'laughed'
p4200
aS'and'
p4201
aS'said'
p4202
aaa(lp4203
g4195
a(lp4204
S'yeah'
p4205
aaa(lp4206
g4195
a(lp4207
S'cant'
p4208
aS'you'
p4209
aS'just'
p4210
aS'picture'
p4211
aS'Jeff'
p4212
aaa(lp4213
g4195
a(lp4214
S'sitting'
p4215
aS'on'
p4216
aS'his'
p4217
aS'couch'
p4218
aaa(lp4219
g4195
a(lp4220
S'and'
p4221
aS'watching'
p4222
aS'MASH'
p4223
aaa(lp4224
g4195
a(lp4225
S'with'
p4226
aS'some'
p4227
aS'orange'
p4228
aS'juice'
p4229
aaa(lp4230
g4195
a(lp4231
S'with'
p4232
aS'ice'
p4233
aS'cubes'
p4234
aaa(lp4235
S'JEFF'
p4236
a(lp4237
aa(lp4238
S'JILLAnd'
p4239
a(lp4240
S'we'
p4241
aS'started'
p4242
aS'laughing'
p4243
aaa(lp4244
g4239
a(lp4245
S'and'
p4246
aS'Jill'
p4247
aS'went'
p4248
aaa(lp4249
g4239
a(lp4250
S'thats'
p4251
aS'Jeffs'
p4252
aS'slice'
p4253
aS'of'
p4254
aS'heaven'
p4255
aaa(lp4256
g4239
a(lp4257
S'Like'
p4258
aS'little'
p4259
aS'piece'
p4260
aS'of'
p4261
aS'heaven'
p4262
aaa(lp4263
g4239
a(lp4264
S'And'
p4265
aS'we'
p4266
aS'just'
p4267
aS'thought'
p4268
aS'it'
p4269
aS'was'
p4270
aS'so'
p4271
aS'funny'
p4272
aaa(lp4273
S'JEFF'
p4274
a(lp4275
aa(lp4276
S'JILLbecause'
p4277
a(lp4278
aa(lp4279
g4277
a(lp4280
S'like'
p4281
aaa(lp4282
g4277
a(lp4283
S'it'
p4284
aS'really'
p4285
aS'captured'
p4286
aS'you'
p4287
aaa(lp4288
S'JEFF'
p4289
a(lp4290
aa(lp4291
S'JILL'
p4292
a(lp4293
S'Like'
p4294
aaa(lp4295
g4292
a(lp4296
S'we'
p4297
aS'both'
p4298
aS'know'
p4299
aS'youd'
p4300
aS'be'
p4301
aS'sitting'
p4302
aS'there'
p4303
aS'with'
p4304
aS'orange'
p4305
aS'juice'
p4306
aS'with'
p4307
aS'ice'
p4308
aS'cubes'
p4309
aaa(lp4310
S'JEFF'
p4311
a(lp4312
S'Only'
p4313
aaa(lp4314
g4311
a(lp4315
g33
aS'havent'
p4316
aS'had'
p4317
aS'ice'
p4318
aS'cubes'
p4319
aS'here'
p4320
aS'since'
p4321
aS'September'
p4322
aaa(lp4323
S'JILL'
p4324
a(lp4325
S'Are'
p4326
aS'you'
p4327
aS'serious'
p4328
aaa(lp4329
S'JEFFYeah'
p4330
a(lp4331
S'because'
p4332
aaa(lp4333
g4330
a(lp4334
S'you'
p4335
aS'know'
p4336
aS'how'
p4337
aS'big'
p4338
aS't'
p4339
aS'thick'
p4340
aS'the'
p4341
aS'freezer'
p4342
aS'gets'
p4343
aaa(lp4344
S'JILLUnhunh'
p4345
a(lp4346
aa(lp4347
S'JEFF'
p4348
a(lp4349
g33
aS'just'
p4350
aS'dont'
p4351
aS'even'
p4352
aS'bother'
p4353
aaa(lp4354
g4348
a(lp4355
g33
aS'just'
p4356
aS'keep'
p4357
aS'it'
p4358
aS'at'
p4359
ag77
aS'high'
p4360
aS'temperature'
p4361
aaa(lp4362
S'JILLUnhunh'
p4363
a(lp4364
aa(lp4365
S'JEFFX'
p4366
a(lp4367
S'or'
p4368
aS'Or'
p4369
ag348
aaa(lp4370
g4366
a(lp4371
g33
aS'keep'
p4372
aS'it'
p4373
aS'really'
p4374
aS'cool'
p4375
aaa(lp4376
g4366
a(lp4377
S'So'
p4378
aaa(lp4379
g4366
a(lp4380
S'its'
p4381
aS'cold'
p4382
aS'enough'
p4383
aS'for'
p4384
aS'me'
p4385
aaa(lp4386
S'JILL'
p4387
a(lp4388
S'Oh'
p4389
aaa(lp4390
S'JEFF'
p4391
a(lp4392
S'So'
p4393
aS'youre'
p4394
aS'absolutely'
p4395
aS'right'
p4396
aaa(lp4397
g4391
a(lp4398
g33
aS'drink'
p4399
aS'orange'
p4400
aS'juice'
p4401
aaa(lp4402
g4391
a(lp4403
S'but'
p4404
aaa(lp4405
g4391
a(lp4406
S'of'
p4407
aS'orange'
p4408
aS'juice'
p4409
aaa(lp4410
g4391
a(lp4411
S'every'
p4412
aS'two'
p4413
aS'days'
p4414
aaa(lp4415
S'JILL'
p4416
a(lp4417
S'Honey'
p4418
aaa(lp4419
S'JEFF'
p4420
a(lp4421
S'Impressive'
p4422
aaa(lp4423
g4420
a(lp4424
S'hunh'
p4425
aaa(lp4426
S'JILL'
p4427
a(lp4428
aa(lp4429
S'JEFF'
p4430
a(lp4431
aa(lp4432
g4430
a(lp4433
S'Aw'
p4434
aaa(lp4435
g4430
a(lp4436
S'the'
p4437
aS'old'
p4438
aS'lady'
p4439
aaa(lp4440
S'JILL'
p4441
a(lp4442
S'Oh'
p4443
aaa(lp4444
S'JEFF'
p4445
a(lp4446
S'She'
p4447
aS'just'
p4448
aS'looked'
p4449
aS'at'
p4450
aS'me'
p4451
aaa(lp4452
g4445
a(lp4453
S'and'
p4454
aS'then'
p4455
aaa(lp4456
g4445
a(lp4457
S'you'
p4458
aS'know'
p4459
aS'what'
p4460
ag33
aS'just'
p4461
aS'realized'
p4462
aaa(lp4463
S'JILLWH'
p4464
a(lp4465
S'What'
p4466
aS'WH'
p4467
aaa(lp4468
S'JEFFShe'
p4469
a(lp4470
S'looked'
p4471
aS'at'
p4472
aS'me'
p4473
aaa(lp4474
g4469
a(lp4475
S'she'
p4476
aS'was'
p4477
aS'walking'
p4478
aS'down'
p4479
aS'the'
p4480
aS'stairs'
p4481
aaa(lp4482
S'JILLUnhunh'
p4483
a(lp4484
aa(lp4485
S'JEFFShe'
p4486
a(lp4487
S'looked'
p4488
aS'at'
p4489
aS'me'
p4490
aaa(lp4491
g4486
a(lp4492
S'and'
p4493
aS'she'
p4494
ag635
aaa(lp4495
g4486
a(lp4496
S'she'
p4497
aS'didnt'
p4498
aS'see'
p4499
aS'me'
p4500
aaa(lp4501
S'JILL'
p4502
a(lp4503
S'Really'
p4504
aaa(lp4505
S'JEFF'
p4506
a(lp4507
S'Yeah'
p4508
aaa(lp4509
g4506
a(lp4510
g33
aS'waved'
p4511
aS'at'
p4512
aS'her'
p4513
aS'and'
p4514
aaa(lp4515
g4506
a(lp4516
S'she'
p4517
aS'just'
p4518
aS'kept'
p4519
aS'going'
p4520
aaa(lp4521
S'JILL'
p4522
a(lp4523
S'Maybe'
p4524
aS'um'
p4525
aaa(lp4526
g4522
a(lp4527
S'if'
p4528
aS'theres'
p4529
ag77
aS'reflection'
p4530
aS'or'
p4531
aS'something'
p4532
aaa(lp4533
S'JEFF'
p4534
a(lp4535
S'What'
p4536
ag77
aS'body'
p4537
aS'she'
p4538
aS'has'
p4539
aaa(lp4540
S'JILL'
p4541
a(lp4542
S'Isnt'
p4543
aS'that'
p4544
aS'incredible'
p4545
aaa(lp4546
g4541
a(lp4547
S'Are'
p4548
aS'our'
p4549
aS'bodies'
p4550
aS'gonna'
p4551
aS'do'
p4552
aS'that'
p4553
aaa(lp4554
S'JEFFIts'
p4555
a(lp4556
S'like'
p4557
aaa(lp4558
g4555
a(lp4559
S'its'
p4560
aS'like'
p4561
aaa(lp4562
g4555
a(lp4563
S'shes'
p4564
aS'evolving'
p4565
aaa(lp4566
S'JILL'
p4567
a(lp4568
aa(lp4569
S'JEFF'
p4570
a(lp4571
S'You'
p4572
aS'know'
p4573
aS'like'
p4574
aaa(lp4575
g4570
a(lp4576
S'its'
p4577
aS'funny'
p4578
aaa(lp4579
S'JILL'
p4580
a(lp4581
S'Or'
p4582
aaa(lp4583
g4580
a(lp4584
S'degenerating'
p4585
aaa(lp4586
g4580
a(lp4587
S'No'
p4588
aaa(lp4589
S'JEFFDegener'
p4590
a(lp4591
aa(lp4592
g4590
a(lp4593
S'Yeah'
p4594
aaa(lp4595
g4590
a(lp4596
S'Its'
p4597
aS'kinda'
p4598
aS'weird'
p4599
aaa(lp4600
S'JILL'
p4601
a(lp4602
aa(lp4603
S'JEFFHunh'
p4604
a(lp4605
aa(lp4606
S'JILL'
p4607
a(lp4608
S'Yeah'
p4609
aaa(lp4610
S'JEFF'
p4611
a(lp4612
S'The'
p4613
aS'whole'
p4614
aS'cycle'
p4615
aS'of'
p4616
aS'life'
p4617
aaa(lp4618
g4611
a(lp4619
S'What'
p4620
ag77
aS'fucking'
p4621
aS'trip'
p4622
aaa(lp4623
S'JILL'
p4624
a(lp4625
aa(lp4626
g4624
a(lp4627
g33
aS'know'
p4628
aaa(lp4629
S'JEFF'
p4630
a(lp4631
S'Oh'
p4632
aS'but'
p4633
aS'di'
p4634
aaa(lp4635
g4630
a(lp4636
g33
ag635
aaa(lp4637
g4630
a(lp4638
g33
aS'know'
p4639
aS'you'
p4640
aS'would'
p4641
aS'you'
p4642
aS'get'
p4643
aS'excited'
p4644
aS'about'
p4645
aS'things'
p4646
aS'like'
p4647
aS'this'
p4648
aS'too'
p4649
aaa(lp4650
g4630
a(lp4651
S'but'
p4652
aS'did'
p4653
aS'you'
p4654
aS'read'
p4655
aS'in'
p4656
aS'the'
p4657
aS'paper'
p4658
aaa(lp4659
g4630
a(lp4660
S'about'
p4661
aS'the'
p4662
aS'um'
p4663
aS'planets'
p4664
aaa(lp4665
g4630
a(lp4666
S'cir'
p4667
aS'circulating'
p4668
aS'around'
p4669
aS'other'
p4670
aS'stars'
p4671
aaa(lp4672
S'JILLNo'
p4673
a(lp4674
aa(lp4675
g4673
a(lp4676
S'what'
p4677
aS'about'
p4678
aS'them'
p4679
aaa(lp4680
S'JEFF'
p4681
a(lp4682
S'Theres'
p4683
aS'irr'
p4684
aaa(lp4685
g4681
a(lp4686
S'irreb'
p4687
aaa(lp4688
g4681
a(lp4689
S'irred'
p4690
aaa(lp4691
g4681
a(lp4692
S'Theres'
p4693
aS'proof'
p4694
aaa(lp4695
g4681
a(lp4696
S'Whats'
p4697
aS'the'
p4698
aaa(lp4699
g4681
a(lp4700
S'whats'
p4701
aS'the'
p4702
aS'word'
p4703
aS'that'
p4704
aS'goes'
p4705
aS'before'
p4706
aS'proof'
p4707
aaa(lp4708
S'JILL'
p4709
a(lp4710
S'Irrefutable'
p4711
aaa(lp4712
S'JEFFIrrefutable'
p4713
a(lp4714
S'proof'
p4715
aaa(lp4716
S'JILL'
p4717
a(lp4718
S'Whats'
p4719
aS'the'
p4720
aS'word'
p4721
aS'that'
p4722
aS'goes'
p4723
aS'before'
p4724
aS'proof'
p4725
aaa(lp4726
S'JEFF'
p4727
a(lp4728
S'There'
p4729
aaa(lp4730
g4727
a(lp4731
S'thank'
p4732
aS'you'
p4733
aS'honey'
p4734
aaa(lp4735
g4727
a(lp4736
S'That'
p4737
aS'was'
p4738
aS'so'
p4739
aS'good'
p4740
aaa(lp4741
S'JILL'
p4742
a(lp4743
aa(lp4744
S'JEFFWhat'
p4745
a(lp4746
g77
aS'good'
p4747
aS'team'
p4748
aS'we'
p4749
aS'are'
p4750
aaa(lp4751
S'JILL'
p4752
a(lp4753
aa(lp4754
S'JEFF'
p4755
a(lp4756
aa(lp4757
g4755
a(lp4758
g33
aS'could'
p4759
aS'just'
p4760
aS'see'
p4761
aS'myself'
p4762
aS'like'
p4763
aS'lecturing'
p4764
aS'to'
p4765
ag77
aS'bunch'
p4766
aS'of'
p4767
aS'people'
p4768
aS'and'
p4769
aaa(lp4770
g4755
a(lp4771
S'like'
p4772
aaa(lp4773
g4755
a(lp4774
S'oh'
p4775
aS'honey'
p4776
aaa(lp4777
g4755
a(lp4778
S'by'
p4779
aS'the'
p4780
aS'way'
p4781
aaa(lp4782
g4755
a(lp4783
S'Whats'
p4784
aS'that'
p4785
aS'word'
p4786
aS'that'
p4787
aaa(lp4788
S'JILL'
p4789
a(lp4790
aa(lp4791
g4789
a(lp4792
S'that'
p4793
aS'goes'
p4794
aS'before'
p4795
aS'honor'
p4796
aaa(lp4797
S'JEFF'
p4798
a(lp4799
S'MRC'
p4800
aS'irrefutable'
p4801
aS'MRC'
p4802
aS'Jeff'
p4803
aaa(lp4804
g4798
a(lp4805
S'Im'
p4806
aS'like'
p4807
aaa(lp4808
S'JILL'
p4809
a(lp4810
aa(lp4811
S'JEFFQ'
p4812
a(lp4813
S'oh'
p4814
aS'yes'
p4815
aS'yes'
p4816
aS'yes'
p4817
aaa(lp4818
g4812
a(lp4819
S'thank'
p4820
aS'you'
p4821
aS'very'
p4822
aS'much'
p4823
aaa(lp4824
g4812
a(lp4825
S'What'
p4826
aS'would'
p4827
ag33
aS'be'
p4828
aS'without'
p4829
aS'her'
p4830
aS'Q'
p4831
aaa(lp4832
S'JILL'
p4833
a(lp4834
aa(lp4835
S'JEFF'
p4836
a(lp4837
aa(lp4838
S'JILL'
p4839
a(lp4840
aa(lp4841
S'JEFF'
p4842
a(lp4843
S'Um'
p4844
aaa(lp4845
g4842
a(lp4846
S'wouldnt'
p4847
aS'that'
p4848
aS'be'
p4849
aS'funny'
p4850
aaa(lp4851
S'JILL'
p4852
a(lp4853
aa(lp4854
g4852
a(lp4855
S'Yeah'
p4856
aaa(lp4857
S'JEFFAw'
p4858
a(lp4859
S'honey'
p4860
aaa(lp4861
g4858
a(lp4862
S'Wouldnt'
p4863
aS'that'
p4864
aS'be'
p4865
aS'funny'
p4866
aaa(lp4867
S'JILLSM'
p4868
a(lp4869
S'That'
p4870
aS'would'
p4871
aS'be'
p4872
aS'SM'
p4873
aaa(lp4874
S'JEFF'
p4875
a(lp4876
S'Like'
p4877
aS'if'
p4878
aS'someone'
p4879
aS'was'
p4880
aS'lecturing'
p4881
aaa(lp4882
g4875
a(lp4883
S'And'
p4884
aS'they'
p4885
aS'said'
p4886
aaa(lp4887
g4875
a(lp4888
g348
aS'they'
p4889
aS'looked'
p4890
aS'at'
p4891
aS'you'
p4892
ag348
aaa(lp4893
S'JILL'
p4894
a(lp4895
aa(lp4896
S'JEFFthey'
p4897
a(lp4898
S'said'
p4899
aaa(lp4900
g4897
a(lp4901
g4831
aS'is'
p4902
aS'my'
p4903
aS'wife'
p4904
aS'here'
p4905
ag4831
aaa(lp4906
g4897
a(lp4907
S'm_well'
p4908
aaa(lp4909
S'JILL'
p4910
a(lp4911
aa(lp4912
S'JEFFand'
p4913
a(lp4914
aa(lp4915
g4913
a(lp4916
S'then'
p4917
aS'she'
p4918
aS'raises'
p4919
aS'her'
p4920
aS'hand'
p4921
aaa(lp4922
S'JILL'
p4923
a(lp4924
aa(lp4925
S'JEFF'
p4926
a(lp4927
g4831
aS'Oh'
p4928
aS'honey'
p4929
aaa(lp4930
g4926
a(lp4931
S'what'
p4932
aS'wor'
p4933
aS'were'
p4934
aS'we'
p4935
aS'talking'
p4936
aS'about'
p4937
aS'the'
p4938
aS'other'
p4939
aS'night'
p4940
aaa(lp4941
S'JILL'
p4942
a(lp4943
g4831
aS'Whats'
p4944
aS'that'
p4945
aS'word'
p4946
aS'Im'
p4947
aS'looking'
p4948
aS'for'
p4949
aS'honey'
p4950
aaa(lp4951
S'JEFFyou'
p4952
a(lp4953
S'know'
p4954
aaa(lp4955
g4952
a(lp4956
S'when'
p4957
ag4831
aaa(lp4958
S'JILL'
p4959
a(lp4960
aa(lp4961
g4959
a(lp4962
S'You'
p4963
aS'know'
p4964
aS'what'
p4965
aS'Im'
p4966
aS'talking'
p4967
aS'about'
p4968
ag4831
aaa(lp4969
S'JEFF'
p4970
a(lp4971
aa(lp4972
g4970
a(lp4973
g33
aaa(lp4974
g4970
a(lp4975
S'Wouldnt'
p4976
aS'the'
p4977
aS'whole'
p4978
aS'place'
p4979
aS'just'
p4980
aS'laugh'
p4981
aaa(lp4982
S'JILL'
p4983
a(lp4984
S'Yeah'
p4985
aaa(lp4986
g4983
a(lp4987
g33
aS'think'
p4988
ag348
aS'its'
p4989
ag348
aS'so'
p4990
aS'funny'
p4991
aaa(lp4992
S'JEFF'
p4993
a(lp4994
S'Okay'
p4995
aaa(lp4996
g4993
a(lp4997
S'anyway'
p4998
aaa(lp4999
g4993
a(lp5000
S'Can'
p5001
ag33
aS'run'
p5002
aS'this'
p5003
aS'by'
p5004
aS'you'
p5005
aS'really'
p5006
aS'quick'
p5007
aaa(lp5008
S'JILL'
p5009
a(lp5010
S'Unhunh'
p5011
aaa(lp5012
S'JEFF'
p5013
a(lp5014
S'Theres'
p5015
aS'this'
p5016
aS'scientist'
p5017
aaa(lp5018
g5013
a(lp5019
S'that'
p5020
aS'came'
p5021
aS'up'
p5022
aS'with'
p5023
aS'irrefutable'
p5024
aS'proof'
p5025
aaa(lp5026
g5013
a(lp5027
S'that'
p5028
aaa(lp5029
g5013
a(lp5030
S'there'
p5031
aS'are'
p5032
aaa(lp5033
g5013
a(lp5034
S'there'
p5035
aS'they'
p5036
aS'found'
p5037
aS'two'
p5038
aS'planets'
p5039
aS'circulating'
p5040
aS'around'
p5041
ag77
aS'sun'
p5042
aaa(lp5043
g5013
a(lp5044
S'Or'
p5045
aaa(lp5046
g5013
a(lp5047
g77
aS'star'
p5048
aaa(lp5049
g5013
a(lp5050
S'in'
p5051
aS'the'
p5052
aS'universe'
p5053
aaa(lp5054
g5013
a(lp5055
S'outside'
p5056
aS'of'
p5057
aS'our'
p5058
aS'solar'
p5059
aS'system'
p5060
aaa(lp5061
S'JILL'
p5062
a(lp5063
S'BRWI'
p5064
aS'Really'
p5065
aS'WIBR'
p5066
aaa(lp5067
S'JEFF'
p5068
a(lp5069
S'And'
p5070
aS'so'
p5071
aaa(lp5072
g5068
a(lp5073
S'which'
p5074
aS'like'
p5075
aS'made'
p5076
aS'me'
p5077
aS'think'
p5078
aaa(lp5079
g5068
a(lp5080
S'you'
p5081
aS'know'
p5082
aS'like'
p5083
aaa(lp5084
g5068
a(lp5085
S'you'
p5086
aS'know'
p5087
aS'like'
p5088
aS'how'
p5089
aS'we'
p5090
aS'have'
p5091
aS'always'
p5092
aS'talked'
p5093
aS'about'
p5094
aS'life'
p5095
aS'being'
p5096
aS'out'
p5097
aS'there'
p5098
aaa(lp5099
g5068
a(lp5100
S'you'
p5101
aS'know'
p5102
aaa(lp5103
S'JILL'
p5104
a(lp5105
S'Unhunh'
p5106
aaa(lp5107
S'JEFFlike'
p5108
a(lp5109
S'there'
p5110
aS'has'
p5111
aS'to'
p5112
aS'be'
p5113
aaa(lp5114
g5108
a(lp5115
S'Cause'
p5116
aS'theres'
p5117
aS'planets'
p5118
aS'evolving'
p5119
aS'around'
p5120
aaa(lp5121
g5108
a(lp5122
S'um'
p5123
aaa(lp5124
S'JILLUnhunh'
p5125
a(lp5126
aa(lp5127
S'JEFF'
p5128
a(lp5129
S'you'
p5130
aS'know'
p5131
aS'various'
p5132
aS'stars'
p5133
aS'and'
p5134
aS'stuff'
p5135
aaa(lp5136
g5128
a(lp5137
S'Just'
p5138
aS'like'
p5139
aS'ours'
p5140
aaa(lp5141
S'JILLUnhunh'
p5142
a(lp5143
aa(lp5144
S'JEFF'
p5145
a(lp5146
S'And'
p5147
aaa(lp5148
g5145
a(lp5149
S'but'
p5150
aS'see'
p5151
ag33
aS'never'
p5152
aS'knew'
p5153
aS'that'
p5154
aS'that'
p5155
aS'was'
p5156
aS'just'
p5157
ag77
aS'theory'
p5158
aaa(lp5159
g5145
a(lp5160
S'You'
p5161
aS'know'
p5162
aaa(lp5163
g5145
a(lp5164
S'an'
p5165
ag77
aS'theory'
p5166
aS'that'
p5167
aS'there'
p5168
aS'were'
p5169
aS'planets'
p5170
aS'going'
p5171
aS'around'
p5172
aS'other'
p5173
aS'stars'
p5174
aaa(lp5175
S'JILLYou'
p5176
a(lp5177
S'mean'
p5178
aS'you'
p5179
aS'actually'
p5180
aS'thought'
p5181
aS'that'
p5182
aS'we'
p5183
aS'had'
p5184
aS'seen'
p5185
aS'this'
p5186
aS'before'
p5187
aaa(lp5188
S'JEFF'
p5189
a(lp5190
S'No'
p5191
aaa(lp5192
g5189
a(lp5193
g348
aS'No'
p5194
ag348
aaa(lp5195
g5189
a(lp5196
S'Actually'
p5197
aS'tha'
p5198
ag33
ag33
aaa(lp5199
g5189
a(lp5200
S'No'
p5201
ag33
aS'didnt'
p5202
aaa(lp5203
g5189
a(lp5204
g33
aS'just'
p5205
aaa(lp5206
g5189
a(lp5207
g33
aS'just'
p5208
aS'thought'
p5209
aS'that'
p5210
aS'it'
p5211
aS'was'
p5212
aS'like'
p5213
aS'pretty'
p5214
aS'much'
p5215
aS'factual'
p5216
aaa(lp5217
S'JILL'
p5218
a(lp5219
S'Oh'
p5220
aaa(lp5221
g5218
a(lp5222
S'yeah'
p5223
aaa(lp5224
S'JEFFX'
p5225
a(lp5226
aa(lp5227
S'JILLnot'
p5228
a(lp5229
S'at'
p5230
aS'all'
p5231
aaa(lp5232
S'JEFF'
p5233
a(lp5234
aa(lp5235
g5233
a(lp5236
S'you'
p5237
aS'know'
p5238
aaa(lp5239
g5233
a(lp5240
S'So'
p5241
aaa(lp5242
g5233
a(lp5243
S'its'
p5244
aS'kind'
p5245
aS'of'
p5246
aS'like'
p5247
ag77
aS'leap'
p5248
aS'of'
p5249
aS'faith'
p5250
aaa(lp5251
g5233
a(lp5252
S'you'
p5253
aS'know'
p5254
aS'that'
p5255
aS'we'
p5256
aS'have'
p5257
aS'always'
p5258
aS'thought'
p5259
aS'that'
p5260
aaa(lp5261
S'JILL'
p5262
a(lp5263
g814
aaa(lp5264
S'JEFF'
p5265
a(lp5266
S'You'
p5267
aS'know'
p5268
aaa(lp5269
g5265
a(lp5270
g33
aS'mean'
p5271
aS'like'
p5272
aaa(lp5273
g5265
a(lp5274
S'like'
p5275
aS'the'
p5276
aS'scientist'
p5277
aS'who'
p5278
aS'who'
p5279
aS'does'
p5280
ag348
aS'it'
p5281
ag348
aaa(lp5282
g5265
a(lp5283
S'cant'
p5284
aS'really'
p5285
aS'prove'
p5286
aS'it'
p5287
aaa(lp5288
g5265
a(lp5289
S'Like'
p5290
aS'they'
p5291
aaa(lp5292
g5265
a(lp5293
S'they'
p5294
aS'make'
p5295
aS'this'
p5296
aS'leap'
p5297
aaa(lp5298
g5265
a(lp5299
S'of'
p5300
aS'faith'
p5301
aaa(lp5302
g5265
a(lp5303
S'you'
p5304
aS'know'
p5305
aaa(lp5306
g5265
a(lp5307
S'they'
p5308
aS'just'
p5309
aS'assume'
p5310
aaa(lp5311
g5265
a(lp5312
S'Right'
p5313
aaa(lp5314
g5265
a(lp5315
S'that'
p5316
aS'there'
p5317
aS'w'
p5318
aS'there'
p5319
aS'were'
p5320
aS'planets'
p5321
aaa(lp5322
S'JILL'
p5323
a(lp5324
S'Mhm'
p5325
aaa(lp5326
S'JEFF'
p5327
a(lp5328
S'around'
p5329
aS'other'
p5330
aS'suns'
p5331
aaa(lp5332
g5327
a(lp5333
S'Right'
p5334
aaa(lp5335
S'JILL'
p5336
a(lp5337
S'Right'
p5338
aaa(lp5339
g5336
a(lp5340
S'Just'
p5341
aS'by'
p5342
aS'the'
p5343
aS'sheer'
p5344
aS'numbers'
p5345
aaa(lp5346
g5336
a(lp5347
S'They'
p5348
aS'thought'
p5349
aaa(lp5350
g5336
a(lp5351
S'well'
p5352
aS'what'
p5353
aS'are'
p5354
aS'the'
p5355
aS'chances'
p5356
aaa(lp5357
g5336
a(lp5358
S'You'
p5359
aS'know'
p5360
aaa(lp5361
g5336
a(lp5362
g776
aS'we'
p5363
aS'have'
p5364
aS'billions'
p5365
aS'and'
p5366
aS'millions'
p5367
aS'of'
p5368
aS'stars'
p5369
aaa(lp5370
g5336
a(lp5371
S'then'
p5372
aS'chances'
p5373
aS'are'
p5374
aaa(lp5375
g5336
a(lp5376
S'You'
p5377
aS'know'
p5378
aaa(lp5379
g5336
a(lp5380
S'even'
p5381
aS'if'
p5382
aS'it'
p5383
aS'takes'
p5384
aS'like'
p5385
aS'one'
p5386
aS'in'
p5387
ag77
aS'million'
p5388
aS'chance'
p5389
aaa(lp5390
g5336
a(lp5391
S'for'
p5392
aS'there'
p5393
aS'to'
p5394
aS'be'
p5395
aS'another'
p5396
aS'planetary'
p5397
aS'system'
p5398
aaa(lp5399
g5336
a(lp5400
S'Well'
p5401
aaa(lp5402
g5336
a(lp5403
S'like'
p5404
ag348
aS'we'
p5405
aS'have'
p5406
aS'millions'
p5407
aS'and'
p5408
aS'millions'
p5409
aS'and'
p5410
aS'billions'
p5411
aS'of'
p5412
aS'opportunities'
p5413
aaa(lp5414
g5336
a(lp5415
S'to'
p5416
aS'have'
p5417
aS'that'
p5418
aS'happen'
p5419
aaa(lp5420
S'JEFF'
p5421
a(lp5422
S'Unhunh'
p5423
aaa(lp5424
S'JILL'
p5425
a(lp5426
S'So'
p5427
aaa(lp5428
g5425
a(lp5429
g33
aS'think'
p5430
aS'thats'
p5431
aS'the'
p5432
aS'whole'
p5433
aS'thing'
p5434
aaa(lp5435
g5425
a(lp5436
S'like'
p5437
aS'Carl'
p5438
aS'Sagan'
p5439
aaa(lp5440
g5425
a(lp5441
S'would'
p5442
aS'always'
p5443
aS'go'
p5444
aS'yeah'
p5445
aaa(lp5446
g5425
a(lp5447
g4831
aS'billions'
p5448
aS'and'
p5449
aS'billions'
p5450
ag4831
aaa(lp5451
g5425
a(lp5452
S'like'
p5453
aaa(lp5454
g5425
a(lp5455
S'he'
p5456
aS'would'
p5457
aS'say'
p5458
aS'that'
p5459
aaa(lp5460
S'JEFF'
p5461
a(lp5462
S'Unhunh'
p5463
aaa(lp5464
S'JILLI'
p5465
a(lp5466
S'think'
p5467
aS'he'
p5468
aS'would'
p5469
aS'say'
p5470
aS'that'
p5471
aaa(lp5472
g5465
a(lp5473
S'But'
p5474
aaa(lp5475
g5465
a(lp5476
S'yeah'
p5477
aaa(lp5478
g5465
a(lp5479
S'So'
p5480
aS'anyhow'
p5481
aaa(lp5482
g5465
a(lp5483
S'like'
p5484
ag5318
aS'in'
p5485
aS'what'
p5486
aS'galaxy'
p5487
aaa(lp5488
g5465
a(lp5489
S'Like'
p5490
aS'what'
p5491
aS'solar'
p5492
aaa(lp5493
g5465
a(lp5494
S'Like'
p5495
aS'what'
p5496
aaa(lp5497
g5465
a(lp5498
S'what'
p5499
aS'galaxy'
p5500
aS'was'
p5501
aS'this'
p5502
aS'star'
p5503
aS'in'
p5504
aaa(lp5505
S'JEFF'
p5506
a(lp5507
S'Santa'
p5508
aS'Barbara'
p5509
aaa(lp5510
S'JILL'
p5511
a(lp5512
aa(lp5513
S'JEFFNo'
p5514
a(lp5515
aa(lp5516
g5514
a(lp5517
S'Im'
p5518
aS'not'
p5519
aS'sure'
p5520
aaa(lp5521
S'JILL'
p5522
a(lp5523
aa(lp5524
S'JEFFI'
p5525
a(lp5526
S'dont'
p5527
aS'know'
p5528
aS'the'
p5529
aS'the'
p5530
aS'details'
p5531
aaa(lp5532
g5525
a(lp5533
S'But'
p5534
aaa(lp5535
S'JILL'
p5536
a(lp5537
aa(lp5538
S'JEFFanyway'
p5539
a(lp5540
aa(lp5541
g5539
a(lp5542
S'what'
p5543
aS'it'
p5544
aS'made'
p5545
aS'me'
p5546
aS'think'
p5547
aS'about'
p5548
aS'was'
p5549
aaa(lp5550
S'JILL'
p5551
a(lp5552
aa(lp5553
S'JEFF'
p5554
a(lp5555
S'the'
p5556
aS'fact'
p5557
aS'that'
p5558
aaa(lp5559
g5554
a(lp5560
S'you'
p5561
aS'know'
p5562
aS'how'
p5563
aS'you'
p5564
aS'always'
p5565
aaa(lp5566
g5554
a(lp5567
S'this'
p5568
aS'might'
p5569
aS'sound'
p5570
ag77
aS'little'
p5571
aS'silly'
p5572
aaa(lp5573
S'JILLM'
p5574
a(lp5575
aa(lp5576
S'JEFF'
p5577
a(lp5578
aa(lp5579
g5577
a(lp5580
S'But'
p5581
aS'you'
p5582
aS'know'
p5583
aS'how'
p5584
aS'like'
p5585
aS'you'
p5586
aaa(lp5587
g5577
a(lp5588
S'like'
p5589
ag33
aaa(lp5590
g5577
a(lp5591
g33
aaa(lp5592
g5577
a(lp5593
S'Im'
p5594
aS'very'
p5595
aS'passionate'
p5596
aS'about'
p5597
aS'certain'
p5598
aS'ideas'
p5599
aaa(lp5600
S'JILL'
p5601
a(lp5602
aa(lp5603
S'JEFFyou'
p5604
a(lp5605
S'know'
p5606
aaa(lp5607
S'JILLReally'
p5608
a(lp5609
aa(lp5610
S'JEFFLike'
p5611
a(lp5612
aa(lp5613
S'JILL'
p5614
a(lp5615
aa(lp5616
S'JEFF'
p5617
a(lp5618
S'you'
p5619
aS'know'
p5620
aS'what'
p5621
ag33
aS'mean'
p5622
aaa(lp5623
S'JILL'
p5624
a(lp5625
S'Yes'
p5626
aaa(lp5627
S'JEFFHow'
p5628
a(lp5629
aa(lp5630
g5628
a(lp5631
S'And'
p5632
aS'then'
p5633
aS'youre'
p5634
aS'like'
p5635
aS'more'
p5636
aS'scientific'
p5637
aaa(lp5638
g5628
a(lp5639
S'or'
p5640
aS'youre'
p5641
aS'more'
p5642
aaa(lp5643
g5628
a(lp5644
S'you'
p5645
aS'know'
p5646
aaa(lp5647
g5628
a(lp5648
S'open'
p5649
aS'to'
p5650
aS'other'
p5651
aS'possibilities'
p5652
aaa(lp5653
S'JILL'
p5654
a(lp5655
S'Unhunh'
p5656
aaa(lp5657
S'JEFF'
p5658
a(lp5659
S'You'
p5660
aS'know'
p5661
aS'like'
p5662
aS'in'
p5663
aaa(lp5664
g5658
a(lp5665
S'like'
p5666
aaa(lp5667
g5658
a(lp5668
S'you'
p5669
aS'know'
p5670
aS'like'
p5671
aS'youre'
p5672
aS'ch'
p5673
aaa(lp5674
g5658
a(lp5675
S'um'
p5676
aaa(lp5677
g5658
a(lp5678
S'just'
p5679
aaa(lp5680
g5658
a(lp5681
S'even'
p5682
aS'with'
p5683
aS'people'
p5684
aaa(lp5685
g5658
a(lp5686
S'But'
p5687
aaa(lp5688
g5658
a(lp5689
S'with'
p5690
aS'the'
p5691
aS'ide'
p5692
aaa(lp5693
g5658
a(lp5694
S'Like'
p5695
aS'you'
p5696
aS'would'
p5697
aaa(lp5698
g5658
a(lp5699
S'Like'
p5700
aS'you'
p5701
aS'would'
p5702
aS'ask'
p5703
aaa(lp5704
g5658
a(lp5705
S'like'
p5706
aS'how'
p5707
aS'do'
p5708
aS'you'
p5709
aS'know'
p5710
aS'for'
p5711
aS'sure'
p5712
aaa(lp5713
g5658
a(lp5714
S'You'
p5715
aS'know'
p5716
aaa(lp5717
S'JILL'
p5718
a(lp5719
g814
aaa(lp5720
S'JEFF'
p5721
a(lp5722
S'And'
p5723
aaa(lp5724
g5721
a(lp5725
S'its'
p5726
aS'like'
p5727
aaa(lp5728
g5721
a(lp5729
S'you'
p5730
aS'know'
p5731
aS'like'
p5732
aS'the'
p5733
aaa(lp5734
g5721
a(lp5735
S'Oh'
p5736
ag33
aS'dont'
p5737
aS'know'
p5738
aaa(lp5739
g5721
a(lp5740
S'P'
p5741
aS'Where'
p5742
aS'was'
p5743
ag33
aS'going'
p5744
aS'with'
p5745
aS'this'
p5746
ag5741
aaa(lp5747
S'JILL'
p5748
a(lp5749
S'That'
p5750
aaa(lp5751
g5748
a(lp5752
S'and'
p5753
aS'now'
p5754
aaa(lp5755
g5748
a(lp5756
S'here'
p5757
aS'it'
p5758
aS'is'
p5759
aaa(lp5760
g5748
a(lp5761
S'Here'
p5762
aS'is'
p5763
aS'the'
p5764
aS'factual'
p5765
aS'proof'
p5766
aaa(lp5767
g5748
a(lp5768
S'and'
p5769
aS'so'
p5770
ag33
aS'can'
p5771
aS'be'
p5772
aS'satisfied'
p5773
aaa(lp5774
S'JEFFThat'
p5775
a(lp5776
aa(lp5777
g5775
a(lp5778
S'Yeah'
p5779
aaa(lp5780
g5775
a(lp5781
S'Well'
p5782
aaa(lp5783
g5775
a(lp5784
S'just'
p5785
aS'to'
p5786
aS'show'
p5787
aS'you'
p5788
aS'that'
p5789
aaa(lp5790
g5775
a(lp5791
S'you'
p5792
aS'know'
p5793
aS'like'
p5794
aaa(lp5795
g5775
a(lp5796
S'you'
p5797
aS'can'
p5798
aS'make'
p5799
aS'an'
p5800
aS'assumption'
p5801
aaa(lp5802
g5775
a(lp5803
S'And'
p5804
aaa(lp5805
g5775
a(lp5806
S'you'
p5807
aS'can'
p5808
aS'assume'
p5809
aS'something'
p5810
aS'that'
p5811
aS'feels'
p5812
aaa(lp5813
g5775
a(lp5814
S'you'
p5815
aS'know'
p5816
aaa(lp5817
g5775
a(lp5818
S'really'
p5819
aS'orrect'
p5820
aaa(lp5821
g5775
a(lp5822
S'and'
p5823
aS'and'
p5824
aS'it'
p5825
aS'turns'
p5826
aS'out'
p5827
aS'to'
p5828
aS'be'
p5829
aS'that'
p5830
aS'way'
p5831
aaa(lp5832
S'JILL'
p5833
a(lp5834
S'Sure'
p5835
aaa(lp5836
g5833
a(lp5837
S'some'
p5838
aS'of'
p5839
aS'the'
p5840
aS'time'
p5841
aaa(lp5842
S'JEFF'
p5843
a(lp5844
S'Uh'
p5845
aS'yeah'
p5846
aaa(lp5847
S'JILL'
p5848
a(lp5849
g33
aS'feel'
p5850
aS'like'
p5851
aaa(lp5852
g5848
a(lp5853
S'well'
p5854
aS'if'
p5855
aS'you'
p5856
aS'also'
p5857
aS'felt'
p5858
aS'that'
p5859
aaa(lp5860
g5848
a(lp5861
g33
aS'dont'
p5862
aS'know'
p5863
aaa(lp5864
g5848
a(lp5865
S'you'
p5866
aS'could'
p5867
aS'feel'
p5868
aS'something'
p5869
aS'that'
p5870
aS'wouldnt'
p5871
aS'be'
p5872
aS'proved'
p5873
aS'right'
p5874
aaa(lp5875
S'JEFF'
p5876
a(lp5877
S'Yeah'
p5878
aaa(lp5879
S'JILL'
p5880
a(lp5881
S'But'
p5882
aaa(lp5883
g5880
a(lp5884
S'no'
p5885
aaa(lp5886
g5880
a(lp5887
S'but'
p5888
ag33
aS'think'
p5889
aS'thats'
p5890
aS'so'
p5891
aS'exciting'
p5892
aS'honey'
p5893
aaa(lp5894
S'JEFFNo'
p5895
a(lp5896
S'its'
p5897
aS'okay'
p5898
aS'honey'
p5899
aaa(lp5900
S'JILL'
p5901
a(lp5902
g33
aS'didnt'
p5903
aS'see'
p5904
aS'that'
p5905
aS'in'
p5906
aS'the'
p5907
aS'newspaper'
p5908
aaa(lp5909
S'JEFF'
p5910
a(lp5911
S'VOX'
p5912
aS'Its'
p5913
aS'okay'
p5914
aS'sweetie'
p5915
aS'VOX'
p5916
aaa(lp5917
S'JILL'
p5918
a(lp5919
S'Oh'
p5920
aaa(lp5921
S'JEFF'
p5922
a(lp5923
g348
ag33
aS'did'
p5924
ag348
aaa(lp5925
g5922
a(lp5926
S'It'
p5927
aS'was'
p5928
aS'more'
p5929
aS'exciting'
p5930
aS'when'
p5931
ag33
aS'was'
p5932
aS'thinking'
p5933
aS'about'
p5934
aS'it'
p5935
aS'the'
p5936
aS'other'
p5937
aS'night'
p5938
aaa(lp5939
S'JILLNo'
p5940
a(lp5941
aa(lp5942
g5940
a(lp5943
S'its'
p5944
aS'so'
p5945
aS'exciting'
p5946
aaa(lp5947
g5940
a(lp5948
g33
aS'mean'
p5949
aaa(lp5950
g5940
a(lp5951
g33
aaa(lp5952
g5940
a(lp5953
S'Im'
p5954
aS's'
p5955
aaa(lp5956
S'JEFF'
p5957
a(lp5958
S'No'
p5959
aaa(lp5960
g5957
a(lp5961
S'my'
p5962
aS'whole'
p5963
aS'idea'
p5964
aS'about'
p5965
aaa(lp5966
S'JILL'
p5967
a(lp5968
g33
aS'mean'
p5969
aS'its'
p5970
aS'so'
p5971
aS'exciting'
p5972
aaa(lp5973
g5967
a(lp5974
S'that'
p5975
ag33
ag635
aS'like'
p5976
aS'dont'
p5977
aS'even'
p5978
aS'believe'
p5979
aS'you'
p5980
aaa(lp5981
g5967
a(lp5982
S'Like'
p5983
aaa(lp5984
g5967
a(lp5985
g33
aS'think'
p5986
aS'its'
p5987
aS'that'
p5988
aS'exciting'
p5989
aaa(lp5990
S'JEFF'
p5991
a(lp5992
S'Oh'
p5993
aS'my'
p5994
aS'God'
p5995
aaa(lp5996
S'JILL'
p5997
a(lp5998
g33
aS'mean'
p5999
aS'like'
p6000
ag33
aS'feel'
p6001
aS'like'
p6002
aS'its'
p6003
aaa(lp6004
S'JEFFYou'
p6005
a(lp6006
S'dont'
p6007
aS'believe'
p6008
aS'me'
p6009
aaa(lp6010
S'JILLNo'
p6011
a(lp6012
S'its'
p6013
aS'so'
p6014
aS'exciting'
p6015
aS'that'
p6016
ag33
aS'feel'
p6017
aS'like'
p6018
aaa(lp6019
S'JEFF'
p6020
a(lp6021
g348
aS'Thats'
p6022
ag348
aaa(lp6023
S'JILLI'
p6024
a(lp6025
S'want'
p6026
aS'to'
p6027
aS'go'
p6028
aS'read'
p6029
aS'it'
p6030
aS'in'
p6031
aS'the'
p6032
aS'newspaper'
p6033
aS'for'
p6034
aS'myself'
p6035
aaa(lp6036
g6024
a(lp6037
S'Like'
p6038
ag33
aS'cant'
p6039
aS'believe'
p6040
aS'it'
p6041
aaa(lp6042
g6024
a(lp6043
S'Like'
p6044
aS'how'
p6045
aS'come'
p6046
aS'its'
p6047
aS'not'
p6048
aS'on'
p6049
aS'the'
p6050
aS'news'
p6051
aaa(lp6052
S'JEFF'
p6053
a(lp6054
aa(lp6055
S'JILLand'
p6056
a(lp6057
aa(lp6058
S'JEFF'
p6059
a(lp6060
g33
aS'know'
p6061
aaa(lp6062
S'JILLthere'
p6063
a(lp6064
S'arent'
p6065
aS'like'
p6066
aS'parties'
p6067
aS'now'
p6068
aaa(lp6069
S'JEFF'
p6070
a(lp6071
aa(lp6072
S'JILL'
p6073
a(lp6074
aa(lp6075
S'JEFFAnd'
p6076
a(lp6077
S'they'
p6078
aS'even'
p6079
aaa(lp6080
g6076
a(lp6081
S'u'
p6082
aS'theyve'
p6083
aS'been'
p6084
aS'studying'
p6085
aS'the'
p6086
aS'two'
p6087
aS'planets'
p6088
aaa(lp6089
S'JILL'
p6090
a(lp6091
S'Mhm'
p6092
aaa(lp6093
S'JEFFAnd'
p6094
a(lp6095
S'their'
p6096
aS'patterns'
p6097
aaa(lp6098
g6094
a(lp6099
S'And'
p6100
aS'how'
p6101
aS'they'
p6102
aS'like'
p6103
ag5955
aaa(lp6104
S'JILL'
p6105
a(lp6106
aa(lp6107
S'JEFFUm'
p6108
a(lp6109
aa(lp6110
g6108
a(lp6111
S'they'
p6112
aaa(lp6113
g6108
a(lp6114
S'they'
p6115
aS'circle'
p6116
aS'the'
p6117
aS'the'
p6118
aS'their'
p6119
aS'star'
p6120
aaa(lp6121
S'JILLUnhunh'
p6122
a(lp6123
aa(lp6124
S'JEFFAnd'
p6125
a(lp6126
aa(lp6127
g6125
a(lp6128
S'they'
p6129
aS'think'
p6130
aS'that'
p6131
aS'theres'
p6132
aS'not'
p6133
aaa(lp6134
g6125
a(lp6135
S'it'
p6136
aS'cant'
p6137
aaa(lp6138
g6125
a(lp6139
S'those'
p6140
aS'planets'
p6141
aS'cant'
p6142
aS'sustain'
p6143
aS'life'
p6144
aaa(lp6145
S'JILL'
p6146
a(lp6147
S'Oh'
p6148
aaa(lp6149
g6146
a(lp6150
S'just'
p6151
aS'from'
p6152
aS'the'
p6153
aS'distance'
p6154
aS'from'
p6155
aS'it'
p6156
aaa(lp6157
S'JEFF'
p6158
a(lp6159
S'No'
p6160
aaa(lp6161
g6158
a(lp6162
S'From'
p6163
aS'um'
p6164
aaa(lp6165
g6158
a(lp6166
S'like'
p6167
aaa(lp6168
g6158
a(lp6169
S'from'
p6170
aS'their'
p6171
aS'surface'
p6172
aaa(lp6173
g6158
a(lp6174
S'The'
p6175
aS'the'
p6176
aS'planets'
p6177
aS'surface'
p6178
aaa(lp6179
S'JILL'
p6180
a(lp6181
S'Oh'
p6182
aaa(lp6183
g6180
a(lp6184
S'They'
p6185
aS'can'
p6186
aS'HI'
p6187
aS'see'
p6188
aS'that'
p6189
aS'HI'
p6190
aaa(lp6191
S'JEFF'
p6192
a(lp6193
S'Well'
p6194
aaa(lp6195
g6192
a(lp6196
S'th'
p6197
aS'ts'
p6198
aS'weird'
p6199
aaa(lp6200
g6192
a(lp6201
S'They'
p6202
aS'get'
p6203
aS'it'
p6204
aS'from'
p6205
aaa(lp6206
g6192
a(lp6207
S'like'
p6208
aS'they'
p6209
aS'pick'
p6210
aS'up'
p6211
aS'heat'
p6212
aS'waves'
p6213
aaa(lp6214
S'JILLOh'
p6215
a(lp6216
aa(lp6217
S'JEFFYou'
p6218
a(lp6219
S'know'
p6220
aaa(lp6221
g6218
a(lp6222
S'and'
p6223
aS'its'
p6224
aaa(lp6225
g6218
a(lp6226
S'its'
p6227
aS'just'
p6228
aaa(lp6229
g6218
a(lp6230
S'obviously'
p6231
aS'they'
p6232
aS'cant'
p6233
aS'se'
p6234
aS'really'
p6235
aS'see'
p6236
aS'anything'
p6237
aaa(lp6238
S'JILL'
p6239
a(lp6240
aa(lp6241
S'JEFF'
p6242
a(lp6243
S'They'
p6244
aaa(lp6245
g6242
a(lp6246
S'The'
p6247
aS'only'
p6248
aS'way'
p6249
aS'they'
p6250
ag348
aS'could'
p6251
ag348
aS'tell'
p6252
aS'that'
p6253
aS'the'
p6254
aS'planets'
p6255
aS'are'
p6256
aS'out'
p6257
aS'there'
p6258
aaa(lp6259
g6242
a(lp6260
S'like'
p6261
aS'they'
p6262
aS'can'
p6263
aS'tell'
p6264
aS'like'
p6265
aS'the'
p6266
aS'stars'
p6267
aS'are'
p6268
aaa(lp6269
g6242
a(lp6270
S'are'
p6271
aS'out'
p6272
aS'there'
p6273
ag348
aS'are'
p6274
ag348
aaa(lp6275
g6242
a(lp6276
S'just'
p6277
aS'by'
p6278
aS'radio'
p6279
aS'waves'
p6280
aaa(lp6281
g6242
a(lp6282
S'And'
p6283
aaa(lp6284
g6242
a(lp6285
S'and'
p6286
aS'how'
p6287
aaa(lp6288
g6242
a(lp6289
S'You'
p6290
aS'know'
p6291
aS'what'
p6292
aaa(lp6293
S'JILL'
p6294
a(lp6295
S'God'
p6296
aaa(lp6297
g6294
a(lp6298
S'thats'
p6299
aS'so'
p6300
aS'incredible'
p6301
aaa(lp6302
S'JEFFand'
p6303
a(lp6304
S'heat'
p6305
aS'waves'
p6306
aaa(lp6307
g6303
a(lp6308
g33
ag4339
ag775
aS'its'
p6309
aS'unbelievable'
p6310
aaa(lp6311
g6303
a(lp6312
S'how'
p6313
aS'man'
p6314
aS'has'
p6315
aaa(lp6316
g6303
a(lp6317
S'you'
p6318
aS'know'
p6319
aS'like'
p6320
aaa(lp6321
S'JILL'
p6322
a(lp6323
S'From'
p6324
aS'this'
p6325
aS'little'
p6326
aS'point'
p6327
aaa(lp6328
S'JEFF'
p6329
a(lp6330
aa(lp6331
S'JILL'
p6332
a(lp6333
S'in'
p6334
aS'the'
p6335
aS'whole'
p6336
aS'universe'
p6337
aaa(lp6338
g6332
a(lp6339
S'like'
p6340
aaa(lp6341
g6332
a(lp6342
S'weve'
p6343
aS'been'
p6344
aS'able'
p6345
aS'to'
p6346
aS'tell'
p6347
aS'so'
p6348
aS'much'
p6349
aaa(lp6350
g6332
a(lp6351
S'just'
p6352
aS'with'
p6353
aS'science'
p6354
aaa(lp6355
S'JEFF'
p6356
a(lp6357
g33
aS'know'
p6358
aaa(lp6359
g6356
a(lp6360
S'isnt'
p6361
aS'it'
p6362
aS'wild'
p6363
aaa(lp6364
S'JILLXX'
p6365
a(lp6366
aa(lp6367
g6365
a(lp6368
S'Just'
p6369
aS'with'
p6370
aaa(lp6371
g6365
a(lp6372
S'aw'
p6373
aaa(lp6374
g6365
a(lp6375
S'thats'
p6376
aS'so'
p6377
aS'incredible'
p6378
aaa(lp6379
S'JEFF'
p6380
a(lp6381
S'That'
p6382
aS'sends'
p6383
aS'me'
p6384
aS'out'
p6385
aS'there'
p6386
aaa(lp6387
S'JILL'
p6388
a(lp6389
S'Wow'
p6390
aaa(lp6391
S'JEFF'
p6392
a(lp6393
aa(lp6394
S'JILL'
p6395
a(lp6396
S'Totally'
p6397
aaa(lp6398
g6395
a(lp6399
S'Oh'
p6400
aaa(lp6401
g6395
a(lp6402
S'Wow'
p6403
aaa(lp6404
g6395
a(lp6405
S'Thats'
p6406
aS'so'
p6407
aS'exciting'
p6408
aaa(lp6409
S'JEFFOh'
p6410
a(lp6411
aa(lp6412
g6410
a(lp6413
S'honey'
p6414
aaa(lp6415
g6410
a(lp6416
S'youre'
p6417
aS'not'
p6418
aS'pregnant'
p6419
aaa(lp6420
S'JILL'
p6421
a(lp6422
S'No'
p6423
aaa(lp6424
g6421
a(lp6425
S'Im'
p6426
ag5955
aaa(lp6427
S'JEFF'
p6428
a(lp6429
g3072
aS'you'
p6430
aS'were'
p6431
aS'convinced'
p6432
aS'you'
p6433
aS'were'
p6434
aS'pregnant'
p6435
aaa(lp6436
S'JILL'
p6437
a(lp6438
S'Well'
p6439
aaa(lp6440
g6437
a(lp6441
g33
aS'only'
p6442
aS'got'
p6443
aS'convinced'
p6444
aS'the'
p6445
aS'moment'
p6446
aS'before'
p6447
ag33
aS'was'
p6448
aS'waiting'
p6449
aS'for'
p6450
aS'the'
p6451
aS'results'
p6452
aaa(lp6453
g6437
a(lp6454
S'Like'
p6455
aS'all'
p6456
aS'before'
p6457
aS'that'
p6458
aaa(lp6459
g6437
a(lp6460
S'well'
p6461
aS'Im'
p6462
aS'late'
p6463
aaa(lp6464
g6437
a(lp6465
S'But'
p6466
ag33
aS'dont'
p6467
aS'feel'
p6468
aS'any'
p6469
aS'of'
p6470
aS'the'
p6471
aS'symptoms'
p6472
aaa(lp6473
g6437
a(lp6474
S'But'
p6475
ag33
aS'got'
p6476
aS'so'
p6477
aS'nervous'
p6478
aaa(lp6479
g6437
a(lp6480
S'right'
p6481
aS'when'
p6482
ag33
aS'was'
p6483
aS'taking'
p6484
aS'the'
p6485
aS'test'
p6486
aaa(lp6487
g6437
a(lp6488
g33
aS'was'
p6489
aS'kind'
p6490
aS'of'
p6491
aS'not'
p6492
aS'treating'
p6493
aS'it'
p6494
aaa(lp6495
g6437
a(lp6496
S'taking'
p6497
aS'it'
p6498
aS'that'
p6499
aS'seriously'
p6500
aaa(lp6501
g6437
a(lp6502
S'Cause'
p6503
aS'its'
p6504
aS'just'
p6505
aaa(lp6506
g6437
a(lp6507
S'its'
p6508
aS'such'
p6509
aS'an'
p6510
aS'un'
p6511
aS'believable'
p6512
aS'concept'
p6513
aaa(lp6514
g6437
a(lp6515
S'to'
p6516
aS'think'
p6517
aS'that'
p6518
aS'maybe'
p6519
ag33
aS'would'
p6520
aS'be'
p6521
aS'pregnant'
p6522
aaa(lp6523
g6437
a(lp6524
S'So'
p6525
ag33
aS'wasnt'
p6526
aS'really'
p6527
aS'believing'
p6528
aS'it'
p6529
aaa(lp6530
S'JEFFX'
p6531
a(lp6532
aa(lp6533
S'JILL'
p6534
a(lp6535
S'And'
p6536
aS'then'
p6537
aaa(lp6538
g6534
a(lp6539
S'but'
p6540
aS'the'
p6541
aS'moment'
p6542
aS'that'
p6543
ag33
aS'did'
p6544
aS'the'
p6545
aS'test'
p6546
aaa(lp6547
g6534
a(lp6548
g33
aS'got'
p6549
aS'so'
p6550
aS'scared'
p6551
aaa(lp6552
g6534
a(lp6553
S'and'
p6554
ag33
aS'thought'
p6555
aaa(lp6556
g6534
a(lp6557
S'oh'
p6558
aS'my'
p6559
aS'God'
p6560
aaa(lp6561
g6534
a(lp6562
S'like'
p6563
aaa(lp6564
g6534
a(lp6565
S'this'
p6566
aS'isnt'
p6567
aS'kidding'
p6568
aS'around'
p6569
aaa(lp6570
g6534
a(lp6571
S'like'
p6572
aS'what'
p6573
aS'if'
p6574
ag33
aS'am'
p6575
aaa(lp6576
g6534
a(lp6577
S'and'
p6578
aS'ts'
p6579
ag77
aS'distinct'
p6580
aS'possibility'
p6581
aaa(lp6582
g6534
a(lp6583
S'and'
p6584
ag33
aS'got'
p6585
aS'so'
p6586
aS'scared'
p6587
aaa(lp6588
g6534
a(lp6589
S'like'
p6590
aS'you'
p6591
aaa(lp6592
S'JEFF'
p6593
a(lp6594
S'Did'
p6595
aS'you'
p6596
aS'cry'
p6597
aaa(lp6598
S'JILL'
p6599
a(lp6600
S'No'
p6601
aaa(lp6602
g6599
a(lp6603
g33
aS'didnt'
p6604
aS'cry'
p6605
aaa(lp6606
g6599
a(lp6607
S'But'
p6608
aS'Jill'
p6609
aS'was'
p6610
aS'here'
p6611
aaa(lp6612
g6599
a(lp6613
S'like'
p6614
aS'she'
p6615
aS'wa'
p6616
aaa(lp6617
g6599
a(lp6618
S'It'
p6619
aS'was'
p6620
aS'so'
p6621
aS'scary'
p6622
aaa(lp6623
g6599
a(lp6624
S'and'
p6625
aaa(lp6626
g6599
a(lp6627
S'but'
p6628
aaa(lp6629
g6599
a(lp6630
S'you'
p6631
aS'know'
p6632
aaa(lp6633
g6599
a(lp6634
S'we'
p6635
aS'were'
p6636
aS'watching'
p6637
aS'it'
p6638
aaa(lp6639
g6599
a(lp6640
S'and'
p6641
aS'it'
p6642
aS'didnt'
p6643
aS'turn'
p6644
aS'blue'
p6645
aaa(lp6646
g6599
a(lp6647
S'or'
p6648
aaa(lp6649
S'JEFF'
p6650
a(lp6651
S'Aw'
p6652
aaa(lp6653
S'JILLyou'
p6654
a(lp6655
S'know'
p6656
aaa(lp6657
g6654
a(lp6658
S'so'
p6659
aaa(lp6660
g6654
a(lp6661
S'it'
p6662
aS'was'
p6663
aaa(lp6664
g6654
a(lp6665
S'you'
p6666
aS'know'
p6667
aaa(lp6668
g6654
a(lp6669
S'it'
p6670
aS'was'
p6671
aaa(lp6672
S'JEFF'
p6673
a(lp6674
S'Are'
p6675
aS'you'
p6676
aS'sure'
p6677
aS'it'
p6678
aS'would'
p6679
aS'have'
p6680
aS'been'
p6681
aS'mine'
p6682
aaa(lp6683
S'JILL'
p6684
a(lp6685
aa(lp6686
S'JEFF'
p6687
a(lp6688
aa(lp6689
S'JILL'
p6690
a(lp6691
aa(lp6692
S'JEFF'
p6693
a(lp6694
S'You'
p6695
aS'know'
p6696
ag33
aS'wouldve'
p6697
aS'denied'
p6698
aS'it'
p6699
aaa(lp6700
g6693
a(lp6701
g776
aS'you'
p6702
aaa(lp6703
g6693
a(lp6704
S'if'
p6705
aS'you'
p6706
aS'said'
p6707
aS'it'
p6708
aS'was'
p6709
aS'mine'
p6710
aaa(lp6711
S'JILL'
p6712
a(lp6713
aa(lp6714
S'JILLI'
p6715
a(lp6716
S'was'
p6717
aS'uh'
p6718
aaa(lp6719
g6715
a(lp6720
S'messing'
p6721
aS'around'
p6722
aS'with'
p6723
aS'the'
p6724
aS'repair'
p6725
aS'man'
p6726
aaa(lp6727
S'JEFF'
p6728
a(lp6729
S'Honey'
p6730
aaa(lp6731
S'JILL'
p6732
a(lp6733
S'Aw'
p6734
aaa(lp6735
S'JEFFHoney'
p6736
a(lp6737
aa(lp6738
g6736
a(lp6739
S'Im'
p6740
aS'just'
p6741
aS'kidding'
p6742
aS'my'
p6743
aS'love'
p6744
aaa(lp6745
S'JILL'
p6746
a(lp6747
aa(lp6748
S'JEFF'
p6749
a(lp6750
S'Youd'
p6751
aS'sure'
p6752
aS'learn'
p6753
ag77
aS'lot'
p6754
aS'about'
p6755
aS'me'
p6756
aS'if'
p6757
aS'that'
p6758
aS'happened'
p6759
aaa(lp6760
S'JILLGosh'
p6761
a(lp6762
aa(lp6763
S'JEFF'
p6764
a(lp6765
aa(lp6766
S'JILL'
p6767
a(lp6768
aa(lp6769
S'JEFFAw'
p6770
a(lp6771
S'honey'
p6772
aaa(lp6773
g6770
a(lp6774
S'that'
p6775
aS'would'
p6776
aS'just'
p6777
aS'like'
p6778
aS'ruin'
p6779
aS'your'
p6780
aS'whole'
p6781
aS'idea'
p6782
aS'of'
p6783
aS'who'
p6784
ag33
aS'am'
p6785
aaa(lp6786
g6770
a(lp6787
S'Hunh'
p6788
aaa(lp6789
S'JILL'
p6790
a(lp6791
S'Aw'
p6792
aaa(lp6793
S'JEFFIt'
p6794
a(lp6795
S'would'
p6796
aS'just'
p6797
aS'like'
p6798
aaa(lp6799
g6794
a(lp6800
S'Id'
p6801
aS'just'
p6802
aS'blow'
p6803
aS'up'
p6804
aS'everything'
p6805
aS'that'
p6806
aS'we'
p6807
aS'had'
p6808
aaa(lp6809
g6794
a(lp6810
S'if'
p6811
ag33
aaa(lp6812
g6794
a(lp6813
S'if'
p6814
ag33
aS'was'
p6815
aS'that'
p6816
aS'cruel'
p6817
aaa(lp6818
S'JILL'
p6819
a(lp6820
S'If'
p6821
aS'you'
p6822
aS'just'
p6823
aS'refuted'
p6824
aS'it'
p6825
aaa(lp6826
S'JEFF'
p6827
a(lp6828
S'If'
p6829
ag33
aS'said'
p6830
ag4831
aS'no'
p6831
aS'way'
p6832
ag4831
aaa(lp6833
S'JILLQ'
p6834
a(lp6835
S'T'
p6836
aS'nunhunh'
p6837
aaa(lp6838
g6834
a(lp6839
S'Im'
p6840
aS'not'
p6841
aS'taking'
p6842
aS'any'
p6843
aS'responsibility'
p6844
ag4831
aaa(lp6845
S'JEFFIf'
p6846
a(lp6847
S'its'
p6848
aS'mine'
p6849
aaa(lp6850
g6846
a(lp6851
S'then'
p6852
aS'its'
p6853
aS'your'
p6854
aS'fault'
p6855
aS'for'
p6856
aS'getting'
p6857
aS'pregnant'
p6858
aaa(lp6859
S'JILL'
p6860
a(lp6861
S'Oh'
p6862
aS'God'
p6863
aaa(lp6864
S'JEFFWould'
p6865
a(lp6866
aa(lp6867
g6865
a(lp6868
S'Oh'
p6869
aS'no'
p6870
aaa(lp6871
S'JILL'
p6872
a(lp6873
aa(lp6874
S'JEFF'
p6875
a(lp6876
S'You'
p6877
aS'think'
p6878
aS'wed'
p6879
aS'be'
p6880
aS'able'
p6881
aS'to'
p6882
aaa(lp6883
S'JILL'
p6884
a(lp6885
aa(lp6886
S'JEFFto'
p6887
a(lp6888
S'make'
p6889
aS'it'
p6890
aS'through'
p6891
aS'that'
p6892
aaa(lp6893
g6887
a(lp6894
S'If'
p6895
ag33
aaa(lp6896
S'JILL'
p6897
a(lp6898
aa(lp6899
g6897
a(lp6900
g33
aS'dont'
p6901
aS'think'
p6902
ag5955
aaa(lp6903
S'JEFF'
p6904
a(lp6905
aa(lp6906
g6904
a(lp6907
S'Would'
p6908
aS'you'
p6909
aaa(lp6910
g6904
a(lp6911
S'Would'
p6912
aS'you'
p6913
aS'be'
p6914
aS'able'
p6915
aS'to'
p6916
aS'look'
p6917
aS'above'
p6918
aS'that'
p6919
aaa(lp6920
S'JILL'
p6921
a(lp6922
aa(lp6923
g6921
a(lp6924
S'Would'
p6925
aS'you'
p6926
aS'forgive'
p6927
aS'that'
p6928
aaa(lp6929
S'JEFF'
p6930
a(lp6931
aa(lp6932
g6930
a(lp6933
S'Just'
p6934
aS'let'
p6935
aS'that'
p6936
aS'one'
p6937
aS'thing'
p6938
aS'pass'
p6939
aaa(lp6940
S'JILL'
p6941
a(lp6942
aa(lp6943
S'JEFF'
p6944
a(lp6945
S'No'
p6946
aS'way'
p6947
aaa(lp6948
S'JILL'
p6949
a(lp6950
aa(lp6951
S'JEFF'
p6952
a(lp6953
g33
aS'wouldnt'
p6954
aS'let'
p6955
aS'you'
p6956
aaa(lp6957
S'JILL'
p6958
a(lp6959
S'Oh'
p6960
aaa(lp6961
S'JEFF'
p6962
a(lp6963
S'Well'
p6964
aaa(lp6965
S'JILL'
p6966
a(lp6967
aa(lp6968
S'JEFFI'
p6969
a(lp6970
S'just'
p6971
aS'want'
p6972
aS'you'
p6973
aS'to'
p6974
aS'get'
p6975
aS'pregnant'
p6976
aaa(lp6977
g6969
a(lp6978
S'So'
p6979
aS'you'
p6980
aS'could'
p6981
aS'see'
p6982
aS'how'
p6983
aaa(lp6984
g6969
a(lp6985
S'Im'
p6986
aS'gonna'
p6987
aS'take'
p6988
aS'it'
p6989
aaa(lp6990
S'JILLS'
p6991
a(lp6992
S'oh'
p6993
aaa(lp6994
S'JEFFIll'
p6995
a(lp6996
S'love'
p6997
aS'you'
p6998
aS'and'
p6999
aS'support'
p7000
aS'you'
p7001
aaa(lp7002
S'JILL'
p7003
a(lp7004
g814
aaa(lp7005
S'JEFFsend'
p7006
a(lp7007
S'you'
p7008
aS'some'
p7009
aS'money'
p7010
aaa(lp7011
S'JILL'
p7012
a(lp7013
aa(lp7014
S'JEFF'
p7015
a(lp7016
aa(lp7017
S'JILL'
p7018
a(lp7019
S'Great'
p7020
aaa(lp7021
S'BOTH'
p7022
a(lp7023
aa(lp7024
S'JEFF'
p7025
a(lp7026
S'Oh'
p7027
aaa(lp7028
S'JILL'
p7029
a(lp7030
aa(lp7031
S'JEFFsweetness'
p7032
a(lp7033
aa(lp7034
S'JILL'
p7035
a(lp7036
S'Oh'
p7037
aaa(lp7038
S'JEFFWhat'
p7039
a(lp7040
g77
aS'pain'
p7041
aS'in'
p7042
aS'the'
p7043
aS'ass'
p7044
aS'that'
p7045
aS'would'
p7046
aS'be'
p7047
aaa(lp7048
S'JILL'
p7049
a(lp7050
aa(lp7051
g7049
a(lp7052
g33
aS'know'
p7053
aaa(lp7054
g7049
a(lp7055
S'you'
p7056
aS'know'
p7057
aS'what'
p7058
aaa(lp7059
g7049
a(lp7060
g33
aS'think'
p7061
ag201
aaa(lp7062
g7049
a(lp7063
g201
aaa(lp7064
g7049
a(lp7065
S'out'
p7066
aS'of'
p7067
aS'anything'
p7068
aaa(lp7069
g7049
a(lp7070
S'it'
p7071
aS'would'
p7072
aS'just'
p7073
aS'be'
p7074
aS'that'
p7075
aaa(lp7076
g7049
a(lp7077
S'that'
p7078
aS'would'
p7079
aS'bother'
p7080
aS'me'
p7081
aaa(lp7082
g7049
a(lp7083
S'Just'
p7084
aS'like'
p7085
aaa(lp7086
g7049
a(lp7087
g33
aS'dont'
p7088
aS'have'
p7089
aS'the'
p7090
aS'time'
p7091
aS'to'
p7092
aS'deal'
p7093
aS'with'
p7094
aS'it'
p7095
aaa(lp7096
g7049
a(lp7097
S'Like'
p7098
ag5318
aaa(lp7099
g7049
a(lp7100
S'you'
p7101
aS'know'
p7102
aaa(lp7103
g7049
a(lp7104
S'Like'
p7105
aaa(lp7106
g7049
a(lp7107
S'what'
p7108
ag77
aS'pain'
p7109
aS'in'
p7110
aS'the'
p7111
aS'neck'
p7112
aaa(lp7113
S'JEFFXX'
p7114
a(lp7115
aa(lp7116
g7114
a(lp7117
S'We'
p7118
aS'have'
p7119
aS'to'
p7120
aS'be'
p7121
aS'really'
p7122
aS'safe'
p7123
aS'this'
p7124
aS'summer'
p7125
aaa(lp7126
S'JILL'
p7127
a(lp7128
S'Totally'
p7129
aaa(lp7130
g7127
a(lp7131
S'Well'
p7132
aS'Im'
p7133
aS'gonna'
p7134
aS'go'
p7135
aS'on'
p7136
aS'the'
p7137
aS'pill'
p7138
aaa(lp7139
S'JEFF'
p7140
a(lp7141
S'Oh'
p7142
aS'honey'
p7143
aaa(lp7144
g7140
a(lp7145
S'are'
p7146
aS'you'
p7147
aS'sure'
p7148
aaa(lp7149
S'JILLYeah'
p7150
a(lp7151
aa(lp7152
g7150
a(lp7153
S'Yeah'
p7154
aS'totally'
p7155
aaa(lp7156
g7150
a(lp7157
S'it'
p7158
aS'its'
p7159
aaa(lp7160
S'JEFFYeah'
p7161
a(lp7162
S'what'
p7163
aS'are'
p7164
aS'we'
p7165
aS'gonna'
p7166
aS'use'
p7167
aaa(lp7168
g7161
a(lp7169
S'condoms'
p7170
aaa(lp7171
S'JILL'
p7172
a(lp7173
S'Right'
p7174
aaa(lp7175
S'JEFFWell'
p7176
a(lp7177
S'theyre'
p7178
aS'coming'
p7179
aS'out'
p7180
aS'with'
p7181
aS'condoms'
p7182
aS'for'
p7183
aS'women'
p7184
aaa(lp7185
S'JILL'
p7186
a(lp7187
S'Right'
p7188
aaa(lp7189
g7186
a(lp7190
S'well'
p7191
aaa(lp7192
S'JEFFI'
p7193
a(lp7194
S'would'
p7195
aS'never'
p7196
aS'in'
p7197
ag77
aS'million'
p7198
aS'years'
p7199
aS'expect'
p7200
aS'you'
p7201
aS'to'
p7202
aS'wear'
p7203
aS'something'
p7204
aS'like'
p7205
aS'that'
p7206
aaa(lp7207
g7193
a(lp7208
S'honey'
p7209
aaa(lp7210
S'JILL'
p7211
a(lp7212
aa(lp7213
S'JEFFI'
p7214
a(lp7215
S'swear'
p7216
aS'to'
p7217
aS'God'
p7218
aaa(lp7219
g7214
a(lp7220
g33
aS'think'
p7221
aS'those'
p7222
aS'are'
p7223
aS'the'
p7224
aS'grossest'
p7225
aS'contraptions'
p7226
aS'ever'
p7227
aaa(lp7228
S'JILL'
p7229
a(lp7230
g33
aS'saw'
p7231
aS'one'
p7232
aS'act'
p7233
aaa(lp7234
g7229
a(lp7235
S'Really'
p7236
aaa(lp7237
S'JEFF'
p7238
a(lp7239
S'Yeah'
p7240
aaa(lp7241
S'JILLI'
p7242
a(lp7243
S'just'
p7244
aS'saw'
p7245
aS'one'
p7246
aS'the'
p7247
aS'other'
p7248
aS'day'
p7249
aS'actually'
p7250
aaa(lp7251
S'JEFF'
p7252
a(lp7253
aa(lp7254
S'JILL'
p7255
a(lp7256
S'Theyre'
p7257
aS'strange'
p7258
aS'looking'
p7259
aaa(lp7260
S'JEFF'
p7261
a(lp7262
S'Wow'
p7263
aaa(lp7264
g7261
a(lp7265
g348
aS'XX'
p7266
aaa(lp7267
S'JILL'
p7268
a(lp7269
aa(lp7270
g7268
a(lp7271
S'We'
p7272
aS'had'
p7273
ag77
aS'woman'
p7274
aaa(lp7275
g7268
a(lp7276
S'um'
p7277
aaa(lp7278
g7268
a(lp7279
g77
aS'physician'
p7280
aS'come'
p7281
aS'and'
p7282
aS'talk'
p7283
aS'to'
p7284
aS'us'
p7285
aaa(lp7286
g7268
a(lp7287
S'about'
p7288
aS'all'
p7289
aS'the'
p7290
aS'different'
p7291
aS'kinds'
p7292
aS'of'
p7293
aS'contraception'
p7294
aaa(lp7295
g7268
a(lp7296
S'and'
p7297
aaa(lp7298
g7268
a(lp7299
S'um'
p7300
aaa(lp7301
g7268
a(lp7302
S'to'
p7303
aS'tell'
p7304
aS'us'
p7305
aS'about'
p7306
aS'R'
p7307
aS'U'
p7308
aS'four'
p7309
aS'eightysix'
p7310
aaa(lp7311
g7268
a(lp7312
S'Is'
p7313
aS'that'
p7314
aS'the'
p7315
aS'drug'
p7316
aaa(lp7317
S'JEFF'
p7318
a(lp7319
S'Unhunh'
p7320
aaa(lp7321
g7318
a(lp7322
S'Unhunh'
p7323
aaa(lp7324
S'JILL'
p7325
a(lp7326
S'To'
p7327
aS'tell'
p7328
aS'us'
p7329
aS'about'
p7330
aS'that'
p7331
aaa(lp7332
g7325
a(lp7333
S'and'
p7334
aS'norplant'
p7335
aaa(lp7336
g7325
a(lp7337
S'and'
p7338
aS'the'
p7339
aS'side'
p7340
aS'effects'
p7341
aS'of'
p7342
aS'everything'
p7343
aaa(lp7344
g7325
a(lp7345
S'and'
p7346
aaa(lp7347
g7325
a(lp7348
S'it'
p7349
aS'was'
p7350
aS'so'
p7351
aS'interesting'
p7352
aaa(lp7353
S'JEFF'
p7354
a(lp7355
S'Wow'
p7356
aaa(lp7357
S'JILL'
p7358
a(lp7359
S'Yeah'
p7360
aaa(lp7361
S'JEFF'
p7362
a(lp7363
S'Well'
p7364
aS'is'
p7365
ag7307
ag7308
aS'um'
p7366
aS'forty'
p7367
aS'six'
p7368
aaa(lp7369
S'JILLit'
p7370
a(lp7371
S'was'
p7372
aS'really'
p7373
ag348
aS'neat'
p7374
ag348
aaa(lp7375
S'JEFF'
p7376
a(lp7377
S'is'
p7378
aS'that'
p7379
aS'gonna'
p7380
aS'be'
p7381
aS'implemented'
p7382
aaa(lp7383
S'JILL'
p7384
a(lp7385
S'Well'
p7386
aaa(lp7387
g7384
a(lp7388
S'its'
p7389
aS'not'
p7390
aaa(lp7391
g7384
a(lp7392
S'its'
p7393
aS'not'
p7394
aS'available'
p7395
aS'here'
p7396
aS'in'
p7397
aS'the'
p7398
aS'United'
p7399
aS'States'
p7400
aaa(lp7401
g7384
a(lp7402
S'its'
p7403
aS'only'
p7404
aS'in'
p7405
aS'France'
p7406
aaa(lp7407
S'JEFFEngland'
p7408
a(lp7409
aa(lp7410
S'JILLand'
p7411
a(lp7412
aa(lp7413
g7411
a(lp7414
S'yeah'
p7415
aaa(lp7416
g7411
a(lp7417
S'and'
p7418
aS'Sweden'
p7419
aaa(lp7420
g7411
a(lp7421
g348
aS'Right'
p7422
ag348
aaa(lp7423
S'JEFF'
p7424
a(lp7425
S'But'
p7426
ag33
aS'mean'
p7427
aS'is'
p7428
aS'that'
p7429
aaa(lp7430
g7424
a(lp7431
S'are'
p7432
aS'they'
p7433
aaa(lp7434
g7424
a(lp7435
S'are'
p7436
aS'there'
p7437
aS'people'
p7438
aS'trying'
p7439
aS'to'
p7440
aS'make'
p7441
aS'it'
p7442
aS'law'
p7443
aS'here'
p7444
aaa(lp7445
S'JILL'
p7446
a(lp7447
g33
aS'think'
p7448
aS'so'
p7449
aaa(lp7450
g7446
a(lp7451
S'but'
p7452
aaa(lp7453
g7446
a(lp7454
g33
aS'just'
p7455
aS'think'
p7456
aaa(lp7457
g7446
a(lp7458
S'you'
p7459
aS'know'
p7460
aaa(lp7461
g7446
a(lp7462
S'politically'
p7463
ag33
aaa(lp7464
g7446
a(lp7465
g33
aS'doubt'
p7466
aS'it'
p7467
aS'will'
p7468
aS'be'
p7469
aaa(lp7470
S'JEFF'
p7471
a(lp7472
S'Yeah'
p7473
aaa(lp7474
S'JILL'
p7475
a(lp7476
S'for'
p7477
ag77
aS'while'
p7478
aaa(lp7479
g7475
a(lp7480
S'Such'
p7481
ag77
aS'bummer'
p7482
aaa(lp7483
S'JEFF'
p7484
a(lp7485
S'Yeah'
p7486
aaa(lp7487
g7484
a(lp7488
S'Its'
p7489
aS'such'
p7490
ag77
aS'great'
p7491
aaa(lp7492
g7484
a(lp7493
S'you'
p7494
aS'know'
p7495
aaa(lp7496
g7484
a(lp7497
S'That'
p7498
aS'would'
p7499
aS'be'
p7500
aS'so'
p7501
aS'great'
p7502
aS'if'
p7503
aS'people'
p7504
aS'could'
p7505
aS'get'
p7506
aS'that'
p7507
aaa(lp7508
S'JILL'
p7509
a(lp7510
S'Oh'
p7511
aS'yeah'
p7512
aaa(lp7513
S'JEFF'
p7514
a(lp7515
S'Stay'
p7516
aS'away'
p7517
aS'from'
p7518
aS'those'
p7519
aS'prolifers'
p7520
aaa(lp7521
S'JILL'
p7522
a(lp7523
aa(lp7524
S'JEFF'
p7525
a(lp7526
S'Throwing'
p7527
aS'things'
p7528
aS'at'
p7529
aS'em'
p7530
aaa(lp7531
S'JILL'
p7532
a(lp7533
S'Oh'
p7534
aaa(lp7535
g7532
a(lp7536
g33
aS'know'
p7537
ag33
aS'know'
p7538
aaa(lp7539
g7532
a(lp7540
S'Gosh'
p7541
aaa(lp7542
g7532
a(lp7543
S'you'
p7544
aS'know'
p7545
aS'what'
p7546
aS'sweetie'
p7547
aaa(lp7548
g7532
a(lp7549
g33
aS'think'
p7550
aS'Im'
p7551
aS'gonna'
p7552
aS'go'
p7553
aaa(lp7554
g7532
a(lp7555
S'like'
p7556
aS'rescue'
p7557
aS'Jill'
p7558
aaa(lp7559
g7532
a(lp7560
S'Because'
p7561
aS'shes'
p7562
aS'been'
p7563
aS'there'
p7564
aaa(lp7565
g7532
a(lp7566
S'and'
p7567
aaa(lp7568
g7532
a(lp7569
S'shes'
p7570
aS'probably'
p7571
aS'doesnt'
p7572
aS'know'
p7573
aS'anybody'
p7574
aaa(lp7575
g7532
a(lp7576
S'and'
p7577
aaa(lp7578
g7532
a(lp7579
S'you'
p7580
aS'know'
p7581
aaa(lp7582
S'JEFF'
p7583
a(lp7584
S'Okay'
p7585
aaa(lp7586
g7583
a(lp7587
S'honey'
p7588
aaa(lp7589
S'JILL'
p7590
a(lp7591
aa(lp7592
S'JEFFYou'
p7593
a(lp7594
S'youre'
p7595
aS'choosing'
p7596
aaa(lp7597
g7593
a(lp7598
S'you'
p7599
aS'can'
p7600
aS'choose'
p7601
aaa(lp7602
S'JILLOh'
p7603
a(lp7604
S'honey'
p7605
aaa(lp7606
S'JEFF'
p7607
a(lp7608
S'Im'
p7609
aS'just'
p7610
aS'kidding'
p7611
aaa(lp7612
S'JILL'
p7613
a(lp7614
aa(lp7615
S'JEFF'
p7616
a(lp7617
S'Oh'
p7618
aaa(lp7619
g7616
a(lp7620
S'Im'
p7621
aS'so'
p7622
aS'glad'
p7623
aS'you'
p7624
aS'guys'
p7625
aS'are'
p7626
aS'having'
p7627
ag77
aS'good'
p7628
aS'time'
p7629
aaa(lp7630
S'JILLN_yeah'
p7631
a(lp7632
aa(lp7633
g7631
a(lp7634
S'oh'
p7635
aS'its'
p7636
aS'so'
p7637
aS'great'
p7638
aaa(lp7639
g7631
a(lp7640
S'Its'
p7641
aS'so'
p7642
aS'great'
p7643
aaa(lp7644
S'JEFF'
p7645
a(lp7646
S'Aw'
p7647
aaa(lp7648
g7645
a(lp7649
S'well'
p7650
aS'give'
p7651
aaa(lp7652
S'JILLIts'
p7653
a(lp7654
S'so'
p7655
aS'nice'
p7656
aaa(lp7657
g7653
a(lp7658
S'It'
p7659
aaa(lp7660
S'JEFFGive'
p7661
a(lp7662
S'her'
p7663
ag77
aS'hug'
p7664
aS'for'
p7665
aS'me'
p7666
aaa(lp7667
S'JILL'
p7668
a(lp7669
S'Okay'
p7670
aaa(lp7671
g7668
a(lp7672
S'Its'
p7673
aS'almost'
p7674
aS'surreal'
p7675
aaa(lp7676
g7668
a(lp7677
S'having'
p7678
aS'her'
p7679
aS'here'
p7680
aaa.