(lp0
(lp1
S'X'
p2
a(lp3
aa(lp4
S'JUDGE'
p5
a(lp6
S'Okay'
p7
aaa(lp8
g5
a(lp9
S'the'
p10
aS'next'
p11
aS'case'
p12
aS'will'
p13
aS'be'
p14
aS'uh'
p15
aaa(lp16
g5
a(lp17
S'Walter'
p18
aS'Komak'
p19
aS'versus'
p20
aS'Rose'
p21
aS'Black'
p22
aaa(lp23
S'BAILIFF'
p24
a(lp25
S'Is'
p26
aS'this'
p27
aS'contested'
p28
aaa(lp29
S'XNo'
p30
a(lp31
aa(lp32
g30
a(lp33
S'Just'
p34
aS'witnesses'
p35
aS'and'
p36
aS'case'
p37
aaa(lp38
S'ROSENo'
p39
a(lp40
aa(lp41
S'BAILIFF'
p42
a(lp43
S'Oh'
p44
aS'okay'
p45
aaa(lp46
S'X'
p47
a(lp48
aa(lp49
S'BAILIFFAre'
p50
a(lp51
S'you'
p52
aS'X'
p53
aaa(lp54
g50
a(lp55
S'Are'
p56
aS'you'
p57
aS'the'
p58
aS'uh'
p59
aS'plaintiff'
p60
aaa(lp61
S'ROSEYes'
p62
a(lp63
aa(lp64
g62
a(lp65
S'No'
p66
aaa(lp67
g62
a(lp68
S'Im'
p69
aS'the'
p70
aS'defendant'
p71
aaa(lp72
S'BAILIFF'
p73
a(lp74
S'Oh'
p75
aaa(lp76
S'ROSEBut'
p77
a(lp78
S'Im'
p79
aS'the'
p80
aS'plaintiff'
p81
aaa(lp82
g77
a(lp83
S'on'
p84
aS'the'
p85
aS'countersuit'
p86
aaa(lp87
S'X'
p88
a(lp89
aa(lp90
S'BAILIFFOh'
p91
a(lp92
aa(lp93
S'X'
p94
a(lp95
S'P'
p96
aS'Let'
p97
aS'me'
p98
aS'have'
p99
aS'this'
p100
aS'pen'
p101
ag53
aS'for'
p102
aS'a'
p103
aS'minute'
p104
ag53
aaa(lp105
S'X_Oh'
p106
a(lp107
aa(lp108
S'X_'
p109
a(lp110
aa(lp111
S'XXX'
p112
a(lp113
S'thats'
p114
aS'never'
p115
aS'worked'
p116
ag96
aaa(lp117
S'X_'
p118
a(lp119
S'Yeah'
p120
aaa(lp121
S'ROSESign'
p122
a(lp123
S'here'
p124
aaa(lp125
S'XX'
p126
a(lp127
S'Yes'
p128
ag53
aaa(lp129
S'JUDGE'
p130
a(lp131
S'Okay'
p132
aS'now'
p133
aaa(lp134
g130
a(lp135
S'this'
p136
aS'is'
p137
ag103
aS'case'
p138
aS'that'
p139
ag103
aS'v'
p140
aaa(lp141
g130
a(lp142
S'originally'
p143
aS'was'
p144
aS'filed'
p145
aS'by'
p146
aS'Walter'
p147
aS'Komak'
p148
aaa(lp149
g130
a(lp150
S'who'
p151
aS'is'
p152
aS'now'
p153
aS'present'
p154
aaa(lp155
g130
a(lp156
S'not'
p157
aS'present'
p158
aaa(lp159
g130
a(lp160
S'against'
p161
aS'Rose'
p162
aS'Black'
p163
aaa(lp164
g130
a(lp165
S'um'
p166
aaa(lp167
g130
a(lp168
S'asking'
p169
aS'for'
p170
ag103
aS'security'
p171
aS'deposit'
p172
aaa(lp173
g130
a(lp174
S'and'
p175
aS'since'
p176
aS'hes'
p177
aS'not'
p178
aS'here'
p179
aaa(lp180
g130
a(lp181
S'uh'
p182
aaa(lp183
g130
a(lp184
S'we'
p185
aS'will'
p186
aS'not'
p187
aS'rule'
p188
aS'in'
p189
aS'favor'
p190
aS'of'
p191
aS'him'
p192
aaa(lp193
g130
a(lp194
S'and'
p195
aS'then'
p196
aS'there'
p197
aS'was'
p198
ag103
aS'cross'
p199
aS'complaint'
p200
aaa(lp201
g130
a(lp202
S'defendants'
p203
aS'claim'
p204
aaa(lp205
g130
a(lp206
S'uh'
p207
aaa(lp208
g130
a(lp209
S'by'
p210
aS'uh'
p211
aS'Rose'
p212
aS'Black'
p213
aaa(lp214
g130
a(lp215
S'for'
p216
aS'fivehundred'
p217
aS'and'
p218
aS'thirtythree'
p219
aS'dollars'
p220
aaa(lp221
g130
a(lp222
S'balance'
p223
aS'of'
p224
aS'rent'
p225
aS'due'
p226
aaa(lp227
g130
a(lp228
S'at'
p229
aS'the'
p230
aS'end'
p231
aS'of'
p232
aS'the'
p233
aS'lease'
p234
aaa(lp235
g130
a(lp236
S'And'
p237
aS'Miss'
p238
aS'Black'
p239
aaa(lp240
g130
a(lp241
S'I'
p242
aS'presume'
p243
aS'youre'
p244
aS'the'
p245
aS'landlord'
p246
aaa(lp247
g130
a(lp248
S'Is'
p249
aS'that'
p250
aS'correct'
p251
aaa(lp252
S'ROSEYes'
p253
a(lp254
aa(lp255
g253
a(lp256
S'Mhm'
p257
aaa(lp258
S'JUDGEAnd'
p259
a(lp260
S'was'
p261
aS'there'
p262
ag103
aS'uh'
p263
aS'written'
p264
aS'agreement'
p265
aaa(lp266
g259
a(lp267
S'or'
p268
ag103
aS'uh'
p269
aS'lease'
p270
aaa(lp271
S'ROSEYes'
p272
a(lp273
aa(lp274
S'JUDGE'
p275
a(lp276
S'Was'
p277
aS'it'
p278
ag103
aS'l'
p279
aaa(lp280
g275
a(lp281
S'uh'
p282
aS'month'
p283
aS'to'
p284
aS'month'
p285
aaa(lp286
g275
a(lp287
S'or'
p288
ag103
aS'uh'
p289
aaa(lp290
S'ROSEA'
p291
a(lp292
S'year'
p293
aaa(lp294
S'JUDGE'
p295
a(lp296
S'A'
p297
aS'oneyear'
p298
aS'lease'
p299
aaa(lp300
S'ROSEOne'
p301
a(lp302
S'year'
p303
aS'lease'
p304
aaa(lp305
S'JUDGELet'
p306
a(lp307
S'me'
p308
aS'see'
p309
aS'that'
p310
aS'please'
p311
aaa(lp312
g306
a(lp313
S'Okay'
p314
aaa(lp315
g306
a(lp316
S'So'
p317
aS'now'
p318
aaa(lp319
g306
a(lp320
S'uh'
p321
aaa(lp322
g306
a(lp323
S'how'
p324
aS'do'
p325
aS'you'
p326
aS'arrive'
p327
aS'at'
p328
aS'the'
p329
aS'five'
p330
aS'thirtythree'
p331
aaa(lp332
g306
a(lp333
S'you'
p334
aS'say'
p335
aS'that'
p336
aS'they'
p337
aaa(lp338
g306
a(lp339
S'that'
p340
aS'Mister'
p341
aS'Komak'
p342
aS'owes'
p343
aS'you'
p344
aaa(lp345
S'ROSE'
p346
a(lp347
S'Uh'
p348
aS'this'
p349
aS'was'
p350
aS'the'
p351
aaa(lp352
g346
a(lp353
S'um'
p354
aaa(lp355
g346
a(lp356
S'breakdown'
p357
aS'of'
p358
aS'the'
p359
aS'security'
p360
aS'deposit'
p361
aaa(lp362
S'JUDGELet'
p363
a(lp364
S'me'
p365
aS'see'
p366
aS'that'
p367
aS'please'
p368
aaa(lp369
g363
a(lp370
S'So'
p371
aS'there'
p372
aS'was'
p373
aS'original'
p374
aS'security'
p375
aS'deposit'
p376
aS'of'
p377
aS'eighteenhundred'
p378
aS'and'
p379
aS'seventyfive'
p380
aS'dollars'
p381
aaa(lp382
S'ROSEThats'
p383
a(lp384
S'correct'
p385
aaa(lp386
S'JUDGE'
p387
a(lp388
S'And'
p389
aS'then'
p390
aS'you'
p391
aS'did'
p392
aS'some'
p393
aS'repairs'
p394
aS'on'
p395
aS'uh'
p396
aaa(lp397
g387
a(lp398
S'reinstalling'
p399
aS'screens'
p400
aaa(lp401
S'ROSERight'
p402
a(lp403
aa(lp404
S'JUDGE'
p405
a(lp406
S'Okay'
p407
aaa(lp408
g405
a(lp409
S'How'
p410
aS'come'
p411
aS'they'
p412
aS'were'
p413
aaa(lp414
g405
a(lp415
S'it'
p416
aS'was'
p417
aS'necessary'
p418
aS'to'
p419
aS'do'
p420
aS'that'
p421
aaa(lp422
S'ROSE'
p423
a(lp424
S'They'
p425
aS'had'
p426
aS'removed'
p427
aS'the'
p428
aS'screens'
p429
aaa(lp430
S'JUDGEOkay'
p431
a(lp432
aa(lp433
g431
a(lp434
S'Alright'
p435
aaa(lp436
g431
a(lp437
S'And'
p438
aS'then'
p439
aS'um'
p440
aaa(lp441
g431
a(lp442
S'they'
p443
aS'owed'
p444
aS'some'
p445
aS'rent'
p446
aaa(lp447
g431
a(lp448
S'They'
p449
aS'were'
p450
aS'behind'
p451
aS'in'
p452
aS'their'
p453
aS'rent'
p454
aaa(lp455
S'ROSE'
p456
a(lp457
S'Uh'
p458
aaa(lp459
g456
a(lp460
S'they'
p461
aS'were'
p462
aS'not'
p463
aS'behind'
p464
aS'in'
p465
aS'the'
p466
aS'rent'
p467
aaa(lp468
g456
a(lp469
S'the'
p470
aaa(lp471
g456
a(lp472
S'The'
p473
aS'lease'
p474
aS'was'
p475
aS'terminated'
p476
aaa(lp477
g456
a(lp478
S'because'
p479
aS'of'
p480
aS'their'
p481
aS'behavior'
p482
aaa(lp483
g456
a(lp484
S'They'
p485
aS'broke'
p486
aS'uh'
p487
aS's'
p488
aS'one'
p489
aS'of'
p490
aS'the'
p491
aS'conditions'
p492
aS'of'
p493
aS'the'
p494
aS'lease'
p495
aaa(lp496
g456
a(lp497
S'which'
p498
aS'was'
p499
aS'not'
p500
aS'to'
p501
aS'disturb'
p502
aS'the'
p503
aS'other'
p504
aS'tenants'
p505
aS'there'
p506
aaa(lp507
S'JUDGE'
p508
a(lp509
S'Okay'
p510
aaa(lp511
S'ROSESo'
p512
a(lp513
g242
aS'had'
p514
aS'to'
p515
aS'give'
p516
aS'them'
p517
ag103
aS'threeday'
p518
aS'notice'
p519
aS'to'
p520
aS'leave'
p521
aaa(lp522
S'JUDGE'
p523
a(lp524
S'T'
p525
aS'uh'
p526
aaa(lp527
g523
a(lp528
S'threeday'
p529
aS'notice'
p530
aS'to'
p531
aaa(lp532
S'ROSEQuit'
p533
a(lp534
aa(lp535
S'JUDGE'
p536
a(lp537
S'Well'
p538
ag242
aS'know'
p539
aaa(lp540
g536
a(lp541
S'but'
p542
aaa(lp543
g536
a(lp544
S'normally'
p545
aS'you'
p546
aS'would'
p547
aS'give'
p548
aS'em'
p549
aS'threeday'
p550
aS'notice'
p551
aS'to'
p552
aS'perform'
p553
aS'uh'
p554
aaa(lp555
S'ROSEX'
p556
a(lp557
aa(lp558
g556
a(lp559
g53
aS'Okay'
p560
ag53
aaa(lp561
S'JUDGEOne'
p562
a(lp563
S'of'
p564
aS'the'
p565
aS'covenants'
p566
aaa(lp567
g562
a(lp568
S'such'
p569
aS'as'
p570
aS'uh'
p571
aaa(lp572
S'X'
p573
a(lp574
aa(lp575
S'JUDGEkeep'
p576
a(lp577
S'quiet'
p578
aaa(lp579
S'ROSE'
p580
a(lp581
aa(lp582
g580
a(lp583
S'They'
p584
aS'were'
p585
aS'not'
p586
aS'able'
p587
aS'to'
p588
aS'be'
p589
aS'quiet'
p590
aaa(lp591
g580
a(lp592
S'Um'
p593
aS'what'
p594
aS'ha'
p595
aaa(lp596
S'JUDGEOkay'
p597
a(lp598
aa(lp599
g597
a(lp600
S'so'
p601
aS'then'
p602
aS'they'
p603
aaa(lp604
g597
a(lp605
S'So'
p606
aS'then'
p607
aS'they'
p608
aS'left'
p609
aS'within'
p610
aS'that'
p611
aS'three'
p612
aS'days'
p613
aaa(lp614
S'ROSE'
p615
a(lp616
S'No'
p617
aaa(lp618
g615
a(lp619
S'They'
p620
aS'left'
p621
ag103
aS'month'
p622
aS'later'
p623
aaa(lp624
g615
a(lp625
S'At'
p626
aS'the'
p627
aS'end'
p628
aS'of'
p629
aS'June'
p630
aaa(lp631
g615
a(lp632
S'They'
p633
aS'paid'
p634
aS'the'
p635
aS'rent'
p636
aS'for'
p637
aS'June'
p638
aaa(lp639
S'JUDGE'
p640
a(lp641
S'Okay'
p642
aaa(lp643
S'ROSEand'
p644
a(lp645
S'they'
p646
aS'left'
p647
aaa(lp648
g644
a(lp649
S'uh'
p650
aS'July'
p651
aS'first'
p652
aaa(lp653
g644
a(lp654
S'And'
p655
aS'there'
p656
aS'were'
p657
aS'two'
p658
aS'months'
p659
aS'left'
p660
aS'of'
p661
aS'the'
p662
aS'lease'
p663
aaa(lp664
S'JUDGED'
p665
a(lp666
aa(lp667
S'ROSEXX'
p668
a(lp669
aa(lp670
S'JUDGEAnd'
p671
a(lp672
S'rents'
p673
aS'uh'
p674
aaa(lp675
g671
a(lp676
S'thousand'
p677
aS'uh'
p678
aaa(lp679
g671
a(lp680
S'twohundred'
p681
aaa(lp682
S'ROSETwelve'
p683
a(lp684
S'seventyfive'
p685
aaa(lp686
S'JUDGEfive'
p687
a(lp688
aa(lp689
g687
a(lp690
S'Okay'
p691
aaa(lp692
S'ROSEMhm'
p693
a(lp694
aa(lp695
S'JUDGE'
p696
a(lp697
S'Now'
p698
aaa(lp699
g696
a(lp700
S'um'
p701
aaa(lp702
g696
a(lp703
S'did'
p704
aS'you'
p705
aS'rerent'
p706
aS'the'
p707
aaa(lp708
g696
a(lp709
S'rerent'
p710
aS'the'
p711
aS'premises'
p712
aaa(lp713
S'ROSEYes'
p714
a(lp715
g242
aS'did'
p716
aaa(lp717
g714
a(lp718
S'As'
p719
aS'of'
p720
aS'August'
p721
aS'twentyeighth'
p722
aaa(lp723
g714
a(lp724
S'So'
p725
aS'it'
p726
aS'reduced'
p727
aaa(lp728
g714
a(lp729
S'uh'
p730
aaa(lp731
g714
a(lp732
S'that'
p733
aS'sevenhundred'
p734
aS'three'
p735
aaa(lp736
g714
a(lp737
S'to'
p738
aS'five'
p739
aS'thirtythree'
p740
aaa(lp741
S'JUDGE'
p742
a(lp743
S'Uh'
p744
aaa(lp745
g742
a(lp746
S'seven'
p747
aS'thirtythr'
p748
aaa(lp749
g742
a(lp750
S'Im'
p751
aS'not'
p752
aS'sure'
p753
aS'wh'
p754
aS'where'
p755
aS'the'
p756
aS'seven'
p757
aS'thirtythree'
p758
aS'comes'
p759
aS'in'
p760
aaa(lp761
S'ROSESeven'
p762
a(lp763
S'o'
p764
aS'three'
p765
aS'was'
p766
aS'the'
p767
aS'balance'
p768
aS'that'
p769
aS'they'
p770
aS'owed'
p771
aS'me'
p772
aaa(lp773
S'JUDGESeven'
p774
a(lp775
g764
aS'three'
p776
aaa(lp777
S'ROSE'
p778
a(lp779
S'after'
p780
aS'they'
p781
aS'moved'
p782
aS'out'
p783
aaa(lp784
S'JUDGERight'
p785
a(lp786
aa(lp787
g785
a(lp788
S'But'
p789
aS'theres'
p790
ag103
aS'credit'
p791
aaa(lp792
g785
a(lp793
S'because'
p794
aS'they'
p795
aS'm'
p796
aaa(lp797
g785
a(lp798
S'you'
p799
aS'got'
p800
aaa(lp801
S'ROSEThats'
p802
a(lp803
S'correct'
p804
aaa(lp805
S'JUDGEOkay'
p806
a(lp807
aa(lp808
g806
a(lp809
S'So'
p810
aS'youre'
p811
aS'giving'
p812
ag103
aS'threedays'
p813
aS'uh'
p814
aS'credit'
p815
aaa(lp816
g806
a(lp817
S'and'
p818
aS'how'
p819
aS'much'
p820
aS'is'
p821
aS'the'
p822
aS'daily'
p823
aS'rent'
p824
aaa(lp825
S'ROSEMm'
p826
a(lp827
aa(lp828
g826
a(lp829
S'It'
p830
aS'was'
p831
aS'fortytwo'
p832
aS'fifty'
p833
aaa(lp834
S'JUDGE'
p835
a(lp836
S'Okay'
p837
aaa(lp838
g835
a(lp839
S'So'
p840
aaa(lp841
g835
a(lp842
S'how'
p843
aS'much'
p844
aS'do'
p845
aS'you'
p846
aS'say'
p847
aS'they'
p848
aS'now'
p849
aS'owe'
p850
aS'you'
p851
aaa(lp852
S'ROSE'
p853
a(lp854
S'Fivehundred'
p855
aS'and'
p856
aS'thirtythree'
p857
aS'dollar'
p858
aaa(lp859
S'JUDGEX'
p860
a(lp861
S'And'
p862
ag242
aS'dont'
p863
ag53
aaa(lp864
g860
a(lp865
S'and'
p866
aS'thats'
p867
aS'what'
p868
aS'you'
p869
aS'put'
p870
aS'down'
p871
aS'on'
p872
aS'your'
p873
aS'cross'
p874
aS'complaint'
p875
aaa(lp876
S'ROSEThats'
p877
a(lp878
S'correct'
p879
aaa(lp880
S'JUDGEI'
p881
a(lp882
S'see'
p883
aaa(lp884
S'ROSE'
p885
a(lp886
S'Mhm'
p887
aaa(lp888
S'JUDGEOkay'
p889
a(lp890
aa(lp891
g889
a(lp892
S'Well'
p893
aS'that'
p894
aS'seems'
p895
aS'uh'
p896
aaa(lp897
g889
a(lp898
S'fundamentally'
p899
aS'fair'
p900
aaa(lp901
g889
a(lp902
S'and'
p903
aS'theyre'
p904
aS'not'
p905
aS'disputing'
p906
aS'it'
p907
aaa(lp908
g889
a(lp909
S'so'
p910
ag242
aS'will'
p911
aS'grant'
p912
aS'you'
p913
aS'your'
p914
aS'request'
p915
aaa(lp916
g889
a(lp917
S'And'
p918
ag242
aS'will'
p919
aS'hand'
p920
aS'back'
p921
aS'your'
p922
aS'documents'
p923
aaa(lp924
S'ROSEThank'
p925
a(lp926
S'you'
p927
aS'very'
p928
aS'much'
p929
aaa(lp930
g925
a(lp931
g96
aS'And'
p932
aS'how'
p933
aS'do'
p934
ag242
aS'get'
p935
aS'them'
p936
aS'to'
p937
aS'pay'
p938
aaa(lp939
g925
a(lp940
g96
aaa(lp941
S'BAILIFFP'
p942
a(lp943
S'Go'
p944
aS'to'
p945
aS'the'
p946
aS'small'
p947
aS'claims'
p948
aS'court'
p949
aS'office'
p950
aaa(lp951
g942
a(lp952
S'they'
p953
aS'have'
p954
aS'some'
p955
aS'paper'
p956
aS'work'
p957
ag96
aaa(lp958
S'ROSE'
p959
a(lp960
g96
aS'Thank'
p961
aS'you'
p962
ag96
aaa(lp963
S'XXXX'
p964
a(lp965
aa(lp966
S'BAILIFF'
p967
a(lp968
g96
aS'Theres'
p969
ag103
aS'smallclaims'
p970
aS'advisor'
p971
aS'that'
p972
aS'you'
p973
aS'can'
p974
aS'ask'
p975
ag96
aaa(lp976
S'ROSEP'
p977
a(lp978
S'Thank'
p979
aS'you'
p980
ag96
aaa(lp981
S'JUDGE'
p982
a(lp983
S'Okay'
p984
aaa(lp985
g982
a(lp986
S'the'
p987
aS'next'
p988
aS'case'
p989
aS'will'
p990
aS'be'
p991
aS'uh'
p992
aaa(lp993
g982
a(lp994
S'Mitchell'
p995
aS'Roberts'
p996
aaa(lp997
g982
a(lp998
S'versus'
p999
aS'uh'
p1000
aS'Matthew'
p1001
aS'Collins'
p1002
aaa(lp1003
g982
a(lp1004
S'ABC'
p1005
aS'Builders'
p1006
aS'Interiors'
p1007
aaa(lp1008
S'BAILIFF'
p1009
a(lp1010
S'This'
p1011
aaa(lp1012
g1009
a(lp1013
S'both'
p1014
aS'sides'
p1015
aS'are'
p1016
aS'here'
p1017
aaa(lp1018
g1009
a(lp1019
S'Is'
p1020
aS'this'
p1021
aS'contested'
p1022
aaa(lp1023
S'MITCHELL'
p1024
a(lp1025
g53
aaa(lp1026
S'BAILIFF'
p1027
a(lp1028
S'Whos'
p1029
aS'Mitchell'
p1030
aS'Roberts'
p1031
aaa(lp1032
S'MITCHELLRight'
p1033
a(lp1034
S'here'
p1035
aaa(lp1036
S'BAILIFF'
p1037
a(lp1038
S'Okay'
p1039
aaa(lp1040
g1037
a(lp1041
S'Sit'
p1042
aS'on'
p1043
aS'this'
p1044
aS'side'
p1045
aS'here'
p1046
aaa(lp1047
g1037
a(lp1048
S'XXX'
p1049
aaa(lp1050
S'X'
p1051
a(lp1052
g96
aS'Sure'
p1053
ag96
aaa(lp1054
S'BAILIFF'
p1055
a(lp1056
S'Whos'
p1057
aS'the'
p1058
aS'party'
p1059
aS'being'
p1060
ag488
aS'served'
p1061
aaa(lp1062
g1055
a(lp1063
S'You'
p1064
aS'are'
p1065
aaa(lp1066
S'X'
p1067
a(lp1068
S'Thank'
p1069
aS'you'
p1070
aaa(lp1071
S'BAILIFF'
p1072
a(lp1073
S'Nice'
p1074
aS'pen'
p1075
aaa(lp1076
g1072
a(lp1077
g53
aS'Alright'
p1078
ag53
aaa(lp1079
S'JUDGE'
p1080
a(lp1081
S'Okay'
p1082
aaa(lp1083
g1080
a(lp1084
S'lets'
p1085
aS'see'
p1086
aaa(lp1087
g1080
a(lp1088
S'whos'
p1089
aS'here'
p1090
aS'now'
p1091
aaa(lp1092
g1080
a(lp1093
S'Mister'
p1094
aS'Roberts'
p1095
aaa(lp1096
S'MITCHELL'
p1097
a(lp1098
S'Right'
p1099
aS'here'
p1100
aaa(lp1101
S'JUDGE'
p1102
a(lp1103
S'And'
p1104
aS'you'
p1105
aS'brought'
p1106
aS'an'
p1107
aS'action'
p1108
aaa(lp1109
g1102
a(lp1110
S'against'
p1111
aS'uh'
p1112
aS'Matthew'
p1113
aS'Collins'
p1114
aaa(lp1115
g1102
a(lp1116
S'for'
p1117
aS'um'
p1118
aaa(lp1119
g1102
a(lp1120
S'roughly'
p1121
aS'sevenhundred'
p1122
aS'dollars'
p1123
aaa(lp1124
g1102
a(lp1125
S'for'
p1126
aS'labor'
p1127
aS'installing'
p1128
ag103
aS'carpet'
p1129
aaa(lp1130
g1102
a(lp1131
g525
aS'uh'
p1132
aaa(lp1133
g1102
a(lp1134
S'during'
p1135
aS'last'
p1136
aS'uh'
p1137
aS'August'
p1138
aS'to'
p1139
aS'September'
p1140
aaa(lp1141
g1102
a(lp1142
S'okay'
p1143
aaa(lp1144
g1102
a(lp1145
S'and'
p1146
aS'uh'
p1147
aaa(lp1148
g1102
a(lp1149
S'just'
p1150
aS'tell'
p1151
aS'me'
p1152
aS'about'
p1153
aS'how'
p1154
aS'you'
p1155
aS'arrived'
p1156
aS'at'
p1157
aS'uh'
p1158
aS'this'
p1159
aS'claim'
p1160
aaa(lp1161
S'MITCHELL'
p1162
a(lp1163
S'Uh'
p1164
ag242
aS'was'
p1165
aS'called'
p1166
aS'by'
p1167
aS'Matthew'
p1168
aS'here'
p1169
aaa(lp1170
g1162
a(lp1171
S'to'
p1172
aS'do'
p1173
aS'the'
p1174
aS'job'
p1175
aS'for'
p1176
aS'him'
p1177
aaa(lp1178
g1162
a(lp1179
S'So'
p1180
ag242
aS'went'
p1181
aS'out'
p1182
aS'and'
p1183
aS'looked'
p1184
aS'at'
p1185
aS'the'
p1186
aS'job'
p1187
aaa(lp1188
S'JUDGE'
p1189
a(lp1190
S'Okay'
p1191
aaa(lp1192
g1189
a(lp1193
S'you'
p1194
aS'run'
p1195
ag103
aaa(lp1196
g1189
a(lp1197
S'you'
p1198
aS'run'
p1199
ag103
ag103
aS'carpet'
p1200
aS'business'
p1201
ag242
aS'presume'
p1202
aaa(lp1203
S'MITCHELLYes'
p1204
a(lp1205
aa(lp1206
g1204
a(lp1207
S'Im'
p1208
ag103
aS'licensed'
p1209
aS'contractor'
p1210
aaa(lp1211
S'JUDGEOkay'
p1212
a(lp1213
aa(lp1214
S'MITCHELL'
p1215
a(lp1216
S'Um'
p1217
aaa(lp1218
g1215
a(lp1219
S'the'
p1220
aS'job'
p1221
aS'was'
p1222
aS'out'
p1223
aS'at'
p1224
aS'UCSB'
p1225
aaa(lp1226
g1215
a(lp1227
g242
aS'went'
p1228
aS'and'
p1229
aS'estimated'
p1230
aS'the'
p1231
aS'job'
p1232
aS'for'
p1233
aS'myself'
p1234
aaa(lp1235
g1215
a(lp1236
S'to'
p1237
aS'see'
p1238
aS'if'
p1239
ag242
aS'could'
p1240
aS'take'
p1241
aS'the'
p1242
aS'job'
p1243
aaa(lp1244
g1215
a(lp1245
S'for'
p1246
aS'what'
p1247
aS'he'
p1248
aS'wanted'
p1249
aS'to'
p1250
aS'pay'
p1251
aS'for'
p1252
aS'it'
p1253
aaa(lp1254
g1215
a(lp1255
S'and'
p1256
ag242
aS'let'
p1257
aS'him'
p1258
aS'know'
p1259
aS'that'
p1260
ag242
aS'could'
p1261
aS'not'
p1262
aaa(lp1263
g1215
a(lp1264
S'Do'
p1265
aS'the'
p1266
aS'job'
p1267
aaa(lp1268
g1215
a(lp1269
g242
aS'wouldnt'
p1270
aS'make'
p1271
aS'any'
p1272
aS'money'
p1273
aaa(lp1274
g1215
a(lp1275
S'So'
p1276
aS'uh'
p1277
aaa(lp1278
g1215
a(lp1279
S'upon'
p1280
aS'me'
p1281
aS'telling'
p1282
aS'him'
p1283
aS'that'
p1284
aaa(lp1285
g1215
a(lp1286
S'he'
p1287
aS'offered'
p1288
aaa(lp1289
g1215
a(lp1290
S'to'
p1291
aS'pay'
p1292
aS'my'
p1293
aS'employees'
p1294
aaa(lp1295
g1215
a(lp1296
S'fill'
p1297
aS'out'
p1298
aaa(lp1299
g1215
a(lp1300
S'he'
p1301
aS'had'
p1302
aS'em'
p1303
aS'fill'
p1304
aS'out'
p1305
aS'doubleu'
p1306
aS'two'
p1307
aS'forms'
p1308
aS'all'
p1309
aS'of'
p1310
aS'em'
p1311
aaa(lp1312
g1215
a(lp1313
S'and'
p1314
ag53
aS'he'
p1315
ag53
aS'paid'
p1316
aS'him'
p1317
aaa(lp1318
g1215
a(lp1319
S'to'
p1320
aS'lessen'
p1321
aS'the'
p1322
aS'burden'
p1323
aS'of'
p1324
aS'payment'
p1325
aS'on'
p1326
aS'me'
p1327
aaa(lp1328
g1215
a(lp1329
S'so'
p1330
aS'that'
p1331
ag242
aS'in'
p1332
aS'turn'
p1333
aS'would'
p1334
aS'make'
p1335
aS'more'
p1336
aS'money'
p1337
aS'off'
p1338
aS'the'
p1339
aS'job'
p1340
aaa(lp1341
g1215
a(lp1342
g242
aS'agreed'
p1343
aS'to'
p1344
aS'that'
p1345
aaa(lp1346
g1215
a(lp1347
S'after'
p1348
aS'about'
p1349
aaa(lp1350
S'JUDGE'
p1351
a(lp1352
S'Ca'
p1353
aS'is'
p1354
aS'that'
p1355
ag103
aS'normal'
p1356
aS'procedure'
p1357
aS'XX'
p1358
aaa(lp1359
S'MITCHELLNot'
p1360
a(lp1361
S'at'
p1362
aS'all'
p1363
aaa(lp1364
g1360
a(lp1365
S'He'
p1366
aS'wanted'
p1367
aS'me'
p1368
aS'to'
p1369
aS'do'
p1370
aS'the'
p1371
aS'job'
p1372
aaa(lp1373
g1360
a(lp1374
S'so'
p1375
aS'he'
p1376
aS'offered'
p1377
aS'to'
p1378
aS'take'
p1379
aS'some'
p1380
aS'of'
p1381
aS'the'
p1382
aS'monitory'
p1383
aS'burden'
p1384
aS'off'
p1385
aS'my'
p1386
aS'back'
p1387
aaa(lp1388
g1360
a(lp1389
S'so'
p1390
aS'that'
p1391
ag242
aS'could'
p1392
aS'do'
p1393
aS'it'
p1394
aS'for'
p1395
aS'the'
p1396
aS'agreed'
p1397
aS'amounts'
p1398
aS'that'
p1399
aS'we'
p1400
aS'were'
p1401
aS'gonna'
p1402
aS'do'
p1403
aS'it'
p1404
aS'on'
p1405
aaa(lp1406
S'JUDGE'
p1407
a(lp1408
S'So'
p1409
aS'in'
p1410
aS'other'
p1411
aS'words'
p1412
aaa(lp1413
g1407
a(lp1414
S'your'
p1415
aaa(lp1416
g1407
a(lp1417
S'your'
p1418
aS'helpers'
p1419
aS'would'
p1420
aS'really'
p1421
aS'be'
p1422
aS'his'
p1423
aS'employees'
p1424
aS'for'
p1425
aS'the'
p1426
aS'purpose'
p1427
aS'of'
p1428
aS'this'
p1429
aS'job'
p1430
aaa(lp1431
S'MITCHELLThats'
p1432
a(lp1433
S'correct'
p1434
aaa(lp1435
g1432
a(lp1436
S'He'
p1437
aS'had'
p1438
aS'em'
p1439
aS'all'
p1440
aS'fill'
p1441
aS'out'
p1442
aS'the'
p1443
aS'plo'
p1444
aS'proper'
p1445
aS'forms'
p1446
aaa(lp1447
S'JUDGE'
p1448
a(lp1449
S'So'
p1450
aS'then'
p1451
aS'your'
p1452
aS'costs'
p1453
aS'would'
p1454
aS'be'
p1455
aS'reduced'
p1456
aS'there'
p1457
aS'as'
p1458
aS'far'
p1459
aS'as'
p1460
aaa(lp1461
S'MITCHELL'
p1462
a(lp1463
S'Thats'
p1464
aS'correct'
p1465
aaa(lp1466
S'JUDGEAlright'
p1467
a(lp1468
aa(lp1469
S'MITCHELL'
p1470
a(lp1471
S'Uh'
p1472
aaa(lp1473
g1470
a(lp1474
g242
aS'went'
p1475
aS'to'
p1476
aS'receive'
p1477
aS'my'
p1478
aS'check'
p1479
aaa(lp1480
g1470
a(lp1481
S'of'
p1482
aS'which'
p1483
aaa(lp1484
g1470
a(lp1485
S'we'
p1486
aS'had'
p1487
aS'agreed'
p1488
aaa(lp1489
g1470
a(lp1490
S'that'
p1491
aS'he'
p1492
aS'would'
p1493
aS'deduct'
p1494
aaa(lp1495
g1470
a(lp1496
S'the'
p1497
aS'amount'
p1498
aS'of'
p1499
aS'the'
p1500
aS'hourly'
p1501
aS'wage'
p1502
aaa(lp1503
g1470
a(lp1504
S'that'
p1505
aS'he'
p1506
aS'was'
p1507
aaa(lp1508
S'JUDGEWas'
p1509
a(lp1510
S'this'
p1511
aS'agreement'
p1512
aS'in'
p1513
aS'writing'
p1514
aaa(lp1515
g1509
a(lp1516
S'or'
p1517
aS'verbal'
p1518
aaa(lp1519
S'MITCHELL'
p1520
a(lp1521
S'Completely'
p1522
aS'verbal'
p1523
aaa(lp1524
g1520
a(lp1525
S'Ive'
p1526
aS'been'
p1527
aS'working'
p1528
aS'with'
p1529
aS'him'
p1530
aS'for'
p1531
aS'like'
p1532
aS'six'
p1533
aS'years'
p1534
aaa(lp1535
g1520
a(lp1536
S'Uh'
p1537
aaa(lp1538
g1520
a(lp1539
S'upon'
p1540
ag103
aS'reve'
p1541
aS'uh'
p1542
aaa(lp1543
g1520
a(lp1544
S'uh'
p1545
aS'receiving'
p1546
aS'my'
p1547
aS'check'
p1548
aaa(lp1549
g1520
a(lp1550
S'uh'
p1551
aaa(lp1552
g1520
a(lp1553
S'for'
p1554
aS'about'
p1555
aS'two'
p1556
aS'and'
p1557
ag103
aS'half'
p1558
aS'weeks'
p1559
aS'of'
p1560
aS'work'
p1561
aaa(lp1562
g1520
a(lp1563
S'approximately'
p1564
aS'between'
p1565
aS'fifty'
p1566
aS'and'
p1567
aS'seventy'
p1568
aS'hours'
p1569
aaa(lp1570
g1520
a(lp1571
g242
aS'was'
p1572
aS'paid'
p1573
aS'threehundred'
p1574
aS'and'
p1575
aS'sixteen'
p1576
aS'dollars'
p1577
aS'and'
p1578
aS'fiftyone'
p1579
aS'cents'
p1580
aaa(lp1581
g1520
a(lp1582
S'So'
p1583
ag242
aS'approached'
p1584
aS'him'
p1585
aS'with'
p1586
aS'it'
p1587
aaa(lp1588
g1520
a(lp1589
S'and'
p1590
aS'he'
p1591
aS'handed'
p1592
aS'me'
p1593
aS'this'
p1594
aS'yellow'
p1595
aS'piece'
p1596
aS'of'
p1597
aS'paper'
p1598
aS'here'
p1599
aaa(lp1600
g1520
a(lp1601
S'and'
p1602
aS'noted'
p1603
aS'that'
p1604
aaa(lp1605
g1520
a(lp1606
S'what'
p1607
aS'the'
p1608
aS'employees'
p1609
aS'made'
p1610
aaa(lp1611
g1520
a(lp1612
S'and'
p1613
aS'uh'
p1614
aaa(lp1615
g1520
a(lp1616
S'at'
p1617
aS'twentysix'
p1618
aS'percent'
p1619
aS'less'
p1620
aS'deduction'
p1621
aS'on'
p1622
aS'these'
p1623
aS'two'
p1624
aS'employees'
p1625
aaa(lp1626
g1520
a(lp1627
S'Which'
p1628
aS'was'
p1629
aS'the'
p1630
aS'employer'
p1631
aS'contribution'
p1632
aaa(lp1633
g1520
a(lp1634
S'So'
p1635
ag242
aS'noted'
p1636
aS'to'
p1637
aS'him'
p1638
aS'that'
p1639
aS'he'
p1640
aS'was'
p1641
aS'supposed'
p1642
aS'to'
p1643
aS'pay'
p1644
aS'that'
p1645
aaa(lp1646
g1520
a(lp1647
S'he'
p1648
aS'said'
p1649
aaa(lp1650
g1520
a(lp1651
S'uh'
p1652
aS'n'
p1653
aaa(lp1654
g1520
a(lp1655
S'no'
p1656
aaa(lp1657
g1520
a(lp1658
S'youre'
p1659
aS'gonna'
p1660
aS'pay'
p1661
aS'it'
p1662
aaa(lp1663
g1520
a(lp1664
S'So'
p1665
ag242
aS'said'
p1666
aS'thats'
p1667
aS'not'
p1668
aS'as'
p1669
aS'per'
p1670
aS'our'
p1671
aS'agreement'
p1672
aaa(lp1673
g1520
a(lp1674
S'he'
p1675
aS'said'
p1676
aS'yes'
p1677
aS'it'
p1678
aS'is'
p1679
aaa(lp1680
g1520
a(lp1681
S'he'
p1682
aS'handed'
p1683
aS'me'
p1684
aS'my'
p1685
aS'check'
p1686
aaa(lp1687
g1520
a(lp1688
S'rolled'
p1689
aS'up'
p1690
aS'his'
p1691
aS'window'
p1692
aaa(lp1693
g1520
a(lp1694
S'and'
p1695
aS'drove'
p1696
aS'off'
p1697
aaa(lp1698
g1520
a(lp1699
S'And'
p1700
aS'hes'
p1701
aS'there'
p1702
aS'to'
p1703
aS'state'
p1704
aaa(lp1705
g1520
a(lp1706
S'hes'
p1707
aaa(lp1708
g1520
a(lp1709
S'he'
p1710
aS'saw'
p1711
aS'that'
p1712
aaa(lp1713
g1520
a(lp1714
S'and'
p1715
aS'was'
p1716
aS'witness'
p1717
aS'to'
p1718
aS'that'
p1719
aaa(lp1720
g1520
a(lp1721
g242
aS'have'
p1722
ag103
aS'letter'
p1723
aaa(lp1724
S'JUDGEI'
p1725
a(lp1726
S'don'
p1727
ag242
aS'dont'
p1728
aS'think'
p1729
aS'its'
p1730
aS'relevant'
p1731
aS'that'
p1732
aS'he'
p1733
aS'rolled'
p1734
aS'up'
p1735
aS'his'
p1736
aS'window'
p1737
aS'and'
p1738
aS'drove'
p1739
aS'off'
p1740
ag53
aaa(lp1741
S'MITCHELLWell'
p1742
a(lp1743
aa(lp1744
g1742
a(lp1745
g242
aS'know'
p1746
aaa(lp1747
g1742
a(lp1748
S'But'
p1749
aaa(lp1750
g1742
a(lp1751
S'that'
p1752
aaa(lp1753
g1742
a(lp1754
S'that'
p1755
aS'was'
p1756
aS'the'
p1757
aS'end'
p1758
aS'of'
p1759
aS'our'
p1760
aS'thing'
p1761
aaa(lp1762
g1742
a(lp1763
g242
aS'tried'
p1764
aS'to'
p1765
aS'contact'
p1766
aS'him'
p1767
aS'everything'
p1768
aaa(lp1769
g1742
a(lp1770
S'finally'
p1771
ag242
aS'uh'
p1772
aS'contacted'
p1773
aS'my'
p1774
aS'attorney'
p1775
aaa(lp1776
g1742
a(lp1777
S'Id'
p1778
aS'like'
p1779
aS'to'
p1780
aS'present'
p1781
aS'this'
p1782
aS'letter'
p1783
aS'to'
p1784
aS'you'
p1785
aS'here'
p1786
aaa(lp1787
S'JUDGE'
p1788
a(lp1789
S'Okay'
p1790
aaa(lp1791
g1788
a(lp1792
S'If'
p1793
ag242
aS'may'
p1794
aS'look'
p1795
aS'at'
p1796
aS'that'
p1797
aaa(lp1798
g1788
a(lp1799
S'And'
p1800
aaa(lp1801
g1788
a(lp1802
S'have'
p1803
aS'you'
p1804
aS'shown'
p1805
aS'that'
p1806
aS'to'
p1807
aS'uh'
p1808
aS'Mister'
p1809
aS'Collins'
p1810
aaa(lp1811
S'MITCHELLYes'
p1812
a(lp1813
S'please'
p1814
aaa(lp1815
g1812
a(lp1816
S'Yes'
p1817
aaa(lp1818
g1812
a(lp1819
S'He'
p1820
aS'has'
p1821
aaa(lp1822
g1812
a(lp1823
S'he'
p1824
aS'has'
p1825
aS'received'
p1826
ag103
aS'copy'
p1827
aS'of'
p1828
aS'that'
p1829
aS'letter'
p1830
aaa(lp1831
S'X'
p1832
a(lp1833
aa(lp1834
S'JUDGE'
p1835
a(lp1836
S'Now'
p1837
aS'Stu'
p1838
aS'Roberts'
p1839
aS'is'
p1840
aS'an'
p1841
aS'attorney'
p1842
aaa(lp1843
g1835
a(lp1844
S'Is'
p1845
aS'that'
p1846
aS'correct'
p1847
aaa(lp1848
S'MITCHELL'
p1849
a(lp1850
S'Yes'
p1851
aS'sir'
p1852
aaa(lp1853
S'JUDGE'
p1854
a(lp1855
S'Youre'
p1856
aS'uh'
p1857
aaa(lp1858
S'MITCHELL'
p1859
a(lp1860
S'Im'
p1861
aS'his'
p1862
aS'nephew'
p1863
aaa(lp1864
S'JUDGEP'
p1865
a(lp1866
S'Youre'
p1867
aS'his'
p1868
aS'nephew'
p1869
ag96
aaa(lp1870
g1865
a(lp1871
S'And'
p1872
aS'youre'
p1873
aS'Nick'
p1874
aS'Ro'
p1875
aS'Roberts'
p1876
aS'nephew'
p1877
aS'too'
p1878
aS'then'
p1879
aaa(lp1880
S'MITCHELL'
p1881
a(lp1882
S'Thats'
p1883
aS'correct'
p1884
aaa(lp1885
S'JUDGE'
p1886
a(lp1887
S'Okay'
p1888
aaa(lp1889
g1886
a(lp1890
S'So'
p1891
aS'uh'
p1892
aS'your'
p1893
aS'uncle'
p1894
aS'then'
p1895
aS'wrote'
p1896
aS'uh'
p1897
aS'Builders'
p1898
aS'uh'
p1899
ag103
aS'letter'
p1900
aaa(lp1901
g1886
a(lp1902
S'thats'
p1903
aS'what'
p1904
aS'Im'
p1905
aS'reading'
p1906
aS'now'
p1907
aaa(lp1908
S'MITCHELL'
p1909
a(lp1910
S'Yes'
p1911
aS'sir'
p1912
aaa(lp1913
S'JUDGE'
p1914
a(lp1915
S'Uh'
p1916
ag242
aS'do'
p1917
aS'emphasize'
p1918
aS'that'
p1919
aS'Im'
p1920
aS'reading'
p1921
aS'it'
p1922
aaa(lp1923
g1914
a(lp1924
S'this'
p1925
aS'is'
p1926
aS'not'
p1927
aS'evidence'
p1928
aaa(lp1929
g1914
a(lp1930
S'this'
p1931
aS'is'
p1932
aS'only'
p1933
aS'y'
p1934
aS'your'
p1935
aS'story'
p1936
aaa(lp1937
g1914
a(lp1938
S'that'
p1939
aS'youve'
p1940
aS'told'
p1941
aS'Mister'
p1942
aS'Roberts'
p1943
aaa(lp1944
S'MITCHELLThats'
p1945
a(lp1946
S'correct'
p1947
aaa(lp1948
g1945
a(lp1949
S'Thats'
p1950
aS'correct'
p1951
aaa(lp1952
S'JUDGEP'
p1953
a(lp1954
S'Okay'
p1955
ag96
aaa(lp1956
g1953
a(lp1957
S'So'
p1958
aS'really'
p1959
aS'the'
p1960
aS'dispute'
p1961
aS'then'
p1962
aS'boils'
p1963
aS'down'
p1964
aS'to'
p1965
aS'this'
p1966
aS'twentysix'
p1967
aS'percent'
p1968
aaa(lp1969
S'MITCHELL'
p1970
a(lp1971
S'Thats'
p1972
aS'it'
p1973
aS'sir'
p1974
aaa(lp1975
S'JUDGE'
p1976
a(lp1977
S'Okay'
p1978
aaa(lp1979
S'MITCHELL'
p1980
a(lp1981
S'Thats'
p1982
aS'the'
p1983
aS'reason'
p1984
aS'why'
p1985
ag242
aS'had'
p1986
aS'him'
p1987
aS'fill'
p1988
aS'out'
p1989
aS'that'
p1990
aS'portion'
p1991
aS'of'
p1992
aaa(lp1993
g1980
a(lp1994
S'or'
p1995
aS'he'
p1996
aS'wanted'
p1997
aS'to'
p1998
aS'write'
p1999
aS'those'
p2000
aS'checks'
p2001
aaa(lp2002
g1980
a(lp2003
S'Was'
p2004
aS'so'
p2005
ag242
aS'would'
p2006
aS'save'
p2007
aS'that'
p2008
aS'money'
p2009
aaa(lp2010
g1980
a(lp2011
S'so'
p2012
ag242
aS'would'
p2013
aS'do'
p2014
aS'that'
p2015
aS'job'
p2016
aaa(lp2017
S'JUDGE'
p2018
a(lp2019
S'Okay'
p2020
aaa(lp2021
S'MITCHELLAt'
p2022
a(lp2023
S'the'
p2024
aS'end'
p2025
aS'of'
p2026
aS'the'
p2027
aS'job'
p2028
aaa(lp2029
S'JUDGE'
p2030
a(lp2031
S'Mister'
p2032
aS'Collins'
p2033
ag242
aS'know'
p2034
aS'youre'
p2035
aaa(lp2036
g2030
a(lp2037
S'biting'
p2038
aS'at'
p2039
aS'the'
p2040
aS'bit'
p2041
aS'there'
p2042
aaa(lp2043
g2030
a(lp2044
S'you'
p2045
aS'wanna'
p2046
aS'say'
p2047
aS'something'
p2048
aaa(lp2049
g2030
a(lp2050
S'so'
p2051
aS'why'
p2052
aS'dont'
p2053
aS'you'
p2054
aS'go'
p2055
aS'ahead'
p2056
aaa(lp2057
S'MATTHEW'
p2058
a(lp2059
S'Okay'
p2060
aS'thank'
p2061
aS'you'
p2062
aS'your'
p2063
aS'honor'
p2064
aaa(lp2065
g2058
a(lp2066
S'Um'
p2067
aaa(lp2068
g2058
a(lp2069
S'uh'
p2070
aS'pretty'
p2071
aS'much'
p2072
aaa(lp2073
g2058
a(lp2074
S'um'
p2075
aaa(lp2076
g2058
a(lp2077
S'what'
p2078
aS'Mitchell'
p2079
aS'has'
p2080
aS'stated'
p2081
aS'is'
p2082
aS'untrue'
p2083
aaa(lp2084
g2058
a(lp2085
S'Mitchell'
p2086
aaa(lp2087
g2058
a(lp2088
S'uh'
p2089
aS'did'
p2090
aS'do'
p2091
aS'some'
p2092
aS'work'
p2093
aS'for'
p2094
aS'me'
p2095
aS'out'
p2096
aS'at'
p2097
aS'the'
p2098
aS'college'
p2099
aaa(lp2100
g2058
a(lp2101
S'we'
p2102
aS'did'
p2103
aS'the'
p2104
aS'Anacapa'
p2105
aS'Residential'
p2106
aS'Hall'
p2107
aaa(lp2108
g2058
a(lp2109
S'And'
p2110
aS'this'
p2111
aS'is'
p2112
ag103
aaa(lp2113
g2058
a(lp2114
S'eightthousandyard'
p2115
aS'job'
p2116
aaa(lp2117
g2058
a(lp2118
S'that'
p2119
aS'we'
p2120
aS'did'
p2121
aS'this'
p2122
aS'summer'
p2123
aaa(lp2124
g2058
a(lp2125
S'It'
p2126
aS'required'
p2127
aS'us'
p2128
aS'to'
p2129
aaa(lp2130
g2058
a(lp2131
S'employ'
p2132
aaa(lp2133
g2058
a(lp2134
S'oh'
p2135
aS'five'
p2136
aS'or'
p2137
aS'six'
p2138
aS'crews'
p2139
aaa(lp2140
g2058
a(lp2141
S'uh'
p2142
aS'Mitchell'
p2143
aS'Roberts'
p2144
aS'was'
p2145
aS'one'
p2146
aS'of'
p2147
aS'them'
p2148
aS'that'
p2149
aS'we'
p2150
aS'used'
p2151
aaa(lp2152
g2058
a(lp2153
S'on'
p2154
aS'the'
p2155
aS'job'
p2156
aaa(lp2157
g2058
a(lp2158
S'Uh'
p2159
aS'Mitchell'
p2160
aS'expressed'
p2161
ag103
aS'desire'
p2162
aS'to'
p2163
aS'do'
p2164
aS'the'
p2165
aS'work'
p2166
aS'out'
p2167
aS'there'
p2168
aaa(lp2169
g2058
a(lp2170
S'he'
p2171
aS'expressed'
p2172
aaa(lp2173
g2058
a(lp2174
S'he'
p2175
aS'did'
p2176
aS'not'
p2177
aS'know'
p2178
aS'how'
p2179
aS'to'
p2180
aS'handle'
p2181
aS'the'
p2182
aS'payroll'
p2183
aaa(lp2184
g2058
a(lp2185
S'Most'
p2186
aS'of'
p2187
aS'the'
p2188
aS'uh'
p2189
aS'contractors'
p2190
aS'here'
p2191
aS'in'
p2192
aS'town'
p2193
aaa(lp2194
g2058
a(lp2195
S'that'
p2196
aS'are'
p2197
aS'independents'
p2198
aS'like'
p2199
aS'Mitchell'
p2200
aaa(lp2201
g2058
a(lp2202
S'dont'
p2203
aS'know'
p2204
aS'how'
p2205
aS'to'
p2206
aS'do'
p2207
aS'prevailing'
p2208
aS'wage'
p2209
aS'statements'
p2210
aaa(lp2211
S'X'
p2212
a(lp2213
aa(lp2214
S'MATTHEW'
p2215
a(lp2216
S'The'
p2217
aS'college'
p2218
aS'is'
p2219
ag103
aS'statefunded'
p2220
aS'uh'
p2221
aS'uh'
p2222
aS'remodel'
p2223
aaa(lp2224
g2215
a(lp2225
S'and'
p2226
aS'on'
p2227
aS'statefunded'
p2228
aS'remodels'
p2229
aaa(lp2230
g2215
a(lp2231
S'were'
p2232
aS'required'
p2233
aaa(lp2234
g2215
a(lp2235
S'to'
p2236
aS'pay'
p2237
aS'prevailing'
p2238
aS'wages'
p2239
aaa(lp2240
g2215
a(lp2241
S'Uh'
p2242
aS'prevailing'
p2243
aS'wages'
p2244
aaa(lp2245
g2215
a(lp2246
S'that'
p2247
aaa(lp2248
g2215
a(lp2249
S'um'
p2250
aaa(lp2251
g2215
a(lp2252
S'that'
p2253
aS'indicate'
p2254
aS'different'
p2255
aS'levels'
p2256
aS'of'
p2257
aS'agility'
p2258
aaa(lp2259
g2215
a(lp2260
S'of'
p2261
aS'the'
p2262
aS'different'
p2263
aS'men'
p2264
aS'working'
p2265
aaa(lp2266
g2215
a(lp2267
S'And'
p2268
aS'so'
p2269
aaa(lp2270
g2215
a(lp2271
S'uh'
p2272
ag103
aS'lot'
p2273
aS'of'
p2274
aS'the'
p2275
aS'crews'
p2276
aaa(lp2277
g2215
a(lp2278
S'uh'
p2279
aaa(lp2280
g2215
a(lp2281
S'like'
p2282
aS'Mitchell'
p2283
aaa(lp2284
g2215
a(lp2285
S'who'
p2286
aS'have'
p2287
aS'people'
p2288
aS'that'
p2289
aS'work'
p2290
aS'under'
p2291
aS'him'
p2292
aaa(lp2293
g2215
a(lp2294
S'around'
p2295
aS'town'
p2296
aaa(lp2297
g2215
a(lp2298
S'in'
p2299
aS'regular'
p2300
aS'situations'
p2301
aaa(lp2302
g2215
a(lp2303
S'come'
p2304
aS'to'
p2305
aS'the'
p2306
aS'people'
p2307
aS'like'
p2308
aS'me'
p2309
aaa(lp2310
g2215
a(lp2311
S'and'
p2312
aS'ask'
p2313
aS'us'
p2314
aS'to'
p2315
aS'do'
p2316
aS'payroll'
p2317
aS'for'
p2318
aS'them'
p2319
aaa(lp2320
g2215
a(lp2321
S'When'
p2322
aS'we'
p2323
aS'do'
p2324
aS'the'
p2325
aS'payroll'
p2326
aS'for'
p2327
aS'them'
p2328
aaa(lp2329
g2215
a(lp2330
S'we'
p2331
aS'state'
p2332
aS'to'
p2333
aS'them'
p2334
aS'up'
p2335
aS'front'
p2336
aaa(lp2337
g2215
a(lp2338
S'that'
p2339
aS'uh'
p2340
aaa(lp2341
g2215
a(lp2342
S'we'
p2343
aS'will'
p2344
aS'pay'
p2345
aS'the'
p2346
aS'payroll'
p2347
aaa(lp2348
g2215
a(lp2349
S'we'
p2350
aS'will'
p2351
aS'make'
p2352
aS'the'
p2353
aS'deductions'
p2354
aaa(lp2355
g2215
a(lp2356
S'and'
p2357
aS'then'
p2358
aS'the'
p2359
aS'employer'
p2360
aS'contribution'
p2361
aaa(lp2362
g2215
a(lp2363
S'which'
p2364
aS'is'
p2365
aS'approximately'
p2366
aS'twentysix'
p2367
aS'percent'
p2368
aaa(lp2369
g2215
a(lp2370
S'over'
p2371
aS'and'
p2372
aS'above'
p2373
aS'the'
p2374
aS'hourly'
p2375
aS'wage'
p2376
aaa(lp2377
g2215
a(lp2378
S'is'
p2379
aS'also'
p2380
aS'deducted'
p2381
aaa(lp2382
g2215
a(lp2383
S'from'
p2384
aS'the'
p2385
aS'um'
p2386
aS'subcontractors'
p2387
aS'check'
p2388
aaa(lp2389
S'JUDGE'
p2390
a(lp2391
S'Now'
p2392
aS'this'
p2393
aS'uh'
p2394
aS'th'
p2395
aS'twentysix'
p2396
aS'percent'
p2397
aaa(lp2398
g2390
a(lp2399
S'thatd'
p2400
aS'be'
p2401
aS'be'
p2402
aS'social'
p2403
aS'security'
p2404
aaa(lp2405
g2390
a(lp2406
S'and'
p2407
aS'what'
p2408
aS'else'
p2409
aS'would'
p2410
aS'it'
p2411
aS'include'
p2412
aaa(lp2413
S'MATTHEW'
p2414
a(lp2415
S'Um'
p2416
aaa(lp2417
S'JUDGE'
p2418
a(lp2419
S'Sorta'
p2420
aS'like'
p2421
aS'um'
p2422
aaa(lp2423
S'MITCHELL'
p2424
a(lp2425
g53
aS'Thats'
p2426
aS'anything'
p2427
ag53
aS'above'
p2428
aS'that'
p2429
aaa(lp2430
S'MATTHEWWell'
p2431
a(lp2432
S'you'
p2433
aS'have'
p2434
aaa(lp2435
g2431
a(lp2436
S'You'
p2437
aS'have'
p2438
aaa(lp2439
S'X'
p2440
a(lp2441
S'XXX'
p2442
aaa(lp2443
S'MATTHEW'
p2444
a(lp2445
S'you'
p2446
aS'have'
p2447
aS'that'
p2448
aaa(lp2449
g2444
a(lp2450
g242
aS'have'
p2451
ag103
aS'breakdown'
p2452
aS'here'
p2453
aaa(lp2454
g2444
a(lp2455
S'of'
p2456
aS'what'
p2457
aS'we'
p2458
aS'paid'
p2459
aS'Mitchells'
p2460
aS'men'
p2461
aaa(lp2462
S'JUDGEXXXXX'
p2463
a(lp2464
aa(lp2465
S'MATTHEWif'
p2466
a(lp2467
S'youd'
p2468
aS'like'
p2469
aS'to'
p2470
aS'see'
p2471
aS'that'
p2472
aaa(lp2473
S'JUDGE'
p2474
a(lp2475
S'Okay'
p2476
aaa(lp2477
g2474
a(lp2478
g242
aS'mean'
p2479
aaa(lp2480
g2474
a(lp2481
S'do'
p2482
aaa(lp2483
g2474
a(lp2484
S'yeah'
p2485
aaa(lp2486
g2474
a(lp2487
g1934
aS'you'
p2488
aS'got'
p2489
ag103
aS'total'
p2490
aS'of'
p2491
aS'uh'
p2492
aaa(lp2493
g2474
a(lp2494
S'seven'
p2495
aS'point'
p2496
aS'six'
p2497
aS'five'
p2498
aS'percent'
p2499
aS'employer'
p2500
aS'contributions'
p2501
aS'on'
p2502
aS'the'
p2503
aaa(lp2504
S'MATTHEW'
p2505
a(lp2506
S'Um'
p2507
aaa(lp2508
g2505
a(lp2509
S'that'
p2510
aS'explains'
p2511
aS'it'
p2512
aS'pretty'
p2513
aS'well'
p2514
aaa(lp2515
g2505
a(lp2516
S'theres'
p2517
aS'quite'
p2518
ag103
aS'few'
p2519
aS'deductions'
p2520
aaa(lp2521
g2505
a(lp2522
S'of'
p2523
aS'course'
p2524
aaa(lp2525
g2505
a(lp2526
g53
aaa(lp2527
S'JUDGEOh'
p2528
a(lp2529
S'and'
p2530
aS'and'
p2531
aS'the'
p2532
aS'oh'
p2533
aS'the'
p2534
aaa(lp2535
g2528
a(lp2536
S'the'
p2537
aS'f'
p2538
aaa(lp2539
g2528
a(lp2540
S'the'
p2541
aS'annual'
p2542
aS'unemployment'
p2543
aS'insurance'
p2544
aaa(lp2545
g2528
a(lp2546
S'and'
p2547
aS'uh'
p2548
aaa(lp2549
S'MATTHEWRight'
p2550
a(lp2551
aa(lp2552
S'JUDGEOkay'
p2553
a(lp2554
aa(lp2555
S'MATTHEWworkers'
p2556
a(lp2557
S'compensation'
p2558
aaa(lp2559
S'JUDGERight'
p2560
a(lp2561
aa(lp2562
S'MATTHEWFUDA'
p2563
a(lp2564
S'FICA'
p2565
aaa(lp2566
g2563
a(lp2567
S'et'
p2568
aS'cetera'
p2569
aaa(lp2570
g2563
a(lp2571
S'Now'
p2572
aS'thats'
p2573
aaa(lp2574
g2563
a(lp2575
S'um'
p2576
aaa(lp2577
g2563
a(lp2578
S'in'
p2579
aS'any'
p2580
aS'payroll'
p2581
aS'deduction'
p2582
aS'situation'
p2583
aaa(lp2584
g2563
a(lp2585
S'you'
p2586
aS'have'
p2587
aaa(lp2588
g2563
a(lp2589
S'the'
p2590
aS'employee'
p2591
aS'contribution'
p2592
aaa(lp2593
g2563
a(lp2594
S'which'
p2595
aS'is'
p2596
aS'deducted'
p2597
aS'from'
p2598
aS'the'
p2599
aS'employees'
p2600
aS'wages'
p2601
aaa(lp2602
g2563
a(lp2603
S'gross'
p2604
aS'wages'
p2605
aaa(lp2606
g2563
a(lp2607
S'and'
p2608
aS'then'
p2609
aS'you'
p2610
aS'have'
p2611
aS'the'
p2612
aS'employers'
p2613
aS'contribution'
p2614
aaa(lp2615
g2563
a(lp2616
S'which'
p2617
aS'is'
p2618
aS'over'
p2619
aS'and'
p2620
aS'above'
p2621
aS'that'
p2622
aaa(lp2623
S'X'
p2624
a(lp2625
aa(lp2626
S'MATTHEW'
p2627
a(lp2628
S'Which'
p2629
aS'the'
p2630
aS'employer'
p2631
aS'has'
p2632
aS'to'
p2633
aS'pay'
p2634
aaa(lp2635
g2627
a(lp2636
S'Now'
p2637
aS'the'
p2638
aS'agreement'
p2639
aS'that'
p2640
aS'we'
p2641
aS'had'
p2642
aS'made'
p2643
aaa(lp2644
g2627
a(lp2645
S'with'
p2646
aS'all'
p2647
aS'of'
p2648
aS'the'
p2649
aS'um'
p2650
aaa(lp2651
g2627
a(lp2652
S'subcontractors'
p2653
aaa(lp2654
g2627
a(lp2655
S'uh'
p2656
aaa(lp2657
g2627
a(lp2658
S'Mark'
p2659
aS'Prestons'
p2660
aS'sitting'
p2661
aS'here'
p2662
aaa(lp2663
g2627
a(lp2664
S'which'
p2665
aS'is'
p2666
aS'testifying'
p2667
aS'for'
p2668
aS'Mitch'
p2669
aS'Roberts'
p2670
aaa(lp2671
g2627
a(lp2672
S'also'
p2673
aS'did'
p2674
aS'work'
p2675
aS'for'
p2676
aS'me'
p2677
aaa(lp2678
g2627
a(lp2679
S'and'
p2680
aS'he'
p2681
aS'was'
p2682
aS'treated'
p2683
aS'the'
p2684
aS'same'
p2685
aS'way'
p2686
aaa(lp2687
g2627
a(lp2688
S'We'
p2689
aS'paid'
p2690
aS'him'
p2691
aaa(lp2692
g2627
a(lp2693
S'we'
p2694
aS'took'
p2695
aS'his'
p2696
aS'deductions'
p2697
aS'out'
p2698
aaa(lp2699
g2627
a(lp2700
S'as'
p2701
aS'well'
p2702
aS'as'
p2703
aS'that'
p2704
aaa(lp2705
g2627
a(lp2706
S'and'
p2707
aaa(lp2708
g2627
a(lp2709
S'so'
p2710
aS'we'
p2711
aaa(lp2712
g2627
a(lp2713
S'uh'
p2714
aS'did'
p2715
aS'that'
p2716
aaa(lp2717
g2627
a(lp2718
S'with'
p2719
aS'everybody'
p2720
aaa(lp2721
S'JUDGE'
p2722
a(lp2723
S'Okay'
p2724
aS'wai'
p2725
aaa(lp2726
g2722
a(lp2727
g242
aS'wanna'
p2728
aS'make'
p2729
aS'sure'
p2730
aS'now'
p2731
aaa(lp2732
g2722
a(lp2733
S'That'
p2734
aS'would'
p2735
aS'be'
p2736
aS'fine'
p2737
aS'if'
p2738
aS'that'
p2739
aS'was'
p2740
aS'the'
p2741
aS'agreement'
p2742
aaa(lp2743
g2722
a(lp2744
S'Now'
p2745
aS'you'
p2746
aS'say'
p2747
aS'that'
p2748
aS'the'
p2749
aS'w'
p2750
aaa(lp2751
g2722
a(lp2752
S'you'
p2753
aS'under'
p2754
aaa(lp2755
g2722
a(lp2756
S'you'
p2757
aS'explained'
p2758
aS'that'
p2759
aS'to'
p2760
aS'Mister'
p2761
aS'Roberts'
p2762
aaa(lp2763
S'MATTHEW'
p2764
a(lp2765
S'Uh'
p2766
aS'yes'
p2767
aS'sir'
p2768
aaa(lp2769
g2764
a(lp2770
S'Before'
p2771
aS'he'
p2772
aS'went'
p2773
aS'to'
p2774
aS'work'
p2775
aaa(lp2776
S'JUDGE'
p2777
a(lp2778
S'Okay'
p2779
aaa(lp2780
g2777
a(lp2781
S'Mister'
p2782
aS'Roberts'
p2783
aaa(lp2784
g2777
a(lp2785
S'did'
p2786
aS'you'
p2787
aS'have'
p2788
aS'any'
p2789
aS'conversations'
p2790
aaa(lp2791
S'MITCHELL'
p2792
a(lp2793
S'Absolutely'
p2794
aS'not'
p2795
aaa(lp2796
S'JUDGEwith'
p2797
a(lp2798
S'Matthew'
p2799
aS'Collins'
p2800
aS'about'
p2801
aS'that'
p2802
aaa(lp2803
S'MITCHELL'
p2804
a(lp2805
S'The'
p2806
aS'reason'
p2807
aaa(lp2808
g2804
a(lp2809
S'and'
p2810
ag242
aS'stress'
p2811
aS'this'
p2812
aaa(lp2813
g2804
a(lp2814
S'And'
p2815
ag242
aS'dont'
p2816
aS'like'
p2817
aS'to'
p2818
aS'waste'
p2819
aS'the'
p2820
aS'courts'
p2821
aS'time'
p2822
aaa(lp2823
g2804
a(lp2824
S'But'
p2825
aaa(lp2826
g2804
a(lp2827
S'my'
p2828
aS'total'
p2829
aaa(lp2830
g2804
a(lp2831
g242
aS'agree'
p2832
aaa(lp2833
g2804
a(lp2834
g53
aS'If'
p2835
ag53
aS'whatever'
p2836
aS'he'
p2837
aS'just'
p2838
aS'said'
p2839
aS'right'
p2840
aS'there'
p2841
aS'was'
p2842
aS'true'
p2843
aaa(lp2844
g2804
a(lp2845
S'with'
p2846
aS'withholding'
p2847
aS'and'
p2848
aS'everything'
p2849
aaa(lp2850
S'JUDGERight'
p2851
a(lp2852
S'Im'
p2853
aaa(lp2854
S'MITCHELL'
p2855
a(lp2856
S'That'
p2857
aS'was'
p2858
aS'fine'
p2859
aaa(lp2860
S'JUDGE'
p2861
a(lp2862
S'It'
p2863
aS'really'
p2864
aS'boils'
p2865
aS'down'
p2866
aaa(lp2867
S'MITCHELLBut'
p2868
a(lp2869
aa(lp2870
S'JUDGEwhat'
p2871
a(lp2872
S'what'
p2873
aS'was'
p2874
aS'the'
p2875
aS'discussion'
p2876
aS'the'
p2877
aS'agreement'
p2878
aS'regarding'
p2879
aS'this'
p2880
aaa(lp2881
S'MITCHELL'
p2882
a(lp2883
S'The'
p2884
aS'discussion'
p2885
aaa(lp2886
S'JUDGEX'
p2887
a(lp2888
aa(lp2889
S'MITCHELLThe'
p2890
a(lp2891
S'agreement'
p2892
aS'would'
p2893
aS'be'
p2894
aaa(lp2895
g2890
a(lp2896
S'that'
p2897
aS'he'
p2898
aS'would'
p2899
aS'pay'
p2900
aS'everything'
p2901
aaa(lp2902
g2890
a(lp2903
S'So'
p2904
aS'that'
p2905
ag242
aS'wouldnt'
p2906
aaa(lp2907
S'JUDGEDid'
p2908
a(lp2909
S'he'
p2910
aS'say'
p2911
aS'everything'
p2912
aaa(lp2913
S'MITCHELLY'
p2914
a(lp2915
S'everything'
p2916
aaa(lp2917
g2914
a(lp2918
S'So'
p2919
aS'that'
p2920
ag242
aS'wouldnt'
p2921
aS'end'
p2922
aS'up'
p2923
aS'making'
p2924
aaa(lp2925
g2914
a(lp2926
S'after'
p2927
aS'fifty'
p2928
aS'hou'
p2929
aS'fifty'
p2930
aS'hours'
p2931
aS'work'
p2932
aaa(lp2933
g2914
a(lp2934
S'which'
p2935
ag242
aS'knew'
p2936
ag242
aS'was'
p2937
aS'gonna'
p2938
aS'make'
p2939
aaa(lp2940
g2914
a(lp2941
S'when'
p2942
ag242
aS'had'
p2943
aS'to'
p2944
ag53
aS'play'
p2945
ag53
aS'my'
p2946
aS'em'
p2947
aS'part'
p2948
aS'of'
p2949
aS'an'
p2950
aS'employer'
p2951
aS'contribution'
p2952
aaa(lp2953
g2914
a(lp2954
g242
aS'have'
p2955
aS'my'
p2956
aS'own'
p2957
aS'payroll'
p2958
aS'service'
p2959
aaa(lp2960
g2914
a(lp2961
S'They'
p2962
aS'do'
p2963
aS'all'
p2964
aS'that'
p2965
aS'for'
p2966
aS'me'
p2967
aaa(lp2968
g2914
a(lp2969
S'and'
p2970
aS'theyre'
p2971
aS'very'
p2972
aS'familiar'
p2973
aS'with'
p2974
aS'all'
p2975
aS'types'
p2976
aS'of'
p2977
aS'pay'
p2978
aaa(lp2979
g2914
a(lp2980
S'This'
p2981
aS'is'
p2982
aS'why'
p2983
ag242
aS'didnt'
p2984
aS'wanna'
p2985
aS'take'
p2986
aS'the'
p2987
aS'job'
p2988
aS'to'
p2989
aS'begin'
p2990
aS'with'
p2991
aaa(lp2992
S'JUDGE'
p2993
a(lp2994
S'Uh'
p2995
ag242
aS'can'
p2996
aS'u'
p2997
aaa(lp2998
S'MITCHELLHe'
p2999
a(lp3000
S'in'
p3001
aS'turn'
p3002
aaa(lp3003
S'JUDGEI'
p3004
a(lp3005
S'can'
p3006
aS'appreciate'
p3007
aS'that'
p3008
aaa(lp3009
g3004
a(lp3010
S'now'
p3011
aaa(lp3012
S'MITCHELLOkay'
p3013
a(lp3014
aa(lp3015
S'JUDGE'
p3016
a(lp3017
S'Mister'
p3018
aS'Collins'
p3019
aS'says'
p3020
aaa(lp3021
g3016
a(lp3022
S'he'
p3023
aS'denies'
p3024
aS'that'
p3025
aS'you'
p3026
aS'said'
p3027
aaa(lp3028
g3016
a(lp3029
S'everything'
p3030
aaa(lp3031
g3016
a(lp3032
S'Right'
p3033
aaa(lp3034
g3016
a(lp3035
g53
aS'He'
p3036
aS'just'
p3037
ag53
aaa(lp3038
S'MITCHELLI'
p3039
a(lp3040
S'wouldntve'
p3041
aaa(lp3042
g3039
a(lp3043
g242
aS'wouldntve'
p3044
aS'done'
p3045
aS'it'
p3046
aaa(lp3047
S'MATTHEWWell'
p3048
a(lp3049
aa(lp3050
S'JUDGE'
p3051
a(lp3052
S'You'
p3053
aS'have'
p3054
ag103
aS'different'
p3055
aS'story'
p3056
aaa(lp3057
g3051
a(lp3058
S'on'
p3059
aS'what'
p3060
aS'the'
p3061
aS'agreement'
p3062
aS'was'
p3063
aaa(lp3064
S'MATTHEW'
p3065
a(lp3066
S'Right'
p3067
aaa(lp3068
g3065
a(lp3069
S'Um'
p3070
aaa(lp3071
g3065
a(lp3072
S'uh'
p3073
aS'Karen'
p3074
aS'here'
p3075
aaa(lp3076
g3065
a(lp3077
S'uh'
p3078
aaa(lp3079
g3065
a(lp3080
S'does'
p3081
aS'all'
p3082
aS'the'
p3083
aS'payroll'
p3084
aaa(lp3085
g3065
a(lp3086
S'and'
p3087
aS'uh'
p3088
aaa(lp3089
g3065
a(lp3090
S'shes'
p3091
aS'here'
p3092
aS'to'
p3093
aS'testify'
p3094
aS'about'
p3095
ag103
aS'conversation'
p3096
aaa(lp3097
g3065
a(lp3098
S'that'
p3099
aS'her'
p3100
aS'and'
p3101
aS'Mitchell'
p3102
aS'had'
p3103
aaa(lp3104
g3065
a(lp3105
S'in'
p3106
aS'our'
p3107
aS'office'
p3108
aaa(lp3109
g3065
a(lp3110
S'about'
p3111
aS'this'
p3112
aS'very'
p3113
aS'thing'
p3114
aaa(lp3115
g3065
a(lp3116
S'and'
p3117
aS'Id'
p3118
aS'like'
p3119
aS'to'
p3120
aaa(lp3121
S'JUDGEBefore'
p3122
a(lp3123
S'or'
p3124
aS'after'
p3125
aS'the'
p3126
aS'agreement'
p3127
aS'was'
p3128
aS'entered'
p3129
aS'into'
p3130
aaa(lp3131
S'MATTHEW'
p3132
a(lp3133
S'After'
p3134
aS'the'
p3135
aS'agreement'
p3136
aS'was'
p3137
aS'entered'
p3138
aS'into'
p3139
aaa(lp3140
g3132
a(lp3141
S'he'
p3142
aS'had'
p3143
aS'been'
p3144
aS'on'
p3145
aS'the'
p3146
aS'job'
p3147
aS'for'
p3148
aS'about'
p3149
ag103
aS'week'
p3150
aS'or'
p3151
aS'so'
p3152
aaa(lp3153
g3132
a(lp3154
S'and'
p3155
aaa(lp3156
g3132
a(lp3157
S'it'
p3158
aS'was'
p3159
aS'time'
p3160
aaa(lp3161
g3132
a(lp3162
g242
aS'believe'
p3163
aS'for'
p3164
aS'the'
p3165
aaa(lp3166
g3132
a(lp3167
S'first'
p3168
aS'or'
p3169
aS'second'
p3170
aS'pay'
p3171
aS'period'
p3172
aS'for'
p3173
aS'his'
p3174
aS'men'
p3175
aaa(lp3176
g3132
a(lp3177
S'Uh'
p3178
aS'he'
p3179
aS'came'
p3180
aS'into'
p3181
aS'the'
p3182
aS'office'
p3183
aaa(lp3184
g3132
a(lp3185
S'and'
p3186
aS'had'
p3187
ag103
aS'conversation'
p3188
aS'with'
p3189
aS'Karen'
p3190
aaa(lp3191
g3132
a(lp3192
S'about'
p3193
aaa(lp3194
g3132
a(lp3195
g297
aS'the'
p3196
aS'payroll'
p3197
aaa(lp3198
g3132
a(lp3199
S'and'
p3200
aS'B'
p3201
aS'this'
p3202
aS'twentysix'
p3203
aS'percent'
p3204
aS'that'
p3205
aS'were'
p3206
aS'talking'
p3207
aS'about'
p3208
aaa(lp3209
g3132
a(lp3210
S'And'
p3211
aS'shed'
p3212
aS'be'
p3213
aS'happy'
p3214
aS'to'
p3215
aS'tell'
p3216
aS'you'
p3217
aaa(lp3218
S'JUDGEOkay'
p3219
a(lp3220
S'maam'
p3221
aaa(lp3222
g3219
a(lp3223
S'why'
p3224
aS'dont'
p3225
aS'you'
p3226
aS'please'
p3227
aaa(lp3228
g3219
a(lp3229
S'explain'
p3230
aS'the'
p3231
aS'conversation'
p3232
aS'you'
p3233
aS'had'
p3234
aS'with'
p3235
aS'Mister'
p3236
aS'Roberts'
p3237
aaa(lp3238
S'KAREN'
p3239
a(lp3240
S'Okay'
p3241
aaa(lp3242
g3239
a(lp3243
S'Um'
p3244
aaa(lp3245
g3239
a(lp3246
S'he'
p3247
aS'was'
p3248
aaa(lp3249
g3239
a(lp3250
S'we'
p3251
aS'were'
p3252
aS'going'
p3253
aS'over'
p3254
aS'the'
p3255
aS'wages'
p3256
aS'for'
p3257
aS'Phil'
p3258
aS'Nigel'
p3259
aaa(lp3260
g3239
a(lp3261
S'who'
p3262
aS'was'
p3263
aS'one'
p3264
aS'of'
p3265
aS'the'
p3266
aS'gentlemen'
p3267
aS'on'
p3268
aS'there'
p3269
aaa(lp3270
g3239
a(lp3271
S'as'
p3272
aS'to'
p3273
aS'how'
p3274
aS'much'
p3275
aS'Phil'
p3276
aS'was'
p3277
aS'to'
p3278
aS'get'
p3279
aaa(lp3280
g3239
a(lp3281
S'for'
p3282
aS'the'
p3283
aS'job'
p3284
aaa(lp3285
g3239
a(lp3286
S'On'
p3287
aS'an'
p3288
aS'hourly'
p3289
aS'basis'
p3290
aaa(lp3291
g3239
a(lp3292
S'And'
p3293
aaa(lp3294
g3239
a(lp3295
S'he'
p3296
aS'had'
p3297
aS'mentioned'
p3298
aS'to'
p3299
aS'me'
p3300
aaa(lp3301
g3239
a(lp3302
S'that'
p3303
aS'he'
p3304
aS'was'
p3305
aS'wanting'
p3306
aS'him'
p3307
aS'to'
p3308
aS'get'
p3309
aS'ex'
p3310
aS'amount'
p3311
aaa(lp3312
g3239
a(lp3313
S'and'
p3314
ag242
aS'said'
p3315
aS'okay'
p3316
aaa(lp3317
g3239
a(lp3318
S'if'
p3319
aS'its'
p3320
aS'ex'
p3321
aS'amount'
p3322
aS'to'
p3323
aS'Phil'
p3324
aaa(lp3325
g3239
a(lp3326
S'then'
p3327
aaa(lp3328
g3239
a(lp3329
S'plus'
p3330
aS'twentysix'
p3331
aS'percent'
p3332
aS'means'
p3333
aaa(lp3334
g3239
a(lp3335
g242
aS'take'
p3336
aS'out'
p3337
aS'this'
p3338
aS'amount'
p3339
aaa(lp3340
g3239
a(lp3341
S'from'
p3342
aS'your'
p3343
aS'check'
p3344
aaa(lp3345
g3239
a(lp3346
S'And'
p3347
aS'he'
p3348
aS'goes'
p3349
aS'oh'
p3350
aaa(lp3351
g3239
a(lp3352
S'Well'
p3353
aS'then'
p3354
aS'no'
p3355
aaa(lp3356
g3239
a(lp3357
g242
aS'dont'
p3358
aS'wanna'
p3359
aS'have'
p3360
aS'the'
p3361
aaa(lp3362
g3239
a(lp3363
S'you'
p3364
aS'know'
p3365
aaa(lp3366
g3239
a(lp3367
S'take'
p3368
aS'out'
p3369
aS'that'
p3370
aS'much'
p3371
aaa(lp3372
g3239
a(lp3373
S'So'
p3374
aS'we'
p3375
aS'were'
p3376
aS'going'
p3377
aS'back'
p3378
aS'and'
p3379
aS'forth'
p3380
aS'with'
p3381
aS'the'
p3382
aS'figures'
p3383
aaa(lp3384
g3239
a(lp3385
S'and'
p3386
aS'so'
p3387
aS'finally'
p3388
aaa(lp3389
g3239
a(lp3390
S'this'
p3391
aS'is'
p3392
aS'the'
p3393
aaa(lp3394
g3239
a(lp3395
S'uh'
p3396
aaa(lp3397
g3239
a(lp3398
S'wage'
p3399
aS'that'
p3400
aS'we'
p3401
aS'came'
p3402
aS'up'
p3403
aS'with'
p3404
aaa(lp3405
g3239
a(lp3406
S'which'
p3407
aS'was'
p3408
aS'thirteen'
p3409
aS'fifty'
p3410
aS'to'
p3411
aS'Phil'
p3412
aaa(lp3413
S'X'
p3414
a(lp3415
aa(lp3416
S'KAREN'
p3417
a(lp3418
S'And'
p3419
aS'then'
p3420
aS'have'
p3421
aS'seventeen'
p3422
aS'dollars'
p3423
aS'an'
p3424
aS'hour'
p3425
aaa(lp3426
g3417
a(lp3427
S'taken'
p3428
aS'out'
p3429
aS'of'
p3430
aS'Mitch'
p3431
ag488
aS'check'
p3432
aaa(lp3433
g3417
a(lp3434
S'Mitch'
p3435
aS'Roberts'
p3436
aS'check'
p3437
aaa(lp3438
g3417
a(lp3439
S'And'
p3440
aS'this'
p3441
aS'is'
p3442
aS'the'
p3443
aS'note'
p3444
aS'that'
p3445
aS'Id'
p3446
aS'written'
p3447
aS'down'
p3448
aS'on'
p3449
aS'that'
p3450
aaa(lp3451
g3417
a(lp3452
S'And'
p3453
aS'then'
p3454
aaa(lp3455
g3417
a(lp3456
S'you'
p3457
aS'can'
p3458
aS'see'
p3459
aS'that'
p3460
aS'thirteen'
p3461
aS'fifty'
p3462
aS'plus'
p3463
aS'twentysix'
p3464
aS'percent'
p3465
aaa(lp3466
g3417
a(lp3467
S'which'
p3468
aS'is'
p3469
aS'three'
p3470
aS'fiftyone'
p3471
aaa(lp3472
g3417
a(lp3473
S'would'
p3474
aS'actually'
p3475
aS'equal'
p3476
aS'to'
p3477
aS'seventeen'
p3478
ag764
aS'one'
p3479
aaa(lp3480
g3417
a(lp3481
S'and'
p3482
ag242
aS'said'
p3483
aaa(lp3484
S'MATTHEWWhy'
p3485
a(lp3486
S'dont'
p3487
aS'you'
p3488
aS'show'
p3489
aS'him'
p3490
aS'the'
p3491
aS'note'
p3492
aaa(lp3493
S'KAREN'
p3494
a(lp3495
S'You'
p3496
aS'know'
p3497
aaa(lp3498
g3494
a(lp3499
S'just'
p3500
aS'the'
p3501
aS'seventeen'
p3502
aS'was'
p3503
aS'fine'
p3504
aaa(lp3505
S'JUDGEX'
p3506
a(lp3507
S'Oh'
p3508
aS'this'
p3509
ag53
aaa(lp3510
g3506
a(lp3511
S'So'
p3512
aaa(lp3513
g3506
a(lp3514
S'd'
p3515
aS'did'
p3516
aS'you'
p3517
aS'have'
p3518
aS'that'
p3519
aS'conversation'
p3520
aaa(lp3521
S'MITCHELLI'
p3522
a(lp3523
S'dont'
p3524
aaa(lp3525
g3522
a(lp3526
g242
aS'had'
p3527
aS'that'
p3528
aS'perfect'
p3529
aS'conversation'
p3530
aS'with'
p3531
aS'her'
p3532
aaa(lp3533
g3522
a(lp3534
S'And'
p3535
aS'thats'
p3536
aS'very'
p3537
aS'true'
p3538
aaa(lp3539
g3522
a(lp3540
S'exactly'
p3541
aS'what'
p3542
aS'you'
p3543
aS'said'
p3544
aaa(lp3545
g3522
a(lp3546
S'But'
p3547
aS'she'
p3548
aS'never'
p3549
aS'told'
p3550
aS'me'
p3551
aS'anything'
p3552
aS'about'
p3553
aaa(lp3554
g3522
a(lp3555
S'this'
p3556
aS'twentysix'
p3557
aS'percent'
p3558
aaa(lp3559
g3522
a(lp3560
S'that'
p3561
aS'was'
p3562
aS'coming'
p3563
ag103
aS'come'
p3564
aS'out'
p3565
aS'of'
p3566
aS'my'
p3567
aS'check'
p3568
aaa(lp3569
g3522
a(lp3570
S'Why'
p3571
aaa(lp3572
g3522
a(lp3573
S'Its'
p3574
aaa(lp3575
S'X'
p3576
a(lp3577
S'go'
p3578
aS'ahead'
p3579
aaa(lp3580
S'MARK'
p3581
a(lp3582
g242
aS'was'
p3583
aS'offered'
p3584
aaa(lp3585
g3581
a(lp3586
S'Matthew'
p3587
aS'offered'
p3588
aS'me'
p3589
aaa(lp3590
g3581
a(lp3591
S'Im'
p3592
aS'Mark'
p3593
aS'Preston'
p3594
aaa(lp3595
g3581
a(lp3596
S'Im'
p3597
ag103
aS'licensed'
p3598
aS'contractor'
p3599
aS'also'
p3600
aaa(lp3601
g3581
a(lp3602
S'and'
p3603
aS'Matthew'
p3604
aS'offered'
p3605
aS'me'
p3606
aS'the'
p3607
aS'same'
p3608
aS'situation'
p3609
aaa(lp3610
g3581
a(lp3611
S'And'
p3612
aS'it'
p3613
aS'was'
p3614
aS'my'
p3615
aS'understanding'
p3616
aaa(lp3617
g3581
a(lp3618
S'that'
p3619
aS'he'
p3620
aS'was'
p3621
aS'to'
p3622
aS'pay'
p3623
aS'everything'
p3624
aaa(lp3625
g3581
a(lp3626
S'Supply'
p3627
aS'the'
p3628
aS'glue'
p3629
aaa(lp3630
g3581
a(lp3631
S'supply'
p3632
aaa(lp3633
g3581
a(lp3634
S'and'
p3635
aS'take'
p3636
aS'care'
p3637
aS'of'
p3638
aS'my'
p3639
aS'guys'
p3640
aaa(lp3641
g3581
a(lp3642
S'and'
p3643
aS'make'
p3644
aS'the'
p3645
aS'payroll'
p3646
aaa(lp3647
g3581
a(lp3648
S'and'
p3649
aS'pay'
p3650
aS'all'
p3651
aS'of'
p3652
aS'the'
p3653
aS'employers'
p3654
aS'stuff'
p3655
aaa(lp3656
g3581
a(lp3657
S'If'
p3658
aS'youre'
p3659
aS'an'
p3660
aS'employer'
p3661
aaa(lp3662
g3581
a(lp3663
S'you'
p3664
aS'gotta'
p3665
aS'pay'
p3666
aS'the'
p3667
aS'stuff'
p3668
aaa(lp3669
g3581
a(lp3670
S'You'
p3671
aS'gotta'
p3672
aS'pay'
p3673
aS'all'
p3674
aS'the'
p3675
aS'extra'
p3676
aS'things'
p3677
aaa(lp3678
S'JUDGEBut'
p3679
a(lp3680
aa(lp3681
g3679
a(lp3682
S'you'
p3683
aS'dont'
p3684
aS'have'
p3685
aS'any'
p3686
aaa(lp3687
g3679
a(lp3688
g1934
aS'you'
p3689
aS'cant'
p3690
aS'testify'
p3691
aaa(lp3692
S'X'
p3693
a(lp3694
aa(lp3695
S'JUDGEunless'
p3696
a(lp3697
S'Im'
p3698
aS'wrong'
p3699
aaa(lp3700
g3696
a(lp3701
S'about'
p3702
aS'the'
p3703
aS'conversation'
p3704
aS'those'
p3705
aS'two'
p3706
aS'had'
p3707
aaa(lp3708
g3696
a(lp3709
S'You'
p3710
aS'werent'
p3711
aS'there'
p3712
aaa(lp3713
g3696
a(lp3714
S'Is'
p3715
aS'that'
p3716
aS'correct'
p3717
aaa(lp3718
S'MARKI'
p3719
a(lp3720
S'know'
p3721
aS'for'
p3722
ag103
aS'fact'
p3723
aS'that'
p3724
aaa(lp3725
g3719
a(lp3726
S'Mitch'
p3727
aS'was'
p3728
aS'mak'
p3729
aaa(lp3730
S'MATTHEWHe'
p3731
a(lp3732
S'was'
p3733
aS'not'
p3734
aS'there'
p3735
aaa(lp3736
S'MARKM'
p3737
a(lp3738
S'and'
p3739
aaa(lp3740
g3737
a(lp3741
S'he'
p3742
aS'just'
p3743
aS'mentioned'
p3744
aS'that'
p3745
aS'he'
p3746
aaa(lp3747
g3737
a(lp3748
S'Matthew'
p3749
aS'just'
p3750
aS'mentioned'
p3751
aS'that'
p3752
aS'he'
p3753
aS'deducted'
p3754
aS'the'
p3755
aS'same'
p3756
aS'out'
p3757
aS'of'
p3758
aS'my'
p3759
aS'check'
p3760
aaa(lp3761
g3737
a(lp3762
S'MRC'
p3763
aS'He'
p3764
aS'did'
p3765
aS'not'
p3766
aS'MRC'
p3767
aaa(lp3768
g3737
a(lp3769
g242
aS'worked'
p3770
aS'strictly'
p3771
aS'by'
p3772
aS'the'
p3773
aS'yard'
p3774
aaa(lp3775
g3737
a(lp3776
S'and'
p3777
ag242
aS'paid'
p3778
aS'my'
p3779
aS'people'
p3780
aaa(lp3781
g3737
a(lp3782
S'Prevailing'
p3783
aS'wages'
p3784
aaa(lp3785
S'JUDGEWell'
p3786
a(lp3787
S'any'
p3788
aS'agreement'
p3789
aS'he'
p3790
aS'had'
p3791
aS'with'
p3792
aS'you'
p3793
aS'is'
p3794
aS'not'
p3795
aS'relevant'
p3796
aS'to'
p3797
aS'the'
p3798
aS'agreement'
p3799
aS'he'
p3800
aS'had'
p3801
aS'with'
p3802
aS'Mister'
p3803
aS'Roberts'
p3804
aaa(lp3805
S'MARKWell'
p3806
a(lp3807
aa(lp3808
g3806
a(lp3809
g242
aS'saw'
p3810
aS'the'
p3811
aS'peoples'
p3812
aS'checks'
p3813
aaa(lp3814
g3806
a(lp3815
S'and'
p3816
aaa(lp3817
g3806
a(lp3818
S'Im'
p3819
aS'just'
p3820
aS'drawing'
p3821
ag103
aS'pi'
p3822
aaa(lp3823
g3806
a(lp3824
S'verify'
p3825
aS'what'
p3826
aS'Mitch'
p3827
aS'said'
p3828
aaa(lp3829
g3806
a(lp3830
S'H'
p3831
aS'Ma'
p3832
aS'Mister'
p3833
aS'Collins'
p3834
aS'was'
p3835
aS'supposed'
p3836
aS'to'
p3837
aS'pay'
p3838
aS'everything'
p3839
aaa(lp3840
S'MITCHELL'
p3841
a(lp3842
S'He'
p3843
aS'approached'
p3844
aS'him'
p3845
aS'with'
p3846
aS'the'
p3847
aS'same'
p3848
aaa(lp3849
S'MARKFir'
p3850
a(lp3851
g2538
ag2538
aaa(lp3852
g3850
a(lp3853
S'with'
p3854
aS'the'
p3855
aS'exact'
p3856
aS'same'
p3857
aS'thing'
p3858
aaa(lp3859
g3850
a(lp3860
S'And'
p3861
aS'he'
p3862
ag3515
aaa(lp3863
g3850
a(lp3864
S'Jerry'
p3865
aS'Stillman'
p3866
aS'he'
p3867
aS'did'
p3868
aS'the'
p3869
aS'same'
p3870
aS'thing'
p3871
aaa(lp3872
g3850
a(lp3873
S'he'
p3874
aS'did'
p3875
aS'the'
p3876
aS'same'
p3877
aS'thing'
p3878
aS'with'
p3879
aS'Marco'
p3880
aS'Villaremo'
p3881
aaa(lp3882
g3850
a(lp3883
S'Whore'
p3884
aS'all'
p3885
aS'licensed'
p3886
aS'contractors'
p3887
aaa(lp3888
S'JUDGE'
p3889
a(lp3890
S'But'
p3891
ag242
aS'still'
p3892
aaa(lp3893
g3889
a(lp3894
g242
aS'still'
p3895
aS'dont'
p3896
aS'know'
p3897
aaa(lp3898
S'MARK'
p3899
a(lp3900
aa(lp3901
S'JUDGEthat'
p3902
a(lp3903
S'may'
p3904
aS'have'
p3905
aS'been'
p3906
aS'on'
p3907
aS'other'
p3908
aS'cases'
p3909
aaa(lp3910
g3902
a(lp3911
S'the'
p3912
aS'question'
p3913
aS'is'
p3914
aaa(lp3915
g3902
a(lp3916
S'did'
p3917
aS'he'
p3918
aS'do'
p3919
aS'it'
p3920
aS'in'
p3921
aS'this'
p3922
aS'case'
p3923
aaa(lp3924
S'MITCHELL'
p3925
a(lp3926
S'He'
p3927
aaa(lp3928
g3925
a(lp3929
S'it'
p3930
aS'would'
p3931
aS'be'
p3932
aaa(lp3933
g3925
a(lp3934
S'if'
p3935
ag53
aS'it'
p3936
aS'may'
p3937
aS'please'
p3938
aS'you'
p3939
ag53
aaa(lp3940
g3925
a(lp3941
S'uh'
p3942
aaa(lp3943
g3925
a(lp3944
S'the'
p3945
aS'whole'
p3946
aS'reason'
p3947
aS'why'
p3948
aS'Im'
p3949
aS'here'
p3950
aaa(lp3951
g3925
a(lp3952
S'Is'
p3953
aS'because'
p3954
aS'he'
p3955
aS'took'
p3956
aS'that'
p3957
aS'twentysix'
p3958
aS'percent'
p3959
aS'out'
p3960
aaa(lp3961
g3925
a(lp3962
S'that'
p3963
aS'he'
p3964
aS'told'
p3965
aS'me'
p3966
aS'he'
p3967
aS'wasnt'
p3968
aS'gonna'
p3969
aS'take'
p3970
aaa(lp3971
g3925
a(lp3972
S'he'
p3973
aS'used'
p3974
aS'it'
p3975
aS'as'
p3976
aaa(lp3977
g3925
a(lp3978
S'more'
p3979
aS'or'
p3980
aS'less'
p3981
aS'bait'
p3982
aS'me'
p3983
aS'to'
p3984
aS'do'
p3985
aS'the'
p3986
aS'job'
p3987
aaa(lp3988
g3925
a(lp3989
S'and'
p3990
aS'went'
p3991
aS'ahead'
p3992
aS'and'
p3993
aS'withheld'
p3994
aS'it'
p3995
aS'from'
p3996
aS'me'
p3997
aaa(lp3998
g3925
a(lp3999
S'Without'
p4000
aS'saying'
p4001
ag103
aS'word'
p4002
aS'to'
p4003
aS'it'
p4004
aaa(lp4005
g3925
a(lp4006
g242
aS'had'
p4007
aS'nothing'
p4008
aaa(lp4009
g3925
a(lp4010
g242
aS'was'
p4011
aS'expecting'
p4012
aS'to'
p4013
aS'make'
p4014
aS'about'
p4015
ag103
aS'thousand'
p4016
aS'dollars'
p4017
aS'on'
p4018
aS'the'
p4019
aS'job'
p4020
aaa(lp4021
S'JUDGEI'
p4022
a(lp4023
S'understand'
p4024
aS'that'
p4025
aaa(lp4026
S'MITCHELL'
p4027
a(lp4028
S'And'
p4029
aaa(lp4030
g4027
a(lp4031
S'when'
p4032
aS'he'
p4033
aS'wrote'
p4034
aS'my'
p4035
aS'check'
p4036
aaa(lp4037
g4027
a(lp4038
S'He'
p4039
aS'wrote'
p4040
aS'my'
p4041
aS'check'
p4042
aS'to'
p4043
aS'me'
p4044
aaa(lp4045
g4027
a(lp4046
S'handed'
p4047
aS'it'
p4048
aS'to'
p4049
aS'me'
p4050
aS'through'
p4051
ag103
aS'window'
p4052
aaa(lp4053
g4027
a(lp4054
S'says'
p4055
aS'thats'
p4056
aS'the'
p4057
aS'way'
p4058
aS'it'
p4059
aS'is'
p4060
aaa(lp4061
g4027
a(lp4062
S'and'
p4063
aS'th'
p4064
aaa(lp4065
g4027
a(lp4066
S'and'
p4067
aS'and'
p4068
aS'you'
p4069
aS'know'
p4070
aaa(lp4071
g4027
a(lp4072
S'it'
p4073
aS'wasnt'
p4074
aaa(lp4075
g4027
a(lp4076
S'and'
p4077
aS'he'
p4078
aS'totally'
p4079
aS'evaded'
p4080
aS'me'
p4081
aaa(lp4082
g4027
a(lp4083
S'he'
p4084
aS'has'
p4085
aS'to'
p4086
aS'this'
p4087
aS'day'
p4088
aS'evaded'
p4089
aS'me'
p4090
aaa(lp4091
S'JUDGE'
p4092
a(lp4093
S'Mister'
p4094
aS'Roberts'
p4095
aaa(lp4096
g4092
a(lp4097
S'Thats'
p4098
aS'beside'
p4099
aS'the'
p4100
aS'point'
p4101
aaa(lp4102
g4092
a(lp4103
S'What'
p4104
aS'Im'
p4105
aS'trying'
p4106
aS'to'
p4107
aaa(lp4108
g4092
a(lp4109
S'We'
p4110
aS'have'
p4111
aS'to'
p4112
aS'really'
p4113
aS'hone'
p4114
aS'in'
p4115
aS'on'
p4116
aaa(lp4117
g4092
a(lp4118
S'what'
p4119
aS'was'
p4120
aS'the'
p4121
aS'agreement'
p4122
aaa(lp4123
g4092
a(lp4124
S'Not'
p4125
aS'how'
p4126
aS'he'
p4127
aS'paid'
p4128
aS'you'
p4129
aaa(lp4130
S'MITCHELLThe'
p4131
a(lp4132
S'agreement'
p4133
aS'was'
p4134
aaa(lp4135
S'JUDGEIf'
p4136
a(lp4137
S'he'
p4138
aaa(lp4139
S'MITCHELL'
p4140
a(lp4141
S'That'
p4142
aaa(lp4143
S'JUDGE'
p4144
a(lp4145
S'You'
p4146
aS'know'
p4147
aaa(lp4148
g4144
a(lp4149
g242
aS'dont'
p4150
aS'care'
p4151
aS'if'
p4152
aS'he'
p4153
aS'folded'
p4154
aS'an'
p4155
aS'airplane'
p4156
aS'and'
p4157
aS'ma'
p4158
aaa(lp4159
g4144
a(lp4160
S'and'
p4161
aS'sailed'
p4162
aS'it'
p4163
aS'through'
p4164
aS'the'
p4165
aS'air'
p4166
aaa(lp4167
S'MITCHELLHe'
p4168
a(lp4169
S'would'
p4170
aS'pay'
p4171
aS'all'
p4172
aS'my'
p4173
aS'employees'
p4174
aaa(lp4175
g4168
a(lp4176
S'That'
p4177
aS'was'
p4178
aS'the'
p4179
aS'agreement'
p4180
aaa(lp4181
g4168
a(lp4182
S'Everything'
p4183
aaa(lp4184
S'JUDGEBut'
p4185
a(lp4186
S'he'
p4187
aS'di'
p4188
aaa(lp4189
g4185
a(lp4190
S'he'
p4191
aS'disputes'
p4192
aS'that'
p4193
aaa(lp4194
S'MITCHELL'
p4195
a(lp4196
S'Well'
p4197
aaa(lp4198
g4195
a(lp4199
g242
aS'understand'
p4200
aS'that'
p4201
aaa(lp4202
g4195
a(lp4203
S'Thats'
p4204
aS'why'
p4205
aS'were'
p4206
aS'here'
p4207
aS'your'
p4208
aS'honor'
p4209
aaa(lp4210
S'JUDGE'
p4211
a(lp4212
S'WH'
p4213
aS'Okay'
p4214
aS'WH'
p4215
aaa(lp4216
g4211
a(lp4217
S'But'
p4218
aaa(lp4219
g4211
a(lp4220
S'youre'
p4221
aS'the'
p4222
aS'plaintiff'
p4223
aaa(lp4224
g4211
a(lp4225
S'You'
p4226
aS'have'
p4227
aS'the'
p4228
aS'burden'
p4229
aS'of'
p4230
aS'proving'
p4231
aS'your'
p4232
aS'case'
p4233
aaa(lp4234
g4211
a(lp4235
S'Thats'
p4236
aS'the'
p4237
aS'problem'
p4238
ag242
aS'have'
p4239
aS'is'
p4240
aaa(lp4241
g4211
a(lp4242
S'youve'
p4243
aS'gotta'
p4244
aS'convince'
p4245
aS'me'
p4246
aS'by'
p4247
ag103
aS'preponderance'
p4248
aS'of'
p4249
aS'evidence'
p4250
aaa(lp4251
g4211
a(lp4252
S'that'
p4253
aS'what'
p4254
aS'youre'
p4255
aS'saying'
p4256
aS'is'
p4257
aS'true'
p4258
aaa(lp4259
S'MITCHELL'
p4260
a(lp4261
S'Well'
p4262
aS'then'
p4263
aS'if'
p4264
aaa(lp4265
S'JUDGEMore'
p4266
a(lp4267
aa(lp4268
g4266
a(lp4269
S'more'
p4270
aS'likely'
p4271
aS'than'
p4272
aS'not'
p4273
aaa(lp4274
g4266
a(lp4275
S'Now'
p4276
aS'you'
p4277
aS'say'
p4278
aS'one'
p4279
aS'thing'
p4280
aaa(lp4281
g4266
a(lp4282
S'and'
p4283
aS'he'
p4284
aS'says'
p4285
aS'another'
p4286
aaa(lp4287
S'MITCHELL'
p4288
a(lp4289
S'Then'
p4290
aaa(lp4291
g4288
a(lp4292
S'when'
p4293
aS'when'
p4294
ag103
aS'person'
p4295
aS'fills'
p4296
aS'out'
p4297
aaa(lp4298
g4288
a(lp4299
S'or'
p4300
aS'has'
p4301
aS'other'
p4302
aS'employees'
p4303
aS'fill'
p4304
aS'out'
p4305
aS'the'
p4306
aS'doubleu'
p4307
aS'two'
p4308
aS'forms'
p4309
aS'and'
p4310
aS'everything'
p4311
aaa(lp4312
g4288
a(lp4313
S'why'
p4314
aS'would'
p4315
ag242
aS'become'
p4316
aS'liable'
p4317
aaa(lp4318
g4288
a(lp4319
S'for'
p4320
aS'that'
p4321
aS'contribution'
p4322
aaa(lp4323
g4288
a(lp4324
S'When'
p4325
aS'h'
p4326
aS'when'
p4327
aS'he'
p4328
aS'in'
p4329
aS'fact'
p4330
aS'by'
p4331
aS'law'
p4332
aaa(lp4333
g4288
a(lp4334
S'is'
p4335
aS'now'
p4336
aS'employing'
p4337
aS'those'
p4338
aS'employees'
p4339
aaa(lp4340
g4288
a(lp4341
S'Hes'
p4342
aS'the'
p4343
aS'employer'
p4344
aaa(lp4345
g4288
a(lp4346
g242
aS'am'
p4347
aS'doing'
p4348
aS'nothing'
p4349
aaa(lp4350
g4288
a(lp4351
S'Isnt'
p4352
aS'there'
p4353
ag103
aS'law'
p4354
aS'that'
p4355
aS'states'
p4356
aS'that'
p4357
aS'fact'
p4358
aaa(lp4359
g4288
a(lp4360
S'When'
p4361
aS'you'
p4362
aS'have'
p4363
aaa(lp4364
g4288
a(lp4365
S'uh'
p4366
aS'people'
p4367
aaa(lp4368
g4288
a(lp4369
S'work'
p4370
aS'for'
p4371
aS'you'
p4372
aaa(lp4373
g4288
a(lp4374
S'and'
p4375
aS'fill'
p4376
aS'out'
p4377
aS'specific'
p4378
aS'forms'
p4379
aS'to'
p4380
aS'the'
p4381
aS'state'
p4382
aaa(lp4383
g4288
a(lp4384
S'stating'
p4385
aS'that'
p4386
aaa(lp4387
S'JUDGETell'
p4388
a(lp4389
S'me'
p4390
aS'again'
p4391
aaa(lp4392
g4388
a(lp4393
S'Wh'
p4394
aaa(lp4395
g4388
a(lp4396
S'what'
p4397
aS'were'
p4398
aS'the'
p4399
aaa(lp4400
g4388
a(lp4401
S'what'
p4402
aS'was'
p4403
aS'the'
p4404
aS'agreement'
p4405
aS'again'
p4406
aaa(lp4407
g4388
a(lp4408
S'Go'
p4409
aS'go'
p4410
aS'through'
p4411
aS'the'
p4412
aaa(lp4413
g4388
a(lp4414
g1934
aS'conversation'
p4415
aS'as'
p4416
aS'you'
p4417
aS'saw'
p4418
aS'it'
p4419
aaa(lp4420
S'MITCHELL'
p4421
a(lp4422
S'Conversation'
p4423
aS'was'
p4424
aaa(lp4425
g4421
a(lp4426
S'Mitch'
p4427
aaa(lp4428
g4421
a(lp4429
S'if'
p4430
aS'you'
p4431
aS'do'
p4432
aS'this'
p4433
aS'job'
p4434
aaa(lp4435
g4421
a(lp4436
S'Ill'
p4437
aS'go'
p4438
aS'ahead'
p4439
aS'and'
p4440
aS'pay'
p4441
aS'all'
p4442
aS'your'
p4443
aS'employees'
p4444
aaa(lp4445
g4421
a(lp4446
S'and'
p4447
aS'you'
p4448
aS'in'
p4449
aS'turn'
p4450
aS'will'
p4451
aS'be'
p4452
aS'able'
p4453
aS'to'
p4454
aS'pa'
p4455
aS'make'
p4456
aS'more'
p4457
aS'money'
p4458
aaa(lp4459
S'JUDGE'
p4460
a(lp4461
S'That'
p4462
aS'was'
p4463
aS'pretty'
p4464
aS'much'
p4465
aS'it'
p4466
aaa(lp4467
S'MITCHELL'
p4468
a(lp4469
S'Thats'
p4470
aS'it'
p4471
aaa(lp4472
g4468
a(lp4473
S'Thats'
p4474
aS'to'
p4475
aS'the'
p4476
aS'point'
p4477
aaa(lp4478
S'JUDGEOh'
p4479
a(lp4480
S'so'
p4481
aS'he'
p4482
aS'in'
p4483
aS'effect'
p4484
aS'said'
p4485
aaa(lp4486
S'MITCHELLAnd'
p4487
a(lp4488
S'thats'
p4489
aS'it'
p4490
aaa(lp4491
S'JUDGEI'
p4492
a(lp4493
S'will'
p4494
aS'pay'
p4495
aS'your'
p4496
aS'employees'
p4497
aaa(lp4498
S'MITCHELLThats'
p4499
a(lp4500
S'correct'
p4501
aaa(lp4502
g4499
a(lp4503
S'And'
p4504
aS'he'
p4505
aS'did'
p4506
aS'sir'
p4507
aaa(lp4508
g4499
a(lp4509
S'And'
p4510
aS'then'
p4511
aS'when'
p4512
aS'it'
p4513
aS'came'
p4514
aS'to'
p4515
aS'the'
p4516
aS'employer'
p4517
aS'contribution'
p4518
aaa(lp4519
g4499
a(lp4520
S'without'
p4521
aS'my'
p4522
aS'knowledge'
p4523
aS'or'
p4524
aS'anything'
p4525
aaa(lp4526
g4499
a(lp4527
S'until'
p4528
ag242
aS'received'
p4529
aS'this'
p4530
aS'check'
p4531
aaa(lp4532
g4499
a(lp4533
S'he'
p4534
aS'just'
p4535
aS'yanked'
p4536
aS'that'
p4537
aS'right'
p4538
aS'out'
p4539
aS'of'
p4540
aS'my'
p4541
aS'check'
p4542
aaa(lp4543
S'JUDGE'
p4544
a(lp4545
S'And'
p4546
aS'Mister'
p4547
aS'Collins'
p4548
aaa(lp4549
g4544
a(lp4550
S'that'
p4551
aS'conv'
p4552
aaa(lp4553
g4544
a(lp4554
S'tell'
p4555
aS'me'
p4556
aS'about'
p4557
aS'the'
p4558
aS'conversation'
p4559
aS'you'
p4560
aS'believe'
p4561
aS'happened'
p4562
aaa(lp4563
S'MATTHEW'
p4564
a(lp4565
S'Well'
p4566
aaa(lp4567
g4564
a(lp4568
S'um'
p4569
aaa(lp4570
g4564
a(lp4571
S'Mitch'
p4572
aS'and'
p4573
ag242
aaa(lp4574
g4564
a(lp4575
S'um'
p4576
aaa(lp4577
g4564
a(lp4578
S'Mitch'
p4579
aS'had'
p4580
aS'come'
p4581
aS'to'
p4582
aS'me'
p4583
aS'and'
p4584
aS'said'
p4585
aS'he'
p4586
aS'would'
p4587
aS'do'
p4588
aS'the'
p4589
aS'work'
p4590
aS'out'
p4591
aS'there'
p4592
aaa(lp4593
g4564
a(lp4594
S'but'
p4595
aS'he'
p4596
aS'wanted'
p4597
aS'to'
p4598
aS'do'
p4599
aS'the'
p4600
aS'work'
p4601
aS'under'
p4602
aS'the'
p4603
aS'basis'
p4604
aS'that'
p4605
ag242
aS'paid'
p4606
aS'his'
p4607
aS'men'
p4608
aaa(lp4609
g4564
a(lp4610
S'and'
p4611
ag242
aS'told'
p4612
aS'him'
p4613
aS'about'
p4614
aaa(lp4615
g4564
a(lp4616
S'what'
p4617
ag242
aS'said'
p4618
aS'earlier'
p4619
aS'here'
p4620
aaa(lp4621
S'JUDGE'
p4622
a(lp4623
S'About'
p4624
aS'the'
p4625
aS'twentysix'
p4626
aS'percent'
p4627
aaa(lp4628
S'MATTHEWYes'
p4629
a(lp4630
aa(lp4631
S'JUDGEThat'
p4632
a(lp4633
S'was'
p4634
aS'mentioned'
p4635
aS'to'
p4636
aS'him'
p4637
aaa(lp4638
S'KARENAlways'
p4639
a(lp4640
aa(lp4641
S'MATTHEWOh'
p4642
a(lp4643
S'yes'
p4644
aaa(lp4645
g4642
a(lp4646
S'Uh'
p4647
aaa(lp4648
g4642
a(lp4649
S'always'
p4650
aaa(lp4651
g4642
a(lp4652
S'it'
p4653
aS'was'
p4654
aS'mentioned'
p4655
aS'with'
p4656
aS'Karen'
p4657
aS'here'
p4658
aaa(lp4659
g4642
a(lp4660
S'on'
p4661
aS'her'
p4662
aS'note'
p4663
aS'of'
p4664
aS'nine'
p4665
aS'two'
p4666
aS'ninetythree'
p4667
aaa(lp4668
g4642
a(lp4669
S'that'
p4670
aS'she'
p4671
aS'wrote'
p4672
aS'down'
p4673
aS'her'
p4674
aS'note'
p4675
aS'that'
p4676
aS'she'
p4677
aS'talked'
p4678
aS'with'
p4679
aS'him'
p4680
aaa(lp4681
S'RADIOX'
p4682
a(lp4683
S'Twelve'
p4684
aS'fourteen'
p4685
ag53
aaa(lp4686
S'MATTHEW'
p4687
a(lp4688
S'and'
p4689
aS'at'
p4690
aS'uh'
p4691
aaa(lp4692
g4687
a(lp4693
S'at'
p4694
aS'every'
p4695
aS'juncture'
p4696
aaa(lp4697
g4687
a(lp4698
S'He'
p4699
aS'was'
p4700
aaa(lp4701
g4687
a(lp4702
S'uh'
p4703
aS'made'
p4704
aS'aware'
p4705
aS'of'
p4706
aaa(lp4707
g4687
a(lp4708
S'the'
p4709
aS'uh'
p4710
aaa(lp4711
g4687
a(lp4712
S'the'
p4713
aS'contributions'
p4714
aaa(lp4715
g4687
a(lp4716
S'were'
p4717
aS'made'
p4718
aS'by'
p4719
aS'the'
p4720
aS'employer'
p4721
aaa(lp4722
g4687
a(lp4723
S'These'
p4724
aS'were'
p4725
aS'his'
p4726
aS'men'
p4727
aaa(lp4728
g4687
a(lp4729
S'and'
p4730
aS'we'
p4731
aS'were'
p4732
aS'doing'
p4733
ag103
aS'service'
p4734
aS'for'
p4735
aS'him'
p4736
aaa(lp4737
g4687
a(lp4738
S'under'
p4739
aS'this'
p4740
aS'agreement'
p4741
aS'that'
p4742
aS'we'
p4743
aS'had'
p4744
aS'between'
p4745
aS'us'
p4746
aaa(lp4747
S'JUDGE'
p4748
a(lp4749
S'Now'
p4750
aS'just'
p4751
aaa(lp4752
g4748
a(lp4753
S'just'
p4754
aS'seems'
p4755
aS'from'
p4756
ag103
aS'logical'
p4757
aS'standpoint'
p4758
aaa(lp4759
g4748
a(lp4760
g242
aS'wasnt'
p4761
aS'there'
p4762
aS'obviously'
p4763
aaa(lp4764
g4748
a(lp4765
S'it'
p4766
aS'seems'
p4767
aS'like'
p4768
aS'if'
p4769
aS'you'
p4770
aS'had'
p4771
aS'said'
p4772
aS'that'
p4773
aS'to'
p4774
aS'him'
p4775
aaa(lp4776
g4748
a(lp4777
S'he'
p4778
aS'wouldve'
p4779
aS'said'
p4780
aS'wait'
p4781
ag103
aS'minute'
p4782
aaa(lp4783
g4748
a(lp4784
S'its'
p4785
aS'not'
p4786
aS'worth'
p4787
aS'it'
p4788
aS'to'
p4789
aS'me'
p4790
aaa(lp4791
S'MITCHELL'
p4792
a(lp4793
S'Thats'
p4794
aS'correct'
p4795
aaa(lp4796
S'JUDGEWould'
p4797
a(lp4798
S'you'
p4799
aaa(lp4800
g4797
a(lp4801
S'Would'
p4802
aS'you'
p4803
aS'think'
p4804
aS'he'
p4805
aS'would'
p4806
aS'say'
p4807
aS'that'
p4808
aaa(lp4809
S'MATTHEWYes'
p4810
a(lp4811
aa(lp4812
g4810
a(lp4813
g242
aS'would'
p4814
aS'think'
p4815
aS'he'
p4816
aS'would'
p4817
aaa(lp4818
g4810
a(lp4819
S'Why'
p4820
aS'would'
p4821
aS'he'
p4822
aS'do'
p4823
aS'the'
p4824
aS'work'
p4825
aaa(lp4826
S'JUDGEOkay'
p4827
a(lp4828
aa(lp4829
S'MITCHELL'
p4830
a(lp4831
S'So'
p4832
aS'you'
p4833
aS'would'
p4834
aS'trick'
p4835
aS'me'
p4836
aS'into'
p4837
aS'doing'
p4838
aS'it'
p4839
aaa(lp4840
g4830
a(lp4841
S'Tho'
p4842
aaa(lp4843
S'JUDGEWell'
p4844
a(lp4845
S'not'
p4846
aS'if'
p4847
aS'he'
p4848
aaa(lp4849
g4844
a(lp4850
S'not'
p4851
aS'if'
p4852
aS'he'
p4853
aS'said'
p4854
aS'to'
p4855
aS'you'
p4856
aaa(lp4857
S'MITCHELLNo'
p4858
a(lp4859
aa(lp4860
g4858
a(lp4861
S'but'
p4862
aS'then'
p4863
aaa(lp4864
S'MATTHEW'
p4865
a(lp4866
aa(lp4867
S'MITCHELLThen'
p4868
a(lp4869
aa(lp4870
g4868
a(lp4871
S'with'
p4872
aS'all'
p4873
aS'my'
p4874
aaa(lp4875
g4868
a(lp4876
S'with'
p4877
aS'my'
p4878
aS'fourteen'
p4879
aS'years'
p4880
aS'experience'
p4881
aaa(lp4882
g4868
a(lp4883
S'Why'
p4884
aS'would'
p4885
ag242
aS'do'
p4886
aS'that'
p4887
aS'amount'
p4888
aS'amount'
p4889
aS'of'
p4890
aS'work'
p4891
aaa(lp4892
g4868
a(lp4893
S'and'
p4894
aS'knowingly'
p4895
aS'for'
p4896
aS'over'
p4897
aS'fifty'
p4898
aS'hours'
p4899
aS'of'
p4900
aS'work'
p4901
aaa(lp4902
S'JUDGE'
p4903
a(lp4904
S'Well'
p4905
ag242
aS'XX'
p4906
aaa(lp4907
S'MITCHELLknow'
p4908
a(lp4909
g242
aS'was'
p4910
aS'gonna'
p4911
aS'take'
p4912
aS'him'
p4913
aS'three'
p4914
aS'hundred'
p4915
aS'and'
p4916
aS'sixteen'
p4917
aS'dollars'
p4918
aS'to'
p4919
aS'do'
p4920
aS'it'
p4921
aaa(lp4922
S'JUDGEThat'
p4923
a(lp4924
S'may'
p4925
aS'be'
p4926
ag103
aS'like'
p4927
ag103
aS'buyers'
p4928
aS'remorse'
p4929
aaa(lp4930
g4923
a(lp4931
S'so'
p4932
ag242
aaa(lp4933
g4923
a(lp4934
g53
aS'uh'
p4935
ag242
aS'dont'
p4936
ag53
aaa(lp4937
S'MITCHELLWell'
p4938
a(lp4939
S'thats'
p4940
aS'not'
p4941
aaa(lp4942
g4938
a(lp4943
g242
aS'have'
p4944
aS'fourteen'
p4945
aS'years'
p4946
aS'experience'
p4947
aS'in'
p4948
aS'the'
p4949
aS'trade'
p4950
aaa(lp4951
g4938
a(lp4952
S'Thats'
p4953
aS'why'
p4954
ag242
aS'turned'
p4955
aS'the'
p4956
ag3515
aS'the'
p4957
aS'job'
p4958
aS'down'
p4959
aS'to'
p4960
aS'begin'
p4961
aS'with'
p4962
aaa(lp4963
g4938
a(lp4964
g53
aS'Without'
p4965
ag53
aS'doing'
p4966
aS'any'
p4967
aS'work'
p4968
aS'at'
p4969
aS'all'
p4970
aaa(lp4971
S'JUDGE'
p4972
a(lp4973
S'Well'
p4974
aaa(lp4975
g4972
a(lp4976
S'Ill'
p4977
aS'tell'
p4978
aS'you'
p4979
aaa(lp4980
g4972
a(lp4981
S'if'
p4982
aS'Mister'
p4983
aS'Roberts'
p4984
aS'testimony'
p4985
aS'is'
p4986
aS'correct'
p4987
aS'he'
p4988
aS'should'
p4989
aS'win'
p4990
aaa(lp4991
g4972
a(lp4992
S'and'
p4993
aS'Mister'
p4994
aS'Collins'
p4995
aS'testimony'
p4996
aS'is'
p4997
aS'correct'
p4998
aS'then'
p4999
aS'he'
p5000
aS'should'
p5001
aS'prevail'
p5002
aaa(lp5003
S'MITCHELLAnd'
p5004
a(lp5005
g242
aS'agree'
p5006
aS'with'
p5007
aS'you'
p5008
aaa(lp5009
S'JUDGE'
p5010
a(lp5011
S'Now'
p5012
aaa(lp5013
S'MITCHELLBut'
p5014
a(lp5015
S'the'
p5016
aS'fact'
p5017
aS'remains'
p5018
aaa(lp5019
g5014
a(lp5020
S'that'
p5021
ag242
aS'would'
p5022
aS'not'
p5023
aS'have'
p5024
aS'done'
p5025
aS'the'
p5026
aS'work'
p5027
aaa(lp5028
g5014
a(lp5029
S'for'
p5030
aS'this'
p5031
aS'amount'
p5032
aS'of'
p5033
aS'money'
p5034
aaa(lp5035
g5014
a(lp5036
S'Thats'
p5037
aS'why'
p5038
ag242
aS'turned'
p5039
aS'the'
p5040
aS'job'
p5041
aS'down'
p5042
aS'to'
p5043
aS'begin'
p5044
aS'with'
p5045
aaa(lp5046
g5014
a(lp5047
S'Thats'
p5048
aS'why'
p5049
aS'Im'
p5050
aS'here'
p5051
aS'in'
p5052
aS'the'
p5053
aS'court'
p5054
aS'today'
p5055
aaa(lp5056
g5014
a(lp5057
S'to'
p5058
aS'make'
p5059
aS'the'
p5060
aS'court'
p5061
aS'decide'
p5062
aaa(lp5063
g5014
a(lp5064
S'It'
p5065
aS'shouldnt'
p5066
aaa(lp5067
g5014
a(lp5068
S'It'
p5069
aS'shouldnt'
p5070
aS'be'
p5071
aS'legal'
p5072
aS'for'
p5073
aS'guys'
p5074
aS'to'
p5075
aS'do'
p5076
aS'this'
p5077
aaa(lp5078
S'JUDGEWell'
p5079
a(lp5080
S'Im'
p5081
aS'gonna'
p5082
aS'make'
p5083
aaa(lp5084
g5079
a(lp5085
S'Im'
p5086
aS'gonna'
p5087
aS'make'
p5088
aaa(lp5089
g5079
a(lp5090
S'uh'
p5091
aaa(lp5092
g5079
a(lp5093
S'in'
p5094
aS'my'
p5095
aS'mind'
p5096
aaa(lp5097
g5079
a(lp5098
g103
aS'bad'
p5099
aS'decision'
p5100
aS'today'
p5101
aaa(lp5102
g5079
a(lp5103
S'Now'
p5104
aaa(lp5105
g5079
a(lp5106
S'you'
p5107
aS'both'
p5108
aS'seem'
p5109
aS'very'
p5110
aS'truthful'
p5111
aS'and'
p5112
aS'honest'
p5113
aaa(lp5114
g5079
a(lp5115
g242
aS'wasnt'
p5116
aS'there'
p5117
aaa(lp5118
S'MITCHELL'
p5119
a(lp5120
S'But'
p5121
aaa(lp5122
g5119
a(lp5123
S'Im'
p5124
aS'the'
p5125
aS'one'
p5126
aS'thats'
p5127
aS'bearing'
p5128
aS'the'
p5129
aS'burden'
p5130
aS'of'
p5131
aS'this'
p5132
aS'monetary'
p5133
aS'amount'
p5134
aaa(lp5135
S'JUDGEyou'
p5136
a(lp5137
S'have'
p5138
ag53
aS'to'
p5139
aS'bear'
p5140
aS'the'
p5141
aS'burden'
p5142
ag53
aS'proving'
p5143
aS'it'
p5144
aaa(lp5145
g5136
a(lp5146
S'but'
p5147
aaa(lp5148
S'MITCHELL'
p5149
a(lp5150
g242
aS'understand'
p5151
aS'that'
p5152
aaa(lp5153
S'JUDGE'
p5154
a(lp5155
S'Im'
p5156
aS'gonna'
p5157
aS'award'
p5158
aaa(lp5159
g5154
a(lp5160
S'um'
p5161
aaa(lp5162
g5154
a(lp5163
S'Mister'
p5164
aS'Roberts'
p5165
aaa(lp5166
g5154
a(lp5167
S'threehundred'
p5168
aS'fifty'
p5169
aS'dollars'
p5170
aaa(lp5171
g5154
a(lp5172
S'Approximately'
p5173
aS'half'
p5174
aaa(lp5175
g5154
a(lp5176
S'Now'
p5177
aS'Mister'
p5178
aS'Collins'
p5179
aS'may'
p5180
aS'not'
p5181
aS'like'
p5182
aS'that'
p5183
aaa(lp5184
g5154
a(lp5185
g53
aS'now'
p5186
ag1934
ag53
aaa(lp5187
g5154
a(lp5188
S'if'
p5189
aS'he'
p5190
aS'doesnt'
p5191
aS'like'
p5192
aS'it'
p5193
aaa(lp5194
g5154
a(lp5195
S'then'
p5196
aS'he'
p5197
aS'can'
p5198
aS'go'
p5199
aS'ahead'
p5200
aS'appeal'
p5201
aS'it'
p5202
aS'across'
p5203
aS'the'
p5204
aS'street'
p5205
aS'superior'
p5206
aS'court'
p5207
aaa(lp5208
g5154
a(lp5209
S'Running'
p5210
aS'the'
p5211
aS'risk'
p5212
aS'that'
p5213
aS'he'
p5214
aS'might'
p5215
aS'face'
p5216
aaa(lp5217
g5154
a(lp5218
S'the'
p5219
aS'full'
p5220
aS'amount'
p5221
aS'of'
p5222
aS'sevenhundred'
p5223
aS'and'
p5224
aS'four'
p5225
aS'dollars'
p5226
aaa(lp5227
S'MATTHEWI'
p5228
a(lp5229
S'will'
p5230
aS'appeal'
p5231
aaa(lp5232
S'JUDGE'
p5233
a(lp5234
S'Okay'
p5235
aaa(lp5236
g5233
a(lp5237
S'But'
p5238
aS'Im'
p5239
aS'going'
p5240
aS'to'
p5241
aS'get'
p5242
aS'it'
p5243
aaa(lp5244
g5233
a(lp5245
S'and'
p5246
aS'award'
p5247
aS'mister'
p5248
aS'Roberts'
p5249
aaa(lp5250
g5233
a(lp5251
S'threehundred'
p5252
aS'and'
p5253
aS'fifty'
p5254
aS'dollars'
p5255
aaa(lp5256
g5233
a(lp5257
S'and'
p5258
aS'if'
p5259
aS'neither'
p5260
aS'party'
p5261
aS'is'
p5262
aS'happy'
p5263
aaa(lp5264
g5233
a(lp5265
S'maybe'
p5266
aS'theres'
p5267
aS'an'
p5268
aS'old'
p5269
aS'saying'
p5270
aS'in'
p5271
aS'court'
p5272
aS'that'
p5273
aaa(lp5274
g5233
a(lp5275
S'both'
p5276
aS'parties'
p5277
aS'are'
p5278
aS'unhappy'
p5279
aaa(lp5280
g5233
a(lp5281
S'the'
p5282
aS'judge'
p5283
aS'made'
p5284
ag103
aS'good'
p5285
aS'decision'
p5286
aaa(lp5287
g5233
a(lp5288
S'So'
p5289
aaa(lp5290
S'MATTHEW'
p5291
a(lp5292
S'Thank'
p5293
aS'you'
p5294
aS'your'
p5295
aS'honor'
p5296
aaa(lp5297
S'JUDGEX'
p5298
a(lp5299
S'Make'
p5300
aS'it'
p5301
ag53
aS'for'
p5302
aS'the'
p5303
aS'uh'
p5304
aaa(lp5305
g5298
a(lp5306
S'plaintiff'
p5307
aS'of'
p5308
aS'threefifty'
p5309
aaa(lp5310
S'XTheres'
p5311
a(lp5312
S'some'
p5313
aaa(lp5314
S'JUDGEAnd'
p5315
a(lp5316
g242
aS'will'
p5317
aS'allow'
p5318
aS'the'
p5319
aS'court'
p5320
aS'costs'
p5321
aS'of'
p5322
aS'twenty'
p5323
aS'dollars'
p5324
aS'and'
p5325
aS'thirty'
p5326
aS'cents'
p5327
aaa(lp5328
S'XI'
p5329
a(lp5330
S'think'
p5331
aS'theres'
p5332
aS'some'
p5333
aS'papers'
p5334
aS'up'
p5335
aS'there'
p5336
aaa(lp5337
S'MITCHELL'
p5338
a(lp5339
S'Thank'
p5340
aS'you'
p5341
aS'your'
p5342
aS'honor'
p5343
aaa(lp5344
S'XXXX'
p5345
a(lp5346
aa.