(lp0
(lp1
S'SETH'
p2
a(lp3
S'Excuse'
p4
aS'me'
p5
aaa(lp6
S'ENV'
p7
a(lp8
aa(lp9
S'LARRY'
p10
a(lp11
S'Hey'
p12
aaa(lp13
g10
a(lp14
S'how'
p15
aS'are'
p16
aS'you'
p17
aS'guy'
p18
aaa(lp19
S'SETH'
p20
a(lp21
S'Are'
p22
aS'you'
p23
aS'Larry'
p24
aaa(lp25
g20
a(lp26
S'Are'
p27
aS'you'
p28
aS'Larry'
p29
aaa(lp30
S'LARRY'
p31
a(lp32
S'Yes'
p33
aaa(lp34
g31
a(lp35
S'How'
p36
aS'are'
p37
aS'you'
p38
aaa(lp39
S'SETHAre'
p40
a(lp41
S'you'
p42
aaa(lp43
g40
a(lp44
S'Youre'
p45
aS'the'
p46
aS'guy'
p47
aaa(lp48
S'LARRY'
p49
a(lp50
S'Hunh'
p51
aaa(lp52
S'SETH'
p53
a(lp54
S'Youre'
p55
aS'the'
p56
aS'guy'
p57
aS'to'
p58
aS'talk'
p59
aS'to'
p60
aS'then'
p61
aaa(lp62
S'LARRYIm'
p63
a(lp64
S'the'
p65
aS'guy'
p66
aaa(lp67
g63
a(lp68
S'Yeah'
p69
aaa(lp70
S'SETH'
p71
a(lp72
aa(lp73
g71
a(lp74
S'I'
p75
aS'didnt'
p76
aS'know'
p77
aS'if'
p78
ag75
aS'had'
p79
aS'the'
p80
aS'right'
p81
aS'place'
p82
aaa(lp83
S'LARRY'
p84
a(lp85
S'Yeah'
p86
aaa(lp87
g84
a(lp88
S'you'
p89
aS'got'
p90
aS'it'
p91
aaa(lp92
g84
a(lp93
g75
aS'just'
p94
aaa(lp95
S'SETH'
p96
a(lp97
S'What'
p98
aS'are'
p99
aS'you'
p100
aS'doing'
p101
aS'there'
p102
aaa(lp103
S'LARRY'
p104
a(lp105
S'Youre'
p106
aS'probably'
p107
aS'trying'
p108
aS't'
p109
aaa(lp110
g104
a(lp111
S'VOX'
p112
aS'Yeah'
p113
aS'this'
p114
aS'is'
p115
aS'strange'
p116
aaa(lp117
g104
a(lp118
S'whats'
p119
aS'this'
p120
aS'guy'
p121
aS'doing'
p122
aS'VOX'
p123
aaa(lp124
S'SETH'
p125
a(lp126
aa(lp127
S'LARRY'
p128
a(lp129
S'Im'
p130
aS'putting'
p131
aS'water'
p132
aS'in'
p133
aS'a'
p134
aS'X'
p135
aS'twentysix'
p136
ag135
aS'gallon'
p137
aS'container'
p138
aaa(lp139
g128
a(lp140
S'inside'
p141
aS'my'
p142
aS'truck'
p143
aaa(lp144
S'ENV'
p145
a(lp146
aa(lp147
S'SETH'
p148
a(lp149
S'Wow'
p150
aaa(lp151
g148
a(lp152
S'Thats'
p153
aS'quite'
p154
ag134
aS'p'
p155
aaa(lp156
S'LARRY'
p157
a(lp158
S'Cause'
p159
ag75
aS'had'
p160
aS'to'
p161
aS'haul'
p162
aS'it'
p163
aS'to'
p164
ag134
aS'property'
p165
aaa(lp166
g157
a(lp167
S'which'
p168
aS'doesnt'
p169
aS'have'
p170
aS'any'
p171
aS'water'
p172
aaa(lp173
g157
a(lp174
S'and'
p175
ag75
aS'have'
p176
aS'to'
p177
aS'spray'
p178
aS'the'
p179
aS'road'
p180
aaa(lp181
S'SETH'
p182
a(lp183
S'Ah'
p184
aaa(lp185
S'LARRY'
p186
a(lp187
aa(lp188
g186
a(lp189
S'Cause'
p190
aS'the'
p191
aS'road'
p192
aS'before'
p193
aS'you'
p194
aS'can'
p195
aS'drive'
p196
aS'on'
p197
aS'it'
p198
aaa(lp199
S'SETH'
p200
a(lp201
S'Interesting'
p202
aaa(lp203
S'LARRYit'
p204
a(lp205
S'needs'
p206
aS'more'
p207
aS'uh'
p208
aaa(lp209
g204
a(lp210
S'more'
p211
aS'stability'
p212
aaa(lp213
g204
a(lp214
S'Evidently'
p215
aaa(lp216
g204
a(lp217
S'So'
p218
aS'give'
p219
aS'me'
p220
aS'one'
p221
aS'second'
p222
aS'to'
p223
aS'lock'
p224
aS'this'
p225
aS'thing'
p226
aaa(lp227
g204
a(lp228
S'and'
p229
aS'then'
p230
aS'XX'
p231
aaa(lp232
S'SETHIs'
p233
a(lp234
S'that'
p235
aS'to'
p236
aS'keep'
p237
aS'the'
p238
aS'dust'
p239
aaa(lp240
g233
a(lp241
S'keep'
p242
aS'the'
p243
aS'dust'
p244
aS'down'
p245
aaa(lp246
S'LARRY'
p247
a(lp248
S'well'
p249
aaa(lp250
g247
a(lp251
S'no'
p252
aaa(lp253
g247
a(lp254
S'its'
p255
aS'not'
p256
aS'that'
p257
aS'so'
p258
aS'much'
p259
aaa(lp260
g247
a(lp261
S'its'
p262
aS'uh'
p263
aaa(lp264
S'ENV'
p265
a(lp266
aa(lp267
S'LARRYthey'
p268
a(lp269
S'put'
p270
aaa(lp271
g268
a(lp272
S'they'
p273
aS'put'
p274
ag134
aS'uh'
p275
aaa(lp276
g268
a(lp277
g134
aS'type'
p278
aS'of'
p279
aS'uh'
p280
aS'base'
p281
aS'on'
p282
aS'it'
p283
aS'that'
p284
aS'needs'
p285
aS'water'
p286
aS'and'
p287
aaa(lp288
S'ENV'
p289
a(lp290
aa(lp291
S'LARRY'
p292
a(lp293
S'that'
p294
aS'just'
p295
aS'hasnt'
p296
aS'happened'
p297
aS'yet'
p298
aaa(lp299
S'SETH'
p300
a(lp301
S'Oh'
p302
aaa(lp303
S'LARRY'
p304
a(lp305
g135
aaa(lp306
S'SETHI'
p307
a(lp308
S'see'
p309
aaa(lp310
g307
a(lp311
S'So'
p312
aS'theres'
p313
aS'some'
p314
aS'chemical'
p315
aS'reaction'
p316
aS'that'
p317
aS'has'
p318
aS'to'
p319
aS'take'
p320
aS'place'
p321
aaa(lp322
S'LARRY'
p323
a(lp324
S'Yeah'
p325
aaa(lp326
g323
a(lp327
g75
aS'guess'
p328
aS'P'
p329
ag134
aS'good'
p330
ag134
aS'analogy'
p331
ag329
aaa(lp332
S'ENV'
p333
a(lp334
aa(lp335
S'LARRY'
p336
a(lp337
g135
aS'Chelsea'
p338
ag135
aaa(lp339
g336
a(lp340
S'no'
p341
aaa(lp342
S'ENV'
p343
a(lp344
aa(lp345
S'LARRY'
p346
a(lp347
S'That'
p348
aS'should'
p349
aS'hold'
p350
aS'it'
p351
aS'in'
p352
aS'there'
p353
aaa(lp354
g346
a(lp355
S'Okay'
p356
aaa(lp357
g346
a(lp358
S'Nice'
p359
aS'to'
p360
aS'meet'
p361
aS'you'
p362
aaa(lp363
S'SETH'
p364
a(lp365
S'How'
p366
aS'you'
p367
aS'doing'
p368
aaa(lp369
g364
a(lp370
S'Good'
p371
aS'to'
p372
aS'see'
p373
aS'you'
p374
aaa(lp375
S'LARRYWhats'
p376
a(lp377
S'your'
p378
aS'name'
p379
aaa(lp380
S'ENV'
p381
a(lp382
aa(lp383
S'SETH'
p384
a(lp385
S'Seth'
p386
aaa(lp387
S'LARRYSeth'
p388
a(lp389
aa(lp390
g388
a(lp391
S'Okay'
p392
aaa(lp393
S'SETH'
p394
a(lp395
S'Heres'
p396
aS'my'
p397
aS'card'
p398
aS'here'
p399
aaa(lp400
S'LARRY'
p401
a(lp402
S'Thanks'
p403
aS'Seth'
p404
aaa(lp405
S'ENV'
p406
a(lp407
aa(lp408
S'LARRY'
p409
a(lp410
g135
ag75
aS'think'
p411
aS'its'
p412
aS'warming'
p413
aS'up'
p414
ag134
aS'bit'
p415
aS'here'
p416
ag135
aaa(lp417
S'SETH'
p418
a(lp419
S'Is'
p420
aS'this'
p421
aS'the'
p422
aS'house'
p423
aS'were'
p424
aS'looking'
p425
aS'at'
p426
aaa(lp427
S'LARRY'
p428
a(lp429
S'Ill'
p430
aS'take'
p431
aS'you'
p432
aS'down'
p433
aS'in'
p434
aS'the'
p435
aS'basement'
p436
aaa(lp437
S'SETH'
p438
a(lp439
S'Is'
p440
aS'the'
p441
aS'furnace'
p442
aS'down'
p443
aS'in'
p444
aS'the'
p445
aS'basement'
p446
aaa(lp447
S'LARRY'
p448
a(lp449
S'Whats'
p450
aS'left'
p451
aS'of'
p452
aS'it'
p453
aaa(lp454
g448
a(lp455
S'yeah'
p456
aaa(lp457
S'SETH'
p458
a(lp459
aa(lp460
S'LARRY'
p461
a(lp462
aa(lp463
g461
a(lp464
S'We'
p465
aS'had'
p466
aS'all'
p467
aS'these'
p468
aaa(lp469
S'SETH'
p470
a(lp471
S'Is'
p472
aS'it'
p473
ag134
aS'old'
p474
aS'system'
p475
aaa(lp476
S'LARRY'
p477
a(lp478
S'Yeah'
p479
aaa(lp480
g477
a(lp481
S'We'
p482
aS'had'
p483
aS'the'
p484
aS'asbestos'
p485
aS'uh'
p486
aS'all'
p487
aS'removed'
p488
aS'from'
p489
aS'it'
p490
aS'and'
p491
aaa(lp492
g477
a(lp493
S'and'
p494
aS'uh'
p495
aaa(lp496
S'SETH'
p497
a(lp498
S'Oh'
p499
aS'really'
p500
aaa(lp501
S'LARRY'
p502
a(lp503
S'so'
p504
aS'thats'
p505
aS'been'
p506
aS'done'
p507
aaa(lp508
S'SETHI'
p509
a(lp510
S'was'
p511
aS'j'
p512
aaa(lp513
g509
a(lp514
g75
aS'was'
p515
aS'just'
p516
aS'at'
p517
ag134
aS'place'
p518
aS'that'
p519
aS'does'
p520
aS'asbestos'
p521
aS'removal'
p522
aaa(lp523
S'LARRY'
p524
a(lp525
S'Yeah'
p526
aaa(lp527
g524
a(lp528
S'where'
p529
aaa(lp530
S'SETH'
p531
a(lp532
S'Cal'
p533
aaa(lp534
g531
a(lp535
S'Cal'
p536
aS'Tech'
p537
aaa(lp538
S'LARRY'
p539
a(lp540
S'theyre'
p541
aS'the'
p542
aS'guys'
p543
aS'that'
p544
aS'did'
p545
aS'it'
p546
aaa(lp547
S'SETH'
p548
a(lp549
S'Are'
p550
aS'they'
p551
aaa(lp552
g548
a(lp553
S'Alright'
p554
aaa(lp555
S'LARRY'
p556
a(lp557
S'Yeah'
p558
aaa(lp559
S'SETH'
p560
a(lp561
aa(lp562
S'LARRY'
p563
a(lp564
S'thats'
p565
aS'down'
p566
aS'in'
p567
aS'Berkeley'
p568
aaa(lp569
g563
a(lp570
S'right'
p571
aaa(lp572
S'SETHNo'
p573
a(lp574
S'theyre'
p575
aaa(lp576
g573
a(lp577
S'theyve'
p578
aS'got'
p579
aS'an'
p580
aS'office'
p581
aS'here'
p582
aS'in'
p583
aS'Nappa'
p584
aaa(lp585
S'LARRY'
p586
a(lp587
S'Cal'
p588
aS'Tech'
p589
aaa(lp590
g586
a(lp591
g135
aS'What'
p592
aS'was'
p593
aS'the'
p594
ag135
aaa(lp595
g586
a(lp596
S'No'
p597
aaa(lp598
g586
a(lp599
S'Synergy'
p600
aaa(lp601
g586
a(lp602
S'Thats'
p603
aS'who'
p604
aaa(lp605
S'SETHSynergy'
p606
a(lp607
aa(lp608
g606
a(lp609
S'Dif'
p610
aS'different'
p611
aS'one'
p612
aaa(lp613
S'LARRY'
p614
a(lp615
g75
aS'Im'
p616
aS'sorry'
p617
aaa(lp618
g614
a(lp619
S'Its'
p620
ag134
aS'different'
p621
aS'outfit'
p622
aaa(lp623
g614
a(lp624
g75
aS'didnt'
p625
aS'know'
p626
aS'they'
p627
aS'had'
p628
aS'one'
p629
aS'up'
p630
aS'here'
p631
aaa(lp632
S'SETHYeah'
p633
a(lp634
aa(lp635
g633
a(lp636
S'Though'
p637
ag75
aS'think'
p638
aS'they'
p639
aS'had'
p640
aS'just'
p641
aS'recently'
p642
aS'moved'
p643
aS'here'
p644
aaa(lp645
S'LARRYUnhunh'
p646
a(lp647
aa(lp648
S'SETH'
p649
a(lp650
S'Cause'
p651
ag75
aS'was'
p652
aS'wondering'
p653
ag109
aaa(lp654
S'LARRYSo'
p655
a(lp656
S'wheres'
p657
aS'the'
p658
aS'man'
p659
aS'with'
p660
aS'the'
p661
aS'uh'
p662
aS'camera'
p663
aaa(lp664
g655
a(lp665
S'and'
p666
aS'the'
p667
aaa(lp668
S'SETHOh'
p669
a(lp670
g75
aS'got'
p671
aS'the'
p672
aaa(lp673
g669
a(lp674
g75
aS'got'
p675
aS'my'
p676
aS'recorder'
p677
aS'right'
p678
aS'here'
p679
aaa(lp680
S'LARRY'
p681
a(lp682
aa(lp683
g681
a(lp684
S'Thats'
p685
aS'pretty'
p686
aS'clever'
p687
aaa(lp688
S'SETH'
p689
a(lp690
S'Yeah'
p691
aaa(lp692
g689
a(lp693
S'my'
p694
aS'brother'
p695
aS'is'
p696
aS'uh'
p697
aaa(lp698
g689
a(lp699
S'teaches'
p700
aS'linguistics'
p701
aaa(lp702
g689
a(lp703
S'and'
p704
ag75
aS'guess'
p705
aS'hes'
p706
aS'doing'
p707
aS'this'
p708
aS'study'
p709
aaa(lp710
S'LARRYOh'
p711
a(lp712
aa(lp713
g711
a(lp714
g135
aS'okay'
p715
ag135
aaa(lp716
S'SETH'
p717
a(lp718
S'and'
p719
aS'they'
p720
aS'just'
p721
aS'want'
p722
aS'business'
p723
aS'conversations'
p724
aaa(lp725
S'LARRY'
p726
a(lp727
S'alright'
p728
aaa(lp729
g726
a(lp730
S'Well'
p731
aaa(lp732
S'SETH'
p733
a(lp734
S'Wow'
p735
aaa(lp736
S'LARRY'
p737
a(lp738
S'Heres'
p739
aS'the'
p740
aS'animal'
p741
aaa(lp742
S'SETHMy'
p743
a(lp744
S'gosh'
p745
aaa(lp746
S'LARRY'
p747
a(lp748
aa(lp749
S'SETHWow'
p750
a(lp751
aa(lp752
S'LARRYThey'
p753
a(lp754
S'took'
p755
aS'uh'
p756
aS'some'
p757
aS'of'
p758
aS'it'
p759
aS'with'
p760
aS'em'
p761
aS'obviously'
p762
aaa(lp763
S'SETHDid'
p764
a(lp765
S'this'
p766
aS'used'
p767
aS'to'
p768
aS'be'
p769
aaa(lp770
g764
a(lp771
S'used'
p772
aS'to'
p773
aS'be'
p774
aS'an'
p775
aS'old'
p776
aS'oil'
p777
aaa(lp778
S'LARRY'
p779
a(lp780
S'Yeah'
p781
aaa(lp782
g779
a(lp783
g75
aS'think'
p784
aS'it'
p785
aS'was'
p786
aS'an'
p787
aS'old'
p788
aaa(lp789
S'SETH'
p790
a(lp791
S'fire'
p792
aaa(lp793
S'LARRY'
p794
a(lp795
g75
aS'think'
p796
aS'it'
p797
aS'was'
p798
aS'an'
p799
aS'old'
p800
aaa(lp801
g794
a(lp802
S'see'
p803
aS'the'
p804
aS'oil'
p805
aS'THUMP'
p806
aS'tank'
p807
aS'THUMP'
p808
aS'here'
p809
aaa(lp810
g794
a(lp811
S'Isnt'
p812
aS'that'
p813
aS'an'
p814
aS'oil'
p815
aS'tank'
p816
aaa(lp817
S'SETHYeah'
p818
a(lp819
aa(lp820
S'LARRY'
p821
a(lp822
S'Thats'
p823
aS'what'
p824
aS'my'
p825
aS'guess'
p826
aS'is'
p827
aaa(lp828
g821
a(lp829
S'And'
p830
aS'uh'
p831
aaa(lp832
S'X'
p833
a(lp834
S'THUMP'
p835
aS'THUMP'
p836
aaa(lp837
S'SETH'
p838
a(lp839
S'Wow'
p840
aaa(lp841
S'LARRY'
p842
a(lp843
S'do'
p844
aS'you'
p845
aS'have'
p846
ag134
aS'flashlight'
p847
aS'on'
p848
aS'you'
p849
aaa(lp850
S'SETHSure'
p851
a(lp852
S'do'
p853
aaa(lp854
S'LARRYX'
p855
a(lp856
S'Yeah'
p857
ag135
aaa(lp858
S'SETH'
p859
a(lp860
S'So'
p861
aaa(lp862
g859
a(lp863
g135
aS'then'
p864
aS'you'
p865
ag135
aS'get'
p866
aS'duct'
p867
aS'work'
p868
aaa(lp869
g859
a(lp870
S'Or'
p871
aS'is'
p872
aS'this'
p873
aS'the'
p874
aS'flue'
p875
aaa(lp876
S'LARRY'
p877
a(lp878
S'Well'
p879
aaa(lp880
g877
a(lp881
S'yeah'
p882
aaa(lp883
g877
a(lp884
S'What'
p885
aS'they'
p886
aS'did'
p887
aaa(lp888
S'SETH'
p889
a(lp890
S'Thats'
p891
aS'the'
p892
aS'flue'
p893
ag75
aS'guess'
p894
aaa(lp895
S'LARRYthey'
p896
a(lp897
S'they'
p898
aS'took'
p899
aS'the'
p900
aS'stubs'
p901
aaa(lp902
g896
a(lp903
S'and'
p904
aS'they'
p905
aS'cleaned'
p906
aS'em'
p907
aS'up'
p908
aaa(lp909
g896
a(lp910
S'So'
p911
aS'you'
p912
aS'can'
p913
aS'tie'
p914
aS'right'
p915
aS'into'
p916
aS'em'
p917
aaa(lp918
g896
a(lp919
S'See'
p920
aaa(lp921
S'SETH'
p922
a(lp923
S'Yeah'
p924
aaa(lp925
g922
a(lp926
S'So'
p927
aS'this'
p928
aS'used'
p929
aS'to'
p930
aS'have'
p931
aS'asbestos'
p932
aaa(lp933
g922
a(lp934
S'Hunh'
p935
aaa(lp936
S'LARRYYeah'
p937
a(lp938
aa(lp939
S'SETHWhere'
p940
a(lp941
S'did'
p942
aS'all'
p943
aS'this'
p944
aS'connect'
p945
aaa(lp946
g940
a(lp947
S'Was'
p948
aS'there'
p949
ag134
ag134
aS'plenum'
p950
aS'on'
p951
aS'top'
p952
aS'of'
p953
aS'here'
p954
aaa(lp955
S'LARRY'
p956
a(lp957
S'So'
p958
aaa(lp959
g956
a(lp960
S'Yeah'
p961
aaa(lp962
g956
a(lp963
S'There'
p964
aS'was'
p965
ag134
aS'big'
p966
aS'hood'
p967
aS'that'
p968
aS'went'
p969
aS'over'
p970
aS'the'
p971
aS'top'
p972
aS'of'
p973
aS'this'
p974
aS'thing'
p975
aaa(lp976
g956
a(lp977
S'with'
p978
aS'these'
p979
aS'stack'
p980
aS'that'
p981
aS'went'
p982
aS'this'
p983
aS'way'
p984
aaa(lp985
S'SETH'
p986
a(lp987
S'Okay'
p988
aaa(lp989
g986
a(lp990
S'Yeah'
p991
aS'like'
p992
aS'an'
p993
aS'octopus'
p994
aS'type'
p995
aaa(lp996
S'LARRY'
p997
a(lp998
S'and'
p999
aS'then'
p1000
aS'one'
p1001
aS'that'
p1002
aS'goes'
p1003
aS'back'
p1004
aaa(lp1005
g997
a(lp1006
S'un'
p1007
aS'underneath'
p1008
aS'there'
p1009
aS'to'
p1010
aS'the'
p1011
aaa(lp1012
g997
a(lp1013
S'to'
p1014
aS'the'
p1015
aS'uh'
p1016
aS'kitchen'
p1017
aaa(lp1018
g997
a(lp1019
S'there'
p1020
aS'are'
p1021
aS'there'
p1022
aS'are'
p1023
aS'different'
p1024
aaa(lp1025
g997
a(lp1026
S'there'
p1027
aS'are'
p1028
aS'different'
p1029
aS'ones'
p1030
aaa(lp1031
g997
a(lp1032
S'that'
p1033
aS'kinda'
p1034
aS'go'
p1035
aS'all'
p1036
aS'the'
p1037
aS'way'
p1038
aS'up'
p1039
aaa(lp1040
S'SETH'
p1041
a(lp1042
g75
aS'see'
p1043
aS'one'
p1044
aS'r'
p1045
aaa(lp1046
g1041
a(lp1047
S'theres'
p1048
ag134
aS'rectangular'
p1049
aS'one'
p1050
aS'right'
p1051
aS'there'
p1052
aaa(lp1053
S'LARRY'
p1054
a(lp1055
S'Yeah'
p1056
aaa(lp1057
S'SETH'
p1058
a(lp1059
S'is'
p1060
aS'that'
p1061
aS'one'
p1062
aS'right'
p1063
aS'there'
p1064
aaa(lp1065
g1058
a(lp1066
S'w'
p1067
aS'that'
p1068
aS'Im'
p1069
aS'flashing'
p1070
aS'my'
p1071
aS'light'
p1072
aS'on'
p1073
aaa(lp1074
S'LARRYYeah'
p1075
a(lp1076
aa(lp1077
g1075
a(lp1078
S'it'
p1079
aS'might'
p1080
aS'be'
p1081
aaa(lp1082
g1075
a(lp1083
S'It'
p1084
aS'kinda'
p1085
aS'looks'
p1086
aS'like'
p1087
aS'it'
p1088
aaa(lp1089
g1075
a(lp1090
S'And'
p1091
aS'then'
p1092
aS'there'
p1093
aS'was'
p1094
aaa(lp1095
g1075
a(lp1096
S'theres'
p1097
aS'one'
p1098
aS'farther'
p1099
aS'up'
p1100
aaa(lp1101
g1075
a(lp1102
S'and'
p1103
aS'then'
p1104
aS'there'
p1105
aS'is'
p1106
aS'this'
p1107
aS'THUMP'
p1108
aS'one'
p1109
aS'here'
p1110
aS'THUMP'
p1111
aaa(lp1112
S'SETH'
p1113
a(lp1114
S'So'
p1115
aS'you'
p1116
ag135
aS'have'
p1117
ag135
aS'one'
p1118
aS'two'
p1119
aS'three'
p1120
aaa(lp1121
g1113
a(lp1122
S'at'
p1123
aS'least'
p1124
aS'two'
p1125
aS'there'
p1126
aaa(lp1127
S'LARRY'
p1128
a(lp1129
S'Three'
p1130
aaa(lp1131
g1128
a(lp1132
S'and'
p1133
aS'then'
p1134
aS'theres'
p1135
aS'another'
p1136
aS'one'
p1137
aS'way'
p1138
aS'down'
p1139
aaa(lp1140
g1128
a(lp1141
g75
aS'dont'
p1142
aS'know'
p1143
aS'if'
p1144
aS'you'
p1145
aS'can'
p1146
aS'see'
p1147
aS'it'
p1148
aS'or'
p1149
aS'not'
p1150
aaa(lp1151
g1128
a(lp1152
S'but'
p1153
aS'its'
p1154
aaa(lp1155
g1128
a(lp1156
S'its'
p1157
aS'up'
p1158
aS'into'
p1159
aS'the'
p1160
aS'kitchen'
p1161
aaa(lp1162
S'SETH'
p1163
a(lp1164
S'So'
p1165
aS'theres'
p1166
aS'probably'
p1167
aS'three'
p1168
aS'back'
p1169
aS'there'
p1170
aaa(lp1171
g1163
a(lp1172
S'and'
p1173
ag134
aaa(lp1174
g1163
a(lp1175
S'and'
p1176
aS'any'
p1177
aS'over'
p1178
aS'on'
p1179
aS'this'
p1180
aS'side'
p1181
aaa(lp1182
S'LARRY'
p1183
a(lp1184
S'Well'
p1185
aaa(lp1186
g1183
a(lp1187
S'no'
p1188
aS'but'
p1189
aaa(lp1190
g1183
a(lp1191
S'what'
p1192
aS'what'
p1193
aS'we'
p1194
aaa(lp1195
g1183
a(lp1196
S'we'
p1197
aS'want'
p1198
aS'to'
p1199
ag155
aS'you'
p1200
aS'to'
p1201
aS'kinda'
p1202
aS'give'
p1203
aS'us'
p1204
aS'an'
p1205
aS'idea'
p1206
aaa(lp1207
g1183
a(lp1208
S'on'
p1209
ag134
ag1067
aS'what'
p1210
aS'your'
p1211
aS'thoughts'
p1212
aS'are'
p1213
aaa(lp1214
S'SETH'
p1215
a(lp1216
S'You'
p1217
aS'wanna'
p1218
aS'add'
p1219
ag134
aS'c'
p1220
aaa(lp1221
g1215
a(lp1222
S'add'
p1223
ag134
aS'few'
p1224
aS'more'
p1225
aaa(lp1226
S'LARRYAdd'
p1227
a(lp1228
g134
aS'couple'
p1229
aaa(lp1230
g1227
a(lp1231
S'Yeah'
p1232
aaa(lp1233
g1227
a(lp1234
S'Back'
p1235
aaa(lp1236
g1227
a(lp1237
S'ee'
p1238
aS'way'
p1239
aS'back'
p1240
aS'there'
p1241
aaa(lp1242
g1227
a(lp1243
S'Is'
p1244
aS'that'
p1245
aS'one'
p1246
aS'way'
p1247
aS'back'
p1248
aaa(lp1249
g1227
a(lp1250
g135
aS'Cant'
p1251
aS'see'
p1252
aS'it'
p1253
ag135
aaa(lp1254
S'SETH'
p1255
a(lp1256
S'XX'
p1257
aS'get'
p1258
aS'this'
p1259
aS'thing'
p1260
aaa(lp1261
S'LARRY'
p1262
a(lp1263
g135
aS'To'
p1264
aS'help'
p1265
ag135
aaa(lp1266
S'SETH'
p1267
a(lp1268
S'to'
p1269
ag134
aS'point'
p1270
aaa(lp1271
S'LARRY'
p1272
a(lp1273
g75
aS'dont'
p1274
aS'know'
p1275
aS'what'
p1276
aS'this'
p1277
aS'was'
p1278
aaa(lp1279
g1272
a(lp1280
S'looks'
p1281
aS'like'
p1282
aS'they'
p1283
aaa(lp1284
S'SETHThat'
p1285
a(lp1286
S'was'
p1287
aS'connected'
p1288
aS'to'
p1289
aS'one'
p1290
aS'of'
p1291
aS'em'
p1292
aaa(lp1293
S'LARRY'
p1294
a(lp1295
S'Yeah'
p1296
aaa(lp1297
g1294
a(lp1298
S'They'
p1299
aS'left'
p1300
aS'that'
p1301
aS'here'
p1302
aaa(lp1303
S'SETH'
p1304
a(lp1305
g75
aS'dont'
p1306
aS'see'
p1307
aS'any'
p1308
aS'back'
p1309
aS'in'
p1310
aS'here'
p1311
aaa(lp1312
g1304
a(lp1313
S'but'
p1314
aaa(lp1315
S'LARRY'
p1316
a(lp1317
S'Well'
p1318
aS'theres'
p1319
aS'theres'
p1320
aS'definitely'
p1321
aS'one'
p1322
aS'back'
p1323
aS'there'
p1324
aaa(lp1325
g1316
a(lp1326
S'Now'
p1327
aS'theres'
p1328
aS'nothing'
p1329
aS'out'
p1330
aS'here'
p1331
aaa(lp1332
g1316
a(lp1333
S'and'
p1334
aS'this'
p1335
aS'is'
p1336
aS'where'
p1337
aS'we'
p1338
aS'feel'
p1339
aS'we'
p1340
aS'we'
p1341
aS'should'
p1342
aS'add'
p1343
aS'one'
p1344
aaa(lp1345
g1316
a(lp1346
S'Is'
p1347
aaa(lp1348
g1316
a(lp1349
S'this'
p1350
aS'is'
p1351
ag134
aaa(lp1352
g1316
a(lp1353
S'gonna'
p1354
aS'be'
p1355
ag134
aS'dining'
p1356
aS'room'
p1357
aaa(lp1358
S'SETH'
p1359
a(lp1360
S'okay'
p1361
aaa(lp1362
S'LARRY'
p1363
a(lp1364
S'So'
p1365
aaa(lp1366
g1363
a(lp1367
S'uh'
p1368
aaa(lp1369
g1363
a(lp1370
S'one'
p1371
aS'for'
p1372
aaa(lp1373
g1363
a(lp1374
S'one'
p1375
aS'there'
p1376
aS'for'
p1377
aS'sure'
p1378
aaa(lp1379
S'SETH'
p1380
a(lp1381
S'What'
p1382
aS'about'
p1383
aaa(lp1384
g1380
a(lp1385
S'uh'
p1386
aaa(lp1387
g1380
a(lp1388
S'what'
p1389
aS'about'
p1390
aS'above'
p1391
aS'this'
p1392
aS'section'
p1393
aS'of'
p1394
aS'the'
p1395
aS'house'
p1396
aaa(lp1397
S'LARRY'
p1398
a(lp1399
S'Well'
p1400
aaa(lp1401
g1398
a(lp1402
S'let'
p1403
aS'me'
p1404
aS'show'
p1405
aS'you'
p1406
aS'that'
p1407
aaa(lp1408
g1398
a(lp1409
S'And'
p1410
aS'you'
p1411
aS'can'
p1412
aS'give'
p1413
aaa(lp1414
g1398
a(lp1415
S'you'
p1416
aS'can'
p1417
aS'give'
p1418
aS'me'
p1419
aS'some'
p1420
aS'idea'
p1421
aS'about'
p1422
aS'that'
p1423
aS'as'
p1424
aS'well'
p1425
aaa(lp1426
S'SETH'
p1427
a(lp1428
S'Now'
p1429
aS'uh'
p1430
aaa(lp1431
g1427
a(lp1432
S'you'
p1433
aS'are'
p1434
aS'on'
p1435
aS'propane'
p1436
aaa(lp1437
g1427
a(lp1438
S'out'
p1439
aS'here'
p1440
aaa(lp1441
S'LARRY'
p1442
a(lp1443
S'No'
p1444
aaa(lp1445
g1442
a(lp1446
S'This'
p1447
aS'is'
p1448
aS'natural'
p1449
aS'gas'
p1450
aaa(lp1451
S'SETHOh'
p1452
a(lp1453
S'really'
p1454
aaa(lp1455
S'LARRY'
p1456
a(lp1457
S'Yeah'
p1458
aaa(lp1459
S'SETH'
p1460
a(lp1461
S'Oh'
p1462
aS'good'
p1463
aaa(lp1464
S'LARRY'
p1465
a(lp1466
S'Kinda'
p1467
aS'rare'
p1468
aaa(lp1469
S'SETH'
p1470
a(lp1471
S'Thats'
p1472
aS'good'
p1473
aaa(lp1474
g1470
a(lp1475
S'because'
p1476
aS'uh'
p1477
aaa(lp1478
g1470
a(lp1479
S'the'
p1480
aS'problem'
p1481
aS'with'
p1482
aS'propane'
p1483
aS'is'
p1484
aS'that'
p1485
aaa(lp1486
g1470
a(lp1487
S'they'
p1488
aS'wouldnt'
p1489
aS'be'
p1490
aS'able'
p1491
aS'to'
p1492
aS'v'
p1493
aaa(lp1494
g1470
a(lp1495
S'the'
p1496
aS'co'
p1497
aaa(lp1498
g1470
a(lp1499
S'the'
p1500
aS'county'
p1501
aS'would'
p1502
aS'probably'
p1503
aS'have'
p1504
ag134
aS'problem'
p1505
aS'with'
p1506
aS'it'
p1507
aaa(lp1508
S'LARRY'
p1509
a(lp1510
S'Yeah'
p1511
aaa(lp1512
S'SETH'
p1513
a(lp1514
S'Cause'
p1515
aS'theyre'
p1516
aS'very'
p1517
aS'concerned'
p1518
aS'about'
p1519
aS'propane'
p1520
aaa(lp1521
g1513
a(lp1522
S'But'
p1523
aS'natural'
p1524
aS'gas'
p1525
aaa(lp1526
g1513
a(lp1527
g75
aS'can'
p1528
aS'put'
p1529
ag134
aaa(lp1530
S'LARRY'
p1531
a(lp1532
S'Yeah'
p1533
aaa(lp1534
g1531
a(lp1535
S'we'
p1536
aS'were'
p1537
aS'real'
p1538
aS'happy'
p1539
aS'to'
p1540
aS'get'
p1541
aS'this'
p1542
aS'place'
p1543
aS'with'
p1544
aS'natural'
p1545
aS'gas'
p1546
aaa(lp1547
S'SETH'
p1548
a(lp1549
S'Do'
p1550
aS'you'
p1551
aS'want'
p1552
aS'me'
p1553
aS'to'
p1554
aS'remove'
p1555
aS'the'
p1556
aS'old'
p1557
aS'furnace'
p1558
aaa(lp1559
S'LARRY'
p1560
a(lp1561
aa(lp1562
g1560
a(lp1563
S'Well'
p1564
aS'not'
p1565
aS'have'
p1566
aS'to'
p1567
aaa(lp1568
S'SETH'
p1569
a(lp1570
S'No'
p1571
aS'uh'
p1572
aaa(lp1573
g1569
a(lp1574
S'do'
p1575
aS'you'
p1576
aS'want'
p1577
aS'me'
p1578
aS'to'
p1579
aS'remove'
p1580
aS'it'
p1581
aaa(lp1582
S'LARRYOh'
p1583
a(lp1584
S'yes'
p1585
aaa(lp1586
S'SETHOkay'
p1587
a(lp1588
aa(lp1589
S'LARRY'
p1590
a(lp1591
S'Yeah'
p1592
aaa(lp1593
S'SETH'
p1594
a(lp1595
aa(lp1596
S'LARRY'
p1597
a(lp1598
S'No'
p1599
aS'thats'
p1600
aaa(lp1601
g1597
a(lp1602
S'that'
p1603
aS'would'
p1604
aS'be'
p1605
aS'part'
p1606
aS'of'
p1607
aS'our'
p1608
aS'deal'
p1609
aaa(lp1610
g1597
a(lp1611
S'Yeah'
p1612
aaa(lp1613
S'SETH'
p1614
a(lp1615
S'Well'
p1616
aS'y'
p1617
aS'the'
p1618
aS'new'
p1619
aS'furnace'
p1620
ag1067
aS'would'
p1621
aS'be'
p1622
aS'much'
p1623
aS'smaller'
p1624
aaa(lp1625
g1614
a(lp1626
S'That'
p1627
aS'much'
p1628
ag75
aS'can'
p1629
aS'guarantee'
p1630
aS'you'
p1631
aaa(lp1632
S'LARRY'
p1633
a(lp1634
S'Alright'
p1635
aaa(lp1636
S'SETH'
p1637
a(lp1638
S'Do'
p1639
aS'you'
p1640
aaa(lp1641
S'LARRYX'
p1642
a(lp1643
aa(lp1644
S'SETH'
p1645
a(lp1646
S'How'
p1647
aS'many'
p1648
aS'square'
p1649
aS'feet'
p1650
aS'is'
p1651
aS'the'
p1652
aS'house'
p1653
aaa(lp1654
S'LARRY'
p1655
a(lp1656
S'Uh'
p1657
aaa(lp1658
g1655
a(lp1659
S'well'
p1660
ag75
aS'guess'
p1661
aS'its'
p1662
aS'around'
p1663
aS'twentyeight'
p1664
aaa(lp1665
g1655
a(lp1666
S'Approximately'
p1667
aaa(lp1668
S'SETH'
p1669
a(lp1670
S'Okay'
p1671
aaa(lp1672
S'LARRY'
p1673
a(lp1674
g75
aS'have'
p1675
ag134
aS'roof'
p1676
aS'guy'
p1677
aS'coming'
p1678
aS'about'
p1679
aS'this'
p1680
aS'time'
p1681
aS'too'
p1682
aaa(lp1683
g1673
a(lp1684
S'so'
p1685
aaa(lp1686
S'SETH'
p1687
a(lp1688
S'Youre'
p1689
aS'doing'
p1690
aS'the'
p1691
aS'roof'
p1692
aaa(lp1693
S'LARRY'
p1694
a(lp1695
S'doorbell'
p1696
aS'rings'
p1697
aaa(lp1698
g1694
a(lp1699
S'we'
p1700
aS'know'
p1701
aS'who'
p1702
aS'it'
p1703
aS'is'
p1704
aaa(lp1705
S'SETH'
p1706
a(lp1707
S'Getting'
p1708
ag134
aS'new'
p1709
aS'roof'
p1710
aS'put'
p1711
aS'on'
p1712
aS'too'
p1713
aaa(lp1714
S'ENV'
p1715
a(lp1716
aa(lp1717
S'LARRYWell'
p1718
a(lp1719
g75
aS'got'
p1720
aS'some'
p1721
aS'problems'
p1722
aS'with'
p1723
aS'leakage'
p1724
aS'in'
p1725
aS'certain'
p1726
aS'areas'
p1727
aaa(lp1728
g1718
a(lp1729
S'and'
p1730
aS'just'
p1731
aS'gotta'
p1732
aS'get'
p1733
aS'it'
p1734
aS'fixed'
p1735
aaa(lp1736
g1718
a(lp1737
S'before'
p1738
aS'we'
p1739
aS'get'
p1740
aS'the'
p1741
aS'rain'
p1742
aS'again'
p1743
aaa(lp1744
g1718
a(lp1745
S'Alright'
p1746
aaa(lp1747
g1718
a(lp1748
S'well'
p1749
aS'lets'
p1750
aS'start'
p1751
aS'in'
p1752
aS'the'
p1753
aS'kitchen'
p1754
aaa(lp1755
g1718
a(lp1756
S'Okay'
p1757
aS'this'
p1758
aS'is'
p1759
aaa(lp1760
g1718
a(lp1761
S'this'
p1762
aS'is'
p1763
aS'one'
p1764
aS'right'
p1765
aS'here'
p1766
aaa(lp1767
g1718
a(lp1768
S'See'
p1769
aaa(lp1770
g1718
a(lp1771
g75
aS'dont'
p1772
aS'think'
p1773
aS'you'
p1774
aS'saw'
p1775
aS'this'
p1776
aS'one'
p1777
aaa(lp1778
g1718
a(lp1779
S'but'
p1780
aaa(lp1781
S'SETH'
p1782
a(lp1783
S'Im'
p1784
aS'wondering'
p1785
aS'if'
p1786
aaa(lp1787
g1782
a(lp1788
S'you'
p1789
aS'dont'
p1790
aS'have'
p1791
ag134
aS'floor'
p1792
aS'plan'
p1793
aS'of'
p1794
aS'the'
p1795
aS'house'
p1796
aaa(lp1797
g1782
a(lp1798
S'do'
p1799
aS'you'
p1800
aS'by'
p1801
aS'any'
p1802
aS'chance'
p1803
aaa(lp1804
S'LARRY'
p1805
a(lp1806
S'No'
p1807
aaa(lp1808
g1805
a(lp1809
S'We'
p1810
aS'dont'
p1811
aaa(lp1812
S'SETH'
p1813
a(lp1814
g135
aaa(lp1815
S'LARRY'
p1816
a(lp1817
aa(lp1818
g1816
a(lp1819
S'We'
p1820
aS'didnt'
p1821
aS'get'
p1822
aS'anything'
p1823
aS'when'
p1824
aS'we'
p1825
aS'bought'
p1826
aS'this'
p1827
aS'baby'
p1828
aaa(lp1829
S'SETH'
p1830
a(lp1831
S'Im'
p1832
aS'wondering'
p1833
aS'if'
p1834
ag75
aS'should'
p1835
aS'just'
p1836
aS'sketch'
p1837
aS'it'
p1838
aS'out'
p1839
aaa(lp1840
S'LARRY'
p1841
a(lp1842
S'Uh'
p1843
aaa(lp1844
S'SETHIts'
p1845
a(lp1846
S'twostory'
p1847
aS'though'
p1848
aaa(lp1849
g1845
a(lp1850
S'right'
p1851
aaa(lp1852
S'LARRY'
p1853
a(lp1854
S'Twostory'
p1855
aaa(lp1856
S'SETH'
p1857
a(lp1858
S'Th'
p1859
aaa(lp1860
g1857
a(lp1861
S'Are'
p1862
aS'there'
p1863
ag135
aS'any'
p1864
ag135
aS'registers'
p1865
aS'on'
p1866
aS'the'
p1867
aS'second'
p1868
aS'floor'
p1869
aaa(lp1870
S'LARRYUnhunh'
p1871
a(lp1872
aa(lp1873
S'SETH'
p1874
a(lp1875
S'Okay'
p1876
aaa(lp1877
S'LARRYSo'
p1878
a(lp1879
S'all'
p1880
aS'those'
p1881
aS'st'
p1882
aaa(lp1883
g1878
a(lp1884
S'all'
p1885
aS'those'
p1886
aS'stubs'
p1887
aS'that'
p1888
aS'were'
p1889
aS'behind'
p1890
aS'us'
p1891
aaa(lp1892
g1878
a(lp1893
S'are'
p1894
aS'the'
p1895
aS'ones'
p1896
aS'that'
p1897
aS'go'
p1898
aS'up'
p1899
aS'through'
p1900
aS'the'
p1901
aS'wall'
p1902
aaa(lp1903
S'SETH'
p1904
a(lp1905
S'Oh'
p1906
aaa(lp1907
g1904
a(lp1908
S'Okay'
p1909
aaa(lp1910
S'LARRY'
p1911
a(lp1912
aa(lp1913
S'SETHWell'
p1914
a(lp1915
S'thats'
p1916
aS'no'
p1917
aS'problem'
p1918
aaa(lp1919
S'LARRY'
p1920
a(lp1921
S'Uh'
p1922
aaa(lp1923
S'SETHas'
p1924
a(lp1925
S'long'
p1926
aS'as'
p1927
ag75
aS'dont'
p1928
aS'have'
p1929
aS'to'
p1930
aS'do'
p1931
aS'any'
p1932
aS'ducting'
p1933
aS'to'
p1934
aS'the'
p1935
aS'second'
p1936
aS'floor'
p1937
aaa(lp1938
S'LARRYyeah'
p1939
a(lp1940
aa(lp1941
g1939
a(lp1942
S'No'
p1943
aaa(lp1944
g1939
a(lp1945
g135
aS'They'
p1946
ag135
aS'only'
p1947
aaa(lp1948
g1939
a(lp1949
S'the'
p1950
aS'only'
p1951
aS'thing'
p1952
aS'that'
p1953
aS'we'
p1954
aS'wanted'
p1955
aS'you'
p1956
aS'to'
p1957
aS'do'
p1958
aS'is'
p1959
aS'tie'
p1960
aS'into'
p1961
aS'the'
p1962
aS'existing'
p1963
aS'ones'
p1964
aaa(lp1965
S'SETH'
p1966
a(lp1967
S'Okay'
p1968
aaa(lp1969
S'LARRY'
p1970
a(lp1971
S'which'
p1972
aS'are'
p1973
aS'on'
p1974
aS'the'
p1975
aS'ground'
p1976
aS'level'
p1977
aaa(lp1978
S'SETH'
p1979
a(lp1980
S'How'
p1981
aS'about'
p1982
aS'that'
p1983
aS'one'
p1984
aS'right'
p1985
aS'there'
p1986
aaa(lp1987
g1979
a(lp1988
S'Is'
p1989
aS'that'
p1990
aS'one'
p1991
aaa(lp1992
S'LARRY'
p1993
a(lp1994
S'Uh'
p1995
aaa(lp1996
g1993
a(lp1997
S'yeah'
p1998
aaa(lp1999
g1993
a(lp2000
S'Thats'
p2001
aS'one'
p2002
aS'as'
p2003
aS'well'
p2004
aaa(lp2005
g1993
a(lp2006
S'And'
p2007
aS'then'
p2008
aS'the'
p2009
aS'return'
p2010
aS'is'
p2011
aS'back'
p2012
aS'here'
p2013
aaa(lp2014
S'SETH'
p2015
a(lp2016
S'Okay'
p2017
aaa(lp2018
g2015
a(lp2019
S'Good'
p2020
aS'sized'
p2021
aS'return'
p2022
aaa(lp2023
S'LARRY'
p2024
a(lp2025
S'Yeah'
p2026
aaa(lp2027
S'SETHNow'
p2028
a(lp2029
S'youre'
p2030
aS'not'
p2031
aS'looking'
p2032
aS'at'
p2033
aS'adding'
p2034
aS'air'
p2035
aS'conditioning'
p2036
aaa(lp2037
g2028
a(lp2038
S'Right'
p2039
aaa(lp2040
S'LARRYWell'
p2041
a(lp2042
aa(lp2043
g2041
a(lp2044
S'we'
p2045
aS'would'
p2046
aS'like'
p2047
aS'to'
p2048
aS'have'
p2049
aS'that'
p2050
aS'as'
p2051
aS'an'
p2052
aS'option'
p2053
aaa(lp2054
S'SETH'
p2055
a(lp2056
g135
aaa(lp2057
g2055
a(lp2058
S'Okay'
p2059
aaa(lp2060
S'LARRY'
p2061
a(lp2062
S'We'
p2063
aS'could'
p2064
aS'always'
p2065
aS'add'
p2066
aS'that'
p2067
aS'later'
p2068
aaa(lp2069
g2061
a(lp2070
S'Right'
p2071
aaa(lp2072
S'SETH'
p2073
a(lp2074
S'Yeah'
p2075
aaa(lp2076
g2073
a(lp2077
S'One'
p2078
aS'of'
p2079
aS'the'
p2080
aS'things'
p2081
aS'you'
p2082
aS'can'
p2083
aS'do'
p2084
aaa(lp2085
g2073
a(lp2086
S'if'
p2087
aS'if'
p2088
aS'you'
p2089
aS'dont'
p2090
aS'wanna'
p2091
aS'do'
p2092
aS'it'
p2093
aS'now'
p2094
aaa(lp2095
g2073
a(lp2096
S'you'
p2097
aS'can'
p2098
aaa(lp2099
g2073
a(lp2100
S'what'
p2101
aS'they'
p2102
aS'call'
p2103
aaa(lp2104
g2073
a(lp2105
S'prep'
p2106
aS'for'
p2107
aS'air'
p2108
aS'conditioning'
p2109
aaa(lp2110
g2073
a(lp2111
S'You'
p2112
aS'can'
p2113
aS'put'
p2114
aS'in'
p2115
aS'the'
p2116
aS'coil'
p2117
aaa(lp2118
g2073
a(lp2119
S'See'
p2120
aS'youve'
p2121
aS'got'
p2122
aS'the'
p2123
aS'furnace'
p2124
aS'and'
p2125
aS'the'
p2126
aS'coil'
p2127
aaa(lp2128
S'LARRY'
p2129
a(lp2130
g135
aS'Yeah'
p2131
ag135
aaa(lp2132
S'SETH'
p2133
a(lp2134
S'and'
p2135
aS'then'
p2136
aaa(lp2137
g2133
a(lp2138
S'when'
p2139
aS'you'
p2140
aS'add'
p2141
aS'air'
p2142
aS'conditioning'
p2143
aS'in'
p2144
aS'the'
p2145
aS'future'
p2146
aaa(lp2147
g2133
a(lp2148
S'all'
p2149
aS'you'
p2150
aS'gotta'
p2151
aS'do'
p2152
aS'is'
p2153
aS'put'
p2154
aS'the'
p2155
aS'outdoor'
p2156
aS'condensing'
p2157
aS'unit'
p2158
aaa(lp2159
g2133
a(lp2160
S'and'
p2161
aS'refrigerant'
p2162
aS'piping'
p2163
aS'to'
p2164
aS'that'
p2165
aS'coil'
p2166
aaa(lp2167
g2133
a(lp2168
S'So'
p2169
aS'it'
p2170
aS'saves'
p2171
aaa(lp2172
g2133
a(lp2173
S'it'
p2174
aS'saves'
p2175
aS'additional'
p2176
aS'work'
p2177
aS'in'
p2178
aS'the'
p2179
aS'future'
p2180
aaa(lp2181
S'LARRY'
p2182
a(lp2183
S'Mhm'
p2184
aaa(lp2185
S'SETHOtherwise'
p2186
a(lp2187
S'you'
p2188
aS'gotta'
p2189
aS'come'
p2190
aS'back'
p2191
aS'and'
p2192
aS'put'
p2193
aS'the'
p2194
aS'coil'
p2195
aS'in'
p2196
aaa(lp2197
g2186
a(lp2198
S'which'
p2199
aS'means'
p2200
aS'you'
p2201
aS'gotta'
p2202
aS'modify'
p2203
aS'the'
p2204
aS'duct'
p2205
aS'work'
p2206
aaa(lp2207
g2186
a(lp2208
S'to'
p2209
aS'get'
p2210
aS'that'
p2211
aS'coil'
p2212
aS'in'
p2213
aS'there'
p2214
aS'so'
p2215
aaa(lp2216
S'LARRY'
p2217
a(lp2218
S'Right'
p2219
aaa(lp2220
S'SETH'
p2221
a(lp2222
S'if'
p2223
aS'youre'
p2224
aS'thinking'
p2225
aS'about'
p2226
aS'doing'
p2227
aS'it'
p2228
aS'in'
p2229
aS'the'
p2230
aS'future'
p2231
aaa(lp2232
g2221
a(lp2233
S'you'
p2234
aS'might'
p2235
aS'wanna'
p2236
aS'at'
p2237
aS'least'
p2238
aS'put'
p2239
aS'the'
p2240
aS'coil'
p2241
aS'in'
p2242
aaa(lp2243
g2221
a(lp2244
S'It'
p2245
aS'only'
p2246
aS'costs'
p2247
aS'about'
p2248
aS'threehundred'
p2249
aS'fifty'
p2250
aS'dollars'
p2251
aS'for'
p2252
aS'the'
p2253
aS'coil'
p2254
aaa(lp2255
S'LARRYOh'
p2256
a(lp2257
aa(lp2258
g2256
a(lp2259
S'Alright'
p2260
aaa(lp2261
S'SETH'
p2262
a(lp2263
S'Its'
p2264
aS'the'
p2265
aS'its'
p2266
aS'the'
p2267
aS'outdoor'
p2268
aS'air'
p2269
aS'conditioning'
p2270
ag135
aS'that'
p2271
ag135
aaa(lp2272
S'LARRY'
p2273
a(lp2274
S'Well'
p2275
aaa(lp2276
g2273
a(lp2277
S'write'
p2278
aS'that'
p2279
aS'in'
p2280
aS'there'
p2281
aaa(lp2282
g2273
a(lp2283
S'anyway'
p2284
aS'in'
p2285
aS'the'
p2286
aS'in'
p2287
aS'the'
p2288
aS'quote'
p2289
aaa(lp2290
S'SETH'
p2291
a(lp2292
S'And'
p2293
aS'now'
p2294
aS'thats'
p2295
aS'the'
p2296
aS'the'
p2297
aS'dining'
p2298
aS'room'
p2299
aS'you'
p2300
aS'wanna'
p2301
aS'add'
p2302
aaa(lp2303
S'LARRYYeah'
p2304
a(lp2305
aa(lp2306
g2304
a(lp2307
S'If'
p2308
aS'you'
p2309
aaa(lp2310
g2304
a(lp2311
S'if'
p2312
aS'you'
p2313
aS'go'
p2314
aS'over'
p2315
aS'and'
p2316
aS'have'
p2317
ag134
aS'look'
p2318
aS'at'
p2319
aS'the'
p2320
aS'dining'
p2321
aS'room'
p2322
aaa(lp2323
S'SETHYou'
p2324
a(lp2325
S'got'
p2326
ag134
aS'lotta'
p2327
aS'glass'
p2328
aS'in'
p2329
aS'that'
p2330
aS'room'
p2331
aS'it'
p2332
aS'looks'
p2333
aS'like'
p2334
aaa(lp2335
S'LARRYyeah'
p2336
a(lp2337
aa(lp2338
g2336
a(lp2339
S'and'
p2340
aS'were'
p2341
aS'gonna'
p2342
aS'be'
p2343
aS'making'
p2344
aS'changes'
p2345
aS'to'
p2346
aS'the'
p2347
aS'to'
p2348
aS'the'
p2349
aS'house'
p2350
aS'too'
p2351
aaa(lp2352
g2336
a(lp2353
S'so'
p2354
aS'were'
p2355
aS'keeping'
p2356
aS'that'
p2357
aS'in'
p2358
aS'mind'
p2359
aaa(lp2360
g2336
a(lp2361
S'But'
p2362
aS'if'
p2363
aS'you'
p2364
aS'notice'
p2365
aaa(lp2366
g2336
a(lp2367
S'there'
p2368
aS'are'
p2369
aS'no'
p2370
aS'registers'
p2371
aS'in'
p2372
aS'here'
p2373
aaa(lp2374
g2336
a(lp2375
S'So'
p2376
aaa(lp2377
S'SETH'
p2378
a(lp2379
S'Is'
p2380
aS'this'
p2381
aS'accessible'
p2382
aaa(lp2383
S'LARRY'
p2384
a(lp2385
S'oh'
p2386
aS'yeah'
p2387
aaa(lp2388
S'SETH'
p2389
a(lp2390
g75
aS'wonder'
p2391
aaa(lp2392
g2389
a(lp2393
g75
aS'wonder'
p2394
aS'if'
p2395
aaa(lp2396
g2389
a(lp2397
S'was'
p2398
aS'this'
p2399
aS'added'
p2400
aS'on'
p2401
aS'you'
p2402
aS'think'
p2403
aaa(lp2404
S'LARRY'
p2405
a(lp2406
aa(lp2407
S'SETH'
p2408
a(lp2409
S'maybe'
p2410
aaa(lp2411
g2408
a(lp2412
S'Im'
p2413
aS'just'
p2414
aS'wondering'
p2415
aS'if'
p2416
aS'that'
p2417
aS'foundation'
p2418
aS'wall'
p2419
aaa(lp2420
S'LARRY'
p2421
a(lp2422
S'M'
p2423
aaa(lp2424
g2421
a(lp2425
S'It'
p2426
aS'mightve'
p2427
aS'been'
p2428
aaa(lp2429
S'SETH'
p2430
a(lp2431
S'goes'
p2432
aS'to'
p2433
aS'that'
p2434
aaa(lp2435
g2430
a(lp2436
g75
aS'wonder'
p2437
aS'if'
p2438
ag75
aS'can'
p2439
aS'get'
p2440
aS'into'
p2441
aS'this'
p2442
aaa(lp2443
S'LARRYOh'
p2444
a(lp2445
S'you'
p2446
aS'can'
p2447
aS'get'
p2448
aS'into'
p2449
aS'it'
p2450
aaa(lp2451
g2444
a(lp2452
S'Yeah'
p2453
aaa(lp2454
S'SETH'
p2455
a(lp2456
S'Okay'
p2457
aaa(lp2458
S'LARRY'
p2459
a(lp2460
S'Oh'
p2461
aS'yeah'
p2462
aaa(lp2463
g2459
a(lp2464
S'Ive'
p2465
aS'been'
p2466
aS'under'
p2467
aS'here'
p2468
aaa(lp2469
S'SETH'
p2470
a(lp2471
S'Oh'
p2472
aS'okay'
p2473
aaa(lp2474
g2470
a(lp2475
S'Good'
p2476
aaa(lp2477
S'LARRY'
p2478
a(lp2479
S'So'
p2480
aaa(lp2481
g2478
a(lp2482
S'this'
p2483
aS'is'
p2484
aS'not'
p2485
ag134
aS'problem'
p2486
aaa(lp2487
S'SETH'
p2488
a(lp2489
S'Shoot'
p2490
aS'Id'
p2491
aS'probably'
p2492
aS'go'
p2493
aS'with'
p2494
aS'two'
p2495
aS'registers'
p2496
aS'in'
p2497
aS'this'
p2498
aS'room'
p2499
aaa(lp2500
S'LARRY'
p2501
a(lp2502
g135
aaa(lp2503
g2501
a(lp2504
S'Alright'
p2505
aaa(lp2506
g2501
a(lp2507
g135
aaa(lp2508
S'SETHId'
p2509
a(lp2510
S'probably'
p2511
aS'go'
p2512
aS'like'
p2513
aS'one'
p2514
aS'here'
p2515
aaa(lp2516
S'LARRY'
p2517
a(lp2518
g135
aS'Oh'
p2519
aS'yeah'
p2520
ag135
aaa(lp2521
S'SETHand'
p2522
a(lp2523
S'one'
p2524
aS'one'
p2525
aS'there'
p2526
aaa(lp2527
S'LARRY'
p2528
a(lp2529
S'youd'
p2530
aS'do'
p2531
aS'one'
p2532
aS'over'
p2533
aS'there'
p2534
aS'as'
p2535
aS'well'
p2536
aaa(lp2537
S'SETH'
p2538
a(lp2539
S'Cause'
p2540
aS'its'
p2541
ag134
aS'goodsized'
p2542
aS'room'
p2543
aS'with'
p2544
ag134
aS'lot'
p2545
aS'of'
p2546
aS'glass'
p2547
aaa(lp2548
S'LARRY'
p2549
a(lp2550
S'Okay'
p2551
aaa(lp2552
S'SETH'
p2553
a(lp2554
S'Or'
p2555
aS'you'
p2556
aS'could'
p2557
aS'do'
p2558
aS'it'
p2559
aaa(lp2560
g2553
a(lp2561
S'you'
p2562
aS'know'
p2563
aaa(lp2564
g2553
a(lp2565
S'you'
p2566
aS'could'
p2567
aS'put'
p2568
aS'like'
p2569
aS'one'
p2570
aS'on'
p2571
aS'this'
p2572
aS'wall'
p2573
aaa(lp2574
g2553
a(lp2575
S'and'
p2576
aS'one'
p2577
aS'on'
p2578
aS'that'
p2579
aS'wall'
p2580
aaa(lp2581
S'LARRY'
p2582
a(lp2583
S'Okay'
p2584
aaa(lp2585
g2582
a(lp2586
S'on'
p2587
aS'the'
p2588
aS'two'
p2589
aS'two'
p2590
aS'outside'
p2591
aaa(lp2592
S'SETH'
p2593
a(lp2594
S'And'
p2595
aS'then'
p2596
aS'Id'
p2597
aS'probably'
p2598
aS'tie'
p2599
aS'em'
p2600
aS'both'
p2601
aS'together'
p2602
aaa(lp2603
S'LARRYYeah'
p2604
a(lp2605
aa(lp2606
S'SETH'
p2607
a(lp2608
S'into'
p2609
aS'one'
p2610
aS'Ybranch'
p2611
aaa(lp2612
g2607
a(lp2613
S'you'
p2614
aS'know'
p2615
aS'like'
p2616
aS'the'
p2617
aS'room'
p2618
aaa(lp2619
S'LARRY'
p2620
a(lp2621
S'Mhm'
p2622
aaa(lp2623
S'SETH'
p2624
a(lp2625
S'the'
p2626
aS'room'
p2627
aS'is'
p2628
aS'shaped'
p2629
aS'somewhat'
p2630
aS'like'
p2631
aS'this'
p2632
aaa(lp2633
g2624
a(lp2634
g135
ag75
aS'could'
p2635
ag135
aS'put'
p2636
aS'like'
p2637
aS'one'
p2638
aS'there'
p2639
aaa(lp2640
g2624
a(lp2641
S'one'
p2642
aS'there'
p2643
aaa(lp2644
S'LARRYNow'
p2645
a(lp2646
S'what'
p2647
aS'wed'
p2648
aS'want'
p2649
aS'you'
p2650
aS'to'
p2651
aS'do'
p2652
aaa(lp2653
g2645
a(lp2654
S'in'
p2655
aS'this'
p2656
aS'case'
p2657
aaa(lp2658
g2645
a(lp2659
S'is'
p2660
aS'maybe'
p2661
aaa(lp2662
S'SETH'
p2663
a(lp2664
S'tie'
p2665
aS'those'
p2666
aS'together'
p2667
aS'like'
p2668
aS'that'
p2669
aaa(lp2670
S'LARRY'
p2671
a(lp2672
S'See'
p2673
aS'this'
p2674
aS'this'
p2675
aaa(lp2676
g2671
a(lp2677
S'The'
p2678
aS'end'
p2679
aS'of'
p2680
aS'this'
p2681
aS'room'
p2682
aS'might'
p2683
aS'be'
p2684
aS'modified'
p2685
aaa(lp2686
g2671
a(lp2687
S'So'
p2688
aaa(lp2689
g2671
a(lp2690
S'all'
p2691
aS'we'
p2692
aS'wanna'
p2693
aS'know'
p2694
aS'is'
p2695
aaa(lp2696
g2671
a(lp2697
S'is'
p2698
aS'that'
p2699
aS'we'
p2700
aS'can'
p2701
aS'eventually'
p2702
aS'be'
p2703
aS'able'
p2704
aS'to'
p2705
aS'do'
p2706
aS'this'
p2707
aaa(lp2708
g2671
a(lp2709
S'Alright'
p2710
aaa(lp2711
g2671
a(lp2712
S'To'
p2713
aS'to'
p2714
aS'get'
p2715
aS'get'
p2716
aS'this'
p2717
aS'duct'
p2718
aS'work'
p2719
aS'done'
p2720
aaa(lp2721
g2671
a(lp2722
S'when'
p2723
aS'we'
p2724
aS'do'
p2725
aaa(lp2726
g2671
a(lp2727
S'when'
p2728
aS'we'
p2729
aS'do'
p2730
aS'the'
p2731
aS'modification'
p2732
aS'to'
p2733
aS'the'
p2734
aaa(lp2735
S'SETH'
p2736
a(lp2737
S'Oh'
p2738
aaa(lp2739
g2736
a(lp2740
S'so'
p2741
aS'you'
p2742
aS'may'
p2743
aS'not'
p2744
aS'do'
p2745
aS'the'
p2746
aS'duct'
p2747
aS'work'
p2748
aS'at'
p2749
aS'this'
p2750
aS'point'
p2751
aaa(lp2752
S'LARRYNot'
p2753
a(lp2754
S'not'
p2755
aS'in'
p2756
aS'this'
p2757
aS'room'
p2758
aaa(lp2759
S'SETHX'
p2760
a(lp2761
S'XX'
p2762
aS'do'
p2763
aS'it'
p2764
aS'in'
p2765
aS'the'
p2766
aS'future'
p2767
aaa(lp2768
S'LARRYWe'
p2769
a(lp2770
S'm'
p2771
aaa(lp2772
g2769
a(lp2773
S'Yeah'
p2774
aaa(lp2775
g2769
a(lp2776
S'Uh'
p2777
ag75
ag75
aS'hate'
p2778
aS'to'
p2779
aS'see'
p2780
aS'us'
p2781
aS'do'
p2782
aS'it'
p2783
aaa(lp2784
S'SETH'
p2785
a(lp2786
g135
aS'Where'
p2787
aS'are'
p2788
aS'gonna'
p2789
aS'be'
p2790
aS'your'
p2791
ag135
aaa(lp2792
S'LARRY'
p2793
a(lp2794
S'although'
p2795
aS'if'
p2796
aS'we'
p2797
aS'do'
p2798
aS'it'
p2799
aS'in'
p2800
aS'the'
p2801
aS'sidewalls'
p2802
aaa(lp2803
S'SETHWell'
p2804
a(lp2805
S'what'
p2806
aS'would'
p2807
aS'the'
p2808
aS'modification'
p2809
aS'be'
p2810
aaa(lp2811
S'LARRY'
p2812
a(lp2813
S'Oh'
p2814
aS'we'
p2815
aS'might'
p2816
aS'take'
p2817
aS'this'
p2818
aS'out'
p2819
aaa(lp2820
g2812
a(lp2821
S'and'
p2822
aS'we'
p2823
aS'might'
p2824
aS'push'
p2825
aS'this'
p2826
aS'out'
p2827
aS'further'
p2828
aaa(lp2829
g2812
a(lp2830
S'and'
p2831
aaa(lp2832
g2812
a(lp2833
S'uh'
p2834
aaa(lp2835
g2812
a(lp2836
S'well'
p2837
aaa(lp2838
g2812
a(lp2839
S'heres'
p2840
aS'the'
p2841
aS'drawings'
p2842
aaa(lp2843
g2812
a(lp2844
S'right'
p2845
aS'here'
p2846
aaa(lp2847
g2812
a(lp2848
S'h'
p2849
aaa(lp2850
g2812
a(lp2851
g329
aS'lets'
p2852
aS'see'
p2853
aaa(lp2854
g2812
a(lp2855
S'thats'
p2856
aS'the'
p2857
aS'guest'
p2858
aS'house'
p2859
aaa(lp2860
g2812
a(lp2861
S'Where'
p2862
aS'is'
p2863
aS'that'
p2864
aS'sucker'
p2865
ag329
aaa(lp2866
S'SETH'
p2867
a(lp2868
S'Dining'
p2869
aS'room'
p2870
aaa(lp2871
S'LARRY'
p2872
a(lp2873
S'Yeah'
p2874
aaa(lp2875
g2872
a(lp2876
S'Yeah'
p2877
aaa(lp2878
g2872
a(lp2879
g75
aaa(lp2880
g2872
a(lp2881
S'Its'
p2882
aS'right'
p2883
aaa(lp2884
g2872
a(lp2885
S'i'
p2886
aaa(lp2887
g2872
a(lp2888
S'here'
p2889
aS'it'
p2890
ag2886
aS'here'
p2891
aS'it'
p2892
ag2886
aS'here'
p2893
aS'it'
p2894
aS'is'
p2895
aS'right'
p2896
aS'here'
p2897
aaa(lp2898
S'SETH'
p2899
a(lp2900
S'Is'
p2901
aS'this'
p2902
aS'the'
p2903
aS'wall'
p2904
aaa(lp2905
S'LARRYyou'
p2906
a(lp2907
S'can'
p2908
aS'see'
p2909
aS'that'
p2910
aaa(lp2911
g2906
a(lp2912
S'this'
p2913
aS'is'
p2914
aS'the'
p2915
aS'current'
p2916
aS'wall'
p2917
aaa(lp2918
S'SETH'
p2919
a(lp2920
S'oh'
p2921
aS'okay'
p2922
aaa(lp2923
g2919
a(lp2924
S'so'
p2925
aS'are'
p2926
aS'you'
p2927
aS'gonna'
p2928
aS'go'
p2929
aS'out'
p2930
aS'like'
p2931
aS'three'
p2932
aS'feet'
p2933
aS'or'
p2934
aS'so'
p2935
aaa(lp2936
S'LARRY'
p2937
a(lp2938
S'So'
p2939
aS'we'
p2940
aS'might'
p2941
aaa(lp2942
g2937
a(lp2943
S'we'
p2944
aS'might'
p2945
aaa(lp2946
g2937
a(lp2947
S'we'
p2948
aS'might'
p2949
aS'do'
p2950
ag134
aS'little'
p2951
aS'modification'
p2952
aaa(lp2953
S'SETH'
p2954
a(lp2955
g134
aS'tape'
p2956
aS'tapered'
p2957
aS'uh'
p2958
aS'corners'
p2959
aaa(lp2960
S'LARRY'
p2961
a(lp2962
S'A'
p2963
aS'tapered'
p2964
aS'corner'
p2965
aS'there'
p2966
aaa(lp2967
g2961
a(lp2968
S'So'
p2969
aS'we'
p2970
aS'might'
p2971
aS'do'
p2972
ag134
aS'little'
p2973
aS'of'
p2974
aS'that'
p2975
aaa(lp2976
S'SETH'
p2977
a(lp2978
S'Okay'
p2979
aaa(lp2980
S'LARRYBut'
p2981
a(lp2982
aa(lp2983
g2981
a(lp2984
S'if'
p2985
aS'youre'
p2986
aS'gonna'
p2987
aS'put'
p2988
aS'it'
p2989
aS'in'
p2990
ag2849
aS'this'
p2991
aS'end'
p2992
aS'wall'
p2993
aaa(lp2994
g2981
a(lp2995
S'then'
p2996
aaa(lp2997
g2981
a(lp2998
S'maybe'
p2999
aS'it'
p3000
aS'wouldnt'
p3001
aS'be'
p3002
aS'affected'
p3003
aaa(lp3004
g2981
a(lp3005
S'That'
p3006
aS'one'
p3007
aS'might'
p3008
aS'down'
p3009
aS'there'
p3010
aaa(lp3011
g2981
a(lp3012
S'Because'
p3013
aaa(lp3014
g2981
a(lp3015
S'we'
p3016
aS'might'
p3017
aS'uh'
p3018
aaa(lp3019
S'SETH'
p3020
a(lp3021
S'Yeah'
p3022
aaa(lp3023
S'LARRY'
p3024
a(lp3025
S'XX'
p3026
aaa(lp3027
S'SETHsee'
p3028
a(lp3029
S'well'
p3030
aaa(lp3031
S'LARRY'
p3032
a(lp3033
S'See'
p3034
aS'eventually'
p3035
ag135
aS'we'
p3036
aS'have'
p3037
aS's'
p3038
ag135
aaa(lp3039
S'SETH'
p3040
a(lp3041
S'you'
p3042
aS'know'
p3043
aS'youre'
p3044
aS'right'
p3045
aaa(lp3046
g3040
a(lp3047
S'Cause'
p3048
ag75
aaa(lp3049
g3040
a(lp3050
S'cause'
p3051
aS'were'
p3052
aS'looking'
p3053
aS'at'
p3054
aS'right'
p3055
aS'there'
p3056
aaa(lp3057
g3040
a(lp3058
S'course'
p3059
aaa(lp3060
g3040
a(lp3061
S'now'
p3062
aS'you'
p3063
aS'gonna'
p3064
aS'go'
p3065
aS'out'
p3066
aaa(lp3067
S'LARRY'
p3068
a(lp3069
S'Thats'
p3070
aS'right'
p3071
aaa(lp3072
g3068
a(lp3073
S'See'
p3074
aS'were'
p3075
aS'opening'
p3076
aS'this'
p3077
aaa(lp3078
S'SETHThats'
p3079
a(lp3080
S'gonna'
p3081
aS'go'
p3082
aS'that'
p3083
aS'way'
p3084
aaa(lp3085
S'LARRY'
p3086
a(lp3087
S'that'
p3088
aaa(lp3089
g3086
a(lp3090
g135
aS'its'
p3091
ag135
aaa(lp3092
g3086
a(lp3093
S'that'
p3094
aS'that'
p3095
aS'thats'
p3096
aS'going'
p3097
aS'out'
p3098
aS'to'
p3099
aS'this'
p3100
aS'master'
p3101
aaa(lp3102
g3086
a(lp3103
S'which'
p3104
aS'is'
p3105
aS'gonna'
p3106
aS'go'
p3107
aS'up'
p3108
aS'on'
p3109
aS'the'
p3110
aS'hill'
p3111
aaa(lp3112
S'SETH'
p3113
a(lp3114
S'Aw'
p3115
aaa(lp3116
g3113
a(lp3117
S'so'
p3118
aS'youll'
p3119
aS'need'
p3120
aaa(lp3121
g3113
a(lp3122
S'What'
p3123
aS'about'
p3124
aS'heating'
p3125
aS'for'
p3126
aS'that'
p3127
aaa(lp3128
S'LARRY'
p3129
a(lp3130
S'Well'
p3131
aaa(lp3132
g3129
a(lp3133
S'what'
p3134
aS'were'
p3135
aS'gonna'
p3136
aS'do'
p3137
aS'is'
p3138
aS'put'
p3139
aS'uh'
p3140
aS'radiated'
p3141
aS'heat'
p3142
aaa(lp3143
S'SETH'
p3144
a(lp3145
S'Okay'
p3146
aaa(lp3147
S'LARRYIn'
p3148
a(lp3149
S'in'
p3150
aS'there'
p3151
aaa(lp3152
S'SETH'
p3153
a(lp3154
S'Thatll'
p3155
aS'be'
p3156
ag134
aS'slab'
p3157
aS'floor'
p3158
aS'then'
p3159
aaa(lp3160
S'LARRY'
p3161
a(lp3162
S'For'
p3163
aS'sure'
p3164
aaa(lp3165
g3161
a(lp3166
S'Yeah'
p3167
aaa(lp3168
g3161
a(lp3169
S'yeah'
p3170
aaa(lp3171
g3161
a(lp3172
S'Uh'
p3173
aaa(lp3174
S'SETH'
p3175
a(lp3176
S'So'
p3177
aS'that'
p3178
aS'one'
p3179
aS'might'
p3180
aS'change'
p3181
aaa(lp3182
S'LARRY'
p3183
a(lp3184
S'Yeah'
p3185
aaa(lp3186
S'SETH'
p3187
a(lp3188
S'uh'
p3189
aaa(lp3190
S'LARRY'
p3191
a(lp3192
g75
aS'thats'
p3193
ag134
aS'thats'
p3194
ag134
aS'good'
p3195
aS'point'
p3196
aaa(lp3197
g3191
a(lp3198
S'Ive'
p3199
ag75
aS'Im'
p3200
aS'not'
p3201
aS'uh'
p3202
aaa(lp3203
g3191
a(lp3204
S'we'
p3205
aS'were'
p3206
aS'th'
p3207
aaa(lp3208
S'SETH'
p3209
a(lp3210
S'The'
p3211
aS'only'
p3212
aS'thing'
p3213
aS'is'
p3214
aaa(lp3215
g3209
a(lp3216
g75
aS'dont'
p3217
aS'know'
p3218
aS'how'
p3219
aS'long'
p3220
aaa(lp3221
g3209
a(lp3222
S'is'
p3223
aS'that'
p3224
aS'gonna'
p3225
aS'be'
p3226
aS'like'
p3227
aS'in'
p3228
aS'the'
p3229
aS'future'
p3230
aaa(lp3231
g3209
a(lp3232
S'like'
p3233
ag134
aS'year'
p3234
aS'down'
p3235
aS'the'
p3236
aS'road'
p3237
aaa(lp3238
S'LARRY'
p3239
a(lp3240
S'Yeah'
p3241
aaa(lp3242
g3239
a(lp3243
S'Probably'
p3244
aaa(lp3245
S'SETH'
p3246
a(lp3247
S'Cause'
p3248
aS'it'
p3249
aS'would'
p3250
aS'be'
p3251
aS'nice'
p3252
aS'to'
p3253
aS'have'
p3254
aS'heat'
p3255
aS'in'
p3256
aS'here'
p3257
aS'in'
p3258
aS'the'
p3259
aS'meantime'
p3260
aaa(lp3261
g3246
a(lp3262
g75
aS'mean'
p3263
aS'say'
p3264
aS'you'
p3265
aS'do'
p3266
aS'the'
p3267
aS'furnace'
p3268
aaa(lp3269
g3246
a(lp3270
S'It'
p3271
aS'would'
p3272
aS'be'
p3273
aS'nice'
p3274
aS'to'
p3275
aS'have'
p3276
aS'it'
p3277
aS'for'
p3278
aS'this'
p3279
aS'winter'
p3280
aaa(lp3281
S'LARRYWell'
p3282
a(lp3283
S'let'
p3284
aS'me'
p3285
aS'work'
p3286
aS'that'
p3287
aS'out'
p3288
aS'with'
p3289
aS'my'
p3290
aS'wife'
p3291
aaa(lp3292
g3282
a(lp3293
S'Put'
p3294
aS'that'
p3295
aS'as'
p3296
ag134
aaa(lp3297
S'SETH'
p3298
a(lp3299
S'But'
p3300
aS'one'
p3301
aS'thing'
p3302
aS'you'
p3303
aS'can'
p3304
aS'do'
p3305
aaa(lp3306
g3298
a(lp3307
S'even'
p3308
aS'if'
p3309
aS'you'
p3310
aS'do'
p3311
ag134
aS'modification'
p3312
aaa(lp3313
g3298
a(lp3314
S'you'
p3315
aS'can'
p3316
aS'move'
p3317
aS'the'
p3318
aS'register'
p3319
aaa(lp3320
g3298
a(lp3321
g75
aS'mean'
p3322
aS'say'
p3323
aS'we'
p3324
aS'put'
p3325
aS'the'
p3326
aS'register'
p3327
aS'right'
p3328
aS'here'
p3329
aaa(lp3330
g3298
a(lp3331
S'and'
p3332
aS'thats'
p3333
aS'gonna'
p3334
aS'b'
p3335
aaa(lp3336
g3298
a(lp3337
S'that'
p3338
aS'would'
p3339
aS'obviously'
p3340
aS'have'
p3341
aS'to'
p3342
aS'be'
p3343
aS'moved'
p3344
aaa(lp3345
g3298
a(lp3346
S'you'
p3347
aS'know'
p3348
aaa(lp3349
g3298
a(lp3350
S'its'
p3351
aS'not'
p3352
ag134
aS'big'
p3353
aS'deal'
p3354
aS'to'
p3355
aS'move'
p3356
aS'it'
p3357
aS'from'
p3358
aS'here'
p3359
aS'to'
p3360
aS'here'
p3361
aaa(lp3362
S'LARRY'
p3363
a(lp3364
S'Yeah'
p3365
aaa(lp3366
S'SETHYou'
p3367
a(lp3368
S'might'
p3369
aS'have'
p3370
aS'to'
p3371
aS'add'
p3372
ag134
aS'piece'
p3373
aS'of'
p3374
aS'duct'
p3375
aS'work'
p3376
aaa(lp3377
g3367
a(lp3378
S'but'
p3379
aS'its'
p3380
aS'not'
p3381
aS'gonna'
p3382
aS'be'
p3383
ag134
aS'major'
p3384
aS'change'
p3385
aaa(lp3386
S'LARRYOkay'
p3387
a(lp3388
aa(lp3389
g3387
a(lp3390
S'Okay'
p3391
aaa(lp3392
S'SETH'
p3393
a(lp3394
S'And'
p3395
aS'this'
p3396
aS'one'
p3397
aS'you'
p3398
aS'may'
p3399
aS'not'
p3400
aS'have'
p3401
aS'to'
p3402
aS'move'
p3403
aS'at'
p3404
aS'all'
p3405
aaa(lp3406
g3393
a(lp3407
S'That'
p3408
aS'may'
p3409
aS'be'
p3410
aS'okay'
p3411
aaa(lp3412
S'LARRY'
p3413
a(lp3414
S'Alright'
p3415
aaa(lp3416
S'SETH'
p3417
a(lp3418
S'But'
p3419
aS'then'
p3420
aS'thats'
p3421
aS'probably'
p3422
aS'how'
p3423
aS'Id'
p3424
aS'do'
p3425
aS'it'
p3426
aaa(lp3427
g3417
a(lp3428
S'some'
p3429
aS'something'
p3430
aS'like'
p3431
aS'that'
p3432
aaa(lp3433
g3417
a(lp3434
S'or'
p3435
aaa(lp3436
g3417
a(lp3437
S'if'
p3438
ag75
aS'had'
p3439
aS'the'
p3440
aS'registers'
p3441
aS'going'
p3442
aS'that'
p3443
aS'way'
p3444
aaa(lp3445
g3417
a(lp3446
S'that'
p3447
aS'might'
p3448
aS'be'
p3449
aS'the'
p3450
aS'best'
p3451
aS'way'
p3452
aS'to'
p3453
aS'do'
p3454
aS'it'
p3455
aaa(lp3456
g3417
a(lp3457
S'Itd'
p3458
aS'be'
p3459
aS'like'
p3460
aS'for'
p3461
aS'fourteen'
p3462
aS'by'
p3463
aS'six'
p3464
aaa(lp3465
S'LARRY'
p3466
a(lp3467
aa(lp3468
S'SETH'
p3469
a(lp3470
g75
aS'mean'
p3471
aS'that'
p3472
aS'would'
p3473
aS'probably'
p3474
aS'be'
p3475
aS'an'
p3476
aS'eightinch'
p3477
aS'duct'
p3478
aaa(lp3479
g3469
a(lp3480
S'thatd'
p3481
aS'be'
p3482
aS'an'
p3483
aS'eightinch'
p3484
aaa(lp3485
g3469
a(lp3486
S'thatd'
p3487
aS'be'
p3488
ag134
aS'teninch'
p3489
aaa(lp3490
g3469
a(lp3491
S'and'
p3492
aS'then'
p3493
aS'the'
p3494
aS'furnace'
p3495
aaa(lp3496
g3469
a(lp3497
g75
aS'dont'
p3498
aS'know'
p3499
aaa(lp3500
g3469
a(lp3501
S'its'
p3502
aS'somewhere'
p3503
aS'over'
p3504
aS'there'
p3505
aS'in'
p3506
aS'that'
p3507
aS'area'
p3508
aaa(lp3509
S'LARRY'
p3510
a(lp3511
S'Furnace'
p3512
aS'is'
p3513
aaa(lp3514
S'SETHIm'
p3515
a(lp3516
S'not'
p3517
aS'sure'
p3518
aS'how'
p3519
aS'many'
p3520
aS'feet'
p3521
aaa(lp3522
S'LARRYWell'
p3523
a(lp3524
S'the'
p3525
aS'furnace'
p3526
aS'sits'
p3527
aS'down'
p3528
aaa(lp3529
g3523
a(lp3530
S'over'
p3531
aS'in'
p3532
aS'this'
p3533
aaa(lp3534
g3523
a(lp3535
S'this'
p3536
aS'corner'
p3537
aS'over'
p3538
aS'here'
p3539
aaa(lp3540
g3523
a(lp3541
S'Thats'
p3542
aS'where'
p3543
aS'the'
p3544
aS'furnace'
p3545
aS'is'
p3546
aaa(lp3547
S'SETH'
p3548
a(lp3549
S'One'
p3550
aaa(lp3551
g3548
a(lp3552
S'Two'
p3553
aaa(lp3554
S'LARRY'
p3555
a(lp3556
S'Probably'
p3557
aS'right'
p3558
aS'in'
p3559
aS'here'
p3560
aaa(lp3561
S'SETH'
p3562
a(lp3563
S'Three'
p3564
aaa(lp3565
S'LARRY'
p3566
a(lp3567
S'And'
p3568
aS'now'
p3569
aaa(lp3570
g3566
a(lp3571
S'Thats'
p3572
aS'probably'
p3573
aS'what'
p3574
aaa(lp3575
g3566
a(lp3576
S'thats'
p3577
aS'one'
p3578
aS'of'
p3579
aS'the'
p3580
aaa(lp3581
S'SETHThats'
p3582
a(lp3583
S'about'
p3584
aS'thirty'
p3585
aaa(lp3586
S'LARRY'
p3587
a(lp3588
S'key'
p3589
aaa(lp3590
g3587
a(lp3591
S'my'
p3592
aS'key'
p3593
aS'concerns'
p3594
aaa(lp3595
S'SETH'
p3596
a(lp3597
S'about'
p3598
aS'thirtysix'
p3599
aS'feet'
p3600
aS'across'
p3601
aaa(lp3602
S'LARRYis'
p3603
a(lp3604
S'th'
p3605
aS'is'
p3606
aS'the'
p3607
aS'how'
p3608
aS'noisy'
p3609
aS'the'
p3610
aS'furnace'
p3611
aS'is'
p3612
aaa(lp3613
g3603
a(lp3614
S'Thats'
p3615
ag134
aS'real'
p3616
aS'concern'
p3617
aS'to'
p3618
aS'me'
p3619
aaa(lp3620
g3603
a(lp3621
S'And'
p3622
aS'uh'
p3623
aaa(lp3624
g3603
a(lp3625
g75
aS'dont'
p3626
aS'know'
p3627
aS'what'
p3628
aS'theyve'
p3629
aS'got'
p3630
aS'these'
p3631
aS'days'
p3632
aaa(lp3633
g3603
a(lp3634
S'if'
p3635
aS'theyre'
p3636
aS'all'
p3637
aaa(lp3638
g3603
a(lp3639
g75
aS'know'
p3640
aS'theres'
p3641
aS'pulse'
p3642
aS'type'
p3643
aS'furnaces'
p3644
aaa(lp3645
g3603
a(lp3646
S'which'
p3647
aS'evidently'
p3648
aS'are'
p3649
aS'kinda'
p3650
aS'loud'
p3651
aS'or'
p3652
aS'something'
p3653
aaa(lp3654
S'SETHOh'
p3655
a(lp3656
S'yeah'
p3657
aaa(lp3658
g3655
a(lp3659
S'Yeah'
p3660
aaa(lp3661
g3655
a(lp3662
S'Lennox'
p3663
aS'pulse'
p3664
aaa(lp3665
S'LARRYoh'
p3666
a(lp3667
S'really'
p3668
aaa(lp3669
S'SETH'
p3670
a(lp3671
S'Thats'
p3672
ag134
aS'loud'
p3673
aS'one'
p3674
aaa(lp3675
S'LARRYIs'
p3676
a(lp3677
S'it'
p3678
aaa(lp3679
S'SETH'
p3680
a(lp3681
S'Yeah'
p3682
aaa(lp3683
S'LARRY'
p3684
a(lp3685
g135
aS'Really'
p3686
ag135
aaa(lp3687
S'SETHIve'
p3688
a(lp3689
S'put'
p3690
ag134
aS'few'
p3691
aS'of'
p3692
aS'those'
p3693
aS'in'
p3694
aaa(lp3695
g3688
a(lp3696
S'and'
p3697
aS'they'
p3698
aaa(lp3699
S'LARRYX'
p3700
a(lp3701
S'Have'
p3702
aS'you'
p3703
ag135
aaa(lp3704
S'SETH'
p3705
a(lp3706
S'Ive'
p3707
aS'had'
p3708
aS'problems'
p3709
aaa(lp3710
g3705
a(lp3711
g75
aS'wouldnt'
p3712
aS'go'
p3713
aS'with'
p3714
aS'the'
p3715
aS'Lennox'
p3716
aS'pulse'
p3717
aaa(lp3718
S'LARRYOkay'
p3719
a(lp3720
aa(lp3721
S'SETH'
p3722
a(lp3723
S'If'
p3724
ag75
aS'go'
p3725
aS'with'
p3726
ag134
aS'uh'
p3727
aaa(lp3728
S'LARRY'
p3729
a(lp3730
S'Well'
p3731
aaa(lp3732
S'SETHId'
p3733
a(lp3734
S'probably'
p3735
aS'go'
p3736
aS'with'
p3737
aS'the'
p3738
aS'Carrier'
p3739
aaa(lp3740
g3733
a(lp3741
S'Carrier'
p3742
aS'furnace'
p3743
aaa(lp3744
g3733
a(lp3745
S'The'
p3746
aS'return'
p3747
aS'grills'
p3748
aS'plenty'
p3749
aS'big'
p3750
aS'enough'
p3751
aaa(lp3752
S'LARRY'
p3753
a(lp3754
S'yeah'
p3755
aaa(lp3756
g3753
a(lp3757
S'Its'
p3758
ag134
aS'big'
p3759
aS'return'
p3760
aaa(lp3761
S'SETH'
p3762
a(lp3763
g75
aS'mean'
p3764
ag75
aS'cant'
p3765
aaa(lp3766
g3762
a(lp3767
S'you'
p3768
aS'cant'
p3769
aS'have'
p3770
aS'any'
p3771
aS'kind'
p3772
aS'of'
p3773
aS'problem'
p3774
aS'there'
p3775
aaa(lp3776
S'LARRYand'
p3777
a(lp3778
g134
aaa(lp3779
g3777
a(lp3780
S'and'
p3781
aS'and'
p3782
aS'the'
p3783
aS'pipes'
p3784
aS'are'
p3785
aS'big'
p3786
aS'enough'
p3787
aaa(lp3788
g3777
a(lp3789
S'so'
p3790
aaa(lp3791
g3777
a(lp3792
S'and'
p3793
aS'thats'
p3794
aS'normally'
p3795
aS'when'
p3796
aS'you'
p3797
aS'get'
p3798
aaa(lp3799
g3777
a(lp3800
S'you'
p3801
aS'get'
p3802
ag134
aS'lot'
p3803
aS'of'
p3804
aS'noise'
p3805
aS'in'
p3806
aS'the'
p3807
aS'house'
p3808
aaa(lp3809
g3777
a(lp3810
S'Is'
p3811
aS'if'
p3812
aS'your'
p3813
aaa(lp3814
g3777
a(lp3815
S'if'
p3816
aS'your'
p3817
aS'uh'
p3818
aS'ducts'
p3819
aS'are'
p3820
aS'too'
p3821
aS'small'
p3822
aaa(lp3823
g3777
a(lp3824
S'Right'
p3825
aaa(lp3826
S'SETHRight'
p3827
a(lp3828
aa(lp3829
g3827
a(lp3830
S'Yeah'
p3831
aaa(lp3832
g3827
a(lp3833
g1617
aS'the'
p3834
aS'two'
p3835
aS'main'
p3836
aS'sources'
p3837
aS'of'
p3838
aS'noise'
p3839
aaa(lp3840
g3827
a(lp3841
S'are'
p3842
aS'either'
p3843
aaa(lp3844
g3827
a(lp3845
S'uh'
p3846
aaa(lp3847
g3827
a(lp3848
S'air'
p3849
aS'noise'
p3850
aaa(lp3851
g3827
a(lp3852
S'which'
p3853
aS'is'
p3854
aS'due'
p3855
aS'to'
p3856
aS'undersized'
p3857
aS'grills'
p3858
aaa(lp3859
S'LARRYReally'
p3860
a(lp3861
aa(lp3862
S'SETHyou'
p3863
a(lp3864
S'got'
p3865
aS'air'
p3866
aS'rushing'
p3867
aS'through'
p3868
aS'there'
p3869
aS'at'
p3870
aS'high'
p3871
aS'velocity'
p3872
aaa(lp3873
g3863
a(lp3874
S'The'
p3875
aS'other'
p3876
aS'source'
p3877
aS'of'
p3878
aS'noise'
p3879
aS'is'
p3880
aS'th'
p3881
aS'is'
p3882
aS'the'
p3883
aS'fan'
p3884
aS'motor'
p3885
aS'itself'
p3886
aaa(lp3887
S'LARRYIn'
p3888
a(lp3889
S'the'
p3890
aS'in'
p3891
aS'the'
p3892
aS'actual'
p3893
aaa(lp3894
S'SETH'
p3895
a(lp3896
S'In'
p3897
aS'the'
p3898
aS'unit'
p3899
aS'itself'
p3900
aaa(lp3901
S'LARRYUnhunh'
p3902
a(lp3903
aa(lp3904
S'SETHAnd'
p3905
a(lp3906
S'thats'
p3907
aS'usually'
p3908
aS'solved'
p3909
aS'by'
p3910
ag3335
aaa(lp3911
g3905
a(lp3912
S'just'
p3913
aS'having'
p3914
aS'flexible'
p3915
aS'duct'
p3916
aS'between'
p3917
aS'the'
p3918
aS'unit'
p3919
aS'and'
p3920
aS'the'
p3921
aS'd'
p3922
aS'and'
p3923
aS'the'
p3924
aS'registers'
p3925
aaa(lp3926
g3905
a(lp3927
S'so'
p3928
aS'that'
p3929
aS'it'
p3930
aS'dampens'
p3931
aS'out'
p3932
aS'the'
p3933
aS'noise'
p3934
aaa(lp3935
g3905
a(lp3936
S'In'
p3937
aS'other'
p3938
aS'words'
p3939
aS'if'
p3940
aS'we'
p3941
aS'had'
p3942
aS'the'
p3943
aS'furnace'
p3944
aS'like'
p3945
aS'right'
p3946
aS'behind'
p3947
aS'that'
p3948
aS'wall'
p3949
aaa(lp3950
g3905
a(lp3951
S'it'
p3952
aS'would'
p3953
aS'be'
p3954
aS'noisy'
p3955
aaa(lp3956
S'LARRY'
p3957
a(lp3958
S'Yeah'
p3959
aaa(lp3960
S'SETHBut'
p3961
a(lp3962
S'were'
p3963
aS'going'
p3964
ag3922
aaa(lp3965
g3961
a(lp3966
S'Im'
p3967
aS'not'
p3968
aS'sure'
p3969
aS'how'
p3970
aS'it'
p3971
aS'connects'
p3972
aaa(lp3973
g3961
a(lp3974
S'did'
p3975
aS'we'
p3976
aS'see'
p3977
aS'that'
p3978
aS'down'
p3979
aS'there'
p3980
aaa(lp3981
g3961
a(lp3982
S'Ill'
p3983
aS'have'
p3984
aS'to'
p3985
aS'go'
p3986
aS'down'
p3987
aS'and'
p3988
aS'take'
p3989
ag134
aS'look'
p3990
aS'at'
p3991
aS'that'
p3992
aS'again'
p3993
aS'but'
p3994
aaa(lp3995
S'LARRY'
p3996
a(lp3997
S'Okay'
p3998
aaa(lp3999
S'SETH'
p4000
a(lp4001
g75
aS'imagine'
p4002
aS'it'
p4003
aS'goes'
p4004
aS'down'
p4005
aaa(lp4006
g4000
a(lp4007
S'and'
p4008
aS'then'
p4009
aS'we'
p4010
aS'can'
p4011
aS'run'
p4012
aS'some'
p4013
aS'kind'
p4014
aS'of'
p4015
ag134
aS'flexible'
p4016
aS'duct'
p4017
aS'to'
p4018
aS'the'
p4019
aS'unit'
p4020
aaa(lp4021
g4000
a(lp4022
S'As'
p4023
aS'long'
p4024
aS'as'
p4025
ag75
aS'can'
p4026
aS'get'
p4027
aS'say'
p4028
aS'ten'
p4029
aS'feet'
p4030
aS'or'
p4031
aS'so'
p4032
aS'between'
p4033
aS'that'
p4034
aS'and'
p4035
aS'the'
p4036
aS'unit'
p4037
aaa(lp4038
g4000
a(lp4039
S'then'
p4040
ag75
aaa(lp4041
S'LARRY'
p4042
a(lp4043
S'You'
p4044
aS'can'
p4045
aaa(lp4046
S'SETH'
p4047
a(lp4048
S'then'
p4049
ag75
aS'can'
p4050
aS'uh'
p4051
aS'eliminate'
p4052
aS'th'
p4053
aS'the'
p4054
aS'noise'
p4055
aS'problem'
p4056
aaa(lp4057
S'LARRY'
p4058
a(lp4059
S'Alright'
p4060
aaa(lp4061
S'SETH'
p4062
a(lp4063
S'So'
p4064
aS'its'
p4065
aS'basically'
p4066
aS'thirty'
p4067
aS'by'
p4068
aS'thirty'
p4069
aaa(lp4070
g4062
a(lp4071
S'return'
p4072
aS'air'
p4073
aaa(lp4074
g4062
a(lp4075
S'Thirty'
p4076
aS'by'
p4077
aS'thirty'
p4078
aS'return'
p4079
aS'air'
p4080
aaa(lp4081
S'LARRY'
p4082
a(lp4083
S'And'
p4084
aS'this'
p4085
aS'is'
p4086
ag134
aS'uh'
p4087
aaa(lp4088
g4082
a(lp4089
S'this'
p4090
aS'is'
p4091
aS'the'
p4092
aS'only'
p4093
aS'return'
p4094
aaa(lp4095
g4082
a(lp4096
S'and'
p4097
aS'Id'
p4098
aaa(lp4099
g4082
a(lp4100
g75
aS'would'
p4101
aS'say'
p4102
aS'not'
p4103
aaa(lp4104
S'SETH'
p4105
a(lp4106
S'Oh'
p4107
aS'this'
p4108
aS'is'
p4109
aS'return'
p4110
aS'also'
p4111
aaa(lp4112
S'LARRY'
p4113
a(lp4114
S'not'
p4115
aS'placed'
p4116
aaa(lp4117
g4113
a(lp4118
S'not'
p4119
aS'placed'
p4120
aS'very'
p4121
aS'well'
p4122
aaa(lp4123
g4113
a(lp4124
S'in'
p4125
aS'the'
p4126
aS'room'
p4127
aaa(lp4128
S'SETH'
p4129
a(lp4130
S'This'
p4131
aS'is'
p4132
aaa(lp4133
S'LARRY'
p4134
a(lp4135
S'So'
p4136
aaa(lp4137
S'SETHthis'
p4138
a(lp4139
S'is'
p4140
aS'supply'
p4141
aS'though'
p4142
aaa(lp4143
g4138
a(lp4144
S'Right'
p4145
aaa(lp4146
S'LARRY'
p4147
a(lp4148
S'this'
p4149
aS'is'
p4150
aS'the'
p4151
aS'supply'
p4152
aaa(lp4153
g4147
a(lp4154
S'Right'
p4155
aaa(lp4156
S'SETHOkay'
p4157
a(lp4158
aa(lp4159
g4157
a(lp4160
S'Yeah'
p4161
aaa(lp4162
S'LARRY'
p4163
a(lp4164
S'See'
p4165
aaa(lp4166
g4163
a(lp4167
S'and'
p4168
aS'Id'
p4169
aaa(lp4170
g4163
a(lp4171
S'Where'
p4172
aS'would'
p4173
aS'you'
p4174
aS'suggest'
p4175
aS'they'
p4176
aS'would'
p4177
aS'go'
p4178
aaa(lp4179
g4163
a(lp4180
S'If'
p4181
aS'uh'
p4182
aaa(lp4183
g4163
a(lp4184
S'if'
p4185
aS'we'
p4186
aS'put'
p4187
aS'uh'
p4188
aaa(lp4189
S'SETH'
p4190
a(lp4191
S'Boy'
p4192
aaa(lp4193
g4190
a(lp4194
g75
aS'would'
p4195
aS'say'
p4196
aS'g'
p4197
aaa(lp4198
g4190
a(lp4199
S'Id'
p4200
aS'probably'
p4201
aS'go'
p4202
aS'with'
p4203
aS'two'
p4204
aaa(lp4205
g4190
a(lp4206
S'Id'
p4207
aS'put'
p4208
aS'one'
p4209
aS'on'
p4210
aS'each'
p4211
aS'side'
p4212
aaa(lp4213
g4190
a(lp4214
S'Id'
p4215
aS'probably'
p4216
aS'put'
p4217
aS'one'
p4218
aS'like'
p4219
aS'right'
p4220
aS'underneath'
p4221
aS'that'
p4222
aS'window'
p4223
aS'there'
p4224
aaa(lp4225
g4190
a(lp4226
S'and'
p4227
aS'maybe'
p4228
aS'underneath'
p4229
aS'that'
p4230
aS'window'
p4231
aaa(lp4232
g4190
a(lp4233
S'Be'
p4234
aS'nice'
p4235
aS'to'
p4236
aS'put'
p4237
aS'it'
p4238
aS'behind'
p4239
aS'the'
p4240
aS'couch'
p4241
aaa(lp4242
g4190
a(lp4243
S'but'
p4244
aS'then'
p4245
aS'youve'
p4246
aaa(lp4247
g4190
a(lp4248
S'it'
p4249
aS'would'
p4250
aS'be'
p4251
aS'blocked'
p4252
aS'off'
p4253
aS'too'
p4254
aS'much'
p4255
aaa(lp4256
S'LARRY'
p4257
a(lp4258
S'And'
p4259
aS'you'
p4260
aS'thi'
p4261
aaa(lp4262
g4257
a(lp4263
S'you'
p4264
aS'so'
p4265
aS'you'
p4266
aS'you'
p4267
ag155
aS'you'
p4268
aS'try'
p4269
aS'and'
p4270
aS'put'
p4271
aS'em'
p4272
aS'under'
p4273
aS'windows'
p4274
aaa(lp4275
g4257
a(lp4276
S'where'
p4277
aS'thats'
p4278
aS'where'
p4279
aS'your'
p4280
aaa(lp4281
S'SETH'
p4282
a(lp4283
S'Yeah'
p4284
aaa(lp4285
g4282
a(lp4286
g75
aS'try'
p4287
aS'to'
p4288
aS'put'
p4289
aS'em'
p4290
aS'on'
p4291
aS'the'
p4292
aS'cold'
p4293
aaa(lp4294
S'LARRY'
p4295
a(lp4296
g135
aaa(lp4297
S'SETHbasically'
p4298
a(lp4299
S'the'
p4300
aS'coldest'
p4301
aS'part'
p4302
aS'of'
p4303
aS'the'
p4304
aS'room'
p4305
aaa(lp4306
S'LARRYOkay'
p4307
a(lp4308
aa(lp4309
S'SETH'
p4310
a(lp4311
S'Because'
p4312
aS'uh'
p4313
aaa(lp4314
g4310
a(lp4315
S'it'
p4316
aS'just'
p4317
aS'helps'
p4318
aaa(lp4319
g4310
a(lp4320
g1617
aS'because'
p4321
aS'otherwise'
p4322
aaa(lp4323
g4310
a(lp4324
S'you'
p4325
aS'know'
p4326
aaa(lp4327
g4310
a(lp4328
S'with'
p4329
ag134
aS'grill'
p4330
aS'right'
p4331
aS'here'
p4332
aaa(lp4333
g4310
a(lp4334
S'you'
p4335
aS'end'
p4336
aS'up'
p4337
aS'having'
p4338
aS'cold'
p4339
aS'spots'
p4340
aS'on'
p4341
aS'the'
p4342
aS'sides'
p4343
aaa(lp4344
S'LARRYMhm'
p4345
a(lp4346
aa(lp4347
S'SETHCause'
p4348
a(lp4349
S'what'
p4350
aS'happens'
p4351
aS'is'
p4352
aaa(lp4353
g4348
a(lp4354
S'the'
p4355
aS'air'
p4356
aS'goes'
p4357
aS'back'
p4358
aS'to'
p4359
aS'the'
p4360
aS'return'
p4361
aS'grill'
p4362
aaa(lp4363
g4348
a(lp4364
S'so'
p4365
aS'it'
p4366
aS'never'
p4367
aS'really'
p4368
aaa(lp4369
S'LARRY'
p4370
a(lp4371
g135
aS'It'
p4372
aS'wouldnt'
p4373
aS'get'
p4374
ag135
aS'out'
p4375
aS'circulating'
p4376
aS'through'
p4377
aaa(lp4378
S'SETHit'
p4379
a(lp4380
S'never'
p4381
aS'really'
p4382
aS'blows'
p4383
aS'out'
p4384
aS'to'
p4385
aS'the'
p4386
aS'corners'
p4387
aaa(lp4388
S'LARRYRight'
p4389
a(lp4390
aa(lp4391
S'SETHSo'
p4392
a(lp4393
S'thats'
p4394
aS'why'
p4395
ag75
aS'try'
p4396
aS'to'
p4397
aS'put'
p4398
aS'it'
p4399
aS'as'
p4400
aS'far'
p4401
aS'away'
p4402
aS'on'
p4403
aS'the'
p4404
aS'perimeter'
p4405
aaa(lp4406
g4392
a(lp4407
S'and'
p4408
aS'have'
p4409
aS'it'
p4410
aS'pull'
p4411
aS'across'
p4412
aS'the'
p4413
aS'room'
p4414
aaa(lp4415
S'LARRY'
p4416
a(lp4417
S'Okay'
p4418
aaa(lp4419
g4416
a(lp4420
S'well'
p4421
aS'this'
p4422
aS'is'
p4423
aS'the'
p4424
aS'only'
p4425
aaa(lp4426
S'SETH'
p4427
a(lp4428
S'So'
p4429
ag75
aS'dont'
p4430
aS'know'
p4431
aS'if'
p4432
aS'youd'
p4433
aS'wanna'
p4434
aaa(lp4435
S'LARRY'
p4436
a(lp4437
S'the'
p4438
aS'only'
p4439
aS'the'
p4440
aS'only'
p4441
aS'other'
p4442
aS'addition'
p4443
aS'room'
p4444
aaa(lp4445
g4436
a(lp4446
S'where'
p4447
aS'we'
p4448
aS'thought'
p4449
aS'maybe'
p4450
aS'registers'
p4451
aS'would'
p4452
aS'be'
p4453
aS'important'
p4454
aaa(lp4455
g4436
a(lp4456
S'And'
p4457
aS'Id'
p4458
aaa(lp4459
g4436
a(lp4460
g75
aS'dont'
p4461
aS'know'
p4462
aS'if'
p4463
aaa(lp4464
g4436
a(lp4465
S'uh'
p4466
aaa(lp4467
g4436
a(lp4468
S'floor'
p4469
aS'registers'
p4470
aaa(lp4471
g4436
a(lp4472
S'Are'
p4473
aS'there'
p4474
aaa(lp4475
g4436
a(lp4476
S'are'
p4477
aS'th'
p4478
ag2886
ag2886
ag2886
aS'is'
p4479
ag3922
aS'does'
p4480
aS'it'
p4481
aaa(lp4482
g4436
a(lp4483
S'thats'
p4484
aS'not'
p4485
ag134
aS'good'
p4486
aS'idea'
p4487
aS'these'
p4488
aS'days'
p4489
aaa(lp4490
S'SETH'
p4491
a(lp4492
S'No'
p4493
aaa(lp4494
g4491
a(lp4495
g75
aS'would'
p4496
aS'go'
p4497
aS'with'
p4498
aS'floor'
p4499
aS'registers'
p4500
aS'in'
p4501
aS'this'
p4502
aS'house'
p4503
aaa(lp4504
g4491
a(lp4505
S'cause'
p4506
aS'you'
p4507
aS'got'
p4508
aS'high'
p4509
aS'ceilings'
p4510
aaa(lp4511
S'LARRY'
p4512
a(lp4513
S'XX'
p4514
aaa(lp4515
S'SETH'
p4516
a(lp4517
S'Well'
p4518
aS'in'
p4519
aS'fact'
p4520
aaa(lp4521
g4516
a(lp4522
S'you'
p4523
aS'wouldnt'
p4524
aS'be'
p4525
aS'able'
p4526
aS'to'
p4527
aS'put'
p4528
aS'any'
p4529
aS'kind'
p4530
aS'of'
p4531
aS'ceiling'
p4532
aS'register'
p4533
aS'in'
p4534
aaa(lp4535
g4516
a(lp4536
S'Cause'
p4537
aS'you'
p4538
aS'get'
p4539
aS'the'
p4540
aS'second'
p4541
aS'floor'
p4542
aaa(lp4543
S'LARRYRight'
p4544
a(lp4545
aa(lp4546
S'SETH'
p4547
a(lp4548
S'So'
p4549
aaa(lp4550
g4547
a(lp4551
S'no'
p4552
aaa(lp4553
g4547
a(lp4554
S'Floor'
p4555
aS'registers'
p4556
aS'are'
p4557
aS'fine'
p4558
aaa(lp4559
g4547
a(lp4560
S'for'
p4561
aS'heating'
p4562
aaa(lp4563
S'LARRY'
p4564
a(lp4565
S'But'
p4566
aS'th'
p4567
aaa(lp4568
g4564
a(lp4569
S'youre'
p4570
aS'talking'
p4571
aS'about'
p4572
aS'wall'
p4573
aS'regis'
p4574
aaa(lp4575
g4564
a(lp4576
S'putting'
p4577
aS'em'
p4578
aS'in'
p4579
aS'the'
p4580
aS'wall'
p4581
aS'here'
p4582
aaa(lp4583
S'SETH'
p4584
a(lp4585
S'No'
p4586
aaa(lp4587
g4584
a(lp4588
g75
aS'was'
p4589
ag75
aS'was'
p4590
aS'thinking'
p4591
aS'about'
p4592
aS'putting'
p4593
aS'em'
p4594
aS'in'
p4595
aS'the'
p4596
aS'floor'
p4597
aaa(lp4598
S'LARRYOh'
p4599
a(lp4600
S'in'
p4601
aS'the'
p4602
aS'floor'
p4603
aaa(lp4604
S'SETH'
p4605
a(lp4606
S'Yeah'
p4607
aS'to'
p4608
aaa(lp4609
g4605
a(lp4610
S'to'
p4611
aS'go'
p4612
aS'in'
p4613
aS'the'
p4614
aS'wall'
p4615
aaa(lp4616
g4605
a(lp4617
S'would'
p4618
aS'be'
p4619
aS'pretty'
p4620
aS'tough'
p4621
aaa(lp4622
S'LARRYOkay'
p4623
a(lp4624
aa(lp4625
g4623
a(lp4626
S'Alright'
p4627
aaa(lp4628
S'SETHI'
p4629
a(lp4630
S'dont'
p4631
aS'know'
p4632
aS'if'
p4633
aS'you'
p4634
aS'wanna'
p4635
aS'cut'
p4636
aS'the'
p4637
aS'floor'
p4638
aS'though'
p4639
aaa(lp4640
S'LARRY'
p4641
a(lp4642
S'Yeah'
p4643
aaa(lp4644
g4641
a(lp4645
S'Well'
p4646
ag75
aS'hate'
p4647
aS'to'
p4648
aS'do'
p4649
aS'it'
p4650
aS'right'
p4651
aS'there'
p4652
aaa(lp4653
g4641
a(lp4654
S'May'
p4655
aS'maybe'
p4656
aS'wed'
p4657
aS'do'
p4658
aS'it'
p4659
aS'right'
p4660
aS'in'
p4661
aS'here'
p4662
aaa(lp4663
S'SETH'
p4664
a(lp4665
S'Yeah'
p4666
aaa(lp4667
g4664
a(lp4668
S'But'
p4669
aS'to'
p4670
aS'get'
p4671
aS'in'
p4672
aS'the'
p4673
aS'wall'
p4674
aS'would'
p4675
aS'be'
p4676
aS'almost'
p4677
aaa(lp4678
S'LARRY'
p4679
a(lp4680
g135
aaa(lp4681
S'SETH'
p4682
a(lp4683
g75
aS'mean'
p4684
aS'you'
p4685
aS'can'
p4686
aS'do'
p4687
aS'that'
p4688
aS'during'
p4689
aS'new'
p4690
aS'construction'
p4691
aaa(lp4692
g4682
a(lp4693
S'but'
p4694
aS'its'
p4695
aS'tough'
p4696
aS'when'
p4697
aS'youre'
p4698
aS'coming'
p4699
aS'back'
p4700
aS'after'
p4701
aS'the'
p4702
aS'fact'
p4703
aaa(lp4704
g4682
a(lp4705
S'cause'
p4706
ag135
aS'you'
p4707
aS'just'
p4708
ag135
aS'got'
p4709
aaa(lp4710
S'LARRYSure'
p4711
a(lp4712
aa(lp4713
S'SETHyour'
p4714
a(lp4715
S'your'
p4716
aS'twobyfour'
p4717
aS'framing'
p4718
aaa(lp4719
g4714
a(lp4720
S'and'
p4721
aS'its'
p4722
aS'just'
p4723
aS'too'
p4724
aS'tough'
p4725
aS'to'
p4726
aS'get'
p4727
aS'in'
p4728
aS'there'
p4729
aaa(lp4730
S'LARRY'
p4731
a(lp4732
S'Okay'
p4733
aaa(lp4734
g4731
a(lp4735
S'Alright'
p4736
aaa(lp4737
g4731
a(lp4738
S'So'
p4739
aS'wed'
p4740
aS'put'
p4741
ag134
aS'couple'
p4742
aS'in'
p4743
aS'this'
p4744
aS'room'
p4745
aS'somewhere'
p4746
aaa(lp4747
g4731
a(lp4748
S'And'
p4749
aS'then'
p4750
aS'uh'
p4751
aaa(lp4752
S'SETH'
p4753
a(lp4754
S'So'
p4755
aS'this'
p4756
aS'is'
p4757
aS'like'
p4758
ag134
aS'family'
p4759
aS'room'
p4760
aaa(lp4761
g4753
a(lp4762
S'Is'
p4763
aS'that'
p4764
aS'what'
p4765
aS'this'
p4766
aS'is'
p4767
aaa(lp4768
S'LARRY'
p4769
a(lp4770
S'Uh'
p4771
aaa(lp4772
g4769
a(lp4773
S'its'
p4774
aS'kinda'
p4775
aS'like'
p4776
ag134
aS'lo'
p4777
aaa(lp4778
g4769
a(lp4779
S'kinda'
p4780
ag134
aS'little'
p4781
aS'parlor'
p4782
aaa(lp4783
g4769
a(lp4784
S'library'
p4785
aaa(lp4786
g4769
a(lp4787
S'something'
p4788
aaa(lp4789
g4769
a(lp4790
S'resembles'
p4791
aaa(lp4792
S'SETH'
p4793
a(lp4794
S'Alright'
p4795
aaa(lp4796
S'LARRY'
p4797
a(lp4798
S'XXX'
p4799
aaa(lp4800
g4797
a(lp4801
S'XXXX'
p4802
aaa(lp4803
g4797
a(lp4804
S'This'
p4805
aS'is'
p4806
ag134
aS'register'
p4807
aaa(lp4808
g4797
a(lp4809
S'so'
p4810
aS'thats'
p4811
aS'okay'
p4812
aaa(lp4813
g4797
a(lp4814
S'Cause'
p4815
aS'its'
p4816
aS'under'
p4817
aS'there'
p4818
aaa(lp4819
S'SETH'
p4820
a(lp4821
S'Okay'
p4822
aaa(lp4823
S'LARRY'
p4824
a(lp4825
S'the'
p4826
aS'bathroom'
p4827
aS'has'
p4828
ag134
aS'register'
p4829
aaa(lp4830
g4824
a(lp4831
S'now'
p4832
aS'that'
p4833
aS'was'
p4834
aS'it'
p4835
aaa(lp4836
g4824
a(lp4837
S'XXX'
p4838
aaa(lp4839
S'SETH'
p4840
a(lp4841
S'How'
p4842
aS'about'
p4843
aS'the'
p4844
aS'uh'
p4845
aS'thermostat'
p4846
aaa(lp4847
S'LARRY'
p4848
a(lp4849
S'This'
p4850
aS'guy'
p4851
aaa(lp4852
S'SETH'
p4853
a(lp4854
S'Okay'
p4855
aaa(lp4856
g4853
a(lp4857
g75
aS'would'
p4858
aS'definitely'
p4859
aS'go'
p4860
aS'with'
p4861
ag134
aS'new'
p4862
aS'thermostat'
p4863
aaa(lp4864
S'LARRY'
p4865
a(lp4866
S'Yeah'
p4867
aaa(lp4868
g4865
a(lp4869
S'Kind'
p4870
aS'of'
p4871
ag134
ag135
aS'antique'
p4872
aaa(lp4873
S'SETH'
p4874
a(lp4875
S'But'
p4876
aS'thats'
p4877
aS'probably'
p4878
ag134
aS'good'
p4879
aaa(lp4880
g4874
a(lp4881
S'thats'
p4882
aS'probably'
p4883
ag134
aS'good'
p4884
aS'spot'
p4885
aaa(lp4886
S'LARRYisnt'
p4887
a(lp4888
S'it'
p4889
aaa(lp4890
S'SETHYeah'
p4891
a(lp4892
aa(lp4893
g4891
a(lp4894
S'that'
p4895
aS'should'
p4896
aS'be'
p4897
aS'in'
p4898
ag134
aS'museum'
p4899
aaa(lp4900
S'LARRY'
p4901
a(lp4902
aa(lp4903
g4901
a(lp4904
S'Uh'
p4905
aaa(lp4906
g4901
a(lp4907
g75
aS'dont'
p4908
aS'know'
p4909
aaa(lp4910
g4901
a(lp4911
g75
ag2886
aS'are'
p4912
aS'we'
p4913
aS'doing'
p4914
aS'the'
p4915
aS'right'
p4916
aaa(lp4917
g4901
a(lp4918
S'If'
p4919
aS'Im'
p4920
aS'supposed'
p4921
aS'to'
p4922
aS'kinda'
p4923
aS'walk'
p4924
aS'you'
p4925
aS'around'
p4926
aS'the'
p4927
aS'house'
p4928
aS'here'
p4929
aaa(lp4930
g4901
a(lp4931
S'Is'
p4932
aS'that'
p4933
aS'what'
p4934
aS'uh'
p4935
aaa(lp4936
S'SETH'
p4937
a(lp4938
S'Yeah'
p4939
aaa(lp4940
g4937
a(lp4941
S'Do'
p4942
aS'you'
p4943
aS'think'
p4944
aaa(lp4945
S'ENV'
p4946
a(lp4947
aa(lp4948
S'SETH'
p4949
a(lp4950
S'well'
p4951
aaa(lp4952
g4949
a(lp4953
g75
aS'guess'
p4954
aS'you'
p4955
aS'havent'
p4956
aS'really'
p4957
aaa(lp4958
S'LARRYI'
p4959
a(lp4960
S'dont'
p4961
aS'know'
p4962
aS'if'
p4963
aS'theres'
p4964
aS'anything'
p4965
aS'you'
p4966
aS'need'
p4967
aS'to'
p4968
aS'do'
p4969
aS'up'
p4970
aS'here'
p4971
aaa(lp4972
g4959
a(lp4973
S'Other'
p4974
aS'than'
p4975
aS'the'
p4976
aS'fact'
p4977
ag135
aS'just'
p4978
ag135
aS'kinda'
p4979
aS'know'
p4980
aS'that'
p4981
aS'weve'
p4982
aS'got'
p4983
aS'em'
p4984
aaa(lp4985
S'SETH'
p4986
a(lp4987
S'Yeah'
p4988
aaa(lp4989
g4986
a(lp4990
S'you'
p4991
aS'havent'
p4992
ag1045
aS'really'
p4993
aS'lived'
p4994
aS'in'
p4995
aS'the'
p4996
aS'house'
p4997
aS'during'
p4998
aS'the'
p4999
aS'winter'
p5000
aaa(lp5001
g4986
a(lp5002
S'Have'
p5003
aS'you'
p5004
aaa(lp5005
S'LARRYNo'
p5006
a(lp5007
aa(lp5008
g5006
a(lp5009
S'And'
p5010
aS'thats'
p5011
aS'what'
p5012
aS'we'
p5013
aS'th'
p5014
aaa(lp5015
S'SETHSo'
p5016
a(lp5017
S'you'
p5018
aS'dont'
p5019
aS'really'
p5020
aS'know'
p5021
aaa(lp5022
g5016
a(lp5023
S'if'
p5024
aS'theres'
p5025
ag134
aaa(lp5026
S'LARRYSee'
p5027
a(lp5028
S'and'
p5029
aS'thats'
p5030
aS'what'
p5031
aS'we'
p5032
aS'thought'
p5033
aS'we'
p5034
aS'would'
p5035
aS'do'
p5036
aaa(lp5037
g5027
a(lp5038
S'uh'
p5039
aaa(lp5040
S'SETHSo'
p5041
a(lp5042
S'youre'
p5043
aS'not'
p5044
aS'really'
p5045
aS'sure'
p5046
aS'if'
p5047
aS'theres'
p5048
aS'any'
p5049
aS'problems'
p5050
aaa(lp5051
g5041
a(lp5052
S'with'
p5053
aS'heating'
p5054
aS'certain'
p5055
aS'areas'
p5056
aaa(lp5057
S'LARRY'
p5058
a(lp5059
S'Thats'
p5060
aS'right'
p5061
aaa(lp5062
g5058
a(lp5063
S'so'
p5064
ag135
ag75
aS'sa'
p5065
ag135
aaa(lp5066
S'SETH'
p5067
a(lp5068
S'So'
p5069
aS'we'
p5070
aS'dont'
p5071
aS'know'
p5072
aS'if'
p5073
aS'theres'
p5074
aS'any'
p5075
aS'particular'
p5076
aS'areas'
p5077
aaa(lp5078
g5067
a(lp5079
S'like'
p5080
aS'that'
p5081
ag3335
aaa(lp5082
g5067
a(lp5083
g75
aS'bet'
p5084
aS'you'
p5085
aS'that'
p5086
aS'parlor'
p5087
aS'room'
p5088
aS'has'
p5089
aS'had'
p5090
ag134
aS'hard'
p5091
aS'time'
p5092
aaa(lp5093
g5067
a(lp5094
S'in'
p5095
aS'the'
p5096
aS'past'
p5097
aaa(lp5098
S'LARRY'
p5099
a(lp5100
S'Do'
p5101
aS'you'
p5102
aS'think'
p5103
aS'its'
p5104
aS'pretty'
p5105
aS'cool'
p5106
aS'in'
p5107
aS'there'
p5108
aaa(lp5109
S'SETH'
p5110
a(lp5111
S'Just'
p5112
aS'that'
p5113
aS'one'
p5114
aS'grill'
p5115
aaa(lp5116
S'LARRY'
p5117
a(lp5118
S'And'
p5119
aS'then'
p5120
aS'this'
p5121
aS'guy'
p5122
aS'has'
p5123
ag134
aS'register'
p5124
aaa(lp5125
g5117
a(lp5126
S'so'
p5127
aaa(lp5128
S'SETHOh'
p5129
a(lp5130
S'they'
p5131
aS'got'
p5132
aS'AC'
p5133
aS'up'
p5134
aS'here'
p5135
aS'too'
p5136
aaa(lp5137
S'LARRY'
p5138
a(lp5139
S'yeah'
p5140
aaa(lp5141
g5138
a(lp5142
g75
aS'n'
p5143
ag75
aS'think'
p5144
aS'thats'
p5145
aS'gonna'
p5146
aS'go'
p5147
aaa(lp5148
S'SETH'
p5149
a(lp5150
S'Well'
p5151
aS'uh'
p5152
aaa(lp5153
g5149
a(lp5154
S'especially'
p5155
aS'if'
p5156
aS'you'
p5157
aS'get'
p5158
aS'the'
p5159
aS'forced'
p5160
aS'air'
p5161
aS'heating'
p5162
aS'and'
p5163
aS'cooling'
p5164
aaa(lp5165
S'LARRY'
p5166
a(lp5167
S'Well'
p5168
aaa(lp5169
g5166
a(lp5170
S'Yes'
p5171
aaa(lp5172
S'SETHyou'
p5173
a(lp5174
S'wont'
p5175
aS'need'
p5176
aS'that'
p5177
aaa(lp5178
S'LARRY'
p5179
a(lp5180
S'One'
p5181
aS'little'
p5182
aS'guy'
p5183
aS'there'
p5184
aaa(lp5185
S'SETH'
p5186
a(lp5187
S'Yeah'
p5188
aS'see'
p5189
aS'these'
p5190
aS'arent'
p5191
aS'strategically'
p5192
aS'placed'
p5193
aS'either'
p5194
aaa(lp5195
g5186
a(lp5196
S'but'
p5197
aS'youve'
p5198
aS'pretty'
p5199
aS'much'
p5200
aS'got'
p5201
aS'no'
p5202
aS'choice'
p5203
aaa(lp5204
g5186
a(lp5205
S'On'
p5206
aS'most'
p5207
aS'of'
p5208
aS'these'
p5209
aaa(lp5210
g5186
a(lp5211
S'these'
p5212
aaa(lp5213
g5186
a(lp5214
S'its'
p5215
aS'almost'
p5216
aS'impossible'
p5217
aS'to'
p5218
aS'to'
p5219
aS'change'
p5220
aS'these'
p5221
aS'now'
p5222
aaa(lp5223
g5186
a(lp5224
S'but'
p5225
aS'really'
p5226
aS'on'
p5227
aS'the'
p5228
aS'second'
p5229
aS'floor'
p5230
aaa(lp5231
S'LARRY'
p5232
a(lp5233
S'This'
p5234
aS'ones'
p5235
aS'not'
p5236
aS'too'
p5237
aS'bad'
p5238
aaa(lp5239
S'SETH'
p5240
a(lp5241
S'the'
p5242
aS'heat'
p5243
aS'the'
p5244
aS'heats'
p5245
aS'gonna'
p5246
aS'rise'
p5247
aaa(lp5248
g5240
a(lp5249
S'from'
p5250
aS'the'
p5251
aS'first'
p5252
aS'floor'
p5253
aS'anyway'
p5254
aaa(lp5255
S'LARRYYeah'
p5256
a(lp5257
S'up'
p5258
aS'to'
p5259
aaa(lp5260
g5256
a(lp5261
S'You'
p5262
aS'know'
p5263
aaa(lp5264
S'SETH'
p5265
a(lp5266
S'So'
p5267
ag75
aaa(lp5268
S'LARRYAnd'
p5269
a(lp5270
S'itll'
p5271
aS'hold'
p5272
aS'it'
p5273
aS'in'
p5274
aS'here'
p5275
aS'real'
p5276
aS'well'
p5277
aaa(lp5278
S'SETH'
p5279
a(lp5280
S'Yeah'
p5281
aaa(lp5282
g5279
a(lp5283
S'Typically'
p5284
aaa(lp5285
g5279
a(lp5286
S'and'
p5287
aS'if'
p5288
aS'anything'
p5289
aS'you'
p5290
aS'have'
p5291
aS'verheating'
p5292
aS'problems'
p5293
aaa(lp5294
S'LARRY'
p5295
a(lp5296
S'Mm'
p5297
aaa(lp5298
g5295
a(lp5299
S'Yeah'
p5300
aaa(lp5301
S'SETHOn'
p5302
a(lp5303
S'the'
p5304
aS'second'
p5305
aS'floor'
p5306
aaa(lp5307
S'LARRY'
p5308
a(lp5309
S'Well'
p5310
aS'see'
p5311
aS'thats'
p5312
aS'what'
p5313
aS'we'
p5314
aS'wanted'
p5315
aS'to'
p5316
aS'do'
p5317
aaa(lp5318
g5308
a(lp5319
S'is'
p5320
aS'have'
p5321
aS'some'
p5322
aS'kind'
p5323
aS'of'
p5324
ag134
aS'system'
p5325
aaa(lp5326
g5308
a(lp5327
S'that'
p5328
aS'we'
p5329
aS'know'
p5330
aS'we'
p5331
aS'can'
p5332
aS'shut'
p5333
aS'off'
p5334
aaa(lp5335
g5308
a(lp5336
S'Certain'
p5337
aS'certain'
p5338
aS'areas'
p5339
aaa(lp5340
g5308
a(lp5341
S'Like'
p5342
aS'if'
p5343
ag1067
aaa(lp5344
S'SETH'
p5345
a(lp5346
S'One'
p5347
aS'of'
p5348
aS'the'
p5349
aS'things'
p5350
aS'we'
p5351
aS'could'
p5352
aS'do'
p5353
aaa(lp5354
g5345
a(lp5355
g75
aS'dont'
p5356
aS'think'
p5357
aS'they'
p5358
aS'have'
p5359
aS'any'
p5360
aS'dampers'
p5361
aS'here'
p5362
aaa(lp5363
g5345
a(lp5364
S'Do'
p5365
aS'they'
p5366
aaa(lp5367
g5345
a(lp5368
S'Oh'
p5369
aS'they'
p5370
aS'do'
p5371
aaa(lp5372
S'LARRY'
p5373
a(lp5374
S'Yeah'
p5375
aaa(lp5376
S'SETH'
p5377
a(lp5378
S'So'
p5379
aS'you'
p5380
aS'can'
p5381
aS'close'
p5382
aS'off'
p5383
aaa(lp5384
S'LARRY'
p5385
a(lp5386
S'Oh'
p5387
aS'okay'
p5388
aaa(lp5389
g5385
a(lp5390
g135
aS'So'
p5391
aS'thats'
p5392
aS'how'
p5393
aS'its'
p5394
ag135
aaa(lp5395
S'SETH'
p5396
a(lp5397
S'Yeah'
p5398
aS'you'
p5399
aS'can'
p5400
aS'close'
p5401
aS'off'
p5402
aS'individual'
p5403
ag3922
aaa(lp5404
S'LARRY'
p5405
a(lp5406
S'Close'
p5407
aS'these'
p5408
aS'off'
p5409
aaa(lp5410
S'SETH'
p5411
a(lp5412
aa(lp5413
S'LARRY'
p5414
a(lp5415
S'and'
p5416
aS'then'
p5417
aS'the'
p5418
aaa(lp5419
g5414
a(lp5420
S'then'
p5421
aS'itll'
p5422
aS'force'
p5423
aS'the'
p5424
aS'air'
p5425
aS'what'
p5426
aaa(lp5427
g5414
a(lp5428
S'Down'
p5429
aS'into'
p5430
aaa(lp5431
S'SETH'
p5432
a(lp5433
S'Downstairs'
p5434
aaa(lp5435
g5432
a(lp5436
S'Now'
p5437
aaa(lp5438
S'LARRYX'
p5439
a(lp5440
aa(lp5441
S'SETHthe'
p5442
a(lp5443
S'one'
p5444
aS'thing'
p5445
aS'you'
p5446
aS'dont'
p5447
aS'wanna'
p5448
aS'do'
p5449
aS'though'
p5450
aaa(lp5451
g5442
a(lp5452
S'is'
p5453
aS'close'
p5454
aS'off'
p5455
aS'too'
p5456
aS'many'
p5457
aS'of'
p5458
aS'em'
p5459
aaa(lp5460
S'LARRY'
p5461
a(lp5462
S'Cause'
p5463
aS'then'
p5464
aS'you'
p5465
aS'put'
p5466
ag134
aS'strain'
p5467
aS'on'
p5468
aS'the'
p5469
aaa(lp5470
S'SETH'
p5471
a(lp5472
S'Cause'
p5473
aS'cause'
p5474
aS'then'
p5475
aS'youre'
p5476
aS'uh'
p5477
aaa(lp5478
g5471
a(lp5479
S'yeah'
p5480
aaa(lp5481
g5471
a(lp5482
S'youve'
p5483
aS'gotta'
p5484
aS'have'
p5485
ag134
aS'certain'
p5486
aS'amount'
p5487
aS'of'
p5488
aS'air'
p5489
aaa(lp5490
g5471
a(lp5491
S'for'
p5492
aS'the'
p5493
aS'furnace'
p5494
aS'to'
p5495
aS'work'
p5496
aS'properly'
p5497
aaa(lp5498
g5471
a(lp5499
S'And'
p5500
aS'if'
p5501
aS'you'
p5502
aS'reduce'
p5503
aS'the'
p5504
aS'airflow'
p5505
aS'too'
p5506
aS'much'
p5507
aaa(lp5508
g5471
a(lp5509
S'then'
p5510
aS'it'
p5511
aS'wont'
p5512
aS'have'
p5513
aS'enough'
p5514
aS'air'
p5515
aS'going'
p5516
aS'across'
p5517
aS'the'
p5518
aS'heat'
p5519
aS'exchanger'
p5520
aaa(lp5521
g5471
a(lp5522
S'and'
p5523
aS'itll'
p5524
aaa(lp5525
g5471
a(lp5526
S'itll'
p5527
aS'overheat'
p5528
aS'the'
p5529
aS'heat'
p5530
aS'exchanger'
p5531
aaa(lp5532
S'LARRYOh'
p5533
a(lp5534
aa(lp5535
g5533
a(lp5536
S'Really'
p5537
aaa(lp5538
g5533
a(lp5539
S'Okay'
p5540
aaa(lp5541
S'SETH'
p5542
a(lp5543
S'So'
p5544
ag75
aS'would'
p5545
aS'say'
p5546
aaa(lp5547
S'ENV'
p5548
a(lp5549
aa(lp5550
S'SETHyou'
p5551
a(lp5552
S'dont'
p5553
aS'want'
p5554
aS'to'
p5555
aS'close'
p5556
aS'more'
p5557
aS'than'
p5558
aS'uh'
p5559
aaa(lp5560
g5551
a(lp5561
S'more'
p5562
aS'than'
p5563
aS'about'
p5564
aS'twentyfive'
p5565
aS'percent'
p5566
aS'of'
p5567
aS'em'
p5568
aaa(lp5569
g5551
a(lp5570
S'Or'
p5571
aS'you'
p5572
aS'can'
p5573
aS'close'
p5574
aS'em'
p5575
aaa(lp5576
g5551
a(lp5577
g1617
aS'you'
p5578
aS'know'
p5579
aaa(lp5580
g5551
a(lp5581
S'if'
p5582
aS'you'
p5583
aS'close'
p5584
aS'em'
p5585
aS'uh'
p5586
ag134
ag134
aS'hundred'
p5587
aS'percent'
p5588
aaa(lp5589
g5551
a(lp5590
S'If'
p5591
aS'you'
p5592
aS'close'
p5593
aS'em'
p5594
aS'all'
p5595
aS'the'
p5596
aS'way'
p5597
aaa(lp5598
g5551
a(lp5599
S'you'
p5600
aS'probably'
p5601
aS'dont'
p5602
aS'want'
p5603
aS'to'
p5604
aS'shut'
p5605
aS'more'
p5606
aS'than'
p5607
aS'twentyfive'
p5608
aS'percent'
p5609
aS'of'
p5610
aS'em'
p5611
aaa(lp5612
g5551
a(lp5613
S'All'
p5614
aS'the'
p5615
aS'way'
p5616
aaa(lp5617
S'LARRY'
p5618
a(lp5619
aa(lp5620
S'SETH'
p5621
a(lp5622
S'Which'
p5623
aS'would'
p5624
ag3335
aaa(lp5625
g5621
a(lp5626
S'Im'
p5627
aS'not'
p5628
aS'sure'
p5629
aaa(lp5630
g5621
a(lp5631
S'maybe'
p5632
aS'all'
p5633
aS'upstairs'
p5634
aaa(lp5635
g5621
a(lp5636
S'you'
p5637
aS'might'
p5638
aS'wanna'
p5639
aS'leave'
p5640
aS'em'
p5641
aS'cracked'
p5642
aS'open'
p5643
aS'just'
p5644
ag134
aS'little'
p5645
aS'bit'
p5646
aS'though'
p5647
aaa(lp5648
S'LARRYUnhunh'
p5649
a(lp5650
aa(lp5651
S'SETHJust'
p5652
a(lp5653
S'to'
p5654
aS'make'
p5655
aS'sure'
p5656
aS'you'
p5657
aS'get'
p5658
aS'enough'
p5659
aS'air'
p5660
aaa(lp5661
S'LARRYYeah'
p5662
a(lp5663
aa(lp5664
S'SETH'
p5665
a(lp5666
S'But'
p5667
aaa(lp5668
g5665
a(lp5669
S'okay'
p5670
aaa(lp5671
g5665
a(lp5672
S'so'
p5673
aS'wed'
p5674
aS'be'
p5675
aS'looking'
p5676
aS'at'
p5677
aS'adding'
p5678
aS'two'
p5679
aaa(lp5680
g5665
a(lp5681
S'two'
p5682
aS'registers'
p5683
aS'for'
p5684
aS'that'
p5685
aS'parlor'
p5686
aS'room'
p5687
aaa(lp5688
S'LARRY'
p5689
a(lp5690
S'Adding'
p5691
aS'two'
p5692
aS'to'
p5693
aS'that'
p5694
aS'parlor'
p5695
aS'room'
p5696
aaa(lp5697
S'SETH'
p5698
a(lp5699
S'And'
p5700
aS'then'
p5701
aS'what'
p5702
aS'about'
p5703
aS'that'
p5704
aS'one'
p5705
aaa(lp5706
g5698
a(lp5707
S'Do'
p5708
aS'you'
p5709
aS'wanna'
p5710
aS'hold'
p5711
aS'off'
p5712
aS'on'
p5713
aS'that'
p5714
aaa(lp5715
S'LARRYWell'
p5716
a(lp5717
aa(lp5718
g5716
a(lp5719
S'maybe'
p5720
aS'we'
p5721
aS'should'
p5722
aS'just'
p5723
aaa(lp5724
S'SETH'
p5725
a(lp5726
S'Or'
p5727
aS'would'
p5728
aS'you'
p5729
aS'wanna'
p5730
aS'do'
p5731
aS'at'
p5732
aS'least'
p5733
aS'one'
p5734
aS'of'
p5735
aS'em'
p5736
aaa(lp5737
S'LARRY'
p5738
a(lp5739
g75
aS'think'
p5740
aS'we'
p5741
aS'should'
p5742
aS'do'
p5743
aS'something'
p5744
aaa(lp5745
g5738
a(lp5746
S'yeah'
p5747
aaa(lp5748
g5738
a(lp5749
S'Only'
p5750
aS'because'
p5751
aaa(lp5752
S'SETH'
p5753
a(lp5754
S'Because'
p5755
aS'if'
p5756
aS'that'
p5757
aS'remodels'
p5758
ag134
aS'year'
p5759
aS'away'
p5760
aS'then'
p5761
aaa(lp5762
S'LARRY'
p5763
a(lp5764
g75
ag75
aS'th'
p5765
aaa(lp5766
g5763
a(lp5767
g135
ag75
aS'guess'
p5768
ag75
aS'th'
p5769
ag135
aaa(lp5770
g5763
a(lp5771
g75
aS'think'
p5772
aS'this'
p5773
aS'thing'
p5774
aS'is'
p5775
aS'gonna'
p5776
aS'be'
p5777
ag134
aS'cold'
p5778
aS'little'
p5779
aaa(lp5780
S'SETH'
p5781
a(lp5782
S'oh'
p5783
aaa(lp5784
g5781
a(lp5785
g75
aS'can'
p5786
aS'definitely'
p5787
aS'see'
p5788
aS'that'
p5789
aaa(lp5790
S'LARRY'
p5791
a(lp5792
g75
ag75
ag75
aS'can'
p5793
aS'tell'
p5794
aS'you'
p5795
aS'that'
p5796
aaa(lp5797
g5791
a(lp5798
S'because'
p5799
aS'the'
p5800
aS'windows'
p5801
aaa(lp5802
S'SETH'
p5803
a(lp5804
S'See'
p5805
aS'you'
p5806
aS'only'
p5807
ag135
aS'like'
p5808
ag135
aaa(lp5809
g5803
a(lp5810
S'the'
p5811
aS'only'
p5812
aS'heat'
p5813
aS'you'
p5814
aS'have'
p5815
aS'in'
p5816
aS'this'
p5817
aS'room'
p5818
aaa(lp5819
g5803
a(lp5820
S'is'
p5821
aS'that'
p5822
aS'one'
p5823
aS'register'
p5824
aS'over'
p5825
aS'there'
p5826
aaa(lp5827
S'LARRY'
p5828
a(lp5829
S'the'
p5830
aS'windows'
p5831
aS'in'
p5832
aS'this'
p5833
aS'thing'
p5834
aS'are'
p5835
aS'THUMP'
p5836
aS'just'
p5837
aS'about'
p5838
aS'ready'
p5839
aS'to'
p5840
aS'fall'
p5841
aS'out'
p5842
aaa(lp5843
g5828
a(lp5844
g75
aS'mean'
p5845
aS'theyre'
p5846
aS'THUMP'
p5847
aaa(lp5848
g5828
a(lp5849
S'theyre'
p5850
aS'not'
p5851
aaa(lp5852
g5828
a(lp5853
S'Look'
p5854
aS'at'
p5855
aS'this'
p5856
aaa(lp5857
g5828
a(lp5858
S'So'
p5859
ag75
aS'know'
p5860
aS'theres'
p5861
aS'gonna'
p5862
aS'be'
p5863
ag134
aS'lot'
p5864
aS'of'
p5865
aS'uh'
p5866
aaa(lp5867
S'SETH'
p5868
a(lp5869
g2963
aS'lotta'
p5870
aS'infiltration'
p5871
aaa(lp5872
S'LARRYYeah'
p5873
a(lp5874
aa(lp5875
g5873
a(lp5876
S'Until'
p5877
aS'we'
p5878
aS'get'
p5879
aS'this'
p5880
aS'corrected'
p5881
aaa(lp5882
S'SETH'
p5883
a(lp5884
S'See'
p5885
aS'hopefully'
p5886
aS'youll'
p5887
aS'go'
p5888
aS'with'
p5889
aS'doublepane'
p5890
aS'glass'
p5891
aS'on'
p5892
aS'your'
p5893
aS'remodel'
p5894
aaa(lp5895
S'LARRY'
p5896
a(lp5897
S'XXX'
p5898
aaa(lp5899
S'SETH'
p5900
a(lp5901
S'Thatll'
p5902
aS'help'
p5903
aS'cut'
p5904
aS'down'
p5905
ag134
aS'lot'
p5906
aaa(lp5907
S'LARRYYeah'
p5908
a(lp5909
aa(lp5910
S'SETHOn'
p5911
a(lp5912
S'your'
p5913
aaa(lp5914
S'LARRY'
p5915
a(lp5916
S'Yeah'
p5917
aaa(lp5918
S'SETH'
p5919
a(lp5920
S'heat'
p5921
aS'loss'
p5922
aaa(lp5923
S'LARRY'
p5924
a(lp5925
S'So'
p5926
aaa(lp5927
g5924
a(lp5928
g75
aS'mean'
p5929
aaa(lp5930
g5924
a(lp5931
S'in'
p5932
aS'some'
p5933
aS'ways'
p5934
aaa(lp5935
g5924
a(lp5936
S'having'
p5937
aS'windows'
p5938
aaa(lp5939
g5924
a(lp5940
S'is'
p5941
aS'it'
p5942
ag134
aS'bad'
p5943
aS'idea'
p5944
aaa(lp5945
g5924
a(lp5946
S'Because'
p5947
aS'you'
p5948
aS'get'
p5949
ag134
aS'lot'
p5950
aS'of'
p5951
aS'natural'
p5952
aS'heat'
p5953
aS'from'
p5954
aS'the'
p5955
aS'the'
p5956
ag3038
aS'from'
p5957
aS'sun'
p5958
aaa(lp5959
S'SETH'
p5960
a(lp5961
S'Thats'
p5962
aS'right'
p5963
aaa(lp5964
S'LARRY'
p5965
a(lp5966
g135
aS'You'
p5967
aS'knowX'
p5968
aaa(lp5969
S'SETH'
p5970
a(lp5971
S'Okay'
p5972
aS'this'
p5973
aS'is'
p5974
aS'like'
p5975
aS'it'
p5976
aS'would'
p5977
aS'get'
p5978
aaa(lp5979
S'LARRY'
p5980
a(lp5981
S'So'
p5982
aaa(lp5983
S'SETHThis'
p5984
a(lp5985
S'is'
p5986
aS'like'
p5987
aS'east'
p5988
aS'facing'
p5989
aaa(lp5990
g5984
a(lp5991
S'Right'
p5992
aaa(lp5993
S'LARRYYeah'
p5994
a(lp5995
aa(lp5996
g5994
a(lp5997
S'The'
p5998
ag3038
aS'in'
p5999
aS'in'
p6000
aaa(lp6001
S'SETH'
p6002
a(lp6003
S'So'
p6004
aS'you'
p6005
aS'get'
p6006
aS'some'
p6007
aS'morning'
p6008
aS'sun'
p6009
aaa(lp6010
S'LARRYYou'
p6011
a(lp6012
S'get'
p6013
aS'the'
p6014
aS'morning'
p6015
aaa(lp6016
g6011
a(lp6017
S'in'
p6018
aS'the'
p6019
aS'winter'
p6020
aaa(lp6021
g6011
a(lp6022
S'its'
p6023
aS'gonna'
p6024
aS'come'
p6025
aS'right'
p6026
aS'across'
p6027
aS'like'
p6028
aS'this'
p6029
aaa(lp6030
S'SETH'
p6031
a(lp6032
S'Yeah'
p6033
aaa(lp6034
S'LARRYSo'
p6035
a(lp6036
aa(lp6037
g6035
a(lp6038
S'XX'
p6039
aaa(lp6040
S'SETHSo'
p6041
a(lp6042
S'thats'
p6043
aS'gonna'
p6044
aS'be'
p6045
aS'good'
p6046
aaa(lp6047
S'LARRYSo'
p6048
a(lp6049
S'thatll'
p6050
aS'be'
p6051
aS'good'
p6052
aaa(lp6053
g6048
a(lp6054
S'So'
p6055
aS'maybe'
p6056
aS'one'
p6057
aS'register'
p6058
aS'in'
p6059
aS'here'
p6060
aS'for'
p6061
aS'the'
p6062
aS'moment'
p6063
aaa(lp6064
g6048
a(lp6065
S'until'
p6066
aS'we'
p6067
aS'kinda'
p6068
aS'feel'
p6069
aS'it'
p6070
aS'out'
p6071
aS'would'
p6072
aS'be'
p6073
aS'uh'
p6074
aaa(lp6075
S'SETH'
p6076
a(lp6077
S'Sure'
p6078
aaa(lp6079
g6076
a(lp6080
g75
aS'mean'
p6081
aS'this'
p6082
aS'one'
p6083
aS'it'
p6084
aS'looks'
p6085
aS'like'
p6086
aaa(lp6087
g6076
a(lp6088
S'if'
p6089
aS'we'
p6090
aS'put'
p6091
ag134
aS'register'
p6092
aS'over'
p6093
aS'here'
p6094
aaa(lp6095
g6076
a(lp6096
S'you'
p6097
aS'wouldnt'
p6098
aS'have'
p6099
aS'to'
p6100
aS'change'
p6101
aS'it'
p6102
aS'anyway'
p6103
aaa(lp6104
S'LARRY'
p6105
a(lp6106
S'Yeah'
p6107
aaa(lp6108
g6105
a(lp6109
S'No'
p6110
aS'that'
p6111
aS'that'
p6112
aaa(lp6113
S'SETH'
p6114
a(lp6115
S'With'
p6116
aS'your'
p6117
aS'remodel'
p6118
aaa(lp6119
g6114
a(lp6120
S'that'
p6121
aS'might'
p6122
aS'work'
p6123
aS'into'
p6124
aS'it'
p6125
aaa(lp6126
S'LARRY'
p6127
a(lp6128
S'Yeah'
p6129
aaa(lp6130
S'SETH'
p6131
a(lp6132
S'And'
p6133
aS'like'
p6134
ag75
aS'say'
p6135
aaa(lp6136
g6131
a(lp6137
S'even'
p6138
ag2886
aaa(lp6139
g6131
a(lp6140
S'even'
p6141
aS'if'
p6142
aS'you'
p6143
aS'do'
p6144
aS'have'
p6145
aS'to'
p6146
aS'move'
p6147
aS'it'
p6148
aaa(lp6149
g6131
a(lp6150
S'its'
p6151
aS'not'
p6152
ag135
ag134
aS'big'
p6153
aS'deal'
p6154
aaa(lp6155
g6131
a(lp6156
g75
aS'mean'
p6157
aS'somebody'
p6158
aS'just'
p6159
aS'moves'
p6160
aS'it'
p6161
aaa(lp6162
S'LARRY'
p6163
a(lp6164
S'Okay'
p6165
aaa(lp6166
S'SETH'
p6167
a(lp6168
S'you'
p6169
aS'know'
p6170
aaa(lp6171
g6167
a(lp6172
g134
aS'carpenter'
p6173
aS'can'
p6174
aS'do'
p6175
aS'it'
p6176
aS'even'
p6177
aaa(lp6178
g6167
a(lp6179
S'You'
p6180
aS'dont'
p6181
aS'even'
p6182
aS'need'
p6183
aS'to'
p6184
aS'have'
p6185
aS'us'
p6186
aS'come'
p6187
aS'out'
p6188
aS'and'
p6189
aS'do'
p6190
aS'it'
p6191
aS'really'
p6192
aaa(lp6193
g6167
a(lp6194
S'You'
p6195
aS'might'
p6196
aS'have'
p6197
aS'to'
p6198
aS'add'
p6199
ag134
aaa(lp6200
g6167
a(lp6201
S'buy'
p6202
ag134
aS'piece'
p6203
aS'of'
p6204
aS'flexible'
p6205
aS'duct'
p6206
aS'and'
p6207
aS'stick'
p6208
aS'it'
p6209
aS'on'
p6210
aS'there'
p6211
aaa(lp6212
g6167
a(lp6213
S'but'
p6214
aS'its'
p6215
aS'not'
p6216
ag134
aaa(lp6217
S'LARRY'
p6218
a(lp6219
S'Yeah'
p6220
aaa(lp6221
S'SETH'
p6222
a(lp6223
S'not'
p6224
ag134
aS'big'
p6225
aS'deal'
p6226
aaa(lp6227
S'LARRY'
p6228
a(lp6229
S'Okay'
p6230
aaa(lp6231
g6228
a(lp6232
S'Alright'
p6233
aaa(lp6234
S'SETH'
p6235
a(lp6236
S'Okay'
p6237
aaa(lp6238
S'LARRYWell'
p6239
a(lp6240
S'that'
p6241
aS'sounds'
p6242
aS'good'
p6243
aaa(lp6244
S'SETHWell'
p6245
a(lp6246
S'let'
p6247
aS'me'
p6248
aS'check'
p6249
aS'downstairs'
p6250
aS'again'
p6251
aaa(lp6252
g6245
a(lp6253
g75
aS'gotta'
p6254
aS'take'
p6255
aS'some'
p6256
aS'measurements'
p6257
aS'on'
p6258
aS'that'
p6259
aS'room'
p6260
aaa(lp6261
S'LARRY'
p6262
a(lp6263
S'Okay'
p6264
aaa(lp6265
g6262
a(lp6266
S'Well'
p6267
aS'now'
p6268
aS'you'
p6269
aS'get'
p6270
aaa(lp6271
g6262
a(lp6272
S'youve'
p6273
aS'got'
p6274
aS'the'
p6275
aS'logistics'
p6276
aS'of'
p6277
aS'every'
p6278
aaa(lp6279
g6262
a(lp6280
S'Oh'
p6281
aS'wait'
p6282
aaa(lp6283
g6262
a(lp6284
g135
aS'And'
p6285
aS'then'
p6286
ag75
aS'think'
p6287
ag135
aS'my'
p6288
aS'wife'
p6289
aaa(lp6290
S'SETH'
p6291
a(lp6292
S'Now'
p6293
aS'you'
p6294
aaa(lp6295
g6291
a(lp6296
S'now'
p6297
aS'you'
p6298
aS'say'
p6299
aS'about'
p6300
aaa(lp6301
S'LARRY'
p6302
a(lp6303
S'my'
p6304
aS'wife'
p6305
aS'said'
p6306
aS'she'
p6307
aS'would'
p6308
aS'like'
p6309
aS'to'
p6310
aS'have'
p6311
ag134
aS'register'
p6312
aS'put'
p6313
aS'in'
p6314
aS'this'
p6315
aS'room'
p6316
aaa(lp6317
g6302
a(lp6318
S'And'
p6319
ag75
aS'think'
p6320
aS'its'
p6321
aS'kinda'
p6322
aS'weird'
p6323
aaa(lp6324
g6302
a(lp6325
S'but'
p6326
aaa(lp6327
g6302
a(lp6328
S'what'
p6329
aS'do'
p6330
aS'you'
p6331
aS'think'
p6332
aaa(lp6333
g6302
a(lp6334
S'Why'
p6335
aS'would'
p6336
aS'she'
p6337
aaa(lp6338
S'SETH'
p6339
a(lp6340
S'What'
p6341
aS'is'
p6342
aS'this'
p6343
aaa(lp6344
g6339
a(lp6345
S'what'
p6346
aS'is'
p6347
aS'this'
p6348
aS'room'
p6349
aS'used'
p6350
aS'for'
p6351
aaa(lp6352
S'LARRY'
p6353
a(lp6354
S'Well'
p6355
aaa(lp6356
g6353
a(lp6357
S'eventually'
p6358
aS'this'
p6359
aS'is'
p6360
aS'gonna'
p6361
aS'be'
p6362
aaa(lp6363
g6353
a(lp6364
S'and'
p6365
aS'were'
p6366
aS'gonna'
p6367
aS'open'
p6368
aS'this'
p6369
aS'up'
p6370
aaa(lp6371
g6353
a(lp6372
S'Were'
p6373
aS'gonna'
p6374
aS'take'
p6375
aS'out'
p6376
aS'some'
p6377
aS'of'
p6378
aS'these'
p6379
aS'shelves'
p6380
aaa(lp6381
g6353
a(lp6382
S'and'
p6383
aS'get'
p6384
aS'some'
p6385
aS'light'
p6386
aS'to'
p6387
aS'come'
p6388
aS'through'
p6389
aS'here'
p6390
aaa(lp6391
S'SETH'
p6392
a(lp6393
S'This'
p6394
aS'is'
p6395
aS'sort'
p6396
aS'of'
p6397
aS'like'
p6398
ag134
aS'pantry'
p6399
aaa(lp6400
S'LARRY'
p6401
a(lp6402
S'But'
p6403
aaa(lp6404
g6401
a(lp6405
S'kinda'
p6406
aS'pantry'
p6407
aS'area'
p6408
aaa(lp6409
g6401
a(lp6410
S'But'
p6411
aS'its'
p6412
aS'gonna'
p6413
aS'be'
p6414
aS'an'
p6415
aS'extension'
p6416
aS'of'
p6417
aS'the'
p6418
aS'kitchen'
p6419
aaa(lp6420
g6401
a(lp6421
S'Kind'
p6422
aS'of'
p6423
aaa(lp6424
g6401
a(lp6425
S'So'
p6426
aaa(lp6427
g6401
a(lp6428
g75
aS'dont'
p6429
aS'know'
p6430
aS'if'
p6431
aaa(lp6432
S'SETHId'
p6433
a(lp6434
aa(lp6435
g6433
a(lp6436
S'Yeah'
p6437
aaa(lp6438
g6433
a(lp6439
S'Id'
p6440
aS'put'
p6441
aaa(lp6442
g6433
a(lp6443
S'Id'
p6444
aS'probably'
p6445
aS'put'
p6446
aS'one'
p6447
aS'like'
p6448
aS'right'
p6449
aS'there'
p6450
aaa(lp6451
g6433
a(lp6452
S'About'
p6453
aS'right'
p6454
aS'there'
p6455
aaa(lp6456
S'LARRY'
p6457
a(lp6458
aa(lp6459
S'SETHYou'
p6460
a(lp6461
S'gonna'
p6462
aS'be'
p6463
aS'putting'
p6464
aS'anything'
p6465
aS'there'
p6466
aaa(lp6467
S'LARRY'
p6468
a(lp6469
S'XWH'
p6470
ag75
aS'think'
p6471
aS'WHX'
p6472
aaa(lp6473
S'SETH'
p6474
a(lp6475
S'Probably'
p6476
aS'somethings'
p6477
aS'gonna'
p6478
aS'go'
p6479
aS'there'
p6480
aaa(lp6481
g6474
a(lp6482
S'Right'
p6483
aaa(lp6484
g6474
a(lp6485
g2963
aS'table'
p6486
aS'or'
p6487
aS'something'
p6488
aaa(lp6489
S'LARRY'
p6490
a(lp6491
g75
aS'dont'
p6492
aS'know'
p6493
aaa(lp6494
g6490
a(lp6495
g75
aaa(lp6496
g6490
a(lp6497
S'Yeah'
p6498
aaa(lp6499
S'SETHCause'
p6500
a(lp6501
S'thats'
p6502
aS'about'
p6503
aS'the'
p6504
aS'only'
p6505
aS'spot'
p6506
aS'you'
p6507
aS'can'
p6508
aS'put'
p6509
aS'it'
p6510
aaa(lp6511
g6500
a(lp6512
S'Well'
p6513
aaa(lp6514
g6500
a(lp6515
g75
aS'mean'
p6516
ag1617
aS'we'
p6517
aS'could'
p6518
aS'put'
p6519
ag134
aaa(lp6520
g6500
a(lp6521
S'we'
p6522
aS'could'
p6523
aS'put'
p6524
ag134
aS'floor'
p6525
ag1045
aS'floor'
p6526
aS'register'
p6527
aS'right'
p6528
aS'along'
p6529
aS'here'
p6530
aaa(lp6531
g6500
a(lp6532
g75
aS'dont'
p6533
aS'know'
p6534
aS'if'
p6535
aS'youd'
p6536
aS'want'
p6537
aS'that'
p6538
aaa(lp6539
g6500
a(lp6540
S'But'
p6541
aS'thats'
p6542
aS'probably'
p6543
aS'where'
p6544
aS'Id'
p6545
aS'put'
p6546
aS'it'
p6547
aaa(lp6548
g6500
a(lp6549
S'In'
p6550
aS'fact'
p6551
aS'the'
p6552
aS'one'
p6553
aS'that'
p6554
ag75
aS'was'
p6555
aS'gonna'
p6556
aS'put'
p6557
aS'in'
p6558
aS'there'
p6559
aaa(lp6560
g6500
a(lp6561
S'Id'
p6562
aS'probably'
p6563
aaa(lp6564
S'LARRYWe'
p6565
a(lp6566
S'might'
p6567
aS'have'
p6568
aS'trouble'
p6569
aS'getting'
p6570
aS'to'
p6571
aS'this'
p6572
aS'spot'
p6573
aS'though'
p6574
aaa(lp6575
g6565
a(lp6576
g75
aS'think'
p6577
aaa(lp6578
S'SETHYou'
p6579
a(lp6580
S'think'
p6581
aS'so'
p6582
aaa(lp6583
S'LARRY'
p6584
a(lp6585
S'Yeah'
p6586
aaa(lp6587
g6584
a(lp6588
S'Cause'
p6589
aS'it'
p6590
aS'starts'
p6591
aS'getting'
p6592
aS'real'
p6593
aS'tight'
p6594
aS'up'
p6595
aS'there'
p6596
aS'on'
p6597
aS'this'
p6598
aS'end'
p6599
aaa(lp6600
g6584
a(lp6601
S'Yeah'
p6602
aaa(lp6603
g6584
a(lp6604
S'Well'
p6605
aaa(lp6606
g6584
a(lp6607
S'lets'
p6608
aS'uh'
p6609
aaa(lp6610
S'SETH'
p6611
a(lp6612
S'Maybe'
p6613
aS'on'
p6614
aS'this'
p6615
aS'end'
p6616
aaa(lp6617
S'LARRY'
p6618
a(lp6619
S'Yeah'
p6620
aaa(lp6621
g6618
a(lp6622
S'It'
p6623
aS'would'
p6624
aS'have'
p6625
aS'to'
p6626
aS'be'
p6627
aaa(lp6628
g6618
a(lp6629
S'if'
p6630
aS'anywhere'
p6631
aaa(lp6632
g6618
a(lp6633
S'itd'
p6634
aS'have'
p6635
aS'to'
p6636
aS'be'
p6637
aS'down'
p6638
aaa(lp6639
S'SETH'
p6640
a(lp6641
g135
aS'thats'
p6642
aS'not'
p6643
ag134
aS'bad'
p6644
aS'spot'
p6645
aaa(lp6646
S'LARRY'
p6647
a(lp6648
S'okay'
p6649
aaa(lp6650
S'SETH'
p6651
a(lp6652
S'Its'
p6653
aS'gonna'
p6654
aS'help'
p6655
aS'out'
p6656
aaa(lp6657
g6651
a(lp6658
S'cause'
p6659
ag75
aaa(lp6660
g6651
a(lp6661
S'See'
p6662
aS'this'
p6663
aS'whole'
p6664
aS'area'
p6665
aaa(lp6666
g6651
a(lp6667
S'youve'
p6668
aS'just'
p6669
aS'got'
p6670
aS'that'
p6671
aS'one'
p6672
aS'grill'
p6673
aaa(lp6674
g6651
a(lp6675
S'Its'
p6676
ag134
aS'pretty'
p6677
aS'goodsized'
p6678
aS'area'
p6679
aS'right'
p6680
aS'here'
p6681
aaa(lp6682
S'LARRY'
p6683
a(lp6684
S'Okay'
p6685
aaa(lp6686
S'SETHWhat'
p6687
a(lp6688
S'about'
p6689
aS'the'
p6690
aS'kitchen'
p6691
aaa(lp6692
S'LARRY'
p6693
a(lp6694
S'Well'
p6695
aS'lets'
p6696
aaa(lp6697
g6693
a(lp6698
S'lets'
p6699
aS'consider'
p6700
aS'that'
p6701
aaa(lp6702
S'SETH'
p6703
a(lp6704
S'Kitchens'
p6705
aS'got'
p6706
aS'one'
p6707
aaa(lp6708
S'LARRY'
p6709
a(lp6710
S'kitchens'
p6711
aS'got'
p6712
aS'one'
p6713
aS'right'
p6714
aS'here'
p6715
aaa(lp6716
S'SETH'
p6717
a(lp6718
S'Yeah'
p6719
aaa(lp6720
g6717
a(lp6721
S'okay'
p6722
aaa(lp6723
S'LARRY'
p6724
a(lp6725
S'and'
p6726
aS'uh'
p6727
aaa(lp6728
g6724
a(lp6729
S'Im'
p6730
aS'not'
p6731
aS'too'
p6732
aS'worried'
p6733
aS'about'
p6734
aS'the'
p6735
aS'kitchen'
p6736
aaa(lp6737
g6724
a(lp6738
g75
aS'dont'
p6739
aS'like'
p6740
aS'hot'
p6741
aS'kitchens'
p6742
aS'anyway'
p6743
aaa(lp6744
g6724
a(lp6745
S'Cause'
p6746
ag75
aS'mean'
p6747
ag1617
aaa(lp6748
g6724
a(lp6749
S'you'
p6750
aS'got'
p6751
ag134
aS'stove'
p6752
aS'going'
p6753
aaa(lp6754
g6724
a(lp6755
S'and'
p6756
aaa(lp6757
g6724
a(lp6758
S'VOX'
p6759
aS'Ah'
p6760
aS'were'
p6761
aS'in'
p6762
aS'good'
p6763
aS'shape'
p6764
aS'that'
p6765
aS'way'
p6766
aS'VOX'
p6767
aaa(lp6768
g6724
a(lp6769
S'ah'
p6770
aaa(lp6771
g6724
a(lp6772
S'Wait'
p6773
ag134
aS'minute'
p6774
aaa(lp6775
g6724
a(lp6776
g135
aS'Did'
p6777
ag135
ag75
aS'forget'
p6778
aS'something'
p6779
aS'else'
p6780
aaa(lp6781
g6724
a(lp6782
S'too'
p6783
aaa(lp6784
g6724
a(lp6785
S'Ah'
p6786
aS'yeah'
p6787
aaa(lp6788
g6724
a(lp6789
S'Were'
p6790
aS'gonna'
p6791
aS'have'
p6792
aS'to'
p6793
aS'put'
p6794
ag134
aS'register'
p6795
aS'out'
p6796
aS'here'
p6797
aaa(lp6798
g6724
a(lp6799
S'Because'
p6800
ag1617
aaa(lp6801
g6724
a(lp6802
S'this'
p6803
aS'this'
p6804
aS'wall'
p6805
aS'is'
p6806
aS'eventually'
p6807
aS'gonna'
p6808
aS'come'
p6809
aS'out'
p6810
aaa(lp6811
g6724
a(lp6812
S'And'
p6813
aS'so'
p6814
aS'uh'
p6815
aaa(lp6816
S'SETH'
p6817
a(lp6818
S'Utility'
p6819
aS'room'
p6820
aaa(lp6821
S'LARRY'
p6822
a(lp6823
S'utility'
p6824
aS'room'
p6825
aaa(lp6826
g6822
a(lp6827
S'but'
p6828
aS'its'
p6829
aS'gonna'
p6830
aS'eventually'
p6831
aS'be'
p6832
aS'part'
p6833
aS'of'
p6834
aS'the'
p6835
aS'kitchen'
p6836
aaa(lp6837
g6822
a(lp6838
S'And'
p6839
aS'were'
p6840
aS'moving'
p6841
aS'the'
p6842
aS'utility'
p6843
aS'room'
p6844
aaa(lp6845
g6822
a(lp6846
S'So'
p6847
aaa(lp6848
g6822
a(lp6849
S'and'
p6850
aS'this'
p6851
aaa(lp6852
g6822
a(lp6853
S'T'
p6854
aaa(lp6855
g6822
a(lp6856
S'This'
p6857
aS'is'
p6858
ag134
aS'joke'
p6859
aaa(lp6860
g6822
a(lp6861
S'N_look'
p6862
aS'at'
p6863
aS'this'
p6864
aaa(lp6865
S'SETH'
p6866
a(lp6867
aa(lp6868
S'LARRY'
p6869
a(lp6870
aa(lp6871
S'SETH'
p6872
a(lp6873
S'_Well'
p6874
aS'some'
p6875
aS'of'
p6876
aS'these'
p6877
aaa(lp6878
S'LARRY'
p6879
a(lp6880
g135
aaa(lp6881
g6879
a(lp6882
S'Maybe'
p6883
aS'maybe'
p6884
aS'this'
p6885
aS'doesnt'
p6886
aS'make'
p6887
aS'any'
p6888
aS'sense'
p6889
aaa(lp6890
g6879
a(lp6891
S'to'
p6892
aaa(lp6893
S'SETHwell'
p6894
a(lp6895
S'some'
p6896
aS'of'
p6897
aS'these'
p6898
aS'things'
p6899
aS'you'
p6900
aS'may'
p6901
aS'wanna'
p6902
aS'wait'
p6903
aS'until'
p6904
aS'you'
p6905
aS'do'
p6906
aS'the'
p6907
aS'remodel'
p6908
aaa(lp6909
g6894
a(lp6910
g135
aS'Like'
p6911
ag135
aaa(lp6912
S'LARRY'
p6913
a(lp6914
S'Im'
p6915
aS'th'
p6916
aS'Im'
p6917
aS'Im'
p6918
aS'wa'
p6919
aS'Im'
p6920
aS'beginning'
p6921
aS'to'
p6922
aS'wonder'
p6923
aS'if'
p6924
aaa(lp6925
S'SETHBecause'
p6926
a(lp6927
S'what'
p6928
ag75
aS'would'
p6929
aS'prob'
p6930
aaa(lp6931
g6926
a(lp6932
S'What'
p6933
aS'you'
p6934
aS'can'
p6935
aS'do'
p6936
aaa(lp6937
g6926
a(lp6938
S'uh'
p6939
aaa(lp6940
S'LARRY'
p6941
a(lp6942
aa(lp6943
S'SETHis'
p6944
a(lp6945
S'tap'
p6946
aS'right'
p6947
aS'off'
p6948
aS'the'
p6949
aS'plenum'
p6950
aaa(lp6951
g6944
a(lp6952
S'Cause'
p6953
aS'the'
p6954
aS'furnace'
p6955
aS'is'
p6956
aS'somewhere'
p6957
aS'in'
p6958
aS'that'
p6959
aS'general'
p6960
aS'area'
p6961
aaa(lp6962
S'LARRY'
p6963
a(lp6964
S'Its'
p6965
aS'right'
p6966
aS'there'
p6967
aaa(lp6968
g6963
a(lp6969
S'yeah'
p6970
aaa(lp6971
S'SETH'
p6972
a(lp6973
S'And'
p6974
aS'you'
p6975
aS'can'
p6976
aS'just'
p6977
aS'tap'
p6978
aS'right'
p6979
aS'off'
p6980
aS'the'
p6981
aS'plenum'
p6982
aS'with'
p6983
ag134
aS'duct'
p6984
aaa(lp6985
g6972
a(lp6986
S'and'
p6987
aS'bring'
p6988
aS'it'
p6989
aS'to'
p6990
aS'this'
p6991
aS'room'
p6992
aaa(lp6993
S'LARRYOkay'
p6994
a(lp6995
aa(lp6996
g6994
a(lp6997
S'Well'
p6998
aS'thats'
p6999
aS'what'
p7000
aS'we'
p7001
aS'wanted'
p7002
aS'to'
p7003
aaa(lp7004
S'SETH'
p7005
a(lp7006
S'So'
p7007
aS'that'
p7008
aS'can'
p7009
aS'be'
p7010
aS'done'
p7011
aaa(lp7012
S'LARRYthats'
p7013
a(lp7014
S'what'
p7015
aS'we'
p7016
aS'wanna'
p7017
aS'kn'
p7018
aS'wanna'
p7019
aS'know'
p7020
aaa(lp7021
S'SETHthat'
p7022
a(lp7023
S'can'
p7024
aS'be'
p7025
aS'done'
p7026
aS'at'
p7027
ag134
aS'later'
p7028
aS'time'
p7029
aaa(lp7030
S'LARRY'
p7031
a(lp7032
S'Alright'
p7033
aaa(lp7034
g7031
a(lp7035
S'But'
p7036
aS'maybe'
p7037
ag109
aaa(lp7038
S'SETH'
p7039
a(lp7040
S'That'
p7041
aS'can'
p7042
aS'be'
p7043
aS'done'
p7044
aS'at'
p7045
aS'at'
p7046
aS'any'
p7047
aS'time'
p7048
aaa(lp7049
S'LARRYmaybe'
p7050
a(lp7051
S'for'
p7052
aS'the'
p7053
aS'sake'
p7054
aS'of'
p7055
aS'your'
p7056
aS'quotation'
p7057
aaa(lp7058
S'SETHReally'
p7059
a(lp7060
aa(lp7061
S'LARRYyou'
p7062
a(lp7063
S'should'
p7064
aS'say'
p7065
aaa(lp7066
g7062
a(lp7067
S'this'
p7068
aS'is'
p7069
aS'what'
p7070
aS'its'
p7071
aS'gonna'
p7072
aS'cost'
p7073
aS'you'
p7074
aS'to'
p7075
aS'put'
p7076
aS'in'
p7077
ag134
aS'duct'
p7078
aS'here'
p7079
aaa(lp7080
g7062
a(lp7081
S'all'
p7082
aS'these'
p7083
aS'ducts'
p7084
aaa(lp7085
g7062
a(lp7086
S'at'
p7087
aS'this'
p7088
aS'time'
p7089
aaa(lp7090
S'SETH'
p7091
a(lp7092
S'Yeah'
p7093
aaa(lp7094
g7091
a(lp7095
S'Okay'
p7096
aaa(lp7097
S'LARRYNow'
p7098
a(lp7099
g75
aS'dont'
p7100
aS'know'
p7101
aS'if'
p7102
aaa(lp7103
g7098
a(lp7104
S'if'
p7105
aS'we'
p7106
aS'can'
p7107
aS'price'
p7108
aS'em'
p7109
aS'out'
p7110
aS'individually'
p7111
aaa(lp7112
g7098
a(lp7113
S'or'
p7114
aS'not'
p7115
aaa(lp7116
S'SETH'
p7117
a(lp7118
S'Sure'
p7119
aaa(lp7120
g7117
a(lp7121
g75
aS'call'
p7122
aS'this'
p7123
aS'what'
p7124
aaa(lp7125
g7117
a(lp7126
S'utility'
p7127
ag1045
aS'utility'
p7128
aS'room'
p7129
aaa(lp7130
S'LARRYYeah'
p7131
a(lp7132
aa(lp7133
g7131
a(lp7134
S'Just'
p7135
aS'pu'
p7136
aS'uh'
p7137
aS'call'
p7138
aS'it'
p7139
ag134
aaa(lp7140
S'SETHfigure'
p7141
a(lp7142
g134
aS'duct'
p7143
aS'somewhere'
p7144
aS'on'
p7145
aS'this'
p7146
aS'wall'
p7147
aS'you'
p7148
aS'think'
p7149
aaa(lp7150
S'LARRY'
p7151
a(lp7152
S'Yeah'
p7153
aaa(lp7154
g7151
a(lp7155
S'Lets'
p7156
aS'just'
p7157
aS'assume'
p7158
aS'itd'
p7159
aS'be'
p7160
aS'on'
p7161
aS'this'
p7162
aS'wall'
p7163
aaa(lp7164
S'SETH'
p7165
a(lp7166
S'Okay'
p7167
aaa(lp7168
g7165
a(lp7169
S'Utility'
p7170
aS'room'
p7171
aS'kitchen'
p7172
aaa(lp7173
g7165
a(lp7174
S'that'
p7175
aS'back'
p7176
aS'one'
p7177
aS'well'
p7178
aS'call'
p7179
aS'that'
p7180
aS'pantry'
p7181
aaa(lp7182
S'LARRY'
p7183
a(lp7184
S'Yeah'
p7185
aaa(lp7186
g7183
a(lp7187
S'Pantry'
p7188
aaa(lp7189
g7183
a(lp7190
S'and'
p7191
aS'then'
p7192
aS'you'
p7193
aS'got'
p7194
aS'the'
p7195
aS'dining'
p7196
aS'room'
p7197
aS'glass'
p7198
aaa(lp7199
S'SETH'
p7200
a(lp7201
S'dining'
p7202
aS'room'
p7203
aaa(lp7204
S'LARRYglass'
p7205
a(lp7206
S'dining'
p7207
aS'room'
p7208
aaa(lp7209
S'SETH'
p7210
a(lp7211
S'and'
p7212
aS'then'
p7213
aS'the'
p7214
aS'parlor'
p7215
aaa(lp7216
S'LARRY'
p7217
a(lp7218
S'and'
p7219
aS'then'
p7220
aS'the'
p7221
aS'parlor'
p7222
aaa(lp7223
g7217
a(lp7224
S'one'
p7225
aS'on'
p7226
aS'each'
p7227
aS'end'
p7228
aS'there'
p7229
aaa(lp7230
S'SETH'
p7231
a(lp7232
aa(lp7233
g7231
a(lp7234
S'Yeah'
p7235
aaa(lp7236
g7231
a(lp7237
S'Cause'
p7238
aS'we'
p7239
aS'can'
p7240
aS'do'
p7241
aS'em'
p7242
aS'now'
p7243
aaa(lp7244
g7231
a(lp7245
S'or'
p7246
aS'we'
p7247
aS'can'
p7248
aS'do'
p7249
aS'em'
p7250
aS'later'
p7251
aaa(lp7252
g7231
a(lp7253
S'But'
p7254
aS'its'
p7255
aS'not'
p7256
aS'any'
p7257
aS'more'
p7258
aS'difficult'
p7259
aS'to'
p7260
aS'do'
p7261
aS'em'
p7262
aS'at'
p7263
ag134
aS'later'
p7264
aS'time'
p7265
aaa(lp7266
g7231
a(lp7267
S'So'
p7268
aS'its'
p7269
aS'not'
p7270
aS'like'
p7271
aS'you'
p7272
aS'have'
p7273
aS'to'
p7274
aS'do'
p7275
aS'it'
p7276
aS'now'
p7277
aaa(lp7278
S'LARRYOkay'
p7279
a(lp7280
aa(lp7281
S'SETH'
p7282
a(lp7283
S'So'
p7284
aS'the'
p7285
aS'registers'
p7286
aS'that'
p7287
aS'were'
p7288
aS'connecting'
p7289
aS'to'
p7290
aaa(lp7291
g7282
a(lp7292
S'that'
p7293
aS'are'
p7294
aS'existing'
p7295
aaa(lp7296
g7282
a(lp7297
S'how'
p7298
aS'many'
p7299
aS'of'
p7300
aS'those'
p7301
aS'we'
p7302
aS'have'
p7303
aS'got'
p7304
aaa(lp7305
g7282
a(lp7306
S'Weve'
p7307
aS'got'
p7308
aS'the'
p7309
aS'one'
p7310
aS'in'
p7311
aS'the'
p7312
aS'kitchen'
p7313
aaa(lp7314
g7282
a(lp7315
S'and'
p7316
aS'then'
p7317
aS'weve'
p7318
aS'got'
p7319
aS'uh'
p7320
aaa(lp7321
g7282
a(lp7322
S'one'
p7323
aS'in'
p7324
aS'the'
p7325
ag3922
aS'living'
p7326
aS'room'
p7327
aS'here'
p7328
aaa(lp7329
S'LARRY'
p7330
a(lp7331
S'That'
p7332
aS'guy'
p7333
aaa(lp7334
g7330
a(lp7335
S'then'
p7336
aS'theres'
p7337
aS'one'
p7338
aS'in'
p7339
aS'the'
p7340
aS'bathroom'
p7341
aaa(lp7342
g7330
a(lp7343
S'theres'
p7344
aS'one'
p7345
aS'in'
p7346
aS'the'
p7347
ag3038
aS'study'
p7348
aaa(lp7349
g7330
a(lp7350
S'and'
p7351
aS'there'
p7352
aS'is'
p7353
aS'one'
p7354
aS'in'
p7355
aS'the'
p7356
aS'library'
p7357
aaa(lp7358
g7330
a(lp7359
S'Or'
p7360
aS'in'
p7361
aS'the'
p7362
aS'parlor'
p7363
aaa(lp7364
g7330
a(lp7365
g75
aS'dont'
p7366
aS'know'
p7367
aS'what'
p7368
aS'wed'
p7369
aS'do'
p7370
aS'with'
p7371
aS'that'
p7372
aaa(lp7373
g7330
a(lp7374
S'Do'
p7375
aS'we'
p7376
aS'disconnect'
p7377
aS'that'
p7378
aaa(lp7379
g7330
a(lp7380
S'if'
p7381
aS'we'
p7382
aS'put'
p7383
aS'two'
p7384
aaa(lp7385
g7330
a(lp7386
S'or'
p7387
aS'do'
p7388
aS'you'
p7389
aS'leave'
p7390
aS'it'
p7391
aaa(lp7392
S'SETH'
p7393
a(lp7394
S'Uh'
p7395
aaa(lp7396
g7393
a(lp7397
S'yeah'
p7398
ag75
aS'might'
p7399
aS'disconnect'
p7400
aS'that'
p7401
aaa(lp7402
g7393
a(lp7403
S'Well'
p7404
aS'its'
p7405
aS'not'
p7406
aS'its'
p7407
aS'not'
p7408
aS'connected'
p7409
aS'up'
p7410
aS'right'
p7411
aS'now'
p7412
aaa(lp7413
g7393
a(lp7414
S'So'
p7415
aaa(lp7416
S'LARRY'
p7417
a(lp7418
S'Oh'
p7419
aS'thats'
p7420
aS'right'
p7421
aaa(lp7422
S'SETH'
p7423
a(lp7424
S'so'
p7425
aS'itd'
p7426
aS'just'
p7427
aS'be'
p7428
ag134
aS'matter'
p7429
ag1067
aaa(lp7430
g7423
a(lp7431
S'Actually'
p7432
aS'it'
p7433
aS'sh'
p7434
aaa(lp7435
g7423
a(lp7436
S'it'
p7437
aS'should'
p7438
aS'be'
p7439
aS'capped'
p7440
aS'off'
p7441
aS'probably'
p7442
aS'though'
p7443
aaa(lp7444
g7423
a(lp7445
S'And'
p7446
aS'this'
p7447
aS'is'
p7448
aS'the'
p7449
aS'study'
p7450
aaa(lp7451
g7423
a(lp7452
S'one'
p7453
aS'right'
p7454
aS'there'
p7455
aaa(lp7456
g7423
a(lp7457
S'and'
p7458
aS'the'
p7459
aS'bathrooms'
p7460
aS'got'
p7461
aS'one'
p7462
aaa(lp7463
S'LARRY'
p7464
a(lp7465
S'Bathrooms'
p7466
aS'got'
p7467
aS'one'
p7468
aaa(lp7469
g7464
a(lp7470
S'over'
p7471
aS'by'
p7472
aS'the'
p7473
aS'shower'
p7474
aS'there'
p7475
aaa(lp7476
g7464
a(lp7477
S'On'
p7478
aS'the'
p7479
aS'floor'
p7480
aaa(lp7481
S'SETH'
p7482
a(lp7483
S'Okay'
p7484
aaa(lp7485
g7482
a(lp7486
S'Okay'
p7487
aaa(lp7488
g7482
a(lp7489
S'let'
p7490
aS'me'
p7491
aS'take'
p7492
ag134
aS'look'
p7493
aS'downstairs'
p7494
aS'again'
p7495
aaa(lp7496
S'LARRY'
p7497
a(lp7498
S'okay'
p7499
aaa(lp7500
S'SETH'
p7501
a(lp7502
S'at'
p7503
aS'that'
p7504
aS'furnace'
p7505
aaa.