(lp0
(lp1
S'MARCIA'
p2
a(lp3
S'They'
p4
aS'might'
p5
aS'not'
p6
aS'actually'
p7
aS'be'
p8
aaa(lp9
g2
a(lp10
S'be'
p11
aS'um'
p12
aaa(lp13
g2
a(lp14
S'back'
p15
aS'in'
p16
aS'the'
p17
aS'barn'
p18
aaa(lp19
g2
a(lp20
S'X'
p21
aS'or'
p22
aS'from'
p23
ag21
aS'the'
p24
aS'barn'
p25
aS'yet'
p26
aaa(lp27
S'LINDSEY'
p28
a(lp29
S'Good'
p30
aS'morning'
p31
aaa(lp32
g28
a(lp33
S'this'
p34
aS'is'
p35
aS'Doctor'
p36
aS'Naretto'
p37
aS'at'
p38
aS'the'
p39
aS'Kingman'
p40
aS'Vet'
p41
aS'Service'
p42
aaa(lp43
S'KRISTEN'
p44
a(lp45
g21
ag21
ag21
ag21
ag21
ag21
ag21
aaa(lp46
S'LINDSEY'
p47
a(lp48
S'I'
p49
aS'saw'
p50
aS'Tad'
p51
aS'this'
p52
aS'morning'
p53
aaa(lp54
S'MARCIA'
p55
a(lp56
S'yeah'
p57
aaa(lp58
S'LINDSEY'
p59
a(lp60
S'Um'
p61
aaa(lp62
g59
a(lp63
S'Hes'
p64
aS'looking'
p65
aS'not'
p66
aS'too'
p67
aS'bad'
p68
aaa(lp69
g59
a(lp70
S'Um'
p71
aaa(lp72
g59
a(lp73
S'A'
p74
aS'little'
p75
aS'bit'
p76
aS'of'
p77
aS'pain'
p78
aS'in'
p79
aS'his'
p80
aS'abdomen'
p81
aaa(lp82
g59
a(lp83
S'Its'
p84
aS'hard'
p85
aS'to'
p86
aS'know'
p87
aS'if'
p88
aS'he'
p89
aS'just'
p90
aS'has'
p91
aaa(lp92
g59
a(lp93
S'a'
p94
aS'gastritis'
p95
aaa(lp96
g59
a(lp97
S'or'
p98
aS'gastroenteritis'
p99
aaa(lp100
g59
a(lp101
S'from'
p102
aS'chewing'
p103
aS'on'
p104
aS'that'
p105
aS'dead'
p106
aS'pigeon'
p107
aaa(lp108
g59
a(lp109
S'or'
p110
aS'what'
p111
aS'the'
p112
aS'problem'
p113
aS'is'
p114
aaa(lp115
g59
a(lp116
S'Um'
p117
aaa(lp118
g59
a(lp119
S'what'
p120
aS'we'
p121
aS'ended'
p122
aS'up'
p123
aS'doing'
p124
aS'was'
p125
aaa(lp126
g59
a(lp127
S'giving'
p128
aS'him'
p129
aS'some'
p130
aS'antibiotics'
p131
aaa(lp132
g59
a(lp133
S'and'
p134
aS'sending'
p135
aS'him'
p136
aS'home'
p137
aaa(lp138
g59
a(lp139
S'um'
p140
aaa(lp141
g59
a(lp142
S'If'
p143
aS'he'
p144
aS'does'
p145
aS'not'
p146
aS'improve'
p147
aaa(lp148
g59
a(lp149
S'we'
p150
aS'may'
p151
aS'need'
p152
aS'to'
p153
aS'take'
p154
aS'some'
p155
aS'Xrays'
p156
aaa(lp157
g59
a(lp158
S'and'
p159
aS'hes'
p160
aS'got'
p161
aS'some'
p162
aS'bones'
p163
aaa(lp164
g59
a(lp165
S'or'
p166
aS'something'
p167
aS'in'
p168
aS'there'
p169
aaa(lp170
g59
a(lp171
g49
aS'didnt'
p172
aS'feel'
p173
aS'anything'
p174
aS'in'
p175
aS'his'
p176
aS'belly'
p177
aaa(lp178
g59
a(lp179
S'but'
p180
aaa(lp181
g59
a(lp182
S'yeah'
p183
aaa(lp184
g59
a(lp185
g74
aS'lot'
p186
aS'of'
p187
aS'times'
p188
aS'if'
p189
aS'they'
p190
aS'get'
p191
aS'into'
p192
aS'garbage'
p193
aS'or'
p194
aS'dead'
p195
aS'things'
p196
aaa(lp197
g59
a(lp198
S'theyll'
p199
aS'just'
p200
aS'get'
p201
aS'an'
p202
aS'upset'
p203
aS'stomach'
p204
aaa(lp205
g59
a(lp206
S'and'
p207
aaa(lp208
g59
a(lp209
S'um'
p210
aaa(lp211
g59
a(lp212
S'also'
p213
ag94
aS'little'
p214
aS'bit'
p215
aS'of'
p216
aS'uh'
p217
aaa(lp218
g59
a(lp219
S'well'
p220
aaa(lp221
g59
a(lp222
S'just'
p223
aS'inflamation'
p224
aS'in'
p225
aS'in'
p226
aS'there'
p227
aaa(lp228
g59
a(lp229
S'and'
p230
aS'and'
p231
aS'just'
p232
aS'feel'
p233
aS'bad'
p234
aaa(lp235
g59
a(lp236
S'So'
p237
aaa(lp238
g59
a(lp239
S'um'
p240
aaa(lp241
g59
a(lp242
g49
aaa(lp243
g59
a(lp244
S'You'
p245
aS'know'
p246
aaa(lp247
g59
a(lp248
S'Since'
p249
aS'hes'
p250
aS'not'
p251
aS'vomiting'
p252
aS'now'
p253
aaa(lp254
g59
a(lp255
S'you'
p256
aS'can'
p257
aS'go'
p258
aS'ahead'
p259
aS'and'
p260
aS'feed'
p261
aS'him'
p262
aS'and'
p263
aS'stuff'
p264
aaa(lp265
g59
a(lp266
S'and'
p267
aS'see'
p268
aaa(lp269
g59
a(lp270
S'how'
p271
aS'he'
p272
aS'does'
p273
aaa(lp274
g59
a(lp275
S'Um'
p276
aaa(lp277
g59
a(lp278
S'hopefully'
p279
aS'the'
p280
aS'antibiotics'
p281
aS'will'
p282
aS'calm'
p283
aS'down'
p284
aS'any'
p285
aS'any'
p286
aS'infection'
p287
aaa(lp288
g59
a(lp289
S'that'
p290
aS'he'
p291
aaa(lp292
g59
a(lp293
S'h'
p294
aS'that'
p295
aS'he'
p296
aS'might'
p297
aS'have'
p298
aS'gotten'
p299
aS'from'
p300
aS'all'
p301
aS'the'
p302
aS'bacteria'
p303
aS'on'
p304
aS'the'
p305
aS'dead'
p306
aS'pigeon'
p307
aaa(lp308
g59
a(lp309
S'um'
p310
aaa(lp311
g59
a(lp312
S'but'
p313
aS'if'
p314
aS'he'
p315
aaa(lp316
g59
a(lp317
S'if'
p318
aS'he'
p319
aS'doesnt'
p320
aS'get'
p321
aS'better'
p322
aaa(lp323
g59
a(lp324
S'or'
p325
aS'if'
p326
aS'he'
p327
aS'gets'
p328
aS'worse'
p329
aaa(lp330
g59
a(lp331
S'be'
p332
aS'sure'
p333
aS'and'
p334
aS'let'
p335
aS'us'
p336
aS'know'
p337
aaa(lp338
g59
a(lp339
S'well'
p340
aaa(lp341
g59
a(lp342
S'but'
p343
aaa(lp344
g59
a(lp345
S'Already'
p346
aS'by'
p347
aS'tomorrow'
p348
aaa(lp349
g59
a(lp350
S'he'
p351
aS'should'
p352
aS'be'
p353
aS'feeling'
p354
ag94
aS'lot'
p355
aS'better'
p356
aaa(lp357
g59
a(lp358
S'Um'
p359
aaa(lp360
g59
a(lp361
S'and'
p362
aS'if'
p363
aS'he'
p364
aaa(lp365
g59
a(lp366
S'if'
p367
aS'he'
p368
aS'isnt'
p369
aaa(lp370
g59
a(lp371
S'or'
p372
aS'if'
p373
aS'he'
p374
aS'starts'
p375
aS'vomiting'
p376
aaa(lp377
g59
a(lp378
S'or'
p379
aS'having'
p380
aS'diarrhea'
p381
aaa(lp382
g59
a(lp383
S'we'
p384
aS'may'
p385
aS'need'
p386
aS'to'
p387
aS'see'
p388
aS'him'
p389
aaa(lp390
g59
a(lp391
S'we'
p392
aaa(lp393
g59
a(lp394
S'we'
p395
aS'w'
p396
aS'will'
p397
aS'need'
p398
aS'to'
p399
aS'see'
p400
aS'him'
p401
aS'again'
p402
aaa(lp403
g59
a(lp404
S'so'
p405
aaa(lp406
g59
a(lp407
S'um'
p408
aaa(lp409
g59
a(lp410
S'Okay'
p411
aaa(lp412
g59
a(lp413
S'Mhm'
p414
aaa(lp415
g59
a(lp416
S'youre'
p417
aS'welcome'
p418
aaa(lp419
g59
a(lp420
S'mm'
p421
aS'bye'
p422
aaa(lp423
S'MARCIA'
p424
a(lp425
S'Sh'
p426
aS'uh'
p427
aaa(lp428
g424
a(lp429
S'what'
p430
aS'did'
p431
aS'you'
p432
aaa(lp433
g424
a(lp434
S'what'
p435
aS'on'
p436
aS'your'
p437
aS'sheet'
p438
aaa(lp439
g424
a(lp440
S'what'
p441
aS'was'
p442
aS'the'
p443
aS'cost'
p444
aS'for'
p445
aS'the'
p446
aS'cast'
p447
aS'that'
p448
aS'you'
p449
aS'charged'
p450
aS'about'
p451
aaa(lp452
g424
a(lp453
S'what'
p454
aS'do'
p455
aS'we'
p456
aS'generally'
p457
aaa(lp458
S'LINDSEY'
p459
a(lp460
g49
aS'think'
p461
aS'it'
p462
aS'was'
p463
aS'like'
p464
aS'fifty'
p465
aaa(lp466
S'LINDSEY'
p467
a(lp468
S'With'
p469
aS'the'
p470
aS'cast'
p471
aaa(lp472
S'MARCIA'
p473
a(lp474
S'Oh'
p475
aaa(lp476
S'LINDSEY'
p477
a(lp478
S'to'
p479
aS'put'
p480
aS'it'
p481
aS'on'
p482
aaa(lp483
S'MARCIA'
p484
a(lp485
S'To'
p486
aS'actually'
p487
aS'put'
p488
aS'the'
p489
aS'cast'
p490
aS'on'
p491
aaa(lp492
S'LINDSEY'
p493
a(lp494
S'Casting'
p495
aS'materials'
p496
aS'and'
p497
aS'then'
p498
aaa(lp499
S'MARCIA'
p500
a(lp501
S'Okay'
p502
aaa(lp503
S'LINDSEY'
p504
a(lp505
S'And'
p506
aS'then'
p507
aS'um'
p508
aaa(lp509
g504
a(lp510
S'She'
p511
aS'had'
p512
aaa(lp513
g504
a(lp514
S'pretty'
p515
aS'much'
p516
aS'when'
p517
aS'we'
p518
aS'rechecked'
p519
aS'her'
p520
aaa(lp521
g504
a(lp522
S'she'
p523
aS'was'
p524
aS'ready'
p525
aS'to'
p526
aS'take'
p527
aS'it'
p528
aS'off'
p529
aaa(lp530
g504
a(lp531
S'So'
p532
aS'we'
p533
aS'didnt'
p534
aS'have'
p535
aS'to'
p536
aS'do'
p537
aS'any'
p538
aS'more'
p539
aS'Xrays'
p540
aS'or'
p541
aS'anything'
p542
aaa(lp543
S'MARCIA'
p544
a(lp545
S'Okay'
p546
aaa(lp547
S'LINDSEY'
p548
a(lp549
S'Im'
p550
aS'trying'
p551
aS'to'
p552
aS'remember'
p553
aaa(lp554
g548
a(lp555
g49
aS'think'
p556
aaa(lp557
g548
a(lp558
S'like'
p559
aaa(lp560
g548
a(lp561
S'with'
p562
aS'the'
p563
ag21
aS'white'
p564
ag21
aaa(lp565
S'MARCIA'
p566
a(lp567
g21
aS'You'
p568
aS'got'
p569
ag21
aaa(lp570
g566
a(lp571
g49
aS'thought'
p572
aS'you'
p573
aS'Xrayed'
p574
aS'it'
p575
aaa(lp576
g566
a(lp577
S'You'
p578
aS'Xrayed'
p579
aS'it'
p580
aS'with'
p581
aS'the'
p582
aS'cast'
p583
aS'on'
p584
aaa(lp585
S'LINDSEY'
p586
a(lp587
S'Yeah'
p588
aaa(lp589
g586
a(lp590
S'Mhm'
p591
aaa(lp592
S'MARCIA'
p593
a(lp594
S'XX'
p595
aaa(lp596
g593
a(lp597
S'Yeah'
p598
aaa(lp599
S'LINDSEY'
p600
a(lp601
S'yeah'
p602
aaa(lp603
g600
a(lp604
S'yeah'
p605
aaa(lp606
g600
a(lp607
S'and'
p608
aS'it'
p609
aS'was'
p610
aS'ready'
p611
aS'to'
p612
aS'come'
p613
aS'off'
p614
aaa(lp615
g600
a(lp616
S'and'
p617
aS'we'
p618
aS'took'
p619
aS'it'
p620
aS'off'
p621
aaa(lp622
g600
a(lp623
S'She'
p624
aS'did'
p625
ag94
aS'real'
p626
aS'good'
p627
aS'job'
p628
aS'of'
p629
ag21
aS'keeping'
p630
aS'it'
p631
ag21
aaa(lp632
S'ENV'
p633
a(lp634
aa(lp635
S'LINDSEY'
p636
a(lp637
S'keeping'
p638
aS'it'
p639
aS'clean'
p640
aaa(lp641
g636
a(lp642
S'and'
p643
aS'dry'
p644
aaa(lp645
g636
a(lp646
S'Thats'
p647
aaa(lp648
g636
a(lp649
g49
aS'think'
p650
aaa(lp651
g636
a(lp652
S'half'
p653
aS'the'
p654
aS'battle'
p655
aaa(lp656
g636
a(lp657
S'cause'
p658
aaa(lp659
g636
a(lp660
S'she'
p661
aS'didnt'
p662
aS'have'
p663
aS'any'
p664
aS'sores'
p665
aaa(lp666
g636
a(lp667
S'or'
p668
aS'anything'
p669
aaa(lp670
g636
a(lp671
S'when'
p672
aS'we'
p673
aS'took'
p674
aS'it'
p675
aS'off'
p676
aaa(lp677
S'MARCIA'
p678
a(lp679
S'Mm'
p680
aS'yeah'
p681
aaa(lp682
g678
a(lp683
S'Kristen'
p684
aaa(lp685
g678
a(lp686
S'for'
p687
aS'the'
p688
aaa(lp689
g678
a(lp690
S'for'
p691
aS'the'
p692
aS'tranquilizer'
p693
aS'what'
p694
aS'do'
p695
aS'we'
p696
aaa(lp697
g678
a(lp698
S'what'
p699
aS'is'
p700
aS'it'
p701
aS'again'
p702
aaa(lp703
S'KRISTEN'
p704
a(lp705
S'ten'
p706
aaa(lp707
S'MARCIA'
p708
a(lp709
S'Ten'
p710
aaa(lp711
g708
a(lp712
g49
aS'wonder'
p713
aS'if'
p714
aS'she'
p715
aS'would'
p716
aS'need'
p717
aS'more'
p718
aaa(lp719
S'KRISTEN'
p720
a(lp721
S'and'
p722
aS'itll'
p723
aS'be'
p724
aaa(lp725
g720
a(lp726
S'Oh'
p727
aS'hell'
p728
aaa(lp729
g720
a(lp730
S'yeah'
p731
aaa(lp732
g720
a(lp733
S'For'
p734
ag94
aS'casting'
p735
aaa(lp736
S'MARCIA'
p737
a(lp738
S'to'
p739
aS'do'
p740
ag94
aS'cast'
p741
aaa(lp742
g737
a(lp743
g21
aS'XX'
p744
aS'Biotal'
p745
aaa(lp746
S'KRISTEN'
p747
a(lp748
g21
aS'if'
p749
aS'you'
p750
aS'just'
p751
ag21
aaa(lp752
g747
a(lp753
S'biotal'
p754
aS'and'
p755
aaa(lp756
g747
a(lp757
S'Metofane'
p758
aaa(lp759
S'MARCIA'
p760
a(lp761
S'XXX'
p762
aaa(lp763
S'KRISTEN'
p764
a(lp765
S'We'
p766
aS'just'
p767
aaa(lp768
S'MARCIA'
p769
a(lp770
S'or'
p771
aS'even'
p772
aaa(lp773
S'KRISTEN'
p774
a(lp775
S'well'
p776
aS'put'
p777
aS'him'
p778
aS'on'
p779
aS'the'
p780
aS'machine'
p781
aaa(lp782
g774
a(lp783
S'And'
p784
aS'then'
p785
aS'you'
p786
aS'dont'
p787
aS'have'
p788
aS'to'
p789
aS'worry'
p790
aS'about'
p791
aS'em'
p792
aaa(lp793
S'MARCIA'
p794
a(lp795
S'What'
p796
aS'was'
p797
aaa(lp798
g794
a(lp799
S'what'
p800
aS'would'
p801
aS'that'
p802
aaa(lp803
S'KRISTEN'
p804
a(lp805
S'that'
p806
aS'would'
p807
aS'be'
p808
aS'thirteen'
p809
aaa(lp810
S'MARCIA'
p811
a(lp812
S'Total'
p813
aaa(lp814
g811
a(lp815
S'or'
p816
aaa(lp817
g811
a(lp818
S'thirteen'
p819
aS'extra'
p820
aaa(lp821
S'KRISTEN'
p822
a(lp823
S'No'
p824
aaa(lp825
g822
a(lp826
S'plus'
p827
aS'thirteen'
p828
aaa(lp829
g822
a(lp830
S'for'
p831
aS'anesthesia'
p832
aaa(lp833
g822
a(lp834
S'to'
p835
aS'put'
p836
aS'this'
p837
aS'cast'
p838
aS'on'
p839
aaa(lp840
g822
a(lp841
S'Cause'
p842
aS'if'
p843
aS'you'
p844
aS'dont'
p845
aaa(lp846
g822
a(lp847
S'then'
p848
aS'y'
p849
aaa(lp850
g822
a(lp851
S'theyre'
p852
aS'waking'
p853
aS'up'
p854
aaa(lp855
g822
a(lp856
S'and'
p857
aS'you'
p858
aS'just'
p859
aaa(lp860
S'MARCIA'
p861
a(lp862
S'Its'
p863
aS'bad'
p864
aaa(lp865
S'KRISTEN'
p866
a(lp867
S'end'
p868
aS'up'
p869
aS'spending'
p870
aS'more'
p871
aS'time'
p872
aaa(lp873
g866
a(lp874
S'than'
p875
aS'if'
p876
aS'you'
p877
aS'just'
p878
aS'put'
p879
aS'em'
p880
aS'on'
p881
aS'the'
p882
aS'silly'
p883
aS'machine'
p884
aaa(lp885
S'MARCIA'
p886
a(lp887
S'Okay'
p888
aaa(lp889
S'LINDSEY'
p890
a(lp891
S'Yep'
p892
aaa(lp893
g890
a(lp894
S'As'
p895
aS'we'
p896
aS'know'
p897
aS'from'
p898
aS'the'
p899
aS'sheep'
p900
aaa(lp901
S'KRISTEN'
p902
a(lp903
S'Well'
p904
aaa(lp905
g902
a(lp906
S'and'
p907
aS'from'
p908
aS'other'
p909
aS'things'
p910
aS'too'
p911
aaa(lp912
g902
a(lp913
S'Just'
p914
aaa(lp915
S'MARCIA'
p916
a(lp917
S'Yeah'
p918
aaa(lp919
S'KRISTEN'
p920
a(lp921
S'Are'
p922
aS'those'
p923
aS'good'
p924
aaa(lp925
g920
a(lp926
S'Do'
p927
aS'you'
p928
aS'like'
p929
aS'em'
p930
aaa(lp931
S'LINDSEY'
p932
a(lp933
S'Yeah'
p934
aaa(lp935
g932
a(lp936
S'Did'
p937
aS'you'
p938
aS'make'
p939
aS'em'
p940
aaa(lp941
S'KRISTEN'
p942
a(lp943
g49
aS'made'
p944
aS'em'
p945
aaa(lp946
g942
a(lp947
S'Yeah'
p948
aaa(lp949
g942
a(lp950
S'ah'
p951
aaa(lp952
g942
a(lp953
g49
aS'was'
p954
aS'thinking'
p955
aS'they'
p956
aS'were'
p957
aS'more'
p958
aS'like'
p959
ag94
aaa(lp960
g942
a(lp961
S'chocolate'
p962
aS'chip'
p963
aS'cookie'
p964
aS'bar'
p965
aaa(lp966
g942
a(lp967
S'And'
p968
aS'then'
p969
aS'as'
p970
ag49
aS'got'
p971
aS'through'
p972
aS'the'
p973
aS'recipe'
p974
aaa(lp975
g942
a(lp976
g49
aS'noticed'
p977
aS'that'
p978
aS'they'
p979
aS'dont'
p980
aS'have'
p981
aS'any'
p982
aS'flour'
p983
aS'in'
p984
aS'em'
p985
aaa(lp986
S'MARCIA'
p987
a(lp988
aa(lp989
S'LINDSEY'
p990
a(lp991
aa(lp992
g990
a(lp993
S'Theyre'
p994
aS'good'
p995
aaa(lp996
S'KRISTEN'
p997
a(lp998
S'So'
p999
aS'theyre'
p1000
aS'actually'
p1001
aS'more'
p1002
aS'like'
p1003
aS'granola'
p1004
aS'bars'
p1005
aS'than'
p1006
aaa(lp1007
S'LINDSEY'
p1008
a(lp1009
S'They'
p1010
aS'must'
p1011
aS'have'
p1012
aaa(lp1013
g1008
a(lp1014
S'Yeah'
p1015
aaa(lp1016
S'KRISTEN'
p1017
a(lp1018
S'cookie'
p1019
aS'bars'
p1020
aaa(lp1021
S'LINDSEY'
p1022
a(lp1023
S'Yeah'
p1024
aaa(lp1025
S'KRISTEN'
p1026
a(lp1027
S'Theyve'
p1028
aS'got'
p1029
aS'brown'
p1030
aS'sugar'
p1031
aS'and'
p1032
aS'butter'
p1033
aaa(lp1034
g1026
a(lp1035
S'and'
p1036
aaa(lp1037
S'LINDSEY'
p1038
a(lp1039
S'Tastes'
p1040
aS'like'
p1041
aS'they'
p1042
aS'have'
p1043
aS'peanut'
p1044
aS'butter'
p1045
aaa(lp1046
S'KRISTEN'
p1047
a(lp1048
S'oatmeal'
p1049
aaa(lp1050
g1047
a(lp1051
S'and'
p1052
aS'peanut'
p1053
aS'butter'
p1054
aS'chips'
p1055
aaa(lp1056
g1047
a(lp1057
S'chocolate'
p1058
aS'chips'
p1059
aaa(lp1060
S'MARCIA'
p1061
a(lp1062
S'Okay'
p1063
aaa(lp1064
g1061
a(lp1065
S'so'
p1066
ag94
aS'recheck'
p1067
aS'would'
p1068
aS'be'
p1069
aS'about'
p1070
aS'that'
p1071
aS'much'
p1072
aaa(lp1073
g1061
a(lp1074
S'with'
p1075
aS'the'
p1076
aaa(lp1077
S'LINDSEY'
p1078
a(lp1079
S'Mhm'
p1080
aaa(lp1081
S'MARCIA'
p1082
a(lp1083
S'Xrays'
p1084
aaa(lp1085
g1082
a(lp1086
S'and'
p1087
aS'then'
p1088
aaa(lp1089
g1082
a(lp1090
S'WH'
p1091
ag21
ag21
aS'WH'
p1092
aaa(lp1093
g1082
a(lp1094
S'Does'
p1095
aS'that'
p1096
aS'sound'
p1097
aS'right'
p1098
aaa(lp1099
g1082
a(lp1100
S'thirtytwo'
p1101
aaa(lp1102
g1082
a(lp1103
g49
aS'think'
p1104
aaa(lp1105
g1082
a(lp1106
S'f'
p1107
aS'we'
p1108
aaa(lp1109
g1082
a(lp1110
S'she'
p1111
aS'woke'
p1112
aS'up'
p1113
aaa(lp1114
g1082
a(lp1115
S'we'
p1116
aS'could'
p1117
ag396
aS'send'
p1118
aS'her'
p1119
aS'home'
p1120
aS'tonight'
p1121
aaa(lp1122
g1082
a(lp1123
g49
aS'wouldnt'
p1124
aS'see'
p1125
aS'why'
p1126
aS'we'
p1127
aS'couldnt'
p1128
aS'send'
p1129
aS'her'
p1130
aS'home'
p1131
aS'tonight'
p1132
aaa(lp1133
g1082
a(lp1134
S'would'
p1135
aS'you'
p1136
aaa(lp1137
S'LINDSEY'
p1138
a(lp1139
S'If'
p1140
aS'she'
p1141
aS'wakes'
p1142
aS'up'
p1143
aaa(lp1144
g1138
a(lp1145
S'fine'
p1146
aaa(lp1147
S'MARCIA'
p1148
a(lp1149
S'Oh'
p1150
aS'well'
p1151
aaa(lp1152
g1148
a(lp1153
S'were'
p1154
aS'gonna'
p1155
aS'be'
p1156
aS'Biotaling'
p1157
aS'her'
p1158
aS'and'
p1159
aS'oh'
p1160
aaa(lp1161
S'KRISTEN'
p1162
a(lp1163
S'Sh'
p1164
aS'if'
p1165
aS'sh'
p1166
aaa(lp1167
g1162
a(lp1168
S'she'
p1169
aS'probably'
p1170
aS'wont'
p1171
aaa(lp1172
g1162
a(lp1173
S'though'
p1174
aaa(lp1175
S'MARCIA'
p1176
a(lp1177
S'never'
p1178
aS'mind'
p1179
aaa(lp1180
g1176
a(lp1181
S'Never'
p1182
aS'mind'
p1183
aaa(lp1184
g1176
a(lp1185
g49
aS'was'
p1186
aS'thinking'
p1187
aaa(lp1188
g1176
a(lp1189
S'Im'
p1190
aS'still'
p1191
aS'thinking'
p1192
aaa(lp1193
S'KRISTEN'
p1194
a(lp1195
S'Na'
p1196
aaa(lp1197
S'MARCIA'
p1198
a(lp1199
aa(lp1200
S'KRISTEN'
p1201
a(lp1202
S'Na'
p1203
aS'na'
p1204
aaa(lp1205
g1201
a(lp1206
S'na'
p1207
aS'na'
p1208
aS'na'
p1209
aaa(lp1210
g1201
a(lp1211
S'And'
p1212
aS'she'
p1213
aS'wont'
p1214
aS'have'
p1215
aS'any'
p1216
aS'an'
p1217
aS'antibiotics'
p1218
aaa(lp1219
g1201
a(lp1220
S'Cause'
p1221
aS'using'
p1222
aS'all'
p1223
ag21
ag21
aaa(lp1224
S'MARCIA'
p1225
a(lp1226
S'No'
p1227
aaa(lp1228
S'KRISTEN'
p1229
a(lp1230
S'And'
p1231
aS'that'
p1232
aaa(lp1233
S'MARCIA'
p1234
a(lp1235
S'Thirtytwo'
p1236
aaa(lp1237
S'KRISTEN'
p1238
a(lp1239
S'What'
p1240
aS'is'
p1241
aS'this'
p1242
aaa(lp1243
S'MARCIA'
p1244
a(lp1245
S'Ten'
p1246
aaa(lp1247
g1244
a(lp1248
S'for'
p1249
aS'anesthesia'
p1250
aaa(lp1251
S'KRISTEN'
p1252
a(lp1253
S'Oh'
p1254
aaa(lp1255
S'MARCIA'
p1256
a(lp1257
S'But'
p1258
aaa(lp1259
S'KRISTEN'
p1260
a(lp1261
S'theyre'
p1262
aS'still'
p1263
aS'opposite'
p1264
aaa(lp1265
S'MARCIA'
p1266
a(lp1267
S'theyre'
p1268
aS'opposite'
p1269
aaa(lp1270
S'KRISTEN'
p1271
a(lp1272
S'Yeah'
p1273
aaa(lp1274
g1271
a(lp1275
S'That'
p1276
aS'looks'
p1277
aS'all'
p1278
aS'right'
p1279
aaa(lp1280
S'MARCIA'
p1281
a(lp1282
aa(lp1283
S'KRISTEN'
p1284
a(lp1285
S'Dont'
p1286
aS'you'
p1287
aS'think'
p1288
aS'we'
p1289
aS'should'
p1290
aS'charge'
p1291
aS'them'
p1292
aS'an'
p1293
aS'extra'
p1294
aS'eighteen'
p1295
aaa(lp1296
S'MARCIA'
p1297
a(lp1298
S'For'
p1299
aS'the'
p1300
aS'distemper'
p1301
aS'vaccine'
p1302
aaa(lp1303
S'KRISTEN'
p1304
a(lp1305
S'Trent'
p1306
aS'does'
p1307
aS'it'
p1308
aaa(lp1309
S'MARCIA'
p1310
a(lp1311
S'No'
p1312
aaa(lp1313
S'KRISTEN'
p1314
a(lp1315
g49
aS'felt'
p1316
aS'horrible'
p1317
aS'doing'
p1318
aS'that'
p1319
aS'on'
p1320
aS'that'
p1321
aS'eye'
p1322
aS'dog'
p1323
aaa(lp1324
g1314
a(lp1325
S'that'
p1326
aS'he'
p1327
aS'had'
p1328
aS'in'
p1329
aS'here'
p1330
aS'last'
p1331
aS'week'
p1332
aaa(lp1333
g1314
a(lp1334
S'under'
p1335
aS'whatever'
p1336
aS'night'
p1337
aS'it'
p1338
aS'was'
p1339
aaa(lp1340
g1314
a(lp1341
S'Cause'
p1342
aS'he'
p1343
aS'had'
p1344
aS'down'
p1345
aaa(lp1346
g1314
a(lp1347
S'twentyfive'
p1348
aS'plus'
p1349
aS'eighteen'
p1350
aaa(lp1351
g1314
a(lp1352
S'and'
p1353
aS'what'
p1354
aS'can'
p1355
aS'you'
p1356
aS'do'
p1357
aaa(lp1358
g1314
a(lp1359
S'when'
p1360
aS'hes'
p1361
aS'already'
p1362
aS'got'
p1363
aS'it'
p1364
aS'down'
p1365
aaa(lp1366
S'MARCIA'
p1367
a(lp1368
S'WH'
p1369
aS'jeez'
p1370
aS'WH'
p1371
aaa(lp1372
S'MARCIA'
p1373
a(lp1374
aa(lp1375
g1373
a(lp1376
S'Well'
p1377
aaa(lp1378
g1373
a(lp1379
S'all'
p1380
aS'we'
p1381
aS'did'
p1382
aaa(lp1383
g1373
a(lp1384
g49
aS'cant'
p1385
aS'do'
p1386
aS'that'
p1387
aaa(lp1388
g1373
a(lp1389
S'cause'
p1390
aS'all'
p1391
aS'we'
p1392
aS'did'
p1393
aS'was'
p1394
aaa(lp1395
g1373
a(lp1396
g49
aS'was'
p1397
aS'in'
p1398
aS'here'
p1399
aS'and'
p1400
aS'put'
p1401
ag94
aS'bandage'
p1402
aS'on'
p1403
aaa(lp1404
S'LINDSEY'
p1405
a(lp1406
S'Yeah'
p1407
aaa(lp1408
g1405
a(lp1409
S'Yeah'
p1410
aaa(lp1411
S'MARCIA'
p1412
a(lp1413
aa(lp1414
S'KRISTEN'
p1415
a(lp1416
S'Um'
p1417
aaa(lp1418
g1415
a(lp1419
S'did'
p1420
aS'you'
p1421
aS'get'
p1422
aS'hold'
p1423
aS'of'
p1424
aS'Dan'
p1425
aaa(lp1426
g1415
a(lp1427
S'then'
p1428
aaa(lp1429
S'LINDSEY'
p1430
a(lp1431
S'Yeah'
p1432
aaa(lp1433
g1430
a(lp1434
S'Hes'
p1435
aaa(lp1436
S'MARCIA'
p1437
a(lp1438
S'XX'
p1439
aaa(lp1440
S'KRISTEN'
p1441
a(lp1442
S'Lets'
p1443
aS'see'
p1444
aaa(lp1445
S'TRENT'
p1446
a(lp1447
S'Six'
p1448
aaa(lp1449
S'KRISTEN'
p1450
a(lp1451
S'Let'
p1452
aS'me'
p1453
aS'see'
p1454
aaa(lp1455
S'TRENT'
p1456
a(lp1457
g21
aS'fiftysix'
p1458
ag21
aaa(lp1459
S'KRISTEN'
p1460
a(lp1461
S'Let'
p1462
aS'me'
p1463
aS'see'
p1464
aaa(lp1465
g1460
a(lp1466
S'we'
p1467
aS'need'
p1468
aaa(lp1469
g1460
a(lp1470
S'one'
p1471
aS'of'
p1472
aS'these'
p1473
aS'and'
p1474
aS'one'
p1475
aS'of'
p1476
aS'these'
p1477
aaa(lp1478
g1460
a(lp1479
S'one'
p1480
aS'of'
p1481
aS'those'
p1482
aaa(lp1483
g1460
a(lp1484
S'and'
p1485
aS'one'
p1486
aS'of'
p1487
aS'those'
p1488
aaa(lp1489
g1460
a(lp1490
S'and'
p1491
aS'two'
p1492
aS'of'
p1493
aS'those'
p1494
aaa(lp1495
S'MARCIA'
p1496
a(lp1497
g21
aaa(lp1498
S'TRENT'
p1499
a(lp1500
S'Three'
p1501
aaa(lp1502
S'LINDSEY'
p1503
a(lp1504
S'Sent'
p1505
aS'home'
p1506
aS'with'
p1507
aS'Amoxi'
p1508
aaa(lp1509
S'TRENT'
p1510
a(lp1511
g21
ag21
aS'fiftythree'
p1512
ag21
aaa(lp1513
S'LINDSEY'
p1514
a(lp1515
S'and'
p1516
aS'Pred'
p1517
aaa(lp1518
g1514
a(lp1519
S'So'
p1520
aaa(lp1521
g1514
a(lp1522
S'Well'
p1523
aS'se'
p1524
aS'how'
p1525
aaa(lp1526
S'KRISTEN'
p1527
a(lp1528
S'Yeah'
p1529
aaa(lp1530
g1527
a(lp1531
S'Well'
p1532
aaa(lp1533
g1527
a(lp1534
S'Ill'
p1535
aS'call'
p1536
aS'him'
p1537
aS'probably'
p1538
aS'late'
p1539
aS'this'
p1540
aS'afternoon'
p1541
aaa(lp1542
g1527
a(lp1543
S'to'
p1544
aS'make'
p1545
aS'sure'
p1546
aS'hes'
p1547
aS'all'
p1548
aS'right'
p1549
aaa(lp1550
S'ENV'
p1551
a(lp1552
aa(lp1553
S'MARCIA'
p1554
a(lp1555
g21
aaa(lp1556
g1554
a(lp1557
S'XX'
p1558
ag21
ag21
aaa(lp1559
S'KRISTEN'
p1560
a(lp1561
S'XX'
p1562
aS'there'
p1563
aaa(lp1564
S'MARCIA'
p1565
a(lp1566
S'No'
p1567
aaa(lp1568
g1565
a(lp1569
g49
aS'was'
p1570
aS'just'
p1571
aS'trying'
p1572
aS'to'
p1573
aS'figure'
p1574
aS'out'
p1575
aS'what'
p1576
aS'we'
p1577
aS'spent'
p1578
aS'already'
p1579
aaa(lp1580
S'LINDSEY'
p1581
a(lp1582
S'Mm'
p1583
aaa(lp1584
g1581
a(lp1585
S'Mm'
p1586
aaa(lp1587
S'MARCIA'
p1588
a(lp1589
S'Let'
p1590
aS'see'
p1591
aaa(lp1592
g1588
a(lp1593
S'XXXXXX'
p1594
aaa(lp1595
g1588
a(lp1596
S'Weve'
p1597
aS'already'
p1598
aS'spent'
p1599
aS'fifty'
p1600
aS'for'
p1601
aS'him'
p1602
aaa(lp1603
g1588
a(lp1604
S'and'
p1605
ag49
ag21
aS'want'
p1606
aS'him'
p1607
ag21
aS'to'
p1608
aS'spend'
p1609
aS'another'
p1610
aS'hundred'
p1611
aaa(lp1612
S'LINDSEY'
p1613
a(lp1614
S'Well'
p1615
aaa(lp1616
S'MARCIA'
p1617
a(lp1618
S'But'
p1619
aS'thats'
p1620
aS'better'
p1621
aS'than'
p1622
aS'pins'
p1623
aaa(lp1624
S'LINDSEY'
p1625
a(lp1626
S'Right'
p1627
aaa(lp1628
S'MARCIA'
p1629
a(lp1630
S'And'
p1631
aS'surgery'
p1632
aaa(lp1633
S'LINDSEY'
p1634
a(lp1635
S'Which'
p1636
aS'would'
p1637
aS'be'
p1638
aS'another'
p1639
aaa(lp1640
g1634
a(lp1641
S'two'
p1642
aS'hundred'
p1643
aS'or'
p1644
aaa(lp1645
S'KRISTEN'
p1646
a(lp1647
S'Yeah'
p1648
aaa(lp1649
g1646
a(lp1650
S'Its'
p1651
aS'more'
p1652
aS'for'
p1653
ag94
aS'surgery'
p1654
aaa(lp1655
S'MARCIA'
p1656
a(lp1657
S'to'
p1658
aS'spend'
p1659
aaa(lp1660
S'LINDSEY'
p1661
a(lp1662
S'Any'
p1663
aaa(lp1664
g1661
a(lp1665
S'pretty'
p1666
aS'much'
p1667
aS'any'
p1668
aS'time'
p1669
aS'you'
p1670
aS'can'
p1671
aaa(lp1672
S'MARCIA'
p1673
a(lp1674
S'And'
p1675
aS'that'
p1676
aS'one'
p1677
aS'really'
p1678
aaa(lp1679
g1673
a(lp1680
S'you'
p1681
aS'know'
p1682
aaa(lp1683
g1673
a(lp1684
g49
aS'dont'
p1685
aS'think'
p1686
aS'it'
p1687
aS'would'
p1688
aS'benefit'
p1689
aS'from'
p1690
aS'pins'
p1691
aaa(lp1692
S'LINDSEY'
p1693
a(lp1694
S'Mm'
p1695
aaa(lp1696
S'MARCIA'
p1697
a(lp1698
S'because'
p1699
aaa(lp1700
g1697
a(lp1701
S'wed'
p1702
aS'have'
p1703
aS'to'
p1704
aS'undo'
p1705
aS'it'
p1706
aaa(lp1707
g1697
a(lp1708
g49
aS'mean'
p1709
aS'wed'
p1710
aS'have'
p1711
aS'to'
p1712
aaa(lp1713
g1697
a(lp1714
S'Well'
p1715
aaa(lp1716
g1697
a(lp1717
S'wed'
p1718
aS'have'
p1719
aS'to'
p1720
aS'go'
p1721
aaa(lp1722
g1697
a(lp1723
S'we'
p1724
aS'could'
p1725
aaa(lp1726
g1697
a(lp1727
S'we'
p1728
aS'could'
p1729
aS'try'
p1730
aS'it'
p1731
aS'closed'
p1732
aaa(lp1733
S'LINDSEY'
p1734
a(lp1735
S'Mhm'
p1736
aaa(lp1737
S'MARCIA'
p1738
a(lp1739
S'But'
p1740
aaa(lp1741
g1738
a(lp1742
S'still'
p1743
aaa(lp1744
g1738
a(lp1745
S'its'
p1746
aS'more'
p1747
aS'expensive'
p1748
aaa(lp1749
S'LINDSEY'
p1750
a(lp1751
g49
aS'think'
p1752
aS'itll'
p1753
aS'do'
p1754
aS'fine'
p1755
aS'with'
p1756
ag94
aS'cast'
p1757
aaa(lp1758
g1750
a(lp1759
S'especially'
p1760
aS'since'
p1761
aS'its'
p1762
ag94
aS'spiral'
p1763
aS'fracture'
p1764
aaa(lp1765
S'MARCIA'
p1766
a(lp1767
S'And'
p1768
aS'its'
p1769
aS'not'
p1770
aS'displaced'
p1771
aaa(lp1772
S'LINDSEY'
p1773
a(lp1774
S'And'
p1775
aS'its'
p1776
aS'not'
p1777
aS'displaced'
p1778
aaa(lp1779
g1773
a(lp1780
S'should'
p1781
aS'be'
p1782
aS'pretty'
p1783
aS'stable'
p1784
aaa(lp1785
g1773
a(lp1786
S'Itll'
p1787
aS'be'
p1788
aS'kind'
p1789
aS'of'
p1790
ag94
aS'pain'
p1791
aS'getting'
p1792
aS'the'
p1793
aaa(lp1794
g1773
a(lp1795
S'well'
p1796
aaa(lp1797
g1773
a(lp1798
S'maybe'
p1799
aS'not'
p1800
aaa(lp1801
g1773
a(lp1802
S'getting'
p1803
aS'the'
p1804
aS'cast'
p1805
aS'over'
p1806
aS'the'
p1807
aS'stifle'
p1808
aaa(lp1809
g1773
a(lp1810
S'Maybe'
p1811
aS'not'
p1812
aaa(lp1813
S'MARCIA'
p1814
a(lp1815
S'Well'
p1816
aaa(lp1817
g1814
a(lp1818
S'as'
p1819
aS'long'
p1820
aS'as'
p1821
aS'shes'
p1822
aaa(lp1823
S'LINDSEY'
p1824
a(lp1825
S'Got'
p1826
aS'kinda'
p1827
aS'long'
p1828
aS'legs'
p1829
aaa(lp1830
S'MARCIA'
p1831
a(lp1832
S'As'
p1833
aS'long'
p1834
aS'as'
p1835
aS'shes'
p1836
aS'quiet'
p1837
aaa(lp1838
g1831
a(lp1839
S'Okay'
p1840
aaa(lp1841
g1831
a(lp1842
S'Ill'
p1843
aS'give'
p1844
aS'him'
p1845
ag94
aS'call'
p1846
aaa(lp1847
g1831
a(lp1848
g49
aS'dont'
p1849
aS'know'
p1850
aS'if'
p1851
aS'hes'
p1852
aS'in'
p1853
aS'the'
p1854
aS'barn'
p1855
aaa(lp1856
g1831
a(lp1857
S'from'
p1858
aS'home'
p1859
aaa(lp1860
g1831
a(lp1861
S'In'
p1862
aS'back'
p1863
aS'in'
p1864
aS'from'
p1865
aS'the'
p1866
aS'barn'
p1867
aS'yet'
p1868
aS'or'
p1869
aS'not'
p1870
aaa(lp1871
S'HEIDI'
p1872
a(lp1873
S'XXXXXXXX'
p1874
aaa(lp1875
S'MARCIA'
p1876
a(lp1877
S'Well'
p1878
aaa(lp1879
S'HEIDI'
p1880
a(lp1881
g21
aS'called'
p1882
aS'both'
p1883
aS'the'
p1884
aS'house'
p1885
aS'number'
p1886
aaa(lp1887
g1880
a(lp1888
S'and'
p1889
aS'the'
p1890
aS'barn'
p1891
aS'number'
p1892
aaa(lp1893
g1880
a(lp1894
S'and'
p1895
aS'both'
p1896
aS'of'
p1897
aS'em'
p1898
aaa(lp1899
g1880
a(lp1900
S'and'
p1901
aaa(lp1902
g1880
a(lp1903
g94
aS'little'
p1904
aS'kid'
p1905
aS'answered'
p1906
aaa(lp1907
S'LINDSEY'
p1908
a(lp1909
S'Mm'
p1910
aaa(lp1911
g1908
a(lp1912
S'Yeah'
p1913
aS'and'
p1914
aS'theyre'
p1915
aS'little'
p1916
aS'little'
p1917
aS'kids'
p1918
aS'too'
p1919
aaa(lp1920
S'MARCIA'
p1921
a(lp1922
aa(lp1923
S'KRISTEN'
p1924
a(lp1925
S'XX'
p1926
aS'XXXX'
p1927
aaa(lp1928
S'HEIDI'
p1929
a(lp1930
S'mhm'
p1931
aaa(lp1932
S'KRISTEN'
p1933
a(lp1934
S'XX'
p1935
aaa(lp1936
S'LINDSEY'
p1937
a(lp1938
S'Theyre'
p1939
aS'like'
p1940
aaa(lp1941
g1937
a(lp1942
S'XX'
p1943
aaa(lp1944
g1937
a(lp1945
S'XX'
p1946
aaa(lp1947
g1937
a(lp1948
S'on'
p1949
aS'three'
p1950
aaa(lp1951
S'MARCIA'
p1952
a(lp1953
aa(lp1954
S'MARCIA'
p1955
a(lp1956
S'Yeah'
p1957
aS'Carol'
p1958
aaa(lp1959
g1955
a(lp1960
S'Its'
p1961
aS'Marcia'
p1962
aaa(lp1963
g1955
a(lp1964
S'Hi'
p1965
aaa(lp1966
g1955
a(lp1967
S'um'
p1968
aaa(lp1969
g1955
a(lp1970
S'we'
p1971
aS'got'
p1972
aS'Xrays'
p1973
aS'done'
p1974
aS'already'
p1975
aaa(lp1976
g1955
a(lp1977
S'and'
p1978
aaa(lp1979
g1955
a(lp1980
g49
aS'was'
p1981
aS'gonna'
p1982
aS'let'
p1983
aS'you'
p1984
aS'know'
p1985
aS'what'
p1986
aaa(lp1987
g1955
a(lp1988
S'what'
p1989
aS'was'
p1990
aS'going'
p1991
aS'on'
p1992
aaa(lp1993
g1955
a(lp1994
S'Should'
p1995
ag49
aS'talk'
p1996
aS'to'
p1997
aS'Richard'
p1998
aaa(lp1999
g1955
a(lp2000
S'or'
p2001
aS'you'
p2002
aS'okay'
p2003
aaa(lp2004
g1955
a(lp2005
S'Okay'
p2006
aaa(lp2007
g1955
a(lp2008
S'Um'
p2009
aaa(lp2010
g1955
a(lp2011
S'It'
p2012
aS'looks'
p2013
aS'like'
p2014
aS'shes'
p2015
aS'got'
p2016
ag94
aS'spiral'
p2017
aS'fracture'
p2018
aaa(lp2019
g1955
a(lp2020
S'Of'
p2021
aS'um'
p2022
aaa(lp2023
g1955
a(lp2024
S'of'
p2025
aS'her'
p2026
aS'tibia'
p2027
aaa(lp2028
g1955
a(lp2029
S'which'
p2030
aS'is'
p2031
aS'the'
p2032
aS'bone'
p2033
aS'between'
p2034
aS'the'
p2035
aS'knee'
p2036
aS'and'
p2037
aS'the'
p2038
aS'hock'
p2039
aaa(lp2040
g1955
a(lp2041
S'and'
p2042
aaa(lp2043
g1955
a(lp2044
S'um'
p2045
aaa(lp2046
g1955
a(lp2047
S'Its'
p2048
ag1107
aaa(lp2049
g1955
a(lp2050
S'its'
p2051
aS'really'
p2052
aS'looks'
p2053
aaa(lp2054
g1955
a(lp2055
S'pretty'
p2056
aS'stable'
p2057
aaa(lp2058
g1955
a(lp2059
S'Its'
p2060
aS'not'
p2061
aS'displaced'
p2062
aS'very'
p2063
aS'far'
p2064
aS'anyway'
p2065
aaa(lp2066
g1955
a(lp2067
S'and'
p2068
aS'its'
p2069
aaa(lp2070
g1955
a(lp2071
S'um'
p2072
aaa(lp2073
g1955
a(lp2074
S'pretty'
p2075
aS'much'
p2076
aaa(lp2077
g1955
a(lp2078
S'you'
p2079
aS'know'
p2080
aaa(lp2081
g1955
a(lp2082
S'locked'
p2083
aS'in'
p2084
aS'place'
p2085
aaa(lp2086
g1955
a(lp2087
S'so'
p2088
aS'to'
p2089
aS'speak'
p2090
aaa(lp2091
g1955
a(lp2092
S'um'
p2093
aaa(lp2094
g1955
a(lp2095
S'so'
p2096
ag49
aS'think'
p2097
aaa(lp2098
g1955
a(lp2099
S'that'
p2100
aS'she'
p2101
aS'would'
p2102
aaa(lp2103
g1955
a(lp2104
S'she'
p2105
aS'would'
p2106
aS'do'
p2107
aS'fine'
p2108
aS'with'
p2109
ag94
aS'cast'
p2110
aaa(lp2111
g1955
a(lp2112
S'Um'
p2113
aaa(lp2114
g1955
a(lp2115
S'and'
p2116
aaa(lp2117
g1955
a(lp2118
g49
aS'pretty'
p2119
aS'much'
p2120
aS'got'
p2121
aS'an'
p2122
aS'estimate'
p2123
aaa(lp2124
g1955
a(lp2125
S'so'
p2126
aS'far'
p2127
aaa(lp2128
g1955
a(lp2129
S'with'
p2130
aS'the'
p2131
aaa(lp2132
g1955
a(lp2133
S'oming'
p2134
aS'in'
p2135
aS'yesterday'
p2136
aaa(lp2137
g1955
a(lp2138
S'and'
p2139
aS'the'
p2140
aS'Xrays'
p2141
aS'and'
p2142
aS'everything'
p2143
aaa(lp2144
g1955
a(lp2145
S'the'
p2146
aS'bill'
p2147
aS'was'
p2148
aS'about'
p2149
aS'fiftyfour'
p2150
aaa(lp2151
g1955
a(lp2152
S'And'
p2153
aaa(lp2154
g1955
a(lp2155
S'to'
p2156
aS'do'
p2157
ag94
aS'cast'
p2158
aaa(lp2159
g1955
a(lp2160
S'um'
p2161
aaa(lp2162
g1955
a(lp2163
S'with'
p2164
aS'the'
p2165
aS'anasthesia'
p2166
aaa(lp2167
g1955
a(lp2168
S'and'
p2169
aS'staying'
p2170
aS'one'
p2171
aS'more'
p2172
aS'night'
p2173
aS'in'
p2174
aS'the'
p2175
aS'hospital'
p2176
aS'and'
p2177
aS'stuff'
p2178
aaa(lp2179
g1955
a(lp2180
S'and'
p2181
aS'then'
p2182
aS'the'
p2183
aS'casting'
p2184
aS'material'
p2185
aaa(lp2186
g1955
a(lp2187
S'probably'
p2188
aS'the'
p2189
aaa(lp2190
g1955
a(lp2191
S'Its'
p2192
aS'gonna'
p2193
aS'be'
p2194
aS'about'
p2195
ag94
aS'hundred'
p2196
aS'and'
p2197
aS'fiftythree'
p2198
aaa(lp2199
g1955
a(lp2200
S'total'
p2201
aaa(lp2202
g1955
a(lp2203
S'And'
p2204
aaa(lp2205
g1955
a(lp2206
S'the'
p2207
aS'only'
p2208
aaa(lp2209
g1955
a(lp2210
S'then'
p2211
aS'it'
p2212
aS'would'
p2213
aS'be'
p2214
aaa(lp2215
g1955
a(lp2216
S'the'
p2217
aS'only'
p2218
aS'extra'
p2219
aS'would'
p2220
aS'be'
p2221
aaa(lp2222
g1955
a(lp2223
S'in'
p2224
aS'about'
p2225
aS'six'
p2226
aS'to'
p2227
aS'eight'
p2228
aS'weeks'
p2229
aaa(lp2230
g1955
a(lp2231
S'wed'
p2232
aS'have'
p2233
aS'her'
p2234
aS'come'
p2235
aS'in'
p2236
aS'again'
p2237
aaa(lp2238
g1955
a(lp2239
S'we'
p2240
aS'would'
p2241
aS'tranquilize'
p2242
aS'her'
p2243
aaa(lp2244
g1955
a(lp2245
S'and'
p2246
aS'take'
p2247
aS'the'
p2248
aS'Xrays'
p2249
aaa(lp2250
g1955
a(lp2251
S'and'
p2252
aS'see'
p2253
aS'if'
p2254
aS'its'
p2255
aS'healed'
p2256
aaa(lp2257
g1955
a(lp2258
S'Enough'
p2259
aS'to'
p2260
aS'take'
p2261
aS'off'
p2262
aaa(lp2263
g1955
a(lp2264
S'And'
p2265
aS'thats'
p2266
aS'generally'
p2267
aS'about'
p2268
aS'thirtyfour'
p2269
aS'to'
p2270
aS'forty'
p2271
aaa(lp2272
g1955
a(lp2273
S'somewhere'
p2274
aS'in'
p2275
aS'there'
p2276
aaa(lp2277
g1955
a(lp2278
S'Yeah'
p2279
aaa(lp2280
g1955
a(lp2281
S'You'
p2282
aS'know'
p2283
aaa(lp2284
g1955
a(lp2285
g94
aS'pin'
p2286
aaa(lp2287
g1955
a(lp2288
S'you'
p2289
aS'know'
p2290
aaa(lp2291
g1955
a(lp2292
S'if'
p2293
aS'we'
p2294
aS'did'
p2295
ag94
aS'pin'
p2296
aaa(lp2297
g1955
a(lp2298
S'its'
p2299
aS'probably'
p2300
aaa(lp2301
g1955
a(lp2302
S'it'
p2303
aS'would'
p2304
aS'probably'
p2305
aS'be'
p2306
aS'even'
p2307
ag94
aS'hundred'
p2308
aS'more'
p2309
aaa(lp2310
g1955
a(lp2311
S'but'
p2312
aaa(lp2313
g1955
a(lp2314
S'so'
p2315
aS'its'
p2316
aaa(lp2317
g1955
a(lp2318
S'its'
p2319
aaa(lp2320
g1955
a(lp2321
S'Thats'
p2322
aS'about'
p2323
aS'the'
p2324
aaa(lp2325
g1955
a(lp2326
S'at'
p2327
aS'this'
p2328
aS'point'
p2329
aS'the'
p2330
aaa(lp2331
g1955
a(lp2332
S'the'
p2333
aS'least'
p2334
aS'expensive'
p2335
aS'alternative'
p2336
aaa(lp2337
g1955
a(lp2338
S'that'
p2339
aS'probably'
p2340
aS'will'
p2341
aS'work'
p2342
aaa(lp2343
g1955
a(lp2344
S'for'
p2345
aS'her'
p2346
aaa(lp2347
g1955
a(lp2348
S'Um'
p2349
aaa(lp2350
g1955
a(lp2351
S'So'
p2352
aaa(lp2353
g1955
a(lp2354
S'If'
p2355
aS'you'
p2356
aS'want'
p2357
aS'to'
p2358
aS'let'
p2359
aS'him'
p2360
aS'know'
p2361
aS'and'
p2362
aS'then'
p2363
aaa(lp2364
g1955
a(lp2365
S'have'
p2366
aS'him'
p2367
aS'call'
p2368
aS'me'
p2369
aS'back'
p2370
aaa(lp2371
g1955
a(lp2372
S'if'
p2373
aS'you'
p2374
aaa(lp2375
S'KRISTEN'
p2376
a(lp2377
S'Lindsey'
p2378
aaa(lp2379
S'MARCIA'
p2380
a(lp2381
S'If'
p2382
aS'you'
p2383
aS'wanna'
p2384
aS'go'
p2385
aS'ahead'
p2386
aS'and'
p2387
aS'do'
p2388
aS'it'
p2389
aaa(lp2390
g2380
a(lp2391
S'Okay'
p2392
aaa(lp2393
S'KRISTEN'
p2394
a(lp2395
S'You'
p2396
aS'wanna'
p2397
aS'put'
p2398
aS'this'
p2399
aS'kitty'
p2400
aS'castration'
p2401
aS'down'
p2402
aaa(lp2403
S'LINDSEY'
p2404
a(lp2405
S'Sure'
p2406
aaa(lp2407
S'KRISTEN'
p2408
a(lp2409
S'XXX'
p2410
aaa(lp2411
S'MARCIA'
p2412
a(lp2413
S'Alright'
p2414
aaa(lp2415
g2412
a(lp2416
S'And'
p2417
aS'if'
p2418
aS'she'
p2419
aaa(lp2420
g2412
a(lp2421
S'you'
p2422
aS'know'
p2423
aaa(lp2424
g2412
a(lp2425
S'if'
p2426
aS'we'
p2427
aS'did'
p2428
aS'it'
p2429
aaa(lp2430
g2412
a(lp2431
S'she'
p2432
aS'could'
p2433
aS'probably'
p2434
aS'go'
p2435
aS'home'
p2436
aS'tomorrow'
p2437
aaa(lp2438
g2412
a(lp2439
S'Okay'
p2440
aaa(lp2441
g2412
a(lp2442
S'whenever'
p2443
aaa(lp2444
g2412
a(lp2445
S'whenever'
p2446
aS'you'
p2447
aS'get'
p2448
ag94
aS'chance'
p2449
aaa(lp2450
g2412
a(lp2451
S'Okay'
p2452
aaa(lp2453
g2412
a(lp2454
S'thanks'
p2455
aS'Carol'
p2456
aaa(lp2457
g2412
a(lp2458
S'Mhm'
p2459
aaa(lp2460
g2412
a(lp2461
S'byebye'
p2462
aaa(lp2463
S'LINDSEY'
p2464
a(lp2465
S'Gee'
p2466
aaa(lp2467
g2464
a(lp2468
S'this'
p2469
aS'is'
p2470
aS'the'
p2471
aS'one'
p2472
aS'that'
p2473
aS'was'
p2474
aS'too'
p2475
aS'young'
p2476
aaa(lp2477
g2464
a(lp2478
S'and'
p2479
aS'went'
p2480
aS'back'
p2481
aS'home'
p2482
aaa(lp2483
S'HEIDI'
p2484
a(lp2485
g21
ag21
ag21
aaa(lp2486
S'MARCIA'
p2487
a(lp2488
S'Shes'
p2489
aaa(lp2490
g2487
a(lp2491
S'shes'
p2492
aS'gonna'
p2493
aaa(lp2494
g2487
a(lp2495
S'talk'
p2496
aS'to'
p2497
aS'him'
p2498
aaa(lp2499
g2487
a(lp2500
S'and'
p2501
aS'get'
p2502
aS'back'
p2503
aS'to'
p2504
aS'me'
p2505
aaa(lp2506
g2487
a(lp2507
g49
aS'imagine'
p2508
aS'they'
p2509
aS'might'
p2510
aaa(lp2511
S'LINDSEY'
p2512
a(lp2513
S'VOX'
p2514
aS'Oh'
p2515
aS'youve'
p2516
aS'grown'
p2517
aaa(lp2518
S'KRISTEN'
p2519
a(lp2520
S'He'
p2521
aS'gets'
p2522
aS'it'
p2523
aS'just'
p2524
aS'right'
p2525
aaa(lp2526
g2519
a(lp2527
S'hes'
p2528
aS'just'
p2529
aS'getting'
p2530
aS'his'
p2531
aS'adult'
p2532
aS'XX'
p2533
aaa(lp2534
S'LINDSEY'
p2535
a(lp2536
S'What'
p2537
ag94
aS'cuty'
p2538
aaa(lp2539
g2535
a(lp2540
S'Oh'
p2541
aS'youre'
p2542
aS'beautiful'
p2543
aaa(lp2544
S'KRISTEN'
p2545
a(lp2546
S'XXXXXX'
p2547
aaa(lp2548
g2545
a(lp2549
g21
aS'Pretty'
p2550
aS'unusual'
p2551
aS'with'
p2552
aS'that'
p2553
ag21
aaa(lp2554
g2545
a(lp2555
S'XXXX'
p2556
aaa(lp2557
S'LINDSEY'
p2558
a(lp2559
S'Hey'
p2560
aS'beautiful'
p2561
aaa(lp2562
g2558
a(lp2563
S'XXXXXX'
p2564
aaa(lp2565
S'LINDSEY'
p2566
a(lp2567
S'Oh'
p2568
aaa(lp2569
g2566
a(lp2570
S'youre'
p2571
aS'beautiful'
p2572
aaa(lp2573
S'MARCIA'
p2574
a(lp2575
S'XX'
p2576
ag21
aaa(lp2577
S'LINDSEY'
p2578
a(lp2579
S'Oh'
p2580
aaa(lp2581
g2578
a(lp2582
S'Yes'
p2583
aaa(lp2584
S'HEIDI'
p2585
a(lp2586
S'XXX'
p2587
aaa(lp2588
S'MARCIA'
p2589
a(lp2590
S'Thats'
p2591
aS'what'
p2592
aS'it'
p2593
aS'sounds'
p2594
aS'like'
p2595
aaa(lp2596
S'HEIDI'
p2597
a(lp2598
S'It'
p2599
aS'kind'
p2600
aS'of'
p2601
aS'sounds'
p2602
aS'like'
p2603
aS'that'
p2604
aaa(lp2605
S'MARCIA'
p2606
a(lp2607
S'Sounds'
p2608
aS'like'
p2609
aS'it'
p2610
aaa(lp2611
g2606
a(lp2612
S'with'
p2613
aS'the'
p2614
aS'ticking'
p2615
aaa(lp2616
S'ENV'
p2617
a(lp2618
aa(lp2619
S'LINDSEY'
p2620
a(lp2621
S'Is'
p2622
aS'that'
p2623
aS'the'
p2624
aS'needle'
p2625
aaa(lp2626
S'HEIDI'
p2627
a(lp2628
S'Kingman'
p2629
aS'Vet'
p2630
aS'Center'
p2631
aaa(lp2632
g2627
a(lp2633
S'Heidi'
p2634
aS'speaking'
p2635
aaa(lp2636
S'LINDSEY'
p2637
a(lp2638
S'Yeah'
p2639
aaa(lp2640
S'CAT'
p2641
a(lp2642
aa(lp2643
S'LINDSEY'
p2644
a(lp2645
S'XX'
p2646
aS'it'
p2647
aS'hurt'
p2648
aaa(lp2649
g2644
a(lp2650
S'You'
p2651
aS'felt'
p2652
aS'the'
p2653
aS'needle'
p2654
aaa(lp2655
g2644
a(lp2656
S'aw'
p2657
aS'VOX'
p2658
aaa(lp2659
S'MARCIA'
p2660
a(lp2661
g21
ag21
aaa(lp2662
S'LINDSEY'
p2663
a(lp2664
S'Yeah'
p2665
aaa(lp2666
S'HEIDI'
p2667
a(lp2668
S'Okay'
p2669
aaa(lp2670
g2667
a(lp2671
S'is'
p2672
aS'this'
p2673
ag94
aS'dog'
p2674
aS'weve'
p2675
aS'seen'
p2676
aS'before'
p2677
aaa(lp2678
S'KRISTEN'
p2679
a(lp2680
S'Gonna'
p2681
aS'call'
p2682
aS'back'
p2683
aaa(lp2684
S'MARCIA'
p2685
a(lp2686
S'Yeah'
p2687
aaa(lp2688
g2685
a(lp2689
g49
aS'talked'
p2690
aS'to'
p2691
aS'Carol'
p2692
aaa(lp2693
S'HEIDI'
p2694
a(lp2695
S'Okay'
p2696
aaa(lp2697
g2694
a(lp2698
S'how'
p2699
aS'old'
p2700
aS'is'
p2701
aS'it'
p2702
aaa(lp2703
S'MARCIA'
p2704
a(lp2705
S'and'
p2706
aS'shes'
p2707
aS'gonna'
p2708
aS'talk'
p2709
aS'to'
p2710
aS'Richard'
p2711
aaa(lp2712
g2704
a(lp2713
S'and'
p2714
aaa(lp2715
S'HEIDI'
p2716
a(lp2717
S'Okay'
p2718
aaa(lp2719
g2716
a(lp2720
S'just'
p2721
ag94
aS'moment'
p2722
aaa(lp2723
g2716
a(lp2724
S'XX'
p2725
aS'Ill'
p2726
aS'let'
p2727
aS'you'
p2728
aS'talk'
p2729
aS'to'
p2730
aS'one'
p2731
aS'of'
p2732
aS'the'
p2733
aS'vets'
p2734
aaa(lp2735
S'LINDSEY'
p2736
a(lp2737
g49
aS'imagine'
p2738
aS'they'
p2739
aS'might'
p2740
aS'go'
p2741
aS'for'
p2742
aS'it'
p2743
aaa(lp2744
S'MARCIA'
p2745
a(lp2746
S'Its'
p2747
aS'about'
p2748
aS'the'
p2749
aS'cheapest'
p2750
aS'alternative'
p2751
aS'in'
p2752
aS'the'
p2753
aS'world'
p2754
aaa(lp2755
S'HEIDI'
p2756
a(lp2757
S'Jeremiah'
p2758
aS'Hassel'
p2759
aaa(lp2760
S'KRISTEN'
p2761
a(lp2762
S'VOX'
p2763
aS'You'
p2764
aS'stay'
p2765
aS'right'
p2766
aS'here'
p2767
aS'with'
p2768
aS'me'
p2769
aaa(lp2770
S'HEIDI'
p2771
a(lp2772
S'is'
p2773
aS'on'
p2774
aS'the'
p2775
aS'phone'
p2776
aaa(lp2777
S'MARCIA'
p2778
a(lp2779
S'What'
p2780
aaa(lp2781
S'HEIDI'
p2782
a(lp2783
S'And'
p2784
aS'theyve'
p2785
aS'got'
p2786
ag94
aS'dog'
p2787
aaa(lp2788
g2782
a(lp2789
S'in'
p2790
aS'about'
p2791
aS'three'
p2792
aS'weeks'
p2793
aaa(lp2794
g2782
a(lp2795
S'and'
p2796
aS'she'
p2797
aS'was'
p2798
aS'dripping'
p2799
aS'some'
p2800
aS'blood'
p2801
aS'Saturday'
p2802
aS'night'
p2803
aaa(lp2804
g2782
a(lp2805
S'Hes'
p2806
aS'wondering'
p2807
aS'what'
p2808
aS'it'
p2809
aS'may'
p2810
aS'be'
p2811
aaa(lp2812
g2782
a(lp2813
S'and'
p2814
aaa(lp2815
g2782
a(lp2816
S'They'
p2817
aS'wa'
p2818
aaa(lp2819
S'LINDSEY'
p2820
a(lp2821
S'Mmm'
p2822
aaa(lp2823
S'HEIDI'
p2824
a(lp2825
S'They'
p2826
aS'must'
p2827
aS'have'
p2828
aS'got'
p2829
ag94
aS'replacement'
p2830
aS'for'
p2831
aS'Faith'
p2832
aS'already'
p2833
aaa(lp2834
S'LINDSEY'
p2835
a(lp2836
g49
aS'dont'
p2837
aS'know'
p2838
aaa(lp2839
S'MARCIA'
p2840
a(lp2841
S'Whos'
p2842
aS'that'
p2843
aS'that'
p2844
aS'called'
p2845
aaa(lp2846
S'HEIDI'
p2847
a(lp2848
S'Jeremiah'
p2849
aS'Hassel'
p2850
aaa(lp2851
S'LINDSEY'
p2852
a(lp2853
S'Hassel'
p2854
aaa(lp2855
S'MARCIA'
p2856
a(lp2857
aa(lp2858
S'KRISTEN'
p2859
a(lp2860
S'You'
p2861
aS'stay'
p2862
aS'here'
p2863
aaa(lp2864
S'MARCIA'
p2865
a(lp2866
aa(lp2867
S'KRISTEN'
p2868
a(lp2869
S'Il'
p2870
aS'l'
p2871
aS'be'
p2872
aS'right'
p2873
aS'back'
p2874
aS'VOX'
p2875
aaa(lp2876
S'MARCIA'
p2877
a(lp2878
S'Could'
p2879
aS'it'
p2880
aS'be'
p2881
aS'aborting'
p2882
aaa(lp2883
S'LINDSEY'
p2884
a(lp2885
S'Yeah'
p2886
aaa(lp2887
g2884
a(lp2888
S'could'
p2889
aS'be'
p2890
aaa(lp2891
S'KRISTEN'
p2892
a(lp2893
S'Whos'
p2894
aS'aborting'
p2895
aaa(lp2896
S'MARCIA'
p2897
a(lp2898
S'Jeremiah'
p2899
aS'Hassels'
p2900
aaa(lp2901
g2897
a(lp2902
S'they'
p2903
aS'got'
p2904
ag94
aS'dog'
p2905
aS'thats'
p2906
aS'pregnant'
p2907
aS'and'
p2908
aaa(lp2909
S'KRISTEN'
p2910
a(lp2911
S'WH'
p2912
aS'Jeez'
p2913
aS'WH'
p2914
aaa(lp2915
g2910
a(lp2916
g49
aS'heard'
p2917
aS'them'
p2918
aaa(lp2919
S'MARCIA'
p2920
a(lp2921
S'due'
p2922
aS'in'
p2923
aS'three'
p2924
aS'weeks'
p2925
aaa(lp2926
g2920
a(lp2927
S'and'
p2928
aS'their'
p2929
aS'dogs'
p2930
aS'dripping'
p2931
aS'blood'
p2932
aS'and'
p2933
aS'theyre'
p2934
aS'wondering'
p2935
aS'why'
p2936
aaa(lp2937
S'KRISTEN'
p2938
a(lp2939
g49
aS'heard'
p2940
aaa(lp2941
g2938
a(lp2942
S'and'
p2943
ag49
aS'thought'
p2944
aS'it'
p2945
aS'was'
p2946
aS'him'
p2947
aaa(lp2948
g2938
a(lp2949
S'he'
p2950
aS'didnt'
p2951
aS'give'
p2952
aS'his'
p2953
aS'name'
p2954
aaa(lp2955
g2938
a(lp2956
S'but'
p2957
ag49
aS'heard'
p2958
ag94
aS'kid'
p2959
aS'on'
p2960
aaa(lp2961
g2938
a(lp2962
S'p'
p2963
aS'whatever'
p2964
aS'that'
p2965
aS'shopping'
p2966
aS'thing'
p2967
aS'is'
p2968
aS'on'
p2969
aS'the'
p2970
aS'radio'
p2971
aaa(lp2972
S'LINDSEY'
p2973
a(lp2974
S'Prime'
p2975
aS'Mover'
p2976
aaa(lp2977
S'KRISTEN'
p2978
a(lp2979
S'Prime'
p2980
aS'mover'
p2981
aaa(lp2982
g2978
a(lp2983
S'On'
p2984
aS'Saturday'
p2985
aS'morning'
p2986
aaa(lp2987
g2978
a(lp2988
S'Saying'
p2989
aS'that'
p2990
aS'they'
p2991
aS'had'
p2992
ag94
aS'few'
p2993
aS'puppies'
p2994
aS'left'
p2995
aS'that'
p2996
aS'they'
p2997
aS'were'
p2998
aS'gonna'
p2999
aS'sell'
p3000
aaa(lp3001
g2978
a(lp3002
S'and'
p3003
aS'then'
p3004
aS'theyre'
p3005
aS'taking'
p3006
aS'orders'
p3007
aS'for'
p3008
aS'Christmas'
p3009
aS'puppies'
p3010
aaa(lp3011
g2978
a(lp3012
S'And'
p3013
ag49
aS'thought'
p3014
aaa(lp3015
g2978
a(lp3016
S'thats'
p3017
aS'probably'
p3018
aS'who'
p3019
aS'that'
p3020
aS'was'
p3021
aaa(lp3022
S'LINDSEY'
p3023
a(lp3024
S'Last'
p3025
aS'week'
p3026
aaa(lp3027
g3023
a(lp3028
S'or'
p3029
aaa(lp3030
S'KRISTEN'
p3031
a(lp3032
S'x'
p3033
aaa(lp3034
S'MARCIA'
p3035
a(lp3036
S'Guess'
p3037
aS'they'
p3038
aS'gotta'
p3039
aS'make'
p3040
aS'money'
p3041
aS'somehow'
p3042
aaa(lp3043
g3035
a(lp3044
S'huh'
p3045
aaa(lp3046
S'LINDSEY'
p3047
a(lp3048
S'Oh'
p3049
aaa(lp3050
g3047
a(lp3051
S'Saturday'
p3052
aS'night'
p3053
aaa(lp3054
S'KRISTEN'
p3055
a(lp3056
S'Want'
p3057
aS'one'
p3058
aS'of'
p3059
aS'these'
p3060
aaa.