(lp0
(lp1
S'DANNY'
p2
a(lp3
aa(lp4
g2
a(lp5
S'This'
p6
aS'morning'
p7
aS'were'
p8
aS'gonna'
p9
aS'be'
p10
aS'looking'
p11
aS'in'
p12
aS'the'
p13
aS'book'
p14
aS'of'
p15
aS'Exodus'
p16
aaa(lp17
g2
a(lp18
S'And'
p19
aS'weve'
p20
aS'been'
p21
aS'talking'
p22
aS'about'
p23
aS'uh'
p24
aaa(lp25
g2
a(lp26
S'Vision'
p27
aaa(lp28
g2
a(lp29
S'And'
p30
aS'hearing'
p31
aS'from'
p32
aS'God'
p33
aaa(lp34
g2
a(lp35
S'I'
p36
aS'was'
p37
aS'trying'
p38
aS'to'
p39
aS'come'
p40
aS'up'
p41
aS'with'
p42
aS'a'
p43
aS'definition'
p44
aaa(lp45
g2
a(lp46
S'in'
p47
aS'fact'
p48
ag36
aaa(lp49
g2
a(lp50
g36
aS'looked'
p51
aS'it'
p52
aS'up'
p53
aS'in'
p54
aS'the'
p55
aS'encyclopedia'
p56
aS'for'
p57
aS'vision'
p58
aaa(lp59
g2
a(lp60
S'there'
p61
aS'is'
p62
aS'definitely'
p63
ag43
aS'definition'
p64
aaa(lp65
g2
a(lp66
S'several'
p67
aaa(lp68
g2
a(lp69
S'uh'
p70
aaa(lp71
g2
a(lp72
S'and'
p73
ag36
aS'didnt'
p74
aS'really'
p75
aS'like'
p76
aS'any'
p77
aS'of'
p78
aS'them'
p79
aaa(lp80
g2
a(lp81
S'uh'
p82
aaa(lp83
g2
a(lp84
S'so'
p85
ag36
aS'thought'
p86
aS'Id'
p87
aS'try'
p88
aS'to'
p89
aS'come'
p90
aS'up'
p91
aS'with'
p92
aS'one'
p93
aS'of'
p94
aS'my'
p95
aS'own'
p96
aaa(lp97
g2
a(lp98
S'Jim'
p99
aS'Larson'
p100
aS'was'
p101
aS'uh'
p102
aS'sharing'
p103
ag43
aS'quote'
p104
aaa(lp105
g2
a(lp106
S'from'
p107
aS'Yogi'
p108
aS'Bara'
p109
aaa(lp110
g2
a(lp111
S'last'
p112
aS'night'
p113
aaa(lp114
g2
a(lp115
S'and'
p116
ag36
aS'wanted'
p117
aS'to'
p118
aS'share'
p119
aS'that'
p120
aS'this'
p121
aS'morning'
p122
aaa(lp123
g2
a(lp124
S'He'
p125
aS'says'
p126
aS'you'
p127
aS'gotta'
p128
aS'be'
p129
aS'careful'
p130
aS'when'
p131
aS'you'
p132
aS'dont'
p133
aS'know'
p134
aS'where'
p135
aS'youre'
p136
aS'going'
p137
aaa(lp138
g2
a(lp139
S'because'
p140
aS'you'
p141
aS'might'
p142
aS'not'
p143
aS'get'
p144
aS'there'
p145
aaa(lp146
g2
a(lp147
S'SM'
p148
aS'Which'
p149
aS'says'
p150
aS'so'
p151
aS'much'
p152
aaa(lp153
g2
a(lp154
S'that'
p155
aS'we'
p156
aS'need'
p157
aS'to'
p158
aS'know'
p159
aS'where'
p160
aS'were'
p161
aS'going'
p162
aS'SM'
p163
aaa(lp164
g2
a(lp165
S'And'
p166
aS'vision'
p167
aaa(lp168
g2
a(lp169
S'really'
p170
aS'has'
p171
aS'to'
p172
aS'do'
p173
aS'with'
p174
aaa(lp175
g2
a(lp176
S'having'
p177
aS'an'
p178
aS'idea'
p179
aS'of'
p180
aS'where'
p181
aS'youre'
p182
aS'going'
p183
aaa(lp184
g2
a(lp185
S'Our'
p186
aS'mission'
p187
aS'is'
p188
ag43
aS'goal'
p189
aS'or'
p190
aS'task'
p191
aS'which'
p192
aS'one'
p193
aS'is'
p194
aS'destined'
p195
aS'to'
p196
aS'accomplish'
p197
aaa(lp198
g2
a(lp199
S'Our'
p200
aS'vision'
p201
aaa(lp202
g2
a(lp203
S'and'
p204
aS'heres'
p205
aS'the'
p206
aaa(lp207
g2
a(lp208
S'heres'
p209
aS'the'
p210
aS'definition'
p211
ag36
aS'came'
p212
aS'up'
p213
aS'with'
p214
aaa(lp215
g2
a(lp216
S'you'
p217
aS'can'
p218
aS'write'
p219
aS'this'
p220
aS'down'
p221
aaa(lp222
g2
a(lp223
S'but'
p224
aS'uh'
p225
aaa(lp226
g2
a(lp227
S'uh'
p228
aS'dont'
p229
aS'use'
p230
aS'it'
p231
aS'unless'
p232
aS'you'
p233
aaa(lp234
g2
a(lp235
S'uh'
p236
aaa(lp237
g2
a(lp238
S'agree'
p239
aS'with'
p240
aS'it'
p241
aaa(lp242
S'AUD'
p243
a(lp244
aa(lp245
S'DANNY'
p246
a(lp247
S'Its'
p248
aS'mentally'
p249
aS'seeing'
p250
aaa(lp251
S'AUD'
p252
a(lp253
aa(lp254
S'DANNY'
p255
a(lp256
S'where'
p257
aS'one'
p258
aS'hopes'
p259
aS'to'
p260
aS'be'
p261
aaa(lp262
g255
a(lp263
S'in'
p264
ag43
aS'specific'
p265
aS'period'
p266
aS'of'
p267
aS'time'
p268
aaa(lp269
g255
a(lp270
S'Its'
p271
aS'in'
p272
aS'your'
p273
aS'imagination'
p274
aaa(lp275
g255
a(lp276
S'in'
p277
aS'your'
p278
aS'hopes'
p279
aaa(lp280
g255
a(lp281
S'that'
p282
aS'youre'
p283
aS'looking'
p284
aS'ahead'
p285
aaa(lp286
g255
a(lp287
S'And'
p288
aS'h'
p289
aS'trying'
p290
aS'to'
p291
aS'see'
p292
aS'where'
p293
aS'you'
p294
aS'will'
p295
aS'be'
p296
aaa(lp297
g255
a(lp298
S'in'
p299
ag43
aS'specific'
p300
aS'period'
p301
aS'period'
p302
aS'of'
p303
aS'time'
p304
aaa(lp305
g255
a(lp306
S'So'
p307
aS'our'
p308
aS'vision'
p309
aS'for'
p310
aS'the'
p311
aS'next'
p312
aS'few'
p313
aS'years'
p314
aaa(lp315
g255
a(lp316
S'Our'
p317
aS'vision'
p318
aS'for'
p319
aaa(lp320
g255
a(lp321
S'uh'
p322
aaa(lp323
g255
a(lp324
S'the'
p325
aS'next'
p326
aS'ten'
p327
aS'years'
p328
aaa(lp329
g255
a(lp330
S'Whatever'
p331
aaa(lp332
g255
a(lp333
S'Uh'
p334
aaa(lp335
g255
a(lp336
S'what'
p337
aS'is'
p338
aS'our'
p339
aS'vision'
p340
aaa(lp341
g255
a(lp342
S'As'
p343
ag43
aS'church'
p344
aS'planter'
p345
aaa(lp346
g255
a(lp347
S'Pastor'
p348
aS'Queen'
p349
aS'came'
p350
aaa(lp351
g255
a(lp352
S'having'
p353
aS'grown'
p354
aS'up'
p355
aS'here'
p356
aaa(lp357
g255
a(lp358
S'and'
p359
aS'having'
p360
aS'gone'
p361
aS'off'
p362
aS'to'
p363
aS'to'
p364
aS'school'
p365
aaa(lp366
g255
a(lp367
S'to'
p368
aS'seminary'
p369
aaa(lp370
g255
a(lp371
S'God'
p372
aS'brought'
p373
aS'him'
p374
aS'back'
p375
aaa(lp376
g255
a(lp377
S'to'
p378
aS'start'
p379
ag43
aS'church'
p380
aaa(lp381
g255
a(lp382
S'And'
p383
aS'he'
p384
aS'began'
p385
aS'to'
p386
aS'seek'
p387
aS'Gods'
p388
aS'uh'
p389
aS'vision'
p390
aaa(lp391
g255
a(lp392
S'for'
p393
aS'the'
p394
aS'church'
p395
aaa(lp396
g255
a(lp397
S'And'
p398
aS'through'
p399
aS'his'
p400
aS'own'
p401
aS'personal'
p402
aS'experience'
p403
aaa(lp404
g255
a(lp405
S'and'
p406
aS'through'
p407
aS'the'
p408
aS'Scripture'
p409
aaa(lp410
g255
a(lp411
S'and'
p412
aS'God'
p413
aS'gave'
p414
aS'him'
p415
ag43
aS'vision'
p416
aaa(lp417
g255
a(lp418
S'for'
p419
ag43
aS'church'
p420
aS'that'
p421
aS'was'
p422
aS'committed'
p423
aS'to'
p424
aS'being'
p425
ag43
aS'part'
p426
aS'of'
p427
aS'what'
p428
aS'God'
p429
aS'was'
p430
aS'doing'
p431
aaa(lp432
g255
a(lp433
g43
aS'church'
p434
aS'that'
p435
aS'was'
p436
aaa(lp437
g255
a(lp438
S'invested'
p439
aS'in'
p440
aS'building'
p441
aS'the'
p442
aS'Kingdom'
p443
aS'of'
p444
aS'God'
p445
aaa(lp446
g255
a(lp447
S'By'
p448
aS'caring'
p449
aS'for'
p450
aS'people'
p451
aS'where'
p452
aS'their'
p453
aS'needs'
p454
aS'were'
p455
aaa(lp456
g255
a(lp457
S'and'
p458
aS'by'
p459
aS'sharing'
p460
aS'the'
p461
aS'truth'
p462
aaa(lp463
g255
a(lp464
S'of'
p465
aS'the'
p466
aS'Gospel'
p467
aS'of'
p468
aS'Jesus'
p469
aS'Christ'
p470
aaa(lp471
g255
a(lp472
S'Our'
p473
aS'vision'
p474
aS'is'
p475
aaa(lp476
g255
a(lp477
S'is'
p478
ag43
aS'direction'
p479
aS'of'
p480
aS'involvement'
p481
aS'toward'
p482
ag43
aS'final'
p483
aS'destination'
p484
aaa(lp485
g255
a(lp486
S'When'
p487
ag36
aS'started'
p488
aS'thinking'
p489
aS'about'
p490
aS'missions'
p491
aaa(lp492
g255
a(lp493
g36
aS'thought'
p494
aS'immediately'
p495
aS'of'
p496
aS'the'
p497
aS'Blues'
p498
aS'Brothers'
p499
aaa(lp500
g255
a(lp501
S'You'
p502
aS'know'
p503
aaa(lp504
g255
a(lp505
S'and'
p506
aS'Dan'
p507
aS'Ackroyd'
p508
aaa(lp509
g255
a(lp510
S'comes'
p511
aS'out'
p512
aaa(lp513
g255
a(lp514
g36
aS'forget'
p515
aS'what'
p516
aS'his'
p517
aS'character'
p518
aS'was'
p519
aaa(lp520
g255
a(lp521
S'but'
p522
aS'he'
p523
aS'says'
p524
aaa(lp525
g255
a(lp526
S'Q'
p527
aS'were'
p528
aS'on'
p529
ag43
aS'mission'
p530
aS'from'
p531
aS'God'
p532
ag527
aaa(lp533
g255
a(lp534
S'SM'
p535
aS'And'
p536
aS'thats'
p537
aS'what'
p538
aS'the'
p539
aS'church'
p540
aS'is'
p541
aS'about'
p542
aaa(lp543
g255
a(lp544
S'were'
p545
aS'on'
p546
ag43
aS'mission'
p547
aS'from'
p548
aS'God'
p549
aS'SM'
p550
aaa(lp551
g255
a(lp552
S'In'
p553
aS'fact'
p554
aaa(lp555
g255
a(lp556
S'let'
p557
aS'me'
p558
aS'clarify'
p559
aS'it'
p560
ag43
aS'little'
p561
aS'more'
p562
aaa(lp563
g255
a(lp564
S'The'
p565
aS'church'
p566
aS'has'
p567
aS'been'
p568
aS'given'
p569
ag43
aS'mission'
p570
aaa(lp571
g255
a(lp572
S'but'
p573
aS'our'
p574
aS'mission'
p575
aS'is'
p576
aS'not'
p577
aS'for'
p578
aS'us'
p579
aS'to'
p580
aS'go'
p581
aS'and'
p582
aS'decide'
p583
aS'what'
p584
aS'were'
p585
aS'gonna'
p586
aS'do'
p587
aaa(lp588
g255
a(lp589
S'our'
p590
aS'mission'
p591
aS'is'
p592
aS'to'
p593
aS'participate'
p594
aS'in'
p595
aaa(lp596
g255
a(lp597
S'an'
p598
aS'to'
p599
aS'carry'
p600
aS'out'
p601
aS'Gods'
p602
aS'mission'
p603
aaa(lp604
g255
a(lp605
S'Because'
p606
aS'you'
p607
aS'see'
p608
aS'God'
p609
aaa(lp610
g255
a(lp611
S'is'
p612
aS'on'
p613
ag43
aS'mission'
p614
aaa(lp615
g255
a(lp616
S'Gods'
p617
aS'mission'
p618
aS'is'
p619
aS'to'
p620
aS'build'
p621
aS'His'
p622
aS'Kingdom'
p623
aaa(lp624
g255
a(lp625
S'MRC'
p626
aS'To'
p627
aS'build'
p628
aS'the'
p629
aS'Kingdom'
p630
aS'of'
p631
aS'God'
p632
aS'MRC'
p633
aaa(lp634
g255
a(lp635
S'relationship'
p636
aaa(lp637
g255
a(lp638
S'with'
p639
aS'him'
p640
aaa(lp641
g255
a(lp642
S'Through'
p643
aS'faith'
p644
aaa(lp645
g255
a(lp646
S'in'
p647
aS'His'
p648
aS'Son'
p649
aaa(lp650
g255
a(lp651
S'Jesus'
p652
aS'Christ'
p653
aaa(lp654
g255
a(lp655
S'You'
p656
aS'know'
p657
aS'what'
p658
aaa(lp659
g255
a(lp660
S'if'
p661
aS'our'
p662
aS'vision'
p663
aaa(lp664
g255
a(lp665
S'does'
p666
aS'not'
p667
aS'include'
p668
aS'reaching'
p669
aS'lost'
p670
aS'people'
p671
aaa(lp672
g255
a(lp673
S'and'
p674
aS'caring'
p675
aS'for'
p676
aS'lost'
p677
aS'people'
p678
aaa(lp679
g255
a(lp680
S'then'
p681
aS'its'
p682
aS'not'
p683
aS'Gods'
p684
aS'vision'
p685
aaa(lp686
g255
a(lp687
S'Because'
p688
aS'the'
p689
aS'Bible'
p690
aS'is'
p691
aS'very'
p692
aS'clear'
p693
aaa(lp694
g255
a(lp695
S'that'
p696
aS'God'
p697
aS'cares'
p698
aS'about'
p699
aS'lost'
p700
aS'people'
p701
aaa(lp702
S'AUD'
p703
a(lp704
S'Yes'
p705
aaa(lp706
S'DANNY'
p707
a(lp708
S'God'
p709
aS'loves'
p710
aS'people'
p711
aS'who'
p712
aS'dont'
p713
aS'have'
p714
aS'it'
p715
aS'all'
p716
aS'together'
p717
aaa(lp718
S'AUD'
p719
a(lp720
S'Yes'
p721
aaa(lp722
S'DANNY'
p723
a(lp724
S'God'
p725
aS'loves'
p726
aS'people'
p727
aS'who'
p728
aS'are'
p729
aS'hurting'
p730
aaa(lp731
S'AUD'
p732
a(lp733
S'Yes'
p734
aaa(lp735
S'DANNY'
p736
a(lp737
S'God'
p738
aS'loves'
p739
aS'people'
p740
aS'who'
p741
aS'are'
p742
aS'suffering'
p743
aaa(lp744
g736
a(lp745
S'Who'
p746
aS'are'
p747
aS'seeking'
p748
aaa(lp749
g736
a(lp750
S'And'
p751
aS'if'
p752
aS'our'
p753
aS'vision'
p754
aaa(lp755
g736
a(lp756
S'as'
p757
aS'Uptown'
p758
aS'Baptist'
p759
aS'Church'
p760
aaa(lp761
g736
a(lp762
S'doesnt'
p763
aS'include'
p764
aaa(lp765
g736
a(lp766
S'In'
p767
aS'fact'
p768
aaa(lp769
g736
a(lp770
S'if'
p771
aS'our'
p772
aS'vision'
p773
aS'as'
p774
aS'individual'
p775
aS'Christians'
p776
aaa(lp777
g736
a(lp778
S'with'
p779
ag43
aS'relationship'
p780
aS'with'
p781
aS'Christ'
p782
aaa(lp783
g736
a(lp784
S'does'
p785
aS'not'
p786
aS'include'
p787
aaa(lp788
g736
a(lp789
S'reaching'
p790
aS'out'
p791
aaa(lp792
g736
a(lp793
S'and'
p794
aS'touching'
p795
aaa(lp796
g736
a(lp797
S'the'
p798
aS'lives'
p799
aS'of'
p800
aS'lost'
p801
aS'hurting'
p802
aS'dying'
p803
aS'people'
p804
aaa(lp805
g736
a(lp806
S'MRC'
p807
aS'its'
p808
aS'not'
p809
ag43
aS'vision'
p810
aS'from'
p811
aS'God'
p812
aS'MRC'
p813
aaa(lp814
g736
a(lp815
S'Because'
p816
aS'Gods'
p817
aS'plan'
p818
aaa(lp819
g736
a(lp820
S'is'
p821
aaa(lp822
g736
a(lp823
S'and'
p824
aS'has'
p825
aS'always'
p826
aS'been'
p827
aaa(lp828
g736
a(lp829
S'to'
p830
aS'use'
p831
aS'his'
p832
aS'people'
p833
aaa(lp834
g736
a(lp835
S'to'
p836
aS'carry'
p837
aS'out'
p838
aS'His'
p839
aS'mission'
p840
aaa(lp841
g736
a(lp842
S'And'
p843
aS'were'
p844
aS'gonna'
p845
aS'see'
p846
aS'that'
p847
aaa(lp848
g736
a(lp849
S'as'
p850
aS'we'
p851
aS'look'
p852
aS'at'
p853
aS'Moses'
p854
aaa(lp855
g736
a(lp856
S'Beginning'
p857
aS'in'
p858
aS'the'
p859
aS'first'
p860
aS'chapter'
p861
aS'of'
p862
aS'Moses'
p863
aaa(lp864
g736
a(lp865
S'Im'
p866
aS'not'
p867
aS'gonna'
p868
aS'read'
p869
aaa(lp870
g736
a(lp871
g36
aS'am'
p872
aS'gonna'
p873
aS'read'
p874
aS'some'
p875
aS'of'
p876
aS'it'
p877
aaa(lp878
g736
a(lp879
S'but'
p880
aS'Im'
p881
aS'not'
p882
aS'gonna'
p883
aS'read'
p884
aS'all'
p885
aS'the'
p886
aS'way'
p887
aS'through'
p888
aaa(lp889
g736
a(lp890
S'because'
p891
aS'were'
p892
aS'gonna'
p893
aS'try'
p894
aS'to'
p895
aaa(lp896
g736
a(lp897
S'breeze'
p898
aS'through'
p899
aS'the'
p900
aS'first'
p901
aS'four'
p902
aS'chapters'
p903
aaa(lp904
g736
a(lp905
S'Lets'
p906
aS'look'
p907
aS'how'
p908
aS'God'
p909
aS'was'
p910
aS'involved'
p911
aS'in'
p912
aS'Moses'
p913
aaa(lp914
g736
a(lp915
S'Or'
p916
aS'how'
p917
aS'God'
p918
aS'involved'
p919
aS'Moses'
p920
aS'in'
p921
aS'His'
p922
aS'mission'
p923
aaa(lp924
g736
a(lp925
S'Gary'
p926
aaa(lp927
g736
a(lp928
S'one'
p929
aS'of'
p930
aS'the'
p931
aS'things'
p932
ag36
aS'want'
p933
aS'us'
p934
aS'to'
p935
aS'do'
p936
aaa(lp937
g736
a(lp938
S'uh'
p939
aaa(lp940
g736
a(lp941
S'on'
p942
aS'building'
p943
aS'beautiful'
p944
aS'day'
p945
aaa(lp946
g736
a(lp947
S'is'
p948
aS'build'
p949
ag43
aS'taller'
p950
aS'podium'
p951
aaa(lp952
S'MANY'
p953
a(lp954
aa(lp955
S'DANNY'
p956
a(lp957
S'Write'
p958
aS'that'
p959
aS'on'
p960
aS'one'
p961
aS'of'
p962
aS'those'
p963
aS'sheets'
p964
aS'of'
p965
aS'paper'
p966
aS'back'
p967
aS'there'
p968
aaa(lp969
g956
a(lp970
S'We'
p971
aaa(lp972
g956
a(lp973
S'we'
p974
aS'need'
p975
aS'it'
p976
aS'about'
p977
aS'right'
p978
aS'here'
p979
aaa(lp980
S'MANY'
p981
a(lp982
aa(lp983
S'DANNY'
p984
a(lp985
S'Oops'
p986
aaa(lp987
g984
a(lp988
S'Okay'
p989
aaa(lp990
g984
a(lp991
S'First'
p992
aS'thing'
p993
aS'were'
p994
aS'gonna'
p995
aS'see'
p996
aaa(lp997
g984
a(lp998
S'is'
p999
aS'that'
p1000
aS'MRC'
p1001
aS'God'
p1002
aS'prepares'
p1003
aS'His'
p1004
aS'servants'
p1005
aS'for'
p1006
aS'mission'
p1007
aaa(lp1008
g984
a(lp1009
S'God'
p1010
aS'prepares'
p1011
aS'his'
p1012
aS'servants'
p1013
aS'for'
p1014
aS'mission'
p1015
aS'MRC'
p1016
aaa(lp1017
g984
a(lp1018
S'As'
p1019
aS'we'
p1020
aS'read'
p1021
aS'in'
p1022
aaa(lp1023
g984
a(lp1024
S'actually'
p1025
aS'as'
p1026
aS'we'
p1027
aS'get'
p1028
aS'to'
p1029
aS'the'
p1030
aS'second'
p1031
aS'chapter'
p1032
aaa(lp1033
g984
a(lp1034
S'well'
p1035
aS'see'
p1036
aS'that'
p1037
aaa(lp1038
g984
a(lp1039
S'Uh'
p1040
aaa(lp1041
g984
a(lp1042
S'Moses'
p1043
aS'was'
p1044
aS'not'
p1045
aS'only'
p1046
aS'preserved'
p1047
aaa(lp1048
g984
a(lp1049
S'but'
p1050
aS'he'
p1051
aS'was'
p1052
aS'prepared'
p1053
aaa(lp1054
g984
a(lp1055
S'Uh'
p1056
aS'for'
p1057
aS'his'
p1058
aS'part'
p1059
aS'in'
p1060
aS'Gods'
p1061
aS'mission'
p1062
aaa(lp1063
g984
a(lp1064
S'We'
p1065
aS'have'
p1066
aS'to'
p1067
aS'go'
p1068
aS'to'
p1069
aS'chapter'
p1070
aS'one'
p1071
aS'to'
p1072
aS'get'
p1073
ag43
aS'little'
p1074
aS'background'
p1075
aaa(lp1076
g984
a(lp1077
S'Read'
p1078
aS'with'
p1079
aS'me'
p1080
aS'in'
p1081
aS'verse'
p1082
aS'six'
p1083
aS'of'
p1084
aS'chapter'
p1085
aS'one'
p1086
aaa(lp1087
g984
a(lp1088
S'READ'
p1089
aS'Now'
p1090
aS'Joseph'
p1091
aS'and'
p1092
aS'all'
p1093
aS'his'
p1094
aS'brothers'
p1095
aaa(lp1096
g984
a(lp1097
S'and'
p1098
aS'all'
p1099
aS'that'
p1100
aS'generation'
p1101
aS'died'
p1102
aaa(lp1103
g984
a(lp1104
S'But'
p1105
aS'the'
p1106
aS'Israelites'
p1107
aS'were'
p1108
aS'fruitful'
p1109
aaa(lp1110
g984
a(lp1111
S'and'
p1112
aS'multiplied'
p1113
aS'greatly'
p1114
aaa(lp1115
g984
a(lp1116
S'and'
p1117
aS'became'
p1118
aS'exceedingly'
p1119
aS'numerous'
p1120
aaa(lp1121
g984
a(lp1122
S'so'
p1123
aS'that'
p1124
aS'the'
p1125
aS'land'
p1126
aS'was'
p1127
aS'filled'
p1128
aS'with'
p1129
aS'them'
p1130
aaa(lp1131
g984
a(lp1132
S'Then'
p1133
ag43
aS'new'
p1134
aS'king'
p1135
aaa(lp1136
g984
a(lp1137
S'who'
p1138
aS'did'
p1139
aS'not'
p1140
aS'know'
p1141
aS'about'
p1142
aS'Joseph'
p1143
aaa(lp1144
g984
a(lp1145
S'came'
p1146
aS'to'
p1147
aS'power'
p1148
aS'in'
p1149
aS'Egypt'
p1150
aaa(lp1151
g984
a(lp1152
S'Look'
p1153
aaa(lp1154
g984
a(lp1155
S'he'
p1156
aS'said'
p1157
aS'to'
p1158
aS'his'
p1159
aS'people'
p1160
aaa(lp1161
g984
a(lp1162
S'the'
p1163
aS'Israelites'
p1164
aS'have'
p1165
aS'become'
p1166
aS'much'
p1167
aS'too'
p1168
aS'numerous'
p1169
aS'for'
p1170
aS'us'
p1171
aaa(lp1172
g984
a(lp1173
S'Come'
p1174
aaa(lp1175
g984
a(lp1176
S'we'
p1177
aS'must'
p1178
aS'deal'
p1179
aS'shrewdly'
p1180
aS'with'
p1181
aS'them'
p1182
aaa(lp1183
g984
a(lp1184
S'for'
p1185
aaa(lp1186
g984
a(lp1187
S'or'
p1188
aS'they'
p1189
aS'will'
p1190
aS'become'
p1191
aS'even'
p1192
aS'more'
p1193
aS'numerous'
p1194
aaa(lp1195
g984
a(lp1196
S'and'
p1197
aS'if'
p1198
aS'war'
p1199
aS'breaks'
p1200
aS'out'
p1201
aaa(lp1202
g984
a(lp1203
S'will'
p1204
aS'join'
p1205
aS'our'
p1206
aS'enemies'
p1207
aaa(lp1208
g984
a(lp1209
S'fight'
p1210
aS'against'
p1211
aS'us'
p1212
aaa(lp1213
g984
a(lp1214
S'and'
p1215
aS'leave'
p1216
aS'the'
p1217
aS'country'
p1218
aaa(lp1219
g984
a(lp1220
S'So'
p1221
aS'they'
p1222
aS'put'
p1223
aS'the'
p1224
aS'slave'
p1225
aS'masters'
p1226
aS'over'
p1227
aS'them'
p1228
aaa(lp1229
g984
a(lp1230
S'to'
p1231
aS'oppress'
p1232
aS'them'
p1233
aS'and'
p1234
aS'f'
p1235
aaa(lp1236
g984
a(lp1237
S'with'
p1238
aS'forced'
p1239
aS'labor'
p1240
aaa(lp1241
g984
a(lp1242
S'And'
p1243
aS'they'
p1244
aS'built'
p1245
aS'Python'
p1246
aaa(lp1247
g984
a(lp1248
S'and'
p1249
aS'Ramses'
p1250
aaa(lp1251
g984
a(lp1252
S'As'
p1253
aS'store'
p1254
aS'cities'
p1255
aaa(lp1256
g984
a(lp1257
S'For'
p1258
aS'Pharaoh'
p1259
aaa(lp1260
g984
a(lp1261
S'But'
p1262
aS'the'
p1263
aS'more'
p1264
aS'they'
p1265
aS'were'
p1266
aS'oppressed'
p1267
aaa(lp1268
g984
a(lp1269
S'the'
p1270
aS'more'
p1271
aS'they'
p1272
aS'multiplied'
p1273
aS'and'
p1274
aS'spread'
p1275
aaa(lp1276
g984
a(lp1277
S'So'
p1278
aS'the'
p1279
aS'Egyptians'
p1280
aS'came'
p1281
aS'to'
p1282
aS'dread'
p1283
aS'the'
p1284
aS'Israelites'
p1285
aaa(lp1286
g984
a(lp1287
S'And'
p1288
aS'worked'
p1289
aS'them'
p1290
aS'ruthlessly'
p1291
aaa(lp1292
g984
a(lp1293
S'They'
p1294
aS'made'
p1295
aS'their'
p1296
aS'lives'
p1297
aS'bitter'
p1298
aaa(lp1299
g984
a(lp1300
S'with'
p1301
aS'hard'
p1302
aS'labor'
p1303
aS'in'
p1304
aS'brick'
p1305
aS'and'
p1306
aS'mortar'
p1307
aaa(lp1308
g984
a(lp1309
S'And'
p1310
aS'with'
p1311
aS'all'
p1312
aS'kinds'
p1313
aS'of'
p1314
aS'work'
p1315
aS'in'
p1316
aS'the'
p1317
aS'fields'
p1318
aaa(lp1319
g984
a(lp1320
S'In'
p1321
aS'all'
p1322
aS'their'
p1323
aS'hard'
p1324
aS'labor'
p1325
aaa(lp1326
g984
a(lp1327
S'the'
p1328
aS'Egyptians'
p1329
aS'used'
p1330
aS'them'
p1331
aaa(lp1332
g984
a(lp1333
S'ruthlessly'
p1334
aS'READ'
p1335
aaa(lp1336
g984
a(lp1337
S'The'
p1338
aS'king'
p1339
aaa(lp1340
g984
a(lp1341
S'or'
p1342
aS'the'
p1343
aS'Pharaoh'
p1344
aaa(lp1345
g984
a(lp1346
S'was'
p1347
ag43
aS'little'
p1348
aS'upset'
p1349
aaa(lp1350
g984
a(lp1351
S'Because'
p1352
aaa(lp1353
g984
a(lp1354
S'the'
p1355
aS'Israelites'
p1356
aaa(lp1357
g984
a(lp1358
S'who'
p1359
aS'were'
p1360
aS'their'
p1361
aS'slaves'
p1362
aaa(lp1363
g984
a(lp1364
S'who'
p1365
aS'were'
p1366
aS'their'
p1367
aS'servants'
p1368
aaa(lp1369
g984
a(lp1370
S'As'
p1371
aS'they'
p1372
aS'took'
p1373
ag43
aS'census'
p1374
aaa(lp1375
g984
a(lp1376
S'they'
p1377
aS'realized'
p1378
aaa(lp1379
g984
a(lp1380
S'that'
p1381
aS'the'
p1382
aS'Israelites'
p1383
aS'numbers'
p1384
aaa(lp1385
g984
a(lp1386
S'were'
p1387
aS'catching'
p1388
aS'up'
p1389
aaa(lp1390
g984
a(lp1391
S'With'
p1392
aS'their'
p1393
aS'own'
p1394
aaa(lp1395
g984
a(lp1396
S'Of'
p1397
aS'the'
p1398
aS'Egyptians'
p1399
aaa(lp1400
g984
a(lp1401
S'And'
p1402
aS'this'
p1403
aS'was'
p1404
aS'upsetting'
p1405
aaa(lp1406
g984
a(lp1407
S'because'
p1408
aS'he'
p1409
aS'saw'
p1410
aS'this'
p1411
aS'as'
p1412
ag43
aS'national'
p1413
aS'threat'
p1414
aaa(lp1415
g984
a(lp1416
S'From'
p1417
aS'his'
p1418
aS'perspective'
p1419
aaa(lp1420
g984
a(lp1421
S'they'
p1422
aS'w'
p1423
aaa(lp1424
g984
a(lp1425
S'they'
p1426
aS'r'
p1427
aaa(lp1428
g984
a(lp1429
S'you'
p1430
aS'know'
p1431
aaa(lp1432
g984
a(lp1433
S'he'
p1434
aS'just'
p1435
aS'knew'
p1436
aS'that'
p1437
aS'they'
p1438
aS'were'
p1439
aS'gonna'
p1440
aS'grow'
p1441
aS'to'
p1442
ag43
aS'number'
p1443
aaa(lp1444
g984
a(lp1445
S'and'
p1446
aS'they'
p1447
aS'were'
p1448
aS'gonna'
p1449
aS'outnumber'
p1450
aS'the'
p1451
aS'Egyptians'
p1452
aaa(lp1453
g984
a(lp1454
S'and'
p1455
aS'then'
p1456
aS'they'
p1457
aS'were'
p1458
aS'just'
p1459
aS'gonna'
p1460
aS'take'
p1461
aS'over'
p1462
aaa(lp1463
g984
a(lp1464
S'You'
p1465
aS'know'
p1466
aaa(lp1467
g984
a(lp1468
S'if'
p1469
aS'any'
p1470
aS'other'
p1471
aS'countries'
p1472
aS'decided'
p1473
aS'to'
p1474
aS'attack'
p1475
aaa(lp1476
g984
a(lp1477
S'Uh'
p1478
aaa(lp1479
g984
a(lp1480
S'and'
p1481
aaa(lp1482
g984
a(lp1483
S'to'
p1484
aS'to'
p1485
aS'battle'
p1486
aaa(lp1487
g984
a(lp1488
S'uh'
p1489
aaa(lp1490
g984
a(lp1491
S'the'
p1492
aS'Egyptians'
p1493
aaa(lp1494
g984
a(lp1495
S'that'
p1496
aS'he'
p1497
aS'just'
p1498
aS'knew'
p1499
aS'that'
p1500
aS'the'
p1501
aS'Israelites'
p1502
aS'were'
p1503
aS'gonna'
p1504
aS'join'
p1505
aS'them'
p1506
aaa(lp1507
g984
a(lp1508
S'and'
p1509
aS'were'
p1510
aS'gonna'
p1511
aS'overthrow'
p1512
aS'from'
p1513
aS'the'
p1514
aS'inside'
p1515
aaa(lp1516
g984
a(lp1517
S'So'
p1518
aS'the'
p1519
aS'next'
p1520
aS'part'
p1521
aS'of'
p1522
aS'the'
p1523
aS'chapter'
p1524
aaa(lp1525
g984
a(lp1526
S'he'
p1527
aS'begins'
p1528
aS'to'
p1529
aaa(lp1530
g984
a(lp1531
S'you'
p1532
aS'know'
p1533
aaa(lp1534
g984
a(lp1535
S'first'
p1536
aS'of'
p1537
aS'all'
p1538
aS'he'
p1539
aS'b'
p1540
aaa(lp1541
g984
a(lp1542
S'he'
p1543
aS'works'
p1544
aS'the'
p1545
aS'men'
p1546
aS'very'
p1547
aS'hard'
p1548
aaa(lp1549
g984
a(lp1550
S'He'
p1551
aS'said'
p1552
aS'man'
p1553
aS'if'
p1554
ag36
aS'work'
p1555
aS'these'
p1556
aS'guys'
p1557
aS'hard'
p1558
aaa(lp1559
g984
a(lp1560
S'there'
p1561
aS'not'
p1562
aS'gonna'
p1563
aS'be'
p1564
aS'going'
p1565
aS'home'
p1566
aS'to'
p1567
aS'their'
p1568
aS'wives'
p1569
aaa(lp1570
g984
a(lp1571
S'and'
p1572
aS'there'
p1573
aS'not'
p1574
aS'gonna'
p1575
aS'be'
p1576
aaa(lp1577
g984
a(lp1578
S'uh'
p1579
aaa(lp1580
g984
a(lp1581
S'having'
p1582
aS'babies'
p1583
aaa(lp1584
S'AUD'
p1585
a(lp1586
aa(lp1587
S'DANNY'
p1588
a(lp1589
S'You'
p1590
aS'know'
p1591
aaa(lp1592
g1588
a(lp1593
g36
aS'guess'
p1594
aS'that'
p1595
aS'was'
p1596
aS'part'
p1597
aS'of'
p1598
aS'his'
p1599
aS'plan'
p1600
aaa(lp1601
g1588
a(lp1602
S'Thats'
p1603
aS'his'
p1604
aS'first'
p1605
aS'strategy'
p1606
aaa(lp1607
S'AUD'
p1608
a(lp1609
aa(lp1610
S'DANNY'
p1611
a(lp1612
S'so'
p1613
aS'lets'
p1614
aS'make'
p1615
aS'it'
p1616
aS'hard'
p1617
aS'for'
p1618
aS'them'
p1619
aaa(lp1620
g1611
a(lp1621
S'Lets'
p1622
aS'really'
p1623
aS'work'
p1624
aaa(lp1625
g1611
a(lp1626
S'work'
p1627
aS'em'
p1628
aaa(lp1629
S'AUD'
p1630
a(lp1631
aa(lp1632
S'DANNY'
p1633
a(lp1634
S'so'
p1635
aS'that'
p1636
aS'theyre'
p1637
aS'too'
p1638
aS'tired'
p1639
aS'to'
p1640
aS'go'
p1641
aS'home'
p1642
aaa(lp1643
g1633
a(lp1644
S'and'
p1645
aaa(lp1646
g1633
a(lp1647
S'and'
p1648
aS'uh'
p1649
aaa(lp1650
S'AUD'
p1651
a(lp1652
aa(lp1653
S'DANNY'
p1654
a(lp1655
S'procreate'
p1656
aaa(lp1657
S'MANY'
p1658
a(lp1659
aa(lp1660
S'DANNY'
p1661
a(lp1662
S'Well'
p1663
aS'use'
p1664
aS'that'
p1665
aS'word'
p1666
aaa(lp1667
g1661
a(lp1668
S'But'
p1669
aS'that'
p1670
aS'didnt'
p1671
aS'work'
p1672
aaa(lp1673
g1661
a(lp1674
S'Cause'
p1675
aS'they'
p1676
aS'st'
p1677
aaa(lp1678
g1661
a(lp1679
S'They'
p1680
aS'continued'
p1681
aS'to'
p1682
aaa(lp1683
S'MANY'
p1684
a(lp1685
aa(lp1686
S'DANNY'
p1687
a(lp1688
S'They'
p1689
aS'Continued'
p1690
aaa(lp1691
g1687
a(lp1692
S'They'
p1693
aS'continued'
p1694
aS'to'
p1695
aS'd'
p1696
aaa(lp1697
g1687
a(lp1698
S'to'
p1699
aS'uh'
p1700
aaa(lp1701
g1687
a(lp1702
S'have'
p1703
aS'babies'
p1704
aaa(lp1705
g1687
a(lp1706
S'And'
p1707
aS'they'
p1708
aS'continued'
p1709
aS'to'
p1710
aS'multiply'
p1711
aaa(lp1712
S'AUD'
p1713
a(lp1714
aa(lp1715
S'DANNY'
p1716
a(lp1717
S'So'
p1718
aS'he'
p1719
aS'g'
p1720
aS'devises'
p1721
aS'another'
p1722
aS'plan'
p1723
aaa(lp1724
g1716
a(lp1725
S'He'
p1726
aS'goes'
p1727
aS'to'
p1728
aS'the'
p1729
aS'midwives'
p1730
aaa(lp1731
g1716
a(lp1732
S'You'
p1733
aS'know'
p1734
aS'the'
p1735
aS'Israelites'
p1736
aS'had'
p1737
aS'midwives'
p1738
aaa(lp1739
g1716
a(lp1740
S'They'
p1741
aS'didnt'
p1742
aS'have'
p1743
aS'doctors'
p1744
aaa(lp1745
g1716
a(lp1746
S'but'
p1747
aS'they'
p1748
aS'had'
p1749
aaa(lp1750
g1716
a(lp1751
S'uh'
p1752
aaa(lp1753
g1716
a(lp1754
S'women'
p1755
aaa(lp1756
g1716
a(lp1757
S'who'
p1758
aS'when'
p1759
ag43
aaa(lp1760
g1716
a(lp1761
S'when'
p1762
aS'one'
p1763
aS'of'
p1764
aS'the'
p1765
aS'Israelite'
p1766
aS'women'
p1767
aS'were'
p1768
aS'gonna'
p1769
aS'have'
p1770
ag43
aS'baby'
p1771
aaa(lp1772
g1716
a(lp1773
S'then'
p1774
aS'these'
p1775
aS'midwives'
p1776
aS'just'
p1777
aS'come'
p1778
aS'in'
p1779
aaa(lp1780
g1716
a(lp1781
S'and'
p1782
aS'help'
p1783
aS'in'
p1784
aS'the'
p1785
aS'labor'
p1786
aS'process'
p1787
aaa(lp1788
g1716
a(lp1789
S'Or'
p1790
aS'in'
p1791
aS'the'
p1792
aS'birthing'
p1793
aS'process'
p1794
aaa(lp1795
g1716
a(lp1796
S'And'
p1797
aS'so'
p1798
aS'he'
p1799
aS'goes'
p1800
aS'to'
p1801
aS'the'
p1802
aS'midwives'
p1803
aS'and'
p1804
aS'says'
p1805
aaa(lp1806
g1716
a(lp1807
S'listen'
p1808
aaa(lp1809
g1716
a(lp1810
S'Heres'
p1811
aS'what'
p1812
ag36
aS'want'
p1813
aS'you'
p1814
aS'to'
p1815
aS'do'
p1816
aaa(lp1817
g1716
a(lp1818
S'you'
p1819
aS'go'
p1820
aaa(lp1821
g1716
a(lp1822
S'and'
p1823
aS'you'
p1824
aS'go'
p1825
aS'ahead'
p1826
aaa(lp1827
g1716
a(lp1828
S'and'
p1829
aS'you'
p1830
aS'do'
p1831
aS'your'
p1832
aS'part'
p1833
aaa(lp1834
g1716
a(lp1835
S'and'
p1836
aS'you'
p1837
aS'help'
p1838
aS'these'
p1839
aS'these'
p1840
aS'mothers'
p1841
aaa(lp1842
g1716
a(lp1843
S'but'
p1844
aS'if'
p1845
aS'they'
p1846
aS'have'
p1847
ag43
aS'boy'
p1848
aaa(lp1849
g1716
a(lp1850
g36
aS'want'
p1851
aS'you'
p1852
aS'to'
p1853
aS'make'
p1854
aS'sure'
p1855
aS'that'
p1856
aaa(lp1857
g1716
a(lp1858
S'that'
p1859
aS'boy'
p1860
aS'dies'
p1861
aaa(lp1862
g1716
a(lp1863
S'If'
p1864
aS'its'
p1865
ag43
aS'girl'
p1866
aaa(lp1867
g1716
a(lp1868
S'you'
p1869
aS'go'
p1870
aS'ahead'
p1871
aS'and'
p1872
aS'let'
p1873
aS'it'
p1874
aS'live'
p1875
aaa(lp1876
g1716
a(lp1877
S'And'
p1878
aS'that'
p1879
aS'was'
p1880
aS'his'
p1881
aS'plan'
p1882
aaa(lp1883
g1716
a(lp1884
S'Well'
p1885
aS'the'
p1886
aS'midwives'
p1887
aaa(lp1888
g1716
a(lp1889
S'you'
p1890
aS'know'
p1891
aaa(lp1892
g1716
a(lp1893
S'what'
p1894
aS'could'
p1895
aS'they'
p1896
aS'say'
p1897
aaa(lp1898
g1716
a(lp1899
S'this'
p1900
aS'is'
p1901
aS'the'
p1902
aS'the'
p1903
aS'Pharaoh'
p1904
aaa(lp1905
g1716
a(lp1906
S'so'
p1907
aS'they'
p1908
aS'agreed'
p1909
aS'to'
p1910
aS'it'
p1911
aaa(lp1912
g1716
a(lp1913
S'but'
p1914
aS'then'
p1915
aS'they'
p1916
aS'didnt'
p1917
aS'do'
p1918
aS'it'
p1919
aaa(lp1920
g1716
a(lp1921
S'Because'
p1922
aS'they'
p1923
aS'feared'
p1924
aS'God'
p1925
aaa(lp1926
g1716
a(lp1927
S'more'
p1928
aS'than'
p1929
aS'they'
p1930
aS'did'
p1931
aS'Pharaoh'
p1932
aaa(lp1933
g1716
a(lp1934
S'And'
p1935
aS'when'
p1936
aS'uh'
p1937
aS'he'
p1938
aS'calls'
p1939
aS'em'
p1940
aaa(lp1941
g1716
a(lp1942
S'he'
p1943
aS'says'
p1944
aS'whats'
p1945
aS'going'
p1946
aS'on'
p1947
aaa(lp1948
g1716
a(lp1949
S'Theyre'
p1950
aS'still'
p1951
aS'multiplying'
p1952
aaa(lp1953
g1716
a(lp1954
S'Theres'
p1955
aS'still'
p1956
aS'boys'
p1957
aS'being'
p1958
aS'born'
p1959
aS'here'
p1960
aaa(lp1961
S'AUD'
p1962
a(lp1963
aa(lp1964
S'DANNY'
p1965
a(lp1966
S'what'
p1967
aS'is'
p1968
aS'going'
p1969
aS'on'
p1970
aaa(lp1971
g1965
a(lp1972
S'The'
p1973
aS'midwives'
p1974
aS'said'
p1975
aaa(lp1976
g1965
a(lp1977
S'well'
p1978
aS'these'
p1979
aaa(lp1980
g1965
a(lp1981
S'these'
p1982
aS'mothers'
p1983
aaa(lp1984
g1965
a(lp1985
S'theyre'
p1986
aS'having'
p1987
aS'the'
p1988
aS'babies'
p1989
aS'without'
p1990
aS'us'
p1991
aaa(lp1992
g1965
a(lp1993
S'You'
p1994
aS'know'
p1995
aaa(lp1996
g1965
a(lp1997
S'theyre'
p1998
aS'not'
p1999
aS'telling'
p2000
aS'us'
p2001
aaa(lp2002
g1965
a(lp2003
S'And'
p2004
aS'theyre'
p2005
aS'just'
p2006
aS'going'
p2007
aS'ahead'
p2008
aS'and'
p2009
aS'having'
p2010
aS'em'
p2011
aaa(lp2012
g1965
a(lp2013
S'Theyre'
p2014
aS's'
p2015
aaa(lp2016
g1965
a(lp2017
S'sturdy'
p2018
aS'women'
p2019
aaa(lp2020
S'MANY'
p2021
a(lp2022
aa(lp2023
S'DANNY'
p2024
a(lp2025
S'It'
p2026
aS'says'
p2027
aaa(lp2028
g2024
a(lp2029
S'they'
p2030
aS'dont'
p2031
aS'need'
p2032
aS'us'
p2033
aaa(lp2034
g2024
a(lp2035
S'And'
p2036
aS'so'
p2037
aS'Pharaoh'
p2038
aS'comes'
p2039
aS'up'
p2040
aS'with'
p2041
aS'another'
p2042
aS'plan'
p2043
aaa(lp2044
g2024
a(lp2045
S'It'
p2046
aS'ends'
p2047
aS'up'
p2048
aS'in'
p2049
aS'the'
p2050
aS'final'
p2051
aS'verse'
p2052
aS'of'
p2053
aS'this'
p2054
aS'chapter'
p2055
aaa(lp2056
g2024
a(lp2057
S'Verse'
p2058
aS'twentytwo'
p2059
aaa(lp2060
g2024
a(lp2061
S'READ'
p2062
aS'Then'
p2063
aS'Pharaoh'
p2064
aS'gave'
p2065
aS'this'
p2066
aS'order'
p2067
aaa(lp2068
g2024
a(lp2069
S'to'
p2070
aS'all'
p2071
aS'his'
p2072
aS'people'
p2073
aaa(lp2074
g2024
a(lp2075
S'Every'
p2076
aS'boy'
p2077
aS'that'
p2078
aS'is'
p2079
aS'born'
p2080
aaa(lp2081
g2024
a(lp2082
S'must'
p2083
aS'be'
p2084
aaa(lp2085
g2024
a(lp2086
S'you'
p2087
aS'must'
p2088
aS'throw'
p2089
aS'into'
p2090
aS'the'
p2091
aS'Nile'
p2092
aaa(lp2093
g2024
a(lp2094
S'But'
p2095
aS'let'
p2096
aS'every'
p2097
aS'girl'
p2098
aS'live'
p2099
aS'READ'
p2100
aaa(lp2101
g2024
a(lp2102
S'So'
p2103
aS'hes'
p2104
aS'ordering'
p2105
aS'his'
p2106
aS'people'
p2107
aS'to'
p2108
aS'go'
p2109
aaa(lp2110
g2024
a(lp2111
S'And'
p2112
aS'every'
p2113
aS'boy'
p2114
aS'that'
p2115
aS'is'
p2116
aS'born'
p2117
aS'to'
p2118
aS'the'
p2119
aS'Israelites'
p2120
aaa(lp2121
g2024
a(lp2122
S'to'
p2123
aS'to'
p2124
aS'kill'
p2125
aS'em'
p2126
aaa(lp2127
g2024
a(lp2128
S'Throw'
p2129
aS'em'
p2130
aS'in'
p2131
aS'the'
p2132
aS'river'
p2133
aaa(lp2134
g2024
a(lp2135
S'Well'
p2136
aS'Moses'
p2137
aS'was'
p2138
aS'born'
p2139
aS'about'
p2140
aS'this'
p2141
aS'time'
p2142
aaa(lp2143
g2024
a(lp2144
S'And'
p2145
aS'this'
p2146
aS'is'
p2147
aS'how'
p2148
aS'God'
p2149
aS'preserved'
p2150
aS'Moses'
p2151
aaa(lp2152
g2024
a(lp2153
S'Now'
p2154
aS'Mosess'
p2155
aS'mother'
p2156
aS'loved'
p2157
aS'her'
p2158
aS'child'
p2159
aaa(lp2160
g2024
a(lp2161
S'And'
p2162
aS'she'
p2163
aS'didnt'
p2164
aS'want'
p2165
aS'to'
p2166
aS'throw'
p2167
aS'him'
p2168
aS'in'
p2169
aaa(lp2170
g2024
a(lp2171
g36
aS'dont'
p2172
aS'think'
p2173
aS'any'
p2174
aS'of'
p2175
aS'the'
p2176
aS'mothers'
p2177
aS'did'
p2178
aaa(lp2179
g2024
a(lp2180
S'And'
p2181
aS'she'
p2182
aS'wasnt'
p2183
aS'gonna'
p2184
aS'do'
p2185
aS'it'
p2186
aS'herself'
p2187
aaa(lp2188
g2024
a(lp2189
S'and'
p2190
aS'she'
p2191
aS'was'
p2192
aS'one'
p2193
aS'of'
p2194
aS'these'
p2195
aS'that'
p2196
aS'had'
p2197
aS'the'
p2198
aS'baby'
p2199
aaa(lp2200
g2024
a(lp2201
S'without'
p2202
aS'telling'
p2203
aS'anybody'
p2204
aaa(lp2205
g2024
a(lp2206
S'except'
p2207
aS'her'
p2208
aS'immediate'
p2209
aS'family'
p2210
aaa(lp2211
g2024
a(lp2212
S'And'
p2213
aS'Moses'
p2214
aS'already'
p2215
aaa(lp2216
g2024
a(lp2217
S'when'
p2218
aS'he'
p2219
aS'was'
p2220
aS'born'
p2221
aaa(lp2222
g2024
a(lp2223
S'had'
p2224
aS'an'
p2225
aS'older'
p2226
aS'sister'
p2227
aS'and'
p2228
aS'an'
p2229
aS'older'
p2230
aS'brother'
p2231
aaa(lp2232
g2024
a(lp2233
S'And'
p2234
aS'the'
p2235
aS'mother'
p2236
aaa(lp2237
g2024
a(lp2238
S'now'
p2239
aS'when'
p2240
ag36
aS'was'
p2241
aS'growing'
p2242
aS'up'
p2243
aaa(lp2244
g2024
a(lp2245
S'and'
p2246
ag36
aS'heard'
p2247
aS'this'
p2248
aS'story'
p2249
aaa(lp2250
g2024
a(lp2251
g36
aS'just'
p2252
aS'assumed'
p2253
aS'that'
p2254
aS'the'
p2255
aS'mother'
p2256
aaa(lp2257
g2024
a(lp2258
S'was'
p2259
aS'hiding'
p2260
aS'the'
p2261
aS'baby'
p2262
aS'in'
p2263
aS'the'
p2264
aS'reeds'
p2265
aaa(lp2266
g2024
a(lp2267
S'And'
p2268
aS'thats'
p2269
aS'where'
p2270
aS'she'
p2271
aS'was'
p2272
aS'hiding'
p2273
aS'him'
p2274
aaa(lp2275
g2024
a(lp2276
S'But'
p2277
aS'it'
p2278
aS'says'
p2279
aS'for'
p2280
aS'three'
p2281
aS'months'
p2282
aaa(lp2283
g2024
a(lp2284
S'she'
p2285
aS'hid'
p2286
aS'the'
p2287
aS'baby'
p2288
aaa(lp2289
g2024
a(lp2290
S'didnt'
p2291
aS'say'
p2292
aS'anything'
p2293
aS'about'
p2294
aS'the'
p2295
aS'the'
p2296
aaa(lp2297
g2024
a(lp2298
S'in'
p2299
aS'the'
p2300
aS'river'
p2301
aaa(lp2302
g2024
a(lp2303
S'or'
p2304
aS'in'
p2305
aS'the'
p2306
aaa(lp2307
g2024
a(lp2308
S'in'
p2309
aS'the'
p2310
aS'uh'
p2311
aS'basket'
p2312
aaa(lp2313
g2024
a(lp2314
S'Uh'
p2315
aaa(lp2316
g2024
a(lp2317
S'but'
p2318
aS'then'
p2319
aS'when'
p2320
aS'he'
p2321
aS'was'
p2322
aS'three'
p2323
aS'months'
p2324
aS'old'
p2325
aaa(lp2326
g2024
a(lp2327
S'she'
p2328
aS'j'
p2329
aaa(lp2330
g2024
a(lp2331
S'she'
p2332
aS'was'
p2333
aS'assuming'
p2334
aS'that'
p2335
aS'she'
p2336
aS'was'
p2337
aS'gonna'
p2338
aS'get'
p2339
aS'caught'
p2340
aS'pretty'
p2341
aS'soon'
p2342
aaa(lp2343
g2024
a(lp2344
S'and'
p2345
aS'so'
p2346
aS'she'
p2347
aS'devised'
p2348
ag43
aS'plan'
p2349
aaa(lp2350
g2024
a(lp2351
S'And'
p2352
aS'it'
p2353
aS'doesnt'
p2354
aS'say'
p2355
aS'here'
p2356
aS'that'
p2357
aS'she'
p2358
aS'devised'
p2359
ag43
aS'plan'
p2360
aaa(lp2361
g2024
a(lp2362
S'but'
p2363
aaa(lp2364
g2024
a(lp2365
S'believe'
p2366
aS'me'
p2367
aaa(lp2368
g2024
a(lp2369
S'This'
p2370
aS'mother'
p2371
aS'knew'
p2372
aS'what'
p2373
aS'she'
p2374
aS'was'
p2375
aS'doing'
p2376
aaa(lp2377
g2024
a(lp2378
S'She'
p2379
ag1540
aS'she'
p2380
aS'm'
p2381
aS'got'
p2382
ag43
aS'basket'
p2383
aaa(lp2384
g2024
a(lp2385
S'She'
p2386
aS'perhaps'
p2387
aS'made'
p2388
aS'the'
p2389
aS'basket'
p2390
aaa(lp2391
g2024
a(lp2392
S'Probably'
p2393
aS'did'
p2394
aaa(lp2395
g2024
a(lp2396
S'and'
p2397
aS'then'
p2398
aS'she'
p2399
aS'put'
p2400
aaa(lp2401
g2024
a(lp2402
S'what'
p2403
aS'they'
p2404
aS'call'
p2405
aS'pitch'
p2406
aaa(lp2407
g2024
a(lp2408
S'or'
p2409
aS'tar'
p2410
aaa(lp2411
g2024
a(lp2412
S'uh'
p2413
aaa(lp2414
g2024
a(lp2415
S'on'
p2416
aS'it'
p2417
aaa(lp2418
g2024
a(lp2419
S'so'
p2420
aS'that'
p2421
aS'it'
p2422
aS'would'
p2423
aS'float'
p2424
aaa(lp2425
g2024
a(lp2426
S'So'
p2427
aS'that'
p2428
aS'water'
p2429
aS'wouldnt'
p2430
aS'come'
p2431
aS'up'
p2432
aS'through'
p2433
aS'it'
p2434
aaa(lp2435
g2024
a(lp2436
S'And'
p2437
aS'she'
p2438
aS'put'
p2439
ag43
aS'blanket'
p2440
aaa(lp2441
g2024
a(lp2442
S'put'
p2443
aS'the'
p2444
aS'baby'
p2445
aS'in'
p2446
aS'it'
p2447
aaa(lp2448
g2024
a(lp2449
S'wrapped'
p2450
aS'the'
p2451
aS'baby'
p2452
aS'in'
p2453
aS'it'
p2454
aaa(lp2455
g2024
a(lp2456
S'and'
p2457
aS'she'
p2458
aS'told'
p2459
aaa(lp2460
g2024
a(lp2461
S'she'
p2462
aS'brought'
p2463
aS'it'
p2464
aS'down'
p2465
aS'to'
p2466
aS'the'
p2467
aS'river'
p2468
aaa(lp2469
g2024
a(lp2470
S'Now'
p2471
aS'she'
p2472
aS'didnt'
p2473
aS'just'
p2474
aS'go'
p2475
aS'anywhere'
p2476
aS'in'
p2477
aS'the'
p2478
aS'river'
p2479
aaa(lp2480
g2024
a(lp2481
S'She'
p2482
aS'brought'
p2483
aS'it'
p2484
aS'to'
p2485
ag43
aS'specific'
p2486
aS'place'
p2487
aaa(lp2488
g2024
a(lp2489
S'Not'
p2490
aS'just'
p2491
aS'because'
p2492
aS'there'
p2493
aS'were'
p2494
aS'reeds'
p2495
aS'there'
p2496
aaa(lp2497
g2024
a(lp2498
S'but'
p2499
aS'because'
p2500
aaa(lp2501
g2024
a(lp2502
S'the'
p2503
aS'Pharaohs'
p2504
aS'daughter'
p2505
aS'bathed'
p2506
aS'there'
p2507
aaa(lp2508
g2024
a(lp2509
S'And'
p2510
aS'this'
p2511
aS'was'
p2512
ag43
aS'selected'
p2513
aS'place'
p2514
aaa(lp2515
g2024
a(lp2516
S'The'
p2517
aS'mother'
p2518
aS'took'
p2519
aS'the'
p2520
aS'baby'
p2521
aaa(lp2522
g2024
a(lp2523
S'put'
p2524
aS'the'
p2525
aS'baby'
p2526
aaa(lp2527
g2024
a(lp2528
S'put'
p2529
aS'Moses'
p2530
aS'in'
p2531
aS'the'
p2532
aS'water'
p2533
aaa(lp2534
g2024
a(lp2535
S'And'
p2536
aS'told'
p2537
aS'her'
p2538
aS'sister'
p2539
aS'to'
p2540
aS'keep'
p2541
aS'an'
p2542
aS'eye'
p2543
aS'on'
p2544
aS'it'
p2545
aaa(lp2546
g2024
a(lp2547
S'To'
p2548
aS'keep'
p2549
aS'an'
p2550
aS'eye'
p2551
aS'on'
p2552
aS'him'
p2553
aS'so'
p2554
aS'that'
p2555
aaa(lp2556
g2024
a(lp2557
S'nothing'
p2558
aS'bad'
p2559
aS'happened'
p2560
aaa(lp2561
g2024
a(lp2562
S'but'
p2563
aS'also'
p2564
aaa(lp2565
g2024
a(lp2566
S'there'
p2567
aS'was'
p2568
aS'an'
p2569
aS'another'
p2570
aS'motive'
p2571
aaa(lp2572
g2024
a(lp2573
S'that'
p2574
aS'well'
p2575
aS'get'
p2576
aS'to'
p2577
aS'in'
p2578
aS'just'
p2579
ag43
aS'second'
p2580
aaa(lp2581
g2024
a(lp2582
S'So'
p2583
aS'the'
p2584
ag1423
aaa(lp2585
g2024
a(lp2586
S'so'
p2587
aS'Moses'
p2588
aS'was'
p2589
aS'floating'
p2590
aS'along'
p2591
aS'in'
p2592
aS'the'
p2593
aS'water'
p2594
aaa(lp2595
g2024
a(lp2596
S'The'
p2597
aS'Pharaohs'
p2598
aS'daughter'
p2599
aS'came'
p2600
aS'down'
p2601
aS'to'
p2602
aaa(lp2603
g2024
a(lp2604
S'to'
p2605
aS'take'
p2606
aS'her'
p2607
aS'bath'
p2608
aaa(lp2609
g2024
a(lp2610
S'And'
p2611
aS'she'
p2612
aS'sees'
p2613
aS'the'
p2614
aS'basket'
p2615
aaa(lp2616
g2024
a(lp2617
S'And'
p2618
aS'she'
p2619
aS'sends'
p2620
aS'her'
p2621
aS'servant'
p2622
aS'out'
p2623
aS'to'
p2624
aS'get'
p2625
aS'the'
p2626
aS'basket'
p2627
aS'and'
p2628
aS'bring'
p2629
aS'it'
p2630
aS'to'
p2631
aS'her'
p2632
aaa(lp2633
g2024
a(lp2634
S'And'
p2635
aS'she'
p2636
aS'opens'
p2637
aS'it'
p2638
aS'up'
p2639
aaa(lp2640
g2024
a(lp2641
S'theres'
p2642
aS'Moses'
p2643
aaa(lp2644
g2024
a(lp2645
S'and'
p2646
aS'he'
p2647
aS'begins'
p2648
aS'to'
p2649
aS'cry'
p2650
aaa(lp2651
g2024
a(lp2652
S'and'
p2653
aS'Pharaohs'
p2654
aS'daughter'
p2655
aS'felt'
p2656
aS'sorry'
p2657
aS'for'
p2658
aS'Moses'
p2659
aaa(lp2660
g2024
a(lp2661
S'And'
p2662
aS'she'
p2663
aS'just'
p2664
aS'decided'
p2665
aS'to'
p2666
aS'keep'
p2667
aS'him'
p2668
aaa(lp2669
g2024
a(lp2670
S'It'
p2671
aS'said'
p2672
aaa(lp2673
g2024
a(lp2674
S'she'
p2675
aS'realized'
p2676
aS'said'
p2677
aS'this'
p2678
aS'is'
p2679
aS'an'
p2680
aS'Israelite'
p2681
aS'baby'
p2682
aaa(lp2683
g2024
a(lp2684
S'VOX'
p2685
aS'Aw'
p2686
aS'aw'
p2687
aaa(lp2688
g2024
a(lp2689
S'poor'
p2690
aS'thing'
p2691
aS'VOX'
p2692
aaa(lp2693
S'AUD'
p2694
a(lp2695
aa(lp2696
S'DANNY'
p2697
a(lp2698
S'And'
p2699
aS'so'
p2700
aS'she'
p2701
aaa(lp2702
g2697
a(lp2703
S'she'
p2704
aS'decides'
p2705
aS'to'
p2706
aS'keep'
p2707
aS'him'
p2708
aaa(lp2709
g2697
a(lp2710
S'Well'
p2711
aaa(lp2712
g2697
a(lp2713
S'Heres'
p2714
aS'what'
p2715
aS'pha'
p2716
aaa(lp2717
g2697
a(lp2718
S'uh'
p2719
aaa(lp2720
g2697
a(lp2721
S'Mosess'
p2722
aS'sister'
p2723
aS'did'
p2724
aaa(lp2725
g2697
a(lp2726
S'That'
p2727
aS'was'
p2728
aS'her'
p2729
aS'cue'
p2730
aaa(lp2731
g2697
a(lp2732
S'She'
p2733
aS'comes'
p2734
aS'out'
p2735
aS'from'
p2736
aS'hiding'
p2737
aaa(lp2738
g2697
a(lp2739
S'and'
p2740
aS'says'
p2741
aaa(lp2742
g2697
a(lp2743
S'Oh'
p2744
aaa(lp2745
g2697
a(lp2746
S'whatever'
p2747
aS'your'
p2748
aS'name'
p2749
aS'is'
p2750
aaa(lp2751
S'MANY'
p2752
a(lp2753
aa(lp2754
S'DANNY'
p2755
a(lp2756
S'says'
p2757
aaa(lp2758
g2755
a(lp2759
S'oh'
p2760
aaa(lp2761
g2755
a(lp2762
S'mighty'
p2763
aS'princess'
p2764
aaa(lp2765
g2755
a(lp2766
S'Allow'
p2767
aS'me'
p2768
aaa(lp2769
g2755
a(lp2770
S'to'
p2771
aS'get'
p2772
ag43
aS'nurse'
p2773
aS'for'
p2774
aS'the'
p2775
aS'baby'
p2776
aaa(lp2777
g2755
a(lp2778
g36
aS'know'
p2779
aS'of'
p2780
aS'an'
p2781
aS'Israelite'
p2782
aS'nurse'
p2783
aaa(lp2784
g2755
a(lp2785
S'that'
p2786
aS'can'
p2787
aS'take'
p2788
aS'care'
p2789
aS'of'
p2790
aS'this'
p2791
aS'baby'
p2792
aaa(lp2793
g2755
a(lp2794
S'Guess'
p2795
aS'who'
p2796
aaa(lp2797
g2755
a(lp2798
S'SM'
p2799
aS'Her'
p2800
aS'mother'
p2801
aS'SM'
p2802
aaa(lp2803
g2755
a(lp2804
S'So'
p2805
aS'she'
p2806
aS'goes'
p2807
aS'and'
p2808
aS'gets'
p2809
aS'the'
p2810
aS'mother'
p2811
aaa(lp2812
g2755
a(lp2813
S'Now'
p2814
aaa(lp2815
g2755
a(lp2816
S'Why'
p2817
aS'do'
p2818
ag36
aS'think'
p2819
aS'this'
p2820
aS'is'
p2821
aS'something'
p2822
aS'that'
p2823
aS'the'
p2824
aS'mother'
p2825
aS'knew'
p2826
aS'about'
p2827
aaa(lp2828
g2755
a(lp2829
S'Cause'
p2830
aS'it'
p2831
aS'ends'
p2832
aS'up'
p2833
aS'that'
p2834
aaa(lp2835
g2755
a(lp2836
S'the'
p2837
aS'mother'
p2838
aaa(lp2839
g2755
a(lp2840
S'not'
p2841
aS'only'
p2842
aaa(lp2843
g2755
a(lp2844
S'had'
p2845
aS'her'
p2846
aS'child'
p2847
aaa(lp2848
g2755
a(lp2849
S'to'
p2850
aS'stay'
p2851
aS'alive'
p2852
aaa(lp2853
g2755
a(lp2854
S'But'
p2855
aS'she'
p2856
aS'also'
p2857
aaa(lp2858
g2755
a(lp2859
S'got'
p2860
aS'to'
p2861
aS'take'
p2862
aS'care'
p2863
aS'of'
p2864
aS'him'
p2865
aaa(lp2866
g2755
a(lp2867
S'and'
p2868
aS'got'
p2869
aS'paid'
p2870
aS'for'
p2871
aS'it'
p2872
aaa(lp2873
S'MANY'
p2874
a(lp2875
aa(lp2876
S'DANNY'
p2877
a(lp2878
S'So'
p2879
aS'God'
p2880
aS'not'
p2881
aS'only'
p2882
aS'spared'
p2883
aS'his'
p2884
aS'life'
p2885
aaa(lp2886
g2877
a(lp2887
S'but'
p2888
aS'He'
p2889
aS'provided'
p2890
aaa(lp2891
g2877
a(lp2892
S'uh'
p2893
aaa(lp2894
g2877
a(lp2895
S'for'
p2896
aaa(lp2897
g2877
a(lp2898
S'for'
p2899
aS'that'
p2900
aS'whole'
p2901
aS'family'
p2902
aaa(lp2903
g2877
a(lp2904
S'But'
p2905
aS'especially'
p2906
aS'for'
p2907
aS'Moses'
p2908
aaa(lp2909
g2877
a(lp2910
S'So'
p2911
aS'we'
p2912
aS'see'
p2913
aS'how'
p2914
aaa(lp2915
g2877
a(lp2916
S'God'
p2917
aS'preserved'
p2918
aaa(lp2919
g2877
a(lp2920
S'Moses'
p2921
aaa(lp2922
g2877
a(lp2923
S'We'
p2924
aS'also'
p2925
aS'see'
p2926
aS'how'
p2927
aS'God'
p2928
aS'prepared'
p2929
aS'Moses'
p2930
aaa(lp2931
g2877
a(lp2932
S'because'
p2933
aS'in'
p2934
aS'the'
p2935
aaa(lp2936
g2877
a(lp2937
S'Mosess'
p2938
aS'life'
p2939
aS'is'
p2940
aS'kinda'
p2941
aS'divided'
p2942
aS'into'
p2943
aS'three'
p2944
aS'stages'
p2945
aaa(lp2946
g2877
a(lp2947
S'Each'
p2948
aS'being'
p2949
aS'forty'
p2950
aS'years'
p2951
aaa(lp2952
g2877
a(lp2953
S'The'
p2954
aS'first'
p2955
aS'forty'
p2956
aS'years'
p2957
aS'he'
p2958
aS'was'
p2959
aS'in'
p2960
aS'Egypt'
p2961
aaa(lp2962
g2877
a(lp2963
S'The'
p2964
aS'second'
p2965
aS'forty'
p2966
aS'years'
p2967
aS'he'
p2968
aS'was'
p2969
ag43
aS'shepherd'
p2970
aaa(lp2971
g2877
a(lp2972
S'And'
p2973
aS'the'
p2974
aS'third'
p2975
aS'forty'
p2976
aS'years'
p2977
aS'he'
p2978
aS'was'
p2979
aS'leading'
p2980
aS'the'
p2981
aS'people'
p2982
aS'out'
p2983
aS'of'
p2984
aS'Israel'
p2985
aaa(lp2986
g2877
a(lp2987
S'And'
p2988
aS'in'
p2989
aS'this'
p2990
aS'first'
p2991
aS'forty'
p2992
aS'years'
p2993
aaa(lp2994
g2877
a(lp2995
S'Moses'
p2996
aS'got'
p2997
aS'the'
p2998
aS'best'
p2999
aS'training'
p3000
aaa(lp3001
g2877
a(lp3002
S'in'
p3003
aS'the'
p3004
aS'world'
p3005
aS'at'
p3006
aS'that'
p3007
aS'time'
p3008
aaa(lp3009
g2877
a(lp3010
S'His'
p3011
aS'foundational'
p3012
aS'training'
p3013
aS'came'
p3014
aS'from'
p3015
aS'his'
p3016
aS'mother'
p3017
aaa(lp3018
g2877
a(lp3019
S'Cause'
p3020
aS'as'
p3021
aS'the'
p3022
aS'nanny'
p3023
aaa(lp3024
g2877
a(lp3025
S'and'
p3026
aS'thats'
p3027
aS'what'
p3028
aS'she'
p3029
aS'was'
p3030
aS'at'
p3031
aS'that'
p3032
aS'point'
p3033
aaa(lp3034
g2877
a(lp3035
S'even'
p3036
aS'though'
p3037
aS'she'
p3038
aS'was'
p3039
aS'his'
p3040
aS'mother'
p3041
aaa(lp3042
g2877
a(lp3043
S'she'
p3044
aS'was'
p3045
aS'his'
p3046
aS'nanny'
p3047
aaa(lp3048
g2877
a(lp3049
S'She'
p3050
aS'trained'
p3051
aS'him'
p3052
aS'in'
p3053
aS'the'
p3054
aS'foundations'
p3055
aaa(lp3056
g2877
a(lp3057
S'uh'
p3058
aaa(lp3059
g2877
a(lp3060
S'trained'
p3061
aS'him'
p3062
aaa(lp3063
g2877
a(lp3064
S'taught'
p3065
aS'him'
p3066
aS'who'
p3067
aS'he'
p3068
aS'was'
p3069
aaa(lp3070
g2877
a(lp3071
S'taught'
p3072
aS'him'
p3073
aS'about'
p3074
aS'his'
p3075
aS'Hebrew'
p3076
aS'origin'
p3077
aaa(lp3078
g2877
a(lp3079
S'and'
p3080
aS'the'
p3081
aS'customs'
p3082
aS'of'
p3083
aS'the'
p3084
aS'Israel'
p3085
aS'Israelites'
p3086
aaa(lp3087
g2877
a(lp3088
S'Taught'
p3089
aS'him'
p3090
aS'the'
p3091
aS'foundational'
p3092
aS'belief'
p3093
aS'in'
p3094
aS'the'
p3095
aS'true'
p3096
aS'God'
p3097
aaa(lp3098
g2877
a(lp3099
S'taught'
p3100
aS'him'
p3101
aS'of'
p3102
aS'Gods'
p3103
aS'promise'
p3104
aS'to'
p3105
aS'Abraham'
p3106
aaa(lp3107
g2877
a(lp3108
S'to'
p3109
aS'multiply'
p3110
aS'his'
p3111
aS'descendants'
p3112
aaa(lp3113
g2877
a(lp3114
S'and'
p3115
aS'make'
p3116
ag43
aS'mighty'
p3117
aS'nation'
p3118
aaa(lp3119
g2877
a(lp3120
S'of'
p3121
aS'them'
p3122
aaa(lp3123
g2877
a(lp3124
S'Probably'
p3125
aS'the'
p3126
aS'first'
p3127
aS'four'
p3128
aS'or'
p3129
aS'five'
p3130
aS'years'
p3131
aaa(lp3132
g2877
a(lp3133
S'the'
p3134
aS'bulk'
p3135
aS'of'
p3136
aS'his'
p3137
aS'time'
p3138
aS'was'
p3139
aS'spent'
p3140
aS'with'
p3141
aS'his'
p3142
aS'mother'
p3143
aaa(lp3144
g2877
a(lp3145
S'And'
p3146
aS'he'
p3147
aaa(lp3148
g2877
a(lp3149
S'Im'
p3150
aS'sure'
p3151
aS'she'
p3152
aS'told'
p3153
aS'him'
p3154
aS'that'
p3155
aaa(lp3156
g2877
a(lp3157
S'that'
p3158
aS'uh'
p3159
aaa(lp3160
g2877
a(lp3161
S'she'
p3162
aS'was'
p3163
aS'his'
p3164
aS'mother'
p3165
aaa(lp3166
g2877
a(lp3167
S'his'
p3168
aS'real'
p3169
aS'mother'
p3170
aaa(lp3171
g2877
a(lp3172
S'and'
p3173
aS'and'
p3174
aS'about'
p3175
aS'what'
p3176
aS'had'
p3177
aS'happened'
p3178
aaa(lp3179
g2877
a(lp3180
S'cause'
p3181
aS'we'
p3182
aS'wouldnt'
p3183
aS'know'
p3184
aS'about'
p3185
aS'it'
p3186
aaa(lp3187
g2877
a(lp3188
S'uh'
p3189
aaa(lp3190
g2877
a(lp3191
S'if'
p3192
aS'she'
p3193
aS'didnt'
p3194
aaa(lp3195
g2877
a(lp3196
S'But'
p3197
aS'not'
p3198
aS'only'
p3199
aS'did'
p3200
aS'he'
p3201
aS'get'
p3202
aS'this'
p3203
aS'religious'
p3204
aS'training'
p3205
aaa(lp3206
g2877
a(lp3207
S'in'
p3208
ag43
ag1427
aS'in'
p3209
ag43
aS'real'
p3210
aS'God'
p3211
aaa(lp3212
g2877
a(lp3213
S'but'
p3214
aS'he'
p3215
aS'also'
p3216
aaa(lp3217
g2877
a(lp3218
S'was'
p3219
aS'exposed'
p3220
aS'to'
p3221
aS'the'
p3222
aS'best'
p3223
aS'education'
p3224
aS'that'
p3225
aS'Egypt'
p3226
aS'had'
p3227
aS'to'
p3228
aS'offer'
p3229
aaa(lp3230
g2877
a(lp3231
S'Exposed'
p3232
aS'to'
p3233
aS'the'
p3234
aS'wisest'
p3235
aS'teachers'
p3236
aaa(lp3237
g2877
a(lp3238
S'and'
p3239
aS'the'
p3240
aS'best'
p3241
aS'culture'
p3242
aS'offered'
p3243
aS'in'
p3244
aS'the'
p3245
aS'world'
p3246
aS'at'
p3247
aS'that'
p3248
aS'time'
p3249
aaa(lp3250
g2877
a(lp3251
S'he'
p3252
aS'learned'
p3253
aS'about'
p3254
aS'the'
p3255
aS'politics'
p3256
aS'and'
p3257
aS'customs'
p3258
aS'of'
p3259
aS'the'
p3260
aS'courts'
p3261
aaa(lp3262
g2877
a(lp3263
S'of'
p3264
aS'course'
p3265
aS'this'
p3266
aS'would'
p3267
aS'help'
p3268
aS'him'
p3269
aS'later'
p3270
aS'on'
p3271
aaa(lp3272
g2877
a(lp3273
S'when'
p3274
aS'he'
p3275
aS'had'
p3276
aS'to'
p3277
aS'come'
p3278
aS'back'
p3279
aS'and'
p3280
aaa(lp3281
g2877
a(lp3282
S'and'
p3283
aS'uh'
p3284
aaa(lp3285
g2877
a(lp3286
S'and'
p3287
aS'deal'
p3288
aS'with'
p3289
aS'the'
p3290
aS'courts'
p3291
aS'from'
p3292
ag43
aS'different'
p3293
aS'perspective'
p3294
aaa(lp3295
g2877
a(lp3296
S'but'
p3297
aS'that'
p3298
aS'first'
p3299
aS'forty'
p3300
aS'years'
p3301
aS'was'
p3302
aS'spent'
p3303
aS'in'
p3304
aS'being'
p3305
aS'trained'
p3306
aaa(lp3307
g2877
a(lp3308
S'And'
p3309
aS'he'
p3310
aS'was'
p3311
aS'trained'
p3312
aS'well'
p3313
aaa(lp3314
g2877
a(lp3315
S'And'
p3316
aS'he'
p3317
aS'had'
p3318
aS'great'
p3319
aS'knowledge'
p3320
aaa(lp3321
g2877
a(lp3322
S'A'
p3323
aS'lot'
p3324
aS'of'
p3325
aS'knowledge'
p3326
aaa(lp3327
g2877
a(lp3328
S'That'
p3329
aS'he'
p3330
aS'was'
p3331
aS'uh'
p3332
aaa(lp3333
g2877
a(lp3334
S'that'
p3335
aS'God'
p3336
aS'provided'
p3337
aS'for'
p3338
aS'him'
p3339
aaa(lp3340
g2877
a(lp3341
S'through'
p3342
aS'these'
p3343
aS'means'
p3344
aaa(lp3345
g2877
a(lp3346
S'And'
p3347
aS'then'
p3348
aS'for'
p3349
aS'the'
p3350
aS'next'
p3351
aS'forty'
p3352
aS'years'
p3353
aaa(lp3354
g2877
a(lp3355
S'he'
p3356
aS'was'
p3357
aS'exiled'
p3358
aaa(lp3359
g2877
a(lp3360
S'From'
p3361
aS'Egypt'
p3362
aaa(lp3363
g2877
a(lp3364
S'Because'
p3365
aaa(lp3366
g2877
a(lp3367
S'in'
p3368
aS'order'
p3369
aS'to'
p3370
aaa(lp3371
g2877
a(lp3372
S'thinking'
p3373
aaa(lp3374
g2877
a(lp3375
S'that'
p3376
aS'because'
p3377
aS'he'
p3378
aS'was'
p3379
aS'an'
p3380
aS'Israelite'
p3381
aaa(lp3382
g2877
a(lp3383
S'by'
p3384
aS'birth'
p3385
aaa(lp3386
g2877
a(lp3387
S'uh'
p3388
aaa(lp3389
g2877
a(lp3390
S'and'
p3391
aS'seeing'
p3392
aS'an'
p3393
aS'Israeli'
p3394
aS'being'
p3395
aS'abused'
p3396
aaa(lp3397
g2877
a(lp3398
S'uh'
p3399
aaa(lp3400
g2877
a(lp3401
S'he'
p3402
aS'stepped'
p3403
aS'in'
p3404
aaa(lp3405
g2877
a(lp3406
S'and'
p3407
aS'he'
p3408
aS'killed'
p3409
aS'the'
p3410
aS'Egyptian'
p3411
aS'that'
p3412
aS'was'
p3413
aS'abusing'
p3414
aS'him'
p3415
aaa(lp3416
g2877
a(lp3417
S'thinking'
p3418
aS'that'
p3419
aS'no'
p3420
aS'one'
p3421
aS'else'
p3422
aS'knew'
p3423
aS'except'
p3424
aS'this'
p3425
aS'person'
p3426
aS'that'
p3427
aS'he'
p3428
aS'had'
p3429
aS'saved'
p3430
aaa(lp3431
g2877
a(lp3432
S'he'
p3433
aS'buried'
p3434
aS'him'
p3435
aaa(lp3436
g2877
a(lp3437
S'and'
p3438
aS'then'
p3439
ag43
aS'few'
p3440
aS'days'
p3441
aS'later'
p3442
aaa(lp3443
g2877
a(lp3444
S'you'
p3445
aS'know'
p3446
aaa(lp3447
g2877
a(lp3448
S'thinking'
p3449
aS'well'
p3450
aS'its'
p3451
aS'its'
p3452
aS'all'
p3453
aS'cool'
p3454
aaa(lp3455
g2877
a(lp3456
S'nobody'
p3457
aS'knows'
p3458
aaa(lp3459
g2877
a(lp3460
S'Ill'
p3461
aS'just'
p3462
aS'go'
p3463
aS'on'
p3464
aaa(lp3465
g2877
a(lp3466
S'He'
p3467
aS'tries'
p3468
aS'to'
p3469
aS'help'
p3470
aaa(lp3471
g2877
a(lp3472
S'or'
p3473
aS'tries'
p3474
aS'to'
p3475
aS'intervene'
p3476
aS'between'
p3477
aS'two'
p3478
aS'other'
p3479
aaa(lp3480
g2877
a(lp3481
S'uh'
p3482
aaa(lp3483
g2877
a(lp3484
S'Hebrew'
p3485
aaa(lp3486
g2877
a(lp3487
S'that'
p3488
aS'were'
p3489
aS'arguing'
p3490
aS'amongst'
p3491
aS'themself'
p3492
aS'and'
p3493
aaa(lp3494
g2877
a(lp3495
S'and'
p3496
aaa(lp3497
g2877
a(lp3498
S'he'
p3499
aS'tries'
p3500
aS'to'
p3501
aS'be'
p3502
ag43
aS'peacemaker'
p3503
aaa(lp3504
g2877
a(lp3505
S'and'
p3506
aS'they'
p3507
aS'say'
p3508
aaa(lp3509
g2877
a(lp3510
S'you'
p3511
aS'know'
p3512
aaa(lp3513
g2877
a(lp3514
S'who'
p3515
aS'made'
p3516
aS'you'
p3517
aS'judge'
p3518
aaa(lp3519
g2877
a(lp3520
g1423
aS'what'
p3521
aS'about'
p3522
aS'this'
p3523
aaa(lp3524
g2877
a(lp3525
S'you'
p3526
aS'just'
p3527
aS'killed'
p3528
aS'the'
p3529
aS'guy'
p3530
aS'the'
p3531
aS'other'
p3532
aS'day'
p3533
aaa(lp3534
g2877
a(lp3535
S'Uh'
p3536
aaa(lp3537
g2877
a(lp3538
S'and'
p3539
aS'he'
p3540
aS'realized'
p3541
aS'that'
p3542
aS'people'
p3543
aS'knew'
p3544
aaa(lp3545
g2877
a(lp3546
S'And'
p3547
aS'he'
p3548
aS'realized'
p3549
aS'if'
p3550
aS'these'
p3551
aaa(lp3552
g2877
a(lp3553
S'if'
p3554
aS'these'
p3555
aS'men'
p3556
aS'knew'
p3557
aaa(lp3558
g2877
a(lp3559
S'then'
p3560
aS'probably'
p3561
aS'Pharaoh'
p3562
aS'was'
p3563
aS'gonna'
p3564
aS'hear'
p3565
aS'pretty'
p3566
aS'soon'
p3567
aaa(lp3568
g2877
a(lp3569
S'and'
p3570
aS'so'
p3571
aS'he'
p3572
aS'left'
p3573
aaa(lp3574
g2877
a(lp3575
S'He'
p3576
aS'fled'
p3577
aaa(lp3578
g2877
a(lp3579
S'He'
p3580
aS'ran'
p3581
aaa(lp3582
g2877
a(lp3583
S'He'
p3584
aS'went'
p3585
aS'out'
p3586
aS'into'
p3587
aS'the'
p3588
aS'wilderness'
p3589
aaa(lp3590
g2877
a(lp3591
S'After'
p3592
ag43
aS'few'
p3593
aS'days'
p3594
aS'of'
p3595
aS'uh'
p3596
aS'walking'
p3597
aaa(lp3598
g2877
a(lp3599
S'he'
p3600
aS'comes'
p3601
aS'upon'
p3602
ag43
ag43
aS'scene'
p3603
aaa(lp3604
g2877
a(lp3605
S'where'
p3606
aS'these'
p3607
aS'two'
p3608
aS'young'
p3609
aS'ladies'
p3610
aS'are'
p3611
aS'herding'
p3612
aS'their'
p3613
aS'fathers'
p3614
aS'sheep'
p3615
aaa(lp3616
g2877
a(lp3617
S'and'
p3618
aS'uh'
p3619
aaa(lp3620
g2877
a(lp3621
S'some'
p3622
aaa(lp3623
g2877
a(lp3624
S'uh'
p3625
aaa(lp3626
g2877
a(lp3627
S'mean'
p3628
aS'guys'
p3629
aaa(lp3630
g2877
a(lp3631
S'who'
p3632
aS'knows'
p3633
aaa(lp3634
g2877
a(lp3635
g36
aS'dont'
p3636
aS'remember'
p3637
aS'who'
p3638
aS'it'
p3639
aS'was'
p3640
aaa(lp3641
g2877
a(lp3642
S'but'
p3643
aS'anyway'
p3644
aaa(lp3645
g2877
a(lp3646
S'they'
p3647
aS'came'
p3648
aS'up'
p3649
aS'and'
p3650
aS'tried'
p3651
aS'to'
p3652
aaa(lp3653
g2877
a(lp3654
S'to'
p3655
aS'uh'
p3656
aaa(lp3657
g2877
a(lp3658
S'take'
p3659
aS'advantage'
p3660
aS'of'
p3661
aS'the'
p3662
aS'two'
p3663
aS'ladies'
p3664
aaa(lp3665
g2877
a(lp3666
S'trying'
p3667
aS'to'
p3668
aS'take'
p3669
aS'care'
p3670
aS'of'
p3671
aS'the'
p3672
aS'sheep'
p3673
aaa(lp3674
g2877
a(lp3675
S'and'
p3676
aS'uh'
p3677
aaa(lp3678
g2877
a(lp3679
S'and'
p3680
ag36
ag36
aS'assume'
p3681
aS'they'
p3682
aS'were'
p3683
aS'trying'
p3684
aS'to'
p3685
aS'steal'
p3686
aS'the'
p3687
aS'sheep'
p3688
aaa(lp3689
g2877
a(lp3690
S'or'
p3691
aS'trying'
p3692
aS'to'
p3693
aS'steal'
p3694
aS'the'
p3695
aS'women'
p3696
aaa(lp3697
g2877
a(lp3698
S'either'
p3699
aS'way'
p3700
aaa(lp3701
g2877
a(lp3702
S'uh'
p3703
aaa(lp3704
g2877
a(lp3705
S'but'
p3706
aaa(lp3707
g2877
a(lp3708
S'Moses'
p3709
aS'intervened'
p3710
aaa(lp3711
g2877
a(lp3712
S'and'
p3713
aS'he'
p3714
aS'ran'
p3715
aS'them'
p3716
aS'off'
p3717
aaa(lp3718
g2877
a(lp3719
S'And'
p3720
aS'saved'
p3721
aS'their'
p3722
aS'lives'
p3723
aaa(lp3724
g2877
a(lp3725
S'and'
p3726
aS'saved'
p3727
aS'their'
p3728
aS'livestock'
p3729
aaa(lp3730
g2877
a(lp3731
S'And'
p3732
aS'so'
p3733
aS'they'
p3734
aS'invited'
p3735
aS'him'
p3736
aS'to'
p3737
aS'come'
p3738
aS'with'
p3739
aS'them'
p3740
aaa(lp3741
g2877
a(lp3742
S'to'
p3743
aS'to'
p3744
aS'their'
p3745
aS'home'
p3746
aaa(lp3747
g2877
a(lp3748
S'and'
p3749
aS'they'
p3750
aS'told'
p3751
aS'their'
p3752
aS'father'
p3753
aS'what'
p3754
aS'had'
p3755
aS'happened'
p3756
aaa(lp3757
g2877
a(lp3758
S'and'
p3759
aS'he'
p3760
aS'invited'
p3761
aS'Moses'
p3762
aS'to'
p3763
aS'stay'
p3764
aS'with'
p3765
aS'them'
p3766
aaa(lp3767
g2877
a(lp3768
S'Moses'
p3769
aS'ends'
p3770
aS'up'
p3771
aS'marrying'
p3772
aaa(lp3773
g2877
a(lp3774
S'uh'
p3775
aaa(lp3776
g2877
a(lp3777
S'one'
p3778
aS'of'
p3779
aS'the'
p3780
aS'young'
p3781
aS'ladies'
p3782
aaa(lp3783
g2877
a(lp3784
S'As'
p3785
aS'Ken'
p3786
aS'shared'
p3787
aS'with'
p3788
aS'us'
p3789
aS'the'
p3790
aS'other'
p3791
aS'day'
p3792
aaa(lp3793
g2877
a(lp3794
S'it'
p3795
aS'was'
p3796
ag43
ag43
aS'mixed'
p3797
aS'marriage'
p3798
aaa(lp3799
g2877
a(lp3800
S'because'
p3801
aS'these'
p3802
aaa(lp3803
g2877
a(lp3804
S'uh'
p3805
aaa(lp3806
g2877
a(lp3807
S'this'
p3808
aS'family'
p3809
aS'was'
p3810
aS'Black'
p3811
aaa(lp3812
g2877
a(lp3813
S'So'
p3814
aS'for'
p3815
aS'the'
p3816
aS'next'
p3817
aS'forty'
p3818
aS'years'
p3819
aaa(lp3820
g2877
a(lp3821
S'he'
p3822
aS'becomes'
p3823
ag43
aS'sheep'
p3824
aS'herder'
p3825
aaa(lp3826
g2877
a(lp3827
S'for'
p3828
aS'his'
p3829
aS'fatherinlaw'
p3830
aaa(lp3831
g2877
a(lp3832
S'Who'
p3833
aS'was'
p3834
ag43
ag43
aS'Midian'
p3835
aS'priest'
p3836
aaa(lp3837
g2877
a(lp3838
S'And'
p3839
aS'during'
p3840
aS'that'
p3841
aS'forty'
p3842
aS'years'
p3843
aaa(lp3844
g2877
a(lp3845
S'he'
p3846
aS'he'
p3847
ag1720
aS'gained'
p3848
aS'some'
p3849
aS'other'
p3850
aS'training'
p3851
aaa(lp3852
g2877
a(lp3853
S'First'
p3854
aS'of'
p3855
aS'all'
p3856
aS'he'
p3857
aS'became'
p3858
aS'an'
p3859
aS'outdoorsman'
p3860
aaa(lp3861
g2877
a(lp3862
S'He'
p3863
aS'became'
p3864
aS'used'
p3865
aS'to'
p3866
aS'being'
p3867
aS'out'
p3868
aS'in'
p3869
aS'the'
p3870
aS'wilderness'
p3871
aaa(lp3872
g2877
a(lp3873
S'And'
p3874
aS'thats'
p3875
aS'gonna'
p3876
aS'be'
p3877
aS'important'
p3878
aS'for'
p3879
aS'him'
p3880
aaa(lp3881
g2877
a(lp3882
S'for'
p3883
aS'his'
p3884
aS'final'
p3885
aS'forty'
p3886
aS'years'
p3887
aaa(lp3888
g2877
a(lp3889
S'Another'
p3890
aS'thing'
p3891
aS'hes'
p3892
aaa(lp3893
g2877
a(lp3894
S'is'
p3895
aaa(lp3896
g2877
a(lp3897
S'the'
p3898
aS'area'
p3899
aS'where'
p3900
aS'he'
p3901
aS'herded'
p3902
aS'the'
p3903
aS'sheep'
p3904
aaa(lp3905
g2877
a(lp3906
S'was'
p3907
ag43
ag43
aS'huge'
p3908
aS'area'
p3909
aaa(lp3910
g2877
a(lp3911
S'And'
p3912
aS'uh'
p3913
aS'he'
p3914
aS'got'
p3915
aS'to'
p3916
aS'know'
p3917
aS'the'
p3918
aS'terrain'
p3919
aaa(lp3920
g2877
a(lp3921
S'He'
p3922
aS'got'
p3923
aS'to'
p3924
aS'know'
p3925
aS'his'
p3926
aS'way'
p3927
aS'around'
p3928
aaa(lp3929
g2877
a(lp3930
S'And'
p3931
aS'that'
p3932
aS'was'
p3933
aS'important'
p3934
aS'because'
p3935
aS'he'
p3936
aS'was'
p3937
aS'gonna'
p3938
aS'spend'
p3939
aS'his'
p3940
aS'final'
p3941
aS'forty'
p3942
aS'years'
p3943
aaa(lp3944
g2877
a(lp3945
S'in'
p3946
aS'that'
p3947
aS'same'
p3948
aS'area'
p3949
aaa(lp3950
g2877
a(lp3951
S'and'
p3952
aS'it'
p3953
aS'was'
p3954
aS'important'
p3955
aS'that'
p3956
aS'he'
p3957
aS'knew'
p3958
aS'where'
p3959
aS'there'
p3960
aaa(lp3961
g2877
a(lp3962
S'the'
p3963
ag1423
aS'waterholes'
p3964
aS'were'
p3965
aS'and'
p3966
aaa(lp3967
g2877
a(lp3968
S'and'
p3969
aS'where'
p3970
aS'the'
p3971
aS'dangerous'
p3972
aS'areas'
p3973
aS'were'
p3974
aaa(lp3975
g2877
a(lp3976
S'Uh'
p3977
aaa(lp3978
g2877
a(lp3979
S'and'
p3980
aS'so'
p3981
aS'God'
p3982
aS'prepared'
p3983
aS'him'
p3984
aaa(lp3985
g2877
a(lp3986
S'God'
p3987
aS'also'
p3988
aS'has'
p3989
aS'prepared'
p3990
aS'us'
p3991
aaa(lp3992
g2877
a(lp3993
S'and'
p3994
aS'is'
p3995
aS'preparing'
p3996
aS'us'
p3997
aaa(lp3998
g2877
a(lp3999
S'for'
p4000
ag289
aaa(lp4001
g2877
a(lp4002
S'for'
p4003
aS'our'
p4004
aS'part'
p4005
aaa(lp4006
g2877
a(lp4007
S'in'
p4008
aS'Gods'
p4009
aS'mission'
p4010
aaa(lp4011
g2877
a(lp4012
S'God'
p4013
aS'is'
p4014
aS'continually'
p4015
aS'building'
p4016
aS'character'
p4017
aaa(lp4018
g2877
a(lp4019
S'And'
p4020
ag36
aS'think'
p4021
aaa(lp4022
g2877
a(lp4023
S'this'
p4024
aS'middle'
p4025
aS'forty'
p4026
aS'years'
p4027
aS'for'
p4028
aS'Moses'
p4029
aaa(lp4030
g2877
a(lp4031
S'was'
p4032
ag43
aaa(lp4033
g2877
a(lp4034
S'was'
p4035
ag43
aS'time'
p4036
aS'where'
p4037
aS'God'
p4038
aS'really'
p4039
aS'built'
p4040
aS'character'
p4041
aaa(lp4042
g2877
a(lp4043
S'Cause'
p4044
aS'he'
p4045
aS'no'
p4046
aS'longer'
p4047
aS'had'
p4048
aS'everything'
p4049
aS'he'
p4050
aS'wanted'
p4051
aaa(lp4052
g2877
a(lp4053
S'uh'
p4054
aaa(lp4055
g2877
a(lp4056
S'at'
p4057
aS'his'
p4058
aS'fingertips'
p4059
aaa(lp4060
g2877
a(lp4061
S'uh'
p4062
aaa(lp4063
g2877
a(lp4064
S'he'
p4065
aS'had'
p4066
aS'to'
p4067
aS'learn'
p4068
aS'some'
p4069
aS'things'
p4070
aaa(lp4071
g2877
a(lp4072
S'He'
p4073
aS'had'
p4074
aS'to'
p4075
aS'learn'
p4076
aaa(lp4077
g2877
a(lp4078
S'He'
p4079
aS'had'
p4080
aS'to'
p4081
aS'learn'
p4082
aS'how'
p4083
aS'to'
p4084
aS'depend'
p4085
aS'on'
p4086
aS'God'
p4087
aaa(lp4088
g2877
a(lp4089
S'ON'
p4090
aS'this'
p4091
aS'God'
p4092
aS'that'
p4093
aS'he'
p4094
aS'had'
p4095
aS'learned'
p4096
aS'about'
p4097
aaa(lp4098
g2877
a(lp4099
S'From'
p4100
aS'his'
p4101
aS'mother'
p4102
aaa(lp4103
g2877
a(lp4104
S'And'
p4105
aS'God'
p4106
aS'is'
p4107
aS'interested'
p4108
aS'in'
p4109
aS'building'
p4110
aS'character'
p4111
aS'in'
p4112
aS'us'
p4113
aaa(lp4114
g2877
a(lp4115
S'as'
p4116
aS'individuals'
p4117
aaa(lp4118
g2877
a(lp4119
S'In'
p4120
aS'fact'
p4121
aaa(lp4122
g2877
a(lp4123
S'God'
p4124
aS'is'
p4125
aS'more'
p4126
aS'concerned'
p4127
aS'about'
p4128
aS'our'
p4129
aS'character'
p4130
aaa(lp4131
g2877
a(lp4132
S'than'
p4133
aS'what'
p4134
aS'we'
p4135
aS'do'
p4136
aaa(lp4137
g2877
a(lp4138
S'And'
p4139
aS'how'
p4140
aS'we'
p4141
aS'do'
p4142
aS'it'
p4143
aaa(lp4144
g2877
a(lp4145
S'And'
p4146
aS'so'
p4147
ag43
aS'lot'
p4148
aS'of'
p4149
aS'what'
p4150
aS'we'
p4151
aS'experience'
p4152
aaa(lp4153
g2877
a(lp4154
S'we'
p4155
aS'get'
p4156
aS'frustrated'
p4157
aS'with'
p4158
aaa(lp4159
g2877
a(lp4160
S'but'
p4161
aS'Gods'
p4162
aS'purpose'
p4163
aS'is'
p4164
aS'to'
p4165
aS'build'
p4166
aS'character'
p4167
aS'within'
p4168
aS'us'
p4169
aaa(lp4170
g2877
a(lp4171
S'And'
p4172
aS'so'
p4173
aS'when'
p4174
aS'were'
p4175
aS'trying'
p4176
aS'to'
p4177
aS'decide'
p4178
ag1423
aS'which'
p4179
aS'we'
p4180
aS'should'
p4181
aS'do'
p4182
aS'or'
p4183
aS'not'
p4184
aS'do'
p4185
aaa(lp4186
g2877
a(lp4187
S'something'
p4188
aS'that'
p4189
aS'were'
p4190
aS'tempted'
p4191
aS'to'
p4192
aS'do'
p4193
aaa(lp4194
g2877
a(lp4195
S'we'
p4196
aS'need'
p4197
aS'to'
p4198
aS'remember'
p4199
aS'that'
p4200
aaa(lp4201
g2877
a(lp4202
S'Gods'
p4203
aS'more'
p4204
aS'concerned'
p4205
aS'about'
p4206
aS'our'
p4207
aS'character'
p4208
aaa(lp4209
g2877
a(lp4210
S'and'
p4211
aS'we'
p4212
aS'should'
p4213
aS'be'
p4214
aS'obedient'
p4215
aS'to'
p4216
aS'Him'
p4217
aaa(lp4218
g2877
a(lp4219
S'because'
p4220
aS'thats'
p4221
aS'how'
p4222
aS'He'
p4223
aS'builds'
p4224
aS'our'
p4225
aS'character'
p4226
aaa(lp4227
g2877
a(lp4228
g36
aS'believe'
p4229
aS'that'
p4230
aS'God'
p4231
aS'has'
p4232
aS'created'
p4233
aaa(lp4234
g2877
a(lp4235
S'and'
p4236
aS'preserved'
p4237
aaa(lp4238
g2877
a(lp4239
S'and'
p4240
aS'prepared'
p4241
aS'Uptown'
p4242
aS'Baptist'
p4243
aS'Church'
p4244
aaa(lp4245
g2877
a(lp4246
S'To'
p4247
aS'be'
p4248
aS'involved'
p4249
aS'in'
p4250
aS'His'
p4251
aS'mission'
p4252
aaa(lp4253
g2877
a(lp4254
S'To'
p4255
aS'be'
p4256
aS'involved'
p4257
aS'in'
p4258
aS'reaching'
p4259
aS'out'
p4260
aS'to'
p4261
aS'the'
p4262
aS'unloved'
p4263
aS'and'
p4264
aS'the'
p4265
aS'hurting'
p4266
aaa(lp4267
g2877
a(lp4268
S'To'
p4269
aS'be'
p4270
aS'an'
p4271
aS'influence'
p4272
aaa(lp4273
g2877
a(lp4274
S'to'
p4275
aS'the'
p4276
aS'community'
p4277
aS'of'
p4278
aS'Uptown'
p4279
aaa(lp4280
g2877
a(lp4281
S'for'
p4282
aS'the'
p4283
aS'Kingdom'
p4284
aS'of'
p4285
aS'God'
p4286
aaa(lp4287
g2877
a(lp4288
S'To'
p4289
aS'be'
p4290
ag43
aS'beacon'
p4291
aS'of'
p4292
aS'light'
p4293
aaa(lp4294
g2877
a(lp4295
S'for'
p4296
aS'those'
p4297
aS'who'
p4298
aS'are'
p4299
aS'lost'
p4300
aaa(lp4301
g2877
a(lp4302
S'and'
p4303
aS'as'
p4304
aS'our'
p4305
aS'sign'
p4306
aS'says'
p4307
aS'on'
p4308
aS'top'
p4309
aaa(lp4310
g2877
a(lp4311
S'to'
p4312
aS'proclaim'
p4313
aS'that'
p4314
aS'Christ'
p4315
aS'died'
p4316
aS'for'
p4317
aS'our'
p4318
aS'sins'
p4319
aaa(lp4320
g2877
a(lp4321
S'God'
p4322
aS'has'
p4323
aS'also'
p4324
aS'created'
p4325
aS'and'
p4326
aS'prepared'
p4327
aS'Uptown'
p4328
aS'Baptist'
p4329
aS'Church'
p4330
aaa(lp4331
g2877
a(lp4332
S'to'
p4333
aS'be'
p4334
ag43
aS'model'
p4335
aS'for'
p4336
aS'urban'
p4337
aS'church'
p4338
aS'missions'
p4339
aS'to'
p4340
aS'the'
p4341
aS'world'
p4342
aaa(lp4343
g2877
a(lp4344
S'And'
p4345
aS'that'
p4346
aS'wasnt'
p4347
aS'our'
p4348
aS'reasoning'
p4349
aaa(lp4350
g2877
a(lp4351
S'we'
p4352
aS'didnt'
p4353
aS'set'
p4354
aS'out'
p4355
aS'to'
p4356
aS'do'
p4357
aS'the'
p4358
aS'things'
p4359
aS'we'
p4360
aS'do'
p4361
aaa(lp4362
g2877
a(lp4363
S'so'
p4364
aS'that'
p4365
aS'we'
p4366
aS'could'
p4367
aS'be'
p4368
ag43
aS'model'
p4369
aaa(lp4370
g2877
a(lp4371
S'or'
p4372
aS'so'
p4373
aS'that'
p4374
aS'we'
p4375
aS'could'
p4376
aS'get'
p4377
aS'publicity'
p4378
aaa(lp4379
g2877
a(lp4380
S'But'
p4381
aS'God'
p4382
aS'has'
p4383
aS'saw'
p4384
aS'seen'
p4385
aS'fit'
p4386
aS'to'
p4387
aS'use'
p4388
aS'us'
p4389
aS'in'
p4390
aS'that'
p4391
aS'way'
p4392
aaa(lp4393
g2877
a(lp4394
S'And'
p4395
aS'this'
p4396
aS'is'
p4397
aS'not'
p4398
aS'for'
p4399
aS'our'
p4400
aS'pride'
p4401
aaa(lp4402
g2877
a(lp4403
S'this'
p4404
aS'is'
p4405
aS'just'
p4406
ag43
aS'reality'
p4407
aaa(lp4408
g2877
a(lp4409
S'Im'
p4410
aS'amazed'
p4411
aS'at'
p4412
aS'how'
p4413
aS'people'
p4414
aS'from'
p4415
aS'all'
p4416
aS'over'
p4417
aS'the'
p4418
aS'world'
p4419
aaa(lp4420
g2877
a(lp4421
S'have'
p4422
aS'have'
p4423
aS'come'
p4424
aaa(lp4425
g2877
a(lp4426
S'to'
p4427
aS'the'
p4428
aS'city'
p4429
aaa(lp4430
g2877
a(lp4431
S'and'
p4432
aS'theyve'
p4433
aS'come'
p4434
aS'to'
p4435
aS'Uptown'
p4436
aS'Baptist'
p4437
aS'Church'
p4438
aaa(lp4439
g2877
a(lp4440
S'because'
p4441
aS'they'
p4442
aS'heard'
p4443
aS'about'
p4444
aS'us'
p4445
aS'somewhere'
p4446
aS'else'
p4447
aaa(lp4448
g2877
a(lp4449
S'in'
p4450
aS'another'
p4451
aS'country'
p4452
aaa(lp4453
g2877
a(lp4454
S'or'
p4455
aS'they'
p4456
aS'read'
p4457
ag43
aS'book'
p4458
aaa(lp4459
g2877
a(lp4460
S'uh'
p4461
aS'that'
p4462
aS'talked'
p4463
aS'about'
p4464
aS'Uptown'
p4465
aS'Baptist'
p4466
aS'Church'
p4467
aaa(lp4468
g2877
a(lp4469
S'God'
p4470
aS'has'
p4471
aS'crea'
p4472
aaa(lp4473
g2877
a(lp4474
S'also'
p4475
aS'created'
p4476
aS'an'
p4477
aS'prepared'
p4478
aS'you'
p4479
aS'and'
p4480
aS'me'
p4481
aaa(lp4482
g2877
a(lp4483
S'to'
p4484
aS'be'
p4485
aS'involved'
p4486
aS'in'
p4487
aS'His'
p4488
aS'plan'
p4489
aaa(lp4490
g2877
a(lp4491
S'First'
p4492
aS'of'
p4493
aS'all'
p4494
aS'Hes'
p4495
aS'called'
p4496
aS'us'
p4497
aS'each'
p4498
aS'to'
p4499
ag43
aS'love'
p4500
aS'relationship'
p4501
aS'with'
p4502
aS'Him'
p4503
aaa(lp4504
g2877
a(lp4505
S'Some'
p4506
aS'of'
p4507
aS'us'
p4508
aS'have'
p4509
aS'accepted'
p4510
aS'that'
p4511
aS'call'
p4512
aaa(lp4513
g2877
a(lp4514
S'and'
p4515
aS'some'
p4516
aS'are'
p4517
aS'still'
p4518
aS'struggling'
p4519
aS'with'
p4520
aS'it'
p4521
aaa(lp4522
g2877
a(lp4523
S'But'
p4524
aS'still'
p4525
aaa(lp4526
g2877
a(lp4527
S'He'
p4528
aS'wants'
p4529
aS'to'
p4530
aS'have'
p4531
ag43
aS'love'
p4532
aS'relationship'
p4533
aaa(lp4534
g2877
a(lp4535
S'with'
p4536
aS'each'
p4537
aS'person'
p4538
aS'that'
p4539
aS'is'
p4540
aS'in'
p4541
aS'this'
p4542
aS'room'
p4543
aaa(lp4544
g2877
a(lp4545
S'Hes'
p4546
aS'brought'
p4547
aS'us'
p4548
aS'together'
p4549
aS'from'
p4550
aS'many'
p4551
aS'backgrounds'
p4552
aaa(lp4553
g2877
a(lp4554
S'many'
p4555
aS'very'
p4556
aS'different'
p4557
aS'backgrounds'
p4558
aaa(lp4559
g2877
a(lp4560
S'to'
p4561
aS'be'
p4562
ag43
aS'family'
p4563
aaa(lp4564
g2877
a(lp4565
g3323
aS'family'
p4566
aS'of'
p4567
aS'followers'
p4568
aS'of'
p4569
aS'Christ'
p4570
aaa(lp4571
g2877
a(lp4572
g3323
aS'family'
p4573
aS'to'
p4574
aS'be'
p4575
aS'involved'
p4576
aS'in'
p4577
aS'Gods'
p4578
aS'mission'
p4579
aaa(lp4580
g2877
a(lp4581
S'Building'
p4582
aS'the'
p4583
aS'Kingdom'
p4584
aS'of'
p4585
aS'God'
p4586
aaa(lp4587
g2877
a(lp4588
g36
aS'was'
p4589
aS'talking'
p4590
aS'to'
p4591
aS'Greg'
p4592
aS'on'
p4593
aS'Friday'
p4594
aaa(lp4595
g2877
a(lp4596
S'Greg'
p4597
aS'Gey'
p4598
aaa(lp4599
g2877
a(lp4600
S'and'
p4601
aS'he'
p4602
aS'was'
p4603
aS'sharing'
p4604
aS'wi'
p4605
aaa(lp4606
g2877
a(lp4607
S'somehow'
p4608
aS'we'
p4609
aS'got'
p4610
aS'in'
p4611
ag43
aS'conversation'
p4612
aaa(lp4613
g2877
a(lp4614
S'and'
p4615
aS'he'
p4616
aS'was'
p4617
aS'saying'
p4618
aS'something'
p4619
aS'about'
p4620
aaa(lp4621
g2877
a(lp4622
S'he'
p4623
aS'he'
p4624
aS'really'
p4625
aS'needed'
p4626
aS'intellectual'
p4627
aS'stimulation'
p4628
aaa(lp4629
g2877
a(lp4630
S'because'
p4631
aS'he'
p4632
aS'tended'
p4633
aS'to'
p4634
aS'be'
p4635
aS'more'
p4636
aS'intellectual'
p4637
aaa(lp4638
g2877
a(lp4639
S'and'
p4640
aS'we'
p4641
aS'were'
p4642
aS'talking'
p4643
aS'about'
p4644
aS'why'
p4645
aaa(lp4646
g2877
a(lp4647
S'some'
p4648
aS'people'
p4649
aS'were'
p4650
aS'intellectual'
p4651
aS'and'
p4652
aS'some'
p4653
aS'werent'
p4654
aaa(lp4655
g2877
a(lp4656
S'And'
p4657
aS'God'
p4658
aS'just'
p4659
aS'flashed'
p4660
aS'in'
p4661
aS'my'
p4662
aS'mind'
p4663
aaa(lp4664
g2877
a(lp4665
S'And'
p4666
ag36
aS'said'
p4667
aS'Greg'
p4668
aaa(lp4669
g2877
a(lp4670
S'You'
p4671
aS'know'
p4672
aS'God'
p4673
aaa(lp4674
g2877
a(lp4675
S'created'
p4676
aS'you'
p4677
aS'to'
p4678
aS'be'
p4679
aS'intellectual'
p4680
aaa(lp4681
g2877
a(lp4682
S'so'
p4683
aS'that'
p4684
aS'you'
p4685
aS'could'
p4686
aS'relate'
p4687
aS'to'
p4688
aS'others'
p4689
aS'who'
p4690
aS'are'
p4691
aS'intellectuals'
p4692
aaa(lp4693
g2877
a(lp4694
S'So'
p4695
aS'that'
p4696
aS'you'
p4697
aS'could'
p4698
aS'share'
p4699
aS'with'
p4700
aS'them'
p4701
aS'on'
p4702
aS'their'
p4703
aS'level'
p4704
aaa(lp4705
g2877
a(lp4706
S'Because'
p4707
aS'God'
p4708
aS'didnt'
p4709
aS'create'
p4710
aS'us'
p4711
aS'for'
p4712
aS'our'
p4713
aS'purpose'
p4714
aaa(lp4715
g2877
a(lp4716
S'God'
p4717
aS'created'
p4718
aS'us'
p4719
aS'for'
p4720
aS'His'
p4721
aS'purpose'
p4722
aaa(lp4723
g2877
a(lp4724
S'And'
p4725
aS'thats'
p4726
aS'something'
p4727
aS'we'
p4728
aS'have'
p4729
aS'to'
p4730
aS'keep'
p4731
aaa(lp4732
g2877
a(lp4733
S'in'
p4734
aaa(lp4735
g2877
a(lp4736
S'before'
p4737
aS'us'
p4738
aaa(lp4739
g2877
a(lp4740
S'God'
p4741
aS'has'
p4742
aS'created'
p4743
aS'us'
p4744
aaa(lp4745
g2877
a(lp4746
S'made'
p4747
aS'us'
p4748
aS'like'
p4749
aS'we'
p4750
aS'are'
p4751
aaa(lp4752
g2877
a(lp4753
S'Allowed'
p4754
aS'us'
p4755
aS'to'
p4756
aS'experience'
p4757
aS'the'
p4758
aS'things'
p4759
aS'that'
p4760
aS'we'
p4761
aS'have'
p4762
aS'experienced'
p4763
aaa(lp4764
g2877
a(lp4765
S'For'
p4766
aS'his'
p4767
aS'purpose'
p4768
aaa(lp4769
g2877
a(lp4770
S'And'
p4771
aS'its'
p4772
aS'for'
p4773
aS'us'
p4774
aS'to'
p4775
aS'seek'
p4776
aS'Him'
p4777
aaa(lp4778
g2877
a(lp4779
S'and'
p4780
aS'to'
p4781
aS'know'
p4782
aS'what'
p4783
aS'His'
p4784
aS'purpose'
p4785
aS'is'
p4786
aaa(lp4787
g2877
a(lp4788
S'Papa'
p4789
aS'Joe'
p4790
aS'has'
p4791
aS'been'
p4792
ag43
aaa(lp4793
g2877
a(lp4794
g43
aS'very'
p4795
aS'strong'
p4796
aS'influence'
p4797
aS'in'
p4798
aS'this'
p4799
aS'community'
p4800
aaa(lp4801
g2877
a(lp4802
S'Not'
p4803
aS'because'
p4804
aS'of'
p4805
aS'his'
p4806
aS'education'
p4807
aaa(lp4808
g2877
a(lp4809
S'his'
p4810
aS'educations'
p4811
aS'came'
p4812
aS'from'
p4813
aS'the'
p4814
aS'streets'
p4815
aaa(lp4816
g2877
a(lp4817
S'And'
p4818
aS'as'
p4819
aS'he'
p4820
aS'came'
p4821
aS'to'
p4822
ag43
aS'relationship'
p4823
aS'with'
p4824
aS'Jesus'
p4825
aS'Christ'
p4826
aaa(lp4827
g2877
a(lp4828
S'he'
p4829
aS'came'
p4830
aS'from'
p4831
ag43
aS'background'
p4832
aaa(lp4833
g2877
a(lp4834
S'that'
p4835
ag1423
aS'had'
p4836
aS'survived'
p4837
aaa(lp4838
g2877
a(lp4839
S'from'
p4840
aS'the'
p4841
aS'streets'
p4842
aaa(lp4843
g2877
a(lp4844
S'He'
p4845
aS'was'
p4846
aS'an'
p4847
aS'alcoholic'
p4848
aaa(lp4849
g2877
a(lp4850
S'Now'
p4851
ag1423
aS'how'
p4852
aaa(lp4853
g2877
a(lp4854
S'why'
p4855
aS'has'
p4856
aS'God'
p4857
aS'use'
p4858
aS'him'
p4859
aaa(lp4860
g2877
a(lp4861
S'He'
p4862
aS'wasnt'
p4863
aS'educated'
p4864
aaa(lp4865
g2877
a(lp4866
S'he'
p4867
aS'didnt'
p4868
aS'go'
p4869
aS'through'
p4870
aS'special'
p4871
aS'training'
p4872
aaa(lp4873
g2877
a(lp4874
S'its'
p4875
aS'because'
p4876
aaa(lp4877
g2877
a(lp4878
S'God'
p4879
aS'prepared'
p4880
aS'him'
p4881
aaa(lp4882
g2877
a(lp4883
S'with'
p4884
aS'the'
p4885
aS'experience'
p4886
aS'of'
p4887
aS'his'
p4888
aS'life'
p4889
aaa(lp4890
g2877
a(lp4891
S'so'
p4892
aS'that'
p4893
aS'he'
p4894
aS'could'
p4895
aS'reach'
p4896
aS'out'
p4897
aS'to'
p4898
aS'other'
p4899
aS'people'
p4900
aS'who'
p4901
aS'are'
p4902
aS'going'
p4903
aS'through'
p4904
aS'the'
p4905
aS'same'
p4906
aS'experience'
p4907
aaa(lp4908
g2877
a(lp4909
S'So'
p4910
aS'you'
p4911
aS'cant'
p4912
aS'say'
p4913
aS'well'
p4914
ag36
aS'dont'
p4915
aS'have'
p4916
aS'an'
p4917
aS'education'
p4918
aaa(lp4919
g2877
a(lp4920
S'Or'
p4921
ag36
aS'dont'
p4922
aaa(lp4923
g2877
a(lp4924
g36
aS'cant'
p4925
aS'speak'
p4926
aaa(lp4927
g2877
a(lp4928
S'or'
p4929
ag36
aS'cant'
p4930
aS'do'
p4931
aS'this'
p4932
aaa(lp4933
g2877
a(lp4934
S'You'
p4935
aS'have'
p4936
aS'to'
p4937
aS'know'
p4938
aS'that'
p4939
aS'whatever'
p4940
aS'God'
p4941
aS'has'
p4942
aS'given'
p4943
aS'you'
p4944
aaa(lp4945
g2877
a(lp4946
S'Whatever'
p4947
aS'experience'
p4948
aS'that'
p4949
aS'God'
p4950
aS'has'
p4951
aS'brought'
p4952
aS'you'
p4953
aS'through'
p4954
aaa(lp4955
g2877
a(lp4956
S'That'
p4957
aS'He'
p4958
aS'wants'
p4959
aS'to'
p4960
aS'use'
p4961
aS'it'
p4962
aaa(lp4963
g2877
a(lp4964
S'To'
p4965
aS'reach'
p4966
aS'people'
p4967
aaa(lp4968
g2877
a(lp4969
S'for'
p4970
aS'His'
p4971
aS'Kingdom'
p4972
aaa(lp4973
g2877
a(lp4974
S'The'
p4975
aS'second'
p4976
aS'thing'
p4977
ag36
aS'want'
p4978
aS'us'
p4979
aS'to'
p4980
aS'know'
p4981
aaa(lp4982
g2877
a(lp4983
S'from'
p4984
aS'this'
p4985
aS'st'
p4986
aS'story'
p4987
aS'of'
p4988
aS'Moses'
p4989
aaa(lp4990
g2877
a(lp4991
S'is'
p4992
aS'that'
p4993
aS'God'
p4994
aS'reveals'
p4995
aS'His'
p4996
aS'mission'
p4997
aS'to'
p4998
aS'His'
p4999
aS'servants'
p5000
aaa(lp5001
S'ENV'
p5002
a(lp5003
aa(lp5004
S'DANNY'
p5005
a(lp5006
S'The'
p5007
aS'first'
p5008
aS'that'
p5009
aS'God'
p5010
aS'prepares'
p5011
aS'His'
p5012
aS'servants'
p5013
aS'for'
p5014
aS'His'
p5015
aS'mission'
p5016
aaa(lp5017
g5005
a(lp5018
S'the'
p5019
aS'second'
p5020
aS'is'
p5021
aS'that'
p5022
aS'God'
p5023
aS'reveals'
p5024
aS'His'
p5025
aS'mission'
p5026
aS'to'
p5027
aS'His'
p5028
aS'servants'
p5029
aaa(lp5030
g5005
a(lp5031
S'We'
p5032
aS'have'
p5033
aS'to'
p5034
aS'go'
p5035
aS'to'
p5036
aS'Exodus'
p5037
aS'three'
p5038
aaa(lp5039
g5005
a(lp5040
S'and'
p5041
aS'see'
p5042
aS'how'
p5043
aS'God'
p5044
aS'gets'
p5045
aS'Mosess'
p5046
aS'attention'
p5047
aaa.